;/////////////////////////////////////////////////////////////////////////////////
;// Code Generator: BoostC Compiler - http://www.sourceboost.com
;// Version       : 7.03
;// License Type  : Pro License
;// Limitations   : PIC12,PIC16 max code size:Unlimited, max RAM banks:Unlimited
;/////////////////////////////////////////////////////////////////////////////////

	ORG 0x00000000
0000  2C48  	GOTO	_startup
	ORG 0x00000004
0004  00FF  	MOVWF Int1Context
0005  0E03  	SWAPF STATUS, W
0006  1283  	BCF STATUS, RP0
0007  1303  	BCF STATUS, RP1
0008  00B4  	MOVWF Int1BContext
0009  0E0A  	SWAPF PCLATH, W
000A  00B5  	MOVWF Int1BContext+D'1'
000B  0E04  	SWAPF FSR, W
000C  00B6  	MOVWF Int1BContext+D'2'
000D  118A  	BCF PCLATH,3
000E  120A  	BCF PCLATH,4
000F  2C78  	GOTO	interrupt
	ORG 0x00000010
0010        delay_ms_00000
0010        ; { delay_ms ; function begin
0010  08D1  	MOVF delay_ms_00000_arg_del, F
0011  1D03  	BTFSS STATUS,Z
0012  2814  	GOTO	label1
0013  0008  	RETURN
0014        label1
0014  30F9  	MOVLW 0xF9
0015        label2
0015  0000  	NOP
0016  0000  	NOP
0017  0000  	NOP
0018  0000  	NOP
0019  0000  	NOP
001A  0000  	NOP
001B  0000  	NOP
001C  0000  	NOP
001D  0000  	NOP
001E  0000  	NOP
001F  0000  	NOP
0020  0000  	NOP
0021  0000  	NOP
0022  0000  	NOP
0023  0000  	NOP
0024  0000  	NOP
0025  3EFF  	ADDLW 0xFF
0026  1D03  	BTFSS STATUS,Z
0027  2815  	GOTO	label2
0028  0000  	NOP
0029  0000  	NOP
002A  0000  	NOP
002B  0000  	NOP
002C  0000  	NOP
002D  0000  	NOP
002E  0000  	NOP
002F  0000  	NOP
0030  0000  	NOP
0031  0000  	NOP
0032  0000  	NOP
0033  0000  	NOP
0034  0000  	NOP
0035  0000  	NOP
0036  0000  	NOP
0037  0000  	NOP
0038  0000  	NOP
0039  0BD1  	DECFSZ delay_ms_00000_arg_del, F
003A  2814  	GOTO	label1
003B  0008  	RETURN
003C        ; } delay_ms function end

	ORG 0x0000003C
003C        delay_10us_00000
003C        ; { delay_10us ; function begin
003C  08D7  	MOVF delay_10us_00000_arg_del, F
003D  1D03  	BTFSS STATUS,Z
003E  2840  	GOTO	label3
003F  0008  	RETURN
0040        label3
0040  3009  	MOVLW 0x09
0041        label4
0041  0000  	NOP
0042  3EFF  	ADDLW 0xFF
0043  1D03  	BTFSS STATUS,Z
0044  2841  	GOTO	label4
0045  0000  	NOP
0046  0000  	NOP
0047  0BD7  	DECFSZ delay_10us_00000_arg_del, F
0048  2840  	GOTO	label3
0049  0008  	RETURN
004A        ; } delay_10us function end

	ORG 0x0000004A
004A        delay_us_00000
004A        ; { delay_us ; function begin
004A        label5
004A  0000  	NOP
004B  0000  	NOP
004C  0BCA  	DECFSZ delay_us_00000_arg_del, F
004D  284A  	GOTO	label5
004E  0008  	RETURN
004F        ; } delay_us function end

	ORG 0x0000004F
004F        Wdt_Delay__0003E
004F        ; { Wdt_Delay_Ms ; function begin
004F  01D0  	CLRF Wdt_Delay__0003E_1_i
0050        label6
0050  084F  	MOVF Wdt_Delay__0003E_arg_delay, W
0051  0250  	SUBWF Wdt_Delay__0003E_1_i, W
0052  1803  	BTFSC STATUS,C
0053  0008  	RETURN
0054  0064  	CLRWDT
0055  3001  	MOVLW 0x01
0056  00D1  	MOVWF delay_ms_00000_arg_del
0057  2010  	CALL delay_ms_00000
0058  0AD0  	INCF Wdt_Delay__0003E_1_i, F
0059  2850  	GOTO	label6
005A        ; } Wdt_Delay_Ms function end

	ORG 0x0000005A
005A        FC_CAL_SPI_0005F
005A        ; { FC_CAL_SPI_Master_Byte_1 ; function begin
005A  01CC  	CLRF FC_CAL_SPI_0005F_1_retVal
005B  084B  	MOVF FC_CAL_SPI_0005F_arg_DataOut, W
005C  0093  	MOVWF gbl_sspbuf
005D        label7
005D  1683  	BSF STATUS, RP0
005E  1C14  	BTFSS gbl_sspstat,0
005F  285D  	GOTO	label7
0060  1283  	BCF STATUS, RP0
0061  0813  	MOVF gbl_sspbuf, W
0062  00CC  	MOVWF FC_CAL_SPI_0005F_1_retVal
0063  084C  	MOVF FC_CAL_SPI_0005F_1_retVal, W
0064  00CD  	MOVWF CompTempVarRet2229
0065  0008  	RETURN
0066        ; } FC_CAL_SPI_Master_Byte_1 function end

	ORG 0x00000066
0066        FCD_LCDDis_0006B
0066        ; { FCD_LCDDisplay0_RawSend ; function begin
0066  1106  	BCF gbl_portb,2
0067  1186  	BCF gbl_portb,3
0068  1206  	BCF gbl_portb,4
0069  1286  	BCF gbl_portb,5
006A  1006  	BCF gbl_portb,0
006B  1086  	BCF gbl_portb,1
006C  0E54  	SWAPF FCD_LCDDis_0006B_arg_in, W
006D  390F  	ANDLW 0x0F
006E  00D6  	MOVWF FCD_LCDDis_0006B_1_pt
006F  300F  	MOVLW 0x0F
0070  05D6  	ANDWF FCD_LCDDis_0006B_1_pt, F
0071  1856  	BTFSC FCD_LCDDis_0006B_1_pt,0
0072  1506  	BSF gbl_portb,2
0073  18D6  	BTFSC FCD_LCDDis_0006B_1_pt,1
0074  1586  	BSF gbl_portb,3
0075  1956  	BTFSC FCD_LCDDis_0006B_1_pt,2
0076  1606  	BSF gbl_portb,4
0077  19D6  	BTFSC FCD_LCDDis_0006B_1_pt,3
0078  1686  	BSF gbl_portb,5
0079  08D5  	MOVF FCD_LCDDis_0006B_arg_mask, F
007A  1D03  	BTFSS STATUS,Z
007B  1406  	BSF gbl_portb,0
007C  300A  	MOVLW 0x0A
007D  00D7  	MOVWF delay_10us_00000_arg_del
007E  203C  	CALL delay_10us_00000
007F  1486  	BSF gbl_portb,1
0080  300A  	MOVLW 0x0A
0081  00D7  	MOVWF delay_10us_00000_arg_del
0082  203C  	CALL delay_10us_00000
0083  1086  	BCF gbl_portb,1
0084  300F  	MOVLW 0x0F
0085  0554  	ANDWF FCD_LCDDis_0006B_arg_in, W
0086  00D6  	MOVWF FCD_LCDDis_0006B_1_pt
0087  300A  	MOVLW 0x0A
0088  00D7  	MOVWF delay_10us_00000_arg_del
0089  203C  	CALL delay_10us_00000
008A  1106  	BCF gbl_portb,2
008B  1186  	BCF gbl_portb,3
008C  1206  	BCF gbl_portb,4
008D  1286  	BCF gbl_portb,5
008E  1006  	BCF gbl_portb,0
008F  1086  	BCF gbl_portb,1
0090  1856  	BTFSC FCD_LCDDis_0006B_1_pt,0
0091  1506  	BSF gbl_portb,2
0092  18D6  	BTFSC FCD_LCDDis_0006B_1_pt,1
0093  1586  	BSF gbl_portb,3
0094  1956  	BTFSC FCD_LCDDis_0006B_1_pt,2
0095  1606  	BSF gbl_portb,4
0096  19D6  	BTFSC FCD_LCDDis_0006B_1_pt,3
0097  1686  	BSF gbl_portb,5
0098  08D5  	MOVF FCD_LCDDis_0006B_arg_mask, F
0099  1D03  	BTFSS STATUS,Z
009A  1406  	BSF gbl_portb,0
009B  300A  	MOVLW 0x0A
009C  00D7  	MOVWF delay_10us_00000_arg_del
009D  203C  	CALL delay_10us_00000
009E  1486  	BSF gbl_portb,1
009F  300A  	MOVLW 0x0A
00A0  00D7  	MOVWF delay_10us_00000_arg_del
00A1  203C  	CALL delay_10us_00000
00A2  1086  	BCF gbl_portb,1
00A3  300A  	MOVLW 0x0A
00A4  00D7  	MOVWF delay_10us_00000_arg_del
00A5  203C  	CALL delay_10us_00000
00A6  0008  	RETURN
00A7        ; } FCD_LCDDisplay0_RawSend function end

	ORG 0x000000A7
00A7        __div_16_1_00003
00A7        ; { __div_16_16 ; function begin
00A7  01D5  	CLRF __div_16_1_00003_1_r
00A8  01D6  	CLRF __div_16_1_00003_1_r+D'1'
00A9  01D8  	CLRF CompTempVarRet214
00AA  01D9  	CLRF CompTempVarRet214+D'1'
00AB  01D7  	CLRF __div_16_1_00003_1_i
00AC        label8
00AC  1A57  	BTFSC __div_16_1_00003_1_i,4
00AD  0008  	RETURN
00AE  1003  	BCF STATUS,C
00AF  0DD8  	RLF CompTempVarRet214, F
00B0  0DD9  	RLF CompTempVarRet214+D'1', F
00B1  0DCF  	RLF __div_16_1_00003_arg_a, F
00B2  0DD0  	RLF __div_16_1_00003_arg_a+D'1', F
00B3  0DD5  	RLF __div_16_1_00003_1_r, F
00B4  0DD6  	RLF __div_16_1_00003_1_r+D'1', F
00B5  0852  	MOVF __div_16_1_00003_arg_b+D'1', W
00B6  0256  	SUBWF __div_16_1_00003_1_r+D'1', W
00B7  1D03  	BTFSS STATUS,Z
00B8  28BB  	GOTO	label9
00B9  0851  	MOVF __div_16_1_00003_arg_b, W
00BA  0255  	SUBWF __div_16_1_00003_1_r, W
00BB        label9
00BB  1C03  	BTFSS STATUS,C
00BC  28C4  	GOTO	label10
00BD  0851  	MOVF __div_16_1_00003_arg_b, W
00BE  02D5  	SUBWF __div_16_1_00003_1_r, F
00BF  0852  	MOVF __div_16_1_00003_arg_b+D'1', W
00C0  1C03  	BTFSS STATUS,C
00C1  03D6  	DECF __div_16_1_00003_1_r+D'1', F
00C2  02D6  	SUBWF __div_16_1_00003_1_r+D'1', F
00C3  1458  	BSF CompTempVarRet214,0
00C4        label10
00C4  0AD7  	INCF __div_16_1_00003_1_i, F
00C5  28AC  	GOTO	label8
00C6        ; } __div_16_16 function end

	ORG 0x000000C6
00C6        FCD_SPI_Le_00052
00C6        ; { FCD_SPI_Legacy0_SPI_Send_Char ; function begin
00C6  084A  	MOVF FCD_SPI_Le_00052_arg_Char, W
00C7  00CB  	MOVWF FC_CAL_SPI_0005F_arg_DataOut
00C8  205A  	CALL FC_CAL_SPI_0005F
00C9  0008  	RETURN
00CA        ; } FCD_SPI_Legacy0_SPI_Send_Char function end

	ORG 0x000000CA
00CA        FCD_LCDDis_0005A
00CA        ; { FCD_LCDDisplay0_Cursor ; function begin
00CA  08CE  	MOVF FCD_LCDDis_0005A_arg_y, F
00CB  1D03  	BTFSS STATUS,Z
00CC  28D0  	GOTO	label11
00CD  3080  	MOVLW 0x80
00CE  00CE  	MOVWF FCD_LCDDis_0005A_arg_y
00CF  28DF  	GOTO	label14
00D0        label11
00D0  034E  	DECF FCD_LCDDis_0005A_arg_y, W
00D1  1D03  	BTFSS STATUS,Z
00D2  28D6  	GOTO	label12
00D3  30C0  	MOVLW 0xC0
00D4  00CE  	MOVWF FCD_LCDDis_0005A_arg_y
00D5  28DF  	GOTO	label14
00D6        label12
00D6  084E  	MOVF FCD_LCDDis_0005A_arg_y, W
00D7  3A02  	XORLW 0x02
00D8  1D03  	BTFSS STATUS,Z
00D9  28DD  	GOTO	label13
00DA  3094  	MOVLW 0x94
00DB  00CE  	MOVWF FCD_LCDDis_0005A_arg_y
00DC  28DF  	GOTO	label14
00DD        label13
00DD  30D4  	MOVLW 0xD4
00DE  00CE  	MOVWF FCD_LCDDis_0005A_arg_y
00DF        label14
00DF  084D  	MOVF FCD_LCDDis_0005A_arg_x, W
00E0  074E  	ADDWF FCD_LCDDis_0005A_arg_y, W
00E1  00D4  	MOVWF FCD_LCDDis_0006B_arg_in
00E2  01D5  	CLRF FCD_LCDDis_0006B_arg_mask
00E3  2066  	CALL FCD_LCDDis_0006B
00E4  3002  	MOVLW 0x02
00E5  00CF  	MOVWF Wdt_Delay__0003E_arg_delay
00E6  204F  	CALL Wdt_Delay__0003E
00E7  0008  	RETURN
00E8        ; } FCD_LCDDisplay0_Cursor function end

	ORG 0x000000E8
00E8        FC_CAL_SPI_0005D
00E8        ; { FC_CAL_SPI_Master_Init_1 ; function begin
00E8  1683  	BSF STATUS, RP0
00E9  1303  	BCF STATUS, RP1
00EA  1287  	BCF gbl_trisc,5
00EB  1283  	BCF STATUS, RP0
00EC  1687  	BSF gbl_portc,5
00ED  1683  	BSF STATUS, RP0
00EE  1607  	BSF gbl_trisc,4
00EF  1187  	BCF gbl_trisc,3
00F0  1283  	BCF STATUS, RP0
00F1  1187  	BCF gbl_portc,3
00F2  3001  	MOVLW 0x01
00F3  0094  	MOVWF gbl_sspcon
00F4  1214  	BCF gbl_sspcon,4
00F5  1683  	BSF STATUS, RP0
00F6  1714  	BSF gbl_sspstat,6
00F7  1794  	BSF gbl_sspstat,7
00F8  1283  	BCF STATUS, RP0
00F9  1694  	BSF gbl_sspcon,5
00FA  0008  	RETURN
00FB        ; } FC_CAL_SPI_Master_Init_1 function end

	ORG 0x000000FB
00FB        FCM_flush__00053
00FB        ; { FCM_flush_tx_rx ; function begin
00FB  30FB  	MOVLW 0xFB
00FC  1683  	BSF STATUS, RP0
00FD  1303  	BCF STATUS, RP1
00FE  0507  	ANDWF gbl_trisc, W
00FF  0087  	MOVWF gbl_trisc
0100  30FB  	MOVLW 0xFB
0101  1283  	BCF STATUS, RP0
0102  0507  	ANDWF gbl_portc, W
0103  0087  	MOVWF gbl_portc
0104  3008  	MOVLW 0x08
0105  00CA  	MOVWF delay_us_00000_arg_del
0106  204A  	CALL delay_us_00000
0107  30E1  	MOVLW 0xE1
0108  00C6  	MOVWF gbl_FCV_SPI_MOSI
0109  0846  	MOVF gbl_FCV_SPI_MOSI, W
010A  00CA  	MOVWF FCD_SPI_Le_00052_arg_Char
010B  20C6  	CALL FCD_SPI_Le_00052
010C  30E2  	MOVLW 0xE2
010D  00C6  	MOVWF gbl_FCV_SPI_MOSI
010E  0846  	MOVF gbl_FCV_SPI_MOSI, W
010F  00CA  	MOVWF FCD_SPI_Le_00052_arg_Char
0110  20C6  	CALL FCD_SPI_Le_00052
0111  30FB  	MOVLW 0xFB
0112  1683  	BSF STATUS, RP0
0113  0507  	ANDWF gbl_trisc, W
0114  0087  	MOVWF gbl_trisc
0115  30FB  	MOVLW 0xFB
0116  1283  	BCF STATUS, RP0
0117  0507  	ANDWF gbl_portc, W
0118  00CA  	MOVWF CompTempVar2189
0119  3004  	MOVLW 0x04
011A  044A  	IORWF CompTempVar2189, W
011B  0087  	MOVWF gbl_portc
011C  3008  	MOVLW 0x08
011D  00CA  	MOVWF delay_us_00000_arg_del
011E  204A  	CALL delay_us_00000
011F  0008  	RETURN
0120        ; } FCM_flush_tx_rx function end

	ORG 0x00000120
0120        FCD_SPI_Le_00057
0120        ; { FCD_SPI_Legacy0_SPI_Get_Char ; function begin
0120  1283  	BCF STATUS, RP0
0121  1303  	BCF STATUS, RP1
0122  01CA  	CLRF FCD_SPI_Le_00057_1_retVal
0123  30FF  	MOVLW 0xFF
0124  00CB  	MOVWF FC_CAL_SPI_0005F_arg_DataOut
0125  205A  	CALL FC_CAL_SPI_0005F
0126  084D  	MOVF CompTempVarRet2229, W
0127  00CA  	MOVWF FCD_SPI_Le_00057_1_retVal
0128  084A  	MOVF FCD_SPI_Le_00057_1_retVal, W
0129  00CB  	MOVWF CompTempVarRet2196
012A  0008  	RETURN
012B        ; } FCD_SPI_Legacy0_SPI_Get_Char function end

	ORG 0x0000012B
012B        FCD_LCDDis_0005C
012B        ; { FCD_LCDDisplay0_PrintNumber ; function begin
012B  1FCB  	BTFSS FCD_LCDDis_0005C_arg_Number+D'1',7
012C  293A  	GOTO	label15
012D  302D  	MOVLW 0x2D
012E  00D4  	MOVWF FCD_LCDDis_0006B_arg_in
012F  3010  	MOVLW 0x10
0130  00D5  	MOVWF FCD_LCDDis_0006B_arg_mask
0131  2066  	CALL FCD_LCDDis_0006B
0132  084A  	MOVF FCD_LCDDis_0005C_arg_Number, W
0133  3C00  	SUBLW 0x00
0134  00CF  	MOVWF CompTempVar2209
0135  09CB  	COMF FCD_LCDDis_0005C_arg_Number+D'1', F
0136  1803  	BTFSC STATUS,C
0137  0ACB  	INCF FCD_LCDDis_0005C_arg_Number+D'1', F
0138  084F  	MOVF CompTempVar2209, W
0139  00CA  	MOVWF FCD_LCDDis_0005C_arg_Number
013A        label15
013A  084A  	MOVF FCD_LCDDis_0005C_arg_Number, W
013B  00CC  	MOVWF FCD_LCDDis_0005C_1_tmp_int
013C  084B  	MOVF FCD_LCDDis_0005C_arg_Number+D'1', W
013D  00CD  	MOVWF FCD_LCDDis_0005C_1_tmp_int+D'1'
013E  3027  	MOVLW 0x27
013F  024B  	SUBWF FCD_LCDDis_0005C_arg_Number+D'1', W
0140  1D03  	BTFSS STATUS,Z
0141  2944  	GOTO	label16
0142  3010  	MOVLW 0x10
0143  024A  	SUBWF FCD_LCDDis_0005C_arg_Number, W
0144        label16
0144  1C03  	BTFSS STATUS,C
0145  2972  	GOTO	label20
0146  1BCB  	BTFSC FCD_LCDDis_0005C_arg_Number+D'1',7
0147  2972  	GOTO	label20
0148  01D3  	CLRF CompTempVar2212
0149  084C  	MOVF FCD_LCDDis_0005C_1_tmp_int, W
014A  00CF  	MOVWF __div_16_1_00003_arg_a
014B  084D  	MOVF FCD_LCDDis_0005C_1_tmp_int+D'1', W
014C  00D0  	MOVWF __div_16_1_00003_arg_a+D'1'
014D  1FCD  	BTFSS FCD_LCDDis_0005C_1_tmp_int+D'1',7
014E  2955  	GOTO	label17
014F  09CF  	COMF __div_16_1_00003_arg_a, F
0150  09D0  	COMF __div_16_1_00003_arg_a+D'1', F
0151  0ACF  	INCF __div_16_1_00003_arg_a, F
0152  1903  	BTFSC STATUS,Z
0153  0AD0  	INCF __div_16_1_00003_arg_a+D'1', F
0154  0AD3  	INCF CompTempVar2212, F
0155        label17
0155  3010  	MOVLW 0x10
0156  00D1  	MOVWF __div_16_1_00003_arg_b
0157  3027  	MOVLW 0x27
0158  00D2  	MOVWF __div_16_1_00003_arg_b+D'1'
0159  20A7  	CALL __div_16_1_00003
015A  0858  	MOVF CompTempVarRet214, W
015B  00CE  	MOVWF FCD_LCDDis_0005C_1_tmp_byte
015C  1C53  	BTFSS CompTempVar2212,0
015D  2960  	GOTO	label18
015E  09CE  	COMF FCD_LCDDis_0005C_1_tmp_byte, F
015F  0ACE  	INCF FCD_LCDDis_0005C_1_tmp_byte, F
0160        label18
0160  084E  	MOVF FCD_LCDDis_0005C_1_tmp_byte, W
0161  3E30  	ADDLW 0x30
0162  00D4  	MOVWF FCD_LCDDis_0006B_arg_in
0163  3010  	MOVLW 0x10
0164  00D5  	MOVWF FCD_LCDDis_0006B_arg_mask
0165  2066  	CALL FCD_LCDDis_0006B
0166        label19
0166  084E  	MOVF FCD_LCDDis_0005C_1_tmp_byte, W
0167  3C00  	SUBLW 0x00
0168  1803  	BTFSC STATUS,C
0169  2972  	GOTO	label20
016A  3010  	MOVLW 0x10
016B  02CC  	SUBWF FCD_LCDDis_0005C_1_tmp_int, F
016C  3027  	MOVLW 0x27
016D  1C03  	BTFSS STATUS,C
016E  3028  	MOVLW 0x28
016F  02CD  	SUBWF FCD_LCDDis_0005C_1_tmp_int+D'1', F
0170  03CE  	DECF FCD_LCDDis_0005C_1_tmp_byte, F
0171  2966  	GOTO	label19
0172        label20
0172  3003  	MOVLW 0x03
0173  024B  	SUBWF FCD_LCDDis_0005C_arg_Number+D'1', W
0174  1D03  	BTFSS STATUS,Z
0175  2978  	GOTO	label21
0176  30E8  	MOVLW 0xE8
0177  024A  	SUBWF FCD_LCDDis_0005C_arg_Number, W
0178        label21
0178  1C03  	BTFSS STATUS,C
0179  29A8  	GOTO	label25
017A  1BCB  	BTFSC FCD_LCDDis_0005C_arg_Number+D'1',7
017B  29A8  	GOTO	label25
017C  01D4  	CLRF CompTempVar2216
017D  084C  	MOVF FCD_LCDDis_0005C_1_tmp_int, W
017E  00CF  	MOVWF __div_16_1_00003_arg_a
017F  084D  	MOVF FCD_LCDDis_0005C_1_tmp_int+D'1', W
0180  00D0  	MOVWF __div_16_1_00003_arg_a+D'1'
0181  1FCD  	BTFSS FCD_LCDDis_0005C_1_tmp_int+D'1',7
0182  2989  	GOTO	label22
0183  09CF  	COMF __div_16_1_00003_arg_a, F
0184  09D0  	COMF __div_16_1_00003_arg_a+D'1', F
0185  0ACF  	INCF __div_16_1_00003_arg_a, F
0186  1903  	BTFSC STATUS,Z
0187  0AD0  	INCF __div_16_1_00003_arg_a+D'1', F
0188  0AD4  	INCF CompTempVar2216, F
0189        label22
0189  30E8  	MOVLW 0xE8
018A  00D1  	MOVWF __div_16_1_00003_arg_b
018B  3003  	MOVLW 0x03
018C  00D2  	MOVWF __div_16_1_00003_arg_b+D'1'
018D  20A7  	CALL __div_16_1_00003
018E  0858  	MOVF CompTempVarRet214, W
018F  00D3  	MOVWF CompTempVar2215
0190  1C54  	BTFSS CompTempVar2216,0
0191  2994  	GOTO	label23
0192  09D3  	COMF CompTempVar2215, F
0193  0AD3  	INCF CompTempVar2215, F
0194        label23
0194  0853  	MOVF CompTempVar2215, W
0195  00CE  	MOVWF FCD_LCDDis_0005C_1_tmp_byte
0196  084E  	MOVF FCD_LCDDis_0005C_1_tmp_byte, W
0197  3E30  	ADDLW 0x30
0198  00D4  	MOVWF FCD_LCDDis_0006B_arg_in
0199  3010  	MOVLW 0x10
019A  00D5  	MOVWF FCD_LCDDis_0006B_arg_mask
019B  2066  	CALL FCD_LCDDis_0006B
019C        label24
019C  084E  	MOVF FCD_LCDDis_0005C_1_tmp_byte, W
019D  3C00  	SUBLW 0x00
019E  1803  	BTFSC STATUS,C
019F  29A8  	GOTO	label25
01A0  30E8  	MOVLW 0xE8
01A1  02CC  	SUBWF FCD_LCDDis_0005C_1_tmp_int, F
01A2  3003  	MOVLW 0x03
01A3  1C03  	BTFSS STATUS,C
01A4  3004  	MOVLW 0x04
01A5  02CD  	SUBWF FCD_LCDDis_0005C_1_tmp_int+D'1', F
01A6  03CE  	DECF FCD_LCDDis_0005C_1_tmp_byte, F
01A7  299C  	GOTO	label24
01A8        label25
01A8  084B  	MOVF FCD_LCDDis_0005C_arg_Number+D'1', W
01A9  3A80  	XORLW 0x80
01AA  00CF  	MOVWF CompTempVar2219
01AB  3080  	MOVLW 0x80
01AC  024F  	SUBWF CompTempVar2219, W
01AD  1D03  	BTFSS STATUS,Z
01AE  29B1  	GOTO	label26
01AF  3064  	MOVLW 0x64
01B0  024A  	SUBWF FCD_LCDDis_0005C_arg_Number, W
01B1        label26
01B1  1C03  	BTFSS STATUS,C
01B2  29DD  	GOTO	label30
01B3  01D4  	CLRF CompTempVar2221
01B4  084C  	MOVF FCD_LCDDis_0005C_1_tmp_int, W
01B5  00CF  	MOVWF __div_16_1_00003_arg_a
01B6  084D  	MOVF FCD_LCDDis_0005C_1_tmp_int+D'1', W
01B7  00D0  	MOVWF __div_16_1_00003_arg_a+D'1'
01B8  1FCD  	BTFSS FCD_LCDDis_0005C_1_tmp_int+D'1',7
01B9  29C0  	GOTO	label27
01BA  09CF  	COMF __div_16_1_00003_arg_a, F
01BB  09D0  	COMF __div_16_1_00003_arg_a+D'1', F
01BC  0ACF  	INCF __div_16_1_00003_arg_a, F
01BD  1903  	BTFSC STATUS,Z
01BE  0AD0  	INCF __div_16_1_00003_arg_a+D'1', F
01BF  0AD4  	INCF CompTempVar2221, F
01C0        label27
01C0  3064  	MOVLW 0x64
01C1  00D1  	MOVWF __div_16_1_00003_arg_b
01C2  01D2  	CLRF __div_16_1_00003_arg_b+D'1'
01C3  20A7  	CALL __div_16_1_00003
01C4  0858  	MOVF CompTempVarRet214, W
01C5  00D3  	MOVWF CompTempVar2220
01C6  1C54  	BTFSS CompTempVar2221,0
01C7  29CA  	GOTO	label28
01C8  09D3  	COMF CompTempVar2220, F
01C9  0AD3  	INCF CompTempVar2220, F
01CA        label28
01CA  0853  	MOVF CompTempVar2220, W
01CB  00CE  	MOVWF FCD_LCDDis_0005C_1_tmp_byte
01CC  084E  	MOVF FCD_LCDDis_0005C_1_tmp_byte, W
01CD  3E30  	ADDLW 0x30
01CE  00D4  	MOVWF FCD_LCDDis_0006B_arg_in
01CF  3010  	MOVLW 0x10
01D0  00D5  	MOVWF FCD_LCDDis_0006B_arg_mask
01D1  2066  	CALL FCD_LCDDis_0006B
01D2        label29
01D2  084E  	MOVF FCD_LCDDis_0005C_1_tmp_byte, W
01D3  3C00  	SUBLW 0x00
01D4  1803  	BTFSC STATUS,C
01D5  29DD  	GOTO	label30
01D6  3064  	MOVLW 0x64
01D7  02CC  	SUBWF FCD_LCDDis_0005C_1_tmp_int, F
01D8  08CD  	MOVF FCD_LCDDis_0005C_1_tmp_int+D'1', F
01D9  1C03  	BTFSS STATUS,C
01DA  03CD  	DECF FCD_LCDDis_0005C_1_tmp_int+D'1', F
01DB  03CE  	DECF FCD_LCDDis_0005C_1_tmp_byte, F
01DC  29D2  	GOTO	label29
01DD        label30
01DD  084B  	MOVF FCD_LCDDis_0005C_arg_Number+D'1', W
01DE  3A80  	XORLW 0x80
01DF  00CF  	MOVWF CompTempVar2224
01E0  3080  	MOVLW 0x80
01E1  024F  	SUBWF CompTempVar2224, W
01E2  1D03  	BTFSS STATUS,Z
01E3  29E6  	GOTO	label31
01E4  300A  	MOVLW 0x0A
01E5  024A  	SUBWF FCD_LCDDis_0005C_arg_Number, W
01E6        label31
01E6  1C03  	BTFSS STATUS,C
01E7  2A12  	GOTO	label35
01E8  01D4  	CLRF CompTempVar2226
01E9  084C  	MOVF FCD_LCDDis_0005C_1_tmp_int, W
01EA  00CF  	MOVWF __div_16_1_00003_arg_a
01EB  084D  	MOVF FCD_LCDDis_0005C_1_tmp_int+D'1', W
01EC  00D0  	MOVWF __div_16_1_00003_arg_a+D'1'
01ED  1FCD  	BTFSS FCD_LCDDis_0005C_1_tmp_int+D'1',7
01EE  29F5  	GOTO	label32
01EF  09CF  	COMF __div_16_1_00003_arg_a, F
01F0  09D0  	COMF __div_16_1_00003_arg_a+D'1', F
01F1  0ACF  	INCF __div_16_1_00003_arg_a, F
01F2  1903  	BTFSC STATUS,Z
01F3  0AD0  	INCF __div_16_1_00003_arg_a+D'1', F
01F4  0AD4  	INCF CompTempVar2226, F
01F5        label32
01F5  300A  	MOVLW 0x0A
01F6  00D1  	MOVWF __div_16_1_00003_arg_b
01F7  01D2  	CLRF __div_16_1_00003_arg_b+D'1'
01F8  20A7  	CALL __div_16_1_00003
01F9  0858  	MOVF CompTempVarRet214, W
01FA  00D3  	MOVWF CompTempVar2225
01FB  1C54  	BTFSS CompTempVar2226,0
01FC  29FF  	GOTO	label33
01FD  09D3  	COMF CompTempVar2225, F
01FE  0AD3  	INCF CompTempVar2225, F
01FF        label33
01FF  0853  	MOVF CompTempVar2225, W
0200  00CE  	MOVWF FCD_LCDDis_0005C_1_tmp_byte
0201  084E  	MOVF FCD_LCDDis_0005C_1_tmp_byte, W
0202  3E30  	ADDLW 0x30
0203  00D4  	MOVWF FCD_LCDDis_0006B_arg_in
0204  3010  	MOVLW 0x10
0205  00D5  	MOVWF FCD_LCDDis_0006B_arg_mask
0206  2066  	CALL FCD_LCDDis_0006B
0207        label34
0207  084E  	MOVF FCD_LCDDis_0005C_1_tmp_byte, W
0208  3C00  	SUBLW 0x00
0209  1803  	BTFSC STATUS,C
020A  2A12  	GOTO	label35
020B  300A  	MOVLW 0x0A
020C  02CC  	SUBWF FCD_LCDDis_0005C_1_tmp_int, F
020D  08CD  	MOVF FCD_LCDDis_0005C_1_tmp_int+D'1', F
020E  1C03  	BTFSS STATUS,C
020F  03CD  	DECF FCD_LCDDis_0005C_1_tmp_int+D'1', F
0210  03CE  	DECF FCD_LCDDis_0005C_1_tmp_byte, F
0211  2A07  	GOTO	label34
0212        label35
0212  084C  	MOVF FCD_LCDDis_0005C_1_tmp_int, W
0213  3E30  	ADDLW 0x30
0214  00D4  	MOVWF FCD_LCDDis_0006B_arg_in
0215  3010  	MOVLW 0x10
0216  00D5  	MOVWF FCD_LCDDis_0006B_arg_mask
0217  2066  	CALL FCD_LCDDis_0006B
0218  0008  	RETURN
0219        ; } FCD_LCDDisplay0_PrintNumber function end

	ORG 0x00000219
0219        FCD_LCDDis_0005B
0219        ; { FCD_LCDDisplay0_PrintString ; function begin
0219  01D3  	CLRF FCD_LCDDis_0005B_1_idx
021A  01D3  	CLRF FCD_LCDDis_0005B_1_idx
021B        label36
021B  0852  	MOVF FCD_LCDDis_0005B_arg_MSZ_String, W
021C  0253  	SUBWF FCD_LCDDis_0005B_1_idx, W
021D  1803  	BTFSC STATUS,C
021E  0008  	RETURN
021F  1383  	BCF STATUS,IRP
0220  184B  	BTFSC FCD_LCDDis_0005B_arg_String+D'1',0
0221  1783  	BSF STATUS,IRP
0222  084A  	MOVF FCD_LCDDis_0005B_arg_String, W
0223  0753  	ADDWF FCD_LCDDis_0005B_1_idx, W
0224  0084  	MOVWF FSR
0225  0880  	MOVF INDF, F
0226  1903  	BTFSC STATUS,Z
0227  0008  	RETURN
0228  1383  	BCF STATUS,IRP
0229  184B  	BTFSC FCD_LCDDis_0005B_arg_String+D'1',0
022A  1783  	BSF STATUS,IRP
022B  084A  	MOVF FCD_LCDDis_0005B_arg_String, W
022C  0753  	ADDWF FCD_LCDDis_0005B_1_idx, W
022D  0084  	MOVWF FSR
022E  0800  	MOVF INDF, W
022F  00D4  	MOVWF FCD_LCDDis_0006B_arg_in
0230  3010  	MOVLW 0x10
0231  00D5  	MOVWF FCD_LCDDis_0006B_arg_mask
0232  2066  	CALL FCD_LCDDis_0006B
0233  0AD3  	INCF FCD_LCDDis_0005B_1_idx, F
0234  2A1B  	GOTO	label36
0235        ; } FCD_LCDDisplay0_PrintString function end

	ORG 0x00000235
0235        FCD_LCDDis_00059
0235        ; { FCD_LCDDisplay0_ClearLine ; function begin
0235  3014  	MOVLW 0x14
0236  00CC  	MOVWF FCD_LCDDis_00059_1_rowcount
0237  01CD  	CLRF FCD_LCDDis_0005A_arg_x
0238  084A  	MOVF FCD_LCDDis_00059_arg_Line, W
0239  00CE  	MOVWF FCD_LCDDis_0005A_arg_y
023A  20CA  	CALL FCD_LCDDis_0005A
023B  01CB  	CLRF FCD_LCDDis_00059_1_count
023C        label37
023C  084C  	MOVF FCD_LCDDis_00059_1_rowcount, W
023D  024B  	SUBWF FCD_LCDDis_00059_1_count, W
023E  1803  	BTFSC STATUS,C
023F  2A47  	GOTO	label38
0240  3020  	MOVLW 0x20
0241  00D4  	MOVWF FCD_LCDDis_0006B_arg_in
0242  3010  	MOVLW 0x10
0243  00D5  	MOVWF FCD_LCDDis_0006B_arg_mask
0244  2066  	CALL FCD_LCDDis_0006B
0245  0ACB  	INCF FCD_LCDDis_00059_1_count, F
0246  2A3C  	GOTO	label37
0247        label38
0247  01CD  	CLRF FCD_LCDDis_0005A_arg_x
0248  084A  	MOVF FCD_LCDDis_00059_arg_Line, W
0249  00CE  	MOVWF FCD_LCDDis_0005A_arg_y
024A  20CA  	CALL FCD_LCDDis_0005A
024B  0008  	RETURN
024C        ; } FCD_LCDDisplay0_ClearLine function end

	ORG 0x0000024C
024C        FCM_radio__00056
024C        ; { FCM_radio_recievedata ; function begin
024C  30FB  	MOVLW 0xFB
024D  1683  	BSF STATUS, RP0
024E  1303  	BCF STATUS, RP1
024F  0507  	ANDWF gbl_trisc, W
0250  0087  	MOVWF gbl_trisc
0251  30FB  	MOVLW 0xFB
0252  1283  	BCF STATUS, RP0
0253  0507  	ANDWF gbl_portc, W
0254  0087  	MOVWF gbl_portc
0255  3008  	MOVLW 0x08
0256  00CA  	MOVWF delay_us_00000_arg_del
0257  204A  	CALL delay_us_00000
0258  3061  	MOVLW 0x61
0259  00C6  	MOVWF gbl_FCV_SPI_MOSI
025A  0846  	MOVF gbl_FCV_SPI_MOSI, W
025B  00CA  	MOVWF FCD_SPI_Le_00052_arg_Char
025C  20C6  	CALL FCD_SPI_Le_00052
025D  2120  	CALL FCD_SPI_Le_00057
025E  084B  	MOVF CompTempVarRet2196, W
025F  00C5  	MOVWF gbl_FCV_SPI_MISO
0260  30FB  	MOVLW 0xFB
0261  1683  	BSF STATUS, RP0
0262  0507  	ANDWF gbl_trisc, W
0263  0087  	MOVWF gbl_trisc
0264  30FB  	MOVLW 0xFB
0265  1283  	BCF STATUS, RP0
0266  0507  	ANDWF gbl_portc, W
0267  00CA  	MOVWF CompTempVar2195
0268  3004  	MOVLW 0x04
0269  044A  	IORWF CompTempVar2195, W
026A  0087  	MOVWF gbl_portc
026B  3008  	MOVLW 0x08
026C  00CA  	MOVWF delay_us_00000_arg_del
026D  204A  	CALL delay_us_00000
026E  0845  	MOVF gbl_FCV_SPI_MISO, W
026F  00C2  	MOVWF gbl_FCV_RCV_DATA
0270  0008  	RETURN
0271        ; } FCM_radio_recievedata function end

	ORG 0x00000271
0271        FCM_radio__00055
0271        ; { FCM_radio_rx_init ; function begin
0271  30FD  	MOVLW 0xFD
0272  1683  	BSF STATUS, RP0
0273  1303  	BCF STATUS, RP1
0274  0507  	ANDWF gbl_trisc, W
0275  0087  	MOVWF gbl_trisc
0276  30FD  	MOVLW 0xFD
0277  1283  	BCF STATUS, RP0
0278  0507  	ANDWF gbl_portc, W
0279  0087  	MOVWF gbl_portc
027A  30FB  	MOVLW 0xFB
027B  1683  	BSF STATUS, RP0
027C  0507  	ANDWF gbl_trisc, W
027D  0087  	MOVWF gbl_trisc
027E  30FB  	MOVLW 0xFB
027F  1283  	BCF STATUS, RP0
0280  0507  	ANDWF gbl_portc, W
0281  0087  	MOVWF gbl_portc
0282  3008  	MOVLW 0x08
0283  00CA  	MOVWF delay_us_00000_arg_del
0284  204A  	CALL delay_us_00000
0285  3020  	MOVLW 0x20
0286  00C6  	MOVWF gbl_FCV_SPI_MOSI
0287  0846  	MOVF gbl_FCV_SPI_MOSI, W
0288  00CA  	MOVWF FCD_SPI_Le_00052_arg_Char
0289  20C6  	CALL FCD_SPI_Le_00052
028A  3038  	MOVLW 0x38
028B  00C6  	MOVWF gbl_FCV_SPI_MOSI
028C  0846  	MOVF gbl_FCV_SPI_MOSI, W
028D  00CA  	MOVWF FCD_SPI_Le_00052_arg_Char
028E  20C6  	CALL FCD_SPI_Le_00052
028F  3024  	MOVLW 0x24
0290  00C6  	MOVWF gbl_FCV_SPI_MOSI
0291  0846  	MOVF gbl_FCV_SPI_MOSI, W
0292  00CA  	MOVWF FCD_SPI_Le_00052_arg_Char
0293  20C6  	CALL FCD_SPI_Le_00052
0294  01C6  	CLRF gbl_FCV_SPI_MOSI
0295  0846  	MOVF gbl_FCV_SPI_MOSI, W
0296  00CA  	MOVWF FCD_SPI_Le_00052_arg_Char
0297  20C6  	CALL FCD_SPI_Le_00052
0298  3023  	MOVLW 0x23
0299  00C6  	MOVWF gbl_FCV_SPI_MOSI
029A  0846  	MOVF gbl_FCV_SPI_MOSI, W
029B  00CA  	MOVWF FCD_SPI_Le_00052_arg_Char
029C  20C6  	CALL FCD_SPI_Le_00052
029D  3003  	MOVLW 0x03
029E  00C6  	MOVWF gbl_FCV_SPI_MOSI
029F  0846  	MOVF gbl_FCV_SPI_MOSI, W
02A0  00CA  	MOVWF FCD_SPI_Le_00052_arg_Char
02A1  20C6  	CALL FCD_SPI_Le_00052
02A2  3026  	MOVLW 0x26
02A3  00C6  	MOVWF gbl_FCV_SPI_MOSI
02A4  0846  	MOVF gbl_FCV_SPI_MOSI, W
02A5  00CA  	MOVWF FCD_SPI_Le_00052_arg_Char
02A6  20C6  	CALL FCD_SPI_Le_00052
02A7  300E  	MOVLW 0x0E
02A8  00C6  	MOVWF gbl_FCV_SPI_MOSI
02A9  0846  	MOVF gbl_FCV_SPI_MOSI, W
02AA  00CA  	MOVWF FCD_SPI_Le_00052_arg_Char
02AB  20C6  	CALL FCD_SPI_Le_00052
02AC  3025  	MOVLW 0x25
02AD  00C6  	MOVWF gbl_FCV_SPI_MOSI
02AE  0846  	MOVF gbl_FCV_SPI_MOSI, W
02AF  00CA  	MOVWF FCD_SPI_Le_00052_arg_Char
02B0  20C6  	CALL FCD_SPI_Le_00052
02B1  3009  	MOVLW 0x09
02B2  00C6  	MOVWF gbl_FCV_SPI_MOSI
02B3  0846  	MOVF gbl_FCV_SPI_MOSI, W
02B4  00CA  	MOVWF FCD_SPI_Le_00052_arg_Char
02B5  20C6  	CALL FCD_SPI_Le_00052
02B6  3021  	MOVLW 0x21
02B7  00C6  	MOVWF gbl_FCV_SPI_MOSI
02B8  0846  	MOVF gbl_FCV_SPI_MOSI, W
02B9  00CA  	MOVWF FCD_SPI_Le_00052_arg_Char
02BA  20C6  	CALL FCD_SPI_Le_00052
02BB  01C6  	CLRF gbl_FCV_SPI_MOSI
02BC  0846  	MOVF gbl_FCV_SPI_MOSI, W
02BD  00CA  	MOVWF FCD_SPI_Le_00052_arg_Char
02BE  20C6  	CALL FCD_SPI_Le_00052
02BF  3031  	MOVLW 0x31
02C0  00C6  	MOVWF gbl_FCV_SPI_MOSI
02C1  0846  	MOVF gbl_FCV_SPI_MOSI, W
02C2  00CA  	MOVWF FCD_SPI_Le_00052_arg_Char
02C3  20C6  	CALL FCD_SPI_Le_00052
02C4  3001  	MOVLW 0x01
02C5  00C6  	MOVWF gbl_FCV_SPI_MOSI
02C6  0846  	MOVF gbl_FCV_SPI_MOSI, W
02C7  00CA  	MOVWF FCD_SPI_Le_00052_arg_Char
02C8  20C6  	CALL FCD_SPI_Le_00052
02C9  3020  	MOVLW 0x20
02CA  00C6  	MOVWF gbl_FCV_SPI_MOSI
02CB  0846  	MOVF gbl_FCV_SPI_MOSI, W
02CC  00CA  	MOVWF FCD_SPI_Le_00052_arg_Char
02CD  20C6  	CALL FCD_SPI_Le_00052
02CE  303B  	MOVLW 0x3B
02CF  00C6  	MOVWF gbl_FCV_SPI_MOSI
02D0  0846  	MOVF gbl_FCV_SPI_MOSI, W
02D1  00CA  	MOVWF FCD_SPI_Le_00052_arg_Char
02D2  20C6  	CALL FCD_SPI_Le_00052
02D3  3030  	MOVLW 0x30
02D4  00C6  	MOVWF gbl_FCV_SPI_MOSI
02D5  0846  	MOVF gbl_FCV_SPI_MOSI, W
02D6  00CA  	MOVWF FCD_SPI_Le_00052_arg_Char
02D7  20C6  	CALL FCD_SPI_Le_00052
02D8  01C7  	CLRF gbl_FCLV_LOOP3
02D9        label39
02D9  3005  	MOVLW 0x05
02DA  0247  	SUBWF gbl_FCLV_LOOP3, W
02DB  1803  	BTFSC STATUS,C
02DC  2AE4  	GOTO	label40
02DD  30E7  	MOVLW 0xE7
02DE  00C6  	MOVWF gbl_FCV_SPI_MOSI
02DF  0846  	MOVF gbl_FCV_SPI_MOSI, W
02E0  00CA  	MOVWF FCD_SPI_Le_00052_arg_Char
02E1  20C6  	CALL FCD_SPI_Le_00052
02E2  0AC7  	INCF gbl_FCLV_LOOP3, F
02E3  2AD9  	GOTO	label39
02E4        label40
02E4  302A  	MOVLW 0x2A
02E5  00C6  	MOVWF gbl_FCV_SPI_MOSI
02E6  0846  	MOVF gbl_FCV_SPI_MOSI, W
02E7  00CA  	MOVWF FCD_SPI_Le_00052_arg_Char
02E8  20C6  	CALL FCD_SPI_Le_00052
02E9  01C8  	CLRF gbl_FCLV_LOOP4
02EA        label41
02EA  3005  	MOVLW 0x05
02EB  0248  	SUBWF gbl_FCLV_LOOP4, W
02EC  1803  	BTFSC STATUS,C
02ED  2AF5  	GOTO	label42
02EE  30E7  	MOVLW 0xE7
02EF  00C6  	MOVWF gbl_FCV_SPI_MOSI
02F0  0846  	MOVF gbl_FCV_SPI_MOSI, W
02F1  00CA  	MOVWF FCD_SPI_Le_00052_arg_Char
02F2  20C6  	CALL FCD_SPI_Le_00052
02F3  0AC8  	INCF gbl_FCLV_LOOP4, F
02F4  2AEA  	GOTO	label41
02F5        label42
02F5  30FB  	MOVLW 0xFB
02F6  1683  	BSF STATUS, RP0
02F7  0507  	ANDWF gbl_trisc, W
02F8  0087  	MOVWF gbl_trisc
02F9  30FB  	MOVLW 0xFB
02FA  1283  	BCF STATUS, RP0
02FB  0507  	ANDWF gbl_portc, W
02FC  00CA  	MOVWF CompTempVar2193
02FD  3004  	MOVLW 0x04
02FE  044A  	IORWF CompTempVar2193, W
02FF  0087  	MOVWF gbl_portc
0300  3008  	MOVLW 0x08
0301  00CA  	MOVWF delay_us_00000_arg_del
0302  204A  	CALL delay_us_00000
0303  20FB  	CALL FCM_flush__00053
0304  30FD  	MOVLW 0xFD
0305  1683  	BSF STATUS, RP0
0306  0507  	ANDWF gbl_trisc, W
0307  0087  	MOVWF gbl_trisc
0308  30FD  	MOVLW 0xFD
0309  1283  	BCF STATUS, RP0
030A  0507  	ANDWF gbl_portc, W
030B  00CA  	MOVWF CompTempVar2194
030C  3002  	MOVLW 0x02
030D  044A  	IORWF CompTempVar2194, W
030E  0087  	MOVWF gbl_portc
030F  0008  	RETURN
0310        ; } FCM_radio_rx_init function end

	ORG 0x00000310
0310        FCM_displa_00058
0310        ; { FCM_display_rxdata ; function begin
0310  3037  	MOVLW 0x37
0311  1283  	BCF STATUS, RP0
0312  1303  	BCF STATUS, RP1
0313  00C6  	MOVWF gbl_FCV_SPI_MOSI
0314  30FB  	MOVLW 0xFB
0315  1683  	BSF STATUS, RP0
0316  0507  	ANDWF gbl_trisc, W
0317  0087  	MOVWF gbl_trisc
0318  30FB  	MOVLW 0xFB
0319  1283  	BCF STATUS, RP0
031A  0507  	ANDWF gbl_portc, W
031B  0087  	MOVWF gbl_portc
031C  0846  	MOVF gbl_FCV_SPI_MOSI, W
031D  00CA  	MOVWF FCD_SPI_Le_00052_arg_Char
031E  20C6  	CALL FCD_SPI_Le_00052
031F  2120  	CALL FCD_SPI_Le_00057
0320  084B  	MOVF CompTempVarRet2196, W
0321  00C5  	MOVWF gbl_FCV_SPI_MISO
0322  30FB  	MOVLW 0xFB
0323  1683  	BSF STATUS, RP0
0324  0507  	ANDWF gbl_trisc, W
0325  0087  	MOVWF gbl_trisc
0326  30FB  	MOVLW 0xFB
0327  1283  	BCF STATUS, RP0
0328  0507  	ANDWF gbl_portc, W
0329  00CA  	MOVWF CompTempVar2197
032A  3004  	MOVLW 0x04
032B  044A  	IORWF CompTempVar2197, W
032C  0087  	MOVWF gbl_portc
032D  01CA  	CLRF FCD_LCDDis_00059_arg_Line
032E  2235  	CALL FCD_LCDDis_00059
032F  01CD  	CLRF FCD_LCDDis_0005A_arg_x
0330  01CE  	CLRF FCD_LCDDis_0005A_arg_y
0331  20CA  	CALL FCD_LCDDis_0005A
0332  304D  	MOVLW 0x4D
0333  00CC  	MOVWF CompTempVar2198
0334  3049  	MOVLW 0x49
0335  00CD  	MOVWF CompTempVar2198+D'1'
0336  3053  	MOVLW 0x53
0337  00CE  	MOVWF CompTempVar2198+D'2'
0338  304F  	MOVLW 0x4F
0339  00CF  	MOVWF CompTempVar2198+D'3'
033A  303A  	MOVLW 0x3A
033B  00D0  	MOVWF CompTempVar2198+D'4'
033C  01D1  	CLRF CompTempVar2198+D'5'
033D  3000  	MOVLW HIGH(CompTempVar2198+D'0')
033E  00CB  	MOVWF FCD_LCDDis_0005B_arg_String+D'1'
033F  304C  	MOVLW LOW(CompTempVar2198+D'0')
0340  00CA  	MOVWF FCD_LCDDis_0005B_arg_String
0341  3005  	MOVLW 0x05
0342  00D2  	MOVWF FCD_LCDDis_0005B_arg_MSZ_String
0343  2219  	CALL FCD_LCDDis_0005B
0344  300C  	MOVLW 0x0C
0345  00C4  	MOVWF gbl_FCV_CURSORX
0346  01C9  	CLRF gbl_FCLV_LOOP5
0347        label43
0347  3008  	MOVLW 0x08
0348  0249  	SUBWF gbl_FCLV_LOOP5, W
0349  1803  	BTFSC STATUS,C
034A  0008  	RETURN
034B  3001  	MOVLW 0x01
034C  0545  	ANDWF gbl_FCV_SPI_MISO, W
034D  00CA  	MOVWF CompTempVar2200
034E  01CB  	CLRF CompTempVar2201
034F  08CA  	MOVF CompTempVar2200, F
0350  1D03  	BTFSS STATUS,Z
0351  144B  	BSF CompTempVar2201,0
0352  1043  	BCF gbl_FCV_DATAIN_BIT,0
0353  084B  	MOVF CompTempVar2201, W
0354  1D03  	BTFSS STATUS,Z
0355  1443  	BSF gbl_FCV_DATAIN_BIT,0
0356  0844  	MOVF gbl_FCV_CURSORX, W
0357  00CD  	MOVWF FCD_LCDDis_0005A_arg_x
0358  01CE  	CLRF FCD_LCDDis_0005A_arg_y
0359  20CA  	CALL FCD_LCDDis_0005A
035A  3001  	MOVLW 0x01
035B  0545  	ANDWF gbl_FCV_SPI_MISO, W
035C  00CA  	MOVWF CompTempVar2202
035D  01CB  	CLRF CompTempVar2203
035E  08CA  	MOVF CompTempVar2202, F
035F  1D03  	BTFSS STATUS,Z
0360  144B  	BSF CompTempVar2203,0
0361  1043  	BCF gbl_FCV_DATAIN_BIT,0
0362  084B  	MOVF CompTempVar2203, W
0363  1D03  	BTFSS STATUS,Z
0364  1443  	BSF gbl_FCV_DATAIN_BIT,0
0365  0344  	DECF gbl_FCV_CURSORX, W
0366  00C4  	MOVWF gbl_FCV_CURSORX
0367  01CB  	CLRF FCD_LCDDis_0005C_arg_Number+D'1'
0368  01CA  	CLRF FCD_LCDDis_0005C_arg_Number
0369  1843  	BTFSC gbl_FCV_DATAIN_BIT,0
036A  0ACA  	INCF FCD_LCDDis_0005C_arg_Number, F
036B  212B  	CALL FCD_LCDDis_0005C
036C  08C5  	MOVF gbl_FCV_SPI_MISO, F
036D  1003  	BCF STATUS,C
036E  0CC5  	RRF gbl_FCV_SPI_MISO, F
036F  0AC9  	INCF gbl_FCLV_LOOP5, F
0370  2B47  	GOTO	label43
0371        ; } FCM_display_rxdata function end

	ORG 0x00000371
0371        FCD_SPI_Le_00060
0371        ; { FCD_SPI_Legacy0_SPI_Init ; function begin
0371  1683  	BSF STATUS, RP0
0372  1303  	BCF STATUS, RP1
0373  1005  	BCF gbl_trisa,0
0374  1283  	BCF STATUS, RP0
0375  1405  	BSF gbl_porta,0
0376  1683  	BSF STATUS, RP0
0377  1005  	BCF gbl_trisa,0
0378  1283  	BCF STATUS, RP0
0379  1405  	BSF gbl_porta,0
037A  20E8  	CALL FC_CAL_SPI_0005D
037B  0008  	RETURN
037C        ; } FCD_SPI_Legacy0_SPI_Init function end

	ORG 0x0000037C
037C        FCD_LCDDis_0006D
037C        ; { FCD_LCDDisplay0_Clear ; function begin
037C  3001  	MOVLW 0x01
037D  1283  	BCF STATUS, RP0
037E  1303  	BCF STATUS, RP1
037F  00D4  	MOVWF FCD_LCDDis_0006B_arg_in
0380  01D5  	CLRF FCD_LCDDis_0006B_arg_mask
0381  2066  	CALL FCD_LCDDis_0006B
0382  3002  	MOVLW 0x02
0383  00CF  	MOVWF Wdt_Delay__0003E_arg_delay
0384  204F  	CALL Wdt_Delay__0003E
0385  3002  	MOVLW 0x02
0386  00D4  	MOVWF FCD_LCDDis_0006B_arg_in
0387  01D5  	CLRF FCD_LCDDis_0006B_arg_mask
0388  2066  	CALL FCD_LCDDis_0006B
0389  3002  	MOVLW 0x02
038A  00CF  	MOVWF Wdt_Delay__0003E_arg_delay
038B  204F  	CALL Wdt_Delay__0003E
038C  0008  	RETURN
038D        ; } FCD_LCDDisplay0_Clear function end

	ORG 0x0000038D
038D        FCD_LCDDis_0006C
038D        ; { FCD_LCDDisplay0_Start ; function begin
038D  1683  	BSF STATUS, RP0
038E  1303  	BCF STATUS, RP1
038F  1106  	BCF gbl_trisb,2
0390  1283  	BCF STATUS, RP0
0391  1106  	BCF gbl_portb,2
0392  1683  	BSF STATUS, RP0
0393  1186  	BCF gbl_trisb,3
0394  1283  	BCF STATUS, RP0
0395  1186  	BCF gbl_portb,3
0396  1683  	BSF STATUS, RP0
0397  1206  	BCF gbl_trisb,4
0398  1283  	BCF STATUS, RP0
0399  1206  	BCF gbl_portb,4
039A  1683  	BSF STATUS, RP0
039B  1286  	BCF gbl_trisb,5
039C  1283  	BCF STATUS, RP0
039D  1286  	BCF gbl_portb,5
039E  1683  	BSF STATUS, RP0
039F  1006  	BCF gbl_trisb,0
03A0  1283  	BCF STATUS, RP0
03A1  1006  	BCF gbl_portb,0
03A2  1683  	BSF STATUS, RP0
03A3  1086  	BCF gbl_trisb,1
03A4  1283  	BCF STATUS, RP0
03A5  1086  	BCF gbl_portb,1
03A6  300C  	MOVLW 0x0C
03A7  00CF  	MOVWF Wdt_Delay__0003E_arg_delay
03A8  204F  	CALL Wdt_Delay__0003E
03A9  3033  	MOVLW 0x33
03AA  00D4  	MOVWF FCD_LCDDis_0006B_arg_in
03AB  01D5  	CLRF FCD_LCDDis_0006B_arg_mask
03AC  2066  	CALL FCD_LCDDis_0006B
03AD  3002  	MOVLW 0x02
03AE  00CF  	MOVWF Wdt_Delay__0003E_arg_delay
03AF  204F  	CALL Wdt_Delay__0003E
03B0  3033  	MOVLW 0x33
03B1  00D4  	MOVWF FCD_LCDDis_0006B_arg_in
03B2  01D5  	CLRF FCD_LCDDis_0006B_arg_mask
03B3  2066  	CALL FCD_LCDDis_0006B
03B4  3002  	MOVLW 0x02
03B5  00CF  	MOVWF Wdt_Delay__0003E_arg_delay
03B6  204F  	CALL Wdt_Delay__0003E
03B7  3032  	MOVLW 0x32
03B8  00D4  	MOVWF FCD_LCDDis_0006B_arg_in
03B9  01D5  	CLRF FCD_LCDDis_0006B_arg_mask
03BA  2066  	CALL FCD_LCDDis_0006B
03BB  3002  	MOVLW 0x02
03BC  00CF  	MOVWF Wdt_Delay__0003E_arg_delay
03BD  204F  	CALL Wdt_Delay__0003E
03BE  302C  	MOVLW 0x2C
03BF  00D4  	MOVWF FCD_LCDDis_0006B_arg_in
03C0  01D5  	CLRF FCD_LCDDis_0006B_arg_mask
03C1  2066  	CALL FCD_LCDDis_0006B
03C2  3002  	MOVLW 0x02
03C3  00CF  	MOVWF Wdt_Delay__0003E_arg_delay
03C4  204F  	CALL Wdt_Delay__0003E
03C5  3006  	MOVLW 0x06
03C6  00D4  	MOVWF FCD_LCDDis_0006B_arg_in
03C7  01D5  	CLRF FCD_LCDDis_0006B_arg_mask
03C8  2066  	CALL FCD_LCDDis_0006B
03C9  3002  	MOVLW 0x02
03CA  00CF  	MOVWF Wdt_Delay__0003E_arg_delay
03CB  204F  	CALL Wdt_Delay__0003E
03CC  300C  	MOVLW 0x0C
03CD  00D4  	MOVWF FCD_LCDDis_0006B_arg_in
03CE  01D5  	CLRF FCD_LCDDis_0006B_arg_mask
03CF  2066  	CALL FCD_LCDDis_0006B
03D0  3002  	MOVLW 0x02
03D1  00CF  	MOVWF Wdt_Delay__0003E_arg_delay
03D2  204F  	CALL Wdt_Delay__0003E
03D3  3001  	MOVLW 0x01
03D4  00D4  	MOVWF FCD_LCDDis_0006B_arg_in
03D5  01D5  	CLRF FCD_LCDDis_0006B_arg_mask
03D6  2066  	CALL FCD_LCDDis_0006B
03D7  3002  	MOVLW 0x02
03D8  00CF  	MOVWF Wdt_Delay__0003E_arg_delay
03D9  204F  	CALL Wdt_Delay__0003E
03DA  3002  	MOVLW 0x02
03DB  00D4  	MOVWF FCD_LCDDis_0006B_arg_in
03DC  01D5  	CLRF FCD_LCDDis_0006B_arg_mask
03DD  2066  	CALL FCD_LCDDis_0006B
03DE  3002  	MOVLW 0x02
03DF  00CF  	MOVWF Wdt_Delay__0003E_arg_delay
03E0  204F  	CALL Wdt_Delay__0003E
03E1  0008  	RETURN
03E2        ; } FCD_LCDDisplay0_Start function end

	ORG 0x000003E2
03E2        main
03E2        ; { main ; function begin
03E2  3007  	MOVLW 0x07
03E3  1683  	BSF STATUS, RP0
03E4  1303  	BCF STATUS, RP1
03E5  009F  	MOVWF gbl_adcon1
03E6  30C0  	MOVLW 0xC0
03E7  0081  	MOVWF gbl_option_reg
03E8  3010  	MOVLW 0x10
03E9  0407  	IORWF gbl_trisc, W
03EA  0087  	MOVWF gbl_trisc
03EB  3010  	MOVLW 0x10
03EC  1283  	BCF STATUS, RP0
03ED  0507  	ANDWF gbl_portc, W
03EE  00CA  	MOVWF CompTempVar2246
03EF  01CB  	CLRF CompTempVar2247
03F0  3010  	MOVLW 0x10
03F1  024A  	SUBWF CompTempVar2246, W
03F2  1903  	BTFSC STATUS,Z
03F3  0ACB  	INCF CompTempVar2247, F
03F4  1043  	BCF gbl_FCV_DATAIN_BIT,0
03F5  084B  	MOVF CompTempVar2247, W
03F6  1D03  	BTFSS STATUS,Z
03F7  1443  	BSF gbl_FCV_DATAIN_BIT,0
03F8  238D  	CALL FCD_LCDDis_0006C
03F9  237C  	CALL FCD_LCDDis_0006D
03FA  2371  	CALL FCD_SPI_Le_00060
03FB  30FD  	MOVLW 0xFD
03FC  1683  	BSF STATUS, RP0
03FD  0507  	ANDWF gbl_trisc, W
03FE  0087  	MOVWF gbl_trisc
03FF  30FD  	MOVLW 0xFD
0400  1283  	BCF STATUS, RP0
0401  0507  	ANDWF gbl_portc, W
0402  0087  	MOVWF gbl_portc
0403  30FB  	MOVLW 0xFB
0404  1683  	BSF STATUS, RP0
0405  0507  	ANDWF gbl_trisc, W
0406  0087  	MOVWF gbl_trisc
0407  30FB  	MOVLW 0xFB
0408  1283  	BCF STATUS, RP0
0409  0507  	ANDWF gbl_portc, W
040A  00CA  	MOVWF CompTempVar2248
040B  3004  	MOVLW 0x04
040C  044A  	IORWF CompTempVar2248, W
040D  0087  	MOVWF gbl_portc
040E  2271  	CALL FCM_radio__00055
040F        label44
040F  30FB  	MOVLW 0xFB
0410  1683  	BSF STATUS, RP0
0411  0507  	ANDWF gbl_trisc, W
0412  0087  	MOVWF gbl_trisc
0413  30FB  	MOVLW 0xFB
0414  1283  	BCF STATUS, RP0
0415  0507  	ANDWF gbl_portc, W
0416  0087  	MOVWF gbl_portc
0417  3008  	MOVLW 0x08
0418  00CA  	MOVWF delay_us_00000_arg_del
0419  204A  	CALL delay_us_00000
041A  3020  	MOVLW 0x20
041B  00C6  	MOVWF gbl_FCV_SPI_MOSI
041C  0846  	MOVF gbl_FCV_SPI_MOSI, W
041D  00CA  	MOVWF FCD_SPI_Le_00052_arg_Char
041E  20C6  	CALL FCD_SPI_Le_00052
041F  303B  	MOVLW 0x3B
0420  00C6  	MOVWF gbl_FCV_SPI_MOSI
0421  0846  	MOVF gbl_FCV_SPI_MOSI, W
0422  00CA  	MOVWF FCD_SPI_Le_00052_arg_Char
0423  20C6  	CALL FCD_SPI_Le_00052
0424  3031  	MOVLW 0x31
0425  00C6  	MOVWF gbl_FCV_SPI_MOSI
0426  0846  	MOVF gbl_FCV_SPI_MOSI, W
0427  00CA  	MOVWF FCD_SPI_Le_00052_arg_Char
0428  20C6  	CALL FCD_SPI_Le_00052
0429  3001  	MOVLW 0x01
042A  00C6  	MOVWF gbl_FCV_SPI_MOSI
042B  0846  	MOVF gbl_FCV_SPI_MOSI, W
042C  00CA  	MOVWF FCD_SPI_Le_00052_arg_Char
042D  20C6  	CALL FCD_SPI_Le_00052
042E  30FB  	MOVLW 0xFB
042F  1683  	BSF STATUS, RP0
0430  0507  	ANDWF gbl_trisc, W
0431  0087  	MOVWF gbl_trisc
0432  30FB  	MOVLW 0xFB
0433  1283  	BCF STATUS, RP0
0434  0507  	ANDWF gbl_portc, W
0435  00CA  	MOVWF CompTempVar2249
0436  3004  	MOVLW 0x04
0437  044A  	IORWF CompTempVar2249, W
0438  0087  	MOVWF gbl_portc
0439  3008  	MOVLW 0x08
043A  00CA  	MOVWF delay_us_00000_arg_del
043B  204A  	CALL delay_us_00000
043C  20FB  	CALL FCM_flush__00053
043D  224C  	CALL FCM_radio__00056
043E  2310  	CALL FCM_displa_00058
043F  01CD  	CLRF FCD_LCDDis_0005A_arg_x
0440  3001  	MOVLW 0x01
0441  00CE  	MOVWF FCD_LCDDis_0005A_arg_y
0442  20CA  	CALL FCD_LCDDis_0005A
0443  0842  	MOVF gbl_FCV_RCV_DATA, W
0444  00CA  	MOVWF FCD_LCDDis_0005C_arg_Number
0445  01CB  	CLRF FCD_LCDDis_0005C_arg_Number+D'1'
0446  212B  	CALL FCD_LCDDis_0005C
0447  2C0F  	GOTO	label44
0448        ; } main function end

	ORG 0x00000448
0448        _startup
0448  30D5  	MOVLW 0xD5
0449  1283  	BCF STATUS, RP0
044A  1303  	BCF STATUS, RP1
044B  00A0  	MOVWF gbl_14_LSR
044C  30C4  	MOVLW 0xC4
044D  00A1  	MOVWF gbl_14_LSR+D'1'
044E  30BB  	MOVLW 0xBB
044F  00A2  	MOVWF gbl_14_LSR+D'2'
0450  30DC  	MOVLW 0xDC
0451  00A3  	MOVWF gbl_14_LSR+D'3'
0452  01A4  	CLRF gbl_15_gbl_aSig
0453  01A5  	CLRF gbl_15_gbl_aSig+D'1'
0454  01A6  	CLRF gbl_15_gbl_aSig+D'2'
0455  01A7  	CLRF gbl_15_gbl_aSig+D'3'
0456  01A8  	CLRF gbl_15_gbl_bSig
0457  01A9  	CLRF gbl_15_gbl_bSig+D'1'
0458  01AA  	CLRF gbl_15_gbl_bSig+D'2'
0459  01AB  	CLRF gbl_15_gbl_bSig+D'3'
045A  01AC  	CLRF gbl_15_gbl_zSig
045B  01AD  	CLRF gbl_15_gbl_zSig+D'1'
045C  01AE  	CLRF gbl_15_gbl_zSig+D'2'
045D  01AF  	CLRF gbl_15_gbl_zSig+D'3'
045E  01BC  	CLRF gbl_15_gbl_aExp
045F  01BD  	CLRF gbl_15_gbl_bExp
0460  01B7  	CLRF gbl_15_gbl_zExp
0461  01B8  	CLRF gbl_15_gbl_zExp+D'1'
0462  01BE  	CLRF gbl_15_gbl_aSign
0463  01BF  	CLRF gbl_15_gbl_bSign
0464  01C0  	CLRF gbl_15_gbl_zSign
0465  01C1  	CLRF gbl_15_gbl_zSigZero
0466  01B0  	CLRF gbl_15_gbl_ret
0467  01B1  	CLRF gbl_15_gbl_ret+D'1'
0468  01B2  	CLRF gbl_15_gbl_ret+D'2'
0469  01B3  	CLRF gbl_15_gbl_ret+D'3'
046A  01BA  	CLRF gbl_float_rounding_mode
046B  01BB  	CLRF gbl_float_exception_flags
046C  01B9  	CLRF gbl_float_detect_tininess
046D  30FF  	MOVLW 0xFF
046E  00C2  	MOVWF gbl_FCV_RCV_DATA
046F  1443  	BSF gbl_FCV_DATAIN_BIT,0
0470  01C4  	CLRF gbl_FCV_CURSORX
0471  30FF  	MOVLW 0xFF
0472  00C5  	MOVWF gbl_FCV_SPI_MISO
0473  30FF  	MOVLW 0xFF
0474  00C6  	MOVWF gbl_FCV_SPI_MOSI
0475  118A  	BCF PCLATH,3
0476  120A  	BCF PCLATH,4
0477  2BE2  	GOTO	main
	ORG 0x00000478
0478        interrupt
0478        ; { interrupt ; function begin
0478  1283  	BCF STATUS, RP0
0479  1303  	BCF STATUS, RP1
047A  0E36  	SWAPF Int1BContext+D'2', W
047B  0084  	MOVWF FSR
047C  0E35  	SWAPF Int1BContext+D'1', W
047D  008A  	MOVWF PCLATH
047E  0E34  	SWAPF Int1BContext, W
047F  0083  	MOVWF STATUS
0480  0EFF  	SWAPF Int1Context, F
0481  0E7F  	SWAPF Int1Context, W
0482  0009  	RETFIE
0483        ; } interrupt function end

	ORG 0x00002007
2007  3F3A  	DW 0x3F3A
