MPASM  5.51       20191122_RGMODULE_RTCV1.ASM   11-25-2019  10:52:29         PAGE  1


LOC  OBJECT CODE     LINE SOURCE TEXT
  VALUE

                      00001 ;******************************************************************************
                      00002 ;                                                                             *
                      00003 ;    FILENAME:     RGMODULE_RTC                                               *
                      00004 ;    DATE:         NOVEMBER 22, 2019                                          *
                      00005 ;    FILE VERSION: V1.0                                                       *
                      00006 ;                                                                             *
                      00007 ;    AUTHOR:       KENNYNEUTRON                                               *
                      00008 ;    COMPANY:      GER-PER ENGINEERING                                        *
                      00009 ;                                                                             * 
                      00010 ;******************************************************************************
                      00011 ;                                                                             *
                      00012 ;    FILES REQUIRED: P18F2620.INC                                             *
                      00013 ;                                                                             *
                      00014 ;******************************************************************************
                      00015 
                      00016         LIST P=18F4620                  ;DIRECTIVE TO DEFINE PROCESSOR
                      00017         #INCLUDE <P18F4620.INC> ;PROCESSOR SPECIFIC VARIABLE DEFINITIONS
                      00001         LIST
                      00002 
                      00003 ;==========================================================================
                      00004 ;  MPASM PIC18F4620 processor include
                      00005 ; 
                      00006 ;  (c) Copyright 1999-2013 Microchip Technology, All rights reserved
                      00007 ;==========================================================================
                      00008 
                      01439         LIST
                      00018 
                      00019 
                      00020 ;******************************************************************************
                      00021 ;CONFIGURATION BITS
                      00022 ;MICROCHIP HAS CHANGED THE FORMAT FOR DEFINING THE CONFIGURATION BITS, PLEASE 
                      00023 ;SEE THE .INC FILE FOR FUTHER DETAILS ON NOTATION.  BELOW ARE A FEW EXAMPLES.
                      00024 
                      00025 
                      00026 ;CONFIG
                      00027 
                      00028 
                      00029 
Warning[205]: Found directive in column 1. (CONFIG)
06 19 1E 01 80 0F C0 000030 CONFIG  OSC             =       HSPLL   ;OSCILLATOR
       F E0 0F 40 
Warning[205]: Found directive in column 1. (CONFIG)
                      00031 CONFIG  FCMEN   =       OFF             ;FAIL-SAFE CLOCK MONITOR
Warning[205]: Found directive in column 1. (CONFIG)
                      00032 CONFIG  IESO    =       OFF             ;INTERNAL/EXTERNAL SWITCH-OVER
Warning[205]: Found directive in column 1. (CONFIG)
                      00033 CONFIG  PWRT    =       OFF             ;POWER-UP TIMER
Warning[205]: Found directive in column 1. (CONFIG)
                      00034 CONFIG  BOREN   =       OFF             ;BROWN OUT RESET ENABLE
Warning[205]: Found directive in column 1. (CONFIG)
                      00035 CONFIG  PBADEN  =       OFF     ;PORTB A/D ENABLE
Warning[205]: Found directive in column 1. (CONFIG)
                      00036 CONFIG  LPT1OSC =       OFF             ;LOW-POWER TIMER1 OSCILLATOR
MPASM  5.51       20191122_RGMODULE_RTCV1.ASM   11-25-2019  10:52:29         PAGE  2


LOC  OBJECT CODE     LINE SOURCE TEXT
  VALUE

Warning[205]: Found directive in column 1. (CONFIG)
                      00037 CONFIG  MCLRE   =       OFF             ;MEMORY CLEAR EXTERNAL
Warning[205]: Found directive in column 1. (CONFIG)
                      00038 CONFIG  STVREN  =       OFF             ;STACK FULL/UNDERFLOW RESET ENABLE
Warning[205]: Found directive in column 1. (CONFIG)
                      00039 CONFIG  LVP     =       OFF             ;SINGLE SUPPLY ICSP
Warning[205]: Found directive in column 1. (CONFIG)
                      00040 CONFIG  XINST   =       OFF             ;EXTENDED INSTRUCTION SET
Warning[205]: Found directive in column 1. (CONFIG)
                      00041 CONFIG  DEBUG   =       OFF             ;BACKGROUND DEBUGGERS
Warning[205]: Found directive in column 1. (CONFIG)
                      00042 CONFIG  CP0     =       OFF             ;CODE PROTECT
                      00043 
                      00044 
Warning[205]: Found directive in column 1. (CONFIG)
                      00045 CONFIG  WDT             =       OFF             ;WATCHDOG TIMER
                      00046 ;CONFIG WDTPS   =       512             ;WATCHDOG TIMER POSTSCALER 1:1= 4MSECONDS
                      00047 ;******************************************************************************
                      00048 ;VARIABLE DEFINITIONS
                      00049 ; THESE VARIABLES ARE ONLY NEEDED IF LOW PRIORITY INTERRUPTS ARE USED. 
                      00050 ; MORE VARIABLES MAY BE NEEDED TO STORE OTHER SPECIAL FUNCTION REGISTERS USED
                      00051 ; IN THE INTERRUPT ROUTINES.
                      00052 
                      00053                 #DEFINE         OE_ON           BCF     LATD,7,0
                      00054                 #DEFINE         OE_OFF          BSF     LATD,7,0
                      00055 
                      00056 
                      00057                 #DEFINE         LAT_ON          BSF     LATD,6,0
                      00058                 #DEFINE         LAT_OFF         BCF     LATD,6,0
                      00059 
                      00060                 #DEFINE         CLK_ON          BSF     LATD,5,0
                      00061                 #DEFINE         CLK_OFF         BCF     LATD,5,0
                      00062 
                      00063                 #DEFINE         R0_0            BCF     LATB,0,0
                      00064                 #DEFINE         R0_1            BSF     LATB,0,0
                      00065                 
                      00066                 #DEFINE         R1_0            BCF     LATB,1,0
                      00067                 #DEFINE         R1_1            BSF     LATB,1,0
                      00068 
                      00069                 #DEFINE         G0_0            BCF     LATB,2,0
                      00070                 #DEFINE         G0_1            BSF     LATB,2,0
                      00071                 
                      00072                 #DEFINE         G1_0            BCF     LATB,3,0
                      00073                 #DEFINE         G1_1            BSF     LATB,3,0
                      00074 
                      00075                 CBLOCK  0X16C
  0000016C            00076                 W_TEMP  ;VARIABLE USED FOR CONTEXT SAVING 
  0000016D            00077                 STATUS_TEMP     ;VARIABLE USED FOR CONTEXT SAVING
  0000016E            00078                 BSR_TEMP        ;VARIABLE USED FOR CONTEXT SAVING
  0000016F            00079                 PCLATH_TEMP
                      00080                 ENDC
                      00081 
                      00082                 CBLOCK  0X000
MPASM  5.51       20191122_RGMODULE_RTCV1.ASM   11-25-2019  10:52:29         PAGE  3


LOC  OBJECT CODE     LINE SOURCE TEXT
  VALUE

  00000000            00083                         EXAMPLE         ;EXAMPLE OF A VARIABLE IN ACCESS RAM
                      00084                 ENDC
                      00085 
                      00086                 CBLOCK  0X100
  00000100            00087                         DRAM: .64
                      00088                         ;DELAYUS, DELAYMS,  SPI_DATAIN, ;SEC,DELAYS,    ;DELAY VARIABLES
                      00089                         ;=======================================================
  00000140            00090                         SPI_DATAIN
  00000141            00091                         LOOP,COUNT0,COUNT1,COUNT2
                      00092 
  00000145            00093                         POINTER,BTCOUNT
  00000147            00094                         COLOR,NUMBER,ROW,FONT,STPT
                      00095 
  0000014C            00096                         CURSORX,CURSORY,CURSORX_TEMP
  0000014F            00097                         WIDTH
  00000150            00098                         SCROLL_BIT
                      00099                 ENDC
                      00100 
                      00101                 CBLOCK 0X151
  00000151            00102                         REDHALF0,REDHALF1                       ;RED UPPER HALF : RED LOWER HALF RAMS
  00000153            00103                         GRNHALF0,GRNHALF1                       ;GRN UPPER HALF : GRN LOWER HAL
                      00104 
  00000155            00105                         TEMPRAM:.8
                      00106 
                      00107 
  0000015D            00108                         HUB
  0000015E            00109                         COLORA, COLOR_FSRH,COLOR_FSRL
                      00110 
  00000161            00111                         CCOUNT
  00000162            00112                         SCRLLOOP
  00000163            00113                         CSRBIT
  00000164            00114                         CFSRLOOP
  00000165            00115                         CSRHBYTE
                      00116 
  00000166            00117                         MOVX_TEMPH,MOVX_TEMPL
                      00118                         
  00000168            00119                         CHARFSRH,CHARFSRL
                      00120 
  0000016A            00121                         ENDPOINT0,ENDPOINT1
                      00122 
                      00123 
                      00124                 ENDC
                      00125 
                      00126                 CBLOCK  0X170
  00000170            00127                         CHAR:.48
                      00128                 ENDC
                      00129 
                      00130                 CBLOCK  0X1A0
                      00131 
  000001A0            00132                 MOVX:.96
                      00133 
                      00134                 ENDC
                      00135 
MPASM  5.51       20191122_RGMODULE_RTCV1.ASM   11-25-2019  10:52:29         PAGE  4


LOC  OBJECT CODE     LINE SOURCE TEXT
  VALUE

                      00136 
                      00137                 CBLOCK  0X200
  00000200            00138                 COLORM:48
                      00139                 
                      00140                 ENDC
                      00141 
                      00142                 CBLOCK  0X300
  00000300            00143                 CMD_MEMORY:0XFF
                      00144                 ENDC
                      00145 ;******************************************************************************
                      00146 ;EEPROM DATA
                      00147 ; DATA TO BE PROGRAMMED INTO THE DATA EEPROM IS DEFINED HERE
                      00148 
F00000                00149                 ORG     0XF00000
                      00150                         
                      00151         ;       DE      "TEST DATA",0,1,2,3,4,5
                      00152 
                      00153 ;******************************************************************************
                      00154 ;RESET VECTOR
                      00155 ; THIS CODE WILL START EXECUTING WHEN A RESET OCCURS.
                      00156 
000000                00157                 ORG     0X0000
                      00158 
000000 EF1A F000      00159                 GOTO    INIT            ;GO TO START OF MAIN CODE
                      00160 
                      00161 ;******************************************************************************
                      00162 ;HIGH PRIORITY INTERRUPT VECTOR
                      00163 ; THIS CODE WILL START EXECUTING WHEN A HIGH PRIORITY INTERRUPT OCCURS OR
                      00164 ; WHEN ANY INTERRUPT OCCURS IF INTERRUPT PRIORITIES ARE NOT ENABLED.
                      00165 
000008                00166                 ORG     0X0008
                      00167 
000008 D014           00168                 BRA     HIGHINT         ;GO TO HIGH PRIORITY INTERRUPT ROUTINE
                      00169 
                      00170 ;******************************************************************************
                      00171 ;LOW PRIORITY INTERRUPT VECTOR AND ROUTINE
                      00172 ; THIS CODE WILL START EXECUTING WHEN A LOW PRIORITY INTERRUPT OCCURS.
                      00173 ; THIS CODE CAN BE REMOVED IF LOW PRIORITY INTERRUPTS ARE NOT USED.
                      00174 
000018                00175                 ORG     0X0018
                      00176 
000018 CFD8 F16D      00177                 MOVFF   STATUS,STATUS_TEMP      ;SAVE STATUS REGISTER
00001C CFE8 F16C      00178                 MOVFF   WREG,W_TEMP             ;SAVE WORKING REGISTER
000020 CFE0 F16E      00179                 MOVFF   BSR,BSR_TEMP            ;SAVE BSR REGISTER
                      00180 
                      00181 ;       *** LOW PRIORITY INTERRUPT CODE GOES HERE ***
                      00182 
                      00183 
000024 C16E FFE0      00184                 MOVFF   BSR_TEMP,BSR            ;RESTORE BSR REGISTER
000028 C16C FFE8      00185                 MOVFF   W_TEMP,WREG                             ;RESTORE WORKING REGISTER
00002C C16D FFD8      00186                 MOVFF   STATUS_TEMP,STATUS      ;RESTORE STATUS REGISTER
000030 0010           00187                 RETFIE
                      00188 
MPASM  5.51       20191122_RGMODULE_RTCV1.ASM   11-25-2019  10:52:29         PAGE  5


LOC  OBJECT CODE     LINE SOURCE TEXT
  VALUE

                      00189 ;******************************************************************************
                      00190                                 ;HIGH PRIORITY INTERRUPT ROUTINE
                      00191                                 ; THE HIGH PRIORITY INTERRUPT CODE IS PLACED HERE TO AVOID CONFLICTING W
                            ITH
                      00192                                 ; THE LOW PRIORITY INTERRUPT VECTOR.
                      00193 
000032                00194 HIGHINT:
                      00195 
                      00196                                 ;       *** HIGH PRIORITY INTERRUPT CODE GOES HERE ***
                      00197 
                      00198 
000032 0011           00199                 RETFIE  FAST
                      00200 
                      00201 ;$$$$$$$$$$$$$$$$$$$$$$$$       INITIALIZE              $$$$$$$$$$$$$$$$$$$$$$$$$$$$$$$$$
000034                00202 INIT
                      00203 ;========================= INITIALIZE PORTA =================================
Warning[203]: Found opcode in column 1. (CLRF)
000034 6A80           00204 CLRF PORTA              ; INITIALIZE PORTA BY
                      00205                                 ; CLEARING OUTPUT
                      00206                                 ; DATA LATCHES
Warning[203]: Found opcode in column 1. (CLRF)
000036 6A89           00207 CLRF LATA               ; ALTERNATE METHOD
                      00208                                 ; TO CLEAR OUTPUT
                      00209                                 ; DATA LATCHES
Warning[203]: Found opcode in column 1. (MOVLW)
000038 0E07           00210 MOVLW 07H               ; CONFIGURE A/D
Warning[203]: Found opcode in column 1. (MOVWF)
00003A 6EC1           00211 MOVWF ADCON1    ; FOR DIGITAL INPUTS
Warning[203]: Found opcode in column 1. (MOVWF)
00003C 6E07           00212 MOVWF 07H               ; CONFIGURE COMPARATORS
Warning[203]: Found opcode in column 1. (MOVWF)
00003E 6EB4           00213 MOVWF CMCON     ; FOR DIGITAL INPUT
Warning[203]: Found opcode in column 1. (MOVLW)
000040 0ECF           00214 MOVLW 0CFH              ; VALUE USED TO
                      00215                                 ; INITIALIZE DATA
                      00216                                 ; DIRECTION
Warning[203]: Found opcode in column 1. (MOVWF)
000042 6E92           00217 MOVWF TRISA     ; SET RA<7:6,3:0> AS INPUTS
                      00218                                 ; RA<5:4> AS OUTPUTS
                      00219 ;============================================================================
                      00220 
                      00221 
                      00222 ;========================= INITIALIZE PORTB =================================
Warning[203]: Found opcode in column 1. (CLRF)
000044 6A81           00223 CLRF PORTB              ; INITIALIZE PORTB BY
                      00224                                 ; CLEARING OUTPUT
                      00225                                 ; DATA LATCHES
Warning[203]: Found opcode in column 1. (CLRF)
000046 6A8A           00226 CLRF LATB               ; ALTERNATE METHOD
                      00227                                 ; TO CLEAR OUTPUT
                      00228                                 ; DATA LATCHES
Warning[203]: Found opcode in column 1. (MOVLW)
000048 0E0F           00229 MOVLW 0FH               ; SET RB<4:0> AS
MPASM  5.51       20191122_RGMODULE_RTCV1.ASM   11-25-2019  10:52:29         PAGE  6


LOC  OBJECT CODE     LINE SOURCE TEXT
  VALUE

Warning[203]: Found opcode in column 1. (MOVWF)
00004A 6EC1           00230 MOVWF ADCON1    ; DIGITAL I/O PINS
                      00231                                 ; (REQUIRED IF CONFIG BIT
                      00232                                 ; PBADEN IS SET)
Warning[203]: Found opcode in column 1. (MOVLW)
00004C 0E00           00233 MOVLW 0                 ; VALUE USED TO
                      00234                                 ; INITIALIZE DATA
                      00235                                 ; DIRECTION
Warning[203]: Found opcode in column 1. (MOVWF)
00004E 6E93           00236 MOVWF TRISB     ; SET RB<3:0> AS INPUTS
                      00237                                 ; RB<7:0> AS INPUTS
                      00238 ;============================================================================
                      00239 
                      00240 
                      00241 ;========================= INITIALIZE PORTC =================================
Warning[203]: Found opcode in column 1. (CLRF)
000050 6A82           00242 CLRF PORTC
Warning[203]: Found opcode in column 1. (CLRF)
000052 6A8B           00243 CLRF LATC
Warning[203]: Found opcode in column 1. (MOVLW)
000054 0EFC           00244 MOVLW B'11111100'
Warning[203]: Found opcode in column 1. (MOVWF)
000056 6E94           00245 MOVWF TRISC
                      00246 
                      00247 ;PORT C0 ===> N/A
                      00248 ;PORT C1 ===> N/A
                      00249 ;PORT C2 ===> N/A
                      00250 ;PORT C3 ===> SPI CLK   (SCL)
                      00251 ;PORT C4 ===> SPI DATAIN (SDI)
                      00252 ;PORT C5 ===> SPI DATAOUT (SDO)
                      00253 ;PORT C6 ===> N/A
                      00254 ;PORT C7 ===> N/A
                      00255 
                      00256 ;============================================================================ 
                      00257 
                      00258 
                      00259 ;========================= INITIALIZE PORTD =================================
Warning[203]: Found opcode in column 1. (CLRF)
000058 6A83           00260 CLRF PORTD              ; INITIALIZE PORTD BY
                      00261                                 ; CLEARING OUTPUT
                      00262                                 ; DATA LATCHES
Warning[203]: Found opcode in column 1. (CLRF)
00005A 6A8C           00263 CLRF LATD               ; ALTERNATE METHOD
                      00264                                 ; TO CLEAR OUTPUT
                      00265                                 ; DATA LATCHES
Warning[203]: Found opcode in column 1. (MOVLW)
00005C 0E00           00266 MOVLW 0                 ; VALUE USED TO
                      00267                                 ; INITIALIZE DATA
                      00268                                 ; DIRECTION
Warning[203]: Found opcode in column 1. (MOVWF)
00005E 6E95           00269 MOVWF TRISD     ; SET RD<3:0> AS INPUTS
                      00270                                 ; RD<5:4> AS OUTPUTS
                      00271                                 ; RD<7:6> AS INPUTS
MPASM  5.51       20191122_RGMODULE_RTCV1.ASM   11-25-2019  10:52:29         PAGE  7


LOC  OBJECT CODE     LINE SOURCE TEXT
  VALUE

                      00272 ;============================================================================
                      00273 
                      00274 ;========================= INITIALIZE PORTE =================================
Warning[203]: Found opcode in column 1. (CLRF)
000060 6A84           00275 CLRF PORTE              ; INITIALIZE PORTE BY
                      00276                                 ; CLEARING OUTPUT
                      00277                                 ; DATA LATCHES
Warning[203]: Found opcode in column 1. (CLRF)
000062 6A8D           00278 CLRF LATE               ; ALTERNATE METHOD
                      00279                                 ; TO CLEAR OUTPUT
                      00280                                 ; DATA LATCHES
Warning[203]: Found opcode in column 1. (MOVLW)
000064 0E0A           00281 MOVLW 0AH               ; CONFIGURE A/D
Warning[203]: Found opcode in column 1. (MOVWF)
000066 6EC1           00282 MOVWF ADCON1    ; FOR DIGITAL INPUTS
Warning[203]: Found opcode in column 1. (MOVLW)
000068 0E07           00283 MOVLW 0X07              ; VALUE USED TO
                      00284                                 ; INITIALIZE DATA
                      00285                                 ; DIRECTION
Warning[203]: Found opcode in column 1. (MOVWF)
00006A 6E96           00286 MOVWF TRISE,0   ; SET RE<0> AS INPUTS
                      00287                                 ; RE<1> AS OUTPUTS
                      00288                                 ; RE<2> AS INPUTS
                      00289 ;============================================================================
                      00290 
                      00291 ;============== WATCHDOG TIMER =========
                      00292 ;BSF    WDTCON,0,0
                      00293 
                      00294 ;=======================================
                      00295 
                      00296 
                      00297 
                      00298 
Warning[203]: Found opcode in column 1. (MOVLB)
00006C 0101           00299 MOVLB   0X01            
Warning[203]: Found opcode in column 1. (BCF)
00006E 908A           00300 R0_0
Warning[203]: Found opcode in column 1. (BCF)
000070 928A           00301 R1_0
Warning[203]: Found opcode in column 1. (BCF)
000072 948A           00302 G0_0
Warning[203]: Found opcode in column 1. (BCF)
000074 968A           00303 G1_0
                      00304 
Warning[203]: Found opcode in column 1. (BCF)
000076 908B           00305 BCF     LATC,0,0
                      00306 
Warning[203]: Found opcode in column 1. (BCF)
000078 988C           00307 BCF     LATD,4,0
Warning[203]: Found opcode in column 1. (BSF)
00007A 868C           00308 BSF     LATD,3,0
Warning[203]: Found opcode in column 1. (BSF)
00007C 848C           00309 BSF     LATD,2,0
MPASM  5.51       20191122_RGMODULE_RTCV1.ASM   11-25-2019  10:52:29         PAGE  8


LOC  OBJECT CODE     LINE SOURCE TEXT
  VALUE

Warning[203]: Found opcode in column 1. (BSF)
00007E 828C           00310 BSF     LATD,1,0
Warning[203]: Found opcode in column 1. (BSF)
000080 808C           00311 BSF     LATD,0,0
                      00312 
Warning[203]: Found opcode in column 1. (MOVLW)
000082 0E00           00313 MOVLW   0
Warning[203]: Found opcode in column 1. (MOVWF)
000084 6F63           00314 MOVWF   CSRBIT
                      00315 
Warning[203]: Found opcode in column 1. (MOVLW)
000086 0E00           00316 MOVLW   0
Warning[203]: Found opcode in column 1. (MOVWF)
000088 6F5E           00317 MOVWF   COLORA,1
                      00318 
Warning[203]: Found opcode in column 1. (MOVLW)
00008A 0E00           00319 MOVLW   0
Warning[203]: Found opcode in column 1. (MOVWF)
00008C 6F50           00320 MOVWF   SCROLL_BIT
                      00321 
                      00322 
                      00323 
Warning[203]: Found opcode in column 1. (CALL)
00008E ECC5 F001      00324 CALL    CLR_CSR
                      00325 
Warning[203]: Found opcode in column 1. (CALL)
000092 ECAA F001      00326 CALL    CLR_CHAR
                      00327 
Warning[203]: Found opcode in column 1. (CALL)
000096 EC53 F040      00328 CALL    CLR_CMD_MEMORY
                      00329 
                      00330 
Warning[203]: Found opcode in column 1. (CALL)
00009A ECB8 F001      00331 CALL    CLR_COLORM
                      00332 
                      00333 ;===============
                      00334 ;MOVLW  06
                      00335 ;MOVWF  CHAR+00 ;G
                      00336 ;
                      00337 ;MOVLW  34
                      00338 ;MOVWF  CHAR+01 ;E
                      00339 ;
                      00340 ;MOVLW  41
                      00341 ;MOVWF  CHAR+02 ;R
                      00342 ;
                      00343 ;MOVLW  25
                      00344 ;MOVWF  CHAR+03 ;-
                      00345 ;
                      00346 ;MOVLW  0F
                      00347 ;MOVWF  CHAR+04 ;P
                      00348 ;
                      00349 ;MOVLW  34
                      00350 ;MOVWF  CHAR+05 ;E
MPASM  5.51       20191122_RGMODULE_RTCV1.ASM   11-25-2019  10:52:29         PAGE  9


LOC  OBJECT CODE     LINE SOURCE TEXT
  VALUE

                      00351 ;
                      00352 ;MOVLW  41
                      00353 ;MOVWF  CHAR+06 ;R
                      00354 ;
                      00355 ;MOVLW  2A
                      00356 ;MOVWF  CHAR+07 ;_
                      00357 ;
                      00358 ;MOVLW  04
                      00359 ;MOVWF  CHAR+08 ;E
                      00360 ;
                      00361 ;MOVLW  3D
                      00362 ;MOVWF  CHAR+09 ;N
                      00363 ;
                      00364 ;MOVLW  36
                      00365 ;MOVWF  CHAR+0A ;G
                      00366 ;
                      00367 ;MOVLW  38
                      00368 ;MOVWF  CHAR+0B ;I
                      00369 ;
                      00370 ;MOVLW  3D
                      00371 ;MOVWF  CHAR+0C ;N
                      00372 ;
                      00373 ;MOVLW  34
                      00374 ;MOVWF  CHAR+0D ;E
                      00375 ;
                      00376 ;MOVLW  34
                      00377 ;MOVWF  CHAR+0E ;E
                      00378 ;
                      00379 ;MOVLW  41
                      00380 ;MOVWF  CHAR+0F ;R
                      00381 ;
                      00382 ;MOVLW  38
                      00383 ;MOVWF  CHAR+10 ;I
                      00384 ;
                      00385 ;MOVLW  3D
                      00386 ;MOVWF  CHAR+11 ;N
                      00387 ;
                      00388 ;MOVLW  36
                      00389 ;MOVWF  CHAR+12 ;G
                      00390 ;
                      00391 ;MOVLW  2A
                      00392 ;MOVWF  CHAR+13 ;_
                      00393 ;
                      00394 ;MOVLW  1C
                      00395 ;MOVWF  CHAR+14 ;2
                      00396 ;
                      00397 ;MOVLW  1A
                      00398 ;MOVWF  CHAR+15 ;0
                      00399 ;
                      00400 ;MOVLW  1B
                      00401 ;MOVWF  CHAR+16 ;1
                      00402 ;
                      00403 ;MOVLW  23
MPASM  5.51       20191122_RGMODULE_RTCV1.ASM   11-25-2019  10:52:29         PAGE 10


LOC  OBJECT CODE     LINE SOURCE TEXT
  VALUE

                      00404 ;MOVWF  CHAR+17 ;9
                      00405 ;========================
                      00406 
                      00407 
                      00408 
                      00409 
                      00410 
                      00411 ;MOVLB  0X02
                      00412 ;MOVLW  0
                      00413 ;MOVWF  COLORM+00
                      00414 ;MOVWF  COLORM+03
                      00415 ;MOVWF  COLORM+06
                      00416 ;MOVWF  COLORM+09
                      00417 ;MOVWF  COLORM+0C
                      00418 ;MOVWF  COLORM+0F
                      00419 ;MOVWF  COLORM+12
                      00420 ;MOVWF  COLORM+15
                      00421 ;
                      00422 ;MOVLW  1
                      00423 ;MOVWF  COLORM+01
                      00424 ;MOVWF  COLORM+04
                      00425 ;MOVWF  COLORM+07
                      00426 ;MOVWF  COLORM+0A
                      00427 ;MOVWF  COLORM+0D
                      00428 ;MOVWF  COLORM+10
                      00429 ;MOVWF  COLORM+13
                      00430 ;MOVWF  COLORM+16
                      00431 ;
                      00432 ;MOVLW  2
                      00433 ;MOVWF  COLORM+02
                      00434 ;MOVWF  COLORM+05
                      00435 ;MOVWF  COLORM+08
                      00436 ;MOVWF  COLORM+0B
                      00437 ;MOVWF  COLORM+0E
                      00438 ;MOVWF  COLORM+11
                      00439 ;MOVWF  COLORM+14
                      00440 ;MOVWF  COLORM+17
                      00441 ;
                      00442 
                      00443 
                      00444 
                      00445 
                      00446 
                      00447 
                      00448 
                      00449 
                      00450 
Warning[203]: Found opcode in column 1. (MOVLB)
00009E 0103           00451 MOVLB   3
                      00452 
Warning[203]: Found opcode in column 1. (MOVLW)
0000A0 0EA0           00453 MOVLW   0XA0
Warning[203]: Found opcode in column 1. (MOVWF)
MPASM  5.51       20191122_RGMODULE_RTCV1.ASM   11-25-2019  10:52:29         PAGE 11


LOC  OBJECT CODE     LINE SOURCE TEXT
  VALUE

0000A2 6F00           00454 MOVWF   CMD_MEMORY+00
                      00455 
Warning[203]: Found opcode in column 1. (MOVLW)
0000A4 0E41           00456 MOVLW   .65
Warning[203]: Found opcode in column 1. (MOVWF)
0000A6 6F01           00457 MOVWF   CMD_MEMORY+01
                      00458 
Warning[203]: Found opcode in column 1. (MOVLW)
0000A8 0E04           00459 MOVLW   4
Warning[203]: Found opcode in column 1. (MOVWF)
0000AA 6F02           00460 MOVWF   CMD_MEMORY+02
                      00461 
Warning[203]: Found opcode in column 1. (MOVLW)
0000AC 0EA1           00462 MOVLW   0XA1
Warning[203]: Found opcode in column 1. (MOVWF)
0000AE 6F03           00463 MOVWF   CMD_MEMORY+03
                      00464 
Warning[203]: Found opcode in column 1. (MOVLW)
0000B0 0E02           00465 MOVLW   0X02
Warning[203]: Found opcode in column 1. (MOVWF)
0000B2 6F04           00466 MOVWF   CMD_MEMORY+04
                      00467 
Warning[203]: Found opcode in column 1. (MOVLW)
0000B4 0EA1           00468 MOVLW   0XA1
Warning[203]: Found opcode in column 1. (MOVWF)
0000B6 6F05           00469 MOVWF   CMD_MEMORY+05
                      00470 
Warning[203]: Found opcode in column 1. (MOVLW)
0000B8 0E02           00471 MOVLW   0X02
Warning[203]: Found opcode in column 1. (MOVWF)
0000BA 6F06           00472 MOVWF   CMD_MEMORY+06
                      00473 
                      00474 
Warning[203]: Found opcode in column 1. (MOVLW)
0000BC 0EA1           00475 MOVLW   0XA1
Warning[203]: Found opcode in column 1. (MOVWF)
0000BE 6F07           00476 MOVWF   CMD_MEMORY+07
                      00477 
Warning[203]: Found opcode in column 1. (MOVLW)
0000C0 0E00           00478 MOVLW   0X00
Warning[203]: Found opcode in column 1. (MOVWF)
0000C2 6F08           00479 MOVWF   CMD_MEMORY+08
                      00480 
Warning[203]: Found opcode in column 1. (MOVLW)
0000C4 0EA1           00481 MOVLW   0XA1
Warning[203]: Found opcode in column 1. (MOVWF)
0000C6 6F09           00482 MOVWF   CMD_MEMORY+09
                      00483 
Warning[203]: Found opcode in column 1. (MOVLW)
0000C8 0E02           00484 MOVLW   0X02
Warning[203]: Found opcode in column 1. (MOVWF)
0000CA 6F0A           00485 MOVWF   CMD_MEMORY+0A
                      00486 
MPASM  5.51       20191122_RGMODULE_RTCV1.ASM   11-25-2019  10:52:29         PAGE 12


LOC  OBJECT CODE     LINE SOURCE TEXT
  VALUE

Warning[203]: Found opcode in column 1. (MOVLW)
0000CC 0EA1           00487 MOVLW   0XA1
Warning[203]: Found opcode in column 1. (MOVWF)
0000CE 6F0B           00488 MOVWF   CMD_MEMORY+0B
                      00489 
Warning[203]: Found opcode in column 1. (MOVLW)
0000D0 0E02           00490 MOVLW   0X02
Warning[203]: Found opcode in column 1. (MOVWF)
0000D2 6F0C           00491 MOVWF   CMD_MEMORY+0C
                      00492 
                      00493 
                      00494 
Warning[203]: Found opcode in column 1. (MOVLW)
0000D4 0EA2           00495 MOVLW   0XA2
Warning[203]: Found opcode in column 1. (MOVWF)
0000D6 6F0D           00496 MOVWF   CMD_MEMORY+0D
                      00497 
Warning[203]: Found opcode in column 1. (MOVLW)
0000D8 0E1B           00498 MOVLW   0X1B
Warning[203]: Found opcode in column 1. (MOVWF)
0000DA 6F0E           00499 MOVWF   CMD_MEMORY+0E
                      00500 
Warning[203]: Found opcode in column 1. (MOVLW)
0000DC 0EA2           00501 MOVLW   0XA2
Warning[203]: Found opcode in column 1. (MOVWF)
0000DE 6F0F           00502 MOVWF   CMD_MEMORY+0F
                      00503 
Warning[203]: Found opcode in column 1. (MOVLW)
0000E0 0E1A           00504 MOVLW   0X1A
Warning[203]: Found opcode in column 1. (MOVWF)
0000E2 6F10           00505 MOVWF   CMD_MEMORY+10
                      00506 
Warning[203]: Found opcode in column 1. (MOVLW)
0000E4 0EA2           00507 MOVLW   0XA2
Warning[203]: Found opcode in column 1. (MOVWF)
0000E6 6F11           00508 MOVWF   CMD_MEMORY+11
                      00509 
Warning[203]: Found opcode in column 1. (MOVLW)
0000E8 0E26           00510 MOVLW   0X26
Warning[203]: Found opcode in column 1. (MOVWF)
0000EA 6F12           00511 MOVWF   CMD_MEMORY+12
                      00512 
Warning[203]: Found opcode in column 1. (MOVLW)
0000EC 0EA2           00513 MOVLW   0XA2
Warning[203]: Found opcode in column 1. (MOVWF)
0000EE 6F13           00514 MOVWF   CMD_MEMORY+13
                      00515 
Warning[203]: Found opcode in column 1. (MOVLW)
0000F0 0E1A           00516 MOVLW   0X1A
Warning[203]: Found opcode in column 1. (MOVWF)
0000F2 6F14           00517 MOVWF   CMD_MEMORY+14
                      00518 
Warning[203]: Found opcode in column 1. (MOVLW)
MPASM  5.51       20191122_RGMODULE_RTCV1.ASM   11-25-2019  10:52:29         PAGE 13


LOC  OBJECT CODE     LINE SOURCE TEXT
  VALUE

0000F4 0EA2           00519 MOVLW   0XA2
Warning[203]: Found opcode in column 1. (MOVWF)
0000F6 6F15           00520 MOVWF   CMD_MEMORY+15
                      00521 
Warning[203]: Found opcode in column 1. (MOVLW)
0000F8 0E1A           00522 MOVLW   0X1A
Warning[203]: Found opcode in column 1. (MOVWF)
0000FA 6F16           00523 MOVWF   CMD_MEMORY+16
                      00524 
Warning[203]: Found opcode in column 1. (MOVLW)
0000FC 0EA2           00525 MOVLW   0XA2
Warning[203]: Found opcode in column 1. (MOVWF)
0000FE 6F17           00526 MOVWF   CMD_MEMORY+17
                      00527 
Warning[203]: Found opcode in column 1. (MOVLW)
000100 0E26           00528 MOVLW   0X26
Warning[203]: Found opcode in column 1. (MOVWF)
000102 6F18           00529 MOVWF   CMD_MEMORY+18
Warning[203]: Found opcode in column 1. (MOVLW)
000104 0EA3           00530 MOVLW   0XA3
Warning[203]: Found opcode in column 1. (MOVWF)
000106 6F19           00531 MOVWF   CMD_MEMORY+19
                      00532 
Warning[203]: Found opcode in column 1. (MOVLW)
000108 0E00           00533 MOVLW   0X00
Warning[203]: Found opcode in column 1. (MOVWF)
00010A 6F1A           00534 MOVWF   CMD_MEMORY+1A
                      00535 
Warning[203]: Found opcode in column 1. (MOVLW)
00010C 0EFE           00536 MOVLW   0XFE
Warning[203]: Found opcode in column 1. (MOVWF)
00010E 6F1B           00537 MOVWF   CMD_MEMORY+1B
                      00538 
                      00539 
Warning[203]: Found opcode in column 1. (MOVLB)
000110 0101           00540 MOVLB   1
                      00541 
                      00542 
                      00543 
                      00544 ;CALL   DATATRANS_CMD_TO_EEPROM
                      00545 
                      00546 
                      00547 ;CALL   DATATRANS_EEPROM_TO_CMD
                      00548 
                      00549 ;CALL   READ_CMD_MEMORY
                      00550 
Warning[203]: Found opcode in column 1. (GOTO)
000112 EF8B F000      00551 GOTO    MAIN
                      00552 ;#######################        MAIN PROGRAM  ###########################
000116                00553 MAIN
                      00554         ;       CALL    COM_CPUGPU
                      00555         ;       CALL    READ_CMD_MEMORY
                      00556 
MPASM  5.51       20191122_RGMODULE_RTCV1.ASM   11-25-2019  10:52:29         PAGE 14


LOC  OBJECT CODE     LINE SOURCE TEXT
  VALUE

000116 808B           00557                 BSF             LATC,0,0 ;ACK   
                      00558 
                      00559 
                      00560 
                      00561 
000118 A150           00562                 BTFSS   SCROLL_BIT,0
00011A EF91 F000      00563                 GOTO    SCROLL0
00011E EF95 F000      00564                 GOTO    SCROLL1
                      00565 
000122                00566 SCROLL0
                      00567         ;       CALL    CURSORFSR
000122 EC00 F001      00568                 CALL    DISPLAY
000126 EF8B F000      00569                 GOTO    MAIN
                      00570 
00012A                00571 SCROLL1
00012A ECE1 F000      00572                 CALL    MNSUB
                      00573 
                      00574 
                      00575 
Warning[203]: Found opcode in column 1. (GOTO)
00012E EF8B F000      00576 GOTO    MAIN
                      00577 
                      00578 ;####################################################################
                      00579 
                      00580 ;;========= STATIC DISPLAY =========
                      00581 ;;MAIN
                      00582 ;;              BCF             LATC,7,0
                      00583 ;;              MOVLW   1
                      00584 ;;              MOVWF   COLORA
                      00585 ;;              MOVLW   0
                      00586 ;;              MOVWF   MOVX+00
                      00587 ;;              MOVLW   4
                      00588 ;;              MOVWF   MOVX+01
                      00589 ;;              CALL    CURSORFSR
                      00590 ;;              CALL    DISPLAY
                      00591 ;;
                      00592 ;;              BSF             LATC,7,0
                      00593 ;;              MOVLW   1
                      00594 ;;              MOVWF   COLORA
                      00595 ;;              MOVLW   0
                      00596 ;;              MOVWF   MOVX+00
                      00597 ;;              MOVLW   4
                      00598 ;;              MOVWF   MOVX+01
                      00599 ;;              CALL    CURSORFSR
                      00600 ;;              CALL    DISPLAY
                      00601 ;
                      00602 ;
                      00603 ;
                      00604 ;               ;BCF            LATC,0,0 ;ACK
                      00605 ;               BSF             LATC,0,0 ;ACK
                      00606 ;
                      00607 ;               CALL    COM_CPUGPU
                      00608 ;               CALL    READ_CMD_MEMORY
MPASM  5.51       20191122_RGMODULE_RTCV1.ASM   11-25-2019  10:52:29         PAGE 15


LOC  OBJECT CODE     LINE SOURCE TEXT
  VALUE

                      00609 ;               CALL    CURSORFSR
                      00610 ;               CALL    DISPLAY
                      00611 ;               BSF             LATC,0,0 ;ACK   
                      00612 ;GOTO   MAIN
                      00613 ;;==================================
                      00614 
                      00615 
                      00616 
                      00617 
                      00618 ;=================== CPU TO GPU COMMUNICATION =================
000132                00619 COM_CPUGPU
000132 8E8C           00620                 OE_OFF
                      00621 
000134 0E00           00622                 MOVLW   0
000136 6F42           00623                 MOVWF   COUNT0  ;DELAY COUNTER IF COUNTER=255 AND
                      00624                                                 ;NO CHIPSELECT THE PROGRAM RETURNS
000138                00625 CGP_START
000138 2B42           00626                 INCF    COUNT0
00013A 0E40           00627                 MOVLW   .64
00013C 6342           00628                 CPFSEQ  COUNT0,1
00013E EFA2 F000      00629                 GOTO    CGPST
000142 0012           00630                 RETURN
                      00631                         
000144                00632 CGPST
000144 0000           00633                 NOP
000146 A484           00634                 BTFSS   PORTE,2 ;CHIP SELECT
000148 EF9C F000      00635                 GOTO    CGP_START
                      00636 
                      00637 
00014C 0E03           00638                 MOVLW   0X03
00014E 6EEA           00639                 MOVWF   FSR0H
                      00640 
000150 0E00           00641                 MOVLW   0X00
000152 6EE9           00642                 MOVWF   FSR0L
                      00643                 
000154 ECBE F000      00644                 CALL    CPU_DATA_READ
000158 0EAA           00645                 MOVLW   0XAA
00015A 6340           00646                 CPFSEQ  SPI_DATAIN,1
00015C 0012           00647                 RETURN
                      00648 
00015E                00649 CCG_GET
00015E ECBE F000      00650                 CALL    CPU_DATA_READ
000162 0EBB           00651                 MOVLW   0XBB
000164 6340           00652                 CPFSEQ  SPI_DATAIN,1
000166 EFB7 F000      00653                 GOTO    CCG_SAVE
00016A EFBC F000      00654                 GOTO    CCG_EXIT
                      00655 
00016E                00656 CCG_SAVE
00016E C140 FFEF      00657                 MOVFF   SPI_DATAIN,INDF0
000172 2AE9           00658                 INCF    FSR0L
000174 EFAF F000      00659                 GOTO    CCG_GET
                      00660 
000178                00661 CCG_EXIT
MPASM  5.51       20191122_RGMODULE_RTCV1.ASM   11-25-2019  10:52:29         PAGE 16


LOC  OBJECT CODE     LINE SOURCE TEXT
  VALUE

000178 0000           00662                 NOP
                      00663 
Warning[203]: Found opcode in column 1. (RETURN)
00017A 0012           00664 RETURN
                      00665 ;==============================================================
                      00666 
00017C                00667 CPU_DATA_READ
00017C 0EFF           00668                 MOVLW   0XFF
00017E 6F40           00669                 MOVWF   SPI_DATAIN
                      00670 
000180 0E08           00671                 MOVLW   8
000182 6F41           00672                 MOVWF   LOOP
                      00673 
                      00674 
                      00675 
000184 908B           00676                 BCF             LATC,0,0 ;ACK
                      00677 
                      00678 
000186 B682           00679                 BTFSC   PORTC,3 ;SCL
Warning[226]: Destination address must be word aligned
000188 EFC3 F000      00680                 GOTO    $-1
                      00681 
00018C                00682 CGP0
00018C A682           00683                 BTFSS   PORTC,3 ;SCL
Warning[226]: Destination address must be word aligned
00018E EFC6 F000      00684                 GOTO    $-1
                      00685                 
                      00686         
                      00687 
000192 A882           00688                 BTFSS   PORTC,4 ;DAT
000194 EFCE F000      00689                 GOTO    CCGDAT0
000198 EFD1 F000      00690                 GOTO    CCGDAT1
                      00691 
00019C                00692 CCGDAT0
00019C 90D8           00693                 BCF             STATUS,C
00019E EFD5 F000      00694                 GOTO    CGP1
                      00695 
0001A2                00696 CCGDAT1
0001A2 80D8           00697                 BSF             STATUS,C
0001A4 EFD5 F000      00698                 GOTO    CGP1
                      00699 
0001A8 0000           00700                 NOP
0001AA                00701 CGP1
0001AA 3740           00702                 RLCF    SPI_DATAIN
                      00703 
0001AC B682           00704                 BTFSC   PORTC,3 ;SCL
Warning[226]: Destination address must be word aligned
0001AE EFD6 F000      00705                 GOTO    $-1
                      00706                 
                      00707 
                      00708 
0001B2 2F41           00709                 DECFSZ  LOOP
0001B4 EFC6 F000      00710                 GOTO    CGP0
MPASM  5.51       20191122_RGMODULE_RTCV1.ASM   11-25-2019  10:52:29         PAGE 17


LOC  OBJECT CODE     LINE SOURCE TEXT
  VALUE

                      00711 
                      00712 
0001B8 A484           00713                 BTFSS   PORTE,2 ;CHIP   SELECT
Warning[226]: Destination address must be word aligned
0001BA EFDC F000      00714                 GOTO    $-1
                      00715 
0001BE 808B           00716                 BSF             LATC,0,0 ;ACK
                      00717 
                      00718 
                      00719 
                      00720 
Warning[203]: Found opcode in column 1. (RETURN)
0001C0 0012           00721 RETURN
                      00722 
                      00723 
                      00724 
                      00725 
                      00726 
                      00727 ;=================== SUBROUTINE FOR SCROLLING =================
0001C2                00728 MNSUB
0001C2 EC15 F001      00729                 CALL    CURSORFSR
                      00730 
0001C6 ECF8 F000      00731                 CALL    DISP
0001CA 07A0           00732                 DECF    MOVX+00
                      00733 
0001CC 0E01           00734                 MOVLW   1
0001CE 6EEA           00735                 MOVWF   FSR0H
0001D0 C16A FFE9      00736                 MOVFF   ENDPOINT0,FSR0L
                      00737 
0001D4 0E00           00738                 MOVLW   0
0001D6 62EF           00739                 CPFSEQ  INDF0           ;ENDING OF THE SENTENCE
0001D8 EFE1 F000      00740                 GOTO    MNSUB
                      00741 
                      00742 
0001DC 0E01           00743                 MOVLW   1
0001DE 6EEA           00744                 MOVWF   FSR0H
0001E0 C16B FFE9      00745                 MOVFF   ENDPOINT1,FSR0L
                      00746 
0001E4 0E04           00747                 MOVLW   4
0001E6 62EF           00748                 CPFSEQ  INDF0           ;ENDING OF THE SENTENCE
0001E8 EFE1 F000      00749                 GOTO    MNSUB
0001EC 0000           00750                 NOP
                      00751                 
                      00752                 
                      00753 
                      00754 
Warning[203]: Found opcode in column 1. (RETURN)
0001EE 0012           00755 RETURN
                      00756 ;==============================================================
                      00757 
                      00758 ;=====  REPEATING OF THE DISPLAY SUBROUTINE FOR =============== 
                      00759 ;=====  DISPLAYING MULTIPLE DATA
0001F0                00760 DISP
MPASM  5.51       20191122_RGMODULE_RTCV1.ASM   11-25-2019  10:52:29         PAGE 18


LOC  OBJECT CODE     LINE SOURCE TEXT
  VALUE

                      00761 
0001F0 0E08           00762         MOVLW   8       ;SCROLLING SPEED
0001F2 6F61           00763         MOVWF   CCOUNT
                      00764 
0001F4                00765 DDISP
0001F4 EC00 F001      00766         CALL    DISPLAY
0001F8 2F61           00767         DECFSZ  CCOUNT,F
0001FA EFFA F000      00768         GOTO    DDISP
                      00769 
Warning[203]: Found opcode in column 1. (RETURN)
0001FE 0012           00770 RETURN
                      00771 ;==============================================================
                      00772 
                      00773 
                      00774 ;========================       DISPLAYING      =======================
000200                00775 DISPLAY
000200 0E10           00776                 MOVLW   .16
000202 6F44           00777                 MOVWF   COUNT2
000204 0E00           00778                 MOVLW   0
000206 6F49           00779                 MOVWF   ROW
                      00780 
000208                00781 DISP0   
000208 9E8C           00782                 OE_ON
00020A ECD6 F001      00783                 CALL    CLR_RAM
00020E EC4D F001      00784                 CALL    COMMAND
                      00785 
000212 ECED F001      00786                 CALL    DATAREG
000216 8E8C           00787                 OE_OFF
000218 C149 FF8C      00788                 MOVFF   ROW,LATD
00021C 8C8C           00789                 LAT_ON
00021E 9C8C           00790                 LAT_OFF
000220 2B49           00791                 INCF    ROW
000222 2F44           00792                 DECFSZ  COUNT2,F
                      00793 
000224 EF04 F001      00794                 GOTO    DISP0
                      00795 
                      00796 
                      00797 
Warning[203]: Found opcode in column 1. (RETURN)
000228 0012           00798 RETURN
                      00799 ;==============================================================
                      00800 
                      00801 ;================       THIS WILL ADD VALUES TO THE MOVX(MOVING CURSORX) VALUES =====
00022A                00802 CURSORFSR
00022A 0E30           00803                 MOVLW   .48
00022C 6F64           00804                 MOVWF   CFSRLOOP
                      00805 
00022E 0E01           00806                 MOVLW   1
000230 6EDA           00807                 MOVWF   FSR2H
000232 0EA0           00808                 MOVLW   0XA0
000234 6ED9           00809                 MOVWF   FSR2L
                      00810 ;----------------------------
000236 0E01           00811                 MOVLW   1
MPASM  5.51       20191122_RGMODULE_RTCV1.ASM   11-25-2019  10:52:29         PAGE 19


LOC  OBJECT CODE     LINE SOURCE TEXT
  VALUE

000238 6EEA           00812                 MOVWF   FSR0H
00023A 0E6F           00813                 MOVLW   0X6F
00023C 6EE9           00814                 MOVWF   FSR0L
                      00815 
00023E 0EA0           00816                 MOVLW   0XA0
000240 6F6A           00817                 MOVWF   ENDPOINT0
                      00818 ;----------------------------
                      00819 
000242 0EFF           00820                 MOVLW   .255
000244 63A0           00821                 CPFSEQ  MOVX+00,1
000246 EF26 F001      00822                 GOTO    CFSR0
                      00823 
00024A 07A1           00824                 DECF    MOVX+01
                      00825 
00024C                00826 CFSR0
00024C 2AE9           00827                 INCF    FSR0L
                      00828 ;----------------------------
00024E 0EFF           00829                 MOVLW   .255
000250 62EF           00830                 CPFSEQ  INDF0
000252 EF2D F001      00831                 GOTO    CFSR1
000256 EF48 F001      00832                 GOTO    CFSR2
00025A                00833 CFSR1
                      00834 ;----------------------------
00025A CFDF F167      00835                 MOVFF   INDF2,MOVX_TEMPL                ;CURSORL
00025E 2AD9           00836                 INCF    FSR2L
000260 CFDF F166      00837                 MOVFF   INDF2,MOVX_TEMPH                ;CURSORH
                      00838 
000264 2AD9           00839                 INCF    FSR2L
                      00840 
000266 C167 FFDF      00841                 MOVFF   MOVX_TEMPL,INDF2
                      00842 
                      00843 ;=============  ADD WIDTH CONTROL       ======
                      00844 ;               MOVLW   .21
00026A CFFA F16F      00845                 MOVFF   PCLATH,PCLATH_TEMP
00026E EC00 F038      00846                 CALL    WIDTH_CHECK
000272 26DF           00847                 ADDWF   INDF2
000274 C16F FFFA      00848                 MOVFF   PCLATH_TEMP,PCLATH
                      00849 ;=========================================
                      00850 
000278 A0D8           00851                 BTFSS   STATUS,C
00027A EF40 F001      00852                 GOTO    CFSR1C0
                      00853                 
                      00854 
00027E 2B66           00855                 INCF    MOVX_TEMPH
                      00856 
                      00857 
000280                00858 CFSR1C0
000280 2AD9           00859                 INCF    FSR2L
000282 C166 FFDF      00860                 MOVFF   MOVX_TEMPH,INDF2
                      00861 
                      00862                 
                      00863 
000286 06D9           00864                 DECF    FSR2L
MPASM  5.51       20191122_RGMODULE_RTCV1.ASM   11-25-2019  10:52:29         PAGE 20


LOC  OBJECT CODE     LINE SOURCE TEXT
  VALUE

                      00865 ;----------------------------
000288 2B6A           00866                 INCF    ENDPOINT0
00028A 2B6A           00867                 INCF    ENDPOINT0
                      00868 ;----------------------------
                      00869 
                      00870 ;               DECFSZ  CFSRLOOP        
00028C EF26 F001      00871                 GOTO    CFSR0
000290                00872 CFSR2
000290 98D8           00873                 BCF             STATUS,N
000292 C16A F16B      00874                 MOVFF   ENDPOINT0,ENDPOINT1
000296 2B6B           00875                 INCF    ENDPOINT1
                      00876                 
Warning[203]: Found opcode in column 1. (RETURN)
000298 0012           00877 RETURN
                      00878 
                      00879 
                      00880 
                      00881 
                      00882 
                      00883 
                      00884 
                      00885 ;=======================        COMMANDS                ===================
00029A                00886 COMMAND
                      00887 
                      00888 
00029A 0E02           00889                 MOVLW   2
00029C 6F4A           00890                 MOVWF   FONT
                      00891 
                      00892 ;;===========================   SMART DISPLAYING   ==================
                      00893 ;               MOVLW   1
                      00894 ;               MOVWF   FSR2H
                      00895 ;               MOVLW   0XA0
                      00896 ;               MOVWF   FSR2L
                      00897 ;
                      00898 ;
                      00899 ;               MOVLW   0X00
                      00900 ;               MOVWF   HUB
                      00901 ;       
                      00902 ;               MOVLW   0X01
                      00903 ;               MOVWF   CHARFSRH
                      00904 ;               
                      00905 ;               MOVLW   0X70
                      00906 ;               MOVWF   CHARFSRL
                      00907 ;
                      00908 ;               MOVLW   0X02
                      00909 ;               MOVWF   COLOR_FSRH
                      00910 ;
                      00911 ;               MOVLW   0X00
                      00912 ;               MOVWF   COLOR_FSRL
                      00913 ;
                      00914 ;;---------------------------
                      00915 ;CCMD0
                      00916 ;               MOVFF   CHARFSRH,FSR0H
MPASM  5.51       20191122_RGMODULE_RTCV1.ASM   11-25-2019  10:52:29         PAGE 21


LOC  OBJECT CODE     LINE SOURCE TEXT
  VALUE

                      00917 ;               MOVFF   CHARFSRL,FSR0L
                      00918 ;
                      00919 ;               MOVFF   INDF0,NUMBER
                      00920 ;
                      00921 ;               MOVFF   COLOR_FSRH,FSR0H
                      00922 ;               MOVFF   COLOR_FSRL,FSR0L
                      00923 ;
                      00924 ;               MOVFF   INDF0,COLORA
                      00925 ;               
                      00926 ;
                      00927 ;               MOVLW   .255
                      00928 ;               CPFSEQ  NUMBER
                      00929 ;               GOTO    CCMD1
                      00930 ;               GOTO    CCMD2
                      00931 ;
                      00932 ;CCMD1
                      00933 ;               CALL    CMD_SUB
                      00934 ;               INCF    COLOR_FSRL
                      00935 ;               INCF    CHARFSRL
                      00936 ;               GOTO    CCMD0
                      00937 ;
                      00938 ;CCMD2
                      00939 ;               NOP
                      00940 ;;====================================================================
                      00941 
                      00942 
                      00943 
                      00944 ;=====  BEFORE SMART DISPLAYING THIS IS HOW TO DISPLAY MANUALLY =====
00029E 0E10           00945                 MOVLW   10
0002A0 6F4C           00946                 MOVWF   CURSORX
0002A2 0E04           00947                 MOVLW   4
0002A4 6F65           00948                 MOVWF   CSRHBYTE
                      00949 
0002A6 0E1A           00950                 MOVLW   1A
0002A8 6F48           00951                 MOVWF   NUMBER
0002AA EC58 F001      00952                 CALL    CMD_SUB
                      00953 
                      00954 ;====================================================================
                      00955 
                      00956 
Warning[203]: Found opcode in column 1. (RETURN)
0002AE 0012           00957 RETURN
                      00958 ;==================================================================     
                      00959 
0002B0                00960 CMD_SUB
0002B0 CFDF F14C      00961                 MOVFF   INDF2,CURSORX
                      00962                 
0002B4 C15E F147      00963                 MOVFF   COLORA,COLOR
                      00964                 
0002B8 2AD9           00965                 INCF    FSR2L
0002BA CFDF F165      00966                 MOVFF   INDF2,CSRHBYTE
0002BE 06D9           00967                 DECF    FSR2L
                      00968 
MPASM  5.51       20191122_RGMODULE_RTCV1.ASM   11-25-2019  10:52:29         PAGE 22


LOC  OBJECT CODE     LINE SOURCE TEXT
  VALUE

0002C0 0E05           00969                 MOVLW   5
0002C2 6165           00970                 CPFSLT  CSRHBYTE
0002C4 EF78 F001      00971                 GOTO    CMD_SUB2        ;CSRHBYTE IS 5 AND UP
                      00972                                                         ;CSRHBYTE IS 4 AND DOWN
                      00973                 
                      00974 
0002C8 0E7F           00975                 MOVLW   .127
0002CA 614C           00976                 CPFSLT  CURSORX
0002CC EF6A F001      00977                 GOTO    CMD_SUB0        ;CURSORX > 127
0002D0 EF72 F001      00978                 GOTO    CMD_SUB1        ;CURSORX < 127
                      00979                 
                      00980                 
                      00981 
0002D4                00982 CMD_SUB0
0002D4 0E03           00983                 MOVLW   3
0002D6 6365           00984                 CPFSEQ  CSRHBYTE
0002D8 EF78 F001      00985                 GOTO    CMD_SUB2
0002DC EC7D F001      00986                 CALL    HUBCHECKDUMP
0002E0 EF78 F001      00987                 GOTO    CMD_SUB2
                      00988                 
                      00989                 
0002E4                00990 CMD_SUB1
                      00991 
0002E4 0E04           00992                 MOVLW   4
0002E6 6365           00993                 CPFSEQ  CSRHBYTE
0002E8 EF78 F001      00994                 GOTO    CMD_SUB2
0002EC EC7D F001      00995                 CALL    HUBCHECKDUMP
                      00996 
                      00997 
0002F0                00998 CMD_SUB2
                      00999 
                      01000 
0002F0 2AD9           01001                 INCF    FSR2L
0002F2 2AD9           01002                 INCF    FSR2L
0002F4 0E00           01003                 MOVLW   0X00
0002F6 6F5D           01004                 MOVWF   HUB
                      01005                 
                      01006 
Warning[203]: Found opcode in column 1. (RETURN)
0002F8 0012           01007 RETURN
                      01008 
                      01009 ;==================================================================     
0002FA                01010 HUBCHECKDUMP
0002FA 0E7F           01011                 MOVLW   .127
0002FC 614C           01012                 CPFSLT  CURSORX,1
                      01013                 
0002FE EF99 F001      01014                 GOTO    CMDG127
000302                01015 HBCD
000302 0E40           01016                 MOVLW   .64
000304 634C           01017                 CPFSEQ  CURSORX,1
000306 EF87 F001      01018                 GOTO    CMD0
00030A EF92 F001      01019                 GOTO    CMD64
                      01020 
MPASM  5.51       20191122_RGMODULE_RTCV1.ASM   11-25-2019  10:52:29         PAGE 23


LOC  OBJECT CODE     LINE SOURCE TEXT
  VALUE

00030E                01021 CMD0            
00030E 0E3F           01022                 MOVLW   .63
000310 654C           01023                 CPFSGT  CURSORX,1
000312 EF8F F001      01024                 GOTO    CMDD
                      01025 
000316 0E20           01026                 MOVLW   0X20
000318 6F5D           01027                 MOVWF   HUB
                      01028                 
00031A 0E40           01029                 MOVLW   .64
00031C 5F4C           01030                 SUBWF   CURSORX
                      01031                 
                      01032 
00031E                01033 CMDD
                      01034                 
00031E EC3B F002      01035                 CALL    DUMP
Warning[203]: Found opcode in column 1. (RETURN)
000322 0012           01036 RETURN
                      01037 
000324                01038 CMD64
000324 0E20           01039                 MOVLW   0X20
000326 6F5D           01040                 MOVWF   HUB
                      01041 
                      01042 
000328 0E00           01043                 MOVLW   .0
00032A 6F4C           01044                 MOVWF   CURSORX
00032C EC3B F002      01045                 CALL    DUMP
Warning[203]: Found opcode in column 1. (RETURN)
000330 0012           01046 RETURN
                      01047 
000332                01048 CMDG127
000332 0E7F           01049                 MOVLW   .127
000334 634C           01050                 CPFSEQ  CURSORX,1
000336 EF9F F001      01051                 GOTO    CMDG127C
00033A EF81 F001      01052                 GOTO    HBCD
00033E                01053 CMDG127C
00033E 0EE8           01054                 MOVLW   .232
000340 654C           01055                 CPFSGT  CURSORX,1
000342 0012           01056                 RETURN  
                      01057 
000344 8163           01058                 BSF             CSRBIT,0
000346 C14C F14E      01059                 MOVFF   CURSORX,CURSORX_TEMP
                      01060 
00034A 0ED0           01061                 MOVLW   .208
00034C 5F4C           01062                 SUBWF   CURSORX
00034E EC3B F002      01063                 CALL    DUMP
Warning[203]: Found opcode in column 1. (RETURN)
000352 0012           01064 RETURN
                      01065 ;==============================================================
                      01066 
                      01067 ;=======================        CLEAR   CHAR            ===============
000354                01068 CLR_CHAR
000354 0101           01069         MOVLB           0X01    ;BANK1
000356 0E30           01070         MOVLW           .48
MPASM  5.51       20191122_RGMODULE_RTCV1.ASM   11-25-2019  10:52:29         PAGE 24


LOC  OBJECT CODE     LINE SOURCE TEXT
  VALUE

000358 6F45           01071         MOVWF           POINTER
                      01072 
00035A 0E01           01073         MOVLW           0X01
00035C 6EDA           01074         MOVWF           FSR2H
                      01075 
00035E 0E70           01076         MOVLW           0X70
000360 6ED9           01077         MOVWF           FSR2L,0  
                      01078 
                      01079 
                      01080 
000362                01081 CLRCHAR0
000362 0EFF           01082         MOVLW           0XFF
000364 6EDF           01083         MOVWF           INDF2
000366 2AD9           01084         INCF            FSR2L
                      01085 
000368 2F45           01086         DECFSZ          POINTER, F
00036A EFB1 F001      01087         GOTO            CLRCHAR0
                      01088 
Warning[203]: Found opcode in column 1. (RETURN)
00036E 0012           01089 RETURN
                      01090 ;==============================================================
                      01091 
                      01092 ;=======================        CLEAR   COLOR           ===============
000370                01093 CLR_COLORM
                      01094 ;       MOVLB           0X01    ;BANK1
000370 0E30           01095         MOVLW           .48
000372 6F45           01096         MOVWF           POINTER
                      01097 
000374 0E02           01098         MOVLW           0X02
000376 6EDA           01099         MOVWF           FSR2H
                      01100 
000378 0E00           01101         MOVLW           0X00
00037A 6ED9           01102         MOVWF           FSR2L,0  
                      01103 
                      01104 
                      01105 
00037C                01106 CLRCLM0
00037C 0E00           01107         MOVLW           0
00037E 6EDF           01108         MOVWF           INDF2
000380 2AD9           01109         INCF            FSR2L
000382 2F45           01110         DECFSZ          POINTER, F
000384 EFBE F001      01111         GOTO            CLRCLM0
                      01112 
Warning[203]: Found opcode in column 1. (RETURN)
000388 0012           01113 RETURN
                      01114 ;==============================================================
                      01115 
                      01116 
                      01117 ;=======================        CLEAR   CURSOR          ===============
00038A                01118 CLR_CSR
00038A 0101           01119         MOVLB           0X01    ;BANK1
00038C 0E30           01120         MOVLW           .48
00038E 6F45           01121         MOVWF           POINTER
MPASM  5.51       20191122_RGMODULE_RTCV1.ASM   11-25-2019  10:52:29         PAGE 25


LOC  OBJECT CODE     LINE SOURCE TEXT
  VALUE

                      01122 
000390 0E01           01123         MOVLW           0X01
000392 6EDA           01124         MOVWF           FSR2H
                      01125 
000394 0EA0           01126         MOVLW           0XA0
000396 6ED9           01127         MOVWF           FSR2L,0  
                      01128 
                      01129 
                      01130 
000398                01131 CLRFSR0
000398 0E00           01132         MOVLW           00
00039A 6EDF           01133         MOVWF           INDF2
00039C 2AD9           01134         INCF            FSR2L
00039E 0E01           01135         MOVLW           01
0003A0 6EDF           01136         MOVWF           INDF2
0003A2 2AD9           01137         INCF            FSR2L
0003A4 2F45           01138         DECFSZ          POINTER, F
0003A6 EFCC F001      01139         GOTO            CLRFSR0
                      01140 
Warning[203]: Found opcode in column 1. (RETURN)
0003AA 0012           01141 RETURN
                      01142 ;==============================================================
                      01143 
                      01144 ;=======================        CLEAR   RAM             ===================
0003AC                01145 CLR_RAM
0003AC 0101           01146         MOVLB           0X01    ;BANK1
0003AE 0E40           01147         MOVLW           .64
0003B0 6F45           01148         MOVWF           POINTER
                      01149 
0003B2 0E01           01150         MOVLW           0X01
0003B4 6EEA           01151         MOVWF           FSR0H,0
                      01152 
0003B6 0E00           01153         MOVLW           0X00
0003B8 6EE9           01154         MOVWF           FSR0L,0  
                      01155 
0003BA 0EFF           01156         MOVLW           0XFF
                      01157 
0003BC                01158 CLR0
0003BC 6EEF           01159         MOVWF           INDF0
                      01160 
0003BE 2AE9           01161         INCF            FSR0L
0003C0 2F45           01162         DECFSZ          POINTER, F
0003C2 EFDE F001      01163         GOTO            CLR0
                      01164         
                      01165         
0003C6 0EFF           01166                 MOVLW   0XFF
0003C8 6F55           01167                 MOVWF   TEMPRAM+00
0003CA 6F56           01168                 MOVWF   TEMPRAM+01
0003CC 6F57           01169                 MOVWF   TEMPRAM+02
0003CE 6F58           01170                 MOVWF   TEMPRAM+03
0003D0 6F59           01171                 MOVWF   TEMPRAM+04
0003D2 6F5A           01172                 MOVWF   TEMPRAM+05
0003D4 6F5B           01173                 MOVWF   TEMPRAM+06
MPASM  5.51       20191122_RGMODULE_RTCV1.ASM   11-25-2019  10:52:29         PAGE 26


LOC  OBJECT CODE     LINE SOURCE TEXT
  VALUE

0003D6 6F5C           01174                 MOVWF   TEMPRAM+07
                      01175 
0003D8 0012           01176         RETURN
                      01177 ;==============================================================
                      01178 
                      01179 
                      01180 ;=======================        REGISTER DATA           ===============
0003DA                01181 DATAREG
                      01182 
                      01183 
0003DA 0101           01184         MOVLB   0X01
                      01185 
0003DC 0E01           01186         MOVLW   0X01
0003DE 6EEA           01187         MOVWF   FSR0H
                      01188 
0003E0 0E00           01189         MOVLW   0X00
0003E2 6EE9           01190         MOVWF   FSR0L
0003E4 ECF9 F001      01191         CALL    DATAREGSUB
                      01192 
0003E8 0E20           01193         MOVLW   0X20
0003EA 6EE9           01194         MOVWF   FSR0L
0003EC ECF9 F001      01195         CALL    DATAREGSUB
Warning[203]: Found opcode in column 1. (RETURN)
0003F0 0012           01196 RETURN
                      01197 ;==============================================================
                      01198 
                      01199 
                      01200 
                      01201 ;==================== DATA REGISRY SUB ROUTINE ================
0003F2                01202 DATAREGSUB
0003F2 0E08           01203         MOVLW   8
0003F4 6F42           01204         MOVWF   COUNT0
                      01205         
                      01206 
0003F6                01207 DR0
0003F6 CFEF F151      01208         MOVFF   INDF0,REDHALF0
                      01209         
0003FA 86E9           01210         BSF             FSR0L,3
                      01211         
0003FC CFEF F152      01212         MOVFF   INDF0,REDHALF1
                      01213 
                      01214 
000400 88E9           01215         BSF             FSR0L,4
                      01216         
000402 CFEF F154      01217         MOVFF   INDF0,GRNHALF1
                      01218 
                      01219         
000406 96E9           01220         BCF             FSR0L,3
                      01221 
000408 CFEF F153      01222         MOVFF   INDF0,GRNHALF0
                      01223 
00040C 0E08           01224         MOVLW   8
00040E 6F43           01225         MOVWF   COUNT1
MPASM  5.51       20191122_RGMODULE_RTCV1.ASM   11-25-2019  10:52:29         PAGE 27


LOC  OBJECT CODE     LINE SOURCE TEXT
  VALUE

                      01226 
000410                01227 DR1
000410 3751           01228         RLCF            REDHALF0
                      01229         
000412 A0D8           01230         BTFSS   STATUS,C
000414 EF0E F002      01231         GOTO    R0LO
000418 EF11 F002      01232         GOTO    R0HI
                      01233 
00041C                01234 R0LO
00041C 808A           01235         R0_1
00041E EF12 F002      01236         GOTO    DR2
000422                01237 R0HI
000422 908A           01238         R0_0
                      01239 ;-------------------
000424                01240 DR2
000424 3752           01241         RLCF    REDHALF1
                      01242         
000426 A0D8           01243         BTFSS   STATUS,C
000428 EF18 F002      01244         GOTO    R1LO
00042C EF1B F002      01245         GOTO    R1HI
                      01246 
000430                01247 R1LO
000430 828A           01248         R1_1
000432 EF1C F002      01249         GOTO    DR3
                      01250 
000436                01251 R1HI
000436 928A           01252         R1_0
                      01253 ;-------------------
000438                01254 DR3
                      01255         
000438 3753           01256         RLCF            GRNHALF0
                      01257         
00043A A0D8           01258         BTFSS   STATUS,C
00043C EF22 F002      01259         GOTO    G0LO
000440 EF25 F002      01260         GOTO    G0HI
                      01261 
                      01262 
000444                01263 G0LO
000444 848A           01264         G0_1
000446 EF26 F002      01265         GOTO    DR4
                      01266 
00044A                01267 G0HI
00044A 948A           01268         G0_0
                      01269 ;-------------------
00044C                01270 DR4
                      01271 
00044C 3754           01272         RLCF            GRNHALF1
                      01273 
00044E A0D8           01274         BTFSS   STATUS,C
000450 EF2C F002      01275         GOTO    G1LO
000454 EF2F F002      01276         GOTO    G1HI
                      01277 
                      01278 
MPASM  5.51       20191122_RGMODULE_RTCV1.ASM   11-25-2019  10:52:29         PAGE 28


LOC  OBJECT CODE     LINE SOURCE TEXT
  VALUE

000458                01279 G1LO
000458 868A           01280         G1_1
00045A EF30 F002      01281         GOTO    DR5
00045E                01282 G1HI
00045E 968A           01283         G1_0
                      01284 ;-------------------
000460                01285 DR5
                      01286         
                      01287 
000460 8A8C           01288         CLK_ON
000462 9A8C           01289         CLK_OFF
                      01290 
000464 2F43           01291         DECFSZ  COUNT1,F
000466 EF08 F002      01292         GOTO    DR1
                      01293 
00046A 98E9           01294         BCF             FSR0L,4
00046C 2AE9           01295         INCF    FSR0L
                      01296         
00046E 2F42           01297         DECFSZ  COUNT0,F
000470 EFFB F001      01298         GOTO    DR0
Warning[203]: Found opcode in column 1. (RETURN)
000474 0012           01299 RETURN
                      01300 ;============================================================== 
                      01301 
                      01302 
                      01303 
                      01304 ;======================= DUMPING OF DATA ======================
000476                01305 DUMP
000476 C149 F146      01306                 MOVFF   ROW,BTCOUNT
                      01307 
00047A CFFA F16F      01308                 MOVFF   PCLATH,PCLATH_TEMP
00047E 0E00           01309                 MOVLW   0
000480 6F45           01310                 MOVWF   POINTER
                      01311 
000482 0EFF           01312                 MOVLW   0XFF
000484 6F55           01313                 MOVWF   TEMPRAM+00
000486 6F56           01314                 MOVWF   TEMPRAM+01
000488 6F57           01315                 MOVWF   TEMPRAM+02
00048A 6F58           01316                 MOVWF   TEMPRAM+03
00048C 6F59           01317                 MOVWF   TEMPRAM+04
00048E 6F5A           01318                 MOVWF   TEMPRAM+05
000490 6F5B           01319                 MOVWF   TEMPRAM+06
000492 6F5C           01320                 MOVWF   TEMPRAM+07
                      01321 
                      01322 
000494                01323 DMP_FONT02
                      01324 
000494 C146 FFE8      01325                 MOVFF   BTCOUNT,WREG
000498 B4D8           01326                 BTFSC   STATUS,Z
00049A EF51 F002      01327                 GOTO    DMP_FONT02CONT
                      01328 
                      01329 
00049E 2746           01330                 ADDWF   BTCOUNT
MPASM  5.51       20191122_RGMODULE_RTCV1.ASM   11-25-2019  10:52:29         PAGE 29


LOC  OBJECT CODE     LINE SOURCE TEXT
  VALUE

0004A0 2746           01331                 ADDWF   BTCOUNT
0004A2                01332 DMP_FONT02CONT
                      01333 
0004A2 0E00           01334                 MOVLW   0
0004A4 6EFA           01335                 MOVWF   PCLATH
                      01336 
0004A6 EC00 F006      01337                 CALL    FONT02H
0004AA 6F55           01338                 MOVWF   TEMPRAM+00
0004AC 2B46           01339                 INCF    BTCOUNT
                      01340 
                      01341 
0004AE EC00 F006      01342                 CALL    FONT02H
0004B2 6F56           01343                 MOVWF   TEMPRAM+01
0004B4 2B46           01344                 INCF    BTCOUNT
                      01345 
                      01346 
0004B6 EC00 F006      01347                 CALL    FONT02H
0004BA 6F57           01348                 MOVWF   TEMPRAM+02
                      01349 
0004BC 0746           01350                 DECF    BTCOUNT
0004BE 0746           01351                 DECF    BTCOUNT
                      01352 
                      01353 
                      01354 
                      01355                 
                      01356                 
0004C0 EC80 F006      01357                 CALL    FONT02L
0004C4 6F59           01358                 MOVWF   TEMPRAM+04
0004C6 2B46           01359                 INCF    BTCOUNT
                      01360 
                      01361 
                      01362 
0004C8 EC80 F006      01363                 CALL    FONT02L
0004CC 6F5A           01364                 MOVWF   TEMPRAM+05
0004CE 2B46           01365                 INCF    BTCOUNT
                      01366 
                      01367 
0004D0 EC80 F006      01368                 CALL    FONT02L
0004D4 6F5B           01369                 MOVWF   TEMPRAM+06
                      01370 
                      01371 
                      01372 
                      01373 
0004D6 C16F FFFA      01374                 MOVFF   PCLATH_TEMP,PCLATH
0004DA EF6F F002      01375                 GOTO    DMP0
                      01376 
                      01377 
0004DE                01378 DMP0
                      01379                 
                      01380 
0004DE C16F FFFA      01381                 MOVFF   PCLATH_TEMP,PCLATH
0004E2 EC74 F002      01382                 CALL    DATAINRAM
                      01383 
MPASM  5.51       20191122_RGMODULE_RTCV1.ASM   11-25-2019  10:52:29         PAGE 30


LOC  OBJECT CODE     LINE SOURCE TEXT
  VALUE

Warning[203]: Found opcode in column 1. (RETURN)
0004E6 0012           01384 RETURN
                      01385 ;==============================================================
                      01386 
                      01387 
                      01388 
                      01389 ;======================== PUT DATA IN RAM =====================
0004E8                01390 DATAINRAM
                      01391                 
0004E8 674C           01392                 TSTFSZ  CURSORX,1
0004EA EF79 F002      01393                 GOTO    DIRC
                      01394 
0004EE EF8D F002      01395                 GOTO    DIR1   ;DIR2(0)
                      01396 
0004F2                01397 DIRC
0004F2 EC56 F004      01398                 CALL    CURSORX_TEST
0004F6 6741           01399                 TSTFSZ  LOOP
0004F8 EF80 F002      01400                 GOTO    DIR0
0004FC EF8D F002      01401                 GOTO    DIR1
000500                01402 DIR0
000500 80D8           01403                 BSF             STATUS,C
000502 3355           01404                 RRCF    TEMPRAM+00
000504 3356           01405                 RRCF    TEMPRAM+01
000506 3357           01406                 RRCF    TEMPRAM+02
000508 3358           01407                 RRCF    TEMPRAM+03
00050A 80D8           01408                 BSF             STATUS,C
00050C 3359           01409                 RRCF    TEMPRAM+04
00050E 335A           01410                 RRCF    TEMPRAM+05
000510 335B           01411                 RRCF    TEMPRAM+06
000512 335C           01412                 RRCF    TEMPRAM+07
                      01413 
000514 2F41           01414                 DECFSZ  LOOP,F
000516 EF80 F002      01415                 GOTO    DIR0
                      01416 
00051A                01417 DIR1
                      01418 
00051A CFFA F16F      01419                 MOVFF   PCLATH,PCLATH_TEMP
00051E 0E01           01420                 MOVLW   0X01
000520 6EEA           01421                 MOVWF   FSR0H
000522 0E00           01422                 MOVLW   0X00
000524 6EE9           01423                 MOVWF   FSR0L
                      01424 
000526 0E01           01425                 MOVLW   0X01
000528 6EE2           01426                 MOVWF   FSR1H
00052A 0E55           01427                 MOVLW   0X55
00052C 6EE1           01428                 MOVWF   FSR1L
                      01429 
00052E C15D FFE8      01430                 MOVFF   HUB,WREG
000532 26E9           01431                 ADDWF   FSR0L
                      01432 
000534 C145 FFE8      01433                 MOVFF   POINTER,WREG
000538 26E9           01434                 ADDWF   FSR0L
                      01435                 
MPASM  5.51       20191122_RGMODULE_RTCV1.ASM   11-25-2019  10:52:29         PAGE 31


LOC  OBJECT CODE     LINE SOURCE TEXT
  VALUE

00053A B347           01436                 BTFSC   COLOR,1
00053C EFA4 F002      01437                 GOTO    DIR2_YELLOW
000540 ECBC F002      01438                 CALL    DIR_SUB
000544 9163           01439                 BCF             CSRBIT,0        
Warning[203]: Found opcode in column 1. (RETURN)
000546 0012           01440 RETURN
                      01441 
000548                01442 DIR2_YELLOW
000548 0E00           01443                 MOVLW   0
00054A 6F47           01444                 MOVWF   COLOR
00054C ECBC F002      01445                 CALL    DIR_SUB
                      01446 
                      01447 
000550 0E01           01448                 MOVLW   0X01
000552 6EEA           01449                 MOVWF   FSR0H
000554 0E00           01450                 MOVLW   0X00
000556 6EE9           01451                 MOVWF   FSR0L
                      01452 
                      01453 
000558 0E01           01454                 MOVLW   0X01
00055A 6EE2           01455                 MOVWF   FSR1H
00055C 0E55           01456                 MOVLW   0X55
00055E 6EE1           01457                 MOVWF   FSR1L
                      01458 
000560 C15D FFE8      01459                 MOVFF   HUB,WREG
000564 26E9           01460                 ADDWF   FSR0L
                      01461 
000566 C145 FFE8      01462                 MOVFF   POINTER,WREG
00056A 26E9           01463                 ADDWF   FSR0L
                      01464 
00056C 0E01           01465                 MOVLW   1
00056E 6F47           01466                 MOVWF   COLOR
000570 ECBC F002      01467                 CALL    DIR_SUB
000574 9163           01468                 BCF             CSRBIT,0
Warning[203]: Found opcode in column 1. (RETURN)
000576 0012           01469 RETURN
                      01470 
                      01471 
000578                01472 DIR_SUB
000578 B147           01473                 BTFSC   COLOR,0
00057A 88E9           01474                 BSF             FSR0L,4
                      01475 
00057C A163           01476                 BTFSS   CSRBIT,0
00057E EFC5 F002      01477                 GOTO    DIR_SUB0
                      01478 
000582 90E9           01479                 BCF             FSR0L,0
000584 92E9           01480                 BCF             FSR0L,1
000586 94E9           01481                 BCF             FSR0L,2
000588 96E9           01482                 BCF             FSR0L,3
00058A                01483 DIR_SUB0
00058A EC9E F003      01484                 CALL    HUBTESTH        ;TEMPRAM+00
00058E 2AE1           01485                 INCF    FSR1L
                      01486 
MPASM  5.51       20191122_RGMODULE_RTCV1.ASM   11-25-2019  10:52:29         PAGE 32


LOC  OBJECT CODE     LINE SOURCE TEXT
  VALUE

000590 B163           01487                 BTFSC   CSRBIT,0
000592 EFD5 F002      01488                 GOTO    DIR2A
                      01489 
                      01490 
000596 0E37           01491                 MOVLW   .55
000598 654C           01492                 CPFSGT  CURSORX,1
00059A EFD5 F002      01493                 GOTO    DIR2A
                      01494                 
00059E 90E9           01495                 BCF             FSR0L,0
0005A0 92E9           01496                 BCF             FSR0L,1
0005A2 94E9           01497                 BCF             FSR0L,2
                      01498                 
0005A4 8AE9           01499                 BSF             FSR0L,5
0005A6 EFD6 F002      01500                 GOTO    DIR3A
                      01501 
0005AA                01502 DIR2A
0005AA 2AE9           01503                 INCF    FSR0L
0005AC                01504 DIR3A
0005AC EC9E F003      01505                 CALL    HUBTESTH        ;TEMPRAM+01
0005B0 2AE1           01506                 INCF    FSR1L
                      01507 
0005B2 B163           01508                 BTFSC   CSRBIT,0
0005B4 EFF4 F002      01509                 GOTO    DIR2BA
                      01510 
                      01511 
0005B8 0E2F           01512                 MOVLW   .47
0005BA 654C           01513                 CPFSGT  CURSORX,1
0005BC EFEA F002      01514                 GOTO    DIR2B
                      01515 
0005C0 0E37           01516                 MOVLW   .55
0005C2 614C           01517                 CPFSLT  CURSORX,1
0005C4 EFEA F002      01518                 GOTO    DIR2B
                      01519                 
0005C8 90E9           01520                 BCF             FSR0L,0
0005CA 92E9           01521                 BCF             FSR0L,1
0005CC 94E9           01522                 BCF             FSR0L,2
                      01523                 
0005CE 8AE9           01524                 BSF             FSR0L,5
0005D0 EFF5 F002      01525                 GOTO    DIR3B
                      01526 
0005D4                01527 DIR2B
0005D4 0E37           01528                 MOVLW   .55
0005D6 634C           01529                 CPFSEQ  CURSORX,1
0005D8 EFF4 F002      01530                 GOTO    DIR2BA
0005DC 90E9           01531                 BCF             FSR0L,0
0005DE 92E9           01532                 BCF             FSR0L,1
0005E0 94E9           01533                 BCF             FSR0L,2
                      01534                 
0005E2 8AE9           01535                 BSF             FSR0L,5
0005E4 EFF5 F002      01536                 GOTO    DIR3B
                      01537 
0005E8                01538 DIR2BA
0005E8 2AE9           01539                 INCF    FSR0L
MPASM  5.51       20191122_RGMODULE_RTCV1.ASM   11-25-2019  10:52:29         PAGE 33


LOC  OBJECT CODE     LINE SOURCE TEXT
  VALUE

0005EA                01540 DIR3B
0005EA EC9E F003      01541                 CALL    HUBTESTH        ;TEMPRAM+02
0005EE 2AE1           01542                 INCF    FSR1L
                      01543 
0005F0 B163           01544                 BTFSC   CSRBIT,0
0005F2 EF17 F003      01545                 GOTO    DIR2CA
                      01546 
0005F6 0E27           01547                 MOVLW   .39
0005F8 654C           01548                 CPFSGT  CURSORX,1
0005FA EF0D F003      01549                 GOTO    DIR2C
                      01550 
0005FE 0E2F           01551                 MOVLW   .47
000600 614C           01552                 CPFSLT  CURSORX,1
000602 EF0D F003      01553                 GOTO    DIR2C
                      01554 
000606 0E37           01555                 MOVLW   .55
000608 614C           01556                 CPFSLT  CURSORX,1
00060A EF0D F003      01557                 GOTO    DIR2C
                      01558                 
00060E 90E9           01559                 BCF             FSR0L,0
000610 92E9           01560                 BCF             FSR0L,1
000612 94E9           01561                 BCF             FSR0L,2
                      01562                 
000614 8AE9           01563                 BSF             FSR0L,5
000616 EF18 F003      01564                 GOTO    DIR3C
                      01565 
00061A                01566 DIR2C
00061A 0E2F           01567                 MOVLW   .47
00061C 634C           01568                 CPFSEQ  CURSORX,1
00061E EF17 F003      01569                 GOTO    DIR2CA
000622 90E9           01570                 BCF             FSR0L,0
000624 92E9           01571                 BCF             FSR0L,1
000626 94E9           01572                 BCF             FSR0L,2
                      01573                 
000628 8AE9           01574                 BSF             FSR0L,5
00062A EF18 F003      01575                 GOTO    DIR3C
00062E                01576 DIR2CA
00062E 2AE9           01577                 INCF    FSR0L
000630                01578 DIR3C
000630 EC9E F003      01579                 CALL    HUBTESTH        ;TEMPRAM+03
000634 2AE1           01580                 INCF    FSR1L
                      01581 
000636 0E37           01582                 MOVLW   .55
000638 654C           01583                 CPFSGT  CURSORX,1
00063A EF25 F003      01584                 GOTO    DIR4A
                      01585                 
00063E 80E9           01586                 BSF             FSR0L,0
000640 82E9           01587                 BSF             FSR0L,1
000642 84E9           01588                 BSF             FSR0L,2
                      01589                 
000644 9AE9           01590                 BCF             FSR0L,5
                      01591 
000646 EF3F F003      01592                 GOTO    DIR5
MPASM  5.51       20191122_RGMODULE_RTCV1.ASM   11-25-2019  10:52:29         PAGE 34


LOC  OBJECT CODE     LINE SOURCE TEXT
  VALUE

                      01593 
00064A                01594 DIR4A
00064A 0E2F           01595                 MOVLW   .47
00064C 654C           01596                 CPFSGT  CURSORX,1
00064E EF30 F003      01597                 GOTO    DIR4B
                      01598                 
000652 80E9           01599                 BSF             FSR0L,0
000654 82E9           01600                 BSF             FSR0L,1
000656 84E9           01601                 BSF             FSR0L,2
                      01602                 
000658 9AE9           01603                 BCF             FSR0L,5
00065A 06E9           01604                 DECF    FSR0L
00065C EF3F F003      01605                 GOTO    DIR5
                      01606 
000660                01607 DIR4B
                      01608 
000660 0E27           01609                 MOVLW   .39
000662 654C           01610                 CPFSGT  CURSORX,1
000664 EF3C F003      01611                 GOTO    DIR4C
                      01612                 
000668 80E9           01613                 BSF             FSR0L,0
00066A 82E9           01614                 BSF             FSR0L,1
00066C 84E9           01615                 BSF             FSR0L,2
                      01616                 
00066E 9AE9           01617                 BCF             FSR0L,5
000670 06E9           01618                 DECF    FSR0L
000672 06E9           01619                 DECF    FSR0L
000674 EF3F F003      01620                 GOTO    DIR5
                      01621 
000678                01622 DIR4C
000678 06E9           01623                 DECF    FSR0L
00067A 06E9           01624                 DECF    FSR0L
00067C 06E9           01625                 DECF    FSR0L
                      01626 
                      01627 
00067E                01628 DIR5
00067E 86E9           01629                 BSF             FSR0L,3
                      01630 
000680 BB5D           01631                 BTFSC   HUB,5
000682 8AE9           01632                 BSF             FSR0L,5
                      01633 
000684 A163           01634                 BTFSS   CSRBIT,0
000686 EF48 F003      01635                 GOTO    DIR_SUB1
                      01636 
00068A 90E9           01637                 BCF             FSR0L,0
00068C 92E9           01638                 BCF             FSR0L,1
00068E 94E9           01639                 BCF             FSR0L,2
000690                01640 DIR_SUB1                
000690 ECFA F003      01641                 CALL    HUBTESTL        ;TEMPRAM+04
000694 2AE1           01642                 INCF    FSR1L
                      01643 
000696 B163           01644                 BTFSC   CSRBIT,0
000698 EF58 F003      01645                 GOTO    DIR6A
MPASM  5.51       20191122_RGMODULE_RTCV1.ASM   11-25-2019  10:52:29         PAGE 35


LOC  OBJECT CODE     LINE SOURCE TEXT
  VALUE

                      01646 
00069C 0E37           01647                 MOVLW   .55
00069E 654C           01648                 CPFSGT  CURSORX,1
0006A0 EF58 F003      01649                 GOTO    DIR6A
                      01650                 
0006A4 90E9           01651                 BCF             FSR0L,0
0006A6 92E9           01652                 BCF             FSR0L,1
0006A8 94E9           01653                 BCF             FSR0L,2
0006AA 8AE9           01654                 BSF             FSR0L,5
0006AC EF59 F003      01655                 GOTO    DIR7A
                      01656 
0006B0                01657 DIR6A
                      01658 
0006B0 2AE9           01659                 INCF    FSR0L
0006B2                01660 DIR7A
0006B2 ECFA F003      01661                 CALL    HUBTESTL        ;TEMPRAM+05
0006B6 2AE1           01662                 INCF    FSR1L
                      01663 
0006B8 B163           01664                 BTFSC   CSRBIT,0
0006BA EF77 F003      01665                 GOTO    DIR6BA
                      01666 
0006BE 0E2F           01667                 MOVLW   .47
0006C0 654C           01668                 CPFSGT  CURSORX,1
0006C2 EF6D F003      01669                 GOTO    DIR6B
                      01670 
0006C6 0E37           01671                 MOVLW   .55
0006C8 614C           01672                 CPFSLT  CURSORX,1
0006CA EF6D F003      01673                 GOTO    DIR6B
                      01674                 
0006CE 90E9           01675                 BCF             FSR0L,0
0006D0 92E9           01676                 BCF             FSR0L,1
0006D2 94E9           01677                 BCF             FSR0L,2
0006D4 8AE9           01678                 BSF             FSR0L,5
0006D6 EF78 F003      01679                 GOTO    DIR7B
                      01680 
0006DA                01681 DIR6B
0006DA 0E37           01682                 MOVLW   .55
0006DC 634C           01683                 CPFSEQ  CURSORX,1
0006DE EF77 F003      01684                 GOTO    DIR6BA
0006E2 90E9           01685                 BCF             FSR0L,0
0006E4 92E9           01686                 BCF             FSR0L,1
0006E6 94E9           01687                 BCF             FSR0L,2
                      01688                 
0006E8 8AE9           01689                 BSF             FSR0L,5
0006EA EF78 F003      01690                 GOTO    DIR7B
0006EE                01691 DIR6BA
0006EE 2AE9           01692                 INCF    FSR0L
0006F0                01693 DIR7B
0006F0 ECFA F003      01694                 CALL    HUBTESTL        ;TEMPRAM+06
0006F4 2AE1           01695                 INCF    FSR1L
                      01696 
0006F6 B163           01697                 BTFSC   CSRBIT,0
0006F8 EF9A F003      01698                 GOTO    DIR6CA
MPASM  5.51       20191122_RGMODULE_RTCV1.ASM   11-25-2019  10:52:29         PAGE 36


LOC  OBJECT CODE     LINE SOURCE TEXT
  VALUE

                      01699 
0006FC 0E27           01700                 MOVLW   .39
0006FE 654C           01701                 CPFSGT  CURSORX,1
000700 EF90 F003      01702                 GOTO    DIR6C
                      01703 
000704 0E2F           01704                 MOVLW   .47
000706 614C           01705                 CPFSLT  CURSORX,1
000708 EF90 F003      01706                 GOTO    DIR6C
                      01707 
00070C 0E37           01708                 MOVLW   .55
00070E 614C           01709                 CPFSLT  CURSORX,1
000710 EF90 F003      01710                 GOTO    DIR6C
                      01711 
                      01712 
                      01713                 
000714 90E9           01714                 BCF             FSR0L,0
000716 92E9           01715                 BCF             FSR0L,1
000718 94E9           01716                 BCF             FSR0L,2
00071A 8AE9           01717                 BSF             FSR0L,5
00071C EF9B F003      01718                 GOTO    DIR7C
                      01719 
000720                01720 DIR6C
000720 0E2F           01721                 MOVLW   .47
000722 634C           01722                 CPFSEQ  CURSORX,1
000724 EF9A F003      01723                 GOTO    DIR6CA
000728 90E9           01724                 BCF             FSR0L,0
00072A 92E9           01725                 BCF             FSR0L,1
00072C 94E9           01726                 BCF             FSR0L,2
                      01727                 
00072E 8AE9           01728                 BSF             FSR0L,5
000730 EF9B F003      01729                 GOTO    DIR7C
                      01730 
000734                01731 DIR6CA
000734 2AE9           01732                 INCF    FSR0L
000736                01733 DIR7C
000736 ECFA F003      01734                 CALL    HUBTESTL        ;TEMPRAM+07
                      01735 
Warning[203]: Found opcode in column 1. (RETURN)
00073A 0012           01736 RETURN
                      01737 
                      01738 
                      01739 
00073C                01740 HUBTESTH
00073C AB5D           01741                 BTFSS   HUB,5
00073E EFC7 F003      01742                 GOTO    HUBH_EXIT
                      01743 
000742 0E28           01744                 MOVLW   .40
000744 614C           01745                 CPFSLT  CURSORX,1
000746 EFA7 F003      01746                 GOTO    HTH_CXGT40
00074A EFC7 F003      01747                 GOTO    HUBH_EXIT
                      01748 
                      01749 
00074E                01750 HTH_CXGT40
MPASM  5.51       20191122_RGMODULE_RTCV1.ASM   11-25-2019  10:52:29         PAGE 37


LOC  OBJECT CODE     LINE SOURCE TEXT
  VALUE

00074E 0E30           01751                 MOVLW   .48
000750 614C           01752                 CPFSLT  CURSORX,1
000752 EFB0 F003      01753                 GOTO    HTH_CXGT48
                      01754 
000756 0E57           01755                 MOVLW   57
000758 64E1           01756                 CPFSGT  FSR1L,0
00075A EFC7 F003      01757                 GOTO    HUBH_EXIT
00075E 0012           01758                 RETURN
                      01759 
                      01760 
000760                01761 HTH_CXGT48
000760 0E37           01762                 MOVLW   .55
000762 614C           01763                 CPFSLT  CURSORX,1
000764 EFB9 F003      01764                 GOTO    HTH_CXGT55
                      01765 
000768 0E56           01766                 MOVLW   56
00076A 64E1           01767                 CPFSGT  FSR1L,0
00076C EFC7 F003      01768                 GOTO    HUBH_EXIT
000770 0012           01769                 RETURN
                      01770 
                      01771 
000772                01772 HTH_CXGT55
000772 0E37           01773                 MOVLW   .55
000774 634C           01774                 CPFSEQ  CURSORX,1
000776 EFC2 F003      01775                 GOTO    HTHPX
                      01776 
00077A 0E56           01777                 MOVLW   56
00077C 64E1           01778                 CPFSGT  FSR1L,0
00077E EFC7 F003      01779                 GOTO    HUBH_EXIT
000782 0012           01780                 RETURN
                      01781                 
                      01782 
000784                01783 HTHPX
000784 0E55           01784                 MOVLW   55
000786 64E1           01785                 CPFSGT  FSR1L,0
000788 EFC7 F003      01786                 GOTO    HUBH_EXIT
00078C 0012           01787                 RETURN
                      01788                 
                      01789 
                      01790 
00078E                01791 HUBH_EXIT
00078E B163           01792                 BTFSC   CSRBIT,0
000790 EFCE F003      01793                 GOTO    HBHX
000794 CFE7 FFE8      01794                 MOVFF   INDF1,WREG
000798 16EF           01795                 ANDWF   INDF0
00079A 0012           01796                 RETURN
00079C                01797 HBHX
00079C 0EE8           01798                 MOVLW   .232
00079E 654E           01799                 CPFSGT  CURSORX_TEMP,1
0007A0 0012           01800                 RETURN
                      01801                 
                      01802 
0007A2 0EF0           01803                 MOVLW   .240
MPASM  5.51       20191122_RGMODULE_RTCV1.ASM   11-25-2019  10:52:29         PAGE 38


LOC  OBJECT CODE     LINE SOURCE TEXT
  VALUE

0007A4 614E           01804                 CPFSLT  CURSORX_TEMP,1
0007A6 EFE0 F003      01805                 GOTO    HBHX240
                      01806 
0007AA 0E57           01807                 MOVLW   57
0007AC 64E1           01808                 CPFSGT  FSR1L
0007AE 0012           01809                 RETURN
                      01810                 
                      01811 
                      01812                 
0007B0 0E03           01813                 MOVLW   3
0007B2 5EE9           01814                 SUBWF   FSR0L
                      01815 
0007B4 CFE7 FFE8      01816                 MOVFF   INDF1,WREG
0007B8 16EF           01817                 ANDWF   INDF0   
                      01818                         
0007BA 0E03           01819                 MOVLW   3
0007BC 26E9           01820                 ADDWF   FSR0L
Warning[203]: Found opcode in column 1. (RETURN)
0007BE 0012           01821 RETURN
                      01822 
                      01823 
0007C0                01824 HBHX240 
0007C0 0EF8           01825                 MOVLW   .248
0007C2 614E           01826                 CPFSLT  CURSORX_TEMP,1
0007C4 EFEF F003      01827                 GOTO    HBHX248
                      01828         
0007C8 0E56           01829                 MOVLW   56
0007CA 64E1           01830                 CPFSGT  FSR1L
0007CC 0012           01831                 RETURN
                      01832                 
                      01833 
                      01834                 
0007CE 0E02           01835                 MOVLW   2
0007D0 5EE9           01836                 SUBWF   FSR0L
                      01837 
0007D2 CFE7 FFE8      01838                 MOVFF   INDF1,WREG
0007D6 16EF           01839                 ANDWF   INDF0   
                      01840                         
0007D8 0E02           01841                 MOVLW   2
0007DA 26E9           01842                 ADDWF   FSR0L
Warning[203]: Found opcode in column 1. (RETURN)
0007DC 0012           01843 RETURN
                      01844 
0007DE                01845 HBHX248
0007DE 0E55           01846                 MOVLW   55
0007E0 64E1           01847                 CPFSGT  FSR1L
0007E2 0012           01848                 RETURN
                      01849                 
0007E4 0E01           01850                 MOVLW   1
0007E6 5EE9           01851                 SUBWF   FSR0L
                      01852 
0007E8 CFE7 FFE8      01853                 MOVFF   INDF1,WREG
0007EC 16EF           01854                 ANDWF   INDF0   
MPASM  5.51       20191122_RGMODULE_RTCV1.ASM   11-25-2019  10:52:29         PAGE 39


LOC  OBJECT CODE     LINE SOURCE TEXT
  VALUE

                      01855                         
0007EE 0E01           01856                 MOVLW   1
0007F0 26E9           01857                 ADDWF   FSR0L
Warning[203]: Found opcode in column 1. (RETURN)
0007F2 0012           01858 RETURN
                      01859 
                      01860 
                      01861 
                      01862 
                      01863 
                      01864 
0007F4                01865 HUBTESTL
0007F4 AB5D           01866                 BTFSS   HUB,5
0007F6 EF23 F004      01867                 GOTO    HUBL_EXIT
                      01868 
0007FA 0E28           01869                 MOVLW   .40
0007FC 614C           01870                 CPFSLT  CURSORX,1
0007FE EF03 F004      01871                 GOTO    HTL_CXGT40
000802 EF23 F004      01872                 GOTO    HUBL_EXIT
                      01873 
                      01874 
000806                01875 HTL_CXGT40
000806 0E30           01876                 MOVLW   .48
000808 614C           01877                 CPFSLT  CURSORX,1
00080A EF0C F004      01878                 GOTO    HTL_CXGT48
                      01879 
00080E 0E5B           01880                 MOVLW   5B
000810 64E1           01881                 CPFSGT  FSR1L,0
000812 EF23 F004      01882                 GOTO    HUBL_EXIT
000816 0012           01883                 RETURN
                      01884 
                      01885 
000818                01886 HTL_CXGT48
000818 0E37           01887                 MOVLW   .55
00081A 614C           01888                 CPFSLT  CURSORX,1
00081C EF15 F004      01889                 GOTO    HTL_CXGT55
                      01890 
000820 0E5A           01891                 MOVLW   5A
000822 64E1           01892                 CPFSGT  FSR1L,0
000824 EF23 F004      01893                 GOTO    HUBL_EXIT
000828 0012           01894                 RETURN
                      01895 
                      01896 
00082A                01897 HTL_CXGT55
00082A 0E37           01898                 MOVLW   .55
00082C 634C           01899                 CPFSEQ  CURSORX,1
00082E EF1E F004      01900                 GOTO    HTLPX
                      01901 
000832 0E5A           01902                 MOVLW   5A
000834 64E1           01903                 CPFSGT  FSR1L,0
000836 EF23 F004      01904                 GOTO    HUBL_EXIT
00083A 0012           01905                 RETURN
                      01906                 
MPASM  5.51       20191122_RGMODULE_RTCV1.ASM   11-25-2019  10:52:29         PAGE 40


LOC  OBJECT CODE     LINE SOURCE TEXT
  VALUE

                      01907 
00083C                01908 HTLPX
00083C 0E59           01909                 MOVLW   59
00083E 64E1           01910                 CPFSGT  FSR1L,0
000840 EF23 F004      01911                 GOTO    HUBL_EXIT
000844 0012           01912                 RETURN
                      01913                 
                      01914 
                      01915 
000846                01916 HUBL_EXIT
000846 B163           01917                 BTFSC   CSRBIT,0
000848 EF2A F004      01918                 GOTO    HBLX
00084C CFE7 FFE8      01919                 MOVFF   INDF1,WREG
000850 16EF           01920                 ANDWF   INDF0
000852 0012           01921                 RETURN
000854                01922 HBLX
000854 0EE8           01923                 MOVLW   .232
000856 654E           01924                 CPFSGT  CURSORX_TEMP,1
000858 0012           01925                 RETURN
                      01926                 
                      01927 
00085A 0EF0           01928                 MOVLW   .240
00085C 614E           01929                 CPFSLT  CURSORX_TEMP,1
00085E EF3C F004      01930                 GOTO    HBLX240
                      01931 
000862 0E5B           01932                 MOVLW   5B
000864 64E1           01933                 CPFSGT  FSR1L
000866 0012           01934                 RETURN
                      01935                 
                      01936 
                      01937                 
000868 0E03           01938                 MOVLW   3
00086A 5EE9           01939                 SUBWF   FSR0L
                      01940 
00086C CFE7 FFE8      01941                 MOVFF   INDF1,WREG
000870 16EF           01942                 ANDWF   INDF0   
                      01943                         
000872 0E03           01944                 MOVLW   3
000874 26E9           01945                 ADDWF   FSR0L
Warning[203]: Found opcode in column 1. (RETURN)
000876 0012           01946 RETURN
                      01947 
                      01948 
000878                01949 HBLX240 
000878 0EF8           01950                 MOVLW   .248
00087A 614E           01951                 CPFSLT  CURSORX_TEMP,1
00087C EF4B F004      01952                 GOTO    HBLX248
                      01953         
000880 0E5A           01954                 MOVLW   5A
000882 64E1           01955                 CPFSGT  FSR1L
000884 0012           01956                 RETURN
                      01957                 
                      01958 
MPASM  5.51       20191122_RGMODULE_RTCV1.ASM   11-25-2019  10:52:29         PAGE 41


LOC  OBJECT CODE     LINE SOURCE TEXT
  VALUE

                      01959                 
000886 0E02           01960                 MOVLW   2
000888 5EE9           01961                 SUBWF   FSR0L
                      01962 
00088A CFE7 FFE8      01963                 MOVFF   INDF1,WREG
00088E 16EF           01964                 ANDWF   INDF0   
                      01965                         
000890 0E02           01966                 MOVLW   2
000892 26E9           01967                 ADDWF   FSR0L
Warning[203]: Found opcode in column 1. (RETURN)
000894 0012           01968 RETURN
                      01969 
000896                01970 HBLX248
000896 0E59           01971                 MOVLW   59
000898 64E1           01972                 CPFSGT  FSR1L
00089A 0012           01973                 RETURN
                      01974                 
00089C 0E01           01975                 MOVLW   1
00089E 5EE9           01976                 SUBWF   FSR0L
                      01977 
0008A0 CFE7 FFE8      01978                 MOVFF   INDF1,WREG
0008A4 16EF           01979                 ANDWF   INDF0   
                      01980                         
0008A6 0E01           01981                 MOVLW   1
0008A8 26E9           01982                 ADDWF   FSR0L
Warning[203]: Found opcode in column 1. (RETURN)
0008AA 0012           01983 RETURN
                      01984         
                      01985 ;==========================================================     
                      01986 
                      01987 
                      01988 
                      01989 
                      01990 
                      01991 ;==========     CHECK CURSOR X (FOR     SHIFTING DATA) ============
0008AC                01992 CURSORX_TEST            
0008AC 0E08           01993         MOVLW   8
0008AE 614C           01994         CPFSLT  CURSORX,1
0008B0 EF5F F004      01995         GOTO    CXGE8           ;CURSORX>=DEC8
                      01996 
                      01997 ;CURSORX<DEC8
0008B4                01998 CX08
0008B4 C14C F141      01999         MOVFF   CURSORX,LOOP
0008B8 0E00           02000         MOVLW   0
0008BA 6F45           02001         MOVWF   POINTER
Warning[203]: Found opcode in column 1. (RETURN)
0008BC 0012           02002 RETURN
                      02003 
                      02004 
0008BE                02005 CXGE8
0008BE 0E10           02006         MOVLW   .16
0008C0 614C           02007         CPFSLT  CURSORX,1
0008C2 EF6A F004      02008         GOTO    CXGE16          ;CURSORX>=DEC16
MPASM  5.51       20191122_RGMODULE_RTCV1.ASM   11-25-2019  10:52:29         PAGE 42


LOC  OBJECT CODE     LINE SOURCE TEXT
  VALUE

                      02009 ;CURSORX<DEC16
0008C6                02010 CX16
0008C6 C14C F141      02011         MOVFF   CURSORX,LOOP
0008CA 0E08           02012         MOVLW   8
0008CC 5F41           02013         SUBWF   LOOP,1
0008CE 0E01           02014         MOVLW   1
0008D0 6F45           02015         MOVWF   POINTER
Warning[203]: Found opcode in column 1. (RETURN)
0008D2 0012           02016 RETURN
                      02017 
                      02018         
0008D4                02019 CXGE16
0008D4 0E18           02020         MOVLW   .24
0008D6 614C           02021         CPFSLT  CURSORX,1
0008D8 EF75 F004      02022         GOTO    CXGE24          ;CURSORX>=DEC24
                      02023 ;CURSORX<DEC24
0008DC                02024 CX24
0008DC C14C F141      02025         MOVFF   CURSORX,LOOP
0008E0 0E10           02026         MOVLW   .16
0008E2 5F41           02027         SUBWF   LOOP,1
0008E4 0E02           02028         MOVLW   2
0008E6 6F45           02029         MOVWF   POINTER
Warning[203]: Found opcode in column 1. (RETURN)
0008E8 0012           02030 RETURN
                      02031 
                      02032 
0008EA                02033 CXGE24
0008EA 0E20           02034         MOVLW   .32
0008EC 614C           02035         CPFSLT  CURSORX,1
0008EE EF80 F004      02036         GOTO    CXGE32          ;CURSORX>=DEC32
                      02037 ;CURSORX<DEC32
0008F2                02038 CX32
0008F2 C14C F141      02039         MOVFF   CURSORX,LOOP
0008F6 0E18           02040         MOVLW   .24
0008F8 5F41           02041         SUBWF   LOOP,1
0008FA 0E03           02042         MOVLW   3
0008FC 6F45           02043         MOVWF   POINTER
Warning[203]: Found opcode in column 1. (RETURN)
0008FE 0012           02044 RETURN
                      02045 
000900                02046 CXGE32
000900 0E28           02047         MOVLW   .40
000902 614C           02048         CPFSLT  CURSORX,1
000904 EF8B F004      02049         GOTO    CXGE40          ;CURSORX>=DEC40
                      02050 ;CURSORX<DEC40
000908                02051 CX40
000908 C14C F141      02052         MOVFF   CURSORX,LOOP
00090C 0E20           02053         MOVLW   .32
00090E 5F41           02054         SUBWF   LOOP,1
000910 0E04           02055         MOVLW   4
000912 6F45           02056         MOVWF   POINTER
Warning[203]: Found opcode in column 1. (RETURN)
000914 0012           02057 RETURN
MPASM  5.51       20191122_RGMODULE_RTCV1.ASM   11-25-2019  10:52:29         PAGE 43


LOC  OBJECT CODE     LINE SOURCE TEXT
  VALUE

                      02058 
                      02059 
000916                02060 CXGE40
000916 0E30           02061         MOVLW   .48
000918 614C           02062         CPFSLT  CURSORX,1
00091A EF96 F004      02063         GOTO    CXGE48          ;CURSORX>=DEC48
                      02064 ;CURSORX<DEC48
00091E                02065 CX48
00091E C14C F141      02066         MOVFF   CURSORX,LOOP
000922 0E28           02067         MOVLW   .40
000924 5F41           02068         SUBWF   LOOP,1
000926 0E05           02069         MOVLW   5
000928 6F45           02070         MOVWF   POINTER
Warning[203]: Found opcode in column 1. (RETURN)
00092A 0012           02071 RETURN
                      02072 
                      02073 
                      02074 
00092C                02075 CXGE48
00092C 0E38           02076         MOVLW   .56
00092E 614C           02077         CPFSLT  CURSORX,1
000930 EFA1 F004      02078         GOTO    CXGE56          ;CURSORX>=DEC56
                      02079 ;CURSORX<DEC56
000934                02080 CX56
000934 C14C F141      02081         MOVFF   CURSORX,LOOP
000938 0E30           02082         MOVLW   .48
00093A 5F41           02083         SUBWF   LOOP,1
00093C 0E06           02084         MOVLW   6
00093E 6F45           02085         MOVWF   POINTER
Warning[203]: Found opcode in column 1. (RETURN)
000940 0012           02086 RETURN
                      02087 
                      02088 
000942                02089 CXGE56
000942 0E40           02090         MOVLW   .64
000944 614C           02091         CPFSLT  CURSORX,1
000946 0012           02092         RETURN          ;CURSORX>=DEC64
                      02093 ;CURSORX<DEC64
000948                02094 CX64
000948 C14C F141      02095         MOVFF   CURSORX,LOOP
00094C 0E38           02096         MOVLW   .56
00094E 5F41           02097         SUBWF   LOOP,1
000950 0E07           02098         MOVLW   7
000952 6F45           02099         MOVWF   POINTER
Warning[203]: Found opcode in column 1. (RETURN)
000954 0012           02100 RETURN
                      02101 
                      02102 
Warning[203]: Found opcode in column 1. (RETURN)
000956 0012           02103 RETURN
                      02104 ;============================================================== 
                      02105 
Warning[205]: Found directive in column 1. (ORG)
MPASM  5.51       20191122_RGMODULE_RTCV1.ASM   11-25-2019  10:52:29         PAGE 44


LOC  OBJECT CODE     LINE SOURCE TEXT
  VALUE

000C00                02106 ORG     0X0C00
000C00                02107 FONT02H
                      02108 
000C00 0E00           02109         MOVLW   0
000C02 6EFB           02110         MOVWF   PCLATU,0
000C04 0E0C           02111         MOVLW   0X0C
000C06 6EFA           02112         MOVWF   PCLATH,0
                      02113 
                      02114 
000C08 0E2B           02115         MOVLW   2B
000C0A 6148           02116         CPFSLT  NUMBER,1
000C0C EF00 F007      02117         GOTO    FONT02H_LOWERCASE
                      02118 
                      02119 
000C10 C148 FFE8      02120         MOVFF   NUMBER,WREG
                      02121 
                      02122 
                      02123 
000C14 90D8           02124         BCF             STATUS,C
000C16 34E8           02125         RLCF    WREG,0
000C18 90D8           02126         BCF             STATUS,C
000C1A 34E8           02127         RLCF    WREG,0
                      02128 
000C1C 26F9           02129         ADDWF   PCL,1,0
                      02130 
                      02131         
000C1E EF00 F008      02132         GOTO    FONT02H_CAP_A           ;00
                      02133         
000C22 EF00 F009      02134         GOTO    FONT02H_CAP_B           ;01
                      02135 
000C26 EF00 F00A      02136         GOTO    FONT02H_CAP_C           ;02
                      02137 
000C2A EF00 F00B      02138         GOTO    FONT02H_CAP_D           ;03
                      02139 
000C2E EF00 F00C      02140         GOTO    FONT02H_CAP_E           ;04
                      02141 
000C32 EF00 F00D      02142         GOTO    FONT02H_CAP_F           ;05
                      02143 
000C36 EF00 F00E      02144         GOTO    FONT02H_CAP_G           ;06     
                      02145         
000C3A EF00 F00F      02146         GOTO    FONT02H_CAP_H           ;07
                      02147 
000C3E EF00 F010      02148         GOTO    FONT02H_CAP_I           ;08
                      02149         
000C42 EF00 F011      02150         GOTO    FONT02H_CAP_J           ;09
                      02151 
000C46 EF00 F012      02152         GOTO    FONT02H_CAP_K           ;0A
                      02153 
000C4A EF00 F013      02154         GOTO    FONT02H_CAP_L           ;0B
                      02155 
000C4E EF00 F014      02156         GOTO    FONT02H_CAP_M           ;0C
                      02157         
000C52 EF00 F015      02158         GOTO    FONT02H_CAP_N           ;0D
MPASM  5.51       20191122_RGMODULE_RTCV1.ASM   11-25-2019  10:52:29         PAGE 45


LOC  OBJECT CODE     LINE SOURCE TEXT
  VALUE

                      02159         
000C56 EF00 F016      02160         GOTO    FONT02H_CAP_O           ;0E
                      02161 
000C5A EF00 F017      02162         GOTO    FONT02H_CAP_P           ;0F
                      02163 
000C5E EF00 F018      02164         GOTO    FONT02H_CAP_Q           ;10
                      02165 
000C62 EF00 F019      02166         GOTO    FONT02H_CAP_R           ;11
                      02167 
000C66 EF00 F01A      02168         GOTO    FONT02H_CAP_S           ;12
                      02169 
000C6A EF00 F01B      02170         GOTO    FONT02H_CAP_T           ;13
                      02171 
000C6E EF00 F01C      02172         GOTO    FONT02H_CAP_U           ;14
                      02173 
000C72 EF00 F01D      02174         GOTO    FONT02H_CAP_V           ;15
                      02175 
000C76 EF00 F01E      02176         GOTO    FONT02H_CAP_W           ;16
                      02177 
000C7A EF00 F01F      02178         GOTO    FONT02H_CAP_X           ;17
                      02179 
000C7E EF00 F020      02180         GOTO    FONT02H_CAP_Y           ;18
                      02181 
000C82 EF00 F021      02182         GOTO    FONT02H_CAP_Z           ;19
                      02183 
000C86 EF00 F022      02184         GOTO    FONT02H_CAP_ZERO        ;1A
                      02185 
000C8A EF00 F023      02186         GOTO    FONT02H_CAP_ONE         ;1B
                      02187 
000C8E EF00 F024      02188         GOTO    FONT02H_CAP_TWO         ;1C
                      02189 
000C92 EF00 F025      02190         GOTO    FONT02H_CAP_THREE       ;1D
                      02191 
000C96 EF00 F026      02192         GOTO    FONT02H_CAP_FOUR        ;1E
                      02193 
000C9A EF00 F027      02194         GOTO    FONT02H_CAP_FIVE        ;1F
                      02195 
000C9E EF00 F028      02196         GOTO    FONT02H_CAP_SIX         ;20
                      02197 
000CA2 EF00 F029      02198         GOTO    FONT02H_CAP_SEVEN       ;21
                      02199 
000CA6 EF00 F02A      02200         GOTO    FONT02H_CAP_EIGHT       ;22
                      02201 
000CAA EF00 F02B      02202         GOTO    FONT02H_CAP_NINE        ;23
                      02203         
000CAE EF00 F02C      02204         GOTO    FONT02H_CAP_ENYE        ;24
                      02205 
000CB2 EF00 F02D      02206         GOTO    FONT02H_CAP_DASH        ;25
                      02207 
000CB6 EF39 F02E      02208         GOTO    FONT02H_LOW_COLON       ;26
                      02209 
000CBA EF00 F02F      02210         GOTO    FONT02H_CAP_SEMICOLON   ;27
                      02211 
MPASM  5.51       20191122_RGMODULE_RTCV1.ASM   11-25-2019  10:52:29         PAGE 46


LOC  OBJECT CODE     LINE SOURCE TEXT
  VALUE

000CBE EF00 F030      02212         GOTO    FONT02H_CAP_COMMA       ;28
                      02213 
000CC2 EF00 F031      02214         GOTO    FONT02H_CAP_DOT         ;29
                      02215 
000CC6 EF00 F032      02216         GOTO    FONT02H_CAP_SPACE       ;2A
                      02217 
                      02218 
000CCA 0012           02219         RETURN                                          ;2B
000CCC 0000           02220         NOP
000CCE 0012           02221         RETURN                                          ;2C
000CD0 0000           02222         NOP
000CD2 0012           02223         RETURN                                          ;2D
000CD4 0000           02224         NOP
000CD6 0012           02225         RETURN                                          ;2E
000CD8 0000           02226         NOP
000CDA 0012           02227         RETURN                                          ;2F
000CDC 0000           02228         NOP
000CDE EF39 F008      02229         GOTO    FONT02H_LOW_A           ;30
                      02230 
                      02231 
                      02232 
                      02233 
Warning[205]: Found directive in column 1. (ORG)
000D00                02234 ORG     0X0D00
000D00                02235 FONT02L
                      02236 
000D00 0E00           02237         MOVLW   0
000D02 6EFB           02238         MOVWF   PCLATU,0
000D04 0E0D           02239         MOVLW   0X0D
000D06 6EFA           02240         MOVWF   PCLATH,0
                      02241 
                      02242 
000D08 0E2B           02243         MOVLW   2B
000D0A 6148           02244         CPFSLT  NUMBER,1
000D0C EF80 F007      02245         GOTO    FONT02L_LOWERCASE
                      02246 
                      02247 
000D10 C148 FFE8      02248         MOVFF   NUMBER,WREG
                      02249 
                      02250 
000D14 90D8           02251         BCF             STATUS,C
000D16 34E8           02252         RLCF    WREG,0
000D18 90D8           02253         BCF             STATUS,C
000D1A 34E8           02254         RLCF    WREG,0
                      02255 
                      02256 
                      02257 
000D1C 26F9           02258         ADDWF   PCL,1,0
                      02259 
                      02260 
                      02261         
000D1E EF80 F008      02262         GOTO    FONT02L_CAP_A
                      02263         
MPASM  5.51       20191122_RGMODULE_RTCV1.ASM   11-25-2019  10:52:29         PAGE 47


LOC  OBJECT CODE     LINE SOURCE TEXT
  VALUE

000D22 EF80 F009      02264         GOTO    FONT02L_CAP_B
                      02265 
000D26 EF80 F00A      02266         GOTO    FONT02L_CAP_C
                      02267 
000D2A EF80 F00B      02268         GOTO    FONT02L_CAP_D
                      02269 
000D2E EF80 F00C      02270         GOTO    FONT02L_CAP_E
                      02271 
000D32 EF80 F00D      02272         GOTO    FONT02L_CAP_F
                      02273 
000D36 EF80 F00E      02274         GOTO    FONT02L_CAP_G
                      02275 
000D3A EF80 F00F      02276         GOTO    FONT02L_CAP_H
                      02277 
000D3E EF80 F010      02278         GOTO    FONT02L_CAP_I
                      02279 
000D42 EF80 F011      02280         GOTO    FONT02L_CAP_J
                      02281         
000D46 EF80 F012      02282         GOTO    FONT02L_CAP_K
                      02283 
000D4A EF80 F013      02284         GOTO    FONT02L_CAP_L
                      02285         
000D4E EF80 F014      02286         GOTO    FONT02L_CAP_M
                      02287         
000D52 EF80 F015      02288         GOTO    FONT02L_CAP_N
                      02289 
000D56 EF80 F016      02290         GOTO    FONT02L_CAP_O
                      02291 
000D5A EF80 F017      02292         GOTO    FONT02L_CAP_P
                      02293         
000D5E EF80 F018      02294         GOTO    FONT02L_CAP_Q
                      02295 
000D62 EF80 F019      02296         GOTO    FONT02L_CAP_R
                      02297 
000D66 EFB9 F01A      02298         GOTO    FONT02L_CAP_S
                      02299         
000D6A EF80 F01B      02300         GOTO    FONT02L_CAP_T
                      02301 
000D6E EF80 F01C      02302         GOTO    FONT02L_CAP_U
                      02303 
000D72 EF80 F01D      02304         GOTO    FONT02L_CAP_V
                      02305 
000D76 EF80 F01E      02306         GOTO    FONT02L_CAP_W
                      02307 
000D7A EF80 F01F      02308         GOTO    FONT02L_CAP_X
                      02309 
000D7E EF80 F020      02310         GOTO    FONT02L_CAP_Y
                      02311 
000D82 EF80 F021      02312         GOTO    FONT02L_CAP_Z
                      02313 
000D86 EF80 F022      02314         GOTO    FONT02L_CAP_ZERO
                      02315 
000D8A EF80 F023      02316         GOTO    FONT02L_CAP_ONE
MPASM  5.51       20191122_RGMODULE_RTCV1.ASM   11-25-2019  10:52:29         PAGE 48


LOC  OBJECT CODE     LINE SOURCE TEXT
  VALUE

                      02317         
000D8E EF80 F024      02318         GOTO    FONT02L_CAP_TWO
                      02319 
000D92 EF80 F025      02320         GOTO    FONT02L_CAP_THREE
                      02321 
000D96 EF80 F026      02322         GOTO    FONT02L_CAP_FOUR
                      02323 
000D9A EF80 F027      02324         GOTO    FONT02L_CAP_FIVE
                      02325 
000D9E EF80 F028      02326         GOTO    FONT02L_CAP_SIX
                      02327 
000DA2 EF80 F029      02328         GOTO    FONT02L_CAP_SEVEN
                      02329 
000DA6 EF80 F02A      02330         GOTO    FONT02L_CAP_EIGHT
                      02331 
000DAA EF80 F02B      02332         GOTO    FONT02L_CAP_NINE
                      02333         
000DAE EF80 F02C      02334         GOTO    FONT02L_CAP_ENYE
                      02335 
000DB2 EF80 F02D      02336         GOTO    FONT02L_CAP_DASH
                      02337 
000DB6 EFB9 F02E      02338         GOTO    FONT02L_LOW_COLON
                      02339 
000DBA EF80 F02F      02340         GOTO    FONT02L_CAP_SEMICOLON
                      02341 
000DBE EF80 F030      02342         GOTO    FONT02L_CAP_COMMA
                      02343 
000DC2 EF80 F031      02344         GOTO    FONT02L_CAP_DOT
                      02345 
000DC6 EF80 F032      02346         GOTO    FONT02L_CAP_SPACE
                      02347 
                      02348 
000DCA 0012           02349         RETURN
000DCC 0000           02350         NOP
000DCE 0012           02351         RETURN
000DD0 0000           02352         NOP
000DD2 0012           02353         RETURN
000DD4 0000           02354         NOP
000DD6 0012           02355         RETURN
000DD8 0000           02356         NOP
000DDA 0012           02357         RETURN
000DDC EFB9 F008      02358         GOTO    FONT02L_LOW_A
                      02359 
                      02360 
                      02361 
                      02362 
Warning[205]: Found directive in column 1. (ORG)
000E00                02363 ORG     0X0E00
000E00                02364 FONT02H_LOWERCASE
                      02365 
000E00 0E00           02366         MOVLW   0
000E02 6EFB           02367         MOVWF   PCLATU,0
000E04 0E0E           02368         MOVLW   0X0E
MPASM  5.51       20191122_RGMODULE_RTCV1.ASM   11-25-2019  10:52:29         PAGE 49


LOC  OBJECT CODE     LINE SOURCE TEXT
  VALUE

000E06 6EFA           02369         MOVWF   PCLATH,0
                      02370 
                      02371 
000E08 0E5F           02372         MOVLW   5F
000E0A 6148           02373         CPFSLT  NUMBER,1
000E0C EF00 F032      02374         GOTO    FONT02H_CAP_SPACE
                      02375 
                      02376 
000E10 C148 FFE8      02377         MOVFF   NUMBER,WREG
                      02378 
                      02379 
000E14 ACE8           02380         BTFSS   WREG,6
000E16 EF12 F007      02381         GOTO    FONT02H_ISL4
                      02382         
000E1A A8E8           02383         BTFSS   WREG,4
000E1C EF16 F007      02384         GOTO    FONT02H_NUMH_IS4
000E20 EF1A F007      02385         GOTO    FONT02H_NUMH_IS5
                      02386 
                      02387 
000E24                02388 FONT02H_ISL4
000E24 98E8           02389         BCF             WREG,4
000E26 9AE8           02390         BCF             WREG,5
000E28 EF1D F007      02391         GOTO    FONT02H_LOWERCASE0      
                      02392 
000E2C                02393 FONT02H_NUMH_IS4
000E2C 9CE8           02394         BCF             WREG,6
000E2E 88E8           02395         BSF             WREG,4
000E30 EF1D F007      02396         GOTO    FONT02H_LOWERCASE0
                      02397 
000E34                02398 FONT02H_NUMH_IS5
000E34 98E8           02399         BCF             WREG,4
000E36 9CE8           02400         BCF             WREG,6
000E38 8AE8           02401         BSF             WREG,5
                      02402 
000E3A                02403 FONT02H_LOWERCASE0
                      02404 
000E3A 90D8           02405         BCF             STATUS,C
000E3C 34E8           02406         RLCF    WREG,0
000E3E 90D8           02407         BCF             STATUS,C
000E40 34E8           02408         RLCF    WREG,0
                      02409 
000E42 26F9           02410         ADDWF   PCL,1,0
                      02411 
                      02412         
000E44 EF39 F008      02413         GOTO    FONT02H_LOW_A           ;30
                      02414         
000E48 EF39 F009      02415         GOTO    FONT02H_LOW_B           ;31
                      02416 
000E4C EF39 F00A      02417         GOTO    FONT02H_LOW_C           ;32
                      02418 
000E50 EF39 F00B      02419         GOTO    FONT02H_LOW_D           ;33
                      02420 
000E54 EF39 F00C      02421         GOTO    FONT02H_LOW_E           ;34
MPASM  5.51       20191122_RGMODULE_RTCV1.ASM   11-25-2019  10:52:29         PAGE 50


LOC  OBJECT CODE     LINE SOURCE TEXT
  VALUE

                      02422 
000E58 EF39 F00D      02423         GOTO    FONT02H_LOW_F           ;35
                      02424 
000E5C EF39 F00E      02425         GOTO    FONT02H_LOW_G           ;36
                      02426 
000E60 EF39 F00F      02427         GOTO    FONT02H_LOW_H           ;37
                      02428 
000E64 EF39 F010      02429         GOTO    FONT02H_LOW_I           ;38
                      02430 
000E68 EF39 F011      02431         GOTO    FONT02H_LOW_J           ;39
                      02432 
000E6C EF39 F012      02433         GOTO    FONT02H_LOW_K           ;3A
                      02434 
000E70 EF39 F013      02435         GOTO    FONT02H_LOW_L           ;3B
                      02436 
000E74 EF39 F014      02437         GOTO    FONT02H_LOW_M           ;3C
                      02438 
000E78 EF39 F015      02439         GOTO    FONT02H_LOW_N           ;3D
                      02440 
000E7C EF39 F016      02441         GOTO    FONT02H_LOW_O           ;3E
                      02442 
000E80 EF39 F017      02443         GOTO    FONT02H_LOW_P           ;3F
                      02444 
000E84 EF39 F018      02445         GOTO    FONT02H_LOW_Q           ;40
                      02446 
000E88 EF39 F019      02447         GOTO    FONT02H_LOW_R           ;41
                      02448 
000E8C EF39 F01A      02449         GOTO    FONT02H_LOW_S           ;42
                      02450 
000E90 EF39 F01B      02451         GOTO    FONT02H_LOW_T           ;43
                      02452 
000E94 EF39 F01C      02453         GOTO    FONT02H_LOW_U           ;44
                      02454 
000E98 EF39 F01D      02455         GOTO    FONT02H_LOW_V           ;45
                      02456 
000E9C EF39 F01E      02457         GOTO    FONT02H_LOW_W           ;46
                      02458 
000EA0 EF3C F01F      02459         GOTO    FONT02H_LOW_X           ;47
                      02460 
000EA4 EF3C F020      02461         GOTO    FONT02H_LOW_Y           ;48
                      02462 
000EA8 EF39 F021      02463         GOTO    FONT02H_LOW_Z           ;49
                      02464 
000EAC EF80 F022      02465         GOTO    FONT02L_CAP_ZERO        ;4A
                      02466 
000EB0 EF80 F023      02467         GOTO    FONT02L_CAP_ONE         ;4B
                      02468 
000EB4 EF00 F024      02469         GOTO    FONT02H_CAP_TWO         ;4C
                      02470 
000EB8 EF00 F025      02471         GOTO    FONT02H_CAP_THREE       ;4D
                      02472 
000EBC EF00 F026      02473         GOTO    FONT02H_CAP_FOUR        ;4E
                      02474 
MPASM  5.51       20191122_RGMODULE_RTCV1.ASM   11-25-2019  10:52:29         PAGE 51


LOC  OBJECT CODE     LINE SOURCE TEXT
  VALUE

000EC0 EF00 F027      02475         GOTO    FONT02H_CAP_FIVE        ;4F
                      02476 
000EC4 EF00 F028      02477         GOTO    FONT02H_CAP_SIX         ;50
                      02478 
000EC8 EF00 F029      02479         GOTO    FONT02H_CAP_SEVEN       ;51
                      02480 
000ECC EF00 F02A      02481         GOTO    FONT02H_CAP_EIGHT       ;52
                      02482 
000ED0 EF00 F02B      02483         GOTO    FONT02H_CAP_NINE        ;53
                      02484 
000ED4 EF39 F02C      02485         GOTO    FONT02H_LOW_ENYE        ;54
                      02486 
000ED8 EF39 F02D      02487         GOTO    FONT02H_LOW_DASH        ;55
                      02488 
000EDC EFB9 F02E      02489         GOTO    FONT02L_LOW_COLON       ;56
                      02490 
000EE0 EF39 F02F      02491         GOTO    FONT02H_LOW_SEMICOLON   ;57
                      02492         
000EE4 EF39 F030      02493         GOTO    FONT02H_LOW_COMMA       ;58
                      02494 
000EE8 EF39 F031      02495         GOTO    FONT02H_LOW_DOT         ;59
                      02496 
000EEC EF00 F032      02497         GOTO    FONT02H_CAP_SPACE       ;5A
                      02498 
                      02499 
Warning[203]: Found opcode in column 1. (RETURN)
000EF0 0012           02500 RETURN
                      02501 
                      02502 
                      02503 
                      02504 
                      02505 
Warning[205]: Found directive in column 1. (ORG)
000F00                02506 ORG     0X0F00
000F00                02507 FONT02L_LOWERCASE
                      02508 
000F00 0E00           02509         MOVLW   0
000F02 6EFB           02510         MOVWF   PCLATU,0
000F04 0E0F           02511         MOVLW   0X0F
000F06 6EFA           02512         MOVWF   PCLATH,0
                      02513 
                      02514 
000F08 0E5F           02515         MOVLW   5F
000F0A 6148           02516         CPFSLT  NUMBER,1
000F0C EF00 F032      02517         GOTO    FONT02H_CAP_SPACE
                      02518 
                      02519 
000F10 C148 FFE8      02520         MOVFF   NUMBER,WREG
                      02521 
000F14 ACE8           02522         BTFSS   WREG,6
000F16 EF92 F007      02523         GOTO    FONT02L_ISL4
                      02524         
000F1A A8E8           02525         BTFSS   WREG,4
MPASM  5.51       20191122_RGMODULE_RTCV1.ASM   11-25-2019  10:52:29         PAGE 52


LOC  OBJECT CODE     LINE SOURCE TEXT
  VALUE

000F1C EF96 F007      02526         GOTO    FONT02L_NUMH_IS4
000F20 EF9A F007      02527         GOTO    FONT02L_NUMH_IS5
                      02528 
                      02529 
000F24                02530 FONT02L_ISL4
000F24 98E8           02531         BCF             WREG,4
000F26 9AE8           02532         BCF             WREG,5
000F28 EF9D F007      02533         GOTO    FONT02L_LOWERCASE0      
                      02534 
000F2C                02535 FONT02L_NUMH_IS4
000F2C 9CE8           02536         BCF             WREG,6
000F2E 88E8           02537         BSF             WREG,4
000F30 EF9D F007      02538         GOTO    FONT02L_LOWERCASE0
                      02539 
000F34                02540 FONT02L_NUMH_IS5
000F34 98E8           02541         BCF             WREG,4
000F36 9CE8           02542         BCF             WREG,6
000F38 8AE8           02543         BSF             WREG,5
                      02544 
                      02545 
000F3A                02546 FONT02L_LOWERCASE0
                      02547 
000F3A 90D8           02548         BCF             STATUS,C
000F3C 34E8           02549         RLCF    WREG,0
000F3E 90D8           02550         BCF             STATUS,C
000F40 34E8           02551         RLCF    WREG,0
                      02552 
                      02553 
                      02554 
000F42 26F9           02555         ADDWF   PCL,1,0
                      02556 
                      02557 
                      02558         
000F44 EFB9 F008      02559         GOTO    FONT02L_LOW_A
                      02560         
000F48 EFB9 F009      02561         GOTO    FONT02L_LOW_B
                      02562 
000F4C EFB9 F00A      02563         GOTO    FONT02L_LOW_C
                      02564 
000F50 EFB9 F00B      02565         GOTO    FONT02L_LOW_D
                      02566 
000F54 EFB9 F00C      02567         GOTO    FONT02L_LOW_E
                      02568 
000F58 EFB9 F00D      02569         GOTO    FONT02L_LOW_F
                      02570 
000F5C EFB9 F00E      02571         GOTO    FONT02L_LOW_G
                      02572 
000F60 EFB9 F00F      02573         GOTO    FONT02L_LOW_H
                      02574 
000F64 EFB9 F010      02575         GOTO    FONT02L_LOW_I
                      02576 
000F68 EFB9 F011      02577         GOTO    FONT02L_LOW_J
                      02578 
MPASM  5.51       20191122_RGMODULE_RTCV1.ASM   11-25-2019  10:52:29         PAGE 53


LOC  OBJECT CODE     LINE SOURCE TEXT
  VALUE

000F6C EFB9 F012      02579         GOTO    FONT02L_LOW_K
                      02580 
000F70 EFB9 F013      02581         GOTO    FONT02L_LOW_L
                      02582 
000F74 EFB9 F014      02583         GOTO    FONT02L_LOW_M
                      02584 
000F78 EFB9 F015      02585         GOTO    FONT02L_LOW_N
                      02586 
000F7C EFB9 F016      02587         GOTO    FONT02L_LOW_O
                      02588 
000F80 EFB9 F017      02589         GOTO    FONT02L_LOW_P
                      02590 
000F84 EFB9 F018      02591         GOTO    FONT02L_LOW_Q
                      02592 
000F88 EFB9 F019      02593         GOTO    FONT02L_LOW_R
                      02594 
000F8C EF80 F01A      02595         GOTO    FONT02L_LOW_S
                      02596 
000F90 EFB9 F01B      02597         GOTO    FONT02L_LOW_T
                      02598 
000F94 EFB9 F01C      02599         GOTO    FONT02L_LOW_U
                      02600 
000F98 EFB9 F01D      02601         GOTO    FONT02L_LOW_V
                      02602 
000F9C EFB9 F01E      02603         GOTO    FONT02L_LOW_W
                      02604 
000FA0 EFB9 F01F      02605         GOTO    FONT02L_LOW_X
                      02606 
000FA4 EFB9 F020      02607         GOTO    FONT02L_LOW_Y
                      02608 
000FA8 EFB9 F021      02609         GOTO    FONT02L_LOW_Z
                      02610 
000FAC EF00 F022      02611         GOTO    FONT02H_CAP_ZERO        ;4A
                      02612 
000FB0 EF00 F023      02613         GOTO    FONT02H_CAP_ONE         ;4B
                      02614 
000FB4 EF80 F024      02615         GOTO    FONT02L_CAP_TWO         ;4C
                      02616 
000FB8 EF80 F025      02617         GOTO    FONT02L_CAP_THREE       ;4D
                      02618 
000FBC EF80 F026      02619         GOTO    FONT02L_CAP_FOUR        ;4E
                      02620 
000FC0 EF80 F027      02621         GOTO    FONT02L_CAP_FIVE        ;4F
                      02622 
000FC4 EF80 F028      02623         GOTO    FONT02L_CAP_SIX         ;50
                      02624 
000FC8 EF80 F029      02625         GOTO    FONT02L_CAP_SEVEN       ;51
                      02626 
000FCC EF80 F02A      02627         GOTO    FONT02L_CAP_EIGHT       ;52
                      02628 
000FD0 EF80 F02B      02629         GOTO    FONT02L_CAP_NINE        ;53
                      02630 
000FD4 EFB9 F02C      02631         GOTO    FONT02L_LOW_ENYE        ;54
MPASM  5.51       20191122_RGMODULE_RTCV1.ASM   11-25-2019  10:52:29         PAGE 54


LOC  OBJECT CODE     LINE SOURCE TEXT
  VALUE

                      02632 
000FD8 EFB9 F02D      02633         GOTO    FONT02L_LOW_DASH        ;55
                      02634 
000FDC EF39 F02E      02635         GOTO    FONT02H_LOW_COLON       ;56
                      02636 
000FE0 EFB9 F02F      02637         GOTO    FONT02L_LOW_SEMICOLON   ;57
                      02638 
000FE4 EFB9 F030      02639         GOTO    FONT02L_LOW_COMMA       ;58
                      02640 
000FE8 EFB9 F031      02641         GOTO    FONT02L_LOW_DOT         ;59
                      02642 
000FEC EF80 F032      02643         GOTO    FONT02L_CAP_SPACE       ;5A
                      02644 
                      02645 
Warning[203]: Found opcode in column 1. (RETURN)
000FF0 0012           02646 RETURN
                      02647 
                      02648 
                      02649 
                      02650 
                      02651 
                      02652 
                      02653 
                      02654 
                      02655 
                      02656 
                      02657 ;=========================      CHARACTERS VISUAL MEMORY ================
Warning[205]: Found directive in column 1. (ORG)
001000                02658 ORG 0X1000
001000                02659 FONT02H_CAP_A
                      02660 
001000 0E00           02661         MOVLW   0
001002 6EFB           02662         MOVWF   PCLATU,0
001004 0E10           02663         MOVLW   10
001006 6EFA           02664         MOVWF   PCLATH,0
                      02665 
                      02666 
                      02667 
001008 C146 FFE8      02668                         MOVFF   BTCOUNT,WREG
00100C 90D8           02669                         BCF             STATUS,C
00100E 36E8           02670                         RLCF    WREG
                      02671 
                      02672                 
001010 26F9           02673                         ADDWF   PCL,1,0
001012 0CFF 0CFF 0CFF 02674                         DT      B'11111111',B'11111111',B'11111111'     ;BTC=00
001018 0CFF 0C8F 0CFF 02675                         DT      B'11111111',B'10001111',B'11111111'     ;BTC=01
00101E 0CFF 0C07 0CFF 02676                         DT      B'11111111',B'00000111',B'11111111'     ;BTC=02
001024 0CFE 0C03 0CFF 02677                         DT      B'11111110',B'00000011',B'11111111'     ;BTC=03
00102A 0CFC 0C01 0CFF 02678                         DT      B'11111100',B'00000001',B'11111111'     ;BTC=04
001030 0CF8 0C20 0CFF 02679                         DT      B'11111000',B'00100000',B'11111111'     ;BTC=05
001036 0CF0 0C70 0C7F 02680                         DT      B'11110000',B'01110000',B'01111111'     ;BTC=06
00103C 0CE0 0CF8 0C3F 02681                         DT      B'11100000',B'11111000',B'00111111'     ;BTC=07
001042 0CC1 0CFC 0C1F 02682                         DT      B'11000001',B'11111100',B'00011111'     ;BTC=08
MPASM  5.51       20191122_RGMODULE_RTCV1.ASM   11-25-2019  10:52:29         PAGE 55


LOC  OBJECT CODE     LINE SOURCE TEXT
  VALUE

001048 0C83 0CFE 0C0F 02683                         DT      B'10000011',B'11111110',B'00001111'     ;BTC=09
00104E 0C87 0CFF 0C0F 02684                         DT      B'10000111',B'11111111',B'00001111'     ;BTC=0A
001054 0C87 0CFF 0C0F 02685                         DT      B'10000111',B'11111111',B'00001111'     ;BTC=0B
00105A 0C87 0CFF 0C0F 02686                         DT      B'10000111',B'11111111',B'00001111'     ;BTC=0C
001060 0C87 0CFF 0C0F 02687                         DT      B'10000111',B'11111111',B'00001111'     ;BTC=0D
001066 0C87 0CFF 0C0F 02688                         DT      B'10000111',B'11111111',B'00001111'     ;BTC=0E
00106C 0C87 0CFF 0C0F 02689                         DT      B'10000111',B'11111111',B'00001111'     ;BTC=0F
                      02690 
001072                02691 FONT02H_LOW_A
                      02692 
001072 0E00           02693         MOVLW   0
001074 6EFB           02694         MOVWF   PCLATU,0
001076 0E10           02695         MOVLW   10
001078 6EFA           02696         MOVWF   PCLATH,0
                      02697 
                      02698 
                      02699 
00107A C146 FFE8      02700                         MOVFF   BTCOUNT,WREG
00107E 90D8           02701                         BCF             STATUS,C
001080 36E8           02702                         RLCF    WREG
                      02703 
                      02704                 
001082 26F9           02705                         ADDWF   PCL,1,0
001084 0CFF 0CFF 0CFF 02706                         DT      B'11111111',B'11111111',B'11111111'     ;BTC=00
00108A 0CFF 0CFF 0CFF 02707                         DT      B'11111111',B'11111111',B'11111111'     ;BTC=01
001090 0CFF 0CFF 0CFF 02708                         DT      B'11111111',B'11111111',B'11111111'     ;BTC=02
001096 0CFF 0CFF 0CFF 02709                         DT      B'11111111',B'11111111',B'11111111'     ;BTC=03
00109C 0CFF 0CFF 0CFF 02710                         DT      B'11111111',B'11111111',B'11111111'     ;BTC=04
0010A2 0CFF 0CFF 0CFF 02711                         DT      B'11111111',B'11111111',B'11111111'     ;BTC=05
0010A8 0CFF 0CFF 0CFF 02712                         DT      B'11111111',B'11111111',B'11111111'     ;BTC=06
0010AE 0CFF 0CFF 0CFF 02713                         DT      B'11111111',B'11111111',B'11111111'     ;BTC=07
0010B4 0CFF 0CFF 0CFF 02714                         DT      B'11111111',B'11111111',B'11111111'     ;BTC=08
0010BA 0CFF 0CFF 0CFF 02715                         DT      B'11111111',B'11111111',B'11111111'     ;BTC=09
0010C0 0CFF 0CFF 0CFF 02716                         DT      B'11111111',B'11111111',B'11111111'     ;BTC=0A
0010C6 0CFF 0CFF 0CFF 02717                         DT      B'11111111',B'11111111',B'11111111'     ;BTC=0B
0010CC 0CFF 0CFF 0CFF 02718                         DT      B'11111111',B'11111111',B'11111111'     ;BTC=0C
0010D2 0CFF 0CFF 0CFF 02719                         DT      B'11111111',B'11111111',B'11111111'     ;BTC=0D
0010D8 0CC0 0C01 0CFF 02720                         DT      B'11000000',B'00000001',B'11111111'     ;BTC=0E
0010DE 0CC0 0C00 0CFF 02721                         DT      B'11000000',B'00000000',B'11111111'     ;BTC=0F
                      02722 
Warning[205]: Found directive in column 1. (ORG)
001100                02723 ORG 0X1100
001100                02724 FONT02L_CAP_A
                      02725 
001100 0E00           02726         MOVLW   0
001102 6EFB           02727         MOVWF   PCLATU,0
001104 0E11           02728         MOVLW   11
001106 6EFA           02729         MOVWF   PCLATH,0
                      02730 
                      02731 
                      02732 
001108 C146 FFE8      02733                         MOVFF   BTCOUNT,WREG
00110C 90D8           02734                         BCF             STATUS,C
MPASM  5.51       20191122_RGMODULE_RTCV1.ASM   11-25-2019  10:52:29         PAGE 56


LOC  OBJECT CODE     LINE SOURCE TEXT
  VALUE

00110E 36E8           02735                         RLCF    WREG
                      02736 
                      02737                 
001110 26F9           02738                         ADDWF   PCL,1,0
001112 0C80 0C00 0C0F 02739                         DT      B'10000000',B'00000000',B'00001111'     ;BTC=10
001118 0C80 0C00 0C0F 02740                         DT      B'10000000',B'00000000',B'00001111'     ;BTC=11
00111E 0C80 0C00 0C0F 02741                         DT      B'10000000',B'00000000',B'00001111'     ;BTC=12
001124 0C80 0C00 0C0F 02742                         DT      B'10000000',B'00000000',B'00001111'     ;BTC=13
00112A 0C87 0CFF 0C0F 02743                         DT      B'10000111',B'11111111',B'00001111'     ;BTC=14
001130 0C87 0CFF 0C0F 02744                         DT      B'10000111',B'11111111',B'00001111'     ;BTC=15
001136 0C87 0CFF 0C0F 02745                         DT      B'10000111',B'11111111',B'00001111'     ;BTC=16
00113C 0C87 0CFF 0C0F 02746                         DT      B'10000111',B'11111111',B'00001111'     ;BTC=17
001142 0C87 0CFF 0C0F 02747                         DT      B'10000111',B'11111111',B'00001111'     ;BTC=18
001148 0C87 0CFF 0C0F 02748                         DT      B'10000111',B'11111111',B'00001111'     ;BTC=19
00114E 0C87 0CFF 0C0F 02749                         DT      B'10000111',B'11111111',B'00001111'     ;BTC=1A
001154 0C87 0CFF 0C0F 02750                         DT      B'10000111',B'11111111',B'00001111'     ;BTC=1B
00115A 0C87 0CFF 0C0F 02751                         DT      B'10000111',B'11111111',B'00001111'     ;BTC=1C
001160 0C87 0CFF 0C0F 02752                         DT      B'10000111',B'11111111',B'00001111'     ;BTC=1D
001166 0C87 0CFF 0C0F 02753                         DT      B'10000111',B'11111111',B'00001111'     ;BTC=1E
00116C 0CFF 0CFF 0CFF 02754                         DT      B'11111111',B'11111111',B'11111111'     ;BTC=1F
                      02755 
001172                02756 FONT02L_LOW_A
                      02757 
001172 0E00           02758         MOVLW   0
001174 6EFB           02759         MOVWF   PCLATU,0
001176 0E11           02760         MOVLW   11
001178 6EFA           02761         MOVWF   PCLATH,0
                      02762 
                      02763 
                      02764 
00117A C146 FFE8      02765                         MOVFF   BTCOUNT,WREG
00117E 90D8           02766                         BCF             STATUS,C
001180 36E8           02767                         RLCF    WREG
                      02768 
                      02769                 
001182 26F9           02770                         ADDWF   PCL,1,0
001184 0CC0 0C00 0C7F 02771                         DT      B'11000000',B'00000000',B'01111111'     ;BTC=10
00118A 0CFF 0CF8 0C7F 02772                         DT      B'11111111',B'11111000',B'01111111'     ;BTC=11
001190 0CFF 0CFC 0C7F 02773                         DT      B'11111111',B'11111100',B'01111111'     ;BTC=12
001196 0CFF 0CFC 0C7F 02774                         DT      B'11111111',B'11111100',B'01111111'     ;BTC=13
00119C 0CFF 0CF8 0C7F 02775                         DT      B'11111111',B'11111000',B'01111111'     ;BTC=14
0011A2 0CE0 0C00 0C7F 02776                         DT      B'11100000',B'00000000',B'01111111'     ;BTC=15
0011A8 0CC0 0C00 0C7F 02777                         DT      B'11000000',B'00000000',B'01111111'     ;BTC=16
0011AE 0C80 0C00 0C7F 02778                         DT      B'10000000',B'00000000',B'01111111'     ;BTC=17
0011B4 0C87 0CF8 0C7F 02779                         DT      B'10000111',B'11111000',B'01111111'     ;BTC=18
0011BA 0C8F 0CFC 0C7F 02780                         DT      B'10001111',B'11111100',B'01111111'     ;BTC=19
0011C0 0C8F 0CFC 0C7F 02781                         DT      B'10001111',B'11111100',B'01111111'     ;BTC=1A
0011C6 0C87 0CF8 0C7F 02782                         DT      B'10000111',B'11111000',B'01111111'     ;BTC=1B
0011CC 0C80 0C00 0C7F 02783                         DT      B'10000000',B'00000000',B'01111111'     ;BTC=1C
0011D2 0CC0 0C00 0C7F 02784                         DT      B'11000000',B'00000000',B'01111111'     ;BTC=1D
0011D8 0CE0 0C04 0C7F 02785                         DT      B'11100000',B'00000100',B'01111111'     ;BTC=1E
0011DE 0CFF 0CFF 0CFF 02786                         DT      B'11111111',B'11111111',B'11111111'     ;BTC=1F
                      02787 
MPASM  5.51       20191122_RGMODULE_RTCV1.ASM   11-25-2019  10:52:29         PAGE 57


LOC  OBJECT CODE     LINE SOURCE TEXT
  VALUE

                      02788 
                      02789 
Warning[205]: Found directive in column 1. (ORG)
001200                02790 ORG 0X1200
001200                02791 FONT02H_CAP_B
                      02792 
001200 0E00           02793         MOVLW   0
001202 6EFB           02794         MOVWF   PCLATU,0
001204 0E12           02795         MOVLW   12
001206 6EFA           02796         MOVWF   PCLATH,0
                      02797 
                      02798         
                      02799 
                      02800         
001208 C146 FFE8      02801                         MOVFF   BTCOUNT,WREG
00120C 90D8           02802                         BCF             STATUS,C
00120E 36E8           02803                         RLCF    WREG
                      02804 
                      02805                 
001210 26F9           02806                         ADDWF   PCL,1,0
001212 0CFF 0CFF 0CFF 02807                         DT      B'11111111',B'11111111',B'11111111'     ;BTC=00
001218 0C80 0C00 0CFF 02808                         DT      B'10000000',B'00000000',B'11111111'     ;BTC=01
00121E 0C80 0C00 0C7F 02809                         DT      B'10000000',B'00000000',B'01111111'     ;BTC=02
001224 0C80 0C00 0C3F 02810                         DT      B'10000000',B'00000000',B'00111111'     ;BTC=03
00122A 0C87 0CFC 0C1F 02811                         DT      B'10000111',B'11111100',B'00011111'     ;BTC=04
001230 0C87 0CFE 0C0F 02812                         DT      B'10000111',B'11111110',B'00001111'     ;BTC=05
001236 0C87 0CFF 0C0F 02813                         DT      B'10000111',B'11111111',B'00001111'     ;BTC=06
00123C 0C87 0CFF 0C0F 02814                         DT      B'10000111',B'11111111',B'00001111'     ;BTC=07
001242 0C87 0CFF 0C0F 02815                         DT      B'10000111',B'11111111',B'00001111'     ;BTC=08
001248 0C87 0CFF 0C0F 02816                         DT      B'10000111',B'11111111',B'00001111'     ;BTC=09
00124E 0C87 0CFF 0C0F 02817                         DT      B'10000111',B'11111111',B'00001111'     ;BTC=0A
001254 0C87 0CFF 0C0F 02818                         DT      B'10000111',B'11111111',B'00001111'     ;BTC=0B
00125A 0C87 0CFE 0C0F 02819                         DT      B'10000111',B'11111110',B'00001111'     ;BTC=0C
001260 0C87 0CFC 0C1F 02820                         DT      B'10000111',B'11111100',B'00011111'     ;BTC=0D
001266 0C80 0C00 0C3F 02821                         DT      B'10000000',B'00000000',B'00111111'     ;BTC=0E
00126C 0C80 0C00 0C7F 02822                         DT      B'10000000',B'00000000',B'01111111'     ;BTC=0F
                      02823 
001272                02824 FONT02H_LOW_B
                      02825 
001272 0E00           02826         MOVLW   0
001274 6EFB           02827         MOVWF   PCLATU,0
001276 0E12           02828         MOVLW   12
001278 6EFA           02829         MOVWF   PCLATH,0
                      02830 
                      02831         
                      02832 
                      02833         
00127A C146 FFE8      02834                         MOVFF   BTCOUNT,WREG
00127E 90D8           02835                         BCF             STATUS,C
001280 36E8           02836                         RLCF    WREG
                      02837 
                      02838                 
001282 26F9           02839                         ADDWF   PCL,1,0
MPASM  5.51       20191122_RGMODULE_RTCV1.ASM   11-25-2019  10:52:29         PAGE 58


LOC  OBJECT CODE     LINE SOURCE TEXT
  VALUE

001284 0CFF 0CFF 0CFF 02840                         DT      B'11111111',B'11111111',B'11111111'     ;BTC=00
00128A 0C8F 0CFF 0CFF 02841                         DT      B'10001111',B'11111111',B'11111111'     ;BTC=01
001290 0C8F 0CFF 0CFF 02842                         DT      B'10001111',B'11111111',B'11111111'     ;BTC=02
001296 0C8F 0CFF 0CFF 02843                         DT      B'10001111',B'11111111',B'11111111'     ;BTC=03
00129C 0C8F 0CFF 0CFF 02844                         DT      B'10001111',B'11111111',B'11111111'     ;BTC=04
0012A2 0C8F 0CFF 0CFF 02845                         DT      B'10001111',B'11111111',B'11111111'     ;BTC=05
0012A8 0C8F 0CFF 0CFF 02846                         DT      B'10001111',B'11111111',B'11111111'     ;BTC=06
0012AE 0C8F 0CFF 0CFF 02847                         DT      B'10001111',B'11111111',B'11111111'     ;BTC=07
0012B4 0C8F 0CFF 0CFF 02848                         DT      B'10001111',B'11111111',B'11111111'     ;BTC=08
0012BA 0C8F 0CFF 0CFF 02849                         DT      B'10001111',B'11111111',B'11111111'     ;BTC=09
0012C0 0C8F 0CFF 0CFF 02850                         DT      B'10001111',B'11111111',B'11111111'     ;BTC=0A
0012C6 0C8F 0CFF 0CFF 02851                         DT      B'10001111',B'11111111',B'11111111'     ;BTC=0B
0012CC 0C8F 0CFF 0CFF 02852                         DT      B'10001111',B'11111111',B'11111111'     ;BTC=0C
0012D2 0C8F 0CFF 0CFF 02853                         DT      B'10001111',B'11111111',B'11111111'     ;BTC=0D
0012D8 0C8F 0CFF 0CFF 02854                         DT      B'10001111',B'11111111',B'11111111'     ;BTC=0E
0012DE 0C8F 0CFF 0CFF 02855                         DT      B'10001111',B'11111111',B'11111111'     ;BTC=0F
                      02856 
Warning[205]: Found directive in column 1. (ORG)
001300                02857 ORG 0X1300
001300                02858 FONT02L_CAP_B
                      02859 
001300 0E00           02860         MOVLW   0
001302 6EFB           02861         MOVWF   PCLATU,0
001304 0E13           02862         MOVLW   13
001306 6EFA           02863         MOVWF   PCLATH,0
                      02864 
                      02865 
                      02866 
                      02867 
001308 C146 FFE8      02868                         MOVFF   BTCOUNT,WREG
00130C 90D8           02869                         BCF             STATUS,C
00130E 36E8           02870                         RLCF    WREG
                      02871 
                      02872                 
001310 26F9           02873                         ADDWF   PCL,1,0
001312 0C80 0C00 0C7F 02874                         DT      B'10000000',B'00000000',B'01111111'     ;BTC=10
001318 0C87 0CFC 0C3F 02875                         DT      B'10000111',B'11111100',B'00111111'     ;BTC=11
00131E 0C87 0CFE 0C1F 02876                         DT      B'10000111',B'11111110',B'00011111'     ;BTC=12
001324 0C87 0CFF 0C0F 02877                         DT      B'10000111',B'11111111',B'00001111'     ;BTC=13
00132A 0C87 0CFF 0C0F 02878                         DT      B'10000111',B'11111111',B'00001111'     ;BTC=14
001330 0C87 0CFF 0C0F 02879                         DT      B'10000111',B'11111111',B'00001111'     ;BTC=15
001336 0C87 0CFF 0C0F 02880                         DT      B'10000111',B'11111111',B'00001111'     ;BTC=16
00133C 0C87 0CFF 0C0F 02881                         DT      B'10000111',B'11111111',B'00001111'     ;BTC=17
001342 0C87 0CFF 0C0F 02882                         DT      B'10000111',B'11111111',B'00001111'     ;BTC=18
001348 0C87 0CFF 0C0F 02883                         DT      B'10000111',B'11111111',B'00001111'     ;BTC=19
00134E 0C87 0CFE 0C0F 02884                         DT      B'10000111',B'11111110',B'00001111'     ;BTC=1A
001354 0C87 0CFC 0C1F 02885                         DT      B'10000111',B'11111100',B'00011111'     ;BTC=1B
00135A 0C80 0C00 0C3F 02886                         DT      B'10000000',B'00000000',B'00111111'     ;BTC=1C
001360 0C80 0C00 0C7F 02887                         DT      B'10000000',B'00000000',B'01111111'     ;BTC=1D
001366 0C80 0C00 0CFF 02888                         DT      B'10000000',B'00000000',B'11111111'     ;BTC=1E
00136C 0CFF 0CFF 0CFF 02889                         DT      B'11111111',B'11111111',B'11111111'     ;BTC=1F
                      02890 
001372                02891 FONT02L_LOW_B
MPASM  5.51       20191122_RGMODULE_RTCV1.ASM   11-25-2019  10:52:29         PAGE 59


LOC  OBJECT CODE     LINE SOURCE TEXT
  VALUE

                      02892 
001372 0E00           02893         MOVLW   0
001374 6EFB           02894         MOVWF   PCLATU,0
001376 0E13           02895         MOVLW   13
001378 6EFA           02896         MOVWF   PCLATH,0
                      02897 
                      02898 
                      02899 
                      02900 
00137A C146 FFE8      02901                         MOVFF   BTCOUNT,WREG
00137E 90D8           02902                         BCF             STATUS,C
001380 36E8           02903                         RLCF    WREG
                      02904 
                      02905                 
001382 26F9           02906                         ADDWF   PCL,1,0
001384 0C80 0C01 0CFF 02907                         DT      B'10000000',B'00000001',B'11111111'     ;BTC=10
00138A 0C80 0C00 0CFF 02908                         DT      B'10000000',B'00000000',B'11111111'     ;BTC=11
001390 0C80 0C00 0C7F 02909                         DT      B'10000000',B'00000000',B'01111111'     ;BTC=12
001396 0C8F 0CF8 0C7F 02910                         DT      B'10001111',B'11111000',B'01111111'     ;BTC=13
00139C 0C8F 0CFC 0C7F 02911                         DT      B'10001111',B'11111100',B'01111111'     ;BTC=14
0013A2 0C8F 0CFC 0C7F 02912                         DT      B'10001111',B'11111100',B'01111111'     ;BTC=15
0013A8 0C8F 0CFC 0C7F 02913                         DT      B'10001111',B'11111100',B'01111111'     ;BTC=16
0013AE 0C8F 0CFC 0C7F 02914                         DT      B'10001111',B'11111100',B'01111111'     ;BTC=17
0013B4 0C8F 0CFC 0C7F 02915                         DT      B'10001111',B'11111100',B'01111111'     ;BTC=18
0013BA 0C8F 0CFC 0C7F 02916                         DT      B'10001111',B'11111100',B'01111111'     ;BTC=19
0013C0 0C8F 0CFC 0C7F 02917                         DT      B'10001111',B'11111100',B'01111111'     ;BTC=1A
0013C6 0C8F 0CF8 0C7F 02918                         DT      B'10001111',B'11111000',B'01111111'     ;BTC=1B
0013CC 0C80 0C00 0C7F 02919                         DT      B'10000000',B'00000000',B'01111111'     ;BTC=1C
0013D2 0C80 0C00 0CFF 02920                         DT      B'10000000',B'00000000',B'11111111'     ;BTC=1D
0013D8 0C80 0C01 0CFF 02921                         DT      B'10000000',B'00000001',B'11111111'     ;BTC=1E
0013DE 0CFF 0CFF 0CFF 02922                         DT      B'11111111',B'11111111',B'11111111'     ;BTC=1F
                      02923 
                      02924 
                      02925 
                      02926 
Warning[205]: Found directive in column 1. (ORG)
001400                02927 ORG 0X1400
001400                02928 FONT02H_CAP_C
                      02929 
001400 0E00           02930         MOVLW   0
001402 6EFB           02931         MOVWF   PCLATU,0
001404 0E14           02932         MOVLW   14
001406 6EFA           02933         MOVWF   PCLATH,0
                      02934 
                      02935         
                      02936 
                      02937         
001408 C146 FFE8      02938                         MOVFF   BTCOUNT,WREG
00140C 90D8           02939                         BCF             STATUS,C
00140E 36E8           02940                         RLCF    WREG
                      02941 
                      02942                 
001410 26F9           02943                         ADDWF   PCL,1,0
MPASM  5.51       20191122_RGMODULE_RTCV1.ASM   11-25-2019  10:52:29         PAGE 60


LOC  OBJECT CODE     LINE SOURCE TEXT
  VALUE

001412 0CFF 0CFF 0CFF 02944                         DT      B'11111111',B'11111111',B'11111111'     ;BTC=00
001418 0CF0 0C00 0C7F 02945                         DT      B'11110000',B'00000000',B'01111111'     ;BTC=01
00141E 0CE0 0C00 0C3F 02946                         DT      B'11100000',B'00000000',B'00111111'     ;BTC=02
001424 0CC0 0C00 0C1F 02947                         DT      B'11000000',B'00000000',B'00011111'     ;BTC=03
00142A 0C81 0CFE 0C0F 02948                         DT      B'10000001',B'11111110',B'00001111'     ;BTC=04
001430 0C83 0CFF 0C0F 02949                         DT      B'10000011',B'11111111',B'00001111'     ;BTC=05
001436 0C87 0CFF 0C0F 02950                         DT      B'10000111',B'11111111',B'00001111'     ;BTC=06
00143C 0C87 0CFF 0CFF 02951                         DT      B'10000111',B'11111111',B'11111111'     ;BTC=07
001442 0C87 0CFF 0CFF 02952                         DT      B'10000111',B'11111111',B'11111111'     ;BTC=08
001448 0C87 0CFF 0CFF 02953                         DT      B'10000111',B'11111111',B'11111111'     ;BTC=09
00144E 0C87 0CFF 0CFF 02954                         DT      B'10000111',B'11111111',B'11111111'     ;BTC=0A
001454 0C87 0CFF 0CFF 02955                         DT      B'10000111',B'11111111',B'11111111'     ;BTC=0B
00145A 0C87 0CFF 0CFF 02956                         DT      B'10000111',B'11111111',B'11111111'     ;BTC=0C
001460 0C87 0CFF 0CFF 02957                         DT      B'10000111',B'11111111',B'11111111'     ;BTC=0D
001466 0C87 0CFF 0CFF 02958                         DT      B'10000111',B'11111111',B'11111111'     ;BTC=0E
00146C 0C87 0CFF 0CFF 02959                         DT      B'10000111',B'11111111',B'11111111'     ;BTC=0F
                      02960 
                      02961 
001472                02962 FONT02H_LOW_C
                      02963 
001472 0E00           02964         MOVLW   0
001474 6EFB           02965         MOVWF   PCLATU,0
001476 0E14           02966         MOVLW   14
001478 6EFA           02967         MOVWF   PCLATH,0
                      02968 
                      02969         
                      02970 
                      02971         
00147A C146 FFE8      02972                         MOVFF   BTCOUNT,WREG
00147E 90D8           02973                         BCF             STATUS,C
001480 36E8           02974                         RLCF    WREG
                      02975 
                      02976                 
001482 26F9           02977                         ADDWF   PCL,1,0
001484 0CFF 0CFF 0CFF 02978                         DT      B'11111111',B'11111111',B'11111111'     ;BTC=00
00148A 0CFF 0CFF 0CFF 02979                         DT      B'11111111',B'11111111',B'11111111'     ;BTC=01
001490 0CFF 0CFF 0CFF 02980                         DT      B'11111111',B'11111111',B'11111111'     ;BTC=02
001496 0CFF 0CFF 0CFF 02981                         DT      B'11111111',B'11111111',B'11111111'     ;BTC=03
00149C 0CFF 0CFF 0CFF 02982                         DT      B'11111111',B'11111111',B'11111111'     ;BTC=04
0014A2 0CFF 0CFF 0CFF 02983                         DT      B'11111111',B'11111111',B'11111111'     ;BTC=05
0014A8 0CFF 0CFF 0CFF 02984                         DT      B'11111111',B'11111111',B'11111111'     ;BTC=06
0014AE 0CFF 0CFF 0CFF 02985                         DT      B'11111111',B'11111111',B'11111111'     ;BTC=07
0014B4 0CFF 0CFF 0CFF 02986                         DT      B'11111111',B'11111111',B'11111111'     ;BTC=08
0014BA 0CFF 0CFF 0CFF 02987                         DT      B'11111111',B'11111111',B'11111111'     ;BTC=09
0014C0 0CFF 0CFF 0CFF 02988                         DT      B'11111111',B'11111111',B'11111111'     ;BTC=0A
0014C6 0CFF 0CFF 0CFF 02989                         DT      B'11111111',B'11111111',B'11111111'     ;BTC=0B
0014CC 0CFF 0CFF 0CFF 02990                         DT      B'11111111',B'11111111',B'11111111'     ;BTC=0C
0014D2 0CFF 0CFF 0CFF 02991                         DT      B'11111111',B'11111111',B'11111111'     ;BTC=0D
0014D8 0CE0 0C01 0CFF 02992                         DT      B'11100000',B'00000001',B'11111111'     ;BTC=0E
0014DE 0CC0 0C00 0CFF 02993                         DT      B'11000000',B'00000000',B'11111111'     ;BTC=0F
                      02994 
                      02995 
Warning[205]: Found directive in column 1. (ORG)
MPASM  5.51       20191122_RGMODULE_RTCV1.ASM   11-25-2019  10:52:29         PAGE 61


LOC  OBJECT CODE     LINE SOURCE TEXT
  VALUE

001500                02996 ORG 0X1500
001500                02997 FONT02L_CAP_C
                      02998 
001500 0E00           02999         MOVLW   0
001502 6EFB           03000         MOVWF   PCLATU,0
001504 0E15           03001         MOVLW   15
001506 6EFA           03002         MOVWF   PCLATH,0
                      03003 
                      03004 
                      03005 
                      03006 
001508 C146 FFE8      03007                         MOVFF   BTCOUNT,WREG
00150C 90D8           03008                         BCF             STATUS,C
00150E 36E8           03009                         RLCF    WREG
                      03010 
                      03011                 
001510 26F9           03012                         ADDWF   PCL,1,0
001512 0C87 0CFF 0CFF 03013                         DT      B'10000111',B'11111111',B'11111111'     ;BTC=10
001518 0C87 0CFF 0CFF 03014                         DT      B'10000111',B'11111111',B'11111111'     ;BTC=11
00151E 0C87 0CFF 0CFF 03015                         DT      B'10000111',B'11111111',B'11111111'     ;BTC=12
001524 0C87 0CFF 0CFF 03016                         DT      B'10000111',B'11111111',B'11111111'     ;BTC=13
00152A 0C87 0CFF 0CFF 03017                         DT      B'10000111',B'11111111',B'11111111'     ;BTC=14
001530 0C87 0CFF 0CFF 03018                         DT      B'10000111',B'11111111',B'11111111'     ;BTC=15
001536 0C87 0CFF 0CFF 03019                         DT      B'10000111',B'11111111',B'11111111'     ;BTC=16
00153C 0C87 0CFF 0CFF 03020                         DT      B'10000111',B'11111111',B'11111111'     ;BTC=17
001542 0C87 0CFF 0CFF 03021                         DT      B'10000111',B'11111111',B'11111111'     ;BTC=18
001548 0C87 0CFF 0C0F 03022                         DT      B'10000111',B'11111111',B'00001111'     ;BTC=19
00154E 0C83 0CFF 0C0F 03023                         DT      B'10000011',B'11111111',B'00001111'     ;BTC=1A
001554 0C81 0CFE 0C0F 03024                         DT      B'10000001',B'11111110',B'00001111'     ;BTC=1B
00155A 0CC0 0C00 0C1F 03025                         DT      B'11000000',B'00000000',B'00011111'     ;BTC=1C
001560 0CE0 0C00 0C3F 03026                         DT      B'11100000',B'00000000',B'00111111'     ;BTC=1D
001566 0CF0 0C00 0C7F 03027                         DT      B'11110000',B'00000000',B'01111111'     ;BTC=1E
00156C 0CFF 0CFF 0CFF 03028                         DT      B'11111111',B'11111111',B'11111111'     ;BTC=1F
                      03029 
001572                03030 FONT02L_LOW_C
                      03031 
001572 0E00           03032         MOVLW   0
001574 6EFB           03033         MOVWF   PCLATU,0
001576 0E15           03034         MOVLW   15
001578 6EFA           03035         MOVWF   PCLATH,0
                      03036 
                      03037 
                      03038 
                      03039 
00157A C146 FFE8      03040                         MOVFF   BTCOUNT,WREG
00157E 90D8           03041                         BCF             STATUS,C
001580 36E8           03042                         RLCF    WREG
                      03043 
                      03044                 
001582 26F9           03045                         ADDWF   PCL,1,0
001584 0C80 0C00 0C7F 03046                         DT      B'10000000',B'00000000',B'01111111'     ;BTC=10
00158A 0C87 0CFC 0C7F 03047                         DT      B'10000111',B'11111100',B'01111111'     ;BTC=11
001590 0C8F 0CFF 0CFF 03048                         DT      B'10001111',B'11111111',B'11111111'     ;BTC=12
MPASM  5.51       20191122_RGMODULE_RTCV1.ASM   11-25-2019  10:52:29         PAGE 62


LOC  OBJECT CODE     LINE SOURCE TEXT
  VALUE

001596 0C8F 0CFF 0CFF 03049                         DT      B'10001111',B'11111111',B'11111111'     ;BTC=13
00159C 0C8F 0CFF 0CFF 03050                         DT      B'10001111',B'11111111',B'11111111'     ;BTC=14
0015A2 0C8F 0CFF 0CFF 03051                         DT      B'10001111',B'11111111',B'11111111'     ;BTC=15
0015A8 0C8F 0CFF 0CFF 03052                         DT      B'10001111',B'11111111',B'11111111'     ;BTC=16
0015AE 0C8F 0CFF 0CFF 03053                         DT      B'10001111',B'11111111',B'11111111'     ;BTC=17
0015B4 0C8F 0CFF 0CFF 03054                         DT      B'10001111',B'11111111',B'11111111'     ;BTC=18
0015BA 0C8F 0CFF 0CFF 03055                         DT      B'10001111',B'11111111',B'11111111'     ;BTC=19
0015C0 0C8F 0CFF 0CFF 03056                         DT      B'10001111',B'11111111',B'11111111'     ;BTC=1A
0015C6 0C87 0CFC 0C7F 03057                         DT      B'10000111',B'11111100',B'01111111'     ;BTC=1B
0015CC 0C80 0C00 0C7F 03058                         DT      B'10000000',B'00000000',B'01111111'     ;BTC=1C
0015D2 0CC0 0C00 0CFF 03059                         DT      B'11000000',B'00000000',B'11111111'     ;BTC=1D
0015D8 0CE0 0C01 0CFF 03060                         DT      B'11100000',B'00000001',B'11111111'     ;BTC=1E
0015DE 0CFF 0CFF 0CFF 03061                         DT      B'11111111',B'11111111',B'11111111'     ;BTC=1F
                      03062 
                      03063 
                      03064 
                      03065 
Warning[205]: Found directive in column 1. (ORG)
001600                03066 ORG 0X1600
001600                03067 FONT02H_CAP_D
                      03068 
001600 0E00           03069         MOVLW   0
001602 6EFB           03070         MOVWF   PCLATU,0
001604 0E16           03071         MOVLW   16
001606 6EFA           03072         MOVWF   PCLATH,0
                      03073 
                      03074         
                      03075 
                      03076         
001608 C146 FFE8      03077                         MOVFF   BTCOUNT,WREG
00160C 90D8           03078                         BCF             STATUS,C
00160E 36E8           03079                         RLCF    WREG
                      03080 
                      03081                 
001610 26F9           03082                         ADDWF   PCL,1,0
001612 0CFF 0CFF 0CFF 03083                         DT      B'11111111',B'11111111',B'11111111'     ;BTC=00
001618 0C80 0C00 0CFF 03084                         DT      B'10000000',B'00000000',B'11111111'     ;BTC=01
00161E 0C80 0C00 0C7F 03085                         DT      B'10000000',B'00000000',B'01111111'     ;BTC=02
001624 0C80 0C00 0C3F 03086                         DT      B'10000000',B'00000000',B'00111111'     ;BTC=03
00162A 0C87 0CF8 0C1F 03087                         DT      B'10000111',B'11111000',B'00011111'     ;BTC=04
001630 0C87 0CFC 0C0F 03088                         DT      B'10000111',B'11111100',B'00001111'     ;BTC=05
001636 0C87 0CFE 0C0F 03089                         DT      B'10000111',B'11111110',B'00001111'     ;BTC=06
00163C 0C87 0CFF 0C0F 03090                         DT      B'10000111',B'11111111',B'00001111'     ;BTC=07
001642 0C87 0CFF 0C0F 03091                         DT      B'10000111',B'11111111',B'00001111'     ;BTC=08
001648 0C87 0CFF 0C0F 03092                         DT      B'10000111',B'11111111',B'00001111'     ;BTC=09
00164E 0C87 0CFF 0C0F 03093                         DT      B'10000111',B'11111111',B'00001111'     ;BTC=0A
001654 0C87 0CFF 0C0F 03094                         DT      B'10000111',B'11111111',B'00001111'     ;BTC=0B
00165A 0C87 0CFF 0C0F 03095                         DT      B'10000111',B'11111111',B'00001111'     ;BTC=0C
001660 0C87 0CFF 0C0F 03096                         DT      B'10000111',B'11111111',B'00001111'     ;BTC=0D
001666 0C87 0CFF 0C0F 03097                         DT      B'10000111',B'11111111',B'00001111'     ;BTC=0E
00166C 0C87 0CFF 0C0F 03098                         DT      B'10000111',B'11111111',B'00001111'     ;BTC=0F
                      03099 
                      03100 
MPASM  5.51       20191122_RGMODULE_RTCV1.ASM   11-25-2019  10:52:29         PAGE 63


LOC  OBJECT CODE     LINE SOURCE TEXT
  VALUE

001672                03101 FONT02H_LOW_D
                      03102 
001672 0E00           03103         MOVLW   0
001674 6EFB           03104         MOVWF   PCLATU,0
001676 0E16           03105         MOVLW   16
001678 6EFA           03106         MOVWF   PCLATH,0
                      03107 
                      03108         
                      03109 
                      03110         
00167A C146 FFE8      03111                         MOVFF   BTCOUNT,WREG
00167E 90D8           03112                         BCF             STATUS,C
001680 36E8           03113                         RLCF    WREG
                      03114 
                      03115                 
001682 26F9           03116                         ADDWF   PCL,1,0
001684 0CFF 0CFF 0CFF 03117                         DT      B'11111111',B'11111111',B'11111111'     ;BTC=00
00168A 0CFF 0CFC 0C7F 03118                         DT      B'11111111',B'11111100',B'01111111'     ;BTC=01
001690 0CFF 0CFC 0C7F 03119                         DT      B'11111111',B'11111100',B'01111111'     ;BTC=02
001696 0CFF 0CFC 0C7F 03120                         DT      B'11111111',B'11111100',B'01111111'     ;BTC=03
00169C 0CFF 0CFC 0C7F 03121                         DT      B'11111111',B'11111100',B'01111111'     ;BTC=04
0016A2 0CFF 0CFC 0C7F 03122                         DT      B'11111111',B'11111100',B'01111111'     ;BTC=05
0016A8 0CFF 0CFC 0C7F 03123                         DT      B'11111111',B'11111100',B'01111111'     ;BTC=06
0016AE 0CFF 0CFC 0C7F 03124                         DT      B'11111111',B'11111100',B'01111111'     ;BTC=07
0016B4 0CFF 0CFC 0C7F 03125                         DT      B'11111111',B'11111100',B'01111111'     ;BTC=08
0016BA 0CFF 0CFC 0C7F 03126                         DT      B'11111111',B'11111100',B'01111111'     ;BTC=09
0016C0 0CFF 0CFC 0C7F 03127                         DT      B'11111111',B'11111100',B'01111111'     ;BTC=0A
0016C6 0CFF 0CFC 0C7F 03128                         DT      B'11111111',B'11111100',B'01111111'     ;BTC=0B
0016CC 0CFF 0CFC 0C7F 03129                         DT      B'11111111',B'11111100',B'01111111'     ;BTC=0C
0016D2 0CFF 0CFC 0C7F 03130                         DT      B'11111111',B'11111100',B'01111111'     ;BTC=0D
0016D8 0CFF 0CFC 0C7F 03131                         DT      B'11111111',B'11111100',B'01111111'     ;BTC=0E
0016DE 0CFF 0CFC 0C7F 03132                         DT      B'11111111',B'11111100',B'01111111'     ;BTC=0F
                      03133 
                      03134 
Warning[205]: Found directive in column 1. (ORG)
001700                03135 ORG 0X1700
001700                03136 FONT02L_CAP_D
                      03137 
001700 0E00           03138         MOVLW   0
001702 6EFB           03139         MOVWF   PCLATU,0
001704 0E17           03140         MOVLW   17
001706 6EFA           03141         MOVWF   PCLATH,0
                      03142 
                      03143 
                      03144 
                      03145 
001708 C146 FFE8      03146                         MOVFF   BTCOUNT,WREG
00170C 90D8           03147                         BCF             STATUS,C
00170E 36E8           03148                         RLCF    WREG
                      03149 
                      03150                 
001710 26F9           03151                         ADDWF   PCL,1,0
001712 0C87 0CFF 0C0F 03152                         DT      B'10000111',B'11111111',B'00001111'     ;BTC=10
MPASM  5.51       20191122_RGMODULE_RTCV1.ASM   11-25-2019  10:52:29         PAGE 64


LOC  OBJECT CODE     LINE SOURCE TEXT
  VALUE

001718 0C87 0CFF 0C0F 03153                         DT      B'10000111',B'11111111',B'00001111'     ;BTC=11
00171E 0C87 0CFF 0C0F 03154                         DT      B'10000111',B'11111111',B'00001111'     ;BTC=12
001724 0C87 0CFF 0C0F 03155                         DT      B'10000111',B'11111111',B'00001111'     ;BTC=13
00172A 0C87 0CFF 0C0F 03156                         DT      B'10000111',B'11111111',B'00001111'     ;BTC=14
001730 0C87 0CFF 0C0F 03157                         DT      B'10000111',B'11111111',B'00001111'     ;BTC=15
001736 0C87 0CFF 0C0F 03158                         DT      B'10000111',B'11111111',B'00001111'     ;BTC=16
00173C 0C87 0CFF 0C0F 03159                         DT      B'10000111',B'11111111',B'00001111'     ;BTC=17
001742 0C87 0CFF 0C0F 03160                         DT      B'10000111',B'11111111',B'00001111'     ;BTC=18
001748 0C87 0CFE 0C0F 03161                         DT      B'10000111',B'11111110',B'00001111'     ;BTC=19
00174E 0C87 0CFC 0C0F 03162                         DT      B'10000111',B'11111100',B'00001111'     ;BTC=1A
001754 0C87 0CF8 0C1F 03163                         DT      B'10000111',B'11111000',B'00011111'     ;BTC=1B
00175A 0C80 0C00 0C3F 03164                         DT      B'10000000',B'00000000',B'00111111'     ;BTC=1C
001760 0C80 0C00 0C7F 03165                         DT      B'10000000',B'00000000',B'01111111'     ;BTC=1D
001766 0C80 0C00 0CFF 03166                         DT      B'10000000',B'00000000',B'11111111'     ;BTC=1E
00176C 0CFF 0CFF 0CFF 03167                         DT      B'11111111',B'11111111',B'11111111'     ;BTC=1F
                      03168 
                      03169 
001772                03170 FONT02L_LOW_D
                      03171 
001772 0E00           03172         MOVLW   0
001774 6EFB           03173         MOVWF   PCLATU,0
001776 0E17           03174         MOVLW   17
001778 6EFA           03175         MOVWF   PCLATH,0
                      03176 
                      03177 
                      03178 
                      03179 
00177A C146 FFE8      03180                         MOVFF   BTCOUNT,WREG
00177E 90D8           03181                         BCF             STATUS,C
001780 36E8           03182                         RLCF    WREG
                      03183 
                      03184                 
001782 26F9           03185                         ADDWF   PCL,1,0
001784 0CF0 0C00 0C7F 03186                         DT      B'11110000',B'00000000',B'01111111'     ;BTC=10
00178A 0CE0 0C00 0C7F 03187                         DT      B'11100000',B'00000000',B'01111111'     ;BTC=11
001790 0CC0 0C00 0C7F 03188                         DT      B'11000000',B'00000000',B'01111111'     ;BTC=12
001796 0C87 0CFC 0C7F 03189                         DT      B'10000111',B'11111100',B'01111111'     ;BTC=13
00179C 0C8F 0CFC 0C7F 03190                         DT      B'10001111',B'11111100',B'01111111'     ;BTC=14
0017A2 0C8F 0CFC 0C7F 03191                         DT      B'10001111',B'11111100',B'01111111'     ;BTC=15
0017A8 0C8F 0CFC 0C7F 03192                         DT      B'10001111',B'11111100',B'01111111'     ;BTC=16
0017AE 0C8F 0CFC 0C7F 03193                         DT      B'10001111',B'11111100',B'01111111'     ;BTC=17
0017B4 0C8F 0CFC 0C7F 03194                         DT      B'10001111',B'11111100',B'01111111'     ;BTC=18
0017BA 0C8F 0CFC 0C7F 03195                         DT      B'10001111',B'11111100',B'01111111'     ;BTC=19
0017C0 0C8F 0CFC 0C7F 03196                         DT      B'10001111',B'11111100',B'01111111'     ;BTC=1A
0017C6 0C87 0CFC 0C7F 03197                         DT      B'10000111',B'11111100',B'01111111'     ;BTC=1B
0017CC 0CC0 0C00 0C7F 03198                         DT      B'11000000',B'00000000',B'01111111'     ;BTC=1C
0017D2 0CE0 0C00 0C7F 03199                         DT      B'11100000',B'00000000',B'01111111'     ;BTC=1D
0017D8 0CF0 0C00 0C7F 03200                         DT      B'11110000',B'00000000',B'01111111'     ;BTC=1E
0017DE 0CFF 0CFF 0CFF 03201                         DT      B'11111111',B'11111111',B'11111111'     ;BTC=1F
                      03202 
                      03203 
                      03204 
Warning[205]: Found directive in column 1. (ORG)
MPASM  5.51       20191122_RGMODULE_RTCV1.ASM   11-25-2019  10:52:29         PAGE 65


LOC  OBJECT CODE     LINE SOURCE TEXT
  VALUE

001800                03205 ORG 0X1800
001800                03206 FONT02H_CAP_E
                      03207 
001800 0E00           03208         MOVLW   0
001802 6EFB           03209         MOVWF   PCLATU,0
001804 0E18           03210         MOVLW   18
001806 6EFA           03211         MOVWF   PCLATH,0
                      03212 
                      03213         
                      03214 
                      03215         
001808 C146 FFE8      03216                         MOVFF   BTCOUNT,WREG
00180C 90D8           03217                         BCF             STATUS,C
00180E 36E8           03218                         RLCF    WREG
                      03219 
                      03220                 
001810 26F9           03221                         ADDWF   PCL,1,0
001812 0CFF 0CFF 0CFF 03222                         DT      B'11111111',B'11111111',B'11111111'     ;BTC=00
001818 0C80 0C00 0C0F 03223                         DT      B'10000000',B'00000000',B'00001111'     ;BTC=01
00181E 0C80 0C00 0C0F 03224                         DT      B'10000000',B'00000000',B'00001111'     ;BTC=02
001824 0C80 0C00 0C0F 03225                         DT      B'10000000',B'00000000',B'00001111'     ;BTC=03
00182A 0C80 0C00 0C0F 03226                         DT      B'10000000',B'00000000',B'00001111'     ;BTC=04
001830 0C87 0CFF 0C0F 03227                         DT      B'10000111',B'11111111',B'00001111'     ;BTC=05
001836 0C87 0CFF 0CFF 03228                         DT      B'10000111',B'11111111',B'11111111'     ;BTC=06
00183C 0C87 0CFF 0CFF 03229                         DT      B'10000111',B'11111111',B'11111111'     ;BTC=07
001842 0C87 0CFF 0CFF 03230                         DT      B'10000111',B'11111111',B'11111111'     ;BTC=08
001848 0C87 0CFF 0CFF 03231                         DT      B'10000111',B'11111111',B'11111111'     ;BTC=09
00184E 0C87 0CFF 0CFF 03232                         DT      B'10000111',B'11111111',B'11111111'     ;BTC=0A
001854 0C87 0CFF 0CFF 03233                         DT      B'10000111',B'11111111',B'11111111'     ;BTC=0B
00185A 0C87 0CFF 0CFF 03234                         DT      B'10000111',B'11111111',B'11111111'     ;BTC=0C
001860 0C87 0CFF 0CFF 03235                         DT      B'10000111',B'11111111',B'11111111'     ;BTC=0D
001866 0C80 0C00 0C7F 03236                         DT      B'10000000',B'00000000',B'01111111'     ;BTC=0E
00186C 0C80 0C00 0C7F 03237                         DT      B'10000000',B'00000000',B'01111111'     ;BTC=0F
                      03238 
                      03239 
001872                03240 FONT02H_LOW_E
                      03241 
001872 0E00           03242         MOVLW   0
001874 6EFB           03243         MOVWF   PCLATU,0
001876 0E18           03244         MOVLW   18
001878 6EFA           03245         MOVWF   PCLATH,0
                      03246 
                      03247         
                      03248 
                      03249         
00187A C146 FFE8      03250                         MOVFF   BTCOUNT,WREG
00187E 90D8           03251                         BCF             STATUS,C
001880 36E8           03252                         RLCF    WREG
                      03253 
                      03254                 
001882 26F9           03255                         ADDWF   PCL,1,0
001884 0CFF 0CFF 0CFF 03256                         DT      B'11111111',B'11111111',B'11111111'     ;BTC=00
00188A 0CFF 0CFF 0CFF 03257                         DT      B'11111111',B'11111111',B'11111111'     ;BTC=01
MPASM  5.51       20191122_RGMODULE_RTCV1.ASM   11-25-2019  10:52:29         PAGE 66


LOC  OBJECT CODE     LINE SOURCE TEXT
  VALUE

001890 0CFF 0CFF 0CFF 03258                         DT      B'11111111',B'11111111',B'11111111'     ;BTC=02
001896 0CFF 0CFF 0CFF 03259                         DT      B'11111111',B'11111111',B'11111111'     ;BTC=03
00189C 0CFF 0CFF 0CFF 03260                         DT      B'11111111',B'11111111',B'11111111'     ;BTC=04
0018A2 0CFF 0CFF 0CFF 03261                         DT      B'11111111',B'11111111',B'11111111'     ;BTC=05
0018A8 0CFF 0CFF 0CFF 03262                         DT      B'11111111',B'11111111',B'11111111'     ;BTC=06
0018AE 0CFF 0CFF 0CFF 03263                         DT      B'11111111',B'11111111',B'11111111'     ;BTC=07
0018B4 0CFF 0CFF 0CFF 03264                         DT      B'11111111',B'11111111',B'11111111'     ;BTC=08
0018BA 0CFF 0CFF 0CFF 03265                         DT      B'11111111',B'11111111',B'11111111'     ;BTC=09
0018C0 0CFF 0CFF 0CFF 03266                         DT      B'11111111',B'11111111',B'11111111'     ;BTC=0A
0018C6 0CFF 0CFF 0CFF 03267                         DT      B'11111111',B'11111111',B'11111111'     ;BTC=0B
0018CC 0CFF 0CFF 0CFF 03268                         DT      B'11111111',B'11111111',B'11111111'     ;BTC=0C
0018D2 0CFF 0CFF 0CFF 03269                         DT      B'11111111',B'11111111',B'11111111'     ;BTC=0D
0018D8 0CE0 0C01 0CFF 03270                         DT      B'11100000',B'00000001',B'11111111'     ;BTC=0E
0018DE 0CC0 0C00 0CFF 03271                         DT      B'11000000',B'00000000',B'11111111'     ;BTC=0F
                      03272 
                      03273 
Warning[205]: Found directive in column 1. (ORG)
001900                03274 ORG 0X1900
001900                03275 FONT02L_CAP_E
                      03276 
001900 0E00           03277         MOVLW   0
001902 6EFB           03278         MOVWF   PCLATU,0
001904 0E19           03279         MOVLW   19
001906 6EFA           03280         MOVWF   PCLATH,0
                      03281 
                      03282 
                      03283 
                      03284 
001908 C146 FFE8      03285                         MOVFF   BTCOUNT,WREG
00190C 90D8           03286                         BCF             STATUS,C
00190E 36E8           03287                         RLCF    WREG
                      03288 
                      03289                 
001910 26F9           03290                         ADDWF   PCL,1,0
001912 0C80 0C00 0C7F 03291                         DT      B'10000000',B'00000000',B'01111111'     ;BTC=10
001918 0C80 0C00 0C7F 03292                         DT      B'10000000',B'00000000',B'01111111'     ;BTC=11
00191E 0C87 0CFF 0CFF 03293                         DT      B'10000111',B'11111111',B'11111111'     ;BTC=12
001924 0C87 0CFF 0CFF 03294                         DT      B'10000111',B'11111111',B'11111111'     ;BTC=13
00192A 0C87 0CFF 0CFF 03295                         DT      B'10000111',B'11111111',B'11111111'     ;BTC=14
001930 0C87 0CFF 0CFF 03296                         DT      B'10000111',B'11111111',B'11111111'     ;BTC=15
001936 0C87 0CFF 0CFF 03297                         DT      B'10000111',B'11111111',B'11111111'     ;BTC=16
00193C 0C87 0CFF 0CFF 03298                         DT      B'10000111',B'11111111',B'11111111'     ;BTC=17
001942 0C87 0CFF 0CFF 03299                         DT      B'10000111',B'11111111',B'11111111'     ;BTC=18
001948 0C87 0CFF 0CFF 03300                         DT      B'10000111',B'11111111',B'11111111'     ;BTC=19
00194E 0C87 0CFF 0C0F 03301                         DT      B'10000111',B'11111111',B'00001111'     ;BTC=1A
001954 0C80 0C00 0C0F 03302                         DT      B'10000000',B'00000000',B'00001111'     ;BTC=1B
00195A 0C80 0C00 0C0F 03303                         DT      B'10000000',B'00000000',B'00001111'     ;BTC=1C
001960 0C80 0C00 0C0F 03304                         DT      B'10000000',B'00000000',B'00001111'     ;BTC=1D
001966 0C80 0C00 0C0F 03305                         DT      B'10000000',B'00000000',B'00001111'     ;BTC=1E
00196C 0CFF 0CFF 0CFF 03306                         DT      B'11111111',B'11111111',B'11111111'     ;BTC=1F
                      03307 
                      03308 
                      03309 
MPASM  5.51       20191122_RGMODULE_RTCV1.ASM   11-25-2019  10:52:29         PAGE 67


LOC  OBJECT CODE     LINE SOURCE TEXT
  VALUE

001972                03310 FONT02L_LOW_E
                      03311 
001972 0E00           03312         MOVLW   0
001974 6EFB           03313         MOVWF   PCLATU,0
001976 0E19           03314         MOVLW   19
001978 6EFA           03315         MOVWF   PCLATH,0
                      03316 
                      03317 
                      03318 
                      03319 
00197A C146 FFE8      03320                         MOVFF   BTCOUNT,WREG
00197E 90D8           03321                         BCF             STATUS,C
001980 36E8           03322                         RLCF    WREG
                      03323 
                      03324                 
001982 26F9           03325                         ADDWF   PCL,1,0
001984 0C80 0C00 0C7F 03326                         DT      B'10000000',B'00000000',B'01111111'     ;BTC=10
00198A 0C87 0CF8 0C7F 03327                         DT      B'10000111',B'11111000',B'01111111'     ;BTC=11
001990 0C8F 0CFC 0C7F 03328                         DT      B'10001111',B'11111100',B'01111111'     ;BTC=12
001996 0C8F 0CFC 0C7F 03329                         DT      B'10001111',B'11111100',B'01111111'     ;BTC=13
00199C 0C87 0CF8 0C7F 03330                         DT      B'10000111',B'11111000',B'01111111'     ;BTC=14
0019A2 0C80 0C00 0C7F 03331                         DT      B'10000000',B'00000000',B'01111111'     ;BTC=15
0019A8 0C80 0C00 0CFF 03332                         DT      B'10000000',B'00000000',B'11111111'     ;BTC=16
0019AE 0C80 0C01 0CFF 03333                         DT      B'10000000',B'00000001',B'11111111'     ;BTC=17
0019B4 0C87 0CFF 0CFF 03334                         DT      B'10000111',B'11111111',B'11111111'     ;BTC=18
0019BA 0C8F 0CFF 0CFF 03335                         DT      B'10001111',B'11111111',B'11111111'     ;BTC=19
0019C0 0C8F 0CFF 0CFF 03336                         DT      B'10001111',B'11111111',B'11111111'     ;BTC=1A
0019C6 0C87 0CFF 0CFF 03337                         DT      B'10000111',B'11111111',B'11111111'     ;BTC=1B
0019CC 0C80 0C00 0C7F 03338                         DT      B'10000000',B'00000000',B'01111111'     ;BTC=1C
0019D2 0CC0 0C00 0C7F 03339                         DT      B'11000000',B'00000000',B'01111111'     ;BTC=1D
0019D8 0CE0 0C00 0C7F 03340                         DT      B'11100000',B'00000000',B'01111111'     ;BTC=1E
0019DE 0CFF 0CFF 0CFF 03341                         DT      B'11111111',B'11111111',B'11111111'     ;BTC=1F
                      03342 
                      03343 
Warning[205]: Found directive in column 1. (ORG)
001A00                03344 ORG 0X1A00
001A00                03345 FONT02H_CAP_F
                      03346 
001A00 0E00           03347         MOVLW   0
001A02 6EFB           03348         MOVWF   PCLATU,0
001A04 0E1A           03349         MOVLW   1A
001A06 6EFA           03350         MOVWF   PCLATH,0
                      03351 
                      03352         
                      03353 
                      03354         
001A08 C146 FFE8      03355                         MOVFF   BTCOUNT,WREG
001A0C 90D8           03356                         BCF             STATUS,C
001A0E 36E8           03357                         RLCF    WREG
                      03358 
                      03359                 
001A10 26F9           03360                         ADDWF   PCL,1,0
001A12 0CFF 0CFF 0CFF 03361                         DT      B'11111111',B'11111111',B'11111111'     ;BTC=00
MPASM  5.51       20191122_RGMODULE_RTCV1.ASM   11-25-2019  10:52:29         PAGE 68


LOC  OBJECT CODE     LINE SOURCE TEXT
  VALUE

001A18 0C80 0C00 0C0F 03362                         DT      B'10000000',B'00000000',B'00001111'     ;BTC=01
001A1E 0C80 0C00 0C0F 03363                         DT      B'10000000',B'00000000',B'00001111'     ;BTC=02
001A24 0C80 0C00 0C0F 03364                         DT      B'10000000',B'00000000',B'00001111'     ;BTC=03
001A2A 0C80 0C00 0C0F 03365                         DT      B'10000000',B'00000000',B'00001111'     ;BTC=04
001A30 0C87 0CFF 0CFF 03366                         DT      B'10000111',B'11111111',B'11111111'     ;BTC=05
001A36 0C87 0CFF 0CFF 03367                         DT      B'10000111',B'11111111',B'11111111'     ;BTC=06
001A3C 0C87 0CFF 0CFF 03368                         DT      B'10000111',B'11111111',B'11111111'     ;BTC=07
001A42 0C87 0CFF 0CFF 03369                         DT      B'10000111',B'11111111',B'11111111'     ;BTC=08
001A48 0C87 0CFF 0CFF 03370                         DT      B'10000111',B'11111111',B'11111111'     ;BTC=09
001A4E 0C87 0CFF 0CFF 03371                         DT      B'10000111',B'11111111',B'11111111'     ;BTC=0A
001A54 0C87 0CFF 0CFF 03372                         DT      B'10000111',B'11111111',B'11111111'     ;BTC=0B
001A5A 0C87 0CFF 0CFF 03373                         DT      B'10000111',B'11111111',B'11111111'     ;BTC=0C
001A60 0C87 0CFF 0CFF 03374                         DT      B'10000111',B'11111111',B'11111111'     ;BTC=0D
001A66 0C80 0C00 0C7F 03375                         DT      B'10000000',B'00000000',B'01111111'     ;BTC=0E
001A6C 0C80 0C00 0C7F 03376                         DT      B'10000000',B'00000000',B'01111111'     ;BTC=0F
                      03377 
                      03378 
001A72                03379 FONT02H_LOW_F
                      03380 
001A72 0E00           03381         MOVLW   0
001A74 6EFB           03382         MOVWF   PCLATU,0
001A76 0E1A           03383         MOVLW   1A
001A78 6EFA           03384         MOVWF   PCLATH,0
                      03385 
                      03386         
                      03387 
                      03388         
001A7A C146 FFE8      03389                         MOVFF   BTCOUNT,WREG
001A7E 90D8           03390                         BCF             STATUS,C
001A80 36E8           03391                         RLCF    WREG
                      03392 
                      03393                 
001A82 26F9           03394                         ADDWF   PCL,1,0
001A84 0CFF 0CFF 0CFF 03395                         DT      B'11111111',B'11111111',B'11111111'     ;BTC=00
001A8A 0CF8 0C0F 0CFF 03396                         DT      B'11111000',B'00001111',B'11111111'     ;BTC=01
001A90 0CF0 0C07 0CFF 03397                         DT      B'11110000',B'00000111',B'11111111'     ;BTC=02
001A96 0CE0 0C03 0CFF 03398                         DT      B'11100000',B'00000011',B'11111111'     ;BTC=03
001A9C 0CE1 0CC3 0CFF 03399                         DT      B'11100001',B'11000011',B'11111111'     ;BTC=04
001AA2 0CE3 0CE3 0CFF 03400                         DT      B'11100011',B'11100011',B'11111111'     ;BTC=05
001AA8 0CE3 0CFF 0CFF 03401                         DT      B'11100011',B'11111111',B'11111111'     ;BTC=06
001AAE 0CE3 0CFF 0CFF 03402                         DT      B'11100011',B'11111111',B'11111111'     ;BTC=07
001AB4 0CE3 0CFF 0CFF 03403                         DT      B'11100011',B'11111111',B'11111111'     ;BTC=08
001ABA 0CE3 0CFF 0CFF 03404                         DT      B'11100011',B'11111111',B'11111111'     ;BTC=09
001AC0 0CE3 0CFF 0CFF 03405                         DT      B'11100011',B'11111111',B'11111111'     ;BTC=0A
001AC6 0CE3 0CFF 0CFF 03406                         DT      B'11100011',B'11111111',B'11111111'     ;BTC=0B
001ACC 0CE3 0CFF 0CFF 03407                         DT      B'11100011',B'11111111',B'11111111'     ;BTC=0C
001AD2 0CE3 0CFF 0CFF 03408                         DT      B'11100011',B'11111111',B'11111111'     ;BTC=0D
001AD8 0C80 0C1F 0CFF 03409                         DT      B'10000000',B'00011111',B'11111111'     ;BTC=0E
001ADE 0C80 0C1F 0CFF 03410                         DT      B'10000000',B'00011111',B'11111111'     ;BTC=0F
                      03411 
                      03412 
Warning[205]: Found directive in column 1. (ORG)
001B00                03413 ORG 0X1B00
MPASM  5.51       20191122_RGMODULE_RTCV1.ASM   11-25-2019  10:52:29         PAGE 69


LOC  OBJECT CODE     LINE SOURCE TEXT
  VALUE

001B00                03414 FONT02L_CAP_F
                      03415 
001B00 0E00           03416         MOVLW   0
001B02 6EFB           03417         MOVWF   PCLATU,0
001B04 0E1B           03418         MOVLW   1B
001B06 6EFA           03419         MOVWF   PCLATH,0
                      03420 
                      03421 
                      03422 
                      03423 
001B08 C146 FFE8      03424                         MOVFF   BTCOUNT,WREG
001B0C 90D8           03425                         BCF             STATUS,C
001B0E 36E8           03426                         RLCF    WREG
                      03427 
                      03428                 
001B10 26F9           03429                         ADDWF   PCL,1,0
001B12 0C80 0C00 0C7F 03430                         DT      B'10000000',B'00000000',B'01111111'     ;BTC=10
001B18 0C80 0C00 0C7F 03431                         DT      B'10000000',B'00000000',B'01111111'     ;BTC=11
001B1E 0C87 0CFF 0CFF 03432                         DT      B'10000111',B'11111111',B'11111111'     ;BTC=12
001B24 0C87 0CFF 0CFF 03433                         DT      B'10000111',B'11111111',B'11111111'     ;BTC=13
001B2A 0C87 0CFF 0CFF 03434                         DT      B'10000111',B'11111111',B'11111111'     ;BTC=14
001B30 0C87 0CFF 0CFF 03435                         DT      B'10000111',B'11111111',B'11111111'     ;BTC=15
001B36 0C87 0CFF 0CFF 03436                         DT      B'10000111',B'11111111',B'11111111'     ;BTC=16
001B3C 0C87 0CFF 0CFF 03437                         DT      B'10000111',B'11111111',B'11111111'     ;BTC=17
001B42 0C87 0CFF 0CFF 03438                         DT      B'10000111',B'11111111',B'11111111'     ;BTC=18
001B48 0C87 0CFF 0CFF 03439                         DT      B'10000111',B'11111111',B'11111111'     ;BTC=19
001B4E 0C87 0CFF 0CFF 03440                         DT      B'10000111',B'11111111',B'11111111'     ;BTC=1A
001B54 0C87 0CFF 0CFF 03441                         DT      B'10000111',B'11111111',B'11111111'     ;BTC=1B
001B5A 0C87 0CFF 0CFF 03442                         DT      B'10000111',B'11111111',B'11111111'     ;BTC=1C
001B60 0C87 0CFF 0CFF 03443                         DT      B'10000111',B'11111111',B'11111111'     ;BTC=1D
001B66 0C87 0CFF 0CFF 03444                         DT      B'10000111',B'11111111',B'11111111'     ;BTC=1E
001B6C 0CFF 0CFF 0CFF 03445                         DT      B'11111111',B'11111111',B'11111111'     ;BTC=1F
                      03446 
                      03447 
001B72                03448 FONT02L_LOW_F
                      03449 
001B72 0E00           03450         MOVLW   0
001B74 6EFB           03451         MOVWF   PCLATU,0
001B76 0E1B           03452         MOVLW   1B
001B78 6EFA           03453         MOVWF   PCLATH,0
                      03454 
                      03455 
                      03456 
                      03457 
001B7A C146 FFE8      03458                         MOVFF   BTCOUNT,WREG
001B7E 90D8           03459                         BCF             STATUS,C
001B80 36E8           03460                         RLCF    WREG
                      03461 
                      03462                 
001B82 26F9           03463                         ADDWF   PCL,1,0
001B84 0C80 0C1F 0CFF 03464                         DT      B'10000000',B'00011111',B'11111111'     ;BTC=10
001B8A 0CE3 0CFF 0CFF 03465                         DT      B'11100011',B'11111111',B'11111111'     ;BTC=11
001B90 0CE3 0CFF 0CFF 03466                         DT      B'11100011',B'11111111',B'11111111'     ;BTC=12
MPASM  5.51       20191122_RGMODULE_RTCV1.ASM   11-25-2019  10:52:29         PAGE 70


LOC  OBJECT CODE     LINE SOURCE TEXT
  VALUE

001B96 0CE3 0CFF 0CFF 03467                         DT      B'11100011',B'11111111',B'11111111'     ;BTC=13
001B9C 0CE3 0CFF 0CFF 03468                         DT      B'11100011',B'11111111',B'11111111'     ;BTC=14
001BA2 0CE3 0CFF 0CFF 03469                         DT      B'11100011',B'11111111',B'11111111'     ;BTC=15
001BA8 0CE3 0CFF 0CFF 03470                         DT      B'11100011',B'11111111',B'11111111'     ;BTC=16
001BAE 0CE3 0CFF 0CFF 03471                         DT      B'11100011',B'11111111',B'11111111'     ;BTC=17
001BB4 0CE3 0CFF 0CFF 03472                         DT      B'11100011',B'11111111',B'11111111'     ;BTC=18
001BBA 0CE3 0CFF 0CFF 03473                         DT      B'11100011',B'11111111',B'11111111'     ;BTC=19
001BC0 0CE3 0CFF 0CFF 03474                         DT      B'11100011',B'11111111',B'11111111'     ;BTC=1A
001BC6 0CE3 0CFF 0CFF 03475                         DT      B'11100011',B'11111111',B'11111111'     ;BTC=1B
001BCC 0CE3 0CFF 0CFF 03476                         DT      B'11100011',B'11111111',B'11111111'     ;BTC=1C
001BD2 0CE3 0CFF 0CFF 03477                         DT      B'11100011',B'11111111',B'11111111'     ;BTC=1D
001BD8 0CE3 0CFF 0CFF 03478                         DT      B'11100011',B'11111111',B'11111111'     ;BTC=1E
001BDE 0CFF 0CFF 0CFF 03479                         DT      B'11111111',B'11111111',B'11111111'     ;BTC=1F
                      03480 
                      03481 
                      03482 
                      03483 
                      03484 
Warning[205]: Found directive in column 1. (ORG)
001C00                03485 ORG 0X1C00
001C00                03486 FONT02H_CAP_G
                      03487 
001C00 0E00           03488         MOVLW   0
001C02 6EFB           03489         MOVWF   PCLATU,0
001C04 0E1C           03490         MOVLW   1C
001C06 6EFA           03491         MOVWF   PCLATH,0
                      03492 
                      03493         
                      03494 
                      03495         
001C08 C146 FFE8      03496                         MOVFF   BTCOUNT,WREG
001C0C 90D8           03497                         BCF             STATUS,C
001C0E 36E8           03498                         RLCF    WREG
                      03499 
                      03500                 
001C10 26F9           03501                         ADDWF   PCL,1,0
001C12 0CFF 0CFF 0CFF 03502                         DT      B'11111111',B'11111111',B'11111111'     ;BTC=00
001C18 0CF8 0C00 0C7F 03503                         DT      B'11111000',B'00000000',B'01111111'     ;BTC=01
001C1E 0CF0 0C00 0C3F 03504                         DT      B'11110000',B'00000000',B'00111111'     ;BTC=02
001C24 0CE0 0C00 0C1F 03505                         DT      B'11100000',B'00000000',B'00011111'     ;BTC=03
001C2A 0CC0 0C00 0C0F 03506                         DT      B'11000000',B'00000000',B'00001111'     ;BTC=04
001C30 0C81 0CFE 0C0F 03507                         DT      B'10000001',B'11111110',B'00001111'     ;BTC=05
001C36 0C83 0CFF 0C0F 03508                         DT      B'10000011',B'11111111',B'00001111'     ;BTC=06
001C3C 0C87 0CFF 0C0F 03509                         DT      B'10000111',B'11111111',B'00001111'     ;BTC=07
001C42 0C87 0CFF 0CFF 03510                         DT      B'10000111',B'11111111',B'11111111'     ;BTC=08
001C48 0C87 0CFF 0CFF 03511                         DT      B'10000111',B'11111111',B'11111111'     ;BTC=09
001C4E 0C87 0CFF 0CFF 03512                         DT      B'10000111',B'11111111',B'11111111'     ;BTC=0A
001C54 0C87 0CFF 0CFF 03513                         DT      B'10000111',B'11111111',B'11111111'     ;BTC=0B
001C5A 0C87 0CFF 0CFF 03514                         DT      B'10000111',B'11111111',B'11111111'     ;BTC=0C
001C60 0C87 0CFF 0CFF 03515                         DT      B'10000111',B'11111111',B'11111111'     ;BTC=0D
001C66 0C87 0CFF 0CFF 03516                         DT      B'10000111',B'11111111',B'11111111'     ;BTC=0E
001C6C 0C87 0CC0 0C0F 03517                         DT      B'10000111',B'11000000',B'00001111'     ;BTC=0F
                      03518 
MPASM  5.51       20191122_RGMODULE_RTCV1.ASM   11-25-2019  10:52:29         PAGE 71


LOC  OBJECT CODE     LINE SOURCE TEXT
  VALUE

001C72                03519 FONT02H_LOW_G
                      03520 
001C72 0E00           03521         MOVLW   0
001C74 6EFB           03522         MOVWF   PCLATU,0
001C76 0E1C           03523         MOVLW   1C
001C78 6EFA           03524         MOVWF   PCLATH,0
                      03525 
                      03526         
                      03527 
                      03528         
001C7A C146 FFE8      03529                         MOVFF   BTCOUNT,WREG
001C7E 90D8           03530                         BCF             STATUS,C
001C80 36E8           03531                         RLCF    WREG
                      03532 
                      03533                 
001C82 26F9           03534                         ADDWF   PCL,1,0
001C84 0CFF 0CFF 0CFF 03535                         DT      B'11111111',B'11111111',B'11111111'     ;BTC=00
001C8A 0CFF 0CFF 0CFF 03536                         DT      B'11111111',B'11111111',B'11111111'     ;BTC=01
001C90 0CFF 0CFF 0CFF 03537                         DT      B'11111111',B'11111111',B'11111111'     ;BTC=02
001C96 0CFF 0CFF 0CFF 03538                         DT      B'11111111',B'11111111',B'11111111'     ;BTC=03
001C9C 0CFF 0CFF 0CFF 03539                         DT      B'11111111',B'11111111',B'11111111'     ;BTC=04
001CA2 0CFF 0CFC 0C7F 03540                         DT      B'11111111',B'11111100',B'01111111'     ;BTC=05
001CA8 0CE0 0C00 0C7F 03541                         DT      B'11100000',B'00000000',B'01111111'     ;BTC=06
001CAE 0CC0 0C00 0C7F 03542                         DT      B'11000000',B'00000000',B'01111111'     ;BTC=07
001CB4 0C80 0C00 0C7F 03543                         DT      B'10000000',B'00000000',B'01111111'     ;BTC=08
001CBA 0C87 0CF8 0C7F 03544                         DT      B'10000111',B'11111000',B'01111111'     ;BTC=09
001CC0 0C8F 0CFC 0C7F 03545                         DT      B'10001111',B'11111100',B'01111111'     ;BTC=0A
001CC6 0C8F 0CFC 0C7F 03546                         DT      B'10001111',B'11111100',B'01111111'     ;BTC=0B
001CCC 0C8F 0CFC 0C7F 03547                         DT      B'10001111',B'11111100',B'01111111'     ;BTC=0C
001CD2 0C8F 0CFC 0C7F 03548                         DT      B'10001111',B'11111100',B'01111111'     ;BTC=0D
001CD8 0C8F 0CFC 0C7F 03549                         DT      B'10001111',B'11111100',B'01111111'     ;BTC=0E
001CDE 0C8F 0CFC 0C7F 03550                         DT      B'10001111',B'11111100',B'01111111'     ;BTC=0F
                      03551 
Warning[205]: Found directive in column 1. (ORG)
001D00                03552 ORG 0X1D00
001D00                03553 FONT02L_CAP_G
                      03554 
001D00 0E00           03555         MOVLW   0
001D02 6EFB           03556         MOVWF   PCLATU,0
001D04 0E1D           03557         MOVLW   1D
001D06 6EFA           03558         MOVWF   PCLATH,0
                      03559 
                      03560 
                      03561 
                      03562 
001D08 C146 FFE8      03563                         MOVFF   BTCOUNT,WREG
001D0C 90D8           03564                         BCF             STATUS,C
001D0E 36E8           03565                         RLCF    WREG
                      03566 
                      03567                 
001D10 26F9           03568                         ADDWF   PCL,1,0
001D12 0C87 0CC0 0C0F 03569                         DT      B'10000111',B'11000000',B'00001111'     ;BTC=10
001D18 0C87 0CC0 0C0F 03570                         DT      B'10000111',B'11000000',B'00001111'     ;BTC=11
MPASM  5.51       20191122_RGMODULE_RTCV1.ASM   11-25-2019  10:52:29         PAGE 72


LOC  OBJECT CODE     LINE SOURCE TEXT
  VALUE

001D1E 0C87 0CC0 0C0F 03571                         DT      B'10000111',B'11000000',B'00001111'     ;BTC=12
001D24 0C87 0CFF 0C0F 03572                         DT      B'10000111',B'11111111',B'00001111'     ;BTC=13
001D2A 0C87 0CFF 0C0F 03573                         DT      B'10000111',B'11111111',B'00001111'     ;BTC=14
001D30 0C87 0CFF 0C0F 03574                         DT      B'10000111',B'11111111',B'00001111'     ;BTC=15
001D36 0C87 0CFF 0C0F 03575                         DT      B'10000111',B'11111111',B'00001111'     ;BTC=16
001D3C 0C87 0CFF 0C0F 03576                         DT      B'10000111',B'11111111',B'00001111'     ;BTC=17
001D42 0C87 0CFF 0C0F 03577                         DT      B'10000111',B'11111111',B'00001111'     ;BTC=18
001D48 0C83 0CFE 0C0F 03578                         DT      B'10000011',B'11111110',B'00001111'     ;BTC=19
001D4E 0C81 0CFC 0C0F 03579                         DT      B'10000001',B'11111100',B'00001111'     ;BTC=1A
001D54 0C80 0C00 0C1F 03580                         DT      B'10000000',B'00000000',B'00011111'     ;BTC=1B
001D5A 0CC0 0C00 0C3F 03581                         DT      B'11000000',B'00000000',B'00111111'     ;BTC=1C
001D60 0CE0 0C00 0C7F 03582                         DT      B'11100000',B'00000000',B'01111111'     ;BTC=1D
001D66 0CF0 0C00 0CFF 03583                         DT      B'11110000',B'00000000',B'11111111'     ;BTC=1E
001D6C 0CFF 0CFF 0CFF 03584                         DT      B'11111111',B'11111111',B'11111111'     ;BTC=1F
                      03585 
                      03586 
001D72                03587 FONT02L_LOW_G
                      03588 
001D72 0E00           03589         MOVLW   0
001D74 6EFB           03590         MOVWF   PCLATU,0
001D76 0E1D           03591         MOVLW   1D
001D78 6EFA           03592         MOVWF   PCLATH,0
                      03593 
                      03594 
                      03595 
                      03596 
001D7A C146 FFE8      03597                         MOVFF   BTCOUNT,WREG
001D7E 90D8           03598                         BCF             STATUS,C
001D80 36E8           03599                         RLCF    WREG
                      03600 
                      03601                 
001D82 26F9           03602                         ADDWF   PCL,1,0
001D84 0C8F 0CFC 0C7F 03603                         DT      B'10001111',B'11111100',B'01111111'     ;BTC=10
001D8A 0C87 0CF8 0C7F 03604                         DT      B'10000111',B'11111000',B'01111111'     ;BTC=11
001D90 0C80 0C00 0C7F 03605                         DT      B'10000000',B'00000000',B'01111111'     ;BTC=12
001D96 0CC0 0C00 0C7F 03606                         DT      B'11000000',B'00000000',B'01111111'     ;BTC=13
001D9C 0CE0 0C00 0C7F 03607                         DT      B'11100000',B'00000000',B'01111111'     ;BTC=14
001DA2 0CFF 0CFC 0C7F 03608                         DT      B'11111111',B'11111100',B'01111111'     ;BTC=15
001DA8 0CFF 0CFC 0C7F 03609                         DT      B'11111111',B'11111100',B'01111111'     ;BTC=16
001DAE 0CFF 0CFC 0C7F 03610                         DT      B'11111111',B'11111100',B'01111111'     ;BTC=17
001DB4 0CFF 0CFC 0C7F 03611                         DT      B'11111111',B'11111100',B'01111111'     ;BTC=18
001DBA 0CFF 0CFC 0C7F 03612                         DT      B'11111111',B'11111100',B'01111111'     ;BTC=19
001DC0 0C8F 0CFC 0C7F 03613                         DT      B'10001111',B'11111100',B'01111111'     ;BTC=1A
001DC6 0C8F 0CFC 0C7F 03614                         DT      B'10001111',B'11111100',B'01111111'     ;BTC=1B
001DCC 0C87 0CF8 0C7F 03615                         DT      B'10000111',B'11111000',B'01111111'     ;BTC=1C
001DD2 0C80 0C00 0C7F 03616                         DT      B'10000000',B'00000000',B'01111111'     ;BTC=1D
001DD8 0CC0 0C00 0CFF 03617                         DT      B'11000000',B'00000000',B'11111111'     ;BTC=1E
001DDE 0CE0 0C01 0CFF 03618                         DT      B'11100000',B'00000001',B'11111111'     ;BTC=1F
                      03619 
                      03620 
Warning[205]: Found directive in column 1. (ORG)
001E00                03621 ORG 0X1E00
001E00                03622 FONT02H_CAP_H
MPASM  5.51       20191122_RGMODULE_RTCV1.ASM   11-25-2019  10:52:29         PAGE 73


LOC  OBJECT CODE     LINE SOURCE TEXT
  VALUE

                      03623 
001E00 0E00           03624         MOVLW   0
001E02 6EFB           03625         MOVWF   PCLATU,0
001E04 0E1E           03626         MOVLW   1E
001E06 6EFA           03627         MOVWF   PCLATH,0
                      03628 
                      03629         
                      03630 
                      03631         
001E08 C146 FFE8      03632                         MOVFF   BTCOUNT,WREG
001E0C 90D8           03633                         BCF             STATUS,C
001E0E 36E8           03634                         RLCF    WREG
                      03635 
                      03636                 
001E10 26F9           03637                         ADDWF   PCL,1,0
001E12 0CFF 0CFF 0CFF 03638                         DT      B'11111111',B'11111111',B'11111111'     ;BTC=00
001E18 0C87 0CFF 0C0F 03639                         DT      B'10000111',B'11111111',B'00001111'     ;BTC=01
001E1E 0C87 0CFF 0C0F 03640                         DT      B'10000111',B'11111111',B'00001111'     ;BTC=02
001E24 0C87 0CFF 0C0F 03641                         DT      B'10000111',B'11111111',B'00001111'     ;BTC=03
001E2A 0C87 0CFF 0C0F 03642                         DT      B'10000111',B'11111111',B'00001111'     ;BTC=04
001E30 0C87 0CFF 0C0F 03643                         DT      B'10000111',B'11111111',B'00001111'     ;BTC=05
001E36 0C87 0CFF 0C0F 03644                         DT      B'10000111',B'11111111',B'00001111'     ;BTC=06
001E3C 0C87 0CFF 0C0F 03645                         DT      B'10000111',B'11111111',B'00001111'     ;BTC=07
001E42 0C87 0CFF 0C0F 03646                         DT      B'10000111',B'11111111',B'00001111'     ;BTC=08
001E48 0C87 0CFF 0C0F 03647                         DT      B'10000111',B'11111111',B'00001111'     ;BTC=09
001E4E 0C87 0CFF 0C0F 03648                         DT      B'10000111',B'11111111',B'00001111'     ;BTC=0A
001E54 0C87 0CFF 0C0F 03649                         DT      B'10000111',B'11111111',B'00001111'     ;BTC=0B
001E5A 0C87 0CFF 0C0F 03650                         DT      B'10000111',B'11111111',B'00001111'     ;BTC=0C
001E60 0C87 0CFF 0C0F 03651                         DT      B'10000111',B'11111111',B'00001111'     ;BTC=0D
001E66 0C80 0C00 0C0F 03652                         DT      B'10000000',B'00000000',B'00001111'     ;BTC=0E
001E6C 0C80 0C00 0C0F 03653                         DT      B'10000000',B'00000000',B'00001111'     ;BTC=0F
                      03654 
                      03655 
001E72                03656 FONT02H_LOW_H
                      03657 
001E72 0E00           03658         MOVLW   0
001E74 6EFB           03659         MOVWF   PCLATU,0
001E76 0E1E           03660         MOVLW   1E
001E78 6EFA           03661         MOVWF   PCLATH,0
                      03662 
                      03663         
                      03664 
                      03665         
001E7A C146 FFE8      03666                         MOVFF   BTCOUNT,WREG
001E7E 90D8           03667                         BCF             STATUS,C
001E80 36E8           03668                         RLCF    WREG
                      03669 
                      03670                 
001E82 26F9           03671                         ADDWF   PCL,1,0
001E84 0CFF 0CFF 0CFF 03672                         DT      B'11111111',B'11111111',B'11111111'     ;BTC=00
001E8A 0C8F 0CFF 0CFF 03673                         DT      B'10001111',B'11111111',B'11111111'     ;BTC=01
001E90 0C8F 0CFF 0CFF 03674                         DT      B'10001111',B'11111111',B'11111111'     ;BTC=02
001E96 0C8F 0CFF 0CFF 03675                         DT      B'10001111',B'11111111',B'11111111'     ;BTC=03
MPASM  5.51       20191122_RGMODULE_RTCV1.ASM   11-25-2019  10:52:29         PAGE 74


LOC  OBJECT CODE     LINE SOURCE TEXT
  VALUE

001E9C 0C8F 0CFF 0CFF 03676                         DT      B'10001111',B'11111111',B'11111111'     ;BTC=04
001EA2 0C8F 0CFF 0CFF 03677                         DT      B'10001111',B'11111111',B'11111111'     ;BTC=05
001EA8 0C8F 0CFF 0CFF 03678                         DT      B'10001111',B'11111111',B'11111111'     ;BTC=06
001EAE 0C8F 0CFF 0CFF 03679                         DT      B'10001111',B'11111111',B'11111111'     ;BTC=07
001EB4 0C8F 0CFF 0CFF 03680                         DT      B'10001111',B'11111111',B'11111111'     ;BTC=08
001EBA 0C8F 0CFF 0CFF 03681                         DT      B'10001111',B'11111111',B'11111111'     ;BTC=09
001EC0 0C8F 0CFF 0CFF 03682                         DT      B'10001111',B'11111111',B'11111111'     ;BTC=0A
001EC6 0C8F 0CFF 0CFF 03683                         DT      B'10001111',B'11111111',B'11111111'     ;BTC=0B
001ECC 0C8F 0CFF 0CFF 03684                         DT      B'10001111',B'11111111',B'11111111'     ;BTC=0C
001ED2 0C8F 0CFF 0CFF 03685                         DT      B'10001111',B'11111111',B'11111111'     ;BTC=0D
001ED8 0C8F 0CFF 0CFF 03686                         DT      B'10001111',B'11111111',B'11111111'     ;BTC=0E
001EDE 0C8F 0CFF 0CFF 03687                         DT      B'10001111',B'11111111',B'11111111'     ;BTC=0F
                      03688 
                      03689 
                      03690 
Warning[205]: Found directive in column 1. (ORG)
001F00                03691 ORG 0X1F00
001F00                03692 FONT02L_CAP_H
                      03693 
001F00 0E00           03694         MOVLW   0
001F02 6EFB           03695         MOVWF   PCLATU,0
001F04 0E1F           03696         MOVLW   1F
001F06 6EFA           03697         MOVWF   PCLATH,0
                      03698 
                      03699 
                      03700 
                      03701 
001F08 C146 FFE8      03702                         MOVFF   BTCOUNT,WREG
001F0C 90D8           03703                         BCF             STATUS,C
001F0E 36E8           03704                         RLCF    WREG
                      03705 
                      03706                 
001F10 26F9           03707                         ADDWF   PCL,1,0
001F12 0C80 0C00 0C0F 03708                         DT      B'10000000',B'00000000',B'00001111'     ;BTC=10
001F18 0C80 0C00 0C0F 03709                         DT      B'10000000',B'00000000',B'00001111'     ;BTC=11
001F1E 0C87 0CFF 0C0F 03710                         DT      B'10000111',B'11111111',B'00001111'     ;BTC=12
001F24 0C87 0CFF 0C0F 03711                         DT      B'10000111',B'11111111',B'00001111'     ;BTC=13
001F2A 0C87 0CFF 0C0F 03712                         DT      B'10000111',B'11111111',B'00001111'     ;BTC=14
001F30 0C87 0CFF 0C0F 03713                         DT      B'10000111',B'11111111',B'00001111'     ;BTC=15
001F36 0C87 0CFF 0C0F 03714                         DT      B'10000111',B'11111111',B'00001111'     ;BTC=16
001F3C 0C87 0CFF 0C0F 03715                         DT      B'10000111',B'11111111',B'00001111'     ;BTC=17
001F42 0C87 0CFF 0C0F 03716                         DT      B'10000111',B'11111111',B'00001111'     ;BTC=18
001F48 0C87 0CFF 0C0F 03717                         DT      B'10000111',B'11111111',B'00001111'     ;BTC=19
001F4E 0C87 0CFF 0C0F 03718                         DT      B'10000111',B'11111111',B'00001111'     ;BTC=1A
001F54 0C87 0CFF 0C0F 03719                         DT      B'10000111',B'11111111',B'00001111'     ;BTC=1B
001F5A 0C87 0CFF 0C0F 03720                         DT      B'10000111',B'11111111',B'00001111'     ;BTC=1C
001F60 0C87 0CFF 0C0F 03721                         DT      B'10000111',B'11111111',B'00001111'     ;BTC=1D
001F66 0C87 0CFF 0C0F 03722                         DT      B'10000111',B'11111111',B'00001111'     ;BTC=1E
001F6C 0CFF 0CFF 0CFF 03723                         DT      B'11111111',B'11111111',B'11111111'     ;BTC=1F
                      03724 
                      03725 
001F72                03726 FONT02L_LOW_H
                      03727 
MPASM  5.51       20191122_RGMODULE_RTCV1.ASM   11-25-2019  10:52:29         PAGE 75


LOC  OBJECT CODE     LINE SOURCE TEXT
  VALUE

001F72 0E00           03728         MOVLW   0
001F74 6EFB           03729         MOVWF   PCLATU,0
001F76 0E1F           03730         MOVLW   1F
001F78 6EFA           03731         MOVWF   PCLATH,0
                      03732 
                      03733 
                      03734 
                      03735 
001F7A C146 FFE8      03736                         MOVFF   BTCOUNT,WREG
001F7E 90D8           03737                         BCF             STATUS,C
001F80 36E8           03738                         RLCF    WREG
                      03739 
                      03740                 
001F82 26F9           03741                         ADDWF   PCL,1,0
001F84 0C88 0C03 0CFF 03742                         DT      B'10001000',B'00000011',B'11111111'     ;BTC=10
001F8A 0C80 0C01 0CFF 03743                         DT      B'10000000',B'00000001',B'11111111'     ;BTC=11
001F90 0C80 0C00 0CFF 03744                         DT      B'10000000',B'00000000',B'11111111'     ;BTC=12
001F96 0C87 0CF0 0CFF 03745                         DT      B'10000111',B'11110000',B'11111111'     ;BTC=13
001F9C 0C8F 0CF8 0CFF 03746                         DT      B'10001111',B'11111000',B'11111111'     ;BTC=14
001FA2 0C8F 0CF8 0CFF 03747                         DT      B'10001111',B'11111000',B'11111111'     ;BTC=15
001FA8 0C8F 0CF8 0CFF 03748                         DT      B'10001111',B'11111000',B'11111111'     ;BTC=16
001FAE 0C8F 0CF8 0CFF 03749                         DT      B'10001111',B'11111000',B'11111111'     ;BTC=17
001FB4 0C8F 0CF8 0CFF 03750                         DT      B'10001111',B'11111000',B'11111111'     ;BTC=18
001FBA 0C8F 0CF8 0CFF 03751                         DT      B'10001111',B'11111000',B'11111111'     ;BTC=19
001FC0 0C8F 0CF8 0CFF 03752                         DT      B'10001111',B'11111000',B'11111111'     ;BTC=1A
001FC6 0C8F 0CF8 0CFF 03753                         DT      B'10001111',B'11111000',B'11111111'     ;BTC=1B
001FCC 0C8F 0CF8 0CFF 03754                         DT      B'10001111',B'11111000',B'11111111'     ;BTC=1C
001FD2 0C8F 0CF8 0CFF 03755                         DT      B'10001111',B'11111000',B'11111111'     ;BTC=1D
001FD8 0C8F 0CF8 0CFF 03756                         DT      B'10001111',B'11111000',B'11111111'     ;BTC=1E
001FDE 0CFF 0CFF 0CFF 03757                         DT      B'11111111',B'11111111',B'11111111'     ;BTC=1F
                      03758 
                      03759 
                      03760 
Warning[205]: Found directive in column 1. (ORG)
002000                03761 ORG 0X2000
002000                03762 FONT02H_CAP_I
                      03763 
002000 0E00           03764         MOVLW   0
002002 6EFB           03765         MOVWF   PCLATU,0
002004 0E20           03766         MOVLW   20
002006 6EFA           03767         MOVWF   PCLATH,0
                      03768 
                      03769         
                      03770 
                      03771         
002008 C146 FFE8      03772                         MOVFF   BTCOUNT,WREG
00200C 90D8           03773                         BCF             STATUS,C
00200E 36E8           03774                         RLCF    WREG
                      03775 
                      03776                 
002010 26F9           03777                         ADDWF   PCL,1,0
002012 0CFF 0CFF 0CFF 03778                         DT      B'11111111',B'11111111',B'11111111'     ;BTC=00
002018 0C80 0C00 0C7F 03779                         DT      B'10000000',B'00000000',B'01111111'     ;BTC=01
MPASM  5.51       20191122_RGMODULE_RTCV1.ASM   11-25-2019  10:52:29         PAGE 76


LOC  OBJECT CODE     LINE SOURCE TEXT
  VALUE

00201E 0C80 0C00 0C7F 03780                         DT      B'10000000',B'00000000',B'01111111'     ;BTC=02
002024 0C80 0C00 0C7F 03781                         DT      B'10000000',B'00000000',B'01111111'     ;BTC=03
00202A 0C80 0C00 0C7F 03782                         DT      B'10000000',B'00000000',B'01111111'     ;BTC=04
002030 0CFE 0C1F 0CFF 03783                         DT      B'11111110',B'00011111',B'11111111'     ;BTC=05
002036 0CFE 0C1F 0CFF 03784                         DT      B'11111110',B'00011111',B'11111111'     ;BTC=06
00203C 0CFE 0C1F 0CFF 03785                         DT      B'11111110',B'00011111',B'11111111'     ;BTC=07
002042 0CFE 0C1F 0CFF 03786                         DT      B'11111110',B'00011111',B'11111111'     ;BTC=08
002048 0CFE 0C1F 0CFF 03787                         DT      B'11111110',B'00011111',B'11111111'     ;BTC=09
00204E 0CFE 0C1F 0CFF 03788                         DT      B'11111110',B'00011111',B'11111111'     ;BTC=0A
002054 0CFE 0C1F 0CFF 03789                         DT      B'11111110',B'00011111',B'11111111'     ;BTC=0B
00205A 0CFE 0C1F 0CFF 03790                         DT      B'11111110',B'00011111',B'11111111'     ;BTC=0C
002060 0CFE 0C1F 0CFF 03791                         DT      B'11111110',B'00011111',B'11111111'     ;BTC=0D
002066 0CFE 0C1F 0CFF 03792                         DT      B'11111110',B'00011111',B'11111111'     ;BTC=0E
00206C 0CFE 0C1F 0CFF 03793                         DT      B'11111110',B'00011111',B'11111111'     ;BTC=0F
                      03794 
                      03795 
002072                03796 FONT02H_LOW_I
                      03797 
002072 0E00           03798         MOVLW   0
002074 6EFB           03799         MOVWF   PCLATU,0
002076 0E20           03800         MOVLW   20
002078 6EFA           03801         MOVWF   PCLATH,0
                      03802 
                      03803         
                      03804 
                      03805         
00207A C146 FFE8      03806                         MOVFF   BTCOUNT,WREG
00207E 90D8           03807                         BCF             STATUS,C
002080 36E8           03808                         RLCF    WREG
                      03809 
                      03810                 
002082 26F9           03811                         ADDWF   PCL,1,0
002084 0CFF 0CFF 0CFF 03812                         DT      B'11111111',B'11111111',B'11111111'     ;BTC=00
00208A 0CFF 0CFF 0CFF 03813                         DT      B'11111111',B'11111111',B'11111111'     ;BTC=01
002090 0CFF 0CFF 0CFF 03814                         DT      B'11111111',B'11111111',B'11111111'     ;BTC=02
002096 0CFF 0CFF 0CFF 03815                         DT      B'11111111',B'11111111',B'11111111'     ;BTC=03
00209C 0CFF 0CFF 0CFF 03816                         DT      B'11111111',B'11111111',B'11111111'     ;BTC=04
0020A2 0CFF 0CFF 0CFF 03817                         DT      B'11111111',B'11111111',B'11111111'     ;BTC=05
0020A8 0CFF 0CFF 0CFF 03818                         DT      B'11111111',B'11111111',B'11111111'     ;BTC=06
0020AE 0CFF 0CFF 0CFF 03819                         DT      B'11111111',B'11111111',B'11111111'     ;BTC=07
0020B4 0CFF 0CFF 0CFF 03820                         DT      B'11111111',B'11111111',B'11111111'     ;BTC=08
0020BA 0CFF 0CFF 0CFF 03821                         DT      B'11111111',B'11111111',B'11111111'     ;BTC=09
0020C0 0CDF 0CFF 0CFF 03822                         DT      B'11011111',B'11111111',B'11111111'     ;BTC=0A
0020C6 0C8F 0CFF 0CFF 03823                         DT      B'10001111',B'11111111',B'11111111'     ;BTC=0B
0020CC 0C8F 0CFF 0CFF 03824                         DT      B'10001111',B'11111111',B'11111111'     ;BTC=0C
0020D2 0CDF 0CFF 0CFF 03825                         DT      B'11011111',B'11111111',B'11111111'     ;BTC=0D
0020D8 0CFF 0CFF 0CFF 03826                         DT      B'11111111',B'11111111',B'11111111'     ;BTC=0E
0020DE 0CFF 0CFF 0CFF 03827                         DT      B'11111111',B'11111111',B'11111111'     ;BTC=0F
                      03828 
                      03829 
                      03830 
Warning[205]: Found directive in column 1. (ORG)
002100                03831 ORG 0X2100
MPASM  5.51       20191122_RGMODULE_RTCV1.ASM   11-25-2019  10:52:29         PAGE 77


LOC  OBJECT CODE     LINE SOURCE TEXT
  VALUE

002100                03832 FONT02L_CAP_I
                      03833 
002100 0E00           03834         MOVLW   0
002102 6EFB           03835         MOVWF   PCLATU,0
002104 0E21           03836         MOVLW   21
002106 6EFA           03837         MOVWF   PCLATH,0
                      03838 
                      03839 
                      03840 
                      03841 
002108 C146 FFE8      03842                         MOVFF   BTCOUNT,WREG
00210C 90D8           03843                         BCF             STATUS,C
00210E 36E8           03844                         RLCF    WREG
                      03845 
                      03846                 
002110 26F9           03847                         ADDWF   PCL,1,0
002112 0CFE 0C1F 0CFF 03848                         DT      B'11111110',B'00011111',B'11111111'     ;BTC=10
002118 0CFE 0C1F 0CFF 03849                         DT      B'11111110',B'00011111',B'11111111'     ;BTC=11
00211E 0CFE 0C1F 0CFF 03850                         DT      B'11111110',B'00011111',B'11111111'     ;BTC=12
002124 0CFE 0C1F 0CFF 03851                         DT      B'11111110',B'00011111',B'11111111'     ;BTC=13
00212A 0CFE 0C1F 0CFF 03852                         DT      B'11111110',B'00011111',B'11111111'     ;BTC=14
002130 0CFE 0C1F 0CFF 03853                         DT      B'11111110',B'00011111',B'11111111'     ;BTC=15
002136 0CFE 0C1F 0CFF 03854                         DT      B'11111110',B'00011111',B'11111111'     ;BTC=16
00213C 0CFE 0C1F 0CFF 03855                         DT      B'11111110',B'00011111',B'11111111'     ;BTC=17
002142 0CFE 0C1F 0CFF 03856                         DT      B'11111110',B'00011111',B'11111111'     ;BTC=18
002148 0CFE 0C1F 0CFF 03857                         DT      B'11111110',B'00011111',B'11111111'     ;BTC=19
00214E 0CFE 0C1F 0CFF 03858                         DT      B'11111110',B'00011111',B'11111111'     ;BTC=1A
002154 0C80 0C00 0CFF 03859                         DT      B'10000000',B'00000000',B'11111111'     ;BTC=1B
00215A 0C80 0C00 0CFF 03860                         DT      B'10000000',B'00000000',B'11111111'     ;BTC=1C
002160 0C80 0C00 0CFF 03861                         DT      B'10000000',B'00000000',B'11111111'     ;BTC=1D
002166 0C80 0C00 0CFF 03862                         DT      B'10000000',B'00000000',B'11111111'     ;BTC=1E
00216C 0CFF 0CFF 0CFF 03863                         DT      B'11111111',B'11111111',B'11111111'     ;BTC=1F
                      03864 
                      03865 
002172                03866 FONT02L_LOW_I
                      03867 
002172 0E00           03868         MOVLW   0
002174 6EFB           03869         MOVWF   PCLATU,0
002176 0E21           03870         MOVLW   21
002178 6EFA           03871         MOVWF   PCLATH,0
                      03872 
                      03873 
                      03874 
                      03875 
00217A C146 FFE8      03876                         MOVFF   BTCOUNT,WREG
00217E 90D8           03877                         BCF             STATUS,C
002180 36E8           03878                         RLCF    WREG
                      03879 
                      03880                 
002182 26F9           03881                         ADDWF   PCL,1,0
002184 0C8F 0CFF 0CFF 03882                         DT      B'10001111',B'11111111',B'11111111'     ;BTC=10
00218A 0C8F 0CFF 0CFF 03883                         DT      B'10001111',B'11111111',B'11111111'     ;BTC=11
002190 0C8F 0CFF 0CFF 03884                         DT      B'10001111',B'11111111',B'11111111'     ;BTC=12
MPASM  5.51       20191122_RGMODULE_RTCV1.ASM   11-25-2019  10:52:29         PAGE 78


LOC  OBJECT CODE     LINE SOURCE TEXT
  VALUE

002196 0C8F 0CFF 0CFF 03885                         DT      B'10001111',B'11111111',B'11111111'     ;BTC=13
00219C 0C8F 0CFF 0CFF 03886                         DT      B'10001111',B'11111111',B'11111111'     ;BTC=14
0021A2 0C8F 0CFF 0CFF 03887                         DT      B'10001111',B'11111111',B'11111111'     ;BTC=15
0021A8 0C8F 0CFF 0CFF 03888                         DT      B'10001111',B'11111111',B'11111111'     ;BTC=16
0021AE 0C8F 0CFF 0CFF 03889                         DT      B'10001111',B'11111111',B'11111111'     ;BTC=17
0021B4 0C8F 0CFF 0CFF 03890                         DT      B'10001111',B'11111111',B'11111111'     ;BTC=18
0021BA 0C8F 0CFF 0CFF 03891                         DT      B'10001111',B'11111111',B'11111111'     ;BTC=19
0021C0 0C8F 0CFF 0CFF 03892                         DT      B'10001111',B'11111111',B'11111111'     ;BTC=1A
0021C6 0C8F 0CFF 0CFF 03893                         DT      B'10001111',B'11111111',B'11111111'     ;BTC=1B
0021CC 0C8F 0CFF 0CFF 03894                         DT      B'10001111',B'11111111',B'11111111'     ;BTC=1C
0021D2 0C8F 0CFF 0CFF 03895                         DT      B'10001111',B'11111111',B'11111111'     ;BTC=1D
0021D8 0C8F 0CFF 0CFF 03896                         DT      B'10001111',B'11111111',B'11111111'     ;BTC=1E
0021DE 0CFF 0CFF 0CFF 03897                         DT      B'11111111',B'11111111',B'11111111'     ;BTC=1F
                      03898 
                      03899 
                      03900 
Warning[205]: Found directive in column 1. (ORG)
002200                03901 ORG 0X2200
002200                03902 FONT02H_CAP_J
                      03903 
002200 0E00           03904         MOVLW   0
002202 6EFB           03905         MOVWF   PCLATU,0
002204 0E22           03906         MOVLW   22
002206 6EFA           03907         MOVWF   PCLATH,0
                      03908 
                      03909         
                      03910 
                      03911         
002208 C146 FFE8      03912                         MOVFF   BTCOUNT,WREG
00220C 90D8           03913                         BCF             STATUS,C
00220E 36E8           03914                         RLCF    WREG
                      03915 
                      03916                 
002210 26F9           03917                         ADDWF   PCL,1,0
002212 0CFF 0CFF 0CFF 03918                         DT      B'11111111',B'11111111',B'11111111'     ;BTC=00
002218 0CFF 0CC0 0C0F 03919                         DT      B'11111111',B'11000000',B'00001111'     ;BTC=01
00221E 0CFF 0CC0 0C0F 03920                         DT      B'11111111',B'11000000',B'00001111'     ;BTC=02
002224 0CFF 0CC0 0C0F 03921                         DT      B'11111111',B'11000000',B'00001111'     ;BTC=03
00222A 0CFF 0CFC 0C3F 03922                         DT      B'11111111',B'11111100',B'00111111'     ;BTC=04
002230 0CFF 0CFC 0C3F 03923                         DT      B'11111111',B'11111100',B'00111111'     ;BTC=05
002236 0CFF 0CFC 0C3F 03924                         DT      B'11111111',B'11111100',B'00111111'     ;BTC=06
00223C 0CFF 0CFC 0C3F 03925                         DT      B'11111111',B'11111100',B'00111111'     ;BTC=07
002242 0CFF 0CFC 0C3F 03926                         DT      B'11111111',B'11111100',B'00111111'     ;BTC=08
002248 0CFF 0CFC 0C3F 03927                         DT      B'11111111',B'11111100',B'00111111'     ;BTC=09
00224E 0CFF 0CFC 0C3F 03928                         DT      B'11111111',B'11111100',B'00111111'     ;BTC=0A
002254 0CFF 0CFC 0C3F 03929                         DT      B'11111111',B'11111100',B'00111111'     ;BTC=0B
00225A 0CFF 0CFC 0C3F 03930                         DT      B'11111111',B'11111100',B'00111111'     ;BTC=0C
002260 0CFF 0CFC 0C3F 03931                         DT      B'11111111',B'11111100',B'00111111'     ;BTC=0D
002266 0CFF 0CFC 0C3F 03932                         DT      B'11111111',B'11111100',B'00111111'     ;BTC=0E
00226C 0CFF 0CFC 0C3F 03933                         DT      B'11111111',B'11111100',B'00111111'     ;BTC=0F
                      03934 
                      03935 
002272                03936 FONT02H_LOW_J
MPASM  5.51       20191122_RGMODULE_RTCV1.ASM   11-25-2019  10:52:29         PAGE 79


LOC  OBJECT CODE     LINE SOURCE TEXT
  VALUE

                      03937 
002272 0E00           03938         MOVLW   0
002274 6EFB           03939         MOVWF   PCLATU,0
002276 0E22           03940         MOVLW   22
002278 6EFA           03941         MOVWF   PCLATH,0
                      03942 
                      03943         
                      03944 
                      03945         
00227A C146 FFE8      03946                         MOVFF   BTCOUNT,WREG
00227E 90D8           03947                         BCF             STATUS,C
002280 36E8           03948                         RLCF    WREG
                      03949 
                      03950                 
002282 26F9           03951                         ADDWF   PCL,1,0
002284 0CFF 0CFF 0CFF 03952                         DT      B'11111111',B'11111111',B'11111111'     ;BTC=00
00228A 0CFF 0CFF 0CFF 03953                         DT      B'11111111',B'11111111',B'11111111'     ;BTC=01
002290 0CFF 0CFF 0CFF 03954                         DT      B'11111111',B'11111111',B'11111111'     ;BTC=02
002296 0CFF 0CFF 0CFF 03955                         DT      B'11111111',B'11111111',B'11111111'     ;BTC=03
00229C 0CFF 0CFD 0CFF 03956                         DT      B'11111111',B'11111101',B'11111111'     ;BTC=04
0022A2 0CFF 0CF8 0CFF 03957                         DT      B'11111111',B'11111000',B'11111111'     ;BTC=05
0022A8 0CFF 0CF8 0CFF 03958                         DT      B'11111111',B'11111000',B'11111111'     ;BTC=06
0022AE 0CFF 0CFD 0CFF 03959                         DT      B'11111111',B'11111101',B'11111111'     ;BTC=07
0022B4 0CFF 0CFF 0CFF 03960                         DT      B'11111111',B'11111111',B'11111111'     ;BTC=08
0022BA 0CFF 0CFF 0CFF 03961                         DT      B'11111111',B'11111111',B'11111111'     ;BTC=09
0022C0 0CFF 0CF8 0CFF 03962                         DT      B'11111111',B'11111000',B'11111111'     ;BTC=0A
0022C6 0CFF 0CF8 0CFF 03963                         DT      B'11111111',B'11111000',B'11111111'     ;BTC=0B
0022CC 0CFF 0CF8 0CFF 03964                         DT      B'11111111',B'11111000',B'11111111'     ;BTC=0C
0022D2 0CFF 0CF8 0CFF 03965                         DT      B'11111111',B'11111000',B'11111111'     ;BTC=0D
0022D8 0CFF 0CF8 0CFF 03966                         DT      B'11111111',B'11111000',B'11111111'     ;BTC=0E
0022DE 0CFF 0CF8 0CFF 03967                         DT      B'11111111',B'11111000',B'11111111'     ;BTC=0F
                      03968 
                      03969 
Warning[205]: Found directive in column 1. (ORG)
002300                03970 ORG 0X2300
002300                03971 FONT02L_CAP_J
                      03972 
002300 0E00           03973         MOVLW   0
002302 6EFB           03974         MOVWF   PCLATU,0
002304 0E23           03975         MOVLW   23
002306 6EFA           03976         MOVWF   PCLATH,0
                      03977 
                      03978 
                      03979 
                      03980 
002308 C146 FFE8      03981                         MOVFF   BTCOUNT,WREG
00230C 90D8           03982                         BCF             STATUS,C
00230E 36E8           03983                         RLCF    WREG
                      03984 
                      03985                 
002310 26F9           03986                         ADDWF   PCL,1,0
002312 0CFF 0CFC 0C3F 03987                         DT      B'11111111',B'11111100',B'00111111'     ;BTC=10
002318 0CFF 0CFC 0C3F 03988                         DT      B'11111111',B'11111100',B'00111111'     ;BTC=11
MPASM  5.51       20191122_RGMODULE_RTCV1.ASM   11-25-2019  10:52:29         PAGE 80


LOC  OBJECT CODE     LINE SOURCE TEXT
  VALUE

00231E 0CFF 0CFC 0C3F 03989                         DT      B'11111111',B'11111100',B'00111111'     ;BTC=12
002324 0CFF 0CFC 0C3F 03990                         DT      B'11111111',B'11111100',B'00111111'     ;BTC=13
00232A 0CFF 0CFC 0C3F 03991                         DT      B'11111111',B'11111100',B'00111111'     ;BTC=14
002330 0CFF 0CFC 0C3F 03992                         DT      B'11111111',B'11111100',B'00111111'     ;BTC=15
002336 0CFF 0CFC 0C3F 03993                         DT      B'11111111',B'11111100',B'00111111'     ;BTC=16
00233C 0C87 0CFC 0C3F 03994                         DT      B'10000111',B'11111100',B'00111111'     ;BTC=17
002342 0C87 0CFC 0C3F 03995                         DT      B'10000111',B'11111100',B'00111111'     ;BTC=18
002348 0C87 0CFC 0C3F 03996                         DT      B'10000111',B'11111100',B'00111111'     ;BTC=19
00234E 0C83 0CF8 0C3F 03997                         DT      B'10000011',B'11111000',B'00111111'     ;BTC=1A
002354 0C81 0CF0 0C7F 03998                         DT      B'10000001',B'11110000',B'01111111'     ;BTC=1B
00235A 0CC0 0C00 0CFF 03999                         DT      B'11000000',B'00000000',B'11111111'     ;BTC=1C
002360 0CE0 0C01 0CFF 04000                         DT      B'11100000',B'00000001',B'11111111'     ;BTC=1D
002366 0CF0 0C03 0CFF 04001                         DT      B'11110000',B'00000011',B'11111111'     ;BTC=1E
00236C 0CFF 0CFF 0CFF 04002                         DT      B'11111111',B'11111111',B'11111111'     ;BTC=1F
                      04003 
                      04004 
002372                04005 FONT02L_LOW_J
                      04006 
002372 0E00           04007         MOVLW   0
002374 6EFB           04008         MOVWF   PCLATU,0
002376 0E23           04009         MOVLW   23
002378 6EFA           04010         MOVWF   PCLATH,0
                      04011 
                      04012 
                      04013 
                      04014 
00237A C146 FFE8      04015                         MOVFF   BTCOUNT,WREG
00237E 90D8           04016                         BCF             STATUS,C
002380 36E8           04017                         RLCF    WREG
                      04018 
                      04019                 
002382 26F9           04020                         ADDWF   PCL,1,0
002384 0CFF 0CF8 0CFF 04021                         DT      B'11111111',B'11111000',B'11111111'     ;BTC=10
00238A 0CFF 0CF8 0CFF 04022                         DT      B'11111111',B'11111000',B'11111111'     ;BTC=11
002390 0CFF 0CF8 0CFF 04023                         DT      B'11111111',B'11111000',B'11111111'     ;BTC=12
002396 0CFF 0CF8 0CFF 04024                         DT      B'11111111',B'11111000',B'11111111'     ;BTC=13
00239C 0CFF 0CF8 0CFF 04025                         DT      B'11111111',B'11111000',B'11111111'     ;BTC=14
0023A2 0CFF 0CF8 0CFF 04026                         DT      B'11111111',B'11111000',B'11111111'     ;BTC=15
0023A8 0CFF 0CF8 0CFF 04027                         DT      B'11111111',B'11111000',B'11111111'     ;BTC=16
0023AE 0CFF 0CF8 0CFF 04028                         DT      B'11111111',B'11111000',B'11111111'     ;BTC=17
0023B4 0CFF 0CF8 0CFF 04029                         DT      B'11111111',B'11111000',B'11111111'     ;BTC=18
0023BA 0CFF 0CF8 0CFF 04030                         DT      B'11111111',B'11111000',B'11111111'     ;BTC=19
0023C0 0C8F 0CF8 0CFF 04031                         DT      B'10001111',B'11111000',B'11111111'     ;BTC=1A
0023C6 0C8F 0CF8 0CFF 04032                         DT      B'10001111',B'11111000',B'11111111'     ;BTC=1B
0023CC 0C87 0CF0 0CFF 04033                         DT      B'10000111',B'11110000',B'11111111'     ;BTC=1C
0023D2 0C80 0C00 0CFF 04034                         DT      B'10000000',B'00000000',B'11111111'     ;BTC=1D
0023D8 0CC0 0C01 0CFF 04035                         DT      B'11000000',B'00000001',B'11111111'     ;BTC=1E
0023DE 0CE0 0C03 0CFF 04036                         DT      B'11100000',B'00000011',B'11111111'     ;BTC=1F
                      04037 
                      04038 
                      04039 
Warning[205]: Found directive in column 1. (ORG)
002400                04040 ORG 0X2400
MPASM  5.51       20191122_RGMODULE_RTCV1.ASM   11-25-2019  10:52:29         PAGE 81


LOC  OBJECT CODE     LINE SOURCE TEXT
  VALUE

002400                04041 FONT02H_CAP_K
                      04042 
002400 0E00           04043         MOVLW   0
002402 6EFB           04044         MOVWF   PCLATU,0
002404 0E24           04045         MOVLW   24
002406 6EFA           04046         MOVWF   PCLATH,0
                      04047 
                      04048         
                      04049 
                      04050         
002408 C146 FFE8      04051                         MOVFF   BTCOUNT,WREG
00240C 90D8           04052                         BCF             STATUS,C
00240E 36E8           04053                         RLCF    WREG
                      04054 
                      04055                 
002410 26F9           04056                         ADDWF   PCL,1,0
002412 0CFF 0CFF 0CFF 04057                         DT      B'11111111',B'11111111',B'11111111'     ;BTC=00
002418 0C87 0CFE 0C0F 04058                         DT      B'10000111',B'11111110',B'00001111'     ;BTC=01
00241E 0C87 0CFC 0C1F 04059                         DT      B'10000111',B'11111100',B'00011111'     ;BTC=02
002424 0C87 0CF8 0C3F 04060                         DT      B'10000111',B'11111000',B'00111111'     ;BTC=03
00242A 0C87 0CF0 0C7F 04061                         DT      B'10000111',B'11110000',B'01111111'     ;BTC=04
002430 0C87 0CE0 0CFF 04062                         DT      B'10000111',B'11100000',B'11111111'     ;BTC=05
002436 0C87 0CC1 0CFF 04063                         DT      B'10000111',B'11000001',B'11111111'     ;BTC=06
00243C 0C87 0C83 0CFF 04064                         DT      B'10000111',B'10000011',B'11111111'     ;BTC=07
002442 0C87 0C07 0CFF 04065                         DT      B'10000111',B'00000111',B'11111111'     ;BTC=08
002448 0C86 0C0F 0CFF 04066                         DT      B'10000110',B'00001111',B'11111111'     ;BTC=09
00244E 0C84 0C1F 0CFF 04067                         DT      B'10000100',B'00011111',B'11111111'     ;BTC=0A
002454 0C80 0C3F 0CFF 04068                         DT      B'10000000',B'00111111',B'11111111'     ;BTC=0B
00245A 0C80 0C7F 0CFF 04069                         DT      B'10000000',B'01111111',B'11111111'     ;BTC=0C
002460 0C80 0CFF 0CFF 04070                         DT      B'10000000',B'11111111',B'11111111'     ;BTC=0D
002466 0C81 0CFF 0CFF 04071                         DT      B'10000001',B'11111111',B'11111111'     ;BTC=0E
00246C 0C83 0CFF 0CFF 04072                         DT      B'10000011',B'11111111',B'11111111'     ;BTC=0F
                      04073 
002472                04074 FONT02H_LOW_K
                      04075 
002472 0E00           04076         MOVLW   0
002474 6EFB           04077         MOVWF   PCLATU,0
002476 0E24           04078         MOVLW   24
002478 6EFA           04079         MOVWF   PCLATH,0
                      04080 
                      04081         
                      04082 
                      04083         
00247A C146 FFE8      04084                         MOVFF   BTCOUNT,WREG
00247E 90D8           04085                         BCF             STATUS,C
002480 36E8           04086                         RLCF    WREG
                      04087 
                      04088                 
002482 26F9           04089                         ADDWF   PCL,1,0
002484 0CFF 0CFF 0CFF 04090                         DT      B'11111111',B'11111111',B'11111111'     ;BTC=00
00248A 0C8F 0CFF 0CFF 04091                         DT      B'10001111',B'11111111',B'11111111'     ;BTC=01
002490 0C8F 0CFF 0CFF 04092                         DT      B'10001111',B'11111111',B'11111111'     ;BTC=02
002496 0C8F 0CFF 0CFF 04093                         DT      B'10001111',B'11111111',B'11111111'     ;BTC=03
MPASM  5.51       20191122_RGMODULE_RTCV1.ASM   11-25-2019  10:52:29         PAGE 82


LOC  OBJECT CODE     LINE SOURCE TEXT
  VALUE

00249C 0C8F 0CFF 0CFF 04094                         DT      B'10001111',B'11111111',B'11111111'     ;BTC=04
0024A2 0C8F 0CFF 0CFF 04095                         DT      B'10001111',B'11111111',B'11111111'     ;BTC=05
0024A8 0C8F 0CFF 0CFF 04096                         DT      B'10001111',B'11111111',B'11111111'     ;BTC=06
0024AE 0C8F 0CFF 0CFF 04097                         DT      B'10001111',B'11111111',B'11111111'     ;BTC=07
0024B4 0C8F 0C8F 0CFF 04098                         DT      B'10001111',B'10001111',B'11111111'     ;BTC=08
0024BA 0C8F 0C8F 0CFF 04099                         DT      B'10001111',B'10001111',B'11111111'     ;BTC=09
0024C0 0C8F 0C1F 0CFF 04100                         DT      B'10001111',B'00011111',B'11111111'     ;BTC=0A
0024C6 0C8F 0C1F 0CFF 04101                         DT      B'10001111',B'00011111',B'11111111'     ;BTC=0B
0024CC 0C8E 0C3F 0CFF 04102                         DT      B'10001110',B'00111111',B'11111111'     ;BTC=0C
0024D2 0C8E 0C3F 0CFF 04103                         DT      B'10001110',B'00111111',B'11111111'     ;BTC=0D
0024D8 0C8C 0C7F 0CFF 04104                         DT      B'10001100',B'01111111',B'11111111'     ;BTC=0E
0024DE 0C8C 0C7F 0CFF 04105                         DT      B'10001100',B'01111111',B'11111111'     ;BTC=0F
                      04106 
                      04107 
Warning[205]: Found directive in column 1. (ORG)
002500                04108 ORG 0X2500
002500                04109 FONT02L_CAP_K
                      04110 
002500 0E00           04111         MOVLW   0
002502 6EFB           04112         MOVWF   PCLATU,0
002504 0E25           04113         MOVLW   25
002506 6EFA           04114         MOVWF   PCLATH,0
                      04115 
                      04116 
                      04117 
                      04118 
002508 C146 FFE8      04119                         MOVFF   BTCOUNT,WREG
00250C 90D8           04120                         BCF             STATUS,C
00250E 36E8           04121                         RLCF    WREG
                      04122 
                      04123                 
002510 26F9           04124                         ADDWF   PCL,1,0
002512 0C83 0CFF 0CFF 04125                         DT      B'10000011',B'11111111',B'11111111'     ;BTC=10
002518 0C81 0CFF 0CFF 04126                         DT      B'10000001',B'11111111',B'11111111'     ;BTC=11
00251E 0C80 0CFF 0CFF 04127                         DT      B'10000000',B'11111111',B'11111111'     ;BTC=12
002524 0C80 0C7F 0CFF 04128                         DT      B'10000000',B'01111111',B'11111111'     ;BTC=13
00252A 0C80 0C3F 0CFF 04129                         DT      B'10000000',B'00111111',B'11111111'     ;BTC=14
002530 0C84 0C1F 0CFF 04130                         DT      B'10000100',B'00011111',B'11111111'     ;BTC=15
002536 0C86 0C0F 0CFF 04131                         DT      B'10000110',B'00001111',B'11111111'     ;BTC=16
00253C 0C87 0C07 0CFF 04132                         DT      B'10000111',B'00000111',B'11111111'     ;BTC=17
002542 0C87 0C83 0CFF 04133                         DT      B'10000111',B'10000011',B'11111111'     ;BTC=18
002548 0C87 0CC1 0CFF 04134                         DT      B'10000111',B'11000001',B'11111111'     ;BTC=19
00254E 0C87 0CE0 0CFF 04135                         DT      B'10000111',B'11100000',B'11111111'     ;BTC=1A
002554 0C87 0CF0 0C7F 04136                         DT      B'10000111',B'11110000',B'01111111'     ;BTC=1B
00255A 0C87 0CF8 0C3F 04137                         DT      B'10000111',B'11111000',B'00111111'     ;BTC=1C
002560 0C87 0CFC 0C1F 04138                         DT      B'10000111',B'11111100',B'00011111'     ;BTC=1D
002566 0C87 0CFE 0C0F 04139                         DT      B'10000111',B'11111110',B'00001111'     ;BTC=1E
00256C 0CFF 0CFF 0CFF 04140                         DT      B'11111111',B'11111111',B'11111111'     ;BTC=1F
                      04141 
                      04142 
002572                04143 FONT02L_LOW_K
                      04144 
002572 0E00           04145         MOVLW   0
MPASM  5.51       20191122_RGMODULE_RTCV1.ASM   11-25-2019  10:52:29         PAGE 83


LOC  OBJECT CODE     LINE SOURCE TEXT
  VALUE

002574 6EFB           04146         MOVWF   PCLATU,0
002576 0E25           04147         MOVLW   25
002578 6EFA           04148         MOVWF   PCLATH,0
                      04149 
                      04150 
                      04151 
                      04152 
00257A C146 FFE8      04153                         MOVFF   BTCOUNT,WREG
00257E 90D8           04154                         BCF             STATUS,C
002580 36E8           04155                         RLCF    WREG
                      04156 
                      04157                 
002582 26F9           04158                         ADDWF   PCL,1,0
002584 0C88 0CFF 0CFF 04159                         DT      B'10001000',B'11111111',B'11111111'     ;BTC=10
00258A 0C88 0CFF 0CFF 04160                         DT      B'10001000',B'11111111',B'11111111'     ;BTC=11
002590 0C81 0CFF 0CFF 04161                         DT      B'10000001',B'11111111',B'11111111'     ;BTC=12
002596 0C81 0CFF 0CFF 04162                         DT      B'10000001',B'11111111',B'11111111'     ;BTC=13
00259C 0C81 0CFF 0CFF 04163                         DT      B'10000001',B'11111111',B'11111111'     ;BTC=14
0025A2 0C88 0CFF 0CFF 04164                         DT      B'10001000',B'11111111',B'11111111'     ;BTC=15
0025A8 0C88 0CFF 0CFF 04165                         DT      B'10001000',B'11111111',B'11111111'     ;BTC=16
0025AE 0C8C 0C7F 0CFF 04166                         DT      B'10001100',B'01111111',B'11111111'     ;BTC=17
0025B4 0C8C 0C7F 0CFF 04167                         DT      B'10001100',B'01111111',B'11111111'     ;BTC=18
0025BA 0C8E 0C3F 0CFF 04168                         DT      B'10001110',B'00111111',B'11111111'     ;BTC=19
0025C0 0C8E 0C3F 0CFF 04169                         DT      B'10001110',B'00111111',B'11111111'     ;BTC=1A
0025C6 0C8F 0C1F 0CFF 04170                         DT      B'10001111',B'00011111',B'11111111'     ;BTC=1B
0025CC 0C8F 0C1F 0CFF 04171                         DT      B'10001111',B'00011111',B'11111111'     ;BTC=1C
0025D2 0C8F 0C8F 0CFF 04172                         DT      B'10001111',B'10001111',B'11111111'     ;BTC=1D
0025D8 0C8F 0C8F 0CFF 04173                         DT      B'10001111',B'10001111',B'11111111'     ;BTC=1E
0025DE 0CFF 0CFF 0CFF 04174                         DT      B'11111111',B'11111111',B'11111111'     ;BTC=1F
                      04175 
                      04176 
Warning[205]: Found directive in column 1. (ORG)
002600                04177 ORG 0X2600
002600                04178 FONT02H_CAP_L
                      04179 
002600 0E00           04180         MOVLW   0
002602 6EFB           04181         MOVWF   PCLATU,0
002604 0E26           04182         MOVLW   26
002606 6EFA           04183         MOVWF   PCLATH,0
                      04184 
                      04185         
                      04186 
                      04187         
002608 C146 FFE8      04188                         MOVFF   BTCOUNT,WREG
00260C 90D8           04189                         BCF             STATUS,C
00260E 36E8           04190                         RLCF    WREG
                      04191 
                      04192                 
002610 26F9           04193                         ADDWF   PCL,1,0
002612 0CFF 0CFF 0CFF 04194                         DT      B'11111111',B'11111111',B'11111111'     ;BTC=00
002618 0C87 0CFF 0CFF 04195                         DT      B'10000111',B'11111111',B'11111111'     ;BTC=01
00261E 0C87 0CFF 0CFF 04196                         DT      B'10000111',B'11111111',B'11111111'     ;BTC=02
002624 0C87 0CFF 0CFF 04197                         DT      B'10000111',B'11111111',B'11111111'     ;BTC=03
MPASM  5.51       20191122_RGMODULE_RTCV1.ASM   11-25-2019  10:52:29         PAGE 84


LOC  OBJECT CODE     LINE SOURCE TEXT
  VALUE

00262A 0C87 0CFF 0CFF 04198                         DT      B'10000111',B'11111111',B'11111111'     ;BTC=04
002630 0C87 0CFF 0CFF 04199                         DT      B'10000111',B'11111111',B'11111111'     ;BTC=05
002636 0C87 0CFF 0CFF 04200                         DT      B'10000111',B'11111111',B'11111111'     ;BTC=06
00263C 0C87 0CFF 0CFF 04201                         DT      B'10000111',B'11111111',B'11111111'     ;BTC=07
002642 0C87 0CFF 0CFF 04202                         DT      B'10000111',B'11111111',B'11111111'     ;BTC=08
002648 0C87 0CFF 0CFF 04203                         DT      B'10000111',B'11111111',B'11111111'     ;BTC=09
00264E 0C87 0CFF 0CFF 04204                         DT      B'10000111',B'11111111',B'11111111'     ;BTC=0A
002654 0C87 0CFF 0CFF 04205                         DT      B'10000111',B'11111111',B'11111111'     ;BTC=0B
00265A 0C87 0CFF 0CFF 04206                         DT      B'10000111',B'11111111',B'11111111'     ;BTC=0C
002660 0C87 0CFF 0CFF 04207                         DT      B'10000111',B'11111111',B'11111111'     ;BTC=0D
002666 0C87 0CFF 0CFF 04208                         DT      B'10000111',B'11111111',B'11111111'     ;BTC=0E
00266C 0C87 0CFF 0CFF 04209                         DT      B'10000111',B'11111111',B'11111111'     ;BTC=0F
                      04210 
002672                04211 FONT02H_LOW_L
                      04212 
002672 0E00           04213         MOVLW   0
002674 6EFB           04214         MOVWF   PCLATU,0
002676 0E26           04215         MOVLW   26
002678 6EFA           04216         MOVWF   PCLATH,0
                      04217 
                      04218         
                      04219 
                      04220         
00267A C146 FFE8      04221                         MOVFF   BTCOUNT,WREG
00267E 90D8           04222                         BCF             STATUS,C
002680 36E8           04223                         RLCF    WREG
                      04224 
                      04225                 
002682 26F9           04226                         ADDWF   PCL,1,0
002684 0CFF 0CFF 0CFF 04227                         DT      B'11111111',B'11111111',B'11111111'     ;BTC=00
00268A 0C8F 0CFF 0CFF 04228                         DT      B'10001111',B'11111111',B'11111111'     ;BTC=01
002690 0C8F 0CFF 0CFF 04229                         DT      B'10001111',B'11111111',B'11111111'     ;BTC=02
002696 0C8F 0CFF 0CFF 04230                         DT      B'10001111',B'11111111',B'11111111'     ;BTC=03
00269C 0C8F 0CFF 0CFF 04231                         DT      B'10001111',B'11111111',B'11111111'     ;BTC=04
0026A2 0C8F 0CFF 0CFF 04232                         DT      B'10001111',B'11111111',B'11111111'     ;BTC=05
0026A8 0C8F 0CFF 0CFF 04233                         DT      B'10001111',B'11111111',B'11111111'     ;BTC=06
0026AE 0C8F 0CFF 0CFF 04234                         DT      B'10001111',B'11111111',B'11111111'     ;BTC=07
0026B4 0C8F 0CFF 0CFF 04235                         DT      B'10001111',B'11111111',B'11111111'     ;BTC=08
0026BA 0C8F 0CFF 0CFF 04236                         DT      B'10001111',B'11111111',B'11111111'     ;BTC=09
0026C0 0C8F 0CFF 0CFF 04237                         DT      B'10001111',B'11111111',B'11111111'     ;BTC=0A
0026C6 0C8F 0CFF 0CFF 04238                         DT      B'10001111',B'11111111',B'11111111'     ;BTC=0B
0026CC 0C8F 0CFF 0CFF 04239                         DT      B'10001111',B'11111111',B'11111111'     ;BTC=0C
0026D2 0C8F 0CFF 0CFF 04240                         DT      B'10001111',B'11111111',B'11111111'     ;BTC=0D
0026D8 0C8F 0CFF 0CFF 04241                         DT      B'10001111',B'11111111',B'11111111'     ;BTC=0E
0026DE 0C8F 0CFF 0CFF 04242                         DT      B'10001111',B'11111111',B'11111111'     ;BTC=0F
                      04243 
                      04244 
                      04245 
Warning[205]: Found directive in column 1. (ORG)
002700                04246 ORG 0X2700
002700                04247 FONT02L_CAP_L
                      04248 
002700 0E00           04249         MOVLW   0
MPASM  5.51       20191122_RGMODULE_RTCV1.ASM   11-25-2019  10:52:29         PAGE 85


LOC  OBJECT CODE     LINE SOURCE TEXT
  VALUE

002702 6EFB           04250         MOVWF   PCLATU,0
002704 0E27           04251         MOVLW   27
002706 6EFA           04252         MOVWF   PCLATH,0
                      04253 
                      04254 
                      04255 
                      04256 
002708 C146 FFE8      04257                         MOVFF   BTCOUNT,WREG
00270C 90D8           04258                         BCF             STATUS,C
00270E 36E8           04259                         RLCF    WREG
                      04260 
                      04261                 
002710 26F9           04262                         ADDWF   PCL,1,0
002712 0C87 0CFF 0CFF 04263                         DT      B'10000111',B'11111111',B'11111111'     ;BTC=10
002718 0C87 0CFF 0CFF 04264                         DT      B'10000111',B'11111111',B'11111111'     ;BTC=11
00271E 0C87 0CFF 0CFF 04265                         DT      B'10000111',B'11111111',B'11111111'     ;BTC=12
002724 0C87 0CFF 0CFF 04266                         DT      B'10000111',B'11111111',B'11111111'     ;BTC=13
00272A 0C87 0CFF 0CFF 04267                         DT      B'10000111',B'11111111',B'11111111'     ;BTC=14
002730 0C87 0CFF 0CFF 04268                         DT      B'10000111',B'11111111',B'11111111'     ;BTC=15
002736 0C87 0CFF 0CFF 04269                         DT      B'10000111',B'11111111',B'11111111'     ;BTC=16
00273C 0C87 0CFF 0CFF 04270                         DT      B'10000111',B'11111111',B'11111111'     ;BTC=17
002742 0C87 0CFF 0CFF 04271                         DT      B'10000111',B'11111111',B'11111111'     ;BTC=18
002748 0C87 0CFF 0CFF 04272                         DT      B'10000111',B'11111111',B'11111111'     ;BTC=19
00274E 0C87 0CFF 0CFF 04273                         DT      B'10000111',B'11111111',B'11111111'     ;BTC=1A
002754 0C80 0C01 0CFF 04274                         DT      B'10000000',B'00000001',B'11111111'     ;BTC=1B
00275A 0C80 0C01 0CFF 04275                         DT      B'10000000',B'00000001',B'11111111'     ;BTC=1C
002760 0C80 0C01 0CFF 04276                         DT      B'10000000',B'00000001',B'11111111'     ;BTC=1D
002766 0C80 0C01 0CFF 04277                         DT      B'10000000',B'00000001',B'11111111'     ;BTC=1E
00276C 0CFF 0CFF 0CFF 04278                         DT      B'11111111',B'11111111',B'11111111'     ;BTC=1F
                      04279 
002772                04280 FONT02L_LOW_L
                      04281 
002772 0E00           04282         MOVLW   0
002774 6EFB           04283         MOVWF   PCLATU,0
002776 0E27           04284         MOVLW   27
002778 6EFA           04285         MOVWF   PCLATH,0
                      04286 
                      04287 
                      04288 
                      04289 
00277A C146 FFE8      04290                         MOVFF   BTCOUNT,WREG
00277E 90D8           04291                         BCF             STATUS,C
002780 36E8           04292                         RLCF    WREG
                      04293 
                      04294                 
002782 26F9           04295                         ADDWF   PCL,1,0
002784 0C8F 0CFF 0CFF 04296                         DT      B'10001111',B'11111111',B'11111111'     ;BTC=10
00278A 0C8F 0CFF 0CFF 04297                         DT      B'10001111',B'11111111',B'11111111'     ;BTC=11
002790 0C8F 0CFF 0CFF 04298                         DT      B'10001111',B'11111111',B'11111111'     ;BTC=12
002796 0C8F 0CFF 0CFF 04299                         DT      B'10001111',B'11111111',B'11111111'     ;BTC=13
00279C 0C8F 0CFF 0CFF 04300                         DT      B'10001111',B'11111111',B'11111111'     ;BTC=14
0027A2 0C8F 0CFF 0CFF 04301                         DT      B'10001111',B'11111111',B'11111111'     ;BTC=15
0027A8 0C8F 0CFF 0CFF 04302                         DT      B'10001111',B'11111111',B'11111111'     ;BTC=16
MPASM  5.51       20191122_RGMODULE_RTCV1.ASM   11-25-2019  10:52:29         PAGE 86


LOC  OBJECT CODE     LINE SOURCE TEXT
  VALUE

0027AE 0C8F 0CFF 0CFF 04303                         DT      B'10001111',B'11111111',B'11111111'     ;BTC=17
0027B4 0C8F 0CFF 0CFF 04304                         DT      B'10001111',B'11111111',B'11111111'     ;BTC=18
0027BA 0C8F 0CFF 0CFF 04305                         DT      B'10001111',B'11111111',B'11111111'     ;BTC=19
0027C0 0C8F 0CFF 0CFF 04306                         DT      B'10001111',B'11111111',B'11111111'     ;BTC=1A
0027C6 0C8F 0CFF 0CFF 04307                         DT      B'10001111',B'11111111',B'11111111'     ;BTC=1B
0027CC 0C8F 0CFF 0CFF 04308                         DT      B'10001111',B'11111111',B'11111111'     ;BTC=1C
0027D2 0C8F 0CFF 0CFF 04309                         DT      B'10001111',B'11111111',B'11111111'     ;BTC=1D
0027D8 0C8F 0CFF 0CFF 04310                         DT      B'10001111',B'11111111',B'11111111'     ;BTC=1E
0027DE 0CFF 0CFF 0CFF 04311                         DT      B'11111111',B'11111111',B'11111111'     ;BTC=1F
                      04312 
                      04313 
                      04314 
                      04315 
Warning[205]: Found directive in column 1. (ORG)
002800                04316 ORG 0X2800
002800                04317 FONT02H_CAP_M
                      04318 
002800 0E00           04319         MOVLW   0
002802 6EFB           04320         MOVWF   PCLATU,0
002804 0E28           04321         MOVLW   28
002806 6EFA           04322         MOVWF   PCLATH,0
                      04323 
                      04324         
                      04325 
                      04326         
002808 C146 FFE8      04327                         MOVFF   BTCOUNT,WREG
00280C 90D8           04328                         BCF             STATUS,C
00280E 36E8           04329                         RLCF    WREG
                      04330 
                      04331                 
002810 26F9           04332                         ADDWF   PCL,1,0
002812 0CFF 0CFF 0CFF 04333                         DT      B'11111111',B'11111111',B'11111111'     ;BTC=00
002818 0C87 0CFF 0C0F 04334                         DT      B'10000111',B'11111111',B'00001111'     ;BTC=01
00281E 0C87 0CFF 0C0F 04335                         DT      B'10000111',B'11111111',B'00001111'     ;BTC=02
002824 0C87 0CFF 0C0F 04336                         DT      B'10000111',B'11111111',B'00001111'     ;BTC=03
00282A 0C83 0CFE 0C0F 04337                         DT      B'10000011',B'11111110',B'00001111'     ;BTC=04
002830 0C81 0CFC 0C0F 04338                         DT      B'10000001',B'11111100',B'00001111'     ;BTC=05
002836 0C80 0CF8 0C0F 04339                         DT      B'10000000',B'11111000',B'00001111'     ;BTC=06
00283C 0C80 0C70 0C0F 04340                         DT      B'10000000',B'01110000',B'00001111'     ;BTC=07
002842 0C84 0C21 0C0F 04341                         DT      B'10000100',B'00100001',B'00001111'     ;BTC=08
002848 0C86 0C03 0C0F 04342                         DT      B'10000110',B'00000011',B'00001111'     ;BTC=09
00284E 0C87 0C07 0C0F 04343                         DT      B'10000111',B'00000111',B'00001111'     ;BTC=0A
002854 0C87 0C8F 0C0F 04344                         DT      B'10000111',B'10001111',B'00001111'     ;BTC=0B
00285A 0C87 0CDF 0C0F 04345                         DT      B'10000111',B'11011111',B'00001111'     ;BTC=0C
002860 0C87 0CFF 0C0F 04346                         DT      B'10000111',B'11111111',B'00001111'     ;BTC=0D
002866 0C87 0CFF 0C0F 04347                         DT      B'10000111',B'11111111',B'00001111'     ;BTC=0E
00286C 0C87 0CFF 0C0F 04348                         DT      B'10000111',B'11111111',B'00001111'     ;BTC=0F
                      04349 
                      04350 
002872                04351 FONT02H_LOW_M
                      04352 
002872 0E00           04353         MOVLW   0
002874 6EFB           04354         MOVWF   PCLATU,0
MPASM  5.51       20191122_RGMODULE_RTCV1.ASM   11-25-2019  10:52:29         PAGE 87


LOC  OBJECT CODE     LINE SOURCE TEXT
  VALUE

002876 0E28           04355         MOVLW   28
002878 6EFA           04356         MOVWF   PCLATH,0
                      04357 
                      04358         
                      04359 
                      04360         
00287A C146 FFE8      04361                         MOVFF   BTCOUNT,WREG
00287E 90D8           04362                         BCF             STATUS,C
002880 36E8           04363                         RLCF    WREG
                      04364 
                      04365                 
002882 26F9           04366                         ADDWF   PCL,1,0
002884 0CFF 0CFF 0CFF 04367                         DT      B'11111111',B'11111111',B'11111111'     ;BTC=00
00288A 0CFF 0CFF 0CFF 04368                         DT      B'11111111',B'11111111',B'11111111'     ;BTC=01
002890 0CFF 0CFF 0CFF 04369                         DT      B'11111111',B'11111111',B'11111111'     ;BTC=02
002896 0CFF 0CFF 0CFF 04370                         DT      B'11111111',B'11111111',B'11111111'     ;BTC=03
00289C 0CFF 0CFF 0CFF 04371                         DT      B'11111111',B'11111111',B'11111111'     ;BTC=04
0028A2 0CFF 0CFF 0CFF 04372                         DT      B'11111111',B'11111111',B'11111111'     ;BTC=05
0028A8 0CFF 0CFF 0CFF 04373                         DT      B'11111111',B'11111111',B'11111111'     ;BTC=06
0028AE 0CFF 0CFF 0CFF 04374                         DT      B'11111111',B'11111111',B'11111111'     ;BTC=07
0028B4 0CFF 0CFF 0CFF 04375                         DT      B'11111111',B'11111111',B'11111111'     ;BTC=08
0028BA 0CFF 0CFF 0CFF 04376                         DT      B'11111111',B'11111111',B'11111111'     ;BTC=09
0028C0 0CFF 0CFF 0CFF 04377                         DT      B'11111111',B'11111111',B'11111111'     ;BTC=0A
0028C6 0CFF 0CFF 0CFF 04378                         DT      B'11111111',B'11111111',B'11111111'     ;BTC=0B
0028CC 0CFF 0CFF 0CFF 04379                         DT      B'11111111',B'11111111',B'11111111'     ;BTC=0C
0028D2 0CFF 0CFF 0CFF 04380                         DT      B'11111111',B'11111111',B'11111111'     ;BTC=0D
0028D8 0C88 0CE0 0CFF 04381                         DT      B'10001000',B'11100000',B'11111111'     ;BTC=0E
0028DE 0C80 0C40 0C7F 04382                         DT      B'10000000',B'01000000',B'01111111'     ;BTC=0F
                      04383 
                      04384 
                      04385 
Warning[205]: Found directive in column 1. (ORG)
002900                04386 ORG 0X2900
002900                04387 FONT02L_CAP_M
                      04388 
002900 0E00           04389         MOVLW   0
002902 6EFB           04390         MOVWF   PCLATU,0
002904 0E29           04391         MOVLW   29
002906 6EFA           04392         MOVWF   PCLATH,0
                      04393 
                      04394 
                      04395 
                      04396 
002908 C146 FFE8      04397                         MOVFF   BTCOUNT,WREG
00290C 90D8           04398                         BCF             STATUS,C
00290E 36E8           04399                         RLCF    WREG
                      04400 
                      04401                 
002910 26F9           04402                         ADDWF   PCL,1,0
002912 0C87 0CFF 0C0F 04403                         DT      B'10000111',B'11111111',B'00001111'     ;BTC=10
002918 0C87 0CFF 0C0F 04404                         DT      B'10000111',B'11111111',B'00001111'     ;BTC=11
00291E 0C87 0CFF 0C0F 04405                         DT      B'10000111',B'11111111',B'00001111'     ;BTC=12
002924 0C87 0CFF 0C0F 04406                         DT      B'10000111',B'11111111',B'00001111'     ;BTC=13
MPASM  5.51       20191122_RGMODULE_RTCV1.ASM   11-25-2019  10:52:29         PAGE 88


LOC  OBJECT CODE     LINE SOURCE TEXT
  VALUE

00292A 0C87 0CFF 0C0F 04407                         DT      B'10000111',B'11111111',B'00001111'     ;BTC=14
002930 0C87 0CFF 0C0F 04408                         DT      B'10000111',B'11111111',B'00001111'     ;BTC=15
002936 0C87 0CFF 0C0F 04409                         DT      B'10000111',B'11111111',B'00001111'     ;BTC=16
00293C 0C87 0CFF 0C0F 04410                         DT      B'10000111',B'11111111',B'00001111'     ;BTC=17
002942 0C87 0CFF 0C0F 04411                         DT      B'10000111',B'11111111',B'00001111'     ;BTC=18
002948 0C87 0CFF 0C0F 04412                         DT      B'10000111',B'11111111',B'00001111'     ;BTC=19
00294E 0C87 0CFF 0C0F 04413                         DT      B'10000111',B'11111111',B'00001111'     ;BTC=1A
002954 0C87 0CFF 0C0F 04414                         DT      B'10000111',B'11111111',B'00001111'     ;BTC=1B
00295A 0C87 0CFF 0C0F 04415                         DT      B'10000111',B'11111111',B'00001111'     ;BTC=1C
002960 0C87 0CFF 0C0F 04416                         DT      B'10000111',B'11111111',B'00001111'     ;BTC=1D
002966 0C87 0CFF 0C0F 04417                         DT      B'10000111',B'11111111',B'00001111'     ;BTC=1E
00296C 0CFF 0CFF 0CFF 04418                         DT      B'11111111',B'11111111',B'11111111'     ;BTC=1F
                      04419 
                      04420 
002972                04421 FONT02L_LOW_M
                      04422 
002972 0E00           04423         MOVLW   0
002974 6EFB           04424         MOVWF   PCLATU,0
002976 0E29           04425         MOVLW   29
002978 6EFA           04426         MOVWF   PCLATH,0
                      04427 
                      04428 
                      04429 
                      04430 
00297A C146 FFE8      04431                         MOVFF   BTCOUNT,WREG
00297E 90D8           04432                         BCF             STATUS,C
002980 36E8           04433                         RLCF    WREG
                      04434 
                      04435                 
002982 26F9           04436                         ADDWF   PCL,1,0
002984 0C80 0C00 0C3F 04437                         DT      B'10000000',B'00000000',B'00111111'     ;BTC=10
00298A 0C86 0C0C 0C3F 04438                         DT      B'10000110',B'00001100',B'00111111'     ;BTC=11
002990 0C8F 0C1E 0C3F 04439                         DT      B'10001111',B'00011110',B'00111111'     ;BTC=12
002996 0C8F 0C1E 0C3F 04440                         DT      B'10001111',B'00011110',B'00111111'     ;BTC=13
00299C 0C8F 0C1E 0C3F 04441                         DT      B'10001111',B'00011110',B'00111111'     ;BTC=14
0029A2 0C8F 0C1E 0C3F 04442                         DT      B'10001111',B'00011110',B'00111111'     ;BTC=15
0029A8 0C8F 0C1E 0C3F 04443                         DT      B'10001111',B'00011110',B'00111111'     ;BTC=16
0029AE 0C8F 0C1E 0C3F 04444                         DT      B'10001111',B'00011110',B'00111111'     ;BTC=17
0029B4 0C8F 0C1E 0C3F 04445                         DT      B'10001111',B'00011110',B'00111111'     ;BTC=18
0029BA 0C8F 0C1E 0C3F 04446                         DT      B'10001111',B'00011110',B'00111111'     ;BTC=19
0029C0 0C8F 0C1E 0C3F 04447                         DT      B'10001111',B'00011110',B'00111111'     ;BTC=1A
0029C6 0C8F 0C1E 0C3F 04448                         DT      B'10001111',B'00011110',B'00111111'     ;BTC=1B
0029CC 0C8F 0C1E 0C3F 04449                         DT      B'10001111',B'00011110',B'00111111'     ;BTC=1C
0029D2 0C8F 0C1E 0C3F 04450                         DT      B'10001111',B'00011110',B'00111111'     ;BTC=1D
0029D8 0C8F 0C1E 0C3F 04451                         DT      B'10001111',B'00011110',B'00111111'     ;BTC=1E
0029DE 0CFF 0CFF 0CFF 04452                         DT      B'11111111',B'11111111',B'11111111'     ;BTC=1F
                      04453 
                      04454 
                      04455 
                      04456 
                      04457 
                      04458 
Warning[205]: Found directive in column 1. (ORG)
MPASM  5.51       20191122_RGMODULE_RTCV1.ASM   11-25-2019  10:52:29         PAGE 89


LOC  OBJECT CODE     LINE SOURCE TEXT
  VALUE

002A00                04459 ORG 0X2A00
002A00                04460 FONT02H_CAP_N
                      04461 
002A00 0E00           04462         MOVLW   0
002A02 6EFB           04463         MOVWF   PCLATU,0
002A04 0E2A           04464         MOVLW   2A
002A06 6EFA           04465         MOVWF   PCLATH,0
                      04466 
                      04467         
                      04468 
                      04469         
002A08 C146 FFE8      04470                         MOVFF   BTCOUNT,WREG
002A0C 90D8           04471                         BCF             STATUS,C
002A0E 36E8           04472                         RLCF    WREG
                      04473 
                      04474                 
002A10 26F9           04475                         ADDWF   PCL,1,0
002A12 0CFF 0CFF 0CFF 04476                         DT      B'11111111',B'11111111',B'11111111'     ;BTC=00
002A18 0C87 0CFF 0C0F 04477                         DT      B'10000111',B'11111111',B'00001111'     ;BTC=01
002A1E 0C87 0CFF 0C0F 04478                         DT      B'10000111',B'11111111',B'00001111'     ;BTC=02
002A24 0C87 0CFF 0C0F 04479                         DT      B'10000111',B'11111111',B'00001111'     ;BTC=03
002A2A 0C83 0CFF 0C0F 04480                         DT      B'10000011',B'11111111',B'00001111'     ;BTC=04
002A30 0C83 0CFF 0C0F 04481                         DT      B'10000011',B'11111111',B'00001111'     ;BTC=05
002A36 0C81 0CFF 0C0F 04482                         DT      B'10000001',B'11111111',B'00001111'     ;BTC=06
002A3C 0C81 0CFF 0C0F 04483                         DT      B'10000001',B'11111111',B'00001111'     ;BTC=07
002A42 0C80 0CFF 0C0F 04484                         DT      B'10000000',B'11111111',B'00001111'     ;BTC=08
002A48 0C80 0CFF 0C0F 04485                         DT      B'10000000',B'11111111',B'00001111'     ;BTC=09
002A4E 0C80 0C7F 0C0F 04486                         DT      B'10000000',B'01111111',B'00001111'     ;BTC=0A
002A54 0C80 0C7F 0C0F 04487                         DT      B'10000000',B'01111111',B'00001111'     ;BTC=0B
002A5A 0C84 0C3F 0C0F 04488                         DT      B'10000100',B'00111111',B'00001111'     ;BTC=0C
002A60 0C84 0C3F 0C0F 04489                         DT      B'10000100',B'00111111',B'00001111'     ;BTC=0D
002A66 0C86 0C1F 0C0F 04490                         DT      B'10000110',B'00011111',B'00001111'     ;BTC=0E
002A6C 0C86 0C1F 0C0F 04491                         DT      B'10000110',B'00011111',B'00001111'     ;BTC=0F
                      04492 
                      04493 
002A72                04494 FONT02H_LOW_N
                      04495 
002A72 0E00           04496         MOVLW   0
002A74 6EFB           04497         MOVWF   PCLATU,0
002A76 0E2A           04498         MOVLW   2A
002A78 6EFA           04499         MOVWF   PCLATH,0
                      04500 
                      04501         
                      04502 
                      04503         
002A7A C146 FFE8      04504                         MOVFF   BTCOUNT,WREG
002A7E 90D8           04505                         BCF             STATUS,C
002A80 36E8           04506                         RLCF    WREG
                      04507 
                      04508                 
002A82 26F9           04509                         ADDWF   PCL,1,0
002A84 0CFF 0CFF 0CFF 04510                         DT      B'11111111',B'11111111',B'11111111'     ;BTC=00
002A8A 0CFF 0CFF 0CFF 04511                         DT      B'11111111',B'11111111',B'11111111'     ;BTC=01
MPASM  5.51       20191122_RGMODULE_RTCV1.ASM   11-25-2019  10:52:29         PAGE 90


LOC  OBJECT CODE     LINE SOURCE TEXT
  VALUE

002A90 0CFF 0CFF 0CFF 04512                         DT      B'11111111',B'11111111',B'11111111'     ;BTC=02
002A96 0CFF 0CFF 0CFF 04513                         DT      B'11111111',B'11111111',B'11111111'     ;BTC=03
002A9C 0CFF 0CFF 0CFF 04514                         DT      B'11111111',B'11111111',B'11111111'     ;BTC=04
002AA2 0CFF 0CFF 0CFF 04515                         DT      B'11111111',B'11111111',B'11111111'     ;BTC=05
002AA8 0CFF 0CFF 0CFF 04516                         DT      B'11111111',B'11111111',B'11111111'     ;BTC=06
002AAE 0CFF 0CFF 0CFF 04517                         DT      B'11111111',B'11111111',B'11111111'     ;BTC=07
002AB4 0CFF 0CFF 0CFF 04518                         DT      B'11111111',B'11111111',B'11111111'     ;BTC=08
002ABA 0CFF 0CFF 0CFF 04519                         DT      B'11111111',B'11111111',B'11111111'     ;BTC=09
002AC0 0CFF 0CFF 0CFF 04520                         DT      B'11111111',B'11111111',B'11111111'     ;BTC=0A
002AC6 0CFF 0CFF 0CFF 04521                         DT      B'11111111',B'11111111',B'11111111'     ;BTC=0B
002ACC 0CFF 0CFF 0CFF 04522                         DT      B'11111111',B'11111111',B'11111111'     ;BTC=0C
002AD2 0CFF 0CFF 0CFF 04523                         DT      B'11111111',B'11111111',B'11111111'     ;BTC=0D
002AD8 0C88 0C01 0CFF 04524                         DT      B'10001000',B'00000001',B'11111111'     ;BTC=0E
002ADE 0C80 0C00 0CFF 04525                         DT      B'10000000',B'00000000',B'11111111'     ;BTC=0F
                      04526 
                      04527 
Warning[205]: Found directive in column 1. (ORG)
002B00                04528 ORG 0X2B00
002B00                04529 FONT02L_CAP_N
                      04530 
002B00 0E00           04531         MOVLW   0
002B02 6EFB           04532         MOVWF   PCLATU,0
002B04 0E2B           04533         MOVLW   2B
002B06 6EFA           04534         MOVWF   PCLATH,0
                      04535 
                      04536 
                      04537 
                      04538 
002B08 C146 FFE8      04539                         MOVFF   BTCOUNT,WREG
002B0C 90D8           04540                         BCF             STATUS,C
002B0E 36E8           04541                         RLCF    WREG
                      04542 
                      04543                 
002B10 26F9           04544                         ADDWF   PCL,1,0
002B12 0C87 0C0F 0C0F 04545                         DT      B'10000111',B'00001111',B'00001111'     ;BTC=10
002B18 0C87 0C0F 0C0F 04546                         DT      B'10000111',B'00001111',B'00001111'     ;BTC=11
002B1E 0C87 0C87 0C0F 04547                         DT      B'10000111',B'10000111',B'00001111'     ;BTC=12
002B24 0C87 0C87 0C0F 04548                         DT      B'10000111',B'10000111',B'00001111'     ;BTC=13
002B2A 0C87 0CC3 0C0F 04549                         DT      B'10000111',B'11000011',B'00001111'     ;BTC=14
002B30 0C87 0CC3 0C0F 04550                         DT      B'10000111',B'11000011',B'00001111'     ;BTC=15
002B36 0C87 0CE1 0C0F 04551                         DT      B'10000111',B'11100001',B'00001111'     ;BTC=16
002B3C 0C87 0CE1 0C0F 04552                         DT      B'10000111',B'11100001',B'00001111'     ;BTC=17
002B42 0C87 0CF0 0C0F 04553                         DT      B'10000111',B'11110000',B'00001111'     ;BTC=18
002B48 0C87 0CF0 0C0F 04554                         DT      B'10000111',B'11110000',B'00001111'     ;BTC=19
002B4E 0C87 0CF8 0C0F 04555                         DT      B'10000111',B'11111000',B'00001111'     ;BTC=1A
002B54 0C87 0CFC 0C0F 04556                         DT      B'10000111',B'11111100',B'00001111'     ;BTC=1B
002B5A 0C87 0CFC 0C0F 04557                         DT      B'10000111',B'11111100',B'00001111'     ;BTC=1C
002B60 0C87 0CFE 0C0F 04558                         DT      B'10000111',B'11111110',B'00001111'     ;BTC=1D
002B66 0C87 0CFE 0C0F 04559                         DT      B'10000111',B'11111110',B'00001111'     ;BTC=1E
002B6C 0CFF 0CFF 0CFF 04560                         DT      B'11111111',B'11111111',B'11111111'     ;BTC=1F
                      04561 
002B72                04562 FONT02L_LOW_N
                      04563 
MPASM  5.51       20191122_RGMODULE_RTCV1.ASM   11-25-2019  10:52:29         PAGE 91


LOC  OBJECT CODE     LINE SOURCE TEXT
  VALUE

002B72 0E00           04564         MOVLW   0
002B74 6EFB           04565         MOVWF   PCLATU,0
002B76 0E2B           04566         MOVLW   2B
002B78 6EFA           04567         MOVWF   PCLATH,0
                      04568 
                      04569 
                      04570 
                      04571 
002B7A C146 FFE8      04572                         MOVFF   BTCOUNT,WREG
002B7E 90D8           04573                         BCF             STATUS,C
002B80 36E8           04574                         RLCF    WREG
                      04575 
                      04576                 
002B82 26F9           04577                         ADDWF   PCL,1,0
002B84 0C80 0C00 0C7F 04578                         DT      B'10000000',B'00000000',B'01111111'     ;BTC=10
002B8A 0C87 0CF8 0C7F 04579                         DT      B'10000111',B'11111000',B'01111111'     ;BTC=11
002B90 0C8F 0CFC 0C7F 04580                         DT      B'10001111',B'11111100',B'01111111'     ;BTC=12
002B96 0C8F 0CFC 0C7F 04581                         DT      B'10001111',B'11111100',B'01111111'     ;BTC=13
002B9C 0C8F 0CFC 0C7F 04582                         DT      B'10001111',B'11111100',B'01111111'     ;BTC=14
002BA2 0C8F 0CFC 0C7F 04583                         DT      B'10001111',B'11111100',B'01111111'     ;BTC=15
002BA8 0C8F 0CFC 0C7F 04584                         DT      B'10001111',B'11111100',B'01111111'     ;BTC=16
002BAE 0C8F 0CFC 0C7F 04585                         DT      B'10001111',B'11111100',B'01111111'     ;BTC=17
002BB4 0C8F 0CFC 0C7F 04586                         DT      B'10001111',B'11111100',B'01111111'     ;BTC=18
002BBA 0C8F 0CFC 0C7F 04587                         DT      B'10001111',B'11111100',B'01111111'     ;BTC=19
002BC0 0C8F 0CFC 0C7F 04588                         DT      B'10001111',B'11111100',B'01111111'     ;BTC=1A
002BC6 0C8F 0CFC 0C7F 04589                         DT      B'10001111',B'11111100',B'01111111'     ;BTC=1B
002BCC 0C8F 0CFC 0C7F 04590                         DT      B'10001111',B'11111100',B'01111111'     ;BTC=1C
002BD2 0C8F 0CFC 0C7F 04591                         DT      B'10001111',B'11111100',B'01111111'     ;BTC=1D
002BD8 0C8F 0CFC 0C7F 04592                         DT      B'10001111',B'11111100',B'01111111'     ;BTC=1E
002BDE 0CFF 0CFF 0CFF 04593                         DT      B'11111111',B'11111111',B'11111111'     ;BTC=1F
                      04594 
Warning[205]: Found directive in column 1. (ORG)
002C00                04595 ORG 0X2C00
002C00                04596 FONT02H_CAP_O
                      04597 
002C00 0E00           04598         MOVLW   0
002C02 6EFB           04599         MOVWF   PCLATU,0
002C04 0E2C           04600         MOVLW   2C
002C06 6EFA           04601         MOVWF   PCLATH,0
                      04602 
                      04603         
                      04604 
                      04605         
002C08 C146 FFE8      04606                         MOVFF   BTCOUNT,WREG
002C0C 90D8           04607                         BCF             STATUS,C
002C0E 36E8           04608                         RLCF    WREG
                      04609 
                      04610                 
002C10 26F9           04611                         ADDWF   PCL,1,0
002C12 0CFF 0CFF 0CFF 04612                         DT      B'11111111',B'11111111',B'11111111'     ;BTC=00
002C18 0CFC 0C01 0CFF 04613                         DT      B'11111100',B'00000001',B'11111111'     ;BTC=01
002C1E 0CF8 0C00 0CFF 04614                         DT      B'11111000',B'00000000',B'11111111'     ;BTC=02
002C24 0CF0 0C00 0C7F 04615                         DT      B'11110000',B'00000000',B'01111111'     ;BTC=03
MPASM  5.51       20191122_RGMODULE_RTCV1.ASM   11-25-2019  10:52:29         PAGE 92


LOC  OBJECT CODE     LINE SOURCE TEXT
  VALUE

002C2A 0CE0 0CF8 0C3F 04616                         DT      B'11100000',B'11111000',B'00111111'     ;BTC=04
002C30 0CC1 0CFC 0C1F 04617                         DT      B'11000001',B'11111100',B'00011111'     ;BTC=05
002C36 0C83 0CFE 0C0F 04618                         DT      B'10000011',B'11111110',B'00001111'     ;BTC=06
002C3C 0C87 0CFF 0C0F 04619                         DT      B'10000111',B'11111111',B'00001111'     ;BTC=07
002C42 0C87 0CFF 0C0F 04620                         DT      B'10000111',B'11111111',B'00001111'     ;BTC=08
002C48 0C87 0CFF 0C0F 04621                         DT      B'10000111',B'11111111',B'00001111'     ;BTC=09
002C4E 0C87 0CFF 0C0F 04622                         DT      B'10000111',B'11111111',B'00001111'     ;BTC=0A
002C54 0C87 0CFF 0C0F 04623                         DT      B'10000111',B'11111111',B'00001111'     ;BTC=0B
002C5A 0C87 0CFF 0C0F 04624                         DT      B'10000111',B'11111111',B'00001111'     ;BTC=0C
002C60 0C87 0CFF 0C0F 04625                         DT      B'10000111',B'11111111',B'00001111'     ;BTC=0D
002C66 0C87 0CFF 0C0F 04626                         DT      B'10000111',B'11111111',B'00001111'     ;BTC=0E
002C6C 0C87 0CFF 0C0F 04627                         DT      B'10000111',B'11111111',B'00001111'     ;BTC=0F
                      04628 
002C72                04629 FONT02H_LOW_O
                      04630 
002C72 0E00           04631         MOVLW   0
002C74 6EFB           04632         MOVWF   PCLATU,0
002C76 0E2C           04633         MOVLW   2C
002C78 6EFA           04634         MOVWF   PCLATH,0
                      04635 
                      04636         
                      04637 
                      04638         
002C7A C146 FFE8      04639                         MOVFF   BTCOUNT,WREG
002C7E 90D8           04640                         BCF             STATUS,C
002C80 36E8           04641                         RLCF    WREG
                      04642 
                      04643                 
002C82 26F9           04644                         ADDWF   PCL,1,0
002C84 0CFF 0CFF 0CFF 04645                         DT      B'11111111',B'11111111',B'11111111'     ;BTC=00
002C8A 0CFF 0CFF 0CFF 04646                         DT      B'11111111',B'11111111',B'11111111'     ;BTC=01
002C90 0CFF 0CFF 0CFF 04647                         DT      B'11111111',B'11111111',B'11111111'     ;BTC=02
002C96 0CFF 0CFF 0CFF 04648                         DT      B'11111111',B'11111111',B'11111111'     ;BTC=03
002C9C 0CFF 0CFF 0CFF 04649                         DT      B'11111111',B'11111111',B'11111111'     ;BTC=04
002CA2 0CFF 0CFF 0CFF 04650                         DT      B'11111111',B'11111111',B'11111111'     ;BTC=05
002CA8 0CFF 0CFF 0CFF 04651                         DT      B'11111111',B'11111111',B'11111111'     ;BTC=06
002CAE 0CFF 0CFF 0CFF 04652                         DT      B'11111111',B'11111111',B'11111111'     ;BTC=07
002CB4 0CFF 0CFF 0CFF 04653                         DT      B'11111111',B'11111111',B'11111111'     ;BTC=08
002CBA 0CFF 0CFF 0CFF 04654                         DT      B'11111111',B'11111111',B'11111111'     ;BTC=09
002CC0 0CFF 0CFF 0CFF 04655                         DT      B'11111111',B'11111111',B'11111111'     ;BTC=0A
002CC6 0CFF 0CFF 0CFF 04656                         DT      B'11111111',B'11111111',B'11111111'     ;BTC=0B
002CCC 0CFF 0CFF 0CFF 04657                         DT      B'11111111',B'11111111',B'11111111'     ;BTC=0C
002CD2 0CFF 0CFF 0CFF 04658                         DT      B'11111111',B'11111111',B'11111111'     ;BTC=0D
002CD8 0CE0 0C01 0CFF 04659                         DT      B'11100000',B'00000001',B'11111111'     ;BTC=0E
002CDE 0CC0 0C00 0CFF 04660                         DT      B'11000000',B'00000000',B'11111111'     ;BTC=0F
                      04661 
                      04662 
Warning[205]: Found directive in column 1. (ORG)
002D00                04663 ORG 0X2D00
002D00                04664 FONT02L_CAP_O
                      04665 
002D00 0E00           04666         MOVLW   0
002D02 6EFB           04667         MOVWF   PCLATU,0
MPASM  5.51       20191122_RGMODULE_RTCV1.ASM   11-25-2019  10:52:29         PAGE 93


LOC  OBJECT CODE     LINE SOURCE TEXT
  VALUE

002D04 0E2D           04668         MOVLW   2D
002D06 6EFA           04669         MOVWF   PCLATH,0
                      04670 
                      04671 
                      04672 
                      04673 
002D08 C146 FFE8      04674                         MOVFF   BTCOUNT,WREG
002D0C 90D8           04675                         BCF             STATUS,C
002D0E 36E8           04676                         RLCF    WREG
                      04677 
                      04678                 
002D10 26F9           04679                         ADDWF   PCL,1,0
002D12 0C87 0CFF 0C0F 04680                         DT      B'10000111',B'11111111',B'00001111'     ;BTC=10
002D18 0C87 0CFF 0C0F 04681                         DT      B'10000111',B'11111111',B'00001111'     ;BTC=11
002D1E 0C87 0CFF 0C0F 04682                         DT      B'10000111',B'11111111',B'00001111'     ;BTC=12
002D24 0C87 0CFF 0C0F 04683                         DT      B'10000111',B'11111111',B'00001111'     ;BTC=13
002D2A 0C87 0CFF 0C0F 04684                         DT      B'10000111',B'11111111',B'00001111'     ;BTC=14
002D30 0C87 0CFF 0C0F 04685                         DT      B'10000111',B'11111111',B'00001111'     ;BTC=15
002D36 0C87 0CFF 0C0F 04686                         DT      B'10000111',B'11111111',B'00001111'     ;BTC=16
002D3C 0C87 0CFF 0C0F 04687                         DT      B'10000111',B'11111111',B'00001111'     ;BTC=17
002D42 0C87 0CFF 0C0F 04688                         DT      B'10000111',B'11111111',B'00001111'     ;BTC=18
002D48 0C83 0CFE 0C0F 04689                         DT      B'10000011',B'11111110',B'00001111'     ;BTC=19
002D4E 0CC1 0CFC 0C1F 04690                         DT      B'11000001',B'11111100',B'00011111'     ;BTC=1A
002D54 0CE0 0CF8 0C3F 04691                         DT      B'11100000',B'11111000',B'00111111'     ;BTC=1B
002D5A 0CF0 0C00 0C7F 04692                         DT      B'11110000',B'00000000',B'01111111'     ;BTC=1C
002D60 0CF8 0C00 0CFF 04693                         DT      B'11111000',B'00000000',B'11111111'     ;BTC=1D
002D66 0CFC 0C01 0CFF 04694                         DT      B'11111100',B'00000001',B'11111111'     ;BTC=1E
002D6C 0CFF 0CFF 0CFF 04695                         DT      B'11111111',B'11111111',B'11111111'     ;BTC=1F
                      04696 
                      04697 
002D72                04698 FONT02L_LOW_O
                      04699 
002D72 0E00           04700         MOVLW   0
002D74 6EFB           04701         MOVWF   PCLATU,0
002D76 0E2D           04702         MOVLW   2D
002D78 6EFA           04703         MOVWF   PCLATH,0
                      04704 
                      04705 
                      04706 
                      04707 
002D7A C146 FFE8      04708                         MOVFF   BTCOUNT,WREG
002D7E 90D8           04709                         BCF             STATUS,C
002D80 36E8           04710                         RLCF    WREG
                      04711 
                      04712                 
002D82 26F9           04713                         ADDWF   PCL,1,0
002D84 0C80 0C00 0C7F 04714                         DT      B'10000000',B'00000000',B'01111111'     ;BTC=10
002D8A 0C87 0CF8 0C7F 04715                         DT      B'10000111',B'11111000',B'01111111'     ;BTC=11
002D90 0C8F 0CFC 0C7F 04716                         DT      B'10001111',B'11111100',B'01111111'     ;BTC=12
002D96 0C8F 0CFC 0C7F 04717                         DT      B'10001111',B'11111100',B'01111111'     ;BTC=13
002D9C 0C8F 0CFC 0C7F 04718                         DT      B'10001111',B'11111100',B'01111111'     ;BTC=14
002DA2 0C8F 0CFC 0C7F 04719                         DT      B'10001111',B'11111100',B'01111111'     ;BTC=15
002DA8 0C8F 0CFC 0C7F 04720                         DT      B'10001111',B'11111100',B'01111111'     ;BTC=16
MPASM  5.51       20191122_RGMODULE_RTCV1.ASM   11-25-2019  10:52:29         PAGE 94


LOC  OBJECT CODE     LINE SOURCE TEXT
  VALUE

002DAE 0C8F 0CFC 0C7F 04721                         DT      B'10001111',B'11111100',B'01111111'     ;BTC=17
002DB4 0C8F 0CFC 0C7F 04722                         DT      B'10001111',B'11111100',B'01111111'     ;BTC=18
002DBA 0C8F 0CFC 0C7F 04723                         DT      B'10001111',B'11111100',B'01111111'     ;BTC=19
002DC0 0C8F 0CFC 0C7F 04724                         DT      B'10001111',B'11111100',B'01111111'     ;BTC=1A
002DC6 0C87 0CF8 0C7F 04725                         DT      B'10000111',B'11111000',B'01111111'     ;BTC=1B
002DCC 0C80 0C00 0C7F 04726                         DT      B'10000000',B'00000000',B'01111111'     ;BTC=1C
002DD2 0CC0 0C00 0CFF 04727                         DT      B'11000000',B'00000000',B'11111111'     ;BTC=1D
002DD8 0CE0 0C01 0CFF 04728                         DT      B'11100000',B'00000001',B'11111111'     ;BTC=1E
002DDE 0CFF 0CFF 0CFF 04729                         DT      B'11111111',B'11111111',B'11111111'     ;BTC=1F
                      04730 
                      04731 
                      04732 
Warning[205]: Found directive in column 1. (ORG)
002E00                04733 ORG 0X2E00
002E00                04734 FONT02H_CAP_P
                      04735 
002E00 0E00           04736         MOVLW   0
002E02 6EFB           04737         MOVWF   PCLATU,0
002E04 0E2E           04738         MOVLW   2E
002E06 6EFA           04739         MOVWF   PCLATH,0
                      04740 
                      04741         
                      04742 
                      04743         
002E08 C146 FFE8      04744                         MOVFF   BTCOUNT,WREG
002E0C 90D8           04745                         BCF             STATUS,C
002E0E 36E8           04746                         RLCF    WREG
                      04747 
                      04748                 
002E10 26F9           04749                         ADDWF   PCL,1,0
002E12 0CFF 0CFF 0CFF 04750                         DT      B'11111111',B'11111111',B'11111111'     ;BTC=00
002E18 0C80 0C00 0CFF 04751                         DT      B'10000000',B'00000000',B'11111111'     ;BTC=01
002E1E 0C80 0C00 0C7F 04752                         DT      B'10000000',B'00000000',B'01111111'     ;BTC=02
002E24 0C80 0C00 0C3F 04753                         DT      B'10000000',B'00000000',B'00111111'     ;BTC=03
002E2A 0C87 0CFC 0C1F 04754                         DT      B'10000111',B'11111100',B'00011111'     ;BTC=04
002E30 0C87 0CFE 0C0F 04755                         DT      B'10000111',B'11111110',B'00001111'     ;BTC=05
002E36 0C87 0CFF 0C0F 04756                         DT      B'10000111',B'11111111',B'00001111'     ;BTC=06
002E3C 0C87 0CFF 0C0F 04757                         DT      B'10000111',B'11111111',B'00001111'     ;BTC=07
002E42 0C87 0CFF 0C0F 04758                         DT      B'10000111',B'11111111',B'00001111'     ;BTC=08
002E48 0C87 0CFF 0C0F 04759                         DT      B'10000111',B'11111111',B'00001111'     ;BTC=09
002E4E 0C87 0CFF 0C0F 04760                         DT      B'10000111',B'11111111',B'00001111'     ;BTC=0A
002E54 0C87 0CFF 0C0F 04761                         DT      B'10000111',B'11111111',B'00001111'     ;BTC=0B
002E5A 0C87 0CFE 0C0F 04762                         DT      B'10000111',B'11111110',B'00001111'     ;BTC=0C
002E60 0C87 0CFC 0C1F 04763                         DT      B'10000111',B'11111100',B'00011111'     ;BTC=0D
002E66 0C80 0C00 0C3F 04764                         DT      B'10000000',B'00000000',B'00111111'     ;BTC=0E
002E6C 0C80 0C00 0C7F 04765                         DT      B'10000000',B'00000000',B'01111111'     ;BTC=0F
                      04766 
                      04767 
002E72                04768 FONT02H_LOW_P
                      04769 
002E72 0E00           04770         MOVLW   0
002E74 6EFB           04771         MOVWF   PCLATU,0
002E76 0E2E           04772         MOVLW   2E
MPASM  5.51       20191122_RGMODULE_RTCV1.ASM   11-25-2019  10:52:29         PAGE 95


LOC  OBJECT CODE     LINE SOURCE TEXT
  VALUE

002E78 6EFA           04773         MOVWF   PCLATH,0
                      04774 
                      04775         
                      04776 
                      04777         
002E7A C146 FFE8      04778                         MOVFF   BTCOUNT,WREG
002E7E 90D8           04779                         BCF             STATUS,C
002E80 36E8           04780                         RLCF    WREG
                      04781 
                      04782                 
002E82 26F9           04783                         ADDWF   PCL,1,0
002E84 0CFF 0CFF 0CFF 04784                         DT      B'11111111',B'11111111',B'11111111'     ;BTC=00
002E8A 0CFF 0CFF 0CFF 04785                         DT      B'11111111',B'11111111',B'11111111'     ;BTC=01
002E90 0CFF 0CFF 0CFF 04786                         DT      B'11111111',B'11111111',B'11111111'     ;BTC=02
002E96 0CFF 0CFF 0CFF 04787                         DT      B'11111111',B'11111111',B'11111111'     ;BTC=03
002E9C 0CFF 0CFF 0CFF 04788                         DT      B'11111111',B'11111111',B'11111111'     ;BTC=04
002EA2 0CFF 0CFF 0CFF 04789                         DT      B'11111111',B'11111111',B'11111111'     ;BTC=05
002EA8 0C80 0C01 0CFF 04790                         DT      B'10000000',B'00000001',B'11111111'     ;BTC=06
002EAE 0C80 0C00 0CFF 04791                         DT      B'10000000',B'00000000',B'11111111'     ;BTC=07
002EB4 0C80 0C00 0C7F 04792                         DT      B'10000000',B'00000000',B'01111111'     ;BTC=08
002EBA 0C8F 0CF8 0C7F 04793                         DT      B'10001111',B'11111000',B'01111111'     ;BTC=09
002EC0 0C8F 0CFC 0C7F 04794                         DT      B'10001111',B'11111100',B'01111111'     ;BTC=0A
002EC6 0C8F 0CFC 0C7F 04795                         DT      B'10001111',B'11111100',B'01111111'     ;BTC=0B
002ECC 0C8F 0CFC 0C7F 04796                         DT      B'10001111',B'11111100',B'01111111'     ;BTC=0C
002ED2 0C8F 0CFC 0C7F 04797                         DT      B'10001111',B'11111100',B'01111111'     ;BTC=0D
002ED8 0C8F 0CFC 0C7F 04798                         DT      B'10001111',B'11111100',B'01111111'     ;BTC=0E
002EDE 0C8F 0CFC 0C7F 04799                         DT      B'10001111',B'11111100',B'01111111'     ;BTC=0F
                      04800 
                      04801 
                      04802 
Warning[205]: Found directive in column 1. (ORG)
002F00                04803 ORG 0X2F00
002F00                04804 FONT02L_CAP_P
                      04805 
002F00 0E00           04806         MOVLW   0
002F02 6EFB           04807         MOVWF   PCLATU,0
002F04 0E2F           04808         MOVLW   2F
002F06 6EFA           04809         MOVWF   PCLATH,0
                      04810 
                      04811 
                      04812 
                      04813 
002F08 C146 FFE8      04814                         MOVFF   BTCOUNT,WREG
002F0C 90D8           04815                         BCF             STATUS,C
002F0E 36E8           04816                         RLCF    WREG
                      04817 
                      04818                 
002F10 26F9           04819                         ADDWF   PCL,1,0
002F12 0C80 0C00 0CFF 04820                         DT      B'10000000',B'00000000',B'11111111'     ;BTC=10
002F18 0C87 0CFF 0CFF 04821                         DT      B'10000111',B'11111111',B'11111111'     ;BTC=11
002F1E 0C87 0CFF 0CFF 04822                         DT      B'10000111',B'11111111',B'11111111'     ;BTC=12
002F24 0C87 0CFF 0CFF 04823                         DT      B'10000111',B'11111111',B'11111111'     ;BTC=13
002F2A 0C87 0CFF 0CFF 04824                         DT      B'10000111',B'11111111',B'11111111'     ;BTC=14
MPASM  5.51       20191122_RGMODULE_RTCV1.ASM   11-25-2019  10:52:29         PAGE 96


LOC  OBJECT CODE     LINE SOURCE TEXT
  VALUE

002F30 0C87 0CFF 0CFF 04825                         DT      B'10000111',B'11111111',B'11111111'     ;BTC=15
002F36 0C87 0CFF 0CFF 04826                         DT      B'10000111',B'11111111',B'11111111'     ;BTC=16
002F3C 0C87 0CFF 0CFF 04827                         DT      B'10000111',B'11111111',B'11111111'     ;BTC=17
002F42 0C87 0CFF 0CFF 04828                         DT      B'10000111',B'11111111',B'11111111'     ;BTC=18
002F48 0C87 0CFF 0CFF 04829                         DT      B'10000111',B'11111111',B'11111111'     ;BTC=19
002F4E 0C87 0CFF 0CFF 04830                         DT      B'10000111',B'11111111',B'11111111'     ;BTC=1A
002F54 0C87 0CFF 0CFF 04831                         DT      B'10000111',B'11111111',B'11111111'     ;BTC=1B
002F5A 0C87 0CFF 0CFF 04832                         DT      B'10000111',B'11111111',B'11111111'     ;BTC=1C
002F60 0C87 0CFF 0CFF 04833                         DT      B'10000111',B'11111111',B'11111111'     ;BTC=1D
002F66 0C87 0CFF 0CFF 04834                         DT      B'10000111',B'11111111',B'11111111'     ;BTC=1E
002F6C 0CFF 0CFF 0CFF 04835                         DT      B'11111111',B'11111111',B'11111111'     ;BTC=1F
                      04836 
                      04837 
002F72                04838 FONT02L_LOW_P
                      04839 
002F72 0E00           04840         MOVLW   0
002F74 6EFB           04841         MOVWF   PCLATU,0
002F76 0E2F           04842         MOVLW   2F
002F78 6EFA           04843         MOVWF   PCLATH,0
                      04844 
                      04845 
                      04846 
                      04847 
002F7A C146 FFE8      04848                         MOVFF   BTCOUNT,WREG
002F7E 90D8           04849                         BCF             STATUS,C
002F80 36E8           04850                         RLCF    WREG
                      04851 
                      04852                 
002F82 26F9           04853                         ADDWF   PCL,1,0
002F84 0C8F 0CFC 0C7F 04854                         DT      B'10001111',B'11111100',B'01111111'     ;BTC=10
002F8A 0C8F 0CF8 0C7F 04855                         DT      B'10001111',B'11111000',B'01111111'     ;BTC=11
002F90 0C80 0C00 0C7F 04856                         DT      B'10000000',B'00000000',B'01111111'     ;BTC=12
002F96 0C80 0C00 0CFF 04857                         DT      B'10000000',B'00000000',B'11111111'     ;BTC=13
002F9C 0C80 0C01 0CFF 04858                         DT      B'10000000',B'00000001',B'11111111'     ;BTC=14
002FA2 0C8F 0CFF 0CFF 04859                         DT      B'10001111',B'11111111',B'11111111'     ;BTC=15
002FA8 0C8F 0CFF 0CFF 04860                         DT      B'10001111',B'11111111',B'11111111'     ;BTC=16
002FAE 0C8F 0CFF 0CFF 04861                         DT      B'10001111',B'11111111',B'11111111'     ;BTC=17
002FB4 0C8F 0CFF 0CFF 04862                         DT      B'10001111',B'11111111',B'11111111'     ;BTC=18
002FBA 0C8F 0CFF 0CFF 04863                         DT      B'10001111',B'11111111',B'11111111'     ;BTC=19
002FC0 0C8F 0CFF 0CFF 04864                         DT      B'10001111',B'11111111',B'11111111'     ;BTC=1A
002FC6 0C8F 0CFF 0CFF 04865                         DT      B'10001111',B'11111111',B'11111111'     ;BTC=1B
002FCC 0C8F 0CFF 0CFF 04866                         DT      B'10001111',B'11111111',B'11111111'     ;BTC=1C
002FD2 0C8F 0CFF 0CFF 04867                         DT      B'10001111',B'11111111',B'11111111'     ;BTC=1D
002FD8 0C8F 0CFF 0CFF 04868                         DT      B'10001111',B'11111111',B'11111111'     ;BTC=1E
002FDE 0C8F 0CFF 0CFF 04869                         DT      B'10001111',B'11111111',B'11111111'     ;BTC=1F
                      04870 
                      04871 
                      04872 
Warning[205]: Found directive in column 1. (ORG)
003000                04873 ORG 0X3000
003000                04874 FONT02H_CAP_Q
                      04875 
003000 0E00           04876         MOVLW   0
MPASM  5.51       20191122_RGMODULE_RTCV1.ASM   11-25-2019  10:52:29         PAGE 97


LOC  OBJECT CODE     LINE SOURCE TEXT
  VALUE

003002 6EFB           04877         MOVWF   PCLATU,0
003004 0E30           04878         MOVLW   30
003006 6EFA           04879         MOVWF   PCLATH,0
                      04880 
                      04881         
                      04882 
                      04883         
003008 C146 FFE8      04884                         MOVFF   BTCOUNT,WREG
00300C 90D8           04885                         BCF             STATUS,C
00300E 36E8           04886                         RLCF    WREG
                      04887 
                      04888                 
003010 26F9           04889                         ADDWF   PCL,1,0
003012 0CFF 0CFF 0CFF 04890                         DT      B'11111111',B'11111111',B'11111111'     ;BTC=00
003018 0CFC 0C01 0CFF 04891                         DT      B'11111100',B'00000001',B'11111111'     ;BTC=01
00301E 0CF8 0C00 0CFF 04892                         DT      B'11111000',B'00000000',B'11111111'     ;BTC=02
003024 0CF0 0C00 0C7F 04893                         DT      B'11110000',B'00000000',B'01111111'     ;BTC=03
00302A 0CE0 0CF8 0C3F 04894                         DT      B'11100000',B'11111000',B'00111111'     ;BTC=04
003030 0CC1 0CFC 0C1F 04895                         DT      B'11000001',B'11111100',B'00011111'     ;BTC=05
003036 0C83 0CFE 0C0F 04896                         DT      B'10000011',B'11111110',B'00001111'     ;BTC=06
00303C 0C87 0CFF 0C0F 04897                         DT      B'10000111',B'11111111',B'00001111'     ;BTC=07
003042 0C87 0CFF 0C0F 04898                         DT      B'10000111',B'11111111',B'00001111'     ;BTC=08
003048 0C87 0CFF 0C0F 04899                         DT      B'10000111',B'11111111',B'00001111'     ;BTC=09
00304E 0C87 0CFF 0C0F 04900                         DT      B'10000111',B'11111111',B'00001111'     ;BTC=0A
003054 0C87 0CFF 0C0F 04901                         DT      B'10000111',B'11111111',B'00001111'     ;BTC=0B
00305A 0C87 0CFF 0C0F 04902                         DT      B'10000111',B'11111111',B'00001111'     ;BTC=0C
003060 0C87 0CFF 0C0F 04903                         DT      B'10000111',B'11111111',B'00001111'     ;BTC=0D
003066 0C87 0CFF 0C0F 04904                         DT      B'10000111',B'11111111',B'00001111'     ;BTC=0E
00306C 0C87 0CFF 0C0F 04905                         DT      B'10000111',B'11111111',B'00001111'     ;BTC=0F
                      04906 
003072                04907 FONT02H_LOW_Q
                      04908 
003072 0E00           04909         MOVLW   0
003074 6EFB           04910         MOVWF   PCLATU,0
003076 0E30           04911         MOVLW   30
003078 6EFA           04912         MOVWF   PCLATH,0
                      04913 
                      04914         
                      04915 
                      04916         
00307A C146 FFE8      04917                         MOVFF   BTCOUNT,WREG
00307E 90D8           04918                         BCF             STATUS,C
003080 36E8           04919                         RLCF    WREG
                      04920 
                      04921                 
003082 26F9           04922                         ADDWF   PCL,1,0
003084 0CFF 0CFF 0CFF 04923                         DT      B'11111111',B'11111111',B'11111111'     ;BTC=00
00308A 0CFF 0CFF 0CFF 04924                         DT      B'11111111',B'11111111',B'11111111'     ;BTC=01
003090 0CFF 0CFF 0CFF 04925                         DT      B'11111111',B'11111111',B'11111111'     ;BTC=02
003096 0CFF 0CFF 0CFF 04926                         DT      B'11111111',B'11111111',B'11111111'     ;BTC=03
00309C 0CFF 0CFF 0CFF 04927                         DT      B'11111111',B'11111111',B'11111111'     ;BTC=04
0030A2 0CFF 0CFF 0CFF 04928                         DT      B'11111111',B'11111111',B'11111111'     ;BTC=05
0030A8 0CE0 0C00 0C7F 04929                         DT      B'11100000',B'00000000',B'01111111'     ;BTC=06
MPASM  5.51       20191122_RGMODULE_RTCV1.ASM   11-25-2019  10:52:29         PAGE 98


LOC  OBJECT CODE     LINE SOURCE TEXT
  VALUE

0030AE 0CC0 0C00 0C7F 04930                         DT      B'11000000',B'00000000',B'01111111'     ;BTC=07
0030B4 0C80 0C00 0C7F 04931                         DT      B'10000000',B'00000000',B'01111111'     ;BTC=08
0030BA 0C87 0CFC 0C7F 04932                         DT      B'10000111',B'11111100',B'01111111'     ;BTC=09
0030C0 0C8F 0CFC 0C7F 04933                         DT      B'10001111',B'11111100',B'01111111'     ;BTC=0A
0030C6 0C8F 0CFC 0C7F 04934                         DT      B'10001111',B'11111100',B'01111111'     ;BTC=0B
0030CC 0C8F 0CFC 0C7F 04935                         DT      B'10001111',B'11111100',B'01111111'     ;BTC=0C
0030D2 0C8F 0CFC 0C7F 04936                         DT      B'10001111',B'11111100',B'01111111'     ;BTC=0D
0030D8 0C8F 0CFC 0C7F 04937                         DT      B'10001111',B'11111100',B'01111111'     ;BTC=0E
0030DE 0C8F 0CFC 0C7F 04938                         DT      B'10001111',B'11111100',B'01111111'     ;BTC=0F
                      04939 
                      04940 
                      04941 
Warning[205]: Found directive in column 1. (ORG)
003100                04942 ORG 0X3100
003100                04943 FONT02L_CAP_Q
                      04944 
003100 0E00           04945         MOVLW   0
003102 6EFB           04946         MOVWF   PCLATU,0
003104 0E31           04947         MOVLW   31
003106 6EFA           04948         MOVWF   PCLATH,0
                      04949 
                      04950 
                      04951 
                      04952 
003108 C146 FFE8      04953                         MOVFF   BTCOUNT,WREG
00310C 90D8           04954                         BCF             STATUS,C
00310E 36E8           04955                         RLCF    WREG
                      04956 
                      04957                 
003110 26F9           04958                         ADDWF   PCL,1,0
003112 0C87 0CFF 0C0F 04959                         DT      B'10000111',B'11111111',B'00001111'     ;BTC=10
003118 0C87 0CFF 0C0F 04960                         DT      B'10000111',B'11111111',B'00001111'     ;BTC=11
00311E 0C87 0CFF 0C0F 04961                         DT      B'10000111',B'11111111',B'00001111'     ;BTC=12
003124 0C87 0CFF 0C0F 04962                         DT      B'10000111',B'11111111',B'00001111'     ;BTC=13
00312A 0C87 0CFF 0C0F 04963                         DT      B'10000111',B'11111111',B'00001111'     ;BTC=14
003130 0C87 0CFF 0C0F 04964                         DT      B'10000111',B'11111111',B'00001111'     ;BTC=15
003136 0C87 0CFF 0C0F 04965                         DT      B'10000111',B'11111111',B'00001111'     ;BTC=16
00313C 0C87 0CFF 0C0F 04966                         DT      B'10000111',B'11111111',B'00001111'     ;BTC=17
003142 0C87 0CF9 0C0F 04967                         DT      B'10000111',B'11111001',B'00001111'     ;BTC=18
003148 0C83 0CF0 0C0F 04968                         DT      B'10000011',B'11110000',B'00001111'     ;BTC=19
00314E 0CC1 0CF0 0C1F 04969                         DT      B'11000001',B'11110000',B'00011111'     ;BTC=1A
003154 0CE0 0CF8 0C3F 04970                         DT      B'11100000',B'11111000',B'00111111'     ;BTC=1B
00315A 0CF0 0C00 0C1F 04971                         DT      B'11110000',B'00000000',B'00011111'     ;BTC=1C
003160 0CF8 0C00 0C1F 04972                         DT      B'11111000',B'00000000',B'00011111'     ;BTC=1D
003166 0CFC 0C01 0C3F 04973                         DT      B'11111100',B'00000001',B'00111111'     ;BTC=1E
00316C 0CFF 0CFF 0CFF 04974                         DT      B'11111111',B'11111111',B'11111111'     ;BTC=1F
                      04975 
003172                04976 FONT02L_LOW_Q
                      04977 
003172 0E00           04978         MOVLW   0
003174 6EFB           04979         MOVWF   PCLATU,0
003176 0E31           04980         MOVLW   31
003178 6EFA           04981         MOVWF   PCLATH,0
MPASM  5.51       20191122_RGMODULE_RTCV1.ASM   11-25-2019  10:52:29         PAGE 99


LOC  OBJECT CODE     LINE SOURCE TEXT
  VALUE

                      04982 
                      04983 
                      04984 
                      04985 
00317A C146 FFE8      04986                         MOVFF   BTCOUNT,WREG
00317E 90D8           04987                         BCF             STATUS,C
003180 36E8           04988                         RLCF    WREG
                      04989 
                      04990                 
003182 26F9           04991                         ADDWF   PCL,1,0
003184 0C8F 0CFC 0C7F 04992                         DT      B'10001111',B'11111100',B'01111111'     ;BTC=10
00318A 0C87 0CFC 0C7F 04993                         DT      B'10000111',B'11111100',B'01111111'     ;BTC=11
003190 0C80 0C00 0C7F 04994                         DT      B'10000000',B'00000000',B'01111111'     ;BTC=12
003196 0CC0 0C00 0C7F 04995                         DT      B'11000000',B'00000000',B'01111111'     ;BTC=13
00319C 0CE0 0C00 0C7F 04996                         DT      B'11100000',B'00000000',B'01111111'     ;BTC=14
0031A2 0CFF 0CFC 0C7F 04997                         DT      B'11111111',B'11111100',B'01111111'     ;BTC=15
0031A8 0CFF 0CFC 0C7F 04998                         DT      B'11111111',B'11111100',B'01111111'     ;BTC=16
0031AE 0CFF 0CFC 0C7F 04999                         DT      B'11111111',B'11111100',B'01111111'     ;BTC=17
0031B4 0CFF 0CFC 0C7F 05000                         DT      B'11111111',B'11111100',B'01111111'     ;BTC=18
0031BA 0CFF 0CFC 0C7F 05001                         DT      B'11111111',B'11111100',B'01111111'     ;BTC=19
0031C0 0CFF 0CFC 0C7F 05002                         DT      B'11111111',B'11111100',B'01111111'     ;BTC=1A
0031C6 0CFF 0CFC 0C7F 05003                         DT      B'11111111',B'11111100',B'01111111'     ;BTC=1B
0031CC 0CFF 0CFC 0C7F 05004                         DT      B'11111111',B'11111100',B'01111111'     ;BTC=1C
0031D2 0CFF 0CFC 0C3F 05005                         DT      B'11111111',B'11111100',B'00111111'     ;BTC=1D
0031D8 0CFF 0CFC 0C3F 05006                         DT      B'11111111',B'11111100',B'00111111'     ;BTC=1E
0031DE 0CFF 0CFC 0C3F 05007                         DT      B'11111111',B'11111100',B'00111111'     ;BTC=1F
                      05008 
                      05009 
                      05010 
Warning[205]: Found directive in column 1. (ORG)
003200                05011 ORG 0X3200
003200                05012 FONT02H_CAP_R
                      05013 
003200 0E00           05014         MOVLW   0
003202 6EFB           05015         MOVWF   PCLATU,0
003204 0E32           05016         MOVLW   32
003206 6EFA           05017         MOVWF   PCLATH,0
                      05018 
                      05019         
                      05020 
                      05021         
003208 C146 FFE8      05022                         MOVFF   BTCOUNT,WREG
00320C 90D8           05023                         BCF             STATUS,C
00320E 36E8           05024                         RLCF    WREG
                      05025 
                      05026                 
003210 26F9           05027                         ADDWF   PCL,1,0
003212 0CFF 0CFF 0CFF 05028                         DT      B'11111111',B'11111111',B'11111111'     ;BTC=00
003218 0C80 0C00 0CFF 05029                         DT      B'10000000',B'00000000',B'11111111'     ;BTC=01
00321E 0C80 0C00 0C7F 05030                         DT      B'10000000',B'00000000',B'01111111'     ;BTC=02
003224 0C80 0C00 0C3F 05031                         DT      B'10000000',B'00000000',B'00111111'     ;BTC=03
00322A 0C87 0CFC 0C1F 05032                         DT      B'10000111',B'11111100',B'00011111'     ;BTC=04
003230 0C87 0CFE 0C0F 05033                         DT      B'10000111',B'11111110',B'00001111'     ;BTC=05
MPASM  5.51       20191122_RGMODULE_RTCV1.ASM   11-25-2019  10:52:29         PAGE 100


LOC  OBJECT CODE     LINE SOURCE TEXT
  VALUE

003236 0C87 0CFF 0C0F 05034                         DT      B'10000111',B'11111111',B'00001111'     ;BTC=06
00323C 0C87 0CFF 0C0F 05035                         DT      B'10000111',B'11111111',B'00001111'     ;BTC=07
003242 0C87 0CFF 0C0F 05036                         DT      B'10000111',B'11111111',B'00001111'     ;BTC=08
003248 0C87 0CFF 0C0F 05037                         DT      B'10000111',B'11111111',B'00001111'     ;BTC=09
00324E 0C87 0CFF 0C0F 05038                         DT      B'10000111',B'11111111',B'00001111'     ;BTC=0A
003254 0C87 0CFF 0C0F 05039                         DT      B'10000111',B'11111111',B'00001111'     ;BTC=0B
00325A 0C87 0CFE 0C0F 05040                         DT      B'10000111',B'11111110',B'00001111'     ;BTC=0C
003260 0C87 0CFC 0C1F 05041                         DT      B'10000111',B'11111100',B'00011111'     ;BTC=0D
003266 0C80 0C00 0C3F 05042                         DT      B'10000000',B'00000000',B'00111111'     ;BTC=0E
00326C 0C80 0C00 0C7F 05043                         DT      B'10000000',B'00000000',B'01111111'     ;BTC=0F
                      05044 
003272                05045 FONT02H_LOW_R
                      05046 
003272 0E00           05047         MOVLW   0
003274 6EFB           05048         MOVWF   PCLATU,0
003276 0E32           05049         MOVLW   32
003278 6EFA           05050         MOVWF   PCLATH,0
                      05051 
                      05052         
                      05053 
                      05054         
00327A C146 FFE8      05055                         MOVFF   BTCOUNT,WREG
00327E 90D8           05056                         BCF             STATUS,C
003280 36E8           05057                         RLCF    WREG
                      05058 
                      05059                 
003282 26F9           05060                         ADDWF   PCL,1,0
003284 0CFF 0CFF 0CFF 05061                         DT      B'11111111',B'11111111',B'11111111'     ;BTC=00
00328A 0CFF 0CFF 0CFF 05062                         DT      B'11111111',B'11111111',B'11111111'     ;BTC=01
003290 0CFF 0CFF 0CFF 05063                         DT      B'11111111',B'11111111',B'11111111'     ;BTC=02
003296 0CFF 0CFF 0CFF 05064                         DT      B'11111111',B'11111111',B'11111111'     ;BTC=03
00329C 0CFF 0CFF 0CFF 05065                         DT      B'11111111',B'11111111',B'11111111'     ;BTC=04
0032A2 0CFF 0CFF 0CFF 05066                         DT      B'11111111',B'11111111',B'11111111'     ;BTC=05
0032A8 0CFF 0CFF 0CFF 05067                         DT      B'11111111',B'11111111',B'11111111'     ;BTC=06
0032AE 0CFF 0CFF 0CFF 05068                         DT      B'11111111',B'11111111',B'11111111'     ;BTC=07
0032B4 0CFF 0CFF 0CFF 05069                         DT      B'11111111',B'11111111',B'11111111'     ;BTC=08
0032BA 0CFF 0CFF 0CFF 05070                         DT      B'11111111',B'11111111',B'11111111'     ;BTC=09
0032C0 0CFF 0CFF 0CFF 05071                         DT      B'11111111',B'11111111',B'11111111'     ;BTC=0A
0032C6 0CFF 0CFF 0CFF 05072                         DT      B'11111111',B'11111111',B'11111111'     ;BTC=0B
0032CC 0CFF 0CFF 0CFF 05073                         DT      B'11111111',B'11111111',B'11111111'     ;BTC=0C
0032D2 0CFF 0CFF 0CFF 05074                         DT      B'11111111',B'11111111',B'11111111'     ;BTC=0D
0032D8 0C88 0C1F 0CFF 05075                         DT      B'10001000',B'00011111',B'11111111'     ;BTC=0E
0032DE 0C80 0C0F 0CFF 05076                         DT      B'10000000',B'00001111',B'11111111'     ;BTC=0F
                      05077 
                      05078 
Warning[205]: Found directive in column 1. (ORG)
003300                05079 ORG 0X3300
003300                05080 FONT02L_CAP_R
                      05081 
003300 0E00           05082         MOVLW   0
003302 6EFB           05083         MOVWF   PCLATU,0
003304 0E33           05084         MOVLW   33
003306 6EFA           05085         MOVWF   PCLATH,0
MPASM  5.51       20191122_RGMODULE_RTCV1.ASM   11-25-2019  10:52:29         PAGE 101


LOC  OBJECT CODE     LINE SOURCE TEXT
  VALUE

                      05086 
                      05087 
                      05088 
                      05089 
003308 C146 FFE8      05090                         MOVFF   BTCOUNT,WREG
00330C 90D8           05091                         BCF             STATUS,C
00330E 36E8           05092                         RLCF    WREG
                      05093 
                      05094                 
003310 26F9           05095                         ADDWF   PCL,1,0
003312 0C80 0C00 0CFF 05096                         DT      B'10000000',B'00000000',B'11111111'     ;BTC=10
003318 0C87 0CC3 0CFF 05097                         DT      B'10000111',B'11000011',B'11111111'     ;BTC=11
00331E 0C87 0CC3 0CFF 05098                         DT      B'10000111',B'11000011',B'11111111'     ;BTC=12
003324 0C87 0CE1 0CFF 05099                         DT      B'10000111',B'11100001',B'11111111'     ;BTC=13
00332A 0C87 0CE1 0CFF 05100                         DT      B'10000111',B'11100001',B'11111111'     ;BTC=14
003330 0C87 0CF0 0CFF 05101                         DT      B'10000111',B'11110000',B'11111111'     ;BTC=15
003336 0C87 0CF0 0CFF 05102                         DT      B'10000111',B'11110000',B'11111111'     ;BTC=16
00333C 0C87 0CF8 0C7F 05103                         DT      B'10000111',B'11111000',B'01111111'     ;BTC=17
003342 0C87 0CF8 0C7F 05104                         DT      B'10000111',B'11111000',B'01111111'     ;BTC=18
003348 0C87 0CFC 0C3F 05105                         DT      B'10000111',B'11111100',B'00111111'     ;BTC=19
00334E 0C87 0CFC 0C3F 05106                         DT      B'10000111',B'11111100',B'00111111'     ;BTC=1A
003354 0C87 0CFE 0C1F 05107                         DT      B'10000111',B'11111110',B'00011111'     ;BTC=1B
00335A 0C87 0CFE 0C1F 05108                         DT      B'10000111',B'11111110',B'00011111'     ;BTC=1C
003360 0C87 0CFF 0C0F 05109                         DT      B'10000111',B'11111111',B'00001111'     ;BTC=1D
003366 0C87 0CFF 0C0F 05110                         DT      B'10000111',B'11111111',B'00001111'     ;BTC=1E
00336C 0CFF 0CFF 0CFF 05111                         DT      B'11111111',B'11111111',B'11111111'     ;BTC=1F
                      05112 
003372                05113 FONT02L_LOW_R
                      05114 
003372 0E00           05115         MOVLW   0
003374 6EFB           05116         MOVWF   PCLATU,0
003376 0E33           05117         MOVLW   33
003378 6EFA           05118         MOVWF   PCLATH,0
                      05119 
                      05120 
                      05121 
                      05122 
00337A C146 FFE8      05123                         MOVFF   BTCOUNT,WREG
00337E 90D8           05124                         BCF             STATUS,C
003380 36E8           05125                         RLCF    WREG
                      05126 
                      05127                 
003382 26F9           05128                         ADDWF   PCL,1,0
003384 0C80 0C07 0CFF 05129                         DT      B'10000000',B'00000111',B'11111111'     ;BTC=10
00338A 0C87 0CC7 0CFF 05130                         DT      B'10000111',B'11000111',B'11111111'     ;BTC=11
003390 0C8F 0CFF 0CFF 05131                         DT      B'10001111',B'11111111',B'11111111'     ;BTC=12
003396 0C8F 0CFF 0CFF 05132                         DT      B'10001111',B'11111111',B'11111111'     ;BTC=13
00339C 0C8F 0CFF 0CFF 05133                         DT      B'10001111',B'11111111',B'11111111'     ;BTC=14
0033A2 0C8F 0CFF 0CFF 05134                         DT      B'10001111',B'11111111',B'11111111'     ;BTC=15
0033A8 0C8F 0CFF 0CFF 05135                         DT      B'10001111',B'11111111',B'11111111'     ;BTC=16
0033AE 0C8F 0CFF 0CFF 05136                         DT      B'10001111',B'11111111',B'11111111'     ;BTC=17
0033B4 0C8F 0CFF 0CFF 05137                         DT      B'10001111',B'11111111',B'11111111'     ;BTC=18
0033BA 0C8F 0CFF 0CFF 05138                         DT      B'10001111',B'11111111',B'11111111'     ;BTC=19
MPASM  5.51       20191122_RGMODULE_RTCV1.ASM   11-25-2019  10:52:29         PAGE 102


LOC  OBJECT CODE     LINE SOURCE TEXT
  VALUE

0033C0 0C8F 0CFF 0CFF 05139                         DT      B'10001111',B'11111111',B'11111111'     ;BTC=1A
0033C6 0C8F 0CFF 0CFF 05140                         DT      B'10001111',B'11111111',B'11111111'     ;BTC=1B
0033CC 0C8F 0CFF 0CFF 05141                         DT      B'10001111',B'11111111',B'11111111'     ;BTC=1C
0033D2 0C8F 0CFF 0CFF 05142                         DT      B'10001111',B'11111111',B'11111111'     ;BTC=1D
0033D8 0C8F 0CFF 0CFF 05143                         DT      B'10001111',B'11111111',B'11111111'     ;BTC=1E
0033DE 0CFF 0CFF 0CFF 05144                         DT      B'11111111',B'11111111',B'11111111'     ;BTC=1F
                      05145 
                      05146 
Warning[205]: Found directive in column 1. (ORG)
003400                05147 ORG 0X3400
003400                05148 FONT02H_CAP_S
                      05149 
003400 0E00           05150         MOVLW   0
003402 6EFB           05151         MOVWF   PCLATU,0
003404 0E34           05152         MOVLW   34
003406 6EFA           05153         MOVWF   PCLATH,0
                      05154 
                      05155         
                      05156 
                      05157         
003408 C146 FFE8      05158                         MOVFF   BTCOUNT,WREG
00340C 90D8           05159                         BCF             STATUS,C
00340E 36E8           05160                         RLCF    WREG
                      05161 
                      05162                 
003410 26F9           05163                         ADDWF   PCL,1,0
003412 0CFF 0CFF 0CFF 05164                         DT      B'11111111',B'11111111',B'11111111'     ;BTC=00
003418 0CF8 0C00 0C0F 05165                         DT      B'11111000',B'00000000',B'00001111'     ;BTC=01
00341E 0CF0 0C00 0C0F 05166                         DT      B'11110000',B'00000000',B'00001111'     ;BTC=02
003424 0CE0 0C00 0C0F 05167                         DT      B'11100000',B'00000000',B'00001111'     ;BTC=03
00342A 0CC0 0C00 0C0F 05168                         DT      B'11000000',B'00000000',B'00001111'     ;BTC=04
003430 0C81 0CFF 0CFF 05169                         DT      B'10000001',B'11111111',B'11111111'     ;BTC=05
003436 0C83 0CFF 0CFF 05170                         DT      B'10000011',B'11111111',B'11111111'     ;BTC=06
00343C 0C87 0CFF 0CFF 05171                         DT      B'10000111',B'11111111',B'11111111'     ;BTC=07
003442 0C87 0CFF 0CFF 05172                         DT      B'10000111',B'11111111',B'11111111'     ;BTC=08
003448 0C87 0CFF 0CFF 05173                         DT      B'10000111',B'11111111',B'11111111'     ;BTC=09
00344E 0C87 0CFF 0CFF 05174                         DT      B'10000111',B'11111111',B'11111111'     ;BTC=0A
003454 0C87 0CFF 0CFF 05175                         DT      B'10000111',B'11111111',B'11111111'     ;BTC=0B
00345A 0C83 0CFF 0CFF 05176                         DT      B'10000011',B'11111111',B'11111111'     ;BTC=0C
003460 0C81 0CFF 0CFF 05177                         DT      B'10000001',B'11111111',B'11111111'     ;BTC=0D
003466 0CC0 0C00 0CFF 05178                         DT      B'11000000',B'00000000',B'11111111'     ;BTC=0E
00346C 0CE0 0C00 0C7F 05179                         DT      B'11100000',B'00000000',B'01111111'     ;BTC=0F
                      05180 
                      05181 
003472                05182 FONT02H_LOW_S
                      05183 
003472 0E00           05184         MOVLW   0
003474 6EFB           05185         MOVWF   PCLATU,0
003476 0E34           05186         MOVLW   34
003478 6EFA           05187         MOVWF   PCLATH,0
                      05188 
                      05189         
                      05190 
MPASM  5.51       20191122_RGMODULE_RTCV1.ASM   11-25-2019  10:52:29         PAGE 103


LOC  OBJECT CODE     LINE SOURCE TEXT
  VALUE

                      05191         
00347A C146 FFE8      05192                         MOVFF   BTCOUNT,WREG
00347E 90D8           05193                         BCF             STATUS,C
003480 36E8           05194                         RLCF    WREG
                      05195 
                      05196                 
003482 26F9           05197                         ADDWF   PCL,1,0
003484 0CFF 0CFF 0CFF 05198                         DT      B'11111111',B'11111111',B'11111111'     ;BTC=00
00348A 0CFF 0CFF 0CFF 05199                         DT      B'11111111',B'11111111',B'11111111'     ;BTC=01
003490 0CFF 0CFF 0CFF 05200                         DT      B'11111111',B'11111111',B'11111111'     ;BTC=02
003496 0CFF 0CFF 0CFF 05201                         DT      B'11111111',B'11111111',B'11111111'     ;BTC=03
00349C 0CFF 0CFF 0CFF 05202                         DT      B'11111111',B'11111111',B'11111111'     ;BTC=04
0034A2 0CFF 0CFF 0CFF 05203                         DT      B'11111111',B'11111111',B'11111111'     ;BTC=05
0034A8 0CFF 0CFF 0CFF 05204                         DT      B'11111111',B'11111111',B'11111111'     ;BTC=06
0034AE 0CFF 0CFF 0CFF 05205                         DT      B'11111111',B'11111111',B'11111111'     ;BTC=07
0034B4 0CFF 0CFF 0CFF 05206                         DT      B'11111111',B'11111111',B'11111111'     ;BTC=08
0034BA 0CFF 0CFF 0CFF 05207                         DT      B'11111111',B'11111111',B'11111111'     ;BTC=09
0034C0 0CFF 0CFF 0CFF 05208                         DT      B'11111111',B'11111111',B'11111111'     ;BTC=0A
0034C6 0CFF 0CFF 0CFF 05209                         DT      B'11111111',B'11111111',B'11111111'     ;BTC=0B
0034CC 0CFF 0CFF 0CFF 05210                         DT      B'11111111',B'11111111',B'11111111'     ;BTC=0C
0034D2 0CFF 0CFF 0CFF 05211                         DT      B'11111111',B'11111111',B'11111111'     ;BTC=0D
0034D8 0CF0 0C1F 0CFF 05212                         DT      B'11110000',B'00011111',B'11111111'     ;BTC=0E
0034DE 0CE0 0C0F 0CFF 05213                         DT      B'11100000',B'00001111',B'11111111'     ;BTC=0F
                      05214 
                      05215 
Warning[205]: Found directive in column 1. (ORG)
003500                05216 ORG 0X3500
003500                05217 FONT02L_LOW_S
                      05218 
003500 0E00           05219         MOVLW   0
003502 6EFB           05220         MOVWF   PCLATU,0
003504 0E35           05221         MOVLW   35
003506 6EFA           05222         MOVWF   PCLATH,0
                      05223 
                      05224 
                      05225 
                      05226 
003508 C146 FFE8      05227                         MOVFF   BTCOUNT,WREG
00350C 90D8           05228                         BCF             STATUS,C
00350E 36E8           05229                         RLCF    WREG
                      05230 
                      05231                 
003510 26F9           05232                         ADDWF   PCL,1,0
003512 0CC0 0C07 0CFF 05233                         DT      B'11000000',B'00000111',B'11111111'     ;BTC=10
003518 0C87 0CC7 0CFF 05234                         DT      B'10000111',B'11000111',B'11111111'     ;BTC=11
00351E 0C8F 0CFF 0CFF 05235                         DT      B'10001111',B'11111111',B'11111111'     ;BTC=12
003524 0C8F 0CFF 0CFF 05236                         DT      B'10001111',B'11111111',B'11111111'     ;BTC=13
00352A 0C87 0CFF 0CFF 05237                         DT      B'10000111',B'11111111',B'11111111'     ;BTC=14
003530 0C80 0C1F 0CFF 05238                         DT      B'10000000',B'00011111',B'11111111'     ;BTC=15
003536 0CC0 0C0F 0CFF 05239                         DT      B'11000000',B'00001111',B'11111111'     ;BTC=16
00353C 0CE0 0C07 0CFF 05240                         DT      B'11100000',B'00000111',B'11111111'     ;BTC=17
003542 0CFF 0C87 0CFF 05241                         DT      B'11111111',B'10000111',B'11111111'     ;BTC=18
003548 0CFF 0CC7 0CFF 05242                         DT      B'11111111',B'11000111',B'11111111'     ;BTC=19
MPASM  5.51       20191122_RGMODULE_RTCV1.ASM   11-25-2019  10:52:29         PAGE 104


LOC  OBJECT CODE     LINE SOURCE TEXT
  VALUE

00354E 0CFF 0CC7 0CFF 05243                         DT      B'11111111',B'11000111',B'11111111'     ;BTC=1A
003554 0C8F 0C87 0CFF 05244                         DT      B'10001111',B'10000111',B'11111111'     ;BTC=1B
00355A 0C80 0C0F 0CFF 05245                         DT      B'10000000',B'00001111',B'11111111'     ;BTC=1C
003560 0CC0 0C1F 0CFF 05246                         DT      B'11000000',B'00011111',B'11111111'     ;BTC=1D
003566 0CE0 0C3F 0CFF 05247                         DT      B'11100000',B'00111111',B'11111111'     ;BTC=1E
00356C 0CFF 0CFF 0CFF 05248                         DT      B'11111111',B'11111111',B'11111111'     ;BTC=1F
                      05249 
003572                05250 FONT02L_CAP_S
                      05251 
003572 0E00           05252         MOVLW   0
003574 6EFB           05253         MOVWF   PCLATU,0
003576 0E35           05254         MOVLW   35
003578 6EFA           05255         MOVWF   PCLATH,0
                      05256 
                      05257 
                      05258 
                      05259 
00357A C146 FFE8      05260                         MOVFF   BTCOUNT,WREG
00357E 90D8           05261                         BCF             STATUS,C
003580 36E8           05262                         RLCF    WREG
                      05263 
                      05264                 
003582 26F9           05265                         ADDWF   PCL,1,0
003584 0CF0 0C00 0C3F 05266                         DT      B'11110000',B'00000000',B'00111111'     ;BTC=10
00358A 0CF8 0C00 0C1F 05267                         DT      B'11111000',B'00000000',B'00011111'     ;BTC=11
003590 0CFF 0CFC 0C0F 05268                         DT      B'11111111',B'11111100',B'00001111'     ;BTC=12
003596 0CFF 0CFE 0C0F 05269                         DT      B'11111111',B'11111110',B'00001111'     ;BTC=13
00359C 0CFF 0CFF 0C0F 05270                         DT      B'11111111',B'11111111',B'00001111'     ;BTC=14
0035A2 0CFF 0CFF 0C0F 05271                         DT      B'11111111',B'11111111',B'00001111'     ;BTC=15
0035A8 0CFF 0CFF 0C0F 05272                         DT      B'11111111',B'11111111',B'00001111'     ;BTC=16
0035AE 0CFF 0CFF 0C0F 05273                         DT      B'11111111',B'11111111',B'00001111'     ;BTC=17
0035B4 0CFF 0CFF 0C0F 05274                         DT      B'11111111',B'11111111',B'00001111'     ;BTC=18
0035BA 0CFF 0CFE 0C0F 05275                         DT      B'11111111',B'11111110',B'00001111'     ;BTC=19
0035C0 0CFF 0CFC 0C0F 05276                         DT      B'11111111',B'11111100',B'00001111'     ;BTC=1A
0035C6 0C80 0C00 0C1F 05277                         DT      B'10000000',B'00000000',B'00011111'     ;BTC=1B
0035CC 0C80 0C00 0C3F 05278                         DT      B'10000000',B'00000000',B'00111111'     ;BTC=1C
0035D2 0C80 0C00 0C7F 05279                         DT      B'10000000',B'00000000',B'01111111'     ;BTC=1D
0035D8 0C80 0C00 0CFF 05280                         DT      B'10000000',B'00000000',B'11111111'     ;BTC=1E
0035DE 0CFF 0CFF 0CFF 05281                         DT      B'11111111',B'11111111',B'11111111'     ;BTC=1F
                      05282 
                      05283 
                      05284 
                      05285 
Warning[205]: Found directive in column 1. (ORG)
003600                05286 ORG 0X3600
003600                05287 FONT02H_CAP_T
                      05288 
003600 0E00           05289         MOVLW   0
003602 6EFB           05290         MOVWF   PCLATU,0
003604 0E36           05291         MOVLW   36
003606 6EFA           05292         MOVWF   PCLATH,0
                      05293 
                      05294         
MPASM  5.51       20191122_RGMODULE_RTCV1.ASM   11-25-2019  10:52:29         PAGE 105


LOC  OBJECT CODE     LINE SOURCE TEXT
  VALUE

                      05295 
                      05296         
003608 C146 FFE8      05297                         MOVFF   BTCOUNT,WREG
00360C 90D8           05298                         BCF             STATUS,C
00360E 36E8           05299                         RLCF    WREG
                      05300 
                      05301                 
003610 26F9           05302                         ADDWF   PCL,1,0
003612 0CFF 0CFF 0CFF 05303                         DT      B'11111111',B'11111111',B'11111111'     ;BTC=00
003618 0C80 0C00 0C1F 05304                         DT      B'10000000',B'00000000',B'00011111'     ;BTC=01
00361E 0C80 0C00 0C1F 05305                         DT      B'10000000',B'00000000',B'00011111'     ;BTC=02
003624 0C80 0C00 0C1F 05306                         DT      B'10000000',B'00000000',B'00011111'     ;BTC=03
00362A 0C80 0C00 0C1F 05307                         DT      B'10000000',B'00000000',B'00011111'     ;BTC=04
003630 0CFF 0C0F 0CFF 05308                         DT      B'11111111',B'00001111',B'11111111'     ;BTC=05
003636 0CFF 0C0F 0CFF 05309                         DT      B'11111111',B'00001111',B'11111111'     ;BTC=06
00363C 0CFF 0C0F 0CFF 05310                         DT      B'11111111',B'00001111',B'11111111'     ;BTC=07
003642 0CFF 0C0F 0CFF 05311                         DT      B'11111111',B'00001111',B'11111111'     ;BTC=08
003648 0CFF 0C0F 0CFF 05312                         DT      B'11111111',B'00001111',B'11111111'     ;BTC=09
00364E 0CFF 0C0F 0CFF 05313                         DT      B'11111111',B'00001111',B'11111111'     ;BTC=0A
003654 0CFF 0C0F 0CFF 05314                         DT      B'11111111',B'00001111',B'11111111'     ;BTC=0B
00365A 0CFF 0C0F 0CFF 05315                         DT      B'11111111',B'00001111',B'11111111'     ;BTC=0C
003660 0CFF 0C0F 0CFF 05316                         DT      B'11111111',B'00001111',B'11111111'     ;BTC=0D
003666 0CFF 0C0F 0CFF 05317                         DT      B'11111111',B'00001111',B'11111111'     ;BTC=0E
00366C 0CFF 0C0F 0CFF 05318                         DT      B'11111111',B'00001111',B'11111111'     ;BTC=0F
                      05319 
003672                05320 FONT02H_LOW_T
                      05321 
003672 0E00           05322         MOVLW   0
003674 6EFB           05323         MOVWF   PCLATU,0
003676 0E36           05324         MOVLW   36
003678 6EFA           05325         MOVWF   PCLATH,0
                      05326 
                      05327         
                      05328 
                      05329         
00367A C146 FFE8      05330                         MOVFF   BTCOUNT,WREG
00367E 90D8           05331                         BCF             STATUS,C
003680 36E8           05332                         RLCF    WREG
                      05333 
                      05334                 
003682 26F9           05335                         ADDWF   PCL,1,0
003684 0CFF 0CFF 0CFF 05336                         DT      B'11111111',B'11111111',B'11111111'     ;BTC=00
00368A 0CF8 0CFF 0CFF 05337                         DT      B'11111000',B'11111111',B'11111111'     ;BTC=01
003690 0CF8 0CFF 0CFF 05338                         DT      B'11111000',B'11111111',B'11111111'     ;BTC=02
003696 0CF8 0CFF 0CFF 05339                         DT      B'11111000',B'11111111',B'11111111'     ;BTC=03
00369C 0CF8 0CFF 0CFF 05340                         DT      B'11111000',B'11111111',B'11111111'     ;BTC=04
0036A2 0CF8 0CFF 0CFF 05341                         DT      B'11111000',B'11111111',B'11111111'     ;BTC=05
0036A8 0CF8 0CFF 0CFF 05342                         DT      B'11111000',B'11111111',B'11111111'     ;BTC=06
0036AE 0CF8 0CFF 0CFF 05343                         DT      B'11111000',B'11111111',B'11111111'     ;BTC=07
0036B4 0CF8 0CFF 0CFF 05344                         DT      B'11111000',B'11111111',B'11111111'     ;BTC=08
0036BA 0CF8 0CFF 0CFF 05345                         DT      B'11111000',B'11111111',B'11111111'     ;BTC=09
0036C0 0CF8 0CFF 0CFF 05346                         DT      B'11111000',B'11111111',B'11111111'     ;BTC=0A
0036C6 0CF8 0CFF 0CFF 05347                         DT      B'11111000',B'11111111',B'11111111'     ;BTC=0B
MPASM  5.51       20191122_RGMODULE_RTCV1.ASM   11-25-2019  10:52:29         PAGE 106


LOC  OBJECT CODE     LINE SOURCE TEXT
  VALUE

0036CC 0CF8 0CFF 0CFF 05348                         DT      B'11111000',B'11111111',B'11111111'     ;BTC=0C
0036D2 0CF8 0CFF 0CFF 05349                         DT      B'11111000',B'11111111',B'11111111'     ;BTC=0D
0036D8 0C80 0C0F 0CFF 05350                         DT      B'10000000',B'00001111',B'11111111'     ;BTC=0E
0036DE 0C80 0C0F 0CFF 05351                         DT      B'10000000',B'00001111',B'11111111'     ;BTC=0F
                      05352 
                      05353 
Warning[205]: Found directive in column 1. (ORG)
003700                05354 ORG 0X3700
003700                05355 FONT02L_CAP_T
                      05356 
003700 0E00           05357         MOVLW   0
003702 6EFB           05358         MOVWF   PCLATU,0
003704 0E37           05359         MOVLW   37
003706 6EFA           05360         MOVWF   PCLATH,0
                      05361 
                      05362 
                      05363 
                      05364 
003708 C146 FFE8      05365                         MOVFF   BTCOUNT,WREG
00370C 90D8           05366                         BCF             STATUS,C
00370E 36E8           05367                         RLCF    WREG
                      05368 
                      05369                 
003710 26F9           05370                         ADDWF   PCL,1,0
003712 0CFF 0C0F 0CFF 05371                         DT      B'11111111',B'00001111',B'11111111'     ;BTC=10
003718 0CFF 0C0F 0CFF 05372                         DT      B'11111111',B'00001111',B'11111111'     ;BTC=11
00371E 0CFF 0C0F 0CFF 05373                         DT      B'11111111',B'00001111',B'11111111'     ;BTC=12
003724 0CFF 0C0F 0CFF 05374                         DT      B'11111111',B'00001111',B'11111111'     ;BTC=13
00372A 0CFF 0C0F 0CFF 05375                         DT      B'11111111',B'00001111',B'11111111'     ;BTC=14
003730 0CFF 0C0F 0CFF 05376                         DT      B'11111111',B'00001111',B'11111111'     ;BTC=15
003736 0CFF 0C0F 0CFF 05377                         DT      B'11111111',B'00001111',B'11111111'     ;BTC=16
00373C 0CFF 0C0F 0CFF 05378                         DT      B'11111111',B'00001111',B'11111111'     ;BTC=17
003742 0CFF 0C0F 0CFF 05379                         DT      B'11111111',B'00001111',B'11111111'     ;BTC=18
003748 0CFF 0C0F 0CFF 05380                         DT      B'11111111',B'00001111',B'11111111'     ;BTC=19
00374E 0CFF 0C0F 0CFF 05381                         DT      B'11111111',B'00001111',B'11111111'     ;BTC=1A
003754 0CFF 0C0F 0CFF 05382                         DT      B'11111111',B'00001111',B'11111111'     ;BTC=1B
00375A 0CFF 0C0F 0CFF 05383                         DT      B'11111111',B'00001111',B'11111111'     ;BTC=1C
003760 0CFF 0C0F 0CFF 05384                         DT      B'11111111',B'00001111',B'11111111'     ;BTC=1D
003766 0CFF 0C0F 0CFF 05385                         DT      B'11111111',B'00001111',B'11111111'     ;BTC=1E
00376C 0CFF 0CFF 0CFF 05386                         DT      B'11111111',B'11111111',B'11111111'     ;BTC=1F
                      05387 
                      05388 
003772                05389 FONT02L_LOW_T
                      05390 
003772 0E00           05391         MOVLW   0
003774 6EFB           05392         MOVWF   PCLATU,0
003776 0E37           05393         MOVLW   37
003778 6EFA           05394         MOVWF   PCLATH,0
                      05395 
                      05396 
                      05397 
                      05398 
00377A C146 FFE8      05399                         MOVFF   BTCOUNT,WREG
MPASM  5.51       20191122_RGMODULE_RTCV1.ASM   11-25-2019  10:52:29         PAGE 107


LOC  OBJECT CODE     LINE SOURCE TEXT
  VALUE

00377E 90D8           05400                         BCF             STATUS,C
003780 36E8           05401                         RLCF    WREG
                      05402 
                      05403                 
003782 26F9           05404                         ADDWF   PCL,1,0
003784 0C80 0C0F 0CFF 05405                         DT      B'10000000',B'00001111',B'11111111'     ;BTC=10
00378A 0CF8 0CFF 0CFF 05406                         DT      B'11111000',B'11111111',B'11111111'     ;BTC=11
003790 0CF8 0CFF 0CFF 05407                         DT      B'11111000',B'11111111',B'11111111'     ;BTC=12
003796 0CF8 0CFF 0CFF 05408                         DT      B'11111000',B'11111111',B'11111111'     ;BTC=13
00379C 0CF8 0CFF 0CFF 05409                         DT      B'11111000',B'11111111',B'11111111'     ;BTC=14
0037A2 0CF8 0CFF 0CFF 05410                         DT      B'11111000',B'11111111',B'11111111'     ;BTC=15
0037A8 0CF8 0CFF 0CFF 05411                         DT      B'11111000',B'11111111',B'11111111'     ;BTC=16
0037AE 0CF8 0CFF 0CFF 05412                         DT      B'11111000',B'11111111',B'11111111'     ;BTC=17
0037B4 0CF8 0CFF 0CFF 05413                         DT      B'11111000',B'11111111',B'11111111'     ;BTC=18
0037BA 0CF8 0CFF 0CFF 05414                         DT      B'11111000',B'11111111',B'11111111'     ;BTC=19
0037C0 0CF8 0CE3 0CFF 05415                         DT      B'11111000',B'11100011',B'11111111'     ;BTC=1A
0037C6 0CF8 0C63 0CFF 05416                         DT      B'11111000',B'01100011',B'11111111'     ;BTC=1B
0037CC 0CF8 0C03 0CFF 05417                         DT      B'11111000',B'00000011',B'11111111'     ;BTC=1C
0037D2 0CFC 0C07 0CFF 05418                         DT      B'11111100',B'00000111',B'11111111'     ;BTC=1D
0037D8 0CFE 0C0F 0CFF 05419                         DT      B'11111110',B'00001111',B'11111111'     ;BTC=1E
0037DE 0CFF 0CFF 0CFF 05420                         DT      B'11111111',B'11111111',B'11111111'     ;BTC=1F
                      05421 
Warning[205]: Found directive in column 1. (ORG)
003800                05422 ORG 0X3800
003800                05423 FONT02H_CAP_U
                      05424 
003800 0E00           05425         MOVLW   0
003802 6EFB           05426         MOVWF   PCLATU,0
003804 0E38           05427         MOVLW   38
003806 6EFA           05428         MOVWF   PCLATH,0
                      05429 
                      05430         
                      05431 
                      05432         
003808 C146 FFE8      05433                         MOVFF   BTCOUNT,WREG
00380C 90D8           05434                         BCF             STATUS,C
00380E 36E8           05435                         RLCF    WREG
                      05436 
                      05437                 
003810 26F9           05438                         ADDWF   PCL,1,0
003812 0CFF 0CFF 0CFF 05439                         DT      B'11111111',B'11111111',B'11111111'     ;BTC=00
003818 0C87 0CFF 0C0F 05440                         DT      B'10000111',B'11111111',B'00001111'     ;BTC=01
00381E 0C87 0CFF 0C0F 05441                         DT      B'10000111',B'11111111',B'00001111'     ;BTC=02
003824 0C87 0CFF 0C0F 05442                         DT      B'10000111',B'11111111',B'00001111'     ;BTC=03
00382A 0C87 0CFF 0C0F 05443                         DT      B'10000111',B'11111111',B'00001111'     ;BTC=04
003830 0C87 0CFF 0C0F 05444                         DT      B'10000111',B'11111111',B'00001111'     ;BTC=05
003836 0C87 0CFF 0C0F 05445                         DT      B'10000111',B'11111111',B'00001111'     ;BTC=06
00383C 0C87 0CFF 0C0F 05446                         DT      B'10000111',B'11111111',B'00001111'     ;BTC=07
003842 0C87 0CFF 0C0F 05447                         DT      B'10000111',B'11111111',B'00001111'     ;BTC=08
003848 0C87 0CFF 0C0F 05448                         DT      B'10000111',B'11111111',B'00001111'     ;BTC=09
00384E 0C87 0CFF 0C0F 05449                         DT      B'10000111',B'11111111',B'00001111'     ;BTC=0A
003854 0C87 0CFF 0C0F 05450                         DT      B'10000111',B'11111111',B'00001111'     ;BTC=0B
00385A 0C87 0CFF 0C0F 05451                         DT      B'10000111',B'11111111',B'00001111'     ;BTC=0C
MPASM  5.51       20191122_RGMODULE_RTCV1.ASM   11-25-2019  10:52:29         PAGE 108


LOC  OBJECT CODE     LINE SOURCE TEXT
  VALUE

003860 0C87 0CFF 0C0F 05452                         DT      B'10000111',B'11111111',B'00001111'     ;BTC=0D
003866 0C87 0CFF 0C0F 05453                         DT      B'10000111',B'11111111',B'00001111'     ;BTC=0E
00386C 0C87 0CFF 0C0F 05454                         DT      B'10000111',B'11111111',B'00001111'     ;BTC=0F
                      05455 
003872                05456 FONT02H_LOW_U
                      05457 
003872 0E00           05458         MOVLW   0
003874 6EFB           05459         MOVWF   PCLATU,0
003876 0E38           05460         MOVLW   38
003878 6EFA           05461         MOVWF   PCLATH,0
                      05462 
                      05463         
                      05464 
                      05465         
00387A C146 FFE8      05466                         MOVFF   BTCOUNT,WREG
00387E 90D8           05467                         BCF             STATUS,C
003880 36E8           05468                         RLCF    WREG
                      05469 
                      05470                 
003882 26F9           05471                         ADDWF   PCL,1,0
003884 0CFF 0CFF 0CFF 05472                         DT      B'11111111',B'11111111',B'11111111'     ;BTC=00
00388A 0CFF 0CFF 0CFF 05473                         DT      B'11111111',B'11111111',B'11111111'     ;BTC=01
003890 0CFF 0CFF 0CFF 05474                         DT      B'11111111',B'11111111',B'11111111'     ;BTC=02
003896 0CFF 0CFF 0CFF 05475                         DT      B'11111111',B'11111111',B'11111111'     ;BTC=03
00389C 0CFF 0CFF 0CFF 05476                         DT      B'11111111',B'11111111',B'11111111'     ;BTC=04
0038A2 0CFF 0CFF 0CFF 05477                         DT      B'11111111',B'11111111',B'11111111'     ;BTC=05
0038A8 0CFF 0CFF 0CFF 05478                         DT      B'11111111',B'11111111',B'11111111'     ;BTC=06
0038AE 0CFF 0CFF 0CFF 05479                         DT      B'11111111',B'11111111',B'11111111'     ;BTC=07
0038B4 0CFF 0CFF 0CFF 05480                         DT      B'11111111',B'11111111',B'11111111'     ;BTC=08
0038BA 0CFF 0CFF 0CFF 05481                         DT      B'11111111',B'11111111',B'11111111'     ;BTC=09
0038C0 0CFF 0CFF 0CFF 05482                         DT      B'11111111',B'11111111',B'11111111'     ;BTC=0A
0038C6 0CFF 0CFF 0CFF 05483                         DT      B'11111111',B'11111111',B'11111111'     ;BTC=0B
0038CC 0CFF 0CFF 0CFF 05484                         DT      B'11111111',B'11111111',B'11111111'     ;BTC=0C
0038D2 0CFF 0CFF 0CFF 05485                         DT      B'11111111',B'11111111',B'11111111'     ;BTC=0D
0038D8 0C8F 0CFC 0C7F 05486                         DT      B'10001111',B'11111100',B'01111111'     ;BTC=0E
0038DE 0C8F 0CFC 0C7F 05487                         DT      B'10001111',B'11111100',B'01111111'     ;BTC=0F
                      05488 
Warning[205]: Found directive in column 1. (ORG)
003900                05489 ORG 0X3900
003900                05490 FONT02L_CAP_U
                      05491 
003900 0E00           05492         MOVLW   0
003902 6EFB           05493         MOVWF   PCLATU,0
003904 0E39           05494         MOVLW   39
003906 6EFA           05495         MOVWF   PCLATH,0
                      05496 
                      05497 
                      05498 
                      05499 
003908 C146 FFE8      05500                         MOVFF   BTCOUNT,WREG
00390C 90D8           05501                         BCF             STATUS,C
00390E 36E8           05502                         RLCF    WREG
                      05503 
MPASM  5.51       20191122_RGMODULE_RTCV1.ASM   11-25-2019  10:52:29         PAGE 109


LOC  OBJECT CODE     LINE SOURCE TEXT
  VALUE

                      05504                 
003910 26F9           05505                         ADDWF   PCL,1,0
003912 0C87 0CFF 0C0F 05506                         DT      B'10000111',B'11111111',B'00001111'     ;BTC=10
003918 0C87 0CFF 0C0F 05507                         DT      B'10000111',B'11111111',B'00001111'     ;BTC=11
00391E 0C87 0CFF 0C0F 05508                         DT      B'10000111',B'11111111',B'00001111'     ;BTC=12
003924 0C87 0CFF 0C0F 05509                         DT      B'10000111',B'11111111',B'00001111'     ;BTC=13
00392A 0C87 0CFF 0C0F 05510                         DT      B'10000111',B'11111111',B'00001111'     ;BTC=14
003930 0C87 0CFF 0C0F 05511                         DT      B'10000111',B'11111111',B'00001111'     ;BTC=15
003936 0C87 0CFF 0C0F 05512                         DT      B'10000111',B'11111111',B'00001111'     ;BTC=16
00393C 0C87 0CFF 0C0F 05513                         DT      B'10000111',B'11111111',B'00001111'     ;BTC=17
003942 0C87 0CFF 0C0F 05514                         DT      B'10000111',B'11111111',B'00001111'     ;BTC=18
003948 0C87 0CFF 0C0F 05515                         DT      B'10000111',B'11111111',B'00001111'     ;BTC=19
00394E 0C83 0CFE 0C0F 05516                         DT      B'10000011',B'11111110',B'00001111'     ;BTC=1A
003954 0C81 0CFC 0C0F 05517                         DT      B'10000001',B'11111100',B'00001111'     ;BTC=1B
00395A 0CC0 0C00 0C1F 05518                         DT      B'11000000',B'00000000',B'00011111'     ;BTC=1C
003960 0CE0 0C00 0C3F 05519                         DT      B'11100000',B'00000000',B'00111111'     ;BTC=1D
003966 0CF0 0C00 0C7F 05520                         DT      B'11110000',B'00000000',B'01111111'     ;BTC=1E
00396C 0CFF 0CFF 0CFF 05521                         DT      B'11111111',B'11111111',B'11111111'     ;BTC=1F
                      05522 
003972                05523 FONT02L_LOW_U
                      05524 
003972 0E00           05525         MOVLW   0
003974 6EFB           05526         MOVWF   PCLATU,0
003976 0E39           05527         MOVLW   39
003978 6EFA           05528         MOVWF   PCLATH,0
                      05529 
                      05530 
                      05531 
                      05532 
00397A C146 FFE8      05533                         MOVFF   BTCOUNT,WREG
00397E 90D8           05534                         BCF             STATUS,C
003980 36E8           05535                         RLCF    WREG
                      05536 
                      05537                 
003982 26F9           05538                         ADDWF   PCL,1,0
003984 0C8F 0CFC 0C7F 05539                         DT      B'10001111',B'11111100',B'01111111'     ;BTC=10
00398A 0C8F 0CFC 0C7F 05540                         DT      B'10001111',B'11111100',B'01111111'     ;BTC=11
003990 0C8F 0CFC 0C7F 05541                         DT      B'10001111',B'11111100',B'01111111'     ;BTC=12
003996 0C8F 0CFC 0C7F 05542                         DT      B'10001111',B'11111100',B'01111111'     ;BTC=13
00399C 0C8F 0CFC 0C7F 05543                         DT      B'10001111',B'11111100',B'01111111'     ;BTC=14
0039A2 0C8F 0CFC 0C7F 05544                         DT      B'10001111',B'11111100',B'01111111'     ;BTC=15
0039A8 0C8F 0CFC 0C7F 05545                         DT      B'10001111',B'11111100',B'01111111'     ;BTC=16
0039AE 0C8F 0CFC 0C7F 05546                         DT      B'10001111',B'11111100',B'01111111'     ;BTC=17
0039B4 0C8F 0CFC 0C7F 05547                         DT      B'10001111',B'11111100',B'01111111'     ;BTC=18
0039BA 0C8F 0CFC 0C7F 05548                         DT      B'10001111',B'11111100',B'01111111'     ;BTC=19
0039C0 0C8F 0CFC 0C7F 05549                         DT      B'10001111',B'11111100',B'01111111'     ;BTC=1A
0039C6 0C87 0CF8 0C7F 05550                         DT      B'10000111',B'11111000',B'01111111'     ;BTC=1B
0039CC 0C80 0C00 0C7F 05551                         DT      B'10000000',B'00000000',B'01111111'     ;BTC=1C
0039D2 0CC0 0C00 0C7F 05552                         DT      B'11000000',B'00000000',B'01111111'     ;BTC=1D
0039D8 0CE0 0C04 0C7F 05553                         DT      B'11100000',B'00000100',B'01111111'     ;BTC=1E
0039DE 0CFF 0CFF 0CFF 05554                         DT      B'11111111',B'11111111',B'11111111'     ;BTC=1F
                      05555 
                      05556 
MPASM  5.51       20191122_RGMODULE_RTCV1.ASM   11-25-2019  10:52:29         PAGE 110


LOC  OBJECT CODE     LINE SOURCE TEXT
  VALUE

                      05557 
                      05558 
Warning[205]: Found directive in column 1. (ORG)
003A00                05559 ORG 0X3A00
003A00                05560 FONT02H_CAP_V
                      05561 
003A00 0E00           05562         MOVLW   0
003A02 6EFB           05563         MOVWF   PCLATU,0
003A04 0E3A           05564         MOVLW   3A
003A06 6EFA           05565         MOVWF   PCLATH,0
                      05566 
                      05567         
                      05568 
                      05569         
003A08 C146 FFE8      05570                         MOVFF   BTCOUNT,WREG
003A0C 90D8           05571                         BCF             STATUS,C
003A0E 36E8           05572                         RLCF    WREG
                      05573 
                      05574                 
003A10 26F9           05575                         ADDWF   PCL,1,0
003A12 0CFF 0CFF 0CFF 05576                         DT      B'11111111',B'11111111',B'11111111'     ;BTC=00
003A18 0C87 0CFF 0C0F 05577                         DT      B'10000111',B'11111111',B'00001111'     ;BTC=01
003A1E 0C87 0CFF 0C0F 05578                         DT      B'10000111',B'11111111',B'00001111'     ;BTC=02
003A24 0C87 0CFF 0C0F 05579                         DT      B'10000111',B'11111111',B'00001111'     ;BTC=03
003A2A 0C87 0CFF 0C0F 05580                         DT      B'10000111',B'11111111',B'00001111'     ;BTC=04
003A30 0C87 0CFF 0C0F 05581                         DT      B'10000111',B'11111111',B'00001111'     ;BTC=05
003A36 0C87 0CFF 0C0F 05582                         DT      B'10000111',B'11111111',B'00001111'     ;BTC=06
003A3C 0C87 0CFF 0C0F 05583                         DT      B'10000111',B'11111111',B'00001111'     ;BTC=07
003A42 0C87 0CFF 0C0F 05584                         DT      B'10000111',B'11111111',B'00001111'     ;BTC=08
003A48 0C87 0CFF 0C0F 05585                         DT      B'10000111',B'11111111',B'00001111'     ;BTC=09
003A4E 0C87 0CFF 0C0F 05586                         DT      B'10000111',B'11111111',B'00001111'     ;BTC=0A
003A54 0C87 0CFF 0C0F 05587                         DT      B'10000111',B'11111111',B'00001111'     ;BTC=0B
003A5A 0C87 0CFF 0C0F 05588                         DT      B'10000111',B'11111111',B'00001111'     ;BTC=0C
003A60 0C87 0CFF 0C0F 05589                         DT      B'10000111',B'11111111',B'00001111'     ;BTC=0D
003A66 0C87 0CFF 0C0F 05590                         DT      B'10000111',B'11111111',B'00001111'     ;BTC=0E
003A6C 0C87 0CFF 0C0F 05591                         DT      B'10000111',B'11111111',B'00001111'     ;BTC=0F
                      05592 
                      05593 
003A72                05594 FONT02H_LOW_V
                      05595 
003A72 0E00           05596         MOVLW   0
003A74 6EFB           05597         MOVWF   PCLATU,0
003A76 0E3A           05598         MOVLW   3A
003A78 6EFA           05599         MOVWF   PCLATH,0
                      05600 
                      05601         
                      05602 
                      05603         
003A7A C146 FFE8      05604                         MOVFF   BTCOUNT,WREG
003A7E 90D8           05605                         BCF             STATUS,C
003A80 36E8           05606                         RLCF    WREG
                      05607 
                      05608                 
MPASM  5.51       20191122_RGMODULE_RTCV1.ASM   11-25-2019  10:52:29         PAGE 111


LOC  OBJECT CODE     LINE SOURCE TEXT
  VALUE

003A82 26F9           05609                         ADDWF   PCL,1,0
003A84 0CFF 0CFF 0CFF 05610                         DT      B'11111111',B'11111111',B'11111111'     ;BTC=00
003A8A 0CFF 0CFF 0CFF 05611                         DT      B'11111111',B'11111111',B'11111111'     ;BTC=01
003A90 0CFF 0CFF 0CFF 05612                         DT      B'11111111',B'11111111',B'11111111'     ;BTC=02
003A96 0CFF 0CFF 0CFF 05613                         DT      B'11111111',B'11111111',B'11111111'     ;BTC=03
003A9C 0CFF 0CFF 0CFF 05614                         DT      B'11111111',B'11111111',B'11111111'     ;BTC=04
003AA2 0CFF 0CFF 0CFF 05615                         DT      B'11111111',B'11111111',B'11111111'     ;BTC=05
003AA8 0CFF 0CFF 0CFF 05616                         DT      B'11111111',B'11111111',B'11111111'     ;BTC=06
003AAE 0CFF 0CFF 0CFF 05617                         DT      B'11111111',B'11111111',B'11111111'     ;BTC=07
003AB4 0CFF 0CFF 0CFF 05618                         DT      B'11111111',B'11111111',B'11111111'     ;BTC=08
003ABA 0CFF 0CFF 0CFF 05619                         DT      B'11111111',B'11111111',B'11111111'     ;BTC=09
003AC0 0CFF 0CFF 0CFF 05620                         DT      B'11111111',B'11111111',B'11111111'     ;BTC=0A
003AC6 0CFF 0CFF 0CFF 05621                         DT      B'11111111',B'11111111',B'11111111'     ;BTC=0B
003ACC 0CFF 0CFF 0CFF 05622                         DT      B'11111111',B'11111111',B'11111111'     ;BTC=0C
003AD2 0CFF 0CFF 0CFF 05623                         DT      B'11111111',B'11111111',B'11111111'     ;BTC=0D
003AD8 0C8F 0CFC 0C7F 05624                         DT      B'10001111',B'11111100',B'01111111'     ;BTC=0E
003ADE 0C8F 0CFC 0C7F 05625                         DT      B'10001111',B'11111100',B'01111111'     ;BTC=0F
                      05626 
                      05627 
Warning[205]: Found directive in column 1. (ORG)
003B00                05628 ORG 0X3B00
003B00                05629 FONT02L_CAP_V
                      05630 
003B00 0E00           05631         MOVLW   0
003B02 6EFB           05632         MOVWF   PCLATU,0
003B04 0E3B           05633         MOVLW   3B
003B06 6EFA           05634         MOVWF   PCLATH,0
                      05635 
                      05636 
                      05637 
                      05638 
003B08 C146 FFE8      05639                         MOVFF   BTCOUNT,WREG
003B0C 90D8           05640                         BCF             STATUS,C
003B0E 36E8           05641                         RLCF    WREG
                      05642 
                      05643                 
003B10 26F9           05644                         ADDWF   PCL,1,0
003B12 0C87 0CFF 0C0F 05645                         DT      B'10000111',B'11111111',B'00001111'     ;BTC=10
003B18 0C87 0CFF 0C0F 05646                         DT      B'10000111',B'11111111',B'00001111'     ;BTC=11
003B1E 0C87 0CFF 0C0F 05647                         DT      B'10000111',B'11111111',B'00001111'     ;BTC=12
003B24 0C87 0CFF 0C0F 05648                         DT      B'10000111',B'11111111',B'00001111'     ;BTC=13
003B2A 0C87 0CFF 0C0F 05649                         DT      B'10000111',B'11111111',B'00001111'     ;BTC=14
003B30 0C87 0CFF 0C0F 05650                         DT      B'10000111',B'11111111',B'00001111'     ;BTC=15
003B36 0C87 0CFF 0C0F 05651                         DT      B'10000111',B'11111111',B'00001111'     ;BTC=16
003B3C 0C87 0CFF 0C0F 05652                         DT      B'10000111',B'11111111',B'00001111'     ;BTC=17
003B42 0CC3 0CFE 0C1F 05653                         DT      B'11000011',B'11111110',B'00011111'     ;BTC=18
003B48 0CE1 0CFC 0C3F 05654                         DT      B'11100001',B'11111100',B'00111111'     ;BTC=19
003B4E 0CF0 0CF8 0C7F 05655                         DT      B'11110000',B'11111000',B'01111111'     ;BTC=1A
003B54 0CF8 0C70 0CFF 05656                         DT      B'11111000',B'01110000',B'11111111'     ;BTC=1B
003B5A 0CFC 0C01 0CFF 05657                         DT      B'11111100',B'00000001',B'11111111'     ;BTC=1C
003B60 0CFE 0C03 0CFF 05658                         DT      B'11111110',B'00000011',B'11111111'     ;BTC=1D
003B66 0CFF 0C07 0CFF 05659                         DT      B'11111111',B'00000111',B'11111111'     ;BTC=1E
003B6C 0CFF 0CFF 0CFF 05660                         DT      B'11111111',B'11111111',B'11111111'     ;BTC=1F
MPASM  5.51       20191122_RGMODULE_RTCV1.ASM   11-25-2019  10:52:29         PAGE 112


LOC  OBJECT CODE     LINE SOURCE TEXT
  VALUE

                      05661 
                      05662 
003B72                05663 FONT02L_LOW_V
                      05664 
003B72 0E00           05665         MOVLW   0
003B74 6EFB           05666         MOVWF   PCLATU,0
003B76 0E3B           05667         MOVLW   3B
003B78 6EFA           05668         MOVWF   PCLATH,0
                      05669 
                      05670 
                      05671 
                      05672 
003B7A C146 FFE8      05673                         MOVFF   BTCOUNT,WREG
003B7E 90D8           05674                         BCF             STATUS,C
003B80 36E8           05675                         RLCF    WREG
                      05676 
                      05677                 
003B82 26F9           05678                         ADDWF   PCL,1,0
003B84 0C8F 0CFC 0C7F 05679                         DT      B'10001111',B'11111100',B'01111111'     ;BTC=10
003B8A 0C8F 0CFC 0C7F 05680                         DT      B'10001111',B'11111100',B'01111111'     ;BTC=11
003B90 0C8F 0CFC 0C7F 05681                         DT      B'10001111',B'11111100',B'01111111'     ;BTC=12
003B96 0C8F 0CFC 0C7F 05682                         DT      B'10001111',B'11111100',B'01111111'     ;BTC=13
003B9C 0C8F 0CFC 0C7F 05683                         DT      B'10001111',B'11111100',B'01111111'     ;BTC=14
003BA2 0C8F 0CFC 0C7F 05684                         DT      B'10001111',B'11111100',B'01111111'     ;BTC=15
003BA8 0C8F 0CFC 0C7F 05685                         DT      B'10001111',B'11111100',B'01111111'     ;BTC=16
003BAE 0C8F 0CFC 0C7F 05686                         DT      B'10001111',B'11111100',B'01111111'     ;BTC=17
003BB4 0C8F 0CFC 0C7F 05687                         DT      B'10001111',B'11111100',B'01111111'     ;BTC=18
003BBA 0CC7 0CF8 0CFF 05688                         DT      B'11000111',B'11111000',B'11111111'     ;BTC=19
003BC0 0CE3 0CF1 0CFF 05689                         DT      B'11100011',B'11110001',B'11111111'     ;BTC=1A
003BC6 0CF1 0CE3 0CFF 05690                         DT      B'11110001',B'11100011',B'11111111'     ;BTC=1B
003BCC 0CF8 0CC7 0CFF 05691                         DT      B'11111000',B'11000111',B'11111111'     ;BTC=1C
003BD2 0CFC 0C0F 0CFF 05692                         DT      B'11111100',B'00001111',B'11111111'     ;BTC=1D
003BD8 0CFE 0C1F 0CFF 05693                         DT      B'11111110',B'00011111',B'11111111'     ;BTC=1E
003BDE 0CFF 0CFF 0CFF 05694                         DT      B'11111111',B'11111111',B'11111111'     ;BTC=1F
                      05695 
                      05696 
                      05697 
Warning[205]: Found directive in column 1. (ORG)
003C00                05698 ORG 0X3C00
003C00                05699 FONT02H_CAP_W
                      05700 
003C00 0E00           05701         MOVLW   0
003C02 6EFB           05702         MOVWF   PCLATU,0
003C04 0E3C           05703         MOVLW   3C
003C06 6EFA           05704         MOVWF   PCLATH,0
                      05705 
                      05706         
                      05707 
                      05708         
003C08 C146 FFE8      05709                         MOVFF   BTCOUNT,WREG
003C0C 90D8           05710                         BCF             STATUS,C
003C0E 36E8           05711                         RLCF    WREG
                      05712 
MPASM  5.51       20191122_RGMODULE_RTCV1.ASM   11-25-2019  10:52:29         PAGE 113


LOC  OBJECT CODE     LINE SOURCE TEXT
  VALUE

                      05713                 
003C10 26F9           05714                         ADDWF   PCL,1,0
003C12 0CFF 0CFF 0CFF 05715                         DT      B'11111111',B'11111111',B'11111111'     ;BTC=00
003C18 0C87 0CFF 0C0F 05716                         DT      B'10000111',B'11111111',B'00001111'     ;BTC=01
003C1E 0C87 0CFF 0C0F 05717                         DT      B'10000111',B'11111111',B'00001111'     ;BTC=02
003C24 0C87 0CFF 0C0F 05718                         DT      B'10000111',B'11111111',B'00001111'     ;BTC=03
003C2A 0C87 0CFF 0C0F 05719                         DT      B'10000111',B'11111111',B'00001111'     ;BTC=04
003C30 0C87 0CFF 0C0F 05720                         DT      B'10000111',B'11111111',B'00001111'     ;BTC=05
003C36 0C87 0CFF 0C0F 05721                         DT      B'10000111',B'11111111',B'00001111'     ;BTC=06
003C3C 0C87 0CFF 0C0F 05722                         DT      B'10000111',B'11111111',B'00001111'     ;BTC=07
003C42 0C87 0CFF 0C0F 05723                         DT      B'10000111',B'11111111',B'00001111'     ;BTC=08
003C48 0C87 0CFF 0C0F 05724                         DT      B'10000111',B'11111111',B'00001111'     ;BTC=09
003C4E 0C87 0C8F 0C0F 05725                         DT      B'10000111',B'10001111',B'00001111'     ;BTC=0A
003C54 0C87 0C8F 0C0F 05726                         DT      B'10000111',B'10001111',B'00001111'     ;BTC=0B
003C5A 0C87 0C8F 0C0F 05727                         DT      B'10000111',B'10001111',B'00001111'     ;BTC=0C
003C60 0C87 0C8F 0C0F 05728                         DT      B'10000111',B'10001111',B'00001111'     ;BTC=0D
003C66 0C87 0C8F 0C0F 05729                         DT      B'10000111',B'10001111',B'00001111'     ;BTC=0E
003C6C 0C87 0C8F 0C0F 05730                         DT      B'10000111',B'10001111',B'00001111'     ;BTC=0F
                      05731 
                      05732 
003C72                05733 FONT02H_LOW_W
                      05734 
003C72 0E00           05735         MOVLW   0
003C74 6EFB           05736         MOVWF   PCLATU,0
003C76 0E3C           05737         MOVLW   3C
003C78 6EFA           05738         MOVWF   PCLATH,0
                      05739 
                      05740         
                      05741 
                      05742         
003C7A C146 FFE8      05743                         MOVFF   BTCOUNT,WREG
003C7E 90D8           05744                         BCF             STATUS,C
003C80 36E8           05745                         RLCF    WREG
                      05746 
                      05747                 
003C82 26F9           05748                         ADDWF   PCL,1,0
003C84 0CFF 0CFF 0CFF 05749                         DT      B'11111111',B'11111111',B'11111111'     ;BTC=00
003C8A 0CFF 0CFF 0CFF 05750                         DT      B'11111111',B'11111111',B'11111111'     ;BTC=01
003C90 0CFF 0CFF 0CFF 05751                         DT      B'11111111',B'11111111',B'11111111'     ;BTC=02
003C96 0CFF 0CFF 0CFF 05752                         DT      B'11111111',B'11111111',B'11111111'     ;BTC=03
003C9C 0CFF 0CFF 0CFF 05753                         DT      B'11111111',B'11111111',B'11111111'     ;BTC=04
003CA2 0CFF 0CFF 0CFF 05754                         DT      B'11111111',B'11111111',B'11111111'     ;BTC=05
003CA8 0CFF 0CFF 0CFF 05755                         DT      B'11111111',B'11111111',B'11111111'     ;BTC=06
003CAE 0CFF 0CFF 0CFF 05756                         DT      B'11111111',B'11111111',B'11111111'     ;BTC=07
003CB4 0CFF 0CFF 0CFF 05757                         DT      B'11111111',B'11111111',B'11111111'     ;BTC=08
003CBA 0CFF 0CFF 0CFF 05758                         DT      B'11111111',B'11111111',B'11111111'     ;BTC=09
003CC0 0CFF 0CFF 0CFF 05759                         DT      B'11111111',B'11111111',B'11111111'     ;BTC=0A
003CC6 0CFF 0CFF 0CFF 05760                         DT      B'11111111',B'11111111',B'11111111'     ;BTC=0B
003CCC 0CFF 0CFF 0CFF 05761                         DT      B'11111111',B'11111111',B'11111111'     ;BTC=0C
003CD2 0CFF 0CFF 0CFF 05762                         DT      B'11111111',B'11111111',B'11111111'     ;BTC=0D
003CD8 0C8F 0C1E 0C3F 05763                         DT      B'10001111',B'00011110',B'00111111'     ;BTC=0E
003CDE 0C8F 0C1E 0C3F 05764                         DT      B'10001111',B'00011110',B'00111111'     ;BTC=0F
                      05765 
MPASM  5.51       20191122_RGMODULE_RTCV1.ASM   11-25-2019  10:52:29         PAGE 114


LOC  OBJECT CODE     LINE SOURCE TEXT
  VALUE

Warning[205]: Found directive in column 1. (ORG)
003D00                05766 ORG 0X3D00
003D00                05767 FONT02L_CAP_W
                      05768 
003D00 0E00           05769         MOVLW   0
003D02 6EFB           05770         MOVWF   PCLATU,0
003D04 0E3D           05771         MOVLW   3D
003D06 6EFA           05772         MOVWF   PCLATH,0
                      05773 
                      05774 
                      05775 
                      05776 
003D08 C146 FFE8      05777                         MOVFF   BTCOUNT,WREG
003D0C 90D8           05778                         BCF             STATUS,C
003D0E 36E8           05779                         RLCF    WREG
                      05780 
                      05781                 
003D10 26F9           05782                         ADDWF   PCL,1,0
003D12 0C87 0C8F 0C0F 05783                         DT      B'10000111',B'10001111',B'00001111'     ;BTC=10
003D18 0C87 0C8F 0C0F 05784                         DT      B'10000111',B'10001111',B'00001111'     ;BTC=11
003D1E 0C87 0C8F 0C0F 05785                         DT      B'10000111',B'10001111',B'00001111'     ;BTC=12
003D24 0C87 0C8F 0C0F 05786                         DT      B'10000111',B'10001111',B'00001111'     ;BTC=13
003D2A 0C87 0C8F 0C0F 05787                         DT      B'10000111',B'10001111',B'00001111'     ;BTC=14
003D30 0C87 0C8F 0C0F 05788                         DT      B'10000111',B'10001111',B'00001111'     ;BTC=15
003D36 0C87 0C8F 0C0F 05789                         DT      B'10000111',B'10001111',B'00001111'     ;BTC=16
003D3C 0C87 0C8F 0C0F 05790                         DT      B'10000111',B'10001111',B'00001111'     ;BTC=17
003D42 0C87 0C8F 0C0F 05791                         DT      B'10000111',B'10001111',B'00001111'     ;BTC=18
003D48 0C87 0C8F 0C0F 05792                         DT      B'10000111',B'10001111',B'00001111'     ;BTC=19
003D4E 0C87 0C8F 0C0F 05793                         DT      B'10000111',B'10001111',B'00001111'     ;BTC=1A
003D54 0C83 0C06 0C0F 05794                         DT      B'10000011',B'00000110',B'00001111'     ;BTC=1B
003D5A 0CC0 0C00 0C1F 05795                         DT      B'11000000',B'00000000',B'00011111'     ;BTC=1C
003D60 0CE0 0C20 0C3F 05796                         DT      B'11100000',B'00100000',B'00111111'     ;BTC=1D
003D66 0CF0 0C70 0C7F 05797                         DT      B'11110000',B'01110000',B'01111111'     ;BTC=1E
003D6C 0CFF 0CFF 0CFF 05798                         DT      B'11111111',B'11111111',B'11111111'     ;BTC=1F
                      05799 
                      05800 
003D72                05801 FONT02L_LOW_W
                      05802 
003D72 0E00           05803         MOVLW   0
003D74 6EFB           05804         MOVWF   PCLATU,0
003D76 0E3D           05805         MOVLW   3D
003D78 6EFA           05806         MOVWF   PCLATH,0
                      05807 
                      05808 
                      05809 
                      05810 
003D7A C146 FFE8      05811                         MOVFF   BTCOUNT,WREG
003D7E 90D8           05812                         BCF             STATUS,C
003D80 36E8           05813                         RLCF    WREG
                      05814 
                      05815                 
003D82 26F9           05816                         ADDWF   PCL,1,0
003D84 0C8F 0C1E 0C3F 05817                         DT      B'10001111',B'00011110',B'00111111'     ;BTC=10
MPASM  5.51       20191122_RGMODULE_RTCV1.ASM   11-25-2019  10:52:29         PAGE 115


LOC  OBJECT CODE     LINE SOURCE TEXT
  VALUE

003D8A 0C8F 0C1E 0C3F 05818                         DT      B'10001111',B'00011110',B'00111111'     ;BTC=11
003D90 0C8F 0C1E 0C3F 05819                         DT      B'10001111',B'00011110',B'00111111'     ;BTC=12
003D96 0C8F 0C1E 0C3F 05820                         DT      B'10001111',B'00011110',B'00111111'     ;BTC=13
003D9C 0C8F 0C1E 0C3F 05821                         DT      B'10001111',B'00011110',B'00111111'     ;BTC=14
003DA2 0C8F 0C1E 0C3F 05822                         DT      B'10001111',B'00011110',B'00111111'     ;BTC=15
003DA8 0C8F 0C1E 0C3F 05823                         DT      B'10001111',B'00011110',B'00111111'     ;BTC=16
003DAE 0C8F 0C1E 0C3F 05824                         DT      B'10001111',B'00011110',B'00111111'     ;BTC=17
003DB4 0C8F 0C1E 0C3F 05825                         DT      B'10001111',B'00011110',B'00111111'     ;BTC=18
003DBA 0C8F 0C1E 0C3F 05826                         DT      B'10001111',B'00011110',B'00111111'     ;BTC=19
003DC0 0C8F 0C1E 0C3F 05827                         DT      B'10001111',B'00011110',B'00111111'     ;BTC=1A
003DC6 0C86 0C0C 0C3F 05828                         DT      B'10000110',B'00001100',B'00111111'     ;BTC=1B
003DCC 0C80 0C00 0C3F 05829                         DT      B'10000000',B'00000000',B'00111111'     ;BTC=1C
003DD2 0CC0 0C40 0C3F 05830                         DT      B'11000000',B'01000000',B'00111111'     ;BTC=1D
003DD8 0CE0 0CE2 0C3F 05831                         DT      B'11100000',B'11100010',B'00111111'     ;BTC=1E
003DDE 0CFF 0CFF 0CFF 05832                         DT      B'11111111',B'11111111',B'11111111'     ;BTC=1F
                      05833 
                      05834 
                      05835 
                      05836 
Warning[205]: Found directive in column 1. (ORG)
003E00                05837 ORG 0X3E00
003E00                05838 FONT02H_CAP_X
                      05839 
003E00 0E00           05840         MOVLW   0
003E02 6EFB           05841         MOVWF   PCLATU,0
003E04 0E3E           05842         MOVLW   3E
003E06 6EFA           05843         MOVWF   PCLATH,0
                      05844 
                      05845         
                      05846 
                      05847         
003E08 C146 FFE8      05848                         MOVFF   BTCOUNT,WREG
003E0C 90D8           05849                         BCF             STATUS,C
003E0E 36E8           05850                         RLCF    WREG
                      05851 
                      05852                 
003E10 26F9           05853                         ADDWF   PCL,1,0
003E12 0CFF 0CFF 0CFF 05854                         DT      B'11111111',B'11111111',B'11111111'     ;BTC=00
003E18 0C87 0CFF 0C0F 05855                         DT      B'10000111',B'11111111',B'00001111'     ;BTC=01
003E1E 0C87 0CFF 0C0F 05856                         DT      B'10000111',B'11111111',B'00001111'     ;BTC=02
003E24 0C87 0CFF 0C0F 05857                         DT      B'10000111',B'11111111',B'00001111'     ;BTC=03
003E2A 0C87 0CFF 0C0F 05858                         DT      B'10000111',B'11111111',B'00001111'     ;BTC=04
003E30 0C87 0CFF 0C0F 05859                         DT      B'10000111',B'11111111',B'00001111'     ;BTC=05
003E36 0C87 0CFF 0C0F 05860                         DT      B'10000111',B'11111111',B'00001111'     ;BTC=06
003E3C 0C87 0CFF 0C0F 05861                         DT      B'10000111',B'11111111',B'00001111'     ;BTC=07
003E42 0C87 0CFE 0C1F 05862                         DT      B'10000111',B'11111110',B'00011111'     ;BTC=08
003E48 0CC3 0CFC 0C3F 05863                         DT      B'11000011',B'11111100',B'00111111'     ;BTC=09
003E4E 0CE1 0CF8 0C7F 05864                         DT      B'11100001',B'11111000',B'01111111'     ;BTC=0A
003E54 0CF0 0CF0 0CFF 05865                         DT      B'11110000',B'11110000',B'11111111'     ;BTC=0B
003E5A 0CF8 0C61 0CFF 05866                         DT      B'11111000',B'01100001',B'11111111'     ;BTC=0C
003E60 0CFC 0C03 0CFF 05867                         DT      B'11111100',B'00000011',B'11111111'     ;BTC=0D
003E66 0CFE 0C07 0CFF 05868                         DT      B'11111110',B'00000111',B'11111111'     ;BTC=0E
003E6C 0CFF 0C0F 0CFF 05869                         DT      B'11111111',B'00001111',B'11111111'     ;BTC=0F
MPASM  5.51       20191122_RGMODULE_RTCV1.ASM   11-25-2019  10:52:29         PAGE 116


LOC  OBJECT CODE     LINE SOURCE TEXT
  VALUE

003E72 0CFF 0C0F 0CFF 05870                         DT      B'11111111',B'00001111',B'11111111'     ;BTC=10
                      05871 
                      05872 
003E78                05873 FONT02H_LOW_X
                      05874 
003E78 0E00           05875         MOVLW   0
003E7A 6EFB           05876         MOVWF   PCLATU,0
003E7C 0E3E           05877         MOVLW   3E
003E7E 6EFA           05878         MOVWF   PCLATH,0
                      05879 
                      05880         
                      05881 
                      05882         
003E80 C146 FFE8      05883                         MOVFF   BTCOUNT,WREG
003E84 90D8           05884                         BCF             STATUS,C
003E86 36E8           05885                         RLCF    WREG
                      05886 
                      05887                 
003E88 26F9           05888                         ADDWF   PCL,1,0
003E8A 0CFF 0CFF 0CFF 05889                         DT      B'11111111',B'11111111',B'11111111'     ;BTC=00
003E90 0CFF 0CFF 0CFF 05890                         DT      B'11111111',B'11111111',B'11111111'     ;BTC=01
003E96 0CFF 0CFF 0CFF 05891                         DT      B'11111111',B'11111111',B'11111111'     ;BTC=02
003E9C 0CFF 0CFF 0CFF 05892                         DT      B'11111111',B'11111111',B'11111111'     ;BTC=03
003EA2 0CFF 0CFF 0CFF 05893                         DT      B'11111111',B'11111111',B'11111111'     ;BTC=04
003EA8 0CFF 0CFF 0CFF 05894                         DT      B'11111111',B'11111111',B'11111111'     ;BTC=05
003EAE 0CFF 0CFF 0CFF 05895                         DT      B'11111111',B'11111111',B'11111111'     ;BTC=06
003EB4 0CFF 0CFF 0CFF 05896                         DT      B'11111111',B'11111111',B'11111111'     ;BTC=07
003EBA 0CFF 0CFF 0CFF 05897                         DT      B'11111111',B'11111111',B'11111111'     ;BTC=08
003EC0 0CFF 0CFF 0CFF 05898                         DT      B'11111111',B'11111111',B'11111111'     ;BTC=09
003EC6 0CFF 0CFF 0CFF 05899                         DT      B'11111111',B'11111111',B'11111111'     ;BTC=0A
003ECC 0CFF 0CFF 0CFF 05900                         DT      B'11111111',B'11111111',B'11111111'     ;BTC=0B
003ED2 0CFF 0CFF 0CFF 05901                         DT      B'11111111',B'11111111',B'11111111'     ;BTC=0C
003ED8 0CFF 0CFF 0CFF 05902                         DT      B'11111111',B'11111111',B'11111111'     ;BTC=0D
003EDE 0C8F 0CFC 0C7F 05903                         DT      B'10001111',B'11111100',B'01111111'     ;BTC=0E
003EE4 0C8F 0CFC 0C7F 05904                         DT      B'10001111',B'11111100',B'01111111'     ;BTC=0F
                      05905 
                      05906 
Warning[205]: Found directive in column 1. (ORG)
003F00                05907 ORG 0X3F00
003F00                05908 FONT02L_CAP_X
                      05909 
003F00 0E00           05910         MOVLW   0
003F02 6EFB           05911         MOVWF   PCLATU,0
003F04 0E3F           05912         MOVLW   3F
003F06 6EFA           05913         MOVWF   PCLATH,0
                      05914 
                      05915 
                      05916 
                      05917 
003F08 C146 FFE8      05918                         MOVFF   BTCOUNT,WREG
003F0C 90D8           05919                         BCF             STATUS,C
003F0E 36E8           05920                         RLCF    WREG
                      05921 
MPASM  5.51       20191122_RGMODULE_RTCV1.ASM   11-25-2019  10:52:29         PAGE 117


LOC  OBJECT CODE     LINE SOURCE TEXT
  VALUE

                      05922                 
003F10 26F9           05923                         ADDWF   PCL,1,0
003F12 0CFF 0C0F 0CFF 05924                         DT      B'11111111',B'00001111',B'11111111'     ;BTC=10
003F18 0CFE 0C07 0CFF 05925                         DT      B'11111110',B'00000111',B'11111111'     ;BTC=11
003F1E 0CFC 0C03 0CFF 05926                         DT      B'11111100',B'00000011',B'11111111'     ;BTC=12
003F24 0CF8 0C61 0CFF 05927                         DT      B'11111000',B'01100001',B'11111111'     ;BTC=13
003F2A 0CF0 0CF0 0CFF 05928                         DT      B'11110000',B'11110000',B'11111111'     ;BTC=14
003F30 0CE1 0CF8 0C7F 05929                         DT      B'11100001',B'11111000',B'01111111'     ;BTC=15
003F36 0CC3 0CFC 0C3F 05930                         DT      B'11000011',B'11111100',B'00111111'     ;BTC=16
003F3C 0C87 0CFE 0C1F 05931                         DT      B'10000111',B'11111110',B'00011111'     ;BTC=17
003F42 0C87 0CFF 0C0F 05932                         DT      B'10000111',B'11111111',B'00001111'     ;BTC=18
003F48 0C87 0CFF 0C0F 05933                         DT      B'10000111',B'11111111',B'00001111'     ;BTC=19
003F4E 0C87 0CFF 0C0F 05934                         DT      B'10000111',B'11111111',B'00001111'     ;BTC=1A
003F54 0C87 0CFF 0C0F 05935                         DT      B'10000111',B'11111111',B'00001111'     ;BTC=1B
003F5A 0C87 0CFF 0C0F 05936                         DT      B'10000111',B'11111111',B'00001111'     ;BTC=1C
003F60 0C87 0CFF 0C0F 05937                         DT      B'10000111',B'11111111',B'00001111'     ;BTC=1D
003F66 0C87 0CFF 0C0F 05938                         DT      B'10000111',B'11111111',B'00001111'     ;BTC=1E
003F6C 0CFF 0CFF 0CFF 05939                         DT      B'11111111',B'11111111',B'11111111'     ;BTC=1F
                      05940 
                      05941 
003F72                05942 FONT02L_LOW_X
                      05943 
003F72 0E00           05944         MOVLW   0
003F74 6EFB           05945         MOVWF   PCLATU,0
003F76 0E3F           05946         MOVLW   3F
003F78 6EFA           05947         MOVWF   PCLATH,0
                      05948 
                      05949 
                      05950 
                      05951 
003F7A C146 FFE8      05952                         MOVFF   BTCOUNT,WREG
003F7E 90D8           05953                         BCF             STATUS,C
003F80 36E8           05954                         RLCF    WREG
                      05955 
                      05956                 
003F82 26F9           05957                         ADDWF   PCL,1,0
003F84 0CC7 0CFC 0C7F 05958                         DT      B'11000111',B'11111100',B'01111111'     ;BTC=10
003F8A 0CE3 0CF8 0CFF 05959                         DT      B'11100011',B'11111000',B'11111111'     ;BTC=11
003F90 0CF1 0CF1 0CFF 05960                         DT      B'11110001',B'11110001',B'11111111'     ;BTC=12
003F96 0CF8 0CE3 0CFF 05961                         DT      B'11111000',B'11100011',B'11111111'     ;BTC=13
003F9C 0CFC 0C47 0CFF 05962                         DT      B'11111100',B'01000111',B'11111111'     ;BTC=14
003FA2 0CFE 0C0F 0CFF 05963                         DT      B'11111110',B'00001111',B'11111111'     ;BTC=15
003FA8 0CFE 0C1F 0CFF 05964                         DT      B'11111110',B'00011111',B'11111111'     ;BTC=16
003FAE 0CFC 0C0F 0CFF 05965                         DT      B'11111100',B'00001111',B'11111111'     ;BTC=17
003FB4 0CF8 0CC7 0CFF 05966                         DT      B'11111000',B'11000111',B'11111111'     ;BTC=18
003FBA 0CF1 0CE3 0CFF 05967                         DT      B'11110001',B'11100011',B'11111111'     ;BTC=19
003FC0 0CE3 0CF1 0CFF 05968                         DT      B'11100011',B'11110001',B'11111111'     ;BTC=1A
003FC6 0CC7 0CF8 0CFF 05969                         DT      B'11000111',B'11111000',B'11111111'     ;BTC=1B
003FCC 0C8F 0CFC 0C7F 05970                         DT      B'10001111',B'11111100',B'01111111'     ;BTC=1C
003FD2 0C8F 0CFC 0C7F 05971                         DT      B'10001111',B'11111100',B'01111111'     ;BTC=1D
003FD8 0C8F 0CFC 0C7F 05972                         DT      B'10001111',B'11111100',B'01111111'     ;BTC=1E
003FDE 0CFF 0CFF 0CFF 05973                         DT      B'11111111',B'11111111',B'11111111'     ;BTC=1F
                      05974 
MPASM  5.51       20191122_RGMODULE_RTCV1.ASM   11-25-2019  10:52:29         PAGE 118


LOC  OBJECT CODE     LINE SOURCE TEXT
  VALUE

                      05975 
                      05976 
                      05977 
                      05978 
Warning[205]: Found directive in column 1. (ORG)
004000                05979 ORG 0X4000
004000                05980 FONT02H_CAP_Y
                      05981 
004000 0E00           05982         MOVLW   0
004002 6EFB           05983         MOVWF   PCLATU,0
004004 0E40           05984         MOVLW   40
004006 6EFA           05985         MOVWF   PCLATH,0
                      05986 
                      05987         
                      05988 
                      05989         
004008 C146 FFE8      05990                         MOVFF   BTCOUNT,WREG
00400C 90D8           05991                         BCF             STATUS,C
00400E 36E8           05992                         RLCF    WREG
                      05993 
                      05994                 
004010 26F9           05995                         ADDWF   PCL,1,0
004012 0CFF 0CFF 0CFF 05996                         DT      B'11111111',B'11111111',B'11111111'     ;BTC=00
004018 0C87 0CFF 0C0F 05997                         DT      B'10000111',B'11111111',B'00001111'     ;BTC=01
00401E 0C87 0CFF 0C0F 05998                         DT      B'10000111',B'11111111',B'00001111'     ;BTC=02
004024 0C87 0CFF 0C0F 05999                         DT      B'10000111',B'11111111',B'00001111'     ;BTC=03
00402A 0C87 0CFF 0C0F 06000                         DT      B'10000111',B'11111111',B'00001111'     ;BTC=04
004030 0C87 0CFF 0C0F 06001                         DT      B'10000111',B'11111111',B'00001111'     ;BTC=05
004036 0C87 0CFF 0C0F 06002                         DT      B'10000111',B'11111111',B'00001111'     ;BTC=06
00403C 0C87 0CFF 0C0F 06003                         DT      B'10000111',B'11111111',B'00001111'     ;BTC=07
004042 0C87 0CFE 0C1F 06004                         DT      B'10000111',B'11111110',B'00011111'     ;BTC=08
004048 0CC3 0CFC 0C3F 06005                         DT      B'11000011',B'11111100',B'00111111'     ;BTC=09
00404E 0CE1 0CF8 0C7F 06006                         DT      B'11100001',B'11111000',B'01111111'     ;BTC=0A
004054 0CF0 0CF0 0CFF 06007                         DT      B'11110000',B'11110000',B'11111111'     ;BTC=0B
00405A 0CF8 0C61 0CFF 06008                         DT      B'11111000',B'01100001',B'11111111'     ;BTC=0C
004060 0CFC 0C03 0CFF 06009                         DT      B'11111100',B'00000011',B'11111111'     ;BTC=0D
004066 0CFE 0C07 0CFF 06010                         DT      B'11111110',B'00000111',B'11111111'     ;BTC=0E
00406C 0CFF 0C0F 0CFF 06011                         DT      B'11111111',B'00001111',B'11111111'     ;BTC=0F
004072 0CFF 0C0F 0CFF 06012                         DT      B'11111111',B'00001111',B'11111111'     ;BTC=10
                      06013 
                      06014 
004078                06015 FONT02H_LOW_Y
                      06016 
004078 0E00           06017         MOVLW   0
00407A 6EFB           06018         MOVWF   PCLATU,0
00407C 0E40           06019         MOVLW   40
00407E 6EFA           06020         MOVWF   PCLATH,0
                      06021 
                      06022         
                      06023 
                      06024         
004080 C146 FFE8      06025                         MOVFF   BTCOUNT,WREG
004084 90D8           06026                         BCF             STATUS,C
MPASM  5.51       20191122_RGMODULE_RTCV1.ASM   11-25-2019  10:52:29         PAGE 119


LOC  OBJECT CODE     LINE SOURCE TEXT
  VALUE

004086 36E8           06027                         RLCF    WREG
                      06028 
                      06029                 
004088 26F9           06030                         ADDWF   PCL,1,0
00408A 0CFF 0CFF 0CFF 06031                         DT      B'11111111',B'11111111',B'11111111'     ;BTC=00
004090 0CFF 0CFF 0CFF 06032                         DT      B'11111111',B'11111111',B'11111111'     ;BTC=01
004096 0CFF 0CFF 0CFF 06033                         DT      B'11111111',B'11111111',B'11111111'     ;BTC=02
00409C 0CFF 0CFF 0CFF 06034                         DT      B'11111111',B'11111111',B'11111111'     ;BTC=03
0040A2 0CFF 0CFF 0CFF 06035                         DT      B'11111111',B'11111111',B'11111111'     ;BTC=04
0040A8 0CFF 0CFF 0CFF 06036                         DT      B'11111111',B'11111111',B'11111111'     ;BTC=05
0040AE 0CFF 0CFF 0CFF 06037                         DT      B'11111111',B'11111111',B'11111111'     ;BTC=06
0040B4 0CFF 0CFF 0CFF 06038                         DT      B'11111111',B'11111111',B'11111111'     ;BTC=07
0040BA 0CFF 0CFF 0CFF 06039                         DT      B'11111111',B'11111111',B'11111111'     ;BTC=08
0040C0 0CFF 0CFF 0CFF 06040                         DT      B'11111111',B'11111111',B'11111111'     ;BTC=09
0040C6 0CFF 0CFF 0CFF 06041                         DT      B'11111111',B'11111111',B'11111111'     ;BTC=0A
0040CC 0CFF 0CFF 0CFF 06042                         DT      B'11111111',B'11111111',B'11111111'     ;BTC=0B
0040D2 0CFF 0CFF 0CFF 06043                         DT      B'11111111',B'11111111',B'11111111'     ;BTC=0C
0040D8 0CFF 0CFF 0CFF 06044                         DT      B'11111111',B'11111111',B'11111111'     ;BTC=0D
0040DE 0C8F 0CFC 0C7F 06045                         DT      B'10001111',B'11111100',B'01111111'     ;BTC=0E
0040E4 0C8F 0CFC 0C7F 06046                         DT      B'10001111',B'11111100',B'01111111'     ;BTC=0F
                      06047 
Warning[205]: Found directive in column 1. (ORG)
004100                06048 ORG 0X4100
004100                06049 FONT02L_CAP_Y
                      06050 
004100 0E00           06051         MOVLW   0
004102 6EFB           06052         MOVWF   PCLATU,0
004104 0E41           06053         MOVLW   41
004106 6EFA           06054         MOVWF   PCLATH,0
                      06055 
                      06056 
                      06057 
                      06058 
004108 C146 FFE8      06059                         MOVFF   BTCOUNT,WREG
00410C 90D8           06060                         BCF             STATUS,C
00410E 36E8           06061                         RLCF    WREG
                      06062 
                      06063                 
004110 26F9           06064                         ADDWF   PCL,1,0
004112 0CFF 0C0F 0CFF 06065                         DT      B'11111111',B'00001111',B'11111111'     ;BTC=10
004118 0CFF 0C0F 0CFF 06066                         DT      B'11111111',B'00001111',B'11111111'     ;BTC=11
00411E 0CFF 0C0F 0CFF 06067                         DT      B'11111111',B'00001111',B'11111111'     ;BTC=12
004124 0CFF 0C0F 0CFF 06068                         DT      B'11111111',B'00001111',B'11111111'     ;BTC=13
00412A 0CFF 0C0F 0CFF 06069                         DT      B'11111111',B'00001111',B'11111111'     ;BTC=14
004130 0CFF 0C0F 0CFF 06070                         DT      B'11111111',B'00001111',B'11111111'     ;BTC=15
004136 0CFF 0C0F 0CFF 06071                         DT      B'11111111',B'00001111',B'11111111'     ;BTC=16
00413C 0CFF 0C0F 0CFF 06072                         DT      B'11111111',B'00001111',B'11111111'     ;BTC=17
004142 0CFF 0C0F 0CFF 06073                         DT      B'11111111',B'00001111',B'11111111'     ;BTC=18
004148 0CFF 0C0F 0CFF 06074                         DT      B'11111111',B'00001111',B'11111111'     ;BTC=19
00414E 0CFF 0C0F 0CFF 06075                         DT      B'11111111',B'00001111',B'11111111'     ;BTC=1A
004154 0CFF 0C0F 0CFF 06076                         DT      B'11111111',B'00001111',B'11111111'     ;BTC=1B
00415A 0CFF 0C0F 0CFF 06077                         DT      B'11111111',B'00001111',B'11111111'     ;BTC=1C
004160 0CFF 0C0F 0CFF 06078                         DT      B'11111111',B'00001111',B'11111111'     ;BTC=1D
MPASM  5.51       20191122_RGMODULE_RTCV1.ASM   11-25-2019  10:52:29         PAGE 120


LOC  OBJECT CODE     LINE SOURCE TEXT
  VALUE

004166 0CFF 0C0F 0CFF 06079                         DT      B'11111111',B'00001111',B'11111111'     ;BTC=1E
00416C 0CFF 0CFF 0CFF 06080                         DT      B'11111111',B'11111111',B'11111111'     ;BTC=1F
                      06081 
                      06082 
004172                06083 FONT02L_LOW_Y
                      06084 
004172 0E00           06085         MOVLW   0
004174 6EFB           06086         MOVWF   PCLATU,0
004176 0E41           06087         MOVLW   41
004178 6EFA           06088         MOVWF   PCLATH,0
                      06089 
                      06090 
                      06091 
                      06092 
00417A C146 FFE8      06093                         MOVFF   BTCOUNT,WREG
00417E 90D8           06094                         BCF             STATUS,C
004180 36E8           06095                         RLCF    WREG
                      06096 
                      06097                 
004182 26F9           06098                         ADDWF   PCL,1,0
004184 0C8F 0CFC 0C7F 06099                         DT      B'10001111',B'11111100',B'01111111'     ;BTC=10
00418A 0CC7 0CF8 0CFF 06100                         DT      B'11000111',B'11111000',B'11111111'     ;BTC=11
004190 0CE3 0CF1 0CFF 06101                         DT      B'11100011',B'11110001',B'11111111'     ;BTC=12
004196 0CF1 0CE3 0CFF 06102                         DT      B'11110001',B'11100011',B'11111111'     ;BTC=13
00419C 0CF8 0CC7 0CFF 06103                         DT      B'11111000',B'11000111',B'11111111'     ;BTC=14
0041A2 0CFC 0C0F 0CFF 06104                         DT      B'11111100',B'00001111',B'11111111'     ;BTC=15
0041A8 0CFE 0C1F 0CFF 06105                         DT      B'11111110',B'00011111',B'11111111'     ;BTC=16
0041AE 0CFE 0C3F 0CFF 06106                         DT      B'11111110',B'00111111',B'11111111'     ;BTC=17
0041B4 0CFC 0C7F 0CFF 06107                         DT      B'11111100',B'01111111',B'11111111'     ;BTC=18
0041BA 0CF8 0CFF 0CFF 06108                         DT      B'11111000',B'11111111',B'11111111'     ;BTC=19
0041C0 0CF1 0CFF 0CFF 06109                         DT      B'11110001',B'11111111',B'11111111'     ;BTC=1A
0041C6 0CE3 0CFF 0CFF 06110                         DT      B'11100011',B'11111111',B'11111111'     ;BTC=1B
0041CC 0CC7 0CFF 0CFF 06111                         DT      B'11000111',B'11111111',B'11111111'     ;BTC=1C
0041D2 0C8F 0CFF 0CFF 06112                         DT      B'10001111',B'11111111',B'11111111'     ;BTC=1D
0041D8 0C8F 0CFF 0CFF 06113                         DT      B'10001111',B'11111111',B'11111111'     ;BTC=1E
0041DE 0C8F 0CFF 0CFF 06114                         DT      B'10001111',B'11111111',B'11111111'     ;BTC=1F
                      06115 
                      06116 
Warning[205]: Found directive in column 1. (ORG)
004200                06117 ORG 0X4200
004200                06118 FONT02H_CAP_Z
                      06119 
004200 0E00           06120         MOVLW   0
004202 6EFB           06121         MOVWF   PCLATU,0
004204 0E42           06122         MOVLW   42
004206 6EFA           06123         MOVWF   PCLATH,0
                      06124 
                      06125         
                      06126 
                      06127         
004208 C146 FFE8      06128                         MOVFF   BTCOUNT,WREG
00420C 90D8           06129                         BCF             STATUS,C
00420E 36E8           06130                         RLCF    WREG
MPASM  5.51       20191122_RGMODULE_RTCV1.ASM   11-25-2019  10:52:29         PAGE 121


LOC  OBJECT CODE     LINE SOURCE TEXT
  VALUE

                      06131 
                      06132                 
004210 26F9           06133                         ADDWF   PCL,1,0
004212 0CFF 0CFF 0CFF 06134                         DT      B'11111111',B'11111111',B'11111111'     ;BTC=00
004218 0C80 0C00 0C0F 06135                         DT      B'10000000',B'00000000',B'00001111'     ;BTC=01
00421E 0C80 0C00 0C0F 06136                         DT      B'10000000',B'00000000',B'00001111'     ;BTC=02
004224 0C80 0C00 0C0F 06137                         DT      B'10000000',B'00000000',B'00001111'     ;BTC=03
00422A 0C80 0C00 0C0F 06138                         DT      B'10000000',B'00000000',B'00001111'     ;BTC=04
004230 0CFF 0CFF 0C0F 06139                         DT      B'11111111',B'11111111',B'00001111'     ;BTC=05
004236 0CFF 0CFF 0C0F 06140                         DT      B'11111111',B'11111111',B'00001111'     ;BTC=06
00423C 0CFF 0CFF 0C0F 06141                         DT      B'11111111',B'11111111',B'00001111'     ;BTC=07
004242 0CFF 0CFE 0C1F 06142                         DT      B'11111111',B'11111110',B'00011111'     ;BTC=08
004248 0CFF 0CFC 0C3F 06143                         DT      B'11111111',B'11111100',B'00111111'     ;BTC=09
00424E 0CFF 0CF8 0C7F 06144                         DT      B'11111111',B'11111000',B'01111111'     ;BTC=0A
004254 0CFF 0CF0 0CFF 06145                         DT      B'11111111',B'11110000',B'11111111'     ;BTC=0B
00425A 0CFF 0CE1 0CFF 06146                         DT      B'11111111',B'11100001',B'11111111'     ;BTC=0C
004260 0CFF 0CC3 0CFF 06147                         DT      B'11111111',B'11000011',B'11111111'     ;BTC=0D
004266 0CFF 0C87 0CFF 06148                         DT      B'11111111',B'10000111',B'11111111'     ;BTC=0E 
00426C 0CFF 0C0F 0CFF 06149                         DT      B'11111111',B'00001111',B'11111111'     ;BTC=0F
                      06150 
                      06151 
004272                06152 FONT02H_LOW_Z
                      06153 
004272 0E00           06154         MOVLW   0
004274 6EFB           06155         MOVWF   PCLATU,0
004276 0E42           06156         MOVLW   42
004278 6EFA           06157         MOVWF   PCLATH,0
                      06158 
                      06159         
                      06160 
                      06161         
00427A C146 FFE8      06162                         MOVFF   BTCOUNT,WREG
00427E 90D8           06163                         BCF             STATUS,C
004280 36E8           06164                         RLCF    WREG
                      06165 
                      06166                 
004282 26F9           06167                         ADDWF   PCL,1,0
004284 0CFF 0CFF 0CFF 06168                         DT      B'11111111',B'11111111',B'11111111'     ;BTC=00
00428A 0CFF 0CFF 0CFF 06169                         DT      B'11111111',B'11111111',B'11111111'     ;BTC=01
004290 0CFF 0CFF 0CFF 06170                         DT      B'11111111',B'11111111',B'11111111'     ;BTC=02
004296 0CFF 0CFF 0CFF 06171                         DT      B'11111111',B'11111111',B'11111111'     ;BTC=03
00429C 0CFF 0CFF 0CFF 06172                         DT      B'11111111',B'11111111',B'11111111'     ;BTC=04
0042A2 0CFF 0CFF 0CFF 06173                         DT      B'11111111',B'11111111',B'11111111'     ;BTC=05
0042A8 0CFF 0CFF 0CFF 06174                         DT      B'11111111',B'11111111',B'11111111'     ;BTC=06
0042AE 0CFF 0CFF 0CFF 06175                         DT      B'11111111',B'11111111',B'11111111'     ;BTC=07
0042B4 0CFF 0CFF 0CFF 06176                         DT      B'11111111',B'11111111',B'11111111'     ;BTC=08
0042BA 0CFF 0CFF 0CFF 06177                         DT      B'11111111',B'11111111',B'11111111'     ;BTC=09
0042C0 0CFF 0CFF 0CFF 06178                         DT      B'11111111',B'11111111',B'11111111'     ;BTC=0A
0042C6 0CFF 0CFF 0CFF 06179                         DT      B'11111111',B'11111111',B'11111111'     ;BTC=0B
0042CC 0CFF 0CFF 0CFF 06180                         DT      B'11111111',B'11111111',B'11111111'     ;BTC=0C
0042D2 0CFF 0CFF 0CFF 06181                         DT      B'11111111',B'11111111',B'11111111'     ;BTC=0D
0042D8 0C80 0C00 0C7F 06182                         DT      B'10000000',B'00000000',B'01111111'     ;BTC=0E
0042DE 0C80 0C00 0C7F 06183                         DT      B'10000000',B'00000000',B'01111111'     ;BTC=0F
MPASM  5.51       20191122_RGMODULE_RTCV1.ASM   11-25-2019  10:52:29         PAGE 122


LOC  OBJECT CODE     LINE SOURCE TEXT
  VALUE

                      06184 
                      06185 
Warning[205]: Found directive in column 1. (ORG)
004300                06186 ORG 0X4300
004300                06187 FONT02L_CAP_Z
                      06188 
004300 0E00           06189         MOVLW   0
004302 6EFB           06190         MOVWF   PCLATU,0
004304 0E43           06191         MOVLW   43
004306 6EFA           06192         MOVWF   PCLATH,0
                      06193 
                      06194 
                      06195 
                      06196 
004308 C146 FFE8      06197                         MOVFF   BTCOUNT,WREG
00430C 90D8           06198                         BCF             STATUS,C
00430E 36E8           06199                         RLCF    WREG
                      06200 
                      06201                 
004310 26F9           06202                         ADDWF   PCL,1,0
004312 0CFE 0C1F 0CFF 06203                         DT      B'11111110',B'00011111',B'11111111'     ;BTC=10
004318 0CFC 0C3F 0CFF 06204                         DT      B'11111100',B'00111111',B'11111111'     ;BTC=11
00431E 0CF8 0C7F 0CFF 06205                         DT      B'11111000',B'01111111',B'11111111'     ;BTC=12
004324 0CF0 0CFF 0CFF 06206                         DT      B'11110000',B'11111111',B'11111111'     ;BTC=13
00432A 0CE1 0CFF 0CFF 06207                         DT      B'11100001',B'11111111',B'11111111'     ;BTC=14
004330 0CC3 0CFF 0CFF 06208                         DT      B'11000011',B'11111111',B'11111111'     ;BTC=15
004336 0C87 0CFF 0CFF 06209                         DT      B'10000111',B'11111111',B'11111111'     ;BTC=16
00433C 0C87 0CFF 0CFF 06210                         DT      B'10000111',B'11111111',B'11111111'     ;BTC=17
004342 0C87 0CFF 0CFF 06211                         DT      B'10000111',B'11111111',B'11111111'     ;BTC=18
004348 0C87 0CFF 0CFF 06212                         DT      B'10000111',B'11111111',B'11111111'     ;BTC=19
00434E 0C87 0CFF 0CFF 06213                         DT      B'10000111',B'11111111',B'11111111'     ;BTC=1A
004354 0C80 0C00 0C0F 06214                         DT      B'10000000',B'00000000',B'00001111'     ;BTC=1B
00435A 0C80 0C00 0C0F 06215                         DT      B'10000000',B'00000000',B'00001111'     ;BTC=1C
004360 0C80 0C00 0C0F 06216                         DT      B'10000000',B'00000000',B'00001111'     ;BTC=1D
004366 0C80 0C00 0C0F 06217                         DT      B'10000000',B'00000000',B'00001111'     ;BTC=1E
00436C 0CFF 0CFF 0CFF 06218                         DT      B'11111111',B'11111111',B'11111111'     ;BTC=1F
                      06219 
                      06220 
004372                06221 FONT02L_LOW_Z
                      06222 
004372 0E00           06223         MOVLW   0
004374 6EFB           06224         MOVWF   PCLATU,0
004376 0E43           06225         MOVLW   43
004378 6EFA           06226         MOVWF   PCLATH,0
                      06227 
                      06228 
                      06229 
                      06230 
00437A C146 FFE8      06231                         MOVFF   BTCOUNT,WREG
00437E 90D8           06232                         BCF             STATUS,C
004380 36E8           06233                         RLCF    WREG
                      06234 
                      06235                 
MPASM  5.51       20191122_RGMODULE_RTCV1.ASM   11-25-2019  10:52:29         PAGE 123


LOC  OBJECT CODE     LINE SOURCE TEXT
  VALUE

004382 26F9           06236                         ADDWF   PCL,1,0
004384 0C80 0C00 0CFF 06237                         DT      B'10000000',B'00000000',B'11111111'     ;BTC=10
00438A 0CFF 0CF1 0CFF 06238                         DT      B'11111111',B'11110001',B'11111111'     ;BTC=11
004390 0CFF 0CE3 0CFF 06239                         DT      B'11111111',B'11100011',B'11111111'     ;BTC=12
004396 0CFF 0CC7 0CFF 06240                         DT      B'11111111',B'11000111',B'11111111'     ;BTC=13
00439C 0CFF 0C8F 0CFF 06241                         DT      B'11111111',B'10001111',B'11111111'     ;BTC=14
0043A2 0CFF 0C1F 0CFF 06242                         DT      B'11111111',B'00011111',B'11111111'     ;BTC=15
0043A8 0CFE 0C3F 0CFF 06243                         DT      B'11111110',B'00111111',B'11111111'     ;BTC=16
0043AE 0CFC 0C7F 0CFF 06244                         DT      B'11111100',B'01111111',B'11111111'     ;BTC=17
0043B4 0CF8 0CFF 0CFF 06245                         DT      B'11111000',B'11111111',B'11111111'     ;BTC=18
0043BA 0CF1 0CFF 0CFF 06246                         DT      B'11110001',B'11111111',B'11111111'     ;BTC=19
0043C0 0CE3 0CFF 0CFF 06247                         DT      B'11100011',B'11111111',B'11111111'     ;BTC=1A
0043C6 0CC7 0CFF 0CFF 06248                         DT      B'11000111',B'11111111',B'11111111'     ;BTC=1B
0043CC 0C80 0C00 0C7F 06249                         DT      B'10000000',B'00000000',B'01111111'     ;BTC=1C
0043D2 0C80 0C00 0C7F 06250                         DT      B'10000000',B'00000000',B'01111111'     ;BTC=1D
0043D8 0C80 0C00 0C7F 06251                         DT      B'10000000',B'00000000',B'01111111'     ;BTC=1E
0043DE 0CFF 0CFF 0CFF 06252                         DT      B'11111111',B'11111111',B'11111111'     ;BTC=1F
                      06253 
                      06254 
                      06255 
                      06256 
                      06257 
                      06258 
                      06259 
                      06260 
                      06261 
                      06262 
                      06263 
Warning[205]: Found directive in column 1. (ORG)
004400                06264 ORG 0X4400
004400                06265 FONT02H_CAP_ZERO
                      06266 
004400 0E00           06267         MOVLW   0
004402 6EFB           06268         MOVWF   PCLATU,0
004404 0E44           06269         MOVLW   44
004406 6EFA           06270         MOVWF   PCLATH,0
                      06271 
                      06272         
                      06273 
                      06274         
004408 C146 FFE8      06275                         MOVFF   BTCOUNT,WREG
00440C 90D8           06276                         BCF             STATUS,C
00440E 36E8           06277                         RLCF    WREG
                      06278 
                      06279                 
004410 26F9           06280                         ADDWF   PCL,1,0
004412 0CC0 0CFF 0CFF 06281                         DT      B'11000000',B'11111111',B'11111111'     ;BTC=00
004418 0C80 0C7F 0CFF 06282                         DT      B'10000000',B'01111111',B'11111111'     ;BTC=01
00441E 0C1E 0C3F 0CFF 06283                         DT      B'00011110',B'00111111',B'11111111'     ;BTC=02
004424 0C3F 0C3F 0CFF 06284                         DT      B'00111111',B'00111111',B'11111111'     ;BTC=03
00442A 0C3F 0C3F 0CFF 06285                         DT      B'00111111',B'00111111',B'11111111'     ;BTC=04
004430 0C3F 0C3F 0CFF 06286                         DT      B'00111111',B'00111111',B'11111111'     ;BTC=05
004436 0C3F 0C3F 0CFF 06287                         DT      B'00111111',B'00111111',B'11111111'     ;BTC=06
MPASM  5.51       20191122_RGMODULE_RTCV1.ASM   11-25-2019  10:52:29         PAGE 124


LOC  OBJECT CODE     LINE SOURCE TEXT
  VALUE

00443C 0C3F 0C3F 0CFF 06288                         DT      B'00111111',B'00111111',B'11111111'     ;BTC=07
004442 0C3F 0C3F 0CFF 06289                         DT      B'00111111',B'00111111',B'11111111'     ;BTC=08
004448 0C3F 0C3F 0CFF 06290                         DT      B'00111111',B'00111111',B'11111111'     ;BTC=09
00444E 0C3F 0C3F 0CFF 06291                         DT      B'00111111',B'00111111',B'11111111'     ;BTC=0A
004454 0C3F 0C3F 0CFF 06292                         DT      B'00111111',B'00111111',B'11111111'     ;BTC=0B
00445A 0C3F 0C3F 0CFF 06293                         DT      B'00111111',B'00111111',B'11111111'     ;BTC=0C
004460 0C1E 0C3F 0CFF 06294                         DT      B'00011110',B'00111111',B'11111111'     ;BTC=0D
004466 0C80 0C7F 0CFF 06295                         DT      B'10000000',B'01111111',B'11111111'     ;BTC=0E
00446C 0CC0 0CFF 0CFF 06296                         DT      B'11000000',B'11111111',B'11111111'     ;BTC=0F
                      06297 
                      06298 
Warning[205]: Found directive in column 1. (ORG)
004500                06299 ORG 0X4500
004500                06300 FONT02L_CAP_ZERO
                      06301 
004500 0E00           06302         MOVLW   0
004502 6EFB           06303         MOVWF   PCLATU,0
004504 0E45           06304         MOVLW   45
004506 6EFA           06305         MOVWF   PCLATH,0
                      06306 
                      06307 
                      06308 
                      06309 
004508 C146 FFE8      06310                         MOVFF   BTCOUNT,WREG
00450C 90D8           06311                         BCF             STATUS,C
00450E 36E8           06312                         RLCF    WREG
                      06313 
                      06314                 
004510 26F9           06315                         ADDWF   PCL,1,0
004512 0CFF 0CFF 0CFF 06316                         DT      B'11111111',B'11111111',B'11111111'     ;BTC=10
004518 0CFF 0CFF 0CFF 06317                         DT      B'11111111',B'11111111',B'11111111'     ;BTC=11
00451E 0CFF 0CFF 0CFF 06318                         DT      B'11111111',B'11111111',B'11111111'     ;BTC=12
004524 0CFF 0CFF 0CFF 06319                         DT      B'11111111',B'11111111',B'11111111'     ;BTC=13
00452A 0CFF 0CFF 0CFF 06320                         DT      B'11111111',B'11111111',B'11111111'     ;BTC=14
004530 0CFF 0CFF 0CFF 06321                         DT      B'11111111',B'11111111',B'11111111'     ;BTC=15
004536 0CFF 0CFF 0CFF 06322                         DT      B'11111111',B'11111111',B'11111111'     ;BTC=16
00453C 0CFF 0CFF 0CFF 06323                         DT      B'11111111',B'11111111',B'11111111'     ;BTC=17
004542 0CFF 0CFF 0CFF 06324                         DT      B'11111111',B'11111111',B'11111111'     ;BTC=18
004548 0CFF 0CFF 0CFF 06325                         DT      B'11111111',B'11111111',B'11111111'     ;BTC=19
00454E 0CFF 0CFF 0CFF 06326                         DT      B'11111111',B'11111111',B'11111111'     ;BTC=1A
004554 0CFF 0CFF 0CFF 06327                         DT      B'11111111',B'11111111',B'11111111'     ;BTC=1B
00455A 0CFF 0CFF 0CFF 06328                         DT      B'11111111',B'11111111',B'11111111'     ;BTC=1C
004560 0CFF 0CFF 0CFF 06329                         DT      B'11111111',B'11111111',B'11111111'     ;BTC=1D
004566 0CFF 0CFF 0CFF 06330                         DT      B'11111111',B'11111111',B'11111111'     ;BTC=1E
00456C 0CFF 0CFF 0CFF 06331                         DT      B'11111111',B'11111111',B'11111111'     ;BTC=1F
                      06332 
                      06333 
Warning[205]: Found directive in column 1. (ORG)
004600                06334 ORG 0X4600
004600                06335 FONT02H_CAP_ONE
                      06336 
004600 0E00           06337         MOVLW   0
004602 6EFB           06338         MOVWF   PCLATU,0
MPASM  5.51       20191122_RGMODULE_RTCV1.ASM   11-25-2019  10:52:29         PAGE 125


LOC  OBJECT CODE     LINE SOURCE TEXT
  VALUE

004604 0E46           06339         MOVLW   46
004606 6EFA           06340         MOVWF   PCLATH,0
                      06341 
                      06342         
                      06343 
                      06344         
004608 C146 FFE8      06345                         MOVFF   BTCOUNT,WREG
00460C 90D8           06346                         BCF             STATUS,C
00460E 36E8           06347                         RLCF    WREG
                      06348 
                      06349                 
004610 26F9           06350                         ADDWF   PCL,1,0
004612 0CE7 0CFF 0CFF 06351                         DT      B'11100111',B'11111111',B'11111111'     ;BTC=00
004618 0CE7 0CFF 0CFF 06352                         DT      B'11100111',B'11111111',B'11111111'     ;BTC=01
00461E 0CC7 0CFF 0CFF 06353                         DT      B'11000111',B'11111111',B'11111111'     ;BTC=02
004624 0C87 0CFF 0CFF 06354                         DT      B'10000111',B'11111111',B'11111111'     ;BTC=03
00462A 0C27 0CFF 0CFF 06355                         DT      B'00100111',B'11111111',B'11111111'     ;BTC=04
004630 0CE7 0CFF 0CFF 06356                         DT      B'11100111',B'11111111',B'11111111'     ;BTC=05
004636 0CE7 0CFF 0CFF 06357                         DT      B'11100111',B'11111111',B'11111111'     ;BTC=06
00463C 0CE7 0CFF 0CFF 06358                         DT      B'11100111',B'11111111',B'11111111'     ;BTC=07
004642 0CE7 0CFF 0CFF 06359                         DT      B'11100111',B'11111111',B'11111111'     ;BTC=08
004648 0CE7 0CFF 0CFF 06360                         DT      B'11100111',B'11111111',B'11111111'     ;BTC=09
00464E 0CE7 0CFF 0CFF 06361                         DT      B'11100111',B'11111111',B'11111111'     ;BTC=0A
004654 0CE7 0CFF 0CFF 06362                         DT      B'11100111',B'11111111',B'11111111'     ;BTC=0B
00465A 0CE7 0CFF 0CFF 06363                         DT      B'11100111',B'11111111',B'11111111'     ;BTC=0C
004660 0CE7 0CFF 0CFF 06364                         DT      B'11100111',B'11111111',B'11111111'     ;BTC=0D
004666 0C00 0CFF 0CFF 06365                         DT      B'00000000',B'11111111',B'11111111'     ;BTC=0E
00466C 0C00 0CFF 0CFF 06366                         DT      B'00000000',B'11111111',B'11111111'     ;BTC=0F
                      06367 
Warning[205]: Found directive in column 1. (ORG)
004700                06368 ORG 0X4700
004700                06369 FONT02L_CAP_ONE
                      06370 
004700 0E00           06371         MOVLW   0
004702 6EFB           06372         MOVWF   PCLATU,0
004704 0E47           06373         MOVLW   47
004706 6EFA           06374         MOVWF   PCLATH,0
                      06375 
                      06376 
                      06377 
                      06378 
004708 C146 FFE8      06379                         MOVFF   BTCOUNT,WREG
00470C 90D8           06380                         BCF             STATUS,C
00470E 36E8           06381                         RLCF    WREG
                      06382 
                      06383                 
004710 26F9           06384                         ADDWF   PCL,1,0
                      06385 
004712 0CFF 0CFF 0CFF 06386                         DT      B'11111111',B'11111111',B'11111111'     ;BTC=10
004718 0CFF 0CFF 0CFF 06387                         DT      B'11111111',B'11111111',B'11111111'     ;BTC=11
00471E 0CFF 0CFF 0CFF 06388                         DT      B'11111111',B'11111111',B'11111111'     ;BTC=12
004724 0CFF 0CFF 0CFF 06389                         DT      B'11111111',B'11111111',B'11111111'     ;BTC=13
00472A 0CFF 0CFF 0CFF 06390                         DT      B'11111111',B'11111111',B'11111111'     ;BTC=14
MPASM  5.51       20191122_RGMODULE_RTCV1.ASM   11-25-2019  10:52:29         PAGE 126


LOC  OBJECT CODE     LINE SOURCE TEXT
  VALUE

004730 0CFF 0CFF 0CFF 06391                         DT      B'11111111',B'11111111',B'11111111'     ;BTC=15
004736 0CFF 0CFF 0CFF 06392                         DT      B'11111111',B'11111111',B'11111111'     ;BTC=16
00473C 0CFF 0CFF 0CFF 06393                         DT      B'11111111',B'11111111',B'11111111'     ;BTC=17
004742 0CFF 0CFF 0CFF 06394                         DT      B'11111111',B'11111111',B'11111111'     ;BTC=18
004748 0CFF 0CFF 0CFF 06395                         DT      B'11111111',B'11111111',B'11111111'     ;BTC=19
00474E 0CFF 0CFF 0CFF 06396                         DT      B'11111111',B'11111111',B'11111111'     ;BTC=1A
004754 0CFF 0CFF 0CFF 06397                         DT      B'11111111',B'11111111',B'11111111'     ;BTC=1B
00475A 0CFF 0CFF 0CFF 06398                         DT      B'11111111',B'11111111',B'11111111'     ;BTC=1C
004760 0CFF 0CFF 0CFF 06399                         DT      B'11111111',B'11111111',B'11111111'     ;BTC=1D
004766 0CFF 0CFF 0CFF 06400                         DT      B'11111111',B'11111111',B'11111111'     ;BTC=1E
00476C 0CFF 0CFF 0CFF 06401                         DT      B'11111111',B'11111111',B'11111111'     ;BTC=1F
                      06402 
Warning[205]: Found directive in column 1. (ORG)
004800                06403 ORG 0X4800
004800                06404 FONT02H_CAP_TWO
                      06405 
004800 0E00           06406         MOVLW   0
004802 6EFB           06407         MOVWF   PCLATU,0
004804 0E48           06408         MOVLW   48
004806 6EFA           06409         MOVWF   PCLATH,0
                      06410 
                      06411         
                      06412 
                      06413         
004808 C146 FFE8      06414                         MOVFF   BTCOUNT,WREG
00480C 90D8           06415                         BCF             STATUS,C
00480E 36E8           06416                         RLCF    WREG
                      06417 
                      06418                 
004810 26F9           06419                         ADDWF   PCL,1,0
004812 0CFF 0CFF 0CFF 06420                         DT      B'11111111',B'11111111',B'11111111'     ;BTC=00
004818 0CE0 0C00 0CFF 06421                         DT      B'11100000',B'00000000',B'11111111'     ;BTC=01
00481E 0CC0 0C00 0C7F 06422                         DT      B'11000000',B'00000000',B'01111111'     ;BTC=02
004824 0C80 0C00 0C3F 06423                         DT      B'10000000',B'00000000',B'00111111'     ;BTC=03
00482A 0CFF 0CFC 0C1F 06424                         DT      B'11111111',B'11111100',B'00011111'     ;BTC=04
004830 0CFF 0CFE 0C0F 06425                         DT      B'11111111',B'11111110',B'00001111'     ;BTC=05
004836 0CFF 0CFF 0C0F 06426                         DT      B'11111111',B'11111111',B'00001111'     ;BTC=06
00483C 0CFF 0CFF 0C0F 06427                         DT      B'11111111',B'11111111',B'00001111'     ;BTC=07
004842 0CFF 0CFF 0C0F 06428                         DT      B'11111111',B'11111111',B'00001111'     ;BTC=08
004848 0CFF 0CFF 0C0F 06429                         DT      B'11111111',B'11111111',B'00001111'     ;BTC=09
00484E 0CFF 0CFF 0C0F 06430                         DT      B'11111111',B'11111111',B'00001111'     ;BTC=0A
004854 0CFF 0CFF 0C0F 06431                         DT      B'11111111',B'11111111',B'00001111'     ;BTC=0B
00485A 0CFF 0CFE 0C0F 06432                         DT      B'11111111',B'11111110',B'00001111'     ;BTC=0C
004860 0CFF 0CFC 0C1F 06433                         DT      B'11111111',B'11111100',B'00011111'     ;BTC=0D
004866 0CF8 0C00 0C3F 06434                         DT      B'11111000',B'00000000',B'00111111'     ;BTC=0E
00486C 0CF0 0C00 0C7F 06435                         DT      B'11110000',B'00000000',B'01111111'     ;BTC=0F
                      06436 
                      06437 
Warning[205]: Found directive in column 1. (ORG)
004900                06438 ORG 0X4900
004900                06439 FONT02L_CAP_TWO
                      06440 
004900 0E00           06441         MOVLW   0
MPASM  5.51       20191122_RGMODULE_RTCV1.ASM   11-25-2019  10:52:29         PAGE 127


LOC  OBJECT CODE     LINE SOURCE TEXT
  VALUE

004902 6EFB           06442         MOVWF   PCLATU,0
004904 0E49           06443         MOVLW   49
004906 6EFA           06444         MOVWF   PCLATH,0
                      06445 
                      06446 
                      06447 
                      06448 
004908 C146 FFE8      06449                         MOVFF   BTCOUNT,WREG
00490C 90D8           06450                         BCF             STATUS,C
00490E 36E8           06451                         RLCF    WREG
                      06452 
                      06453                 
004910 26F9           06454                         ADDWF   PCL,1,0
                      06455 
004912 0CE0 0C00 0CFF 06456                         DT      B'11100000',B'00000000',B'11111111'     ;BTC=10
004918 0CC1 0CFF 0CFF 06457                         DT      B'11000001',B'11111111',B'11111111'     ;BTC=11
00491E 0C83 0CFF 0CFF 06458                         DT      B'10000011',B'11111111',B'11111111'     ;BTC=12
004924 0C87 0CFF 0CFF 06459                         DT      B'10000111',B'11111111',B'11111111'     ;BTC=13
00492A 0C87 0CFF 0CFF 06460                         DT      B'10000111',B'11111111',B'11111111'     ;BTC=14
004930 0C87 0CFF 0CFF 06461                         DT      B'10000111',B'11111111',B'11111111'     ;BTC=15
004936 0C87 0CFF 0CFF 06462                         DT      B'10000111',B'11111111',B'11111111'     ;BTC=16
00493C 0C87 0CFF 0CFF 06463                         DT      B'10000111',B'11111111',B'11111111'     ;BTC=17
004942 0C87 0CFF 0CFF 06464                         DT      B'10000111',B'11111111',B'11111111'     ;BTC=18
004948 0C87 0CFF 0C0F 06465                         DT      B'10000111',B'11111111',B'00001111'     ;BTC=19
00494E 0C87 0CFF 0C0F 06466                         DT      B'10000111',B'11111111',B'00001111'     ;BTC=1A
004954 0C80 0C00 0C0F 06467                         DT      B'10000000',B'00000000',B'00001111'     ;BTC=1B
00495A 0C80 0C00 0C0F 06468                         DT      B'10000000',B'00000000',B'00001111'     ;BTC=1C
004960 0C80 0C00 0C0F 06469                         DT      B'10000000',B'00000000',B'00001111'     ;BTC=1D
004966 0C80 0C00 0C0F 06470                         DT      B'10000000',B'00000000',B'00001111'     ;BTC=1E
00496C 0CFF 0CFF 0CFF 06471                         DT      B'11111111',B'11111111',B'11111111'     ;BTC=1F
                      06472 
                      06473 
                      06474 
Warning[205]: Found directive in column 1. (ORG)
004A00                06475 ORG 0X4A00
004A00                06476 FONT02H_CAP_THREE
                      06477 
004A00 0E00           06478         MOVLW   0
004A02 6EFB           06479         MOVWF   PCLATU,0
Warning[202]: Argument out of range.  Least significant bits used.
004A04 0EA6           06480         MOVLW   4A6
004A06 6EFA           06481         MOVWF   PCLATH,0
                      06482 
                      06483         
                      06484 
                      06485         
004A08 C146 FFE8      06486                         MOVFF   BTCOUNT,WREG
004A0C 90D8           06487                         BCF             STATUS,C
004A0E 36E8           06488                         RLCF    WREG
                      06489 
                      06490                 
004A10 26F9           06491                         ADDWF   PCL,1,0
004A12 0CFF 0CFF 0CFF 06492                         DT      B'11111111',B'11111111',B'11111111'     ;BTC=00
MPASM  5.51       20191122_RGMODULE_RTCV1.ASM   11-25-2019  10:52:29         PAGE 128


LOC  OBJECT CODE     LINE SOURCE TEXT
  VALUE

004A18 0CF0 0C00 0CFF 06493                         DT      B'11110000',B'00000000',B'11111111'     ;BTC=01
004A1E 0CE0 0C00 0C7F 06494                         DT      B'11100000',B'00000000',B'01111111'     ;BTC=02
004A24 0CC0 0C00 0C3F 06495                         DT      B'11000000',B'00000000',B'00111111'     ;BTC=03
004A2A 0C80 0C00 0C1F 06496                         DT      B'10000000',B'00000000',B'00011111'     ;BTC=04
004A30 0CFF 0CFC 0C0F 06497                         DT      B'11111111',B'11111100',B'00001111'     ;BTC=05
004A36 0CFF 0CFE 0C0F 06498                         DT      B'11111111',B'11111110',B'00001111'     ;BTC=06
004A3C 0CFF 0CFF 0C0F 06499                         DT      B'11111111',B'11111111',B'00001111'     ;BTC=07
004A42 0CFF 0CFF 0C0F 06500                         DT      B'11111111',B'11111111',B'00001111'     ;BTC=08
004A48 0CFF 0CFF 0C0F 06501                         DT      B'11111111',B'11111111',B'00001111'     ;BTC=09
004A4E 0CFF 0CFF 0C0F 06502                         DT      B'11111111',B'11111111',B'00001111'     ;BTC=0A
004A54 0CFF 0CFF 0C0F 06503                         DT      B'11111111',B'11111111',B'00001111'     ;BTC=0B
004A5A 0CFF 0CFE 0C0F 06504                         DT      B'11111111',B'11111110',B'00001111'     ;BTC=0C
004A60 0CFF 0CFC 0C1F 06505                         DT      B'11111111',B'11111100',B'00011111'     ;BTC=0D
004A66 0CF8 0C00 0C3F 06506                         DT      B'11111000',B'00000000',B'00111111'     ;BTC=0E
004A6C 0CF8 0C00 0C7F 06507                         DT      B'11111000',B'00000000',B'01111111'     ;BTC=0F
                      06508 
                      06509 
Warning[205]: Found directive in column 1. (ORG)
004B00                06510 ORG 0X4B00
004B00                06511 FONT02L_CAP_THREE
                      06512 
004B00 0E00           06513         MOVLW   0
004B02 6EFB           06514         MOVWF   PCLATU,0
004B04 0E4B           06515         MOVLW   4B
004B06 6EFA           06516         MOVWF   PCLATH,0
                      06517 
                      06518 
                      06519 
                      06520 
004B08 C146 FFE8      06521                         MOVFF   BTCOUNT,WREG
004B0C 90D8           06522                         BCF             STATUS,C
004B0E 36E8           06523                         RLCF    WREG
                      06524 
                      06525                 
004B10 26F9           06526                         ADDWF   PCL,1,0
                      06527 
004B12 0CF8 0C00 0C7F 06528                         DT      B'11111000',B'00000000',B'01111111'     ;BTC=10
004B18 0CF8 0C00 0C3F 06529                         DT      B'11111000',B'00000000',B'00111111'     ;BTC=11
004B1E 0CFF 0CFC 0C1F 06530                         DT      B'11111111',B'11111100',B'00011111'     ;BTC=12
004B24 0CFF 0CFE 0C0F 06531                         DT      B'11111111',B'11111110',B'00001111'     ;BTC=13
004B2A 0CFF 0CFF 0C0F 06532                         DT      B'11111111',B'11111111',B'00001111'     ;BTC=14
004B30 0CFF 0CFF 0C0F 06533                         DT      B'11111111',B'11111111',B'00001111'     ;BTC=15
004B36 0CFF 0CFF 0C0F 06534                         DT      B'11111111',B'11111111',B'00001111'     ;BTC=16
004B3C 0CFF 0CFF 0C0F 06535                         DT      B'11111111',B'11111111',B'00001111'     ;BTC=17
004B42 0CFF 0CFF 0C0F 06536                         DT      B'11111111',B'11111111',B'00001111'     ;BTC=18
004B48 0CFF 0CFE 0C0F 06537                         DT      B'11111111',B'11111110',B'00001111'     ;BTC=19
004B4E 0CFF 0CFC 0C0F 06538                         DT      B'11111111',B'11111100',B'00001111'     ;BTC=1A
004B54 0C80 0C00 0C1F 06539                         DT      B'10000000',B'00000000',B'00011111'     ;BTC=1B
004B5A 0CC0 0C00 0C3F 06540                         DT      B'11000000',B'00000000',B'00111111'     ;BTC=1C
004B60 0CE0 0C00 0C7F 06541                         DT      B'11100000',B'00000000',B'01111111'     ;BTC=1D
004B66 0CF0 0C00 0CFF 06542                         DT      B'11110000',B'00000000',B'11111111'     ;BTC=1E
004B6C 0CFF 0CFF 0CFF 06543                         DT      B'11111111',B'11111111',B'11111111'     ;BTC=1F
                      06544 
MPASM  5.51       20191122_RGMODULE_RTCV1.ASM   11-25-2019  10:52:29         PAGE 129


LOC  OBJECT CODE     LINE SOURCE TEXT
  VALUE

                      06545 
Warning[205]: Found directive in column 1. (ORG)
004C00                06546 ORG 0X4C00
004C00                06547 FONT02H_CAP_FOUR
                      06548 
004C00 0E00           06549         MOVLW   0
004C02 6EFB           06550         MOVWF   PCLATU,0
004C04 0E4C           06551         MOVLW   4C
004C06 6EFA           06552         MOVWF   PCLATH,0
                      06553 
                      06554         
                      06555 
                      06556         
004C08 C146 FFE8      06557                         MOVFF   BTCOUNT,WREG
004C0C 90D8           06558                         BCF             STATUS,C
004C0E 36E8           06559                         RLCF    WREG
                      06560 
                      06561                 
004C10 26F9           06562                         ADDWF   PCL,1,0
004C12 0CFF 0CFF 0CFF 06563                         DT      B'11111111',B'11111111',B'11111111'     ;BTC=00
004C18 0CFF 0CFF 0C3F 06564                         DT      B'11111111',B'11111111',B'00111111'     ;BTC=01
004C1E 0CFF 0CFE 0C3F 06565                         DT      B'11111111',B'11111110',B'00111111'     ;BTC=02
004C24 0CFF 0CFC 0C3F 06566                         DT      B'11111111',B'11111100',B'00111111'     ;BTC=03
004C2A 0CFF 0CF8 0C3F 06567                         DT      B'11111111',B'11111000',B'00111111'     ;BTC=04
004C30 0CFF 0CF0 0C3F 06568                         DT      B'11111111',B'11110000',B'00111111'     ;BTC=05
004C36 0CFF 0CE0 0C3F 06569                         DT      B'11111111',B'11100000',B'00111111'     ;BTC=06
004C3C 0CFF 0CC0 0C3F 06570                         DT      B'11111111',B'11000000',B'00111111'     ;BTC=07
004C42 0CFF 0C84 0C3F 06571                         DT      B'11111111',B'10000100',B'00111111'     ;BTC=08
004C48 0CFF 0C0C 0C3F 06572                         DT      B'11111111',B'00001100',B'00111111'     ;BTC=09
004C4E 0CFE 0C1C 0C3F 06573                         DT      B'11111110',B'00011100',B'00111111'     ;BTC=0A
004C54 0CFC 0C3C 0C3F 06574                         DT      B'11111100',B'00111100',B'00111111'     ;BTC=0B
004C5A 0CF8 0C7C 0C3F 06575                         DT      B'11111000',B'01111100',B'00111111'     ;BTC=0C
004C60 0CF0 0CFC 0C3F 06576                         DT      B'11110000',B'11111100',B'00111111'     ;BTC=0D
004C66 0CE1 0CFC 0C3F 06577                         DT      B'11100001',B'11111100',B'00111111'     ;BTC=0E
004C6C 0CC3 0CFC 0C3F 06578                         DT      B'11000011',B'11111100',B'00111111'     ;BTC=0F
                      06579 
Warning[205]: Found directive in column 1. (ORG)
004D00                06580 ORG 0X4D00
004D00                06581 FONT02L_CAP_FOUR
                      06582 
004D00 0E00           06583         MOVLW   0
004D02 6EFB           06584         MOVWF   PCLATU,0
004D04 0E4D           06585         MOVLW   4D
004D06 6EFA           06586         MOVWF   PCLATH,0
                      06587 
                      06588 
                      06589 
                      06590 
004D08 C146 FFE8      06591                         MOVFF   BTCOUNT,WREG
004D0C 90D8           06592                         BCF             STATUS,C
004D0E 36E8           06593                         RLCF    WREG
                      06594 
                      06595                 
MPASM  5.51       20191122_RGMODULE_RTCV1.ASM   11-25-2019  10:52:29         PAGE 130


LOC  OBJECT CODE     LINE SOURCE TEXT
  VALUE

004D10 26F9           06596                         ADDWF   PCL,1,0
004D12 0C80 0C00 0C0F 06597                         DT      B'10000000',B'00000000',B'00001111'     ;BTC=10
004D18 0C80 0C00 0C0F 06598                         DT      B'10000000',B'00000000',B'00001111'     ;BTC=11
004D1E 0C80 0C00 0C0F 06599                         DT      B'10000000',B'00000000',B'00001111'     ;BTC=12
004D24 0C80 0C00 0C0F 06600                         DT      B'10000000',B'00000000',B'00001111'     ;BTC=13
004D2A 0CFF 0CFC 0C3F 06601                         DT      B'11111111',B'11111100',B'00111111'     ;BTC=14
004D30 0CFF 0CFC 0C3F 06602                         DT      B'11111111',B'11111100',B'00111111'     ;BTC=15
004D36 0CFF 0CFC 0C3F 06603                         DT      B'11111111',B'11111100',B'00111111'     ;BTC=16
004D3C 0CFF 0CFC 0C3F 06604                         DT      B'11111111',B'11111100',B'00111111'     ;BTC=17
004D42 0CFF 0CFC 0C3F 06605                         DT      B'11111111',B'11111100',B'00111111'     ;BTC=18
004D48 0CFF 0CFC 0C3F 06606                         DT      B'11111111',B'11111100',B'00111111'     ;BTC=19
004D4E 0CFF 0CFC 0C3F 06607                         DT      B'11111111',B'11111100',B'00111111'     ;BTC=1A
004D54 0CFF 0CFC 0C3F 06608                         DT      B'11111111',B'11111100',B'00111111'     ;BTC=1B
004D5A 0CFF 0CFC 0C3F 06609                         DT      B'11111111',B'11111100',B'00111111'     ;BTC=1C
004D60 0CFF 0CFC 0C3F 06610                         DT      B'11111111',B'11111100',B'00111111'     ;BTC=1D
004D66 0CFF 0CFC 0C3F 06611                         DT      B'11111111',B'11111100',B'00111111'     ;BTC=1E
004D6C 0CFF 0CFF 0CFF 06612                         DT      B'11111111',B'11111111',B'11111111'     ;BTC=1F
                      06613 
                      06614 
                      06615 
Warning[205]: Found directive in column 1. (ORG)
004E00                06616 ORG 0X4E00
004E00                06617 FONT02H_CAP_FIVE
                      06618 
004E00 0E00           06619         MOVLW   0
004E02 6EFB           06620         MOVWF   PCLATU,0
004E04 0E4E           06621         MOVLW   4E
004E06 6EFA           06622         MOVWF   PCLATH,0
                      06623 
                      06624         
                      06625 
                      06626         
004E08 C146 FFE8      06627                         MOVFF   BTCOUNT,WREG
004E0C 90D8           06628                         BCF             STATUS,C
004E0E 36E8           06629                         RLCF    WREG
                      06630 
                      06631                 
004E10 26F9           06632                         ADDWF   PCL,1,0
004E12 0CFF 0CFF 0CFF 06633                         DT      B'11111111',B'11111111',B'11111111'     ;BTC=00
004E18 0C80 0C00 0C0F 06634                         DT      B'10000000',B'00000000',B'00001111'     ;BTC=01
004E1E 0C80 0C00 0C0F 06635                         DT      B'10000000',B'00000000',B'00001111'     ;BTC=02
004E24 0C80 0C00 0C0F 06636                         DT      B'10000000',B'00000000',B'00001111'     ;BTC=03
004E2A 0C80 0C00 0C0F 06637                         DT      B'10000000',B'00000000',B'00001111'     ;BTC=04
004E30 0C87 0CFF 0CFF 06638                         DT      B'10000111',B'11111111',B'11111111'     ;BTC=05
004E36 0C87 0CFF 0CFF 06639                         DT      B'10000111',B'11111111',B'11111111'     ;BTC=06
004E3C 0C87 0CFF 0CFF 06640                         DT      B'10000111',B'11111111',B'11111111'     ;BTC=07
004E42 0C87 0CFF 0CFF 06641                         DT      B'10000111',B'11111111',B'11111111'     ;BTC=08
004E48 0C87 0CFF 0CFF 06642                         DT      B'10000111',B'11111111',B'11111111'     ;BTC=09
004E4E 0C87 0CFF 0CFF 06643                         DT      B'10000111',B'11111111',B'11111111'     ;BTC=0A
004E54 0C87 0CFF 0CFF 06644                         DT      B'10000111',B'11111111',B'11111111'     ;BTC=0B
004E5A 0C80 0C00 0CFF 06645                         DT      B'10000000',B'00000000',B'11111111'     ;BTC=0C
004E60 0C80 0C00 0C7F 06646                         DT      B'10000000',B'00000000',B'01111111'     ;BTC=0D
004E66 0C80 0C00 0C3F 06647                         DT      B'10000000',B'00000000',B'00111111'     ;BTC=0E
MPASM  5.51       20191122_RGMODULE_RTCV1.ASM   11-25-2019  10:52:29         PAGE 131


LOC  OBJECT CODE     LINE SOURCE TEXT
  VALUE

004E6C 0C80 0C00 0C1F 06648                         DT      B'10000000',B'00000000',B'00011111'     ;BTC=0F
Warning[205]: Found directive in column 1. (ORG)
004F00                06649 ORG 0X4F00
004F00                06650 FONT02L_CAP_FIVE
                      06651 
004F00 0E00           06652         MOVLW   0
004F02 6EFB           06653         MOVWF   PCLATU,0
004F04 0E4F           06654         MOVLW   4F
004F06 6EFA           06655         MOVWF   PCLATH,0
                      06656 
                      06657 
                      06658 
                      06659 
004F08 C146 FFE8      06660                         MOVFF   BTCOUNT,WREG
004F0C 90D8           06661                         BCF             STATUS,C
004F0E 36E8           06662                         RLCF    WREG
                      06663 
                      06664                 
004F10 26F9           06665                         ADDWF   PCL,1,0
004F12 0CFF 0CFC 0C0F 06666                         DT      B'11111111',B'11111100',B'00001111'     ;BTC=10
004F18 0CFF 0CFE 0C0F 06667                         DT      B'11111111',B'11111110',B'00001111'     ;BTC=11
004F1E 0CFF 0CFF 0C0F 06668                         DT      B'11111111',B'11111111',B'00001111'     ;BTC=12
004F24 0CFF 0CFF 0C0F 06669                         DT      B'11111111',B'11111111',B'00001111'     ;BTC=13
004F2A 0CFF 0CFF 0C0F 06670                         DT      B'11111111',B'11111111',B'00001111'     ;BTC=14
004F30 0CFF 0CFF 0C0F 06671                         DT      B'11111111',B'11111111',B'00001111'     ;BTC=15
004F36 0CFF 0CFF 0C0F 06672                         DT      B'11111111',B'11111111',B'00001111'     ;BTC=16
004F3C 0CFF 0CFF 0C0F 06673                         DT      B'11111111',B'11111111',B'00001111'     ;BTC=17
004F42 0CFF 0CFF 0C0F 06674                         DT      B'11111111',B'11111111',B'00001111'     ;BTC=18
004F48 0CFF 0CFE 0C0F 06675                         DT      B'11111111',B'11111110',B'00001111'     ;BTC=19
004F4E 0CFF 0CFC 0C0F 06676                         DT      B'11111111',B'11111100',B'00001111'     ;BTC=1A
004F54 0C80 0C00 0C1F 06677                         DT      B'10000000',B'00000000',B'00011111'     ;BTC=1B
004F5A 0CC0 0C00 0C3F 06678                         DT      B'11000000',B'00000000',B'00111111'     ;BTC=1C
004F60 0CE0 0C00 0C7F 06679                         DT      B'11100000',B'00000000',B'01111111'     ;BTC=1D
004F66 0CF0 0C00 0CFF 06680                         DT      B'11110000',B'00000000',B'11111111'     ;BTC=1E
004F6C 0CFF 0CFF 0CFF 06681                         DT      B'11111111',B'11111111',B'11111111'     ;BTC=1F
                      06682 
                      06683 
Warning[205]: Found directive in column 1. (ORG)
005000                06684 ORG 0X5000
005000                06685 FONT02H_CAP_SIX
                      06686 
005000 0E00           06687         MOVLW   0
005002 6EFB           06688         MOVWF   PCLATU,0
005004 0E50           06689         MOVLW   50
005006 6EFA           06690         MOVWF   PCLATH,0
                      06691 
                      06692         
                      06693 
                      06694         
005008 C146 FFE8      06695                         MOVFF   BTCOUNT,WREG
00500C 90D8           06696                         BCF             STATUS,C
00500E 36E8           06697                         RLCF    WREG
                      06698 
MPASM  5.51       20191122_RGMODULE_RTCV1.ASM   11-25-2019  10:52:29         PAGE 132


LOC  OBJECT CODE     LINE SOURCE TEXT
  VALUE

                      06699                 
005010 26F9           06700                         ADDWF   PCL,1,0
005012 0CFF 0CFF 0CFF 06701                         DT      B'11111111',B'11111111',B'11111111'     ;BTC=00
005018 0CF8 0C00 0C7F 06702                         DT      B'11111000',B'00000000',B'01111111'     ;BTC=01
00501E 0CF0 0C00 0C3F 06703                         DT      B'11110000',B'00000000',B'00111111'     ;BTC=02
005024 0CE0 0C00 0C1F 06704                         DT      B'11100000',B'00000000',B'00011111'     ;BTC=03
00502A 0CC0 0C00 0C0F 06705                         DT      B'11000000',B'00000000',B'00001111'     ;BTC=04
005030 0C81 0CFE 0C0F 06706                         DT      B'10000001',B'11111110',B'00001111'     ;BTC=05
005036 0C83 0CFF 0C0F 06707                         DT      B'10000011',B'11111111',B'00001111'     ;BTC=06
00503C 0C87 0CFF 0CFF 06708                         DT      B'10000111',B'11111111',B'11111111'     ;BTC=07
005042 0C87 0CFF 0CFF 06709                         DT      B'10000111',B'11111111',B'11111111'     ;BTC=08
005048 0C87 0CFF 0CFF 06710                         DT      B'10000111',B'11111111',B'11111111'     ;BTC=07
00504E 0C87 0CFF 0CFF 06711                         DT      B'10000111',B'11111111',B'11111111'     ;BTC=0A
005054 0C87 0CFF 0CFF 06712                         DT      B'10000111',B'11111111',B'11111111'     ;BTC=0B
00505A 0C87 0CFF 0CFF 06713                         DT      B'10000111',B'11111111',B'11111111'     ;BTC=0C
005060 0C87 0CFF 0CFF 06714                         DT      B'10000111',B'11111111',B'11111111'     ;BTC=0D
005066 0C86 0C00 0CFF 06715                         DT      B'10000110',B'00000000',B'11111111'     ;BTC=0E
00506C 0C84 0C00 0C7F 06716                         DT      B'10000100',B'00000000',B'01111111'     ;BTC=0F
                      06717         
Warning[205]: Found directive in column 1. (ORG)
005100                06718 ORG 0X5100
005100                06719 FONT02L_CAP_SIX
                      06720 
005100 0E00           06721         MOVLW   0
005102 6EFB           06722         MOVWF   PCLATU,0
005104 0E51           06723         MOVLW   51
005106 6EFA           06724         MOVWF   PCLATH,0
                      06725 
                      06726 
                      06727 
                      06728 
005108 C146 FFE8      06729                         MOVFF   BTCOUNT,WREG
00510C 90D8           06730                         BCF             STATUS,C
00510E 36E8           06731                         RLCF    WREG
                      06732 
                      06733                 
005110 26F9           06734                         ADDWF   PCL,1,0
005112 0C80 0C00 0C3F 06735                         DT      B'10000000',B'00000000',B'00111111'     ;BTC=10
005118 0C80 0C00 0C1F 06736                         DT      B'10000000',B'00000000',B'00011111'     ;BTC=11
00511E 0C81 0CFC 0C0F 06737                         DT      B'10000001',B'11111100',B'00001111'     ;BTC=12
005124 0C83 0CFE 0C0F 06738                         DT      B'10000011',B'11111110',B'00001111'     ;BTC=13
00512A 0C87 0CFF 0C0F 06739                         DT      B'10000111',B'11111111',B'00001111'     ;BTC=14
005130 0C87 0CFF 0C0F 06740                         DT      B'10000111',B'11111111',B'00001111'     ;BTC=15
005136 0C87 0CFF 0C0F 06741                         DT      B'10000111',B'11111111',B'00001111'     ;BTC=16
00513C 0C87 0CFF 0C0F 06742                         DT      B'10000111',B'11111111',B'00001111'     ;BTC=17
005142 0C87 0CFF 0C0F 06743                         DT      B'10000111',B'11111111',B'00001111'     ;BTC=18
005148 0C83 0CFE 0C0F 06744                         DT      B'10000011',B'11111110',B'00001111'     ;BTC=19
00514E 0C81 0CFC 0C0F 06745                         DT      B'10000001',B'11111100',B'00001111'     ;BTC=1A
005154 0CC0 0C00 0C1F 06746                         DT      B'11000000',B'00000000',B'00011111'     ;BTC=1B
00515A 0CE0 0C00 0C3F 06747                         DT      B'11100000',B'00000000',B'00111111'     ;BTC=1C
005160 0CF0 0C00 0C7F 06748                         DT      B'11110000',B'00000000',B'01111111'     ;BTC=1D
005166 0CF8 0C00 0CFF 06749                         DT      B'11111000',B'00000000',B'11111111'     ;BTC=1E
00516C 0CFF 0CFF 0CFF 06750                         DT      B'11111111',B'11111111',B'11111111'     ;BTC=1F
MPASM  5.51       20191122_RGMODULE_RTCV1.ASM   11-25-2019  10:52:29         PAGE 133


LOC  OBJECT CODE     LINE SOURCE TEXT
  VALUE

                      06751 
                      06752 
                      06753 
Warning[205]: Found directive in column 1. (ORG)
005200                06754 ORG 0X5200
005200                06755 FONT02H_CAP_SEVEN
                      06756 
005200 0E00           06757         MOVLW   0
005202 6EFB           06758         MOVWF   PCLATU,0
005204 0E52           06759         MOVLW   52
005206 6EFA           06760         MOVWF   PCLATH,0
                      06761 
                      06762         
                      06763 
                      06764         
005208 C146 FFE8      06765                         MOVFF   BTCOUNT,WREG
00520C 90D8           06766                         BCF             STATUS,C
00520E 36E8           06767                         RLCF    WREG
                      06768 
                      06769                 
005210 26F9           06770                         ADDWF   PCL,1,0
005212 0CFF 0CFF 0CFF 06771                         DT      B'11111111',B'11111111',B'11111111'     ;BTC=00
005218 0C80 0C00 0C0F 06772                         DT      B'10000000',B'00000000',B'00001111'     ;BTC=01
00521E 0C80 0C00 0C0F 06773                         DT      B'10000000',B'00000000',B'00001111'     ;BTC=02
005224 0C80 0C00 0C0F 06774                         DT      B'10000000',B'00000000',B'00001111'     ;BTC=03
00522A 0C80 0C00 0C0F 06775                         DT      B'10000000',B'00000000',B'00001111'     ;BTC=04
005230 0CFF 0CFF 0C0F 06776                         DT      B'11111111',B'11111111',B'00001111'     ;BTC=05
005236 0CFF 0CFF 0C0F 06777                         DT      B'11111111',B'11111111',B'00001111'     ;BTC=06
00523C 0CFF 0CFF 0C0F 06778                         DT      B'11111111',B'11111111',B'00001111'     ;BTC=07
005242 0CFF 0CFF 0C0F 06779                         DT      B'11111111',B'11111111',B'00001111'     ;BTC=08
005248 0CFF 0CFF 0C0F 06780                         DT      B'11111111',B'11111111',B'00001111'     ;BTC=09
00524E 0CFF 0CFE 0C1F 06781                         DT      B'11111111',B'11111110',B'00011111'     ;BTC=0A
005254 0CFF 0CFC 0C3F 06782                         DT      B'11111111',B'11111100',B'00111111'     ;BTC=0B
00525A 0CFF 0CF8 0C7F 06783                         DT      B'11111111',B'11111000',B'01111111'     ;BTC=0C
005260 0CFF 0CF0 0CFF 06784                         DT      B'11111111',B'11110000',B'11111111'     ;BTC=0D
005266 0CFF 0CE1 0CFF 06785                         DT      B'11111111',B'11100001',B'11111111'     ;BTC=0E
00526C 0CFF 0CC3 0CFF 06786                         DT      B'11111111',B'11000011',B'11111111'     ;BTC=0F
                      06787         
Warning[205]: Found directive in column 1. (ORG)
005300                06788 ORG 0X5300
005300                06789 FONT02L_CAP_SEVEN
                      06790 
005300 0E00           06791         MOVLW   0
005302 6EFB           06792         MOVWF   PCLATU,0
005304 0E53           06793         MOVLW   53
005306 6EFA           06794         MOVWF   PCLATH,0
                      06795 
                      06796 
                      06797 
                      06798 
005308 C146 FFE8      06799                         MOVFF   BTCOUNT,WREG
00530C 90D8           06800                         BCF             STATUS,C
00530E 36E8           06801                         RLCF    WREG
MPASM  5.51       20191122_RGMODULE_RTCV1.ASM   11-25-2019  10:52:29         PAGE 134


LOC  OBJECT CODE     LINE SOURCE TEXT
  VALUE

                      06802 
                      06803                 
005310 26F9           06804                         ADDWF   PCL,1,0
005312 0CFF 0C87 0CFF 06805                         DT      B'11111111',B'10000111',B'11111111'     ;BTC=10
005318 0CFF 0C87 0CFF 06806                         DT      B'11111111',B'10000111',B'11111111'     ;BTC=11
00531E 0CFF 0C87 0CFF 06807                         DT      B'11111111',B'10000111',B'11111111'     ;BTC=12
005324 0CFF 0C87 0CFF 06808                         DT      B'11111111',B'10000111',B'11111111'     ;BTC=13
00532A 0CFF 0C87 0CFF 06809                         DT      B'11111111',B'10000111',B'11111111'     ;BTC=14
005330 0CFF 0C87 0CFF 06810                         DT      B'11111111',B'10000111',B'11111111'     ;BTC=15
005336 0CFF 0C87 0CFF 06811                         DT      B'11111111',B'10000111',B'11111111'     ;BTC=16
00533C 0CFF 0C87 0CFF 06812                         DT      B'11111111',B'10000111',B'11111111'     ;BTC=17
005342 0CFF 0C87 0CFF 06813                         DT      B'11111111',B'10000111',B'11111111'     ;BTC=18
005348 0CFF 0C87 0CFF 06814                         DT      B'11111111',B'10000111',B'11111111'     ;BTC=19
00534E 0CFF 0C87 0CFF 06815                         DT      B'11111111',B'10000111',B'11111111'     ;BTC=1A
005354 0CFF 0C87 0CFF 06816                         DT      B'11111111',B'10000111',B'11111111'     ;BTC=1B
00535A 0CFF 0C87 0CFF 06817                         DT      B'11111111',B'10000111',B'11111111'     ;BTC=1C
005360 0CFF 0C87 0CFF 06818                         DT      B'11111111',B'10000111',B'11111111'     ;BTC=1D
005366 0CFF 0C87 0CFF 06819                         DT      B'11111111',B'10000111',B'11111111'     ;BTC=1E
00536C 0CFF 0CFF 0CFF 06820                         DT      B'11111111',B'11111111',B'11111111'     ;BTC=1F
                      06821 
                      06822 
                      06823 
Warning[205]: Found directive in column 1. (ORG)
005400                06824 ORG 0X5400
005400                06825 FONT02H_CAP_EIGHT
005400 0E00           06826         MOVLW   0
005402 6EFB           06827         MOVWF   PCLATU,0
005404 0E54           06828         MOVLW   54
005406 6EFA           06829         MOVWF   PCLATH,0
                      06830 
                      06831         
                      06832 
                      06833         
005408 C146 FFE8      06834                         MOVFF   BTCOUNT,WREG
00540C 90D8           06835                         BCF             STATUS,C
00540E 36E8           06836                         RLCF    WREG
                      06837 
                      06838                 
005410 26F9           06839                         ADDWF   PCL,1,0
005412 0CFF 0CFF 0CFF 06840                         DT      B'11111111',B'11111111',B'11111111'     ;BTC=00
005418 0CF8 0C00 0CFF 06841                         DT      B'11111000',B'00000000',B'11111111'     ;BTC=01
00541E 0CF0 0C00 0C7F 06842                         DT      B'11110000',B'00000000',B'01111111'     ;BTC=02
005424 0CE0 0C00 0C3F 06843                         DT      B'11100000',B'00000000',B'00111111'     ;BTC=03
00542A 0CC1 0CFC 0C1F 06844                         DT      B'11000001',B'11111100',B'00011111'     ;BTC=04
005430 0C83 0CFE 0C0F 06845                         DT      B'10000011',B'11111110',B'00001111'     ;BTC=05
005436 0C87 0CFF 0C0F 06846                         DT      B'10000111',B'11111111',B'00001111'     ;BTC=06
00543C 0C87 0CFF 0C0F 06847                         DT      B'10000111',B'11111111',B'00001111'     ;BTC=07
005442 0C87 0CFF 0C0F 06848                         DT      B'10000111',B'11111111',B'00001111'     ;BTC=08
005448 0C87 0CFF 0C0F 06849                         DT      B'10000111',B'11111111',B'00001111'     ;BTC=09
00544E 0C87 0CFF 0C0F 06850                         DT      B'10000111',B'11111111',B'00001111'     ;BTC=0A
005454 0C87 0CFF 0C0F 06851                         DT      B'10000111',B'11111111',B'00001111'     ;BTC=0B
00545A 0C83 0CFE 0C0F 06852                         DT      B'10000011',B'11111110',B'00001111'     ;BTC=0C
005460 0CC1 0CFC 0C1F 06853                         DT      B'11000001',B'11111100',B'00011111'     ;BTC=0D
MPASM  5.51       20191122_RGMODULE_RTCV1.ASM   11-25-2019  10:52:29         PAGE 135


LOC  OBJECT CODE     LINE SOURCE TEXT
  VALUE

005466 0CE0 0C00 0C3F 06854                         DT      B'11100000',B'00000000',B'00111111'     ;BTC=0E
00546C 0CF0 0C00 0C7F 06855                         DT      B'11110000',B'00000000',B'01111111'     ;BTC=0F
                      06856         
Warning[205]: Found directive in column 1. (ORG)
005500                06857 ORG 0X5500
005500                06858 FONT02L_CAP_EIGHT
                      06859 
005500 0E00           06860         MOVLW   0
005502 6EFB           06861         MOVWF   PCLATU,0
005504 0E55           06862         MOVLW   55
005506 6EFA           06863         MOVWF   PCLATH,0
                      06864 
                      06865 
                      06866 
                      06867 
005508 C146 FFE8      06868                         MOVFF   BTCOUNT,WREG
00550C 90D8           06869                         BCF             STATUS,C
00550E 36E8           06870                         RLCF    WREG
                      06871 
                      06872                 
005510 26F9           06873                         ADDWF   PCL,1,0
005512 0CF0 0C00 0C7F 06874                         DT      B'11110000',B'00000000',B'01111111'     ;BTC=10
005518 0CE1 0CFC 0C3F 06875                         DT      B'11100001',B'11111100',B'00111111'     ;BTC=11
00551E 0CC3 0CFE 0C1F 06876                         DT      B'11000011',B'11111110',B'00011111'     ;BTC=12
005524 0C87 0CFF 0C0F 06877                         DT      B'10000111',B'11111111',B'00001111'     ;BTC=13
00552A 0C87 0CFF 0C0F 06878                         DT      B'10000111',B'11111111',B'00001111'     ;BTC=14
005530 0C87 0CFF 0C0F 06879                         DT      B'10000111',B'11111111',B'00001111'     ;BTC=15
005536 0C87 0CFF 0C0F 06880                         DT      B'10000111',B'11111111',B'00001111'     ;BTC=16
00553C 0C87 0CFF 0C0F 06881                         DT      B'10000111',B'11111111',B'00001111'     ;BTC=17
005542 0C87 0CFF 0C0F 06882                         DT      B'10000111',B'11111111',B'00001111'     ;BTC=18
005548 0C87 0CFF 0C0F 06883                         DT      B'10000111',B'11111111',B'00001111'     ;BTC=19
00554E 0C83 0CFE 0C0F 06884                         DT      B'10000011',B'11111110',B'00001111'     ;BTC=1A
005554 0CC1 0CFC 0C1F 06885                         DT      B'11000001',B'11111100',B'00011111'     ;BTC=1B
00555A 0CE0 0C00 0C3F 06886                         DT      B'11100000',B'00000000',B'00111111'     ;BTC=1C
005560 0CF0 0C00 0C7F 06887                         DT      B'11110000',B'00000000',B'01111111'     ;BTC=1D
005566 0CF8 0C00 0CFF 06888                         DT      B'11111000',B'00000000',B'11111111'     ;BTC=1E
00556C 0CFF 0CFF 0CFF 06889                         DT      B'11111111',B'11111111',B'11111111'     ;BTC=1F
                      06890 
                      06891 
Warning[205]: Found directive in column 1. (ORG)
005600                06892 ORG 0X5600
005600                06893 FONT02H_CAP_NINE
005600 0E00           06894         MOVLW   0
005602 6EFB           06895         MOVWF   PCLATU,0
005604 0E56           06896         MOVLW   56
005606 6EFA           06897         MOVWF   PCLATH,0
                      06898 
                      06899         
                      06900 
                      06901         
005608 C146 FFE8      06902                         MOVFF   BTCOUNT,WREG
00560C 90D8           06903                         BCF             STATUS,C
00560E 36E8           06904                         RLCF    WREG
MPASM  5.51       20191122_RGMODULE_RTCV1.ASM   11-25-2019  10:52:29         PAGE 136


LOC  OBJECT CODE     LINE SOURCE TEXT
  VALUE

                      06905 
                      06906                 
005610 26F9           06907                         ADDWF   PCL,1,0
005612 0CFF 0CFF 0CFF 06908                         DT      B'11111111',B'11111111',B'11111111'     ;BTC=00
005618 0CF8 0C00 0CFF 06909                         DT      B'11111000',B'00000000',B'11111111'     ;BTC=01
00561E 0CF0 0C00 0C7F 06910                         DT      B'11110000',B'00000000',B'01111111'     ;BTC=02
005624 0CE0 0C00 0C3F 06911                         DT      B'11100000',B'00000000',B'00111111'     ;BTC=03
00562A 0CC0 0C00 0C1F 06912                         DT      B'11000000',B'00000000',B'00011111'     ;BTC=04
005630 0C81 0CFC 0C0F 06913                         DT      B'10000001',B'11111100',B'00001111'     ;BTC=05
005636 0C83 0CFE 0C0F 06914                         DT      B'10000011',B'11111110',B'00001111'     ;BTC=06
00563C 0C87 0CFF 0C0F 06915                         DT      B'10000111',B'11111111',B'00001111'     ;BTC=07
005642 0C87 0CFF 0C0F 06916                         DT      B'10000111',B'11111111',B'00001111'     ;BTC=08
005648 0C87 0CFF 0C0F 06917                         DT      B'10000111',B'11111111',B'00001111'     ;BTC=09
00564E 0C87 0CFF 0C0F 06918                         DT      B'10000111',B'11111111',B'00001111'     ;BTC=0A
005654 0C87 0CFF 0C0F 06919                         DT      B'10000111',B'11111111',B'00001111'     ;BTC=0B
00565A 0C83 0CFE 0C0F 06920                         DT      B'10000011',B'11111110',B'00001111'     ;BTC=0C
005660 0C81 0CFC 0C0F 06921                         DT      B'10000001',B'11111100',B'00001111'     ;BTC=0D
005666 0CC0 0C00 0C0F 06922                         DT      B'11000000',B'00000000',B'00001111'     ;BTC=0E
00566C 0CE0 0C00 0C0F 06923                         DT      B'11100000',B'00000000',B'00001111'     ;BTC=0F
                      06924         
Warning[205]: Found directive in column 1. (ORG)
005700                06925 ORG 0X5700
005700                06926 FONT02L_CAP_NINE
005700 0E00           06927         MOVLW   0
005702 6EFB           06928         MOVWF   PCLATU,0
005704 0E57           06929         MOVLW   57
005706 6EFA           06930         MOVWF   PCLATH,0
                      06931 
                      06932 
                      06933 
                      06934 
005708 C146 FFE8      06935                         MOVFF   BTCOUNT,WREG
00570C 90D8           06936                         BCF             STATUS,C
00570E 36E8           06937                         RLCF    WREG
                      06938 
                      06939                 
005710 26F9           06940                         ADDWF   PCL,1,0
005712 0CF0 0C01 0C0F 06941                         DT      B'11110000',B'00000001',B'00001111'     ;BTC=10
005718 0CF8 0C03 0C0F 06942                         DT      B'11111000',B'00000011',B'00001111'     ;BTC=11
00571E 0CFF 0CFF 0C0F 06943                         DT      B'11111111',B'11111111',B'00001111'     ;BTC=12
005724 0CFF 0CFF 0C0F 06944                         DT      B'11111111',B'11111111',B'00001111'     ;BTC=13
00572A 0CFF 0CFF 0C0F 06945                         DT      B'11111111',B'11111111',B'00001111'     ;BTC=14
005730 0CFF 0CFF 0C0F 06946                         DT      B'11111111',B'11111111',B'00001111'     ;BTC=15
005736 0CFF 0CFF 0C0F 06947                         DT      B'11111111',B'11111111',B'00001111'     ;BTC=16
00573C 0CFF 0CFF 0C0F 06948                         DT      B'11111111',B'11111111',B'00001111'     ;BTC=17
005742 0CFF 0CFF 0C0F 06949                         DT      B'11111111',B'11111111',B'00001111'     ;BTC=18
005748 0C87 0CFE 0C0F 06950                         DT      B'10000111',B'11111110',B'00001111'     ;BTC=19
00574E 0C83 0CFC 0C0F 06951                         DT      B'10000011',B'11111100',B'00001111'     ;BTC=1A
005754 0C80 0C00 0C1F 06952                         DT      B'10000000',B'00000000',B'00011111'     ;BTC=1B
00575A 0CC0 0C00 0C3F 06953                         DT      B'11000000',B'00000000',B'00111111'     ;BTC=1C
005760 0CE0 0C00 0C7F 06954                         DT      B'11100000',B'00000000',B'01111111'     ;BTC=1D
005766 0CF0 0C00 0CFF 06955                         DT      B'11110000',B'00000000',B'11111111'     ;BTC=1E
00576C 0CFF 0CFF 0CFF 06956                         DT      B'11111111',B'11111111',B'11111111'     ;BTC=1F
MPASM  5.51       20191122_RGMODULE_RTCV1.ASM   11-25-2019  10:52:29         PAGE 137


LOC  OBJECT CODE     LINE SOURCE TEXT
  VALUE

                      06957 
                      06958 
Warning[205]: Found directive in column 1. (ORG)
005800                06959 ORG 0X5800
005800                06960 FONT02H_CAP_ENYE
005800 0E00           06961         MOVLW   0
005802 6EFB           06962         MOVWF   PCLATU,0
005804 0E58           06963         MOVLW   58
005806 6EFA           06964         MOVWF   PCLATH,0
                      06965 
                      06966         
                      06967 
                      06968         
005808 C146 FFE8      06969                         MOVFF   BTCOUNT,WREG
00580C 90D8           06970                         BCF             STATUS,C
00580E 36E8           06971                         RLCF    WREG
                      06972 
                      06973                 
005810 26F9           06974                         ADDWF   PCL,1,0
005812 0CFF 0CFF 0CFF 06975                         DT      B'11111111',B'11111111',B'11111111'     ;BTC=00
005818 0CE0 0C3F 0CBF 06976                         DT      B'11100000',B'00111111',B'10111111'     ;BTC=01
00581E 0CDF 0CC0 0C7F 06977                         DT      B'11011111',B'11000000',B'01111111'     ;BTC=02
005824 0CFF 0CFF 0CFF 06978                         DT      B'11111111',B'11111111',B'11111111'     ;BTC=03
00582A 0C83 0CFF 0C0F 06979                         DT      B'10000011',B'11111111',B'00001111'     ;BTC=04
005830 0C83 0CFF 0C0F 06980                         DT      B'10000011',B'11111111',B'00001111'     ;BTC=05
005836 0C81 0CFF 0C0F 06981                         DT      B'10000001',B'11111111',B'00001111'     ;BTC=06
00583C 0C81 0CFF 0C0F 06982                         DT      B'10000001',B'11111111',B'00001111'     ;BTC=07
005842 0C80 0CFF 0C0F 06983                         DT      B'10000000',B'11111111',B'00001111'     ;BTC=08
005848 0C80 0CFF 0C0F 06984                         DT      B'10000000',B'11111111',B'00001111'     ;BTC=09
00584E 0C80 0C7F 0C0F 06985                         DT      B'10000000',B'01111111',B'00001111'     ;BTC=0A
005854 0C80 0C7F 0C0F 06986                         DT      B'10000000',B'01111111',B'00001111'     ;BTC=0B
00585A 0C84 0C3F 0C0F 06987                         DT      B'10000100',B'00111111',B'00001111'     ;BTC=0C
005860 0C84 0C3F 0C0F 06988                         DT      B'10000100',B'00111111',B'00001111'     ;BTC=0D
005866 0C86 0C1F 0C0F 06989                         DT      B'10000110',B'00011111',B'00001111'     ;BTC=0E
00586C 0C86 0C1F 0C0F 06990                         DT      B'10000110',B'00011111',B'00001111'     ;BTC=0F
                      06991 
                      06992 
005872                06993 FONT02H_LOW_ENYE
005872 0E00           06994         MOVLW   0
005874 6EFB           06995         MOVWF   PCLATU,0
005876 0E58           06996         MOVLW   58
005878 6EFA           06997         MOVWF   PCLATH,0
                      06998 
                      06999         
                      07000 
                      07001         
00587A C146 FFE8      07002                         MOVFF   BTCOUNT,WREG
00587E 90D8           07003                         BCF             STATUS,C
005880 36E8           07004                         RLCF    WREG
                      07005 
                      07006                 
005882 26F9           07007                         ADDWF   PCL,1,0
005884 0CFF 0CFF 0CFF 07008                         DT      B'11111111',B'11111111',B'11111111'     ;BTC=00
MPASM  5.51       20191122_RGMODULE_RTCV1.ASM   11-25-2019  10:52:29         PAGE 138


LOC  OBJECT CODE     LINE SOURCE TEXT
  VALUE

00588A 0CFF 0CFF 0CFF 07009                         DT      B'11111111',B'11111111',B'11111111'     ;BTC=01
005890 0CFF 0CFF 0CFF 07010                         DT      B'11111111',B'11111111',B'11111111'     ;BTC=02
005896 0CFF 0CFF 0CFF 07011                         DT      B'11111111',B'11111111',B'11111111'     ;BTC=03
00589C 0CFF 0CFF 0CFF 07012                         DT      B'11111111',B'11111111',B'11111111'     ;BTC=04
0058A2 0CFF 0CFF 0CFF 07013                         DT      B'11111111',B'11111111',B'11111111'     ;BTC=05
0058A8 0CFF 0CFF 0CFF 07014                         DT      B'11111111',B'11111111',B'11111111'     ;BTC=06
0058AE 0CFF 0CFF 0CFF 07015                         DT      B'11111111',B'11111111',B'11111111'     ;BTC=07
0058B4 0CFF 0CFF 0CFF 07016                         DT      B'11111111',B'11111111',B'11111111'     ;BTC=08
0058BA 0CFF 0CFF 0CFF 07017                         DT      B'11111111',B'11111111',B'11111111'     ;BTC=09
0058C0 0CFF 0CFF 0CFF 07018                         DT      B'11111111',B'11111111',B'11111111'     ;BTC=0A
0058C6 0CE0 0C7E 0CFF 07019                         DT      B'11100000',B'01111110',B'11111111'     ;BTC=0B
0058CC 0CDF 0C81 0CFF 07020                         DT      B'11011111',B'10000001',B'11111111'     ;BTC=0C
0058D2 0CFF 0CFF 0CFF 07021                         DT      B'11111111',B'11111111',B'11111111'     ;BTC=0D
0058D8 0C88 0C01 0CFF 07022                         DT      B'10001000',B'00000001',B'11111111'     ;BTC=0E
0058DE 0C80 0C00 0CFF 07023                         DT      B'10000000',B'00000000',B'11111111'     ;BTC=0F
                      07024         
Warning[205]: Found directive in column 1. (ORG)
005900                07025 ORG 0X5900
005900                07026 FONT02L_CAP_ENYE
005900 0E00           07027         MOVLW   0
005902 6EFB           07028         MOVWF   PCLATU,0
005904 0E59           07029         MOVLW   59
005906 6EFA           07030         MOVWF   PCLATH,0
                      07031 
                      07032 
                      07033 
                      07034 
005908 C146 FFE8      07035                         MOVFF   BTCOUNT,WREG
00590C 90D8           07036                         BCF             STATUS,C
00590E 36E8           07037                         RLCF    WREG
                      07038 
                      07039                 
005910 26F9           07040                         ADDWF   PCL,1,0
005912 0C87 0C0F 0C0F 07041                         DT      B'10000111',B'00001111',B'00001111'     ;BTC=10
005918 0C87 0C0F 0C0F 07042                         DT      B'10000111',B'00001111',B'00001111'     ;BTC=11
00591E 0C87 0C87 0C0F 07043                         DT      B'10000111',B'10000111',B'00001111'     ;BTC=12
005924 0C87 0C87 0C0F 07044                         DT      B'10000111',B'10000111',B'00001111'     ;BTC=13
00592A 0C87 0CC3 0C0F 07045                         DT      B'10000111',B'11000011',B'00001111'     ;BTC=14
005930 0C87 0CC3 0C0F 07046                         DT      B'10000111',B'11000011',B'00001111'     ;BTC=15
005936 0C87 0CE1 0C0F 07047                         DT      B'10000111',B'11100001',B'00001111'     ;BTC=16
00593C 0C87 0CE1 0C0F 07048                         DT      B'10000111',B'11100001',B'00001111'     ;BTC=17
005942 0C87 0CF0 0C0F 07049                         DT      B'10000111',B'11110000',B'00001111'     ;BTC=18
005948 0C87 0CF0 0C0F 07050                         DT      B'10000111',B'11110000',B'00001111'     ;BTC=19
00594E 0C87 0CF8 0C0F 07051                         DT      B'10000111',B'11111000',B'00001111'     ;BTC=1A
005954 0C87 0CFC 0C0F 07052                         DT      B'10000111',B'11111100',B'00001111'     ;BTC=1B
00595A 0C87 0CFC 0C0F 07053                         DT      B'10000111',B'11111100',B'00001111'     ;BTC=1C
005960 0C87 0CFE 0C0F 07054                         DT      B'10000111',B'11111110',B'00001111'     ;BTC=1D
005966 0C87 0CFE 0C0F 07055                         DT      B'10000111',B'11111110',B'00001111'     ;BTC=1E
00596C 0CFF 0CFF 0CFF 07056                         DT      B'11111111',B'11111111',B'11111111'     ;BTC=1F
                      07057 
                      07058 
005972                07059 FONT02L_LOW_ENYE
005972 0E00           07060         MOVLW   0
MPASM  5.51       20191122_RGMODULE_RTCV1.ASM   11-25-2019  10:52:29         PAGE 139


LOC  OBJECT CODE     LINE SOURCE TEXT
  VALUE

005974 6EFB           07061         MOVWF   PCLATU,0
005976 0E59           07062         MOVLW   59
005978 6EFA           07063         MOVWF   PCLATH,0
                      07064 
                      07065 
                      07066 
                      07067 
00597A C146 FFE8      07068                         MOVFF   BTCOUNT,WREG
00597E 90D8           07069                         BCF             STATUS,C
005980 36E8           07070                         RLCF    WREG
                      07071 
                      07072                 
005982 26F9           07073                         ADDWF   PCL,1,0
005984 0C80 0C00 0C7F 07074                         DT      B'10000000',B'00000000',B'01111111'     ;BTC=10
00598A 0C87 0CF8 0C7F 07075                         DT      B'10000111',B'11111000',B'01111111'     ;BTC=11
005990 0C8F 0CFC 0C7F 07076                         DT      B'10001111',B'11111100',B'01111111'     ;BTC=12
005996 0C8F 0CFC 0C7F 07077                         DT      B'10001111',B'11111100',B'01111111'     ;BTC=13
00599C 0C8F 0CFC 0C7F 07078                         DT      B'10001111',B'11111100',B'01111111'     ;BTC=14
0059A2 0C8F 0CFC 0C7F 07079                         DT      B'10001111',B'11111100',B'01111111'     ;BTC=15
0059A8 0C8F 0CFC 0C7F 07080                         DT      B'10001111',B'11111100',B'01111111'     ;BTC=16
0059AE 0C8F 0CFC 0C7F 07081                         DT      B'10001111',B'11111100',B'01111111'     ;BTC=17
0059B4 0C8F 0CFC 0C7F 07082                         DT      B'10001111',B'11111100',B'01111111'     ;BTC=18
0059BA 0C8F 0CFC 0C7F 07083                         DT      B'10001111',B'11111100',B'01111111'     ;BTC=19
0059C0 0C8F 0CFC 0C7F 07084                         DT      B'10001111',B'11111100',B'01111111'     ;BTC=1A
0059C6 0C8F 0CFC 0C7F 07085                         DT      B'10001111',B'11111100',B'01111111'     ;BTC=1B
0059CC 0C8F 0CFC 0C7F 07086                         DT      B'10001111',B'11111100',B'01111111'     ;BTC=1C
0059D2 0C8F 0CFC 0C7F 07087                         DT      B'10001111',B'11111100',B'01111111'     ;BTC=1D
0059D8 0C8F 0CFC 0C7F 07088                         DT      B'10001111',B'11111100',B'01111111'     ;BTC=1E
0059DE 0CFF 0CFF 0CFF 07089                         DT      B'11111111',B'11111111',B'11111111'     ;BTC=1F
                      07090 
                      07091 
                      07092 
                      07093 
Warning[205]: Found directive in column 1. (ORG)
005A00                07094 ORG 0X5A00
005A00                07095 FONT02H_CAP_DASH
005A00 0E00           07096         MOVLW   0
005A02 6EFB           07097         MOVWF   PCLATU,0
005A04 0E5A           07098         MOVLW   5A
005A06 6EFA           07099         MOVWF   PCLATH,0
                      07100 
                      07101         
                      07102 
                      07103         
005A08 C146 FFE8      07104                         MOVFF   BTCOUNT,WREG
005A0C 90D8           07105                         BCF             STATUS,C
005A0E 36E8           07106                         RLCF    WREG
                      07107 
                      07108                 
005A10 26F9           07109                         ADDWF   PCL,1,0
005A12 0CFF 0CFF 0CFF 07110                         DT      B'11111111',B'11111111',B'11111111'     ;BTC=00
005A18 0CFF 0CFF 0CFF 07111                         DT      B'11111111',B'11111111',B'11111111'     ;BTC=01
005A1E 0CFF 0CFF 0CFF 07112                         DT      B'11111111',B'11111111',B'11111111'     ;BTC=02
MPASM  5.51       20191122_RGMODULE_RTCV1.ASM   11-25-2019  10:52:29         PAGE 140


LOC  OBJECT CODE     LINE SOURCE TEXT
  VALUE

005A24 0CFF 0CFF 0CFF 07113                         DT      B'11111111',B'11111111',B'11111111'     ;BTC=03
005A2A 0CFF 0CFF 0CFF 07114                         DT      B'11111111',B'11111111',B'11111111'     ;BTC=04
005A30 0CFF 0CFF 0CFF 07115                         DT      B'11111111',B'11111111',B'11111111'     ;BTC=05
005A36 0CFF 0CFF 0CFF 07116                         DT      B'11111111',B'11111111',B'11111111'     ;BTC=06
005A3C 0CFF 0CFF 0CFF 07117                         DT      B'11111111',B'11111111',B'11111111'     ;BTC=07
005A42 0CFF 0CFF 0CFF 07118                         DT      B'11111111',B'11111111',B'11111111'     ;BTC=08
005A48 0CFF 0CFF 0CFF 07119                         DT      B'11111111',B'11111111',B'11111111'     ;BTC=09
005A4E 0CFF 0CFF 0CFF 07120                         DT      B'11111111',B'11111111',B'11111111'     ;BTC=0A
005A54 0CFF 0CFF 0CFF 07121                         DT      B'11111111',B'11111111',B'11111111'     ;BTC=0B
005A5A 0CFF 0CFF 0CFF 07122                         DT      B'11111111',B'11111111',B'11111111'     ;BTC=0C
005A60 0C80 0C0F 0CFF 07123                         DT      B'10000000',B'00001111',B'11111111'     ;BTC=0D
005A66 0C80 0C0F 0CFF 07124                         DT      B'10000000',B'00001111',B'11111111'     ;BTC=0E
005A6C 0C80 0C0F 0CFF 07125                         DT      B'10000000',B'00001111',B'11111111'     ;BTC=0F
                      07126 
                      07127 
005A72                07128 FONT02H_LOW_DASH
005A72 0E00           07129         MOVLW   0
005A74 6EFB           07130         MOVWF   PCLATU,0
005A76 0E5A           07131         MOVLW   5A
005A78 6EFA           07132         MOVWF   PCLATH,0
                      07133 
                      07134         
                      07135 
                      07136         
005A7A C146 FFE8      07137                         MOVFF   BTCOUNT,WREG
005A7E 90D8           07138                         BCF             STATUS,C
005A80 36E8           07139                         RLCF    WREG
                      07140 
                      07141                 
005A82 26F9           07142                         ADDWF   PCL,1,0
005A84 0CFF 0CFF 0CFF 07143                         DT      B'11111111',B'11111111',B'11111111'     ;BTC=00
005A8A 0CFF 0CFF 0CFF 07144                         DT      B'11111111',B'11111111',B'11111111'     ;BTC=01
005A90 0CFF 0CFF 0CFF 07145                         DT      B'11111111',B'11111111',B'11111111'     ;BTC=02
005A96 0CFF 0CFF 0CFF 07146                         DT      B'11111111',B'11111111',B'11111111'     ;BTC=03
005A9C 0CFF 0CFF 0CFF 07147                         DT      B'11111111',B'11111111',B'11111111'     ;BTC=04
005AA2 0CFF 0CFF 0CFF 07148                         DT      B'11111111',B'11111111',B'11111111'     ;BTC=05
005AA8 0CFF 0CFF 0CFF 07149                         DT      B'11111111',B'11111111',B'11111111'     ;BTC=06
005AAE 0CFF 0CFF 0CFF 07150                         DT      B'11111111',B'11111111',B'11111111'     ;BTC=07
005AB4 0CFF 0CFF 0CFF 07151                         DT      B'11111111',B'11111111',B'11111111'     ;BTC=08
005ABA 0CFF 0CFF 0CFF 07152                         DT      B'11111111',B'11111111',B'11111111'     ;BTC=09
005AC0 0CFF 0CFF 0CFF 07153                         DT      B'11111111',B'11111111',B'11111111'     ;BTC=0A
005AC6 0CFF 0CFF 0CFF 07154                         DT      B'11111111',B'11111111',B'11111111'     ;BTC=0B
005ACC 0CFF 0CFF 0CFF 07155                         DT      B'11111111',B'11111111',B'11111111'     ;BTC=0C
005AD2 0CFF 0CFF 0CFF 07156                         DT      B'11111111',B'11111111',B'11111111'     ;BTC=0D
005AD8 0CFF 0CFF 0CFF 07157                         DT      B'11111111',B'11111111',B'11111111'     ;BTC=0E
005ADE 0C80 0CFF 0CFF 07158                         DT      B'10000000',B'11111111',B'11111111'     ;BTC=0F
                      07159         
Warning[205]: Found directive in column 1. (ORG)
005B00                07160 ORG 0X5B00
005B00                07161 FONT02L_CAP_DASH
005B00 0E00           07162         MOVLW   0
005B02 6EFB           07163         MOVWF   PCLATU,0
005B04 0E5B           07164         MOVLW   5B
MPASM  5.51       20191122_RGMODULE_RTCV1.ASM   11-25-2019  10:52:29         PAGE 141


LOC  OBJECT CODE     LINE SOURCE TEXT
  VALUE

005B06 6EFA           07165         MOVWF   PCLATH,0
                      07166 
                      07167 
                      07168 
                      07169 
005B08 C146 FFE8      07170                         MOVFF   BTCOUNT,WREG
005B0C 90D8           07171                         BCF             STATUS,C
005B0E 36E8           07172                         RLCF    WREG
                      07173 
                      07174                 
005B10 26F9           07175                         ADDWF   PCL,1,0
005B12 0C80 0C0F 0CFF 07176                         DT      B'10000000',B'00001111',B'11111111'     ;BTC=10
005B18 0C80 0C0F 0CFF 07177                         DT      B'10000000',B'00001111',B'11111111'     ;BTC=11
005B1E 0CFF 0CFF 0CFF 07178                         DT      B'11111111',B'11111111',B'11111111'     ;BTC=12
005B24 0CFF 0CFF 0CFF 07179                         DT      B'11111111',B'11111111',B'11111111'     ;BTC=13
005B2A 0CFF 0CFF 0CFF 07180                         DT      B'11111111',B'11111111',B'11111111'     ;BTC=14
005B30 0CFF 0CFF 0CFF 07181                         DT      B'11111111',B'11111111',B'11111111'     ;BTC=15
005B36 0CFF 0CFF 0CFF 07182                         DT      B'11111111',B'11111111',B'11111111'     ;BTC=16
005B3C 0CFF 0CFF 0CFF 07183                         DT      B'11111111',B'11111111',B'11111111'     ;BTC=17
005B42 0CFF 0CFF 0CFF 07184                         DT      B'11111111',B'11111111',B'11111111'     ;BTC=18
005B48 0CFF 0CFF 0CFF 07185                         DT      B'11111111',B'11111111',B'11111111'     ;BTC=19
005B4E 0CFF 0CFF 0CFF 07186                         DT      B'11111111',B'11111111',B'11111111'     ;BTC=1A
005B54 0CFF 0CFF 0CFF 07187                         DT      B'11111111',B'11111111',B'11111111'     ;BTC=1B
005B5A 0CFF 0CFF 0CFF 07188                         DT      B'11111111',B'11111111',B'11111111'     ;BTC=1C
005B60 0CFF 0CFF 0CFF 07189                         DT      B'11111111',B'11111111',B'11111111'     ;BTC=1D
005B66 0CFF 0CFF 0CFF 07190                         DT      B'11111111',B'11111111',B'11111111'     ;BTC=1E
005B6C 0CFF 0CFF 0CFF 07191                         DT      B'11111111',B'11111111',B'11111111'     ;BTC=1F
                      07192 
005B72                07193 FONT02L_LOW_DASH
005B72 0E00           07194         MOVLW   0
005B74 6EFB           07195         MOVWF   PCLATU,0
005B76 0E5B           07196         MOVLW   5B
005B78 6EFA           07197         MOVWF   PCLATH,0
                      07198 
                      07199 
                      07200 
                      07201 
005B7A C146 FFE8      07202                         MOVFF   BTCOUNT,WREG
005B7E 90D8           07203                         BCF             STATUS,C
005B80 36E8           07204                         RLCF    WREG
                      07205 
                      07206                 
005B82 26F9           07207                         ADDWF   PCL,1,0
005B84 0C80 0CFF 0CFF 07208                         DT      B'10000000',B'11111111',B'11111111'     ;BTC=10
005B8A 0C80 0CFF 0CFF 07209                         DT      B'10000000',B'11111111',B'11111111'     ;BTC=11
005B90 0CFF 0CFF 0CFF 07210                         DT      B'11111111',B'11111111',B'11111111'     ;BTC=12
005B96 0CFF 0CFF 0CFF 07211                         DT      B'11111111',B'11111111',B'11111111'     ;BTC=13
005B9C 0CFF 0CFF 0CFF 07212                         DT      B'11111111',B'11111111',B'11111111'     ;BTC=14
005BA2 0CFF 0CFF 0CFF 07213                         DT      B'11111111',B'11111111',B'11111111'     ;BTC=15
005BA8 0CFF 0CFF 0CFF 07214                         DT      B'11111111',B'11111111',B'11111111'     ;BTC=16
005BAE 0CFF 0CFF 0CFF 07215                         DT      B'11111111',B'11111111',B'11111111'     ;BTC=17
005BB4 0CFF 0CFF 0CFF 07216                         DT      B'11111111',B'11111111',B'11111111'     ;BTC=18
005BBA 0CFF 0CFF 0CFF 07217                         DT      B'11111111',B'11111111',B'11111111'     ;BTC=19
MPASM  5.51       20191122_RGMODULE_RTCV1.ASM   11-25-2019  10:52:29         PAGE 142


LOC  OBJECT CODE     LINE SOURCE TEXT
  VALUE

005BC0 0CFF 0CFF 0CFF 07218                         DT      B'11111111',B'11111111',B'11111111'     ;BTC=1A
005BC6 0CFF 0CFF 0CFF 07219                         DT      B'11111111',B'11111111',B'11111111'     ;BTC=1B
005BCC 0CFF 0CFF 0CFF 07220                         DT      B'11111111',B'11111111',B'11111111'     ;BTC=1C
005BD2 0CFF 0CFF 0CFF 07221                         DT      B'11111111',B'11111111',B'11111111'     ;BTC=1D
005BD8 0CFF 0CFF 0CFF 07222                         DT      B'11111111',B'11111111',B'11111111'     ;BTC=1E
005BDE 0CFF 0CFF 0CFF 07223                         DT      B'11111111',B'11111111',B'11111111'     ;BTC=1F
                      07224 
                      07225 
                      07226 
                      07227 
Warning[205]: Found directive in column 1. (ORG)
005C00                07228 ORG 0X5C00
005C00                07229 FONT02H_CAP_COLON
005C00 0E00           07230         MOVLW   0
005C02 6EFB           07231         MOVWF   PCLATU,0
005C04 0E5C           07232         MOVLW   5C
005C06 6EFA           07233         MOVWF   PCLATH,0
                      07234 
                      07235         
                      07236 
                      07237         
005C08 C146 FFE8      07238                         MOVFF   BTCOUNT,WREG
005C0C 90D8           07239                         BCF             STATUS,C
005C0E 36E8           07240                         RLCF    WREG
                      07241 
                      07242                 
005C10 26F9           07243                         ADDWF   PCL,1,0
005C12 0CFF 0CFF 0CFF 07244                         DT      B'11111111',B'11111111',B'11111111'     ;BTC=00
005C18 0CFF 0CFF 0CFF 07245                         DT      B'11111111',B'11111111',B'11111111'     ;BTC=01
005C1E 0CFF 0CFF 0CFF 07246                         DT      B'11111111',B'11111111',B'11111111'     ;BTC=02
005C24 0CFF 0CFF 0CFF 07247                         DT      B'11111111',B'11111111',B'11111111'     ;BTC=03
005C2A 0CFF 0CFF 0CFF 07248                         DT      B'11111111',B'11111111',B'11111111'     ;BTC=04
005C30 0CFF 0CFF 0CFF 07249                         DT      B'11111111',B'11111111',B'11111111'     ;BTC=05
005C36 0CE3 0CFF 0CFF 07250                         DT      B'11100011',B'11111111',B'11111111'     ;BTC=06
005C3C 0CC1 0CFF 0CFF 07251                         DT      B'11000001',B'11111111',B'11111111'     ;BTC=07
005C42 0C80 0CFF 0CFF 07252                         DT      B'10000000',B'11111111',B'11111111'     ;BTC=08
005C48 0C80 0CFF 0CFF 07253                         DT      B'10000000',B'11111111',B'11111111'     ;BTC=09
005C4E 0C80 0CFF 0CFF 07254                         DT      B'10000000',B'11111111',B'11111111'     ;BTC=0A
005C54 0CC1 0CFF 0CFF 07255                         DT      B'11000001',B'11111111',B'11111111'     ;BTC=0B
005C5A 0CE3 0CFF 0CFF 07256                         DT      B'11100011',B'11111111',B'11111111'     ;BTC=0C
005C60 0CFF 0CFF 0CFF 07257                         DT      B'11111111',B'11111111',B'11111111'     ;BTC=0D
005C66 0CFF 0CFF 0CFF 07258                         DT      B'11111111',B'11111111',B'11111111'     ;BTC=0E
005C6C 0CFF 0CFF 0CFF 07259                         DT      B'11111111',B'11111111',B'11111111'     ;BTC=0F
                      07260 
005C72                07261 FONT02H_LOW_COLON
005C72 0E00           07262         MOVLW   0
005C74 6EFB           07263         MOVWF   PCLATU,0
005C76 0E5C           07264         MOVLW   5C
005C78 6EFA           07265         MOVWF   PCLATH,0
                      07266 
                      07267         
                      07268 
                      07269         
MPASM  5.51       20191122_RGMODULE_RTCV1.ASM   11-25-2019  10:52:29         PAGE 143


LOC  OBJECT CODE     LINE SOURCE TEXT
  VALUE

005C7A C146 FFE8      07270                         MOVFF   BTCOUNT,WREG
005C7E 90D8           07271                         BCF             STATUS,C
005C80 36E8           07272                         RLCF    WREG
                      07273 
                      07274                 
005C82 26F9           07275                         ADDWF   PCL,1,0
005C84 0CFF 0CFF 0CFF 07276                         DT      B'11111111',B'11111111',B'11111111'     ;BTC=00
005C8A 0CFF 0CFF 0CFF 07277                         DT      B'11111111',B'11111111',B'11111111'     ;BTC=01
005C90 0C9F 0CFF 0CFF 07278                         DT      B'10011111',B'11111111',B'11111111'     ;BTC=02
005C96 0C0F 0CFF 0CFF 07279                         DT      B'00001111',B'11111111',B'11111111'     ;BTC=03
005C9C 0C0F 0CFF 0CFF 07280                         DT      B'00001111',B'11111111',B'11111111'     ;BTC=04
005CA2 0C9F 0CFF 0CFF 07281                         DT      B'10011111',B'11111111',B'11111111'     ;BTC=05
005CA8 0CFF 0CFF 0CFF 07282                         DT      B'11111111',B'11111111',B'11111111'     ;BTC=06
005CAE 0CFF 0CFF 0CFF 07283                         DT      B'11111111',B'11111111',B'11111111'     ;BTC=07
005CB4 0CFF 0CFF 0CFF 07284                         DT      B'11111111',B'11111111',B'11111111'     ;BTC=08
005CBA 0CFF 0CFF 0CFF 07285                         DT      B'11111111',B'11111111',B'11111111'     ;BTC=09
005CC0 0C9F 0CFF 0CFF 07286                         DT      B'10011111',B'11111111',B'11111111'     ;BTC=0A
005CC6 0C0F 0CFF 0CFF 07287                         DT      B'00001111',B'11111111',B'11111111'     ;BTC=0B
005CCC 0C0F 0CFF 0CFF 07288                         DT      B'00001111',B'11111111',B'11111111'     ;BTC=0C
005CD2 0C9F 0CFF 0CFF 07289                         DT      B'10011111',B'11111111',B'11111111'     ;BTC=0D
005CD8 0CFF 0CFF 0CFF 07290                         DT      B'11111111',B'11111111',B'11111111'     ;BTC=0E
005CDE 0CFF 0CFF 0CFF 07291                         DT      B'11111111',B'11111111',B'11111111'     ;BTC=0F
                      07292         
Warning[205]: Found directive in column 1. (ORG)
005D00                07293 ORG 0X5D00
005D00                07294 FONT02L_CAP_COLON
005D00 0E00           07295         MOVLW   0
005D02 6EFB           07296         MOVWF   PCLATU,0
005D04 0E5D           07297         MOVLW   5D
005D06 6EFA           07298         MOVWF   PCLATH,0
                      07299 
                      07300 
                      07301 
                      07302 
005D08 C146 FFE8      07303                         MOVFF   BTCOUNT,WREG
005D0C 90D8           07304                         BCF             STATUS,C
005D0E 36E8           07305                         RLCF    WREG
                      07306 
                      07307                 
005D10 26F9           07308                         ADDWF   PCL,1,0
005D12 0CFF 0CFF 0CFF 07309                         DT      B'11111111',B'11111111',B'11111111'     ;BTC=10
005D18 0CFF 0CFF 0CFF 07310                         DT      B'11111111',B'11111111',B'11111111'     ;BTC=11
005D1E 0CFF 0CFF 0CFF 07311                         DT      B'11111111',B'11111111',B'11111111'     ;BTC=12
005D24 0CE3 0CFF 0CFF 07312                         DT      B'11100011',B'11111111',B'11111111'     ;BTC=13
005D2A 0CC1 0CFF 0CFF 07313                         DT      B'11000001',B'11111111',B'11111111'     ;BTC=14
005D30 0C80 0CFF 0CFF 07314                         DT      B'10000000',B'11111111',B'11111111'     ;BTC=15
005D36 0C80 0CFF 0CFF 07315                         DT      B'10000000',B'11111111',B'11111111'     ;BTC=16
005D3C 0C80 0CFF 0CFF 07316                         DT      B'10000000',B'11111111',B'11111111'     ;BTC=17
005D42 0CC1 0CFF 0CFF 07317                         DT      B'11000001',B'11111111',B'11111111'     ;BTC=18
005D48 0CE3 0CFF 0CFF 07318                         DT      B'11100011',B'11111111',B'11111111'     ;BTC=19
005D4E 0CFF 0CFF 0CFF 07319                         DT      B'11111111',B'11111111',B'11111111'     ;BTC=1A
005D54 0CFF 0CFF 0CFF 07320                         DT      B'11111111',B'11111111',B'11111111'     ;BTC=1B
005D5A 0CFF 0CFF 0CFF 07321                         DT      B'11111111',B'11111111',B'11111111'     ;BTC=1C
MPASM  5.51       20191122_RGMODULE_RTCV1.ASM   11-25-2019  10:52:29         PAGE 144


LOC  OBJECT CODE     LINE SOURCE TEXT
  VALUE

005D60 0CFF 0CFF 0CFF 07322                         DT      B'11111111',B'11111111',B'11111111'     ;BTC=1D
005D66 0CFF 0CFF 0CFF 07323                         DT      B'11111111',B'11111111',B'11111111'     ;BTC=1E
005D6C 0CFF 0CFF 0CFF 07324                         DT      B'11111111',B'11111111',B'11111111'     ;BTC=1F
                      07325 
                      07326 
005D72                07327 FONT02L_LOW_COLON
005D72 0E00           07328         MOVLW   0
005D74 6EFB           07329         MOVWF   PCLATU,0
005D76 0E5D           07330         MOVLW   5D
005D78 6EFA           07331         MOVWF   PCLATH,0
                      07332 
                      07333 
                      07334 
                      07335 
005D7A C146 FFE8      07336                         MOVFF   BTCOUNT,WREG
005D7E 90D8           07337                         BCF             STATUS,C
005D80 36E8           07338                         RLCF    WREG
                      07339 
                      07340                 
005D82 26F9           07341                         ADDWF   PCL,1,0
005D84 0CFF 0CFF 0CFF 07342                         DT      B'11111111',B'11111111',B'11111111'     ;BTC=10
005D8A 0CFF 0CFF 0CFF 07343                         DT      B'11111111',B'11111111',B'11111111'     ;BTC=11
005D90 0CFF 0CFF 0CFF 07344                         DT      B'11111111',B'11111111',B'11111111'     ;BTC=12
005D96 0CFF 0CFF 0CFF 07345                         DT      B'11111111',B'11111111',B'11111111'     ;BTC=13
005D9C 0CFF 0CFF 0CFF 07346                         DT      B'11111111',B'11111111',B'11111111'     ;BTC=14
005DA2 0CFF 0CFF 0CFF 07347                         DT      B'11111111',B'11111111',B'11111111'     ;BTC=15
005DA8 0CFF 0CFF 0CFF 07348                         DT      B'11111111',B'11111111',B'11111111'     ;BTC=16
005DAE 0CFF 0CFF 0CFF 07349                         DT      B'11111111',B'11111111',B'11111111'     ;BTC=17
005DB4 0CFF 0CFF 0CFF 07350                         DT      B'11111111',B'11111111',B'11111111'     ;BTC=18
005DBA 0CFF 0CFF 0CFF 07351                         DT      B'11111111',B'11111111',B'11111111'     ;BTC=19
005DC0 0CFF 0CFF 0CFF 07352                         DT      B'11111111',B'11111111',B'11111111'     ;BTC=1A
005DC6 0CFF 0CFF 0CFF 07353                         DT      B'11111111',B'11111111',B'11111111'     ;BTC=1B
005DCC 0CFF 0CFF 0CFF 07354                         DT      B'11111111',B'11111111',B'11111111'     ;BTC=1C
005DD2 0CFF 0CFF 0CFF 07355                         DT      B'11111111',B'11111111',B'11111111'     ;BTC=1D
005DD8 0CFF 0CFF 0CFF 07356                         DT      B'11111111',B'11111111',B'11111111'     ;BTC=1E
005DDE 0CFF 0CFF 0CFF 07357                         DT      B'11111111',B'11111111',B'11111111'     ;BTC=1F
                      07358 
                      07359 
Warning[205]: Found directive in column 1. (ORG)
005E00                07360 ORG 0X5E00
005E00                07361 FONT02H_CAP_SEMICOLON
005E00 0E00           07362         MOVLW   0
005E02 6EFB           07363         MOVWF   PCLATU,0
005E04 0E5E           07364         MOVLW   5E
005E06 6EFA           07365         MOVWF   PCLATH,0
                      07366 
                      07367         
                      07368 
                      07369         
005E08 C146 FFE8      07370                         MOVFF   BTCOUNT,WREG
005E0C 90D8           07371                         BCF             STATUS,C
005E0E 36E8           07372                         RLCF    WREG
                      07373 
MPASM  5.51       20191122_RGMODULE_RTCV1.ASM   11-25-2019  10:52:29         PAGE 145


LOC  OBJECT CODE     LINE SOURCE TEXT
  VALUE

                      07374                 
005E10 26F9           07375                         ADDWF   PCL,1,0
005E12 0CFF 0CFF 0CFF 07376                         DT      B'11111111',B'11111111',B'11111111'     ;BTC=00
005E18 0CFF 0CFF 0CFF 07377                         DT      B'11111111',B'11111111',B'11111111'     ;BTC=01
005E1E 0CFF 0CFF 0CFF 07378                         DT      B'11111111',B'11111111',B'11111111'     ;BTC=02
005E24 0CFF 0CFF 0CFF 07379                         DT      B'11111111',B'11111111',B'11111111'     ;BTC=03
005E2A 0CFF 0CFF 0CFF 07380                         DT      B'11111111',B'11111111',B'11111111'     ;BTC=04
005E30 0CFF 0CFF 0CFF 07381                         DT      B'11111111',B'11111111',B'11111111'     ;BTC=05
005E36 0CE3 0CFF 0CFF 07382                         DT      B'11100011',B'11111111',B'11111111'     ;BTC=06
005E3C 0CC1 0CFF 0CFF 07383                         DT      B'11000001',B'11111111',B'11111111'     ;BTC=07
005E42 0C80 0CFF 0CFF 07384                         DT      B'10000000',B'11111111',B'11111111'     ;BTC=08
005E48 0C80 0CFF 0CFF 07385                         DT      B'10000000',B'11111111',B'11111111'     ;BTC=09
005E4E 0C80 0CFF 0CFF 07386                         DT      B'10000000',B'11111111',B'11111111'     ;BTC=0A
005E54 0CC1 0CFF 0CFF 07387                         DT      B'11000001',B'11111111',B'11111111'     ;BTC=0B
005E5A 0CE3 0CFF 0CFF 07388                         DT      B'11100011',B'11111111',B'11111111'     ;BTC=0C
005E60 0CFF 0CFF 0CFF 07389                         DT      B'11111111',B'11111111',B'11111111'     ;BTC=0D
005E66 0CFF 0CFF 0CFF 07390                         DT      B'11111111',B'11111111',B'11111111'     ;BTC=0E
005E6C 0CFF 0CFF 0CFF 07391                         DT      B'11111111',B'11111111',B'11111111'     ;BTC=0F
                      07392 
                      07393 
005E72                07394 FONT02H_LOW_SEMICOLON
005E72 0E00           07395         MOVLW   0
005E74 6EFB           07396         MOVWF   PCLATU,0
005E76 0E5E           07397         MOVLW   5E
005E78 6EFA           07398         MOVWF   PCLATH,0
                      07399 
                      07400         
                      07401 
                      07402         
005E7A C146 FFE8      07403                         MOVFF   BTCOUNT,WREG
005E7E 90D8           07404                         BCF             STATUS,C
005E80 36E8           07405                         RLCF    WREG
                      07406 
                      07407                 
005E82 26F9           07408                         ADDWF   PCL,1,0
005E84 0CFF 0CFF 0CFF 07409                         DT      B'11111111',B'11111111',B'11111111'     ;BTC=00
005E8A 0CFF 0CFF 0CFF 07410                         DT      B'11111111',B'11111111',B'11111111'     ;BTC=01
005E90 0CFF 0CFF 0CFF 07411                         DT      B'11111111',B'11111111',B'11111111'     ;BTC=02
005E96 0CFF 0CFF 0CFF 07412                         DT      B'11111111',B'11111111',B'11111111'     ;BTC=03
005E9C 0CFF 0CFF 0CFF 07413                         DT      B'11111111',B'11111111',B'11111111'     ;BTC=04
005EA2 0CFF 0CFF 0CFF 07414                         DT      B'11111111',B'11111111',B'11111111'     ;BTC=05
005EA8 0CFF 0CFF 0CFF 07415                         DT      B'11111111',B'11111111',B'11111111'     ;BTC=06
005EAE 0CC7 0CFF 0CFF 07416                         DT      B'11000111',B'11111111',B'11111111'     ;BTC=07
005EB4 0C83 0CFF 0CFF 07417                         DT      B'10000011',B'11111111',B'11111111'     ;BTC=08
005EBA 0C83 0CFF 0CFF 07418                         DT      B'10000011',B'11111111',B'11111111'     ;BTC=09
005EC0 0C83 0CFF 0CFF 07419                         DT      B'10000011',B'11111111',B'11111111'     ;BTC=0A
005EC6 0CC7 0CFF 0CFF 07420                         DT      B'11000111',B'11111111',B'11111111'     ;BTC=0B
005ECC 0CFF 0CFF 0CFF 07421                         DT      B'11111111',B'11111111',B'11111111'     ;BTC=0C
005ED2 0CFF 0CFF 0CFF 07422                         DT      B'11111111',B'11111111',B'11111111'     ;BTC=0D
005ED8 0CFF 0CFF 0CFF 07423                         DT      B'11111111',B'11111111',B'11111111'     ;BTC=0E
005EDE 0CFF 0CFF 0CFF 07424                         DT      B'11111111',B'11111111',B'11111111'     ;BTC=0F
                      07425 
                      07426         
MPASM  5.51       20191122_RGMODULE_RTCV1.ASM   11-25-2019  10:52:29         PAGE 146


LOC  OBJECT CODE     LINE SOURCE TEXT
  VALUE

Warning[205]: Found directive in column 1. (ORG)
005F00                07427 ORG 0X5F00
005F00                07428 FONT02L_CAP_SEMICOLON
005F00 0E00           07429         MOVLW   0
005F02 6EFB           07430         MOVWF   PCLATU,0
005F04 0E5F           07431         MOVLW   5F
005F06 6EFA           07432         MOVWF   PCLATH,0
                      07433 
                      07434 
                      07435 
                      07436 
005F08 C146 FFE8      07437                         MOVFF   BTCOUNT,WREG
005F0C 90D8           07438                         BCF             STATUS,C
005F0E 36E8           07439                         RLCF    WREG
                      07440 
                      07441                 
005F10 26F9           07442                         ADDWF   PCL,1,0
005F12 0CFF 0CFF 0CFF 07443                         DT      B'11111111',B'11111111',B'11111111'     ;BTC=10
005F18 0CFF 0CFF 0CFF 07444                         DT      B'11111111',B'11111111',B'11111111'     ;BTC=11
005F1E 0CFF 0CFF 0CFF 07445                         DT      B'11111111',B'11111111',B'11111111'     ;BTC=12
005F24 0CE3 0CFF 0CFF 07446                         DT      B'11100011',B'11111111',B'11111111'     ;BTC=13
005F2A 0CC1 0CFF 0CFF 07447                         DT      B'11000001',B'11111111',B'11111111'     ;BTC=14
005F30 0C80 0CFF 0CFF 07448                         DT      B'10000000',B'11111111',B'11111111'     ;BTC=15
005F36 0C80 0CFF 0CFF 07449                         DT      B'10000000',B'11111111',B'11111111'     ;BTC=16
005F3C 0C80 0CFF 0CFF 07450                         DT      B'10000000',B'11111111',B'11111111'     ;BTC=17
005F42 0CC0 0CFF 0CFF 07451                         DT      B'11000000',B'11111111',B'11111111'     ;BTC=18
005F48 0CE1 0CFF 0CFF 07452                         DT      B'11100001',B'11111111',B'11111111'     ;BTC=19
005F4E 0CF3 0CFF 0CFF 07453                         DT      B'11110011',B'11111111',B'11111111'     ;BTC=1A
005F54 0CE7 0CFF 0CFF 07454                         DT      B'11100111',B'11111111',B'11111111'     ;BTC=1B
005F5A 0CCF 0CFF 0CFF 07455                         DT      B'11001111',B'11111111',B'11111111'     ;BTC=1C
005F60 0CFF 0CFF 0CFF 07456                         DT      B'11111111',B'11111111',B'11111111'     ;BTC=1D
005F66 0CFF 0CFF 0CFF 07457                         DT      B'11111111',B'11111111',B'11111111'     ;BTC=1E
005F6C 0CFF 0CFF 0CFF 07458                         DT      B'11111111',B'11111111',B'11111111'     ;BTC=1F
                      07459 
                      07460 
005F72                07461 FONT02L_LOW_SEMICOLON
005F72 0E00           07462         MOVLW   0
005F74 6EFB           07463         MOVWF   PCLATU,0
005F76 0E5F           07464         MOVLW   5F
005F78 6EFA           07465         MOVWF   PCLATH,0
                      07466 
                      07467 
                      07468 
                      07469 
005F7A C146 FFE8      07470                         MOVFF   BTCOUNT,WREG
005F7E 90D8           07471                         BCF             STATUS,C
005F80 36E8           07472                         RLCF    WREG
                      07473 
                      07474                 
005F82 26F9           07475                         ADDWF   PCL,1,0
005F84 0CFF 0CFF 0CFF 07476                         DT      B'11111111',B'11111111',B'11111111'     ;BTC=10
005F8A 0CFF 0CFF 0CFF 07477                         DT      B'11111111',B'11111111',B'11111111'     ;BTC=11
005F90 0CFF 0CFF 0CFF 07478                         DT      B'11111111',B'11111111',B'11111111'     ;BTC=12
MPASM  5.51       20191122_RGMODULE_RTCV1.ASM   11-25-2019  10:52:29         PAGE 147


LOC  OBJECT CODE     LINE SOURCE TEXT
  VALUE

005F96 0CFF 0CFF 0CFF 07479                         DT      B'11111111',B'11111111',B'11111111'     ;BTC=13
005F9C 0CC7 0CFF 0CFF 07480                         DT      B'11000111',B'11111111',B'11111111'     ;BTC=14
005FA2 0C83 0CFF 0CFF 07481                         DT      B'10000011',B'11111111',B'11111111'     ;BTC=15
005FA8 0C83 0CFF 0CFF 07482                         DT      B'10000011',B'11111111',B'11111111'     ;BTC=16
005FAE 0C83 0CFF 0CFF 07483                         DT      B'10000011',B'11111111',B'11111111'     ;BTC=17
005FB4 0CC7 0CFF 0CFF 07484                         DT      B'11000111',B'11111111',B'11111111'     ;BTC=18
005FBA 0CCF 0CFF 0CFF 07485                         DT      B'11001111',B'11111111',B'11111111'     ;BTC=19
005FC0 0C9F 0CFF 0CFF 07486                         DT      B'10011111',B'11111111',B'11111111'     ;BTC=1A
005FC6 0CFF 0CFF 0CFF 07487                         DT      B'11111111',B'11111111',B'11111111'     ;BTC=1B
005FCC 0CFF 0CFF 0CFF 07488                         DT      B'11111111',B'11111111',B'11111111'     ;BTC=1C
005FD2 0CFF 0CFF 0CFF 07489                         DT      B'11111111',B'11111111',B'11111111'     ;BTC=1D
005FD8 0CFF 0CFF 0CFF 07490                         DT      B'11111111',B'11111111',B'11111111'     ;BTC=1E
005FDE 0CFF 0CFF 0CFF 07491                         DT      B'11111111',B'11111111',B'11111111'     ;BTC=1F
                      07492 
Warning[205]: Found directive in column 1. (ORG)
006000                07493 ORG 0X6000
006000                07494 FONT02H_CAP_COMMA
006000 0E00           07495         MOVLW   0
006002 6EFB           07496         MOVWF   PCLATU,0
006004 0E60           07497         MOVLW   60
006006 6EFA           07498         MOVWF   PCLATH,0
                      07499 
                      07500         
                      07501 
                      07502         
006008 C146 FFE8      07503                         MOVFF   BTCOUNT,WREG
00600C 90D8           07504                         BCF             STATUS,C
00600E 36E8           07505                         RLCF    WREG
                      07506 
                      07507                 
006010 26F9           07508                         ADDWF   PCL,1,0
006012 0CFF 0CFF 0CFF 07509                         DT      B'11111111',B'11111111',B'11111111'     ;BTC=00
006018 0CFF 0CFF 0CFF 07510                         DT      B'11111111',B'11111111',B'11111111'     ;BTC=01
00601E 0CFF 0CFF 0CFF 07511                         DT      B'11111111',B'11111111',B'11111111'     ;BTC=02
006024 0CFF 0CFF 0CFF 07512                         DT      B'11111111',B'11111111',B'11111111'     ;BTC=03
00602A 0CFF 0CFF 0CFF 07513                         DT      B'11111111',B'11111111',B'11111111'     ;BTC=04
006030 0CFF 0CFF 0CFF 07514                         DT      B'11111111',B'11111111',B'11111111'     ;BTC=05
006036 0CFF 0CFF 0CFF 07515                         DT      B'11111111',B'11111111',B'11111111'     ;BTC=06
00603C 0CFF 0CFF 0CFF 07516                         DT      B'11111111',B'11111111',B'11111111'     ;BTC=07
006042 0CFF 0CFF 0CFF 07517                         DT      B'11111111',B'11111111',B'11111111'     ;BTC=08
006048 0CFF 0CFF 0CFF 07518                         DT      B'11111111',B'11111111',B'11111111'     ;BTC=09
00604E 0CFF 0CFF 0CFF 07519                         DT      B'11111111',B'11111111',B'11111111'     ;BTC=0A
006054 0CFF 0CFF 0CFF 07520                         DT      B'11111111',B'11111111',B'11111111'     ;BTC=0B
00605A 0CFF 0CFF 0CFF 07521                         DT      B'11111111',B'11111111',B'11111111'     ;BTC=0C
006060 0CFF 0CFF 0CFF 07522                         DT      B'11111111',B'11111111',B'11111111'     ;BTC=0D
006066 0CFF 0CFF 0CFF 07523                         DT      B'11111111',B'11111111',B'11111111'     ;BTC=0E
00606C 0CFF 0CFF 0CFF 07524                         DT      B'11111111',B'11111111',B'11111111'     ;BTC=0F
                      07525 
006072                07526 FONT02H_LOW_COMMA
006072 0E00           07527         MOVLW   0
006074 6EFB           07528         MOVWF   PCLATU,0
006076 0E60           07529         MOVLW   60
006078 6EFA           07530         MOVWF   PCLATH,0
MPASM  5.51       20191122_RGMODULE_RTCV1.ASM   11-25-2019  10:52:29         PAGE 148


LOC  OBJECT CODE     LINE SOURCE TEXT
  VALUE

                      07531 
                      07532         
                      07533 
                      07534         
00607A C146 FFE8      07535                         MOVFF   BTCOUNT,WREG
00607E 90D8           07536                         BCF             STATUS,C
006080 36E8           07537                         RLCF    WREG
                      07538 
                      07539                 
006082 26F9           07540                         ADDWF   PCL,1,0
006084 0CFF 0CFF 0CFF 07541                         DT      B'11111111',B'11111111',B'11111111'     ;BTC=00
00608A 0CFF 0CFF 0CFF 07542                         DT      B'11111111',B'11111111',B'11111111'     ;BTC=01
006090 0CFF 0CFF 0CFF 07543                         DT      B'11111111',B'11111111',B'11111111'     ;BTC=02
006096 0CFF 0CFF 0CFF 07544                         DT      B'11111111',B'11111111',B'11111111'     ;BTC=03
00609C 0CFF 0CFF 0CFF 07545                         DT      B'11111111',B'11111111',B'11111111'     ;BTC=04
0060A2 0CFF 0CFF 0CFF 07546                         DT      B'11111111',B'11111111',B'11111111'     ;BTC=05
0060A8 0CFF 0CFF 0CFF 07547                         DT      B'11111111',B'11111111',B'11111111'     ;BTC=06
0060AE 0CFF 0CFF 0CFF 07548                         DT      B'11111111',B'11111111',B'11111111'     ;BTC=07
0060B4 0CFF 0CFF 0CFF 07549                         DT      B'11111111',B'11111111',B'11111111'     ;BTC=08
0060BA 0CFF 0CFF 0CFF 07550                         DT      B'11111111',B'11111111',B'11111111'     ;BTC=09
0060C0 0CFF 0CFF 0CFF 07551                         DT      B'11111111',B'11111111',B'11111111'     ;BTC=0A
0060C6 0CFF 0CFF 0CFF 07552                         DT      B'11111111',B'11111111',B'11111111'     ;BTC=0B
0060CC 0CFF 0CFF 0CFF 07553                         DT      B'11111111',B'11111111',B'11111111'     ;BTC=0C
0060D2 0CFF 0CFF 0CFF 07554                         DT      B'11111111',B'11111111',B'11111111'     ;BTC=0D
0060D8 0CFF 0CFF 0CFF 07555                         DT      B'11111111',B'11111111',B'11111111'     ;BTC=0E
0060DE 0CFF 0CFF 0CFF 07556                         DT      B'11111111',B'11111111',B'11111111'     ;BTC=0F
                      07557 
                      07558 
                      07559 
                      07560         
Warning[205]: Found directive in column 1. (ORG)
006100                07561 ORG 0X6100
006100                07562 FONT02L_CAP_COMMA
006100 0E00           07563         MOVLW   0
006102 6EFB           07564         MOVWF   PCLATU,0
006104 0E61           07565         MOVLW   61
006106 6EFA           07566         MOVWF   PCLATH,0
                      07567 
                      07568 
                      07569 
                      07570 
006108 C146 FFE8      07571                         MOVFF   BTCOUNT,WREG
00610C 90D8           07572                         BCF             STATUS,C
00610E 36E8           07573                         RLCF    WREG
                      07574 
                      07575                 
006110 26F9           07576                         ADDWF   PCL,1,0
006112 0CFF 0CFF 0CFF 07577                         DT      B'11111111',B'11111111',B'11111111'     ;BTC=10
006118 0CFF 0CFF 0CFF 07578                         DT      B'11111111',B'11111111',B'11111111'     ;BTC=11
00611E 0CFF 0CFF 0CFF 07579                         DT      B'11111111',B'11111111',B'11111111'     ;BTC=12
006124 0CFF 0CFF 0CFF 07580                         DT      B'11111111',B'11111111',B'11111111'     ;BTC=13
00612A 0CFF 0CFF 0CFF 07581                         DT      B'11111111',B'11111111',B'11111111'     ;BTC=14
006130 0CE3 0CFF 0CFF 07582                         DT      B'11100011',B'11111111',B'11111111'     ;BTC=15
MPASM  5.51       20191122_RGMODULE_RTCV1.ASM   11-25-2019  10:52:29         PAGE 149


LOC  OBJECT CODE     LINE SOURCE TEXT
  VALUE

006136 0CC1 0CFF 0CFF 07583                         DT      B'11000001',B'11111111',B'11111111'     ;BTC=16
00613C 0C80 0CFF 0CFF 07584                         DT      B'10000000',B'11111111',B'11111111'     ;BTC=17
006142 0C80 0CFF 0CFF 07585                         DT      B'10000000',B'11111111',B'11111111'     ;BTC=18
006148 0C80 0CFF 0CFF 07586                         DT      B'10000000',B'11111111',B'11111111'     ;BTC=19
00614E 0CC0 0CFF 0CFF 07587                         DT      B'11000000',B'11111111',B'11111111'     ;BTC=1A
006154 0CE1 0CFF 0CFF 07588                         DT      B'11100001',B'11111111',B'11111111'     ;BTC=1B
00615A 0CF3 0CFF 0CFF 07589                         DT      B'11110011',B'11111111',B'11111111'     ;BTC=1C
006160 0CE7 0CFF 0CFF 07590                         DT      B'11100111',B'11111111',B'11111111'     ;BTC=1D
006166 0CCF 0CFF 0CFF 07591                         DT      B'11001111',B'11111111',B'11111111'     ;BTC=1E
00616C 0CFF 0CFF 0CFF 07592                         DT      B'11111111',B'11111111',B'11111111'     ;BTC=1F
                      07593 
006172                07594 FONT02L_LOW_COMMA
006172 0E00           07595         MOVLW   0
006174 6EFB           07596         MOVWF   PCLATU,0
006176 0E61           07597         MOVLW   61
006178 6EFA           07598         MOVWF   PCLATH,0
                      07599 
                      07600 
                      07601 
                      07602 
00617A C146 FFE8      07603                         MOVFF   BTCOUNT,WREG
00617E 90D8           07604                         BCF             STATUS,C
006180 36E8           07605                         RLCF    WREG
                      07606 
                      07607                 
006182 26F9           07608                         ADDWF   PCL,1,0
006184 0CFF 0CFF 0CFF 07609                         DT      B'11111111',B'11111111',B'11111111'     ;BTC=10
00618A 0CFF 0CFF 0CFF 07610                         DT      B'11111111',B'11111111',B'11111111'     ;BTC=11
006190 0CFF 0CFF 0CFF 07611                         DT      B'11111111',B'11111111',B'11111111'     ;BTC=12
006196 0CFF 0CFF 0CFF 07612                         DT      B'11111111',B'11111111',B'11111111'     ;BTC=13
00619C 0CFF 0CFF 0CFF 07613                         DT      B'11111111',B'11111111',B'11111111'     ;BTC=14
0061A2 0CFF 0CFF 0CFF 07614                         DT      B'11111111',B'11111111',B'11111111'     ;BTC=15
0061A8 0CFF 0CFF 0CFF 07615                         DT      B'11111111',B'11111111',B'11111111'     ;BTC=16
0061AE 0CFF 0CFF 0CFF 07616                         DT      B'11111111',B'11111111',B'11111111'     ;BTC=17
0061B4 0CFF 0CFF 0CFF 07617                         DT      B'11111111',B'11111111',B'11111111'     ;BTC=18
0061BA 0CC7 0CFF 0CFF 07618                         DT      B'11000111',B'11111111',B'11111111'     ;BTC=19
0061C0 0C83 0CFF 0CFF 07619                         DT      B'10000011',B'11111111',B'11111111'     ;BTC=1A
0061C6 0C83 0CFF 0CFF 07620                         DT      B'10000011',B'11111111',B'11111111'     ;BTC=1B
0061CC 0C83 0CFF 0CFF 07621                         DT      B'10000011',B'11111111',B'11111111'     ;BTC=1C
0061D2 0CC7 0CFF 0CFF 07622                         DT      B'11000111',B'11111111',B'11111111'     ;BTC=1D
0061D8 0CCF 0CFF 0CFF 07623                         DT      B'11001111',B'11111111',B'11111111'     ;BTC=1E
0061DE 0C9F 0CFF 0CFF 07624                         DT      B'10011111',B'11111111',B'11111111'     ;BTC=1F
                      07625 
                      07626 
Warning[205]: Found directive in column 1. (ORG)
006200                07627 ORG 0X6200
006200                07628 FONT02H_CAP_DOT
006200 0E00           07629         MOVLW   0
006202 6EFB           07630         MOVWF   PCLATU,0
006204 0E62           07631         MOVLW   62
006206 6EFA           07632         MOVWF   PCLATH,0
                      07633 
                      07634         
MPASM  5.51       20191122_RGMODULE_RTCV1.ASM   11-25-2019  10:52:29         PAGE 150


LOC  OBJECT CODE     LINE SOURCE TEXT
  VALUE

                      07635 
                      07636         
006208 C146 FFE8      07637                         MOVFF   BTCOUNT,WREG
00620C 90D8           07638                         BCF             STATUS,C
00620E 36E8           07639                         RLCF    WREG
                      07640 
                      07641                 
006210 26F9           07642                         ADDWF   PCL,1,0
006212 0CFF 0CFF 0CFF 07643                         DT      B'11111111',B'11111111',B'11111111'     ;BTC=00
006218 0CFF 0CFF 0CFF 07644                         DT      B'11111111',B'11111111',B'11111111'     ;BTC=01
00621E 0CFF 0CFF 0CFF 07645                         DT      B'11111111',B'11111111',B'11111111'     ;BTC=02
006224 0CFF 0CFF 0CFF 07646                         DT      B'11111111',B'11111111',B'11111111'     ;BTC=03
00622A 0CFF 0CFF 0CFF 07647                         DT      B'11111111',B'11111111',B'11111111'     ;BTC=04
006230 0CFF 0CFF 0CFF 07648                         DT      B'11111111',B'11111111',B'11111111'     ;BTC=05
006236 0CFF 0CFF 0CFF 07649                         DT      B'11111111',B'11111111',B'11111111'     ;BTC=06
00623C 0CFF 0CFF 0CFF 07650                         DT      B'11111111',B'11111111',B'11111111'     ;BTC=07
006242 0CFF 0CFF 0CFF 07651                         DT      B'11111111',B'11111111',B'11111111'     ;BTC=08
006248 0CFF 0CFF 0CFF 07652                         DT      B'11111111',B'11111111',B'11111111'     ;BTC=09
00624E 0CFF 0CFF 0CFF 07653                         DT      B'11111111',B'11111111',B'11111111'     ;BTC=0A
006254 0CFF 0CFF 0CFF 07654                         DT      B'11111111',B'11111111',B'11111111'     ;BTC=0B
00625A 0CFF 0CFF 0CFF 07655                         DT      B'11111111',B'11111111',B'11111111'     ;BTC=0C
006260 0CFF 0CFF 0CFF 07656                         DT      B'11111111',B'11111111',B'11111111'     ;BTC=0D
006266 0CFF 0CFF 0CFF 07657                         DT      B'11111111',B'11111111',B'11111111'     ;BTC=0E
00626C 0CFF 0CFF 0CFF 07658                         DT      B'11111111',B'11111111',B'11111111'     ;BTC=0F
                      07659 
006272                07660 FONT02H_LOW_DOT
006272 0E00           07661         MOVLW   0
006274 6EFB           07662         MOVWF   PCLATU,0
006276 0E62           07663         MOVLW   62
006278 6EFA           07664         MOVWF   PCLATH,0
                      07665 
                      07666         
                      07667 
                      07668         
00627A C146 FFE8      07669                         MOVFF   BTCOUNT,WREG
00627E 90D8           07670                         BCF             STATUS,C
006280 36E8           07671                         RLCF    WREG
                      07672 
                      07673                 
006282 26F9           07674                         ADDWF   PCL,1,0
006284 0CFF 0CFF 0CFF 07675                         DT      B'11111111',B'11111111',B'11111111'     ;BTC=00
00628A 0CFF 0CFF 0CFF 07676                         DT      B'11111111',B'11111111',B'11111111'     ;BTC=01
006290 0CFF 0CFF 0CFF 07677                         DT      B'11111111',B'11111111',B'11111111'     ;BTC=02
006296 0CFF 0CFF 0CFF 07678                         DT      B'11111111',B'11111111',B'11111111'     ;BTC=03
00629C 0CFF 0CFF 0CFF 07679                         DT      B'11111111',B'11111111',B'11111111'     ;BTC=04
0062A2 0CFF 0CFF 0CFF 07680                         DT      B'11111111',B'11111111',B'11111111'     ;BTC=05
0062A8 0CFF 0CFF 0CFF 07681                         DT      B'11111111',B'11111111',B'11111111'     ;BTC=06
0062AE 0CFF 0CFF 0CFF 07682                         DT      B'11111111',B'11111111',B'11111111'     ;BTC=07
0062B4 0CFF 0CFF 0CFF 07683                         DT      B'11111111',B'11111111',B'11111111'     ;BTC=08
0062BA 0CFF 0CFF 0CFF 07684                         DT      B'11111111',B'11111111',B'11111111'     ;BTC=09
0062C0 0CFF 0CFF 0CFF 07685                         DT      B'11111111',B'11111111',B'11111111'     ;BTC=0A
0062C6 0CFF 0CFF 0CFF 07686                         DT      B'11111111',B'11111111',B'11111111'     ;BTC=0B
0062CC 0CFF 0CFF 0CFF 07687                         DT      B'11111111',B'11111111',B'11111111'     ;BTC=0C
MPASM  5.51       20191122_RGMODULE_RTCV1.ASM   11-25-2019  10:52:29         PAGE 151


LOC  OBJECT CODE     LINE SOURCE TEXT
  VALUE

0062D2 0CFF 0CFF 0CFF 07688                         DT      B'11111111',B'11111111',B'11111111'     ;BTC=0D
0062D8 0CFF 0CFF 0CFF 07689                         DT      B'11111111',B'11111111',B'11111111'     ;BTC=0E
0062DE 0CFF 0CFF 0CFF 07690                         DT      B'11111111',B'11111111',B'11111111'     ;BTC=0F
                      07691 
                      07692 
                      07693 
                      07694         
Warning[205]: Found directive in column 1. (ORG)
006300                07695 ORG 0X6300
006300                07696 FONT02L_CAP_DOT
006300 0E00           07697         MOVLW   0
006302 6EFB           07698         MOVWF   PCLATU,0
006304 0E63           07699         MOVLW   63
006306 6EFA           07700         MOVWF   PCLATH,0
                      07701 
                      07702 
                      07703 
                      07704 
006308 C146 FFE8      07705                         MOVFF   BTCOUNT,WREG
00630C 90D8           07706                         BCF             STATUS,C
00630E 36E8           07707                         RLCF    WREG
                      07708 
                      07709                 
006310 26F9           07710                         ADDWF   PCL,1,0
006312 0CFF 0CFF 0CFF 07711                         DT      B'11111111',B'11111111',B'11111111'     ;BTC=10
006318 0CFF 0CFF 0CFF 07712                         DT      B'11111111',B'11111111',B'11111111'     ;BTC=11
00631E 0CFF 0CFF 0CFF 07713                         DT      B'11111111',B'11111111',B'11111111'     ;BTC=12
006324 0CFF 0CFF 0CFF 07714                         DT      B'11111111',B'11111111',B'11111111'     ;BTC=13
00632A 0CFF 0CFF 0CFF 07715                         DT      B'11111111',B'11111111',B'11111111'     ;BTC=14
006330 0CFF 0CFF 0CFF 07716                         DT      B'11111111',B'11111111',B'11111111'     ;BTC=15
006336 0CFF 0CFF 0CFF 07717                         DT      B'11111111',B'11111111',B'11111111'     ;BTC=16
00633C 0CFF 0CFF 0CFF 07718                         DT      B'11111111',B'11111111',B'11111111'     ;BTC=17
006342 0CE3 0CFF 0CFF 07719                         DT      B'11100011',B'11111111',B'11111111'     ;BTC=18
006348 0CC1 0CFF 0CFF 07720                         DT      B'11000001',B'11111111',B'11111111'     ;BTC=19
00634E 0C80 0CFF 0CFF 07721                         DT      B'10000000',B'11111111',B'11111111'     ;BTC=1A
006354 0C80 0CFF 0CFF 07722                         DT      B'10000000',B'11111111',B'11111111'     ;BTC=1B
00635A 0C80 0CFF 0CFF 07723                         DT      B'10000000',B'11111111',B'11111111'     ;BTC=1C
006360 0CC1 0CFF 0CFF 07724                         DT      B'11000001',B'11111111',B'11111111'     ;BTC=1D
006366 0CE3 0CFF 0CFF 07725                         DT      B'11100011',B'11111111',B'11111111'     ;BTC=1E
00636C 0CFF 0CFF 0CFF 07726                         DT      B'11111111',B'11111111',B'11111111'     ;BTC=1F
                      07727 
006372                07728 FONT02L_LOW_DOT
006372 0E00           07729         MOVLW   0
006374 6EFB           07730         MOVWF   PCLATU,0
006376 0E63           07731         MOVLW   63
006378 6EFA           07732         MOVWF   PCLATH,0
                      07733 
                      07734 
                      07735 
                      07736 
00637A C146 FFE8      07737                         MOVFF   BTCOUNT,WREG
00637E 90D8           07738                         BCF             STATUS,C
006380 36E8           07739                         RLCF    WREG
MPASM  5.51       20191122_RGMODULE_RTCV1.ASM   11-25-2019  10:52:29         PAGE 152


LOC  OBJECT CODE     LINE SOURCE TEXT
  VALUE

                      07740 
                      07741                 
006382 26F9           07742                         ADDWF   PCL,1,0
006384 0CFF 0CFF 0CFF 07743                         DT      B'11111111',B'11111111',B'11111111'     ;BTC=10
00638A 0CFF 0CFF 0CFF 07744                         DT      B'11111111',B'11111111',B'11111111'     ;BTC=11
006390 0CFF 0CFF 0CFF 07745                         DT      B'11111111',B'11111111',B'11111111'     ;BTC=12
006396 0CFF 0CFF 0CFF 07746                         DT      B'11111111',B'11111111',B'11111111'     ;BTC=13
00639C 0CFF 0CFF 0CFF 07747                         DT      B'11111111',B'11111111',B'11111111'     ;BTC=14
0063A2 0CFF 0CFF 0CFF 07748                         DT      B'11111111',B'11111111',B'11111111'     ;BTC=15
0063A8 0CFF 0CFF 0CFF 07749                         DT      B'11111111',B'11111111',B'11111111'     ;BTC=16
0063AE 0CFF 0CFF 0CFF 07750                         DT      B'11111111',B'11111111',B'11111111'     ;BTC=17
0063B4 0CFF 0CFF 0CFF 07751                         DT      B'11111111',B'11111111',B'11111111'     ;BTC=18
0063BA 0CFF 0CFF 0CFF 07752                         DT      B'11111111',B'11111111',B'11111111'     ;BTC=19
0063C0 0CC7 0CFF 0CFF 07753                         DT      B'11000111',B'11111111',B'11111111'     ;BTC=1A
0063C6 0C83 0CFF 0CFF 07754                         DT      B'10000011',B'11111111',B'11111111'     ;BTC=1B
0063CC 0C83 0CFF 0CFF 07755                         DT      B'10000011',B'11111111',B'11111111'     ;BTC=1C
0063D2 0C83 0CFF 0CFF 07756                         DT      B'10000011',B'11111111',B'11111111'     ;BTC=1D
0063D8 0CC7 0CFF 0CFF 07757                         DT      B'11000111',B'11111111',B'11111111'     ;BTC=1E
0063DE 0CFF 0CFF 0CFF 07758                         DT      B'11111111',B'11111111',B'11111111'     ;BTC=1F
                      07759 
                      07760 
Warning[205]: Found directive in column 1. (ORG)
006400                07761 ORG 0X6400
006400                07762 FONT02H_CAP_SPACE
006400 0E00           07763         MOVLW   0
006402 6EFB           07764         MOVWF   PCLATU,0
006404 0E64           07765         MOVLW   64
006406 6EFA           07766         MOVWF   PCLATH,0
                      07767 
                      07768         
                      07769 
                      07770         
006408 C146 FFE8      07771                         MOVFF   BTCOUNT,WREG
00640C 90D8           07772                         BCF             STATUS,C
00640E 36E8           07773                         RLCF    WREG
                      07774 
                      07775                 
006410 26F9           07776                         ADDWF   PCL,1,0
006412 0CFF 0CFF 0CFF 07777                         DT      B'11111111',B'11111111',B'11111111'     ;BTC=00
006418 0CFF 0CFF 0CFF 07778                         DT      B'11111111',B'11111111',B'11111111'     ;BTC=01
00641E 0CFF 0CFF 0CFF 07779                         DT      B'11111111',B'11111111',B'11111111'     ;BTC=02
006424 0CFF 0CFF 0CFF 07780                         DT      B'11111111',B'11111111',B'11111111'     ;BTC=03
00642A 0CFF 0CFF 0CFF 07781                         DT      B'11111111',B'11111111',B'11111111'     ;BTC=04
006430 0CFF 0CFF 0CFF 07782                         DT      B'11111111',B'11111111',B'11111111'     ;BTC=05
006436 0CFF 0CFF 0CFF 07783                         DT      B'11111111',B'11111111',B'11111111'     ;BTC=06
00643C 0CFF 0CFF 0CFF 07784                         DT      B'11111111',B'11111111',B'11111111'     ;BTC=07
006442 0CFF 0CFF 0CFF 07785                         DT      B'11111111',B'11111111',B'11111111'     ;BTC=08
006448 0CFF 0CFF 0CFF 07786                         DT      B'11111111',B'11111111',B'11111111'     ;BTC=09
00644E 0CFF 0CFF 0CFF 07787                         DT      B'11111111',B'11111111',B'11111111'     ;BTC=0A
006454 0CFF 0CFF 0CFF 07788                         DT      B'11111111',B'11111111',B'11111111'     ;BTC=0B
00645A 0CFF 0CFF 0CFF 07789                         DT      B'11111111',B'11111111',B'11111111'     ;BTC=0C
006460 0CFF 0CFF 0CFF 07790                         DT      B'11111111',B'11111111',B'11111111'     ;BTC=0D
006466 0CFF 0CFF 0CFF 07791                         DT      B'11111111',B'11111111',B'11111111'     ;BTC=0E
MPASM  5.51       20191122_RGMODULE_RTCV1.ASM   11-25-2019  10:52:29         PAGE 153


LOC  OBJECT CODE     LINE SOURCE TEXT
  VALUE

00646C 0CFF 0CFF 0CFF 07792                         DT      B'11111111',B'11111111',B'11111111'     ;BTC=0F
                      07793 
                      07794 
                      07795         
Warning[205]: Found directive in column 1. (ORG)
006500                07796 ORG 0X6500
006500                07797 FONT02L_CAP_SPACE
006500 0E00           07798         MOVLW   0
006502 6EFB           07799         MOVWF   PCLATU,0
006504 0E65           07800         MOVLW   65
006506 6EFA           07801         MOVWF   PCLATH,0
                      07802 
                      07803 
                      07804 
                      07805 
006508 C146 FFE8      07806                         MOVFF   BTCOUNT,WREG
00650C 90D8           07807                         BCF             STATUS,C
00650E 36E8           07808                         RLCF    WREG
                      07809 
                      07810                 
006510 26F9           07811                         ADDWF   PCL,1,0
006512 0CFF 0CFF 0CFF 07812                         DT      B'11111111',B'11111111',B'11111111'     ;BTC=10
006518 0CFF 0CFF 0CFF 07813                         DT      B'11111111',B'11111111',B'11111111'     ;BTC=11
00651E 0CFF 0CFF 0CFF 07814                         DT      B'11111111',B'11111111',B'11111111'     ;BTC=12
006524 0CFF 0CFF 0CFF 07815                         DT      B'11111111',B'11111111',B'11111111'     ;BTC=13
00652A 0CFF 0CFF 0CFF 07816                         DT      B'11111111',B'11111111',B'11111111'     ;BTC=14
006530 0CFF 0CFF 0CFF 07817                         DT      B'11111111',B'11111111',B'11111111'     ;BTC=15
006536 0CFF 0CFF 0CFF 07818                         DT      B'11111111',B'11111111',B'11111111'     ;BTC=16
00653C 0CFF 0CFF 0CFF 07819                         DT      B'11111111',B'11111111',B'11111111'     ;BTC=17
006542 0CFF 0CFF 0CFF 07820                         DT      B'11111111',B'11111111',B'11111111'     ;BTC=18
006548 0CFF 0CFF 0CFF 07821                         DT      B'11111111',B'11111111',B'11111111'     ;BTC=19
00654E 0CFF 0CFF 0CFF 07822                         DT      B'11111111',B'11111111',B'11111111'     ;BTC=1A
006554 0CFF 0CFF 0CFF 07823                         DT      B'11111111',B'11111111',B'11111111'     ;BTC=1B
00655A 0CFF 0CFF 0CFF 07824                         DT      B'11111111',B'11111111',B'11111111'     ;BTC=1C
006560 0CFF 0CFF 0CFF 07825                         DT      B'11111111',B'11111111',B'11111111'     ;BTC=1D
006566 0CFF 0CFF 0CFF 07826                         DT      B'11111111',B'11111111',B'11111111'     ;BTC=1E
00656C 0CFF 0CFF 0CFF 07827                         DT      B'11111111',B'11111111',B'11111111'     ;BTC=1F
                      07828 
                      07829 
                      07830 
                      07831 
                      07832 
Warning[205]: Found directive in column 1. (ORG)
007000                07833 ORG     0X7000
007000                07834 WIDTH_CHECK
                      07835 
007000 0E00           07836         MOVLW   0
007002 6EFB           07837         MOVWF   PCLATU,0
007004 0E70           07838         MOVLW   70
007006 6EFA           07839         MOVWF   PCLATH,0
                      07840 
                      07841 
                      07842 
MPASM  5.51       20191122_RGMODULE_RTCV1.ASM   11-25-2019  10:52:29         PAGE 154


LOC  OBJECT CODE     LINE SOURCE TEXT
  VALUE

                      07843 
007008 CFEF FFE8      07844                         MOVFF   INDF0,WREG
00700C 90D8           07845                         BCF             STATUS,C
00700E 36E8           07846                         RLCF    WREG
                      07847 
                      07848                 
007010 26F9           07849                         ADDWF   PCL,1,0
                      07850 
                      07851 
                      07852 ;=================== UPPERCASE CHARACTERS =====================
007012 0C15           07853                 DT      15      ;CODE   =       00              CHAR    =       A
007014 0C15           07854                 DT      15      ;CODE   =       01              CHAR    =       B
007016 0C15           07855                 DT      15      ;CODE   =       02              CHAR    =       C
007018 0C15           07856                 DT      15      ;CODE   =       03              CHAR    =       D
00701A 0C15           07857                 DT      15      ;CODE   =       04              CHAR    =       E
00701C 0C15           07858                 DT      15      ;CODE   =       05              CHAR    =       F
00701E 0C15           07859                 DT      15      ;CODE   =       06              CHAR    =       G
007020 0C15           07860                 DT      15      ;CODE   =       07              CHAR    =       H
007022 0C11           07861                 DT      11      ;CODE   =       08              CHAR    =       I
007024 0C15           07862                 DT      15      ;CODE   =       09              CHAR    =       J
007026 0C15           07863                 DT      15      ;CODE   =       0A              CHAR    =       K
007028 0C10           07864                 DT      10      ;CODE   =       0B              CHAR    =       L
00702A 0C15           07865                 DT      15      ;CODE   =       0C              CHAR    =       M
00702C 0C15           07866                 DT      15      ;CODE   =       0D              CHAR    =       N
00702E 0C15           07867                 DT      15      ;CODE   =       0E              CHAR    =       O
007030 0C15           07868                 DT      15      ;CODE   =       0F              CHAR    =       P
007032 0C15           07869                 DT      15      ;CODE   =       10              CHAR    =       Q
007034 0C15           07870                 DT      15      ;CODE   =       11              CHAR    =       R
007036 0C15           07871                 DT      15      ;CODE   =       12              CHAR    =       S
007038 0C14           07872                 DT      14      ;CODE   =       13              CHAR    =       T
00703A 0C15           07873                 DT      15      ;CODE   =       14              CHAR    =       U
00703C 0C15           07874                 DT      15      ;CODE   =       15              CHAR    =       V
00703E 0C15           07875                 DT      15      ;CODE   =       16              CHAR    =       W
007040 0C15           07876                 DT      15      ;CODE   =       17              CHAR    =       X
007042 0C15           07877                 DT      15      ;CODE   =       18              CHAR    =       Y
007044 0C15           07878                 DT      15      ;CODE   =       19              CHAR    =       Z
007046 0C0B           07879                 DT      0B      ;CODE   =       1A              CHAR    =       0
007048 0C09           07880                 DT      09      ;CODE   =       1B              CHAR    =       1
00704A 0C15           07881                 DT      15      ;CODE   =       1C              CHAR    =       2
00704C 0C15           07882                 DT      15      ;CODE   =       1D              CHAR    =       3
00704E 0C15           07883                 DT      15      ;CODE   =       1E              CHAR    =       4
007050 0C15           07884                 DT      15      ;CODE   =       1F              CHAR    =       5
007052 0C15           07885                 DT      15      ;CODE   =       20              CHAR    =       6
007054 0C15           07886                 DT      15      ;CODE   =       21              CHAR    =       7
007056 0C15           07887                 DT      15      ;CODE   =       22              CHAR    =       8
007058 0C15           07888                 DT      15      ;CODE   =       23              CHAR    =       9
00705A 0C15           07889                 DT      15      ;CODE   =       24              CHAR    =       ENYE
00705C 0C0D           07890                 DT      0D      ;CODE   =       25              CHAR    =       DASH
00705E 0C05           07891                 DT      05      ;CODE   =       26              CHAR    =       COLON 
007060 0C09           07892                 DT      09      ;CODE   =       27              CHAR    =       SEMICOLON
007062 0C09           07893                 DT      09      ;CODE   =       28              CHAR    =       COMMA
007064 0C09           07894                 DT      09      ;CODE   =       29              CHAR    =       DOT     
007066 0C13           07895                 DT      13      ;CODE   =       2A              CHAR    =       SPACE
MPASM  5.51       20191122_RGMODULE_RTCV1.ASM   11-25-2019  10:52:29         PAGE 155


LOC  OBJECT CODE     LINE SOURCE TEXT
  VALUE

                      07896 ;==============================================================
007068 0C15           07897                 DT      15      ;CODE   =       2B              CHAR    =       EMPTY
00706A 0C15           07898                 DT      15      ;CODE   =       2C              CHAR    =       EMPTY
00706C 0C15           07899                 DT      15      ;CODE   =       2D              CHAR    =       EMPTY
00706E 0C15           07900                 DT      15      ;CODE   =       2E              CHAR    =       EMPTY
007070 0C15           07901                 DT      15      ;CODE   =       2F              CHAR    =       EMPTY
                      07902 
                      07903 ;=================== LOWERCASE CHARACTERS =====================
007072 0C12           07904                 DT      12      ;CODE   =       30              CHAR    =       A
007074 0C12           07905                 DT      12      ;CODE   =       31              CHAR    =       B
007076 0C12           07906                 DT      12      ;CODE   =       32              CHAR    =       C
007078 0C12           07907                 DT      12      ;CODE   =       33              CHAR    =       D
00707A 0C12           07908                 DT      12      ;CODE   =       34              CHAR    =       E
00707C 0C0F           07909                 DT      0F      ;CODE   =       35              CHAR    =       F
00707E 0C12           07910                 DT      12      ;CODE   =       36              CHAR    =       G
007080 0C11           07911                 DT      11      ;CODE   =       37              CHAR    =       H
007082 0C05           07912                 DT      05      ;CODE   =       38              CHAR    =       I
007084 0C11           07913                 DT      11      ;CODE   =       39              CHAR    =       J
007086 0C0D           07914                 DT      0D      ;CODE   =       3A              CHAR    =       K
007088 0C05           07915                 DT      05      ;CODE   =       3B              CHAR    =       L
00708A 0C13           07916                 DT      13      ;CODE   =       3C              CHAR    =       M
00708C 0C12           07917                 DT      12      ;CODE   =       3D              CHAR    =       N
00708E 0C12           07918                 DT      12      ;CODE   =       3E              CHAR    =       O
007090 0C12           07919                 DT      12      ;CODE   =       3F              CHAR    =       P
007092 0C13           07920                 DT      13      ;CODE   =       40              CHAR    =       Q
007094 0C0E           07921                 DT      0E      ;CODE   =       41              CHAR    =       R
007096 0C0E           07922                 DT      0E      ;CODE   =       42              CHAR    =       S
007098 0C0F           07923                 DT      0F      ;CODE   =       43              CHAR    =       T
00709A 0C12           07924                 DT      12      ;CODE   =       44              CHAR    =       U
00709C 0C12           07925                 DT      12      ;CODE   =       45              CHAR    =       V
00709E 0C13           07926                 DT      13      ;CODE   =       46              CHAR    =       W
0070A0 0C12           07927                 DT      12      ;CODE   =       47              CHAR    =       X
0070A2 0C12           07928                 DT      12      ;CODE   =       48              CHAR    =       Y
0070A4 0C12           07929                 DT      12      ;CODE   =       49              CHAR    =       Z
0070A6 0C0B           07930                 DT      0B      ;CODE   =       4A              CHAR    =       0
0070A8 0C09           07931                 DT      09      ;CODE   =       4B              CHAR    =       1
0070AA 0C0C           07932                 DT      0C      ;CODE   =       4C              CHAR    =       2
0070AC 0C15           07933                 DT      15      ;CODE   =       4D              CHAR    =       3
0070AE 0C15           07934                 DT      15      ;CODE   =       4E              CHAR    =       4
0070B0 0C15           07935                 DT      15      ;CODE   =       4F              CHAR    =       5
0070B2 0C15           07936                 DT      15      ;CODE   =       50              CHAR    =       6
0070B4 0C15           07937                 DT      15      ;CODE   =       51              CHAR    =       7
0070B6 0C15           07938                 DT      15      ;CODE   =       52              CHAR    =       8
0070B8 0C15           07939                 DT      15      ;CODE   =       53              CHAR    =       9
0070BA 0C12           07940                 DT      12      ;CODE   =       54              CHAR    =       ENYE
0070BC 0C09           07941                 DT      09      ;CODE   =       55              CHAR    =       DASH
0070BE 0C05           07942                 DT      05      ;CODE   =       56              CHAR    =       COLON
0070C0 0C07           07943                 DT      07      ;CODE   =       57              CHAR    =       SEMICOLON
0070C2 0C07           07944                 DT      07      ;CODE   =       58              CHAR    =       COMMA
0070C4 0C07           07945                 DT      07      ;CODE   =       59              CHAR    =       DOT     
0070C6 0C10           07946                 DT      10      ;CODE   =       5A              CHAR    =       SPACE
                      07947 ;==============================================================
0070C8 0C12           07948                 DT      12      ;CODE   =       5B              CHAR    =       EMPTY
MPASM  5.51       20191122_RGMODULE_RTCV1.ASM   11-25-2019  10:52:29         PAGE 156


LOC  OBJECT CODE     LINE SOURCE TEXT
  VALUE

0070CA 0C12           07949                 DT      12      ;CODE   =       5C              CHAR    =       EMPTY
0070CC 0C12           07950                 DT      12      ;CODE   =       5D              CHAR    =       EMPTY
0070CE 0C12           07951                 DT      12      ;CODE   =       5E              CHAR    =       EMPTY
0070D0 0C12           07952                 DT      12      ;CODE   =       5F              CHAR    =       EMPTY
                      07953 ;==============================================================
0070D2 0C00           07954                 DT      00      ;CODE   =       60              SPACE   =       00
0070D4 0C01           07955                 DT      01      ;CODE   =       61              SPACE   =       01
0070D6 0C02           07956                 DT      02      ;CODE   =       62              SPACE   =       02
0070D8 0C03           07957                 DT      03      ;CODE   =       63              SPACE   =       03
0070DA 0C04           07958                 DT      04      ;CODE   =       64              SPACE   =       04
0070DC 0C05           07959                 DT      05      ;CODE   =       66              SPACE   =       05
0070DE 0C06           07960                 DT      06      ;CODE   =       65              SPACE   =       06
0070E0 0C07           07961                 DT      07      ;CODE   =       67              SPACE   =       07
0070E2 0C08           07962                 DT      08      ;CODE   =       68              SPACE   =       08
0070E4 0C09           07963                 DT      09      ;CODE   =       68              SPACE   =       09
0070E6 0C0A           07964                 DT      0A      ;CODE   =       68              SPACE   =       0A
0070E8 0C0B           07965                 DT      0B      ;CODE   =       68              SPACE   =       0B
0070EA 0C0C           07966                 DT      0C      ;CODE   =       68              SPACE   =       0C
0070EC 0C0D           07967                 DT      0D      ;CODE   =       68              SPACE   =       0D
0070EE 0C0E           07968                 DT      0E      ;CODE   =       68              SPACE   =       0E
0070F0 0C0F           07969                 DT      0F      ;CODE   =       68              SPACE   =       0F
                      07970 
                      07971 
                      07972 
                      07973 
                      07974 
                      07975 
                      07976 
                      07977 
Warning[205]: Found directive in column 1. (ORG)
008000                07978 ORG     0X8000
                      07979 ;=========================      READING COMMAND MEMORY ==================
008000                07980 READ_CMD_MEMORY
008000 0E03           07981                 MOVLW   0X03
008002 6EEA           07982                 MOVWF   FSR0H   ;COMMAND MEMORY
008004 0E00           07983                 MOVLW   0X00
008006 6EE9           07984                 MOVWF   FSR0L   ;COMMAND MEMORY
                      07985 
008008 0E01           07986                 MOVLW   0X01
00800A 6EE2           07987                 MOVWF   FSR1H   ;CHARACTER RAM
                      07988 
00800C 0E70           07989                 MOVLW   0X70
00800E 6EE1           07990                 MOVWF   FSR1L   ;CHARACTER RAM
                      07991 
008010 0E02           07992                 MOVLW   0X02
008012 6EDA           07993                 MOVWF   FSR2H   ;COLOR MEMORY
                      07994 
008014 0E00           07995                 MOVLW   0X00
008016 6ED9           07996                 MOVWF   FSR2L   ;COLOR MEMORY
                      07997 
                      07998 
008018                07999 RCM0
008018 CFEF F16C      08000                 MOVFF   INDF0,W_TEMP
MPASM  5.51       20191122_RGMODULE_RTCV1.ASM   11-25-2019  10:52:29         PAGE 157


LOC  OBJECT CODE     LINE SOURCE TEXT
  VALUE

                      08001 
00801C 0EFE           08002                 MOVLW   0XFE
00801E 636C           08003                 CPFSEQ  W_TEMP
008020 EF13 F040      08004                 GOTO    RCM1
008024 0012           08005                 RETURN
008026                08006 RCM1
008026 0EA0           08007                 MOVLW   0XA0
008028 636C           08008                 CPFSEQ  W_TEMP
00802A EF1B F040      08009                 GOTO    RCM2
00802E EC3F F040      08010                 CALL    CMD_CSRX        ;CURSOR COMMAND
008032 EF36 F040      08011                 GOTO    RCM_EXIT
                      08012 
008036                08013 RCM2
008036 0EA1           08014                 MOVLW   0XA1
008038 636C           08015                 CPFSEQ  W_TEMP
00803A EF23 F040      08016                 GOTO    RCM3
00803E EC47 F040      08017                 CALL    CMD_COLOR       ;COLOR  COMMAND
008042 EF36 F040      08018                 GOTO    RCM_EXIT
                      08019 
008046                08020 RCM3
008046 0EA2           08021                 MOVLW   0XA2
008048 636C           08022                 CPFSEQ  W_TEMP
00804A EF2B F040      08023                 GOTO    RCM4
00804E EC4D F040      08024                 CALL    CMD_CHAR        ;CHARACTER COMMAND
008052 EF36 F040      08025                 GOTO    RCM_EXIT
                      08026 
008056                08027 RCM4
008056 0EA3           08028                 MOVLW   0XA3
008058 636C           08029                 CPFSEQ  W_TEMP
00805A EF33 F040      08030                 GOTO    RCM5
00805E EC3A F040      08031                 CALL    CMD_SCROLL      ;SCROLL COMMAND
008062 EF36 F040      08032                 GOTO    RCM_EXIT
                      08033 
008066                08034 RCM5
008066 0000           08035                 NOP
008068 0000           08036                 NOP
00806A 0012           08037                 RETURN          
                      08038 
00806C                08039 RCM_EXIT
00806C 0000           08040                 NOP
00806E EF0C F040      08041                 GOTO    RCM0
Warning[203]: Found opcode in column 1. (RETURN)
008072 0012           08042 RETURN
                      08043 
                      08044 
008074                08045 CMD_SCROLL
008074 2AE9           08046                 INCF    FSR0L
008076 CFEF F150      08047                 MOVFF   INDF0,SCROLL_BIT
00807A 2AE9           08048                 INCF    FSR0L
Warning[203]: Found opcode in column 1. (RETURN)
00807C 0012           08049 RETURN
                      08050 
00807E                08051 CMD_CSRX
MPASM  5.51       20191122_RGMODULE_RTCV1.ASM   11-25-2019  10:52:29         PAGE 158


LOC  OBJECT CODE     LINE SOURCE TEXT
  VALUE

00807E 2AE9           08052                 INCF    FSR0L
008080 CFEF F1A0      08053                 MOVFF   INDF0,MOVX+00
008084 2AE9           08054                 INCF    FSR0L
008086 CFEF F1A1      08055                 MOVFF   INDF0,MOVX+01
00808A 2AE9           08056                 INCF    FSR0L
Warning[203]: Found opcode in column 1. (RETURN)
00808C 0012           08057 RETURN
                      08058 
00808E                08059 CMD_COLOR
00808E 2AE9           08060                 INCF    FSR0L
008090 CFEF FFDF      08061                 MOVFF   INDF0,INDF2
008094 2AE9           08062                 INCF    FSR0L
008096 2AD9           08063                 INCF    FSR2L
Warning[203]: Found opcode in column 1. (RETURN)
008098 0012           08064 RETURN
                      08065 
00809A                08066 CMD_CHAR
00809A 2AE9           08067                 INCF    FSR0L
00809C CFEF FFE7      08068                 MOVFF   INDF0,INDF1
0080A0 2AE9           08069                 INCF    FSR0L
0080A2 2AE1           08070                 INCF    FSR1L
Warning[203]: Found opcode in column 1. (RETURN)
0080A4 0012           08071 RETURN
                      08072 
                      08073 ;======================================================================
                      08074 
                      08075 ;=========================      CLEAR COMMAND MEMORY ======================
0080A6                08076 CLR_CMD_MEMORY
0080A6 0E03           08077                 MOVLW   0X03
0080A8 6EEA           08078                 MOVWF   FSR0H
0080AA 0E00           08079                 MOVLW   0X00
0080AC 6EE9           08080                 MOVWF   FSR0L
                      08081 
0080AE 0EFF           08082                 MOVLW   0XFF
0080B0 6F41           08083                 MOVWF   LOOP
0080B2 0EFF           08084                 MOVLW   0XFF
0080B4                08085 CLRCM0
0080B4 6EEF           08086                 MOVWF   INDF0
0080B6 2AE9           08087                 INCF    FSR0L
0080B8 2F41           08088                 DECFSZ  LOOP
0080BA EF5A F040      08089                 GOTO    CLRCM0
0080BE 6EEF           08090                 MOVWF   INDF0
Warning[203]: Found opcode in column 1. (RETURN)
0080C0 0012           08091 RETURN
                      08092 ;======================================================================
                      08093 
                      08094 
                      08095 ;=================== EEPROM DATA TO COMMAND MEMORY ====================
                      08096 ;EEPROM DATA READ MOVE TO COMMAND MEMORY
0080C2                08097 DATATRANS_EEPROM_TO_CMD
0080C2 0E00           08098                 MOVLW 0
0080C4 6EAA           08099                 MOVWF EEADRH            ; UPPER BITS OF DATA MEMORY ADDRESS TO WRITE
0080C6 0E00           08100                 MOVLW 0
MPASM  5.51       20191122_RGMODULE_RTCV1.ASM   11-25-2019  10:52:29         PAGE 159


LOC  OBJECT CODE     LINE SOURCE TEXT
  VALUE

0080C8 6EA9           08101                 MOVWF EEADR             ; LOWER BITS OF DATA MEMORY ADDRESS TO WRITE
                      08102 
0080CA 0E03           08103                 MOVLW   0X03
0080CC 6EEA           08104                 MOVWF   FSR0H   ;COMMAND MEMORY
0080CE 0E00           08105                 MOVLW   0X00
0080D0 6EE9           08106                 MOVWF   FSR0L   ;COMMAND MEMORY
                      08107 
0080D2                08108 DTR_EECMD0
0080D2 9EA6           08109                 BCF     EECON1, EEPGD ; POINT TO DATA MEMORY
0080D4 9CA6           08110                 BCF     EECON1, CFGS ; ACCESS EEPROM
0080D6 80A6           08111                 BSF             EECON1, RD ; EEPROM READ
0080D8 CFA8 F16C      08112                 MOVFF   EEDATA,W_TEMP
                      08113 
0080DC 0EFE           08114                 MOVLW   0XFE
0080DE 636C           08115                 CPFSEQ  W_TEMP
0080E0 EF74 F040      08116                 GOTO    DTR_EECMD1
0080E4 EF7B F040      08117                 GOTO    DTR_EECMD_EXIT
                      08118 
0080E8                08119 DTR_EECMD1
0080E8 CFA8 FFEF      08120                 MOVFF   EEDATA,INDF0
0080EC 2AE9           08121                 INCF    FSR0L
0080EE 2AA9           08122                 INCF    EEADR
0080F0 EF69 F040      08123                 GOTO    DTR_EECMD0
0080F4 0000           08124                 NOP
0080F6                08125 DTR_EECMD_EXIT
0080F6 CFA8 FFEF      08126                 MOVFF   EEDATA,INDF0
                      08127 
Warning[203]: Found opcode in column 1. (RETURN)
0080FA 0012           08128 RETURN
                      08129 ;====================================================================
                      08130 
                      08131 
                      08132 
                      08133 ;======================= EEPROM READ DATA ==========================
0080FC                08134 EEPROM_DATAREAD
Warning[203]: Found opcode in column 1. (RETURN)
0080FC 0012           08135 RETURN
                      08136 ;====================================================================
                      08137 
                      08138 
                      08139 
                      08140 
                      08141 ;=================== COMMAND MEMORY TO EEPROM DATA ====================
                      08142 ;COMMAND DATA MOVE TO EEPROM DATA
0080FE                08143 DATATRANS_CMD_TO_EEPROM
0080FE 0E00           08144                 MOVLW 0
008100 6EAA           08145                 MOVWF EEADRH            ; UPPER BITS OF DATA MEMORY ADDRESS TO WRITE
008102 0E00           08146                 MOVLW 0
008104 6EA9           08147                 MOVWF EEADR             ; LOWER BITS OF DATA MEMORY ADDRESS TO WRITE
                      08148 
008106 0E03           08149                 MOVLW   0X03
008108 6EEA           08150                 MOVWF   FSR0H   ;COMMAND MEMORY
00810A 0E00           08151                 MOVLW   0X00
MPASM  5.51       20191122_RGMODULE_RTCV1.ASM   11-25-2019  10:52:29         PAGE 160


LOC  OBJECT CODE     LINE SOURCE TEXT
  VALUE

00810C 6EE9           08152                 MOVWF   FSR0L   ;COMMAND MEMORY
                      08153 
00810E                08154 DTR_CMDEE0
00810E CFEF F16C      08155                 MOVFF   INDF0,W_TEMP
                      08156 
                      08157 
008112 0EFF           08158                 MOVLW   .255
008114 636C           08159                 CPFSEQ  W_TEMP
008116 EF8E F040      08160                 GOTO    DTR_CMDEE1
00811A 0012           08161                 RETURN
                      08162 
00811C                08163 DTR_CMDEE1
00811C CFEF FFA8      08164                 MOVFF   INDF0,EEDATA            ;CMD MEMORY
                      08165                                                                         ;ADDR= FSR0H,FSR0L
                      08166                                                                         ;MOVE TO EEPROM DATA
                      08167                                                                         ;ADDR= EEADRH,EEADR
008120 EC97 F040      08168                 CALL    EEPROM_DATAWRITE
008124 2AE9           08169                 INCF    FSR0L
008126 2AA9           08170                 INCF    EEADR
008128 EF87 F040      08171                 GOTO    DTR_CMDEE0
                      08172 
Warning[203]: Found opcode in column 1. (RETURN)
00812C 0012           08173 RETURN
                      08174 ;======================================================================
                      08175 
                      08176 ;======================= EEPROM WRITE DATA ============================
00812E                08177 EEPROM_DATAWRITE
                      08178 
00812E 9EA6           08179                 BCF     EECON1, 7               ;EPGD   ; POINT TO DATA MEMORY
008130 9CA6           08180                 BCF     EECON1, 6               ;CFGS   ; ACCESS EEPROM
008132 84A6           08181                 BSF     EECON1, 2               ;WREN   ; ENABLE WRITES
                      08182 
008134 9EF2           08183                 BCF     INTCON, GIE     ; DISABLE INTERRUPTS
008136 0E55           08184                 MOVLW   55H ;
008138 6EA7           08185                 MOVWF   EECON2                  ; WRITE 55H
00813A 0EAA           08186                 MOVLW   0AAH
00813C 6EA7           08187                 MOVWF   EECON2                  ; WRITE 0AAH
                      08188 
00813E 82A6           08189                 BSF     EECON1, 1;WR    ; SET WR BIT TO BEGIN WRITE
008140 8EF2           08190                 BSF     INTCON, GIE     ; ENABLE INTERRUPTS
                      08191                                                                 ; USER CODE EXECUTION
008142 94A6           08192                 BCF     EECON1, 2;WREN  ; DISABLE WRITES ON WRITE COMPLETE (EEIF SET)
                      08193 
008144                08194 EEDWR0
008144 B2A6           08195                 BTFSC   EECON1, 1
008146 EFA2 F040      08196                 GOTO    EEDWR0  
00814A 0000           08197                 NOP
                      08198 
Warning[203]: Found opcode in column 1. (RETURN)
00814C 0012           08199 RETURN
                      08200 ;====================================================================
                      08201 
                      08202 
MPASM  5.51       20191122_RGMODULE_RTCV1.ASM   11-25-2019  10:52:29         PAGE 161


LOC  OBJECT CODE     LINE SOURCE TEXT
  VALUE

Warning[205]: Found directive in column 1. (END)
                      08203 END
MPASM  5.51       20191122_RGMODULE_RTCV1.ASM   11-25-2019  10:52:29         PAGE 162


SYMBOL TABLE
  LABEL                             VALUE 

A                                 00000000
ABDEN                             00000000
ABDOVF                            00000007
ACCESS                            00000000
ACKDT                             00000005
ACKEN                             00000004
ACKSTAT                           00000006
ACQT0                             00000003
ACQT1                             00000004
ACQT2                             00000005
ADCON0                            00000FC2
ADCON1                            00000FC1
ADCON2                            00000FC0
ADCS0                             00000000
ADCS1                             00000001
ADCS2                             00000002
ADDEN                             00000003
ADEN                              00000003
ADFM                              00000007
ADIE                              00000006
ADIF                              00000006
ADIP                              00000006
ADON                              00000000
ADRES                             00000FC3
ADRESH                            00000FC4
ADRESL                            00000FC3
AN10                              00000001
AN11                              00000004
AN12                              00000000
AN4                               00000005
AN5                               00000000
AN6                               00000001
AN7                               00000002
AN8                               00000002
AN9                               00000003
BANKED                            00000001
BAUDCON                           00000FB8
BAUDCTL                           00000FB8
BCLIE                             00000003
BCLIF                             00000003
BCLIP                             00000003
BF                                00000000
BGST                              00000005
BOR                               00000000
BRG16                             00000003
BRGH                              00000002
BSR                               00000FE0
BSR_TEMP                          0000016E
BTCOUNT                           00000146
C                                 00000000
C1INV                             00000004
C1OUT                             00000006
C2INV                             00000005
MPASM  5.51       20191122_RGMODULE_RTCV1.ASM   11-25-2019  10:52:29         PAGE 163


SYMBOL TABLE
  LABEL                             VALUE 

C2OUT                             00000007
CCGDAT0                           0000019C
CCGDAT1                           000001A2
CCG_EXIT                          00000178
CCG_GET                           0000015E
CCG_SAVE                          0000016E
CCOUNT                            00000161
CCP1                              00000002
CCP1CON                           00000FBD
CCP1IE                            00000002
CCP1IF                            00000002
CCP1IP                            00000002
CCP1M0                            00000000
CCP1M1                            00000001
CCP1M2                            00000002
CCP1M3                            00000003
CCP1X                             00000005
CCP1Y                             00000004
CCP2CON                           00000FBA
CCP2IE                            00000000
CCP2IF                            00000000
CCP2IP                            00000000
CCP2M0                            00000000
CCP2M1                            00000001
CCP2M2                            00000002
CCP2M3                            00000003
CCP2X                             00000005
CCP2Y                             00000004
CCP2_PORTB                        00000003
CCP2_PORTC                        00000001
CCPR1                             00000FBE
CCPR1H                            00000FBF
CCPR1L                            00000FBE
CCPR2                             00000FBB
CCPR2H                            00000FBC
CCPR2L                            00000FBB
CFGS                              00000006
CFSR0                             0000024C
CFSR1                             0000025A
CFSR1C0                           00000280
CFSR2                             00000290
CFSRLOOP                          00000164
CGP0                              0000018C
CGP1                              000001AA
CGPST                             00000144
CGP_START                         00000138
CHAR                              00000170
CHARFSRH                          00000168
CHARFSRL                          00000169
CHS0                              00000002
CHS1                              00000003
CHS2                              00000004
CHS3                              00000005
MPASM  5.51       20191122_RGMODULE_RTCV1.ASM   11-25-2019  10:52:29         PAGE 164


SYMBOL TABLE
  LABEL                             VALUE 

CIS                               00000003
CK                                00000006
CKE                               00000006
CKP                               00000004
CLK_OFF                           BCF     LATD,5,0
CLK_ON                            BSF     LATD,5,0
CLR0                              000003BC
CLRCHAR0                          00000362
CLRCLM0                           0000037C
CLRCM0                            000080B4
CLRFSR0                           00000398
CLR_CHAR                          00000354
CLR_CMD_MEMORY                    000080A6
CLR_COLORM                        00000370
CLR_CSR                           0000038A
CLR_RAM                           000003AC
CM0                               00000000
CM1                               00000001
CM2                               00000002
CMCON                             00000FB4
CMD0                              0000030E
CMD64                             00000324
CMDD                              0000031E
CMDG127                           00000332
CMDG127C                          0000033E
CMD_CHAR                          0000809A
CMD_COLOR                         0000808E
CMD_CSRX                          0000807E
CMD_MEMORY                        00000300
CMD_SCROLL                        00008074
CMD_SUB                           000002B0
CMD_SUB0                          000002D4
CMD_SUB1                          000002E4
CMD_SUB2                          000002F0
CMIE                              00000006
CMIF                              00000006
CMIP                              00000006
COLOR                             00000147
COLORA                            0000015E
COLORM                            00000200
COLOR_FSRH                        0000015F
COLOR_FSRL                        00000160
COMMAND                           0000029A
COM_CPUGPU                        00000132
COUNT0                            00000142
COUNT1                            00000143
COUNT2                            00000144
CPU_DATA_READ                     0000017C
CREN                              00000004
CS                                00000002
CSRBIT                            00000163
CSRC                              00000007
CSRHBYTE                          00000165
MPASM  5.51       20191122_RGMODULE_RTCV1.ASM   11-25-2019  10:52:29         PAGE 165


SYMBOL TABLE
  LABEL                             VALUE 

CURSORFSR                         0000022A
CURSORX                           0000014C
CURSORX_TEMP                      0000014E
CURSORX_TEST                      000008AC
CURSORY                           0000014D
CVR0                              00000000
CVR1                              00000001
CVR2                              00000002
CVR3                              00000003
CVRCON                            00000FB5
CVREN                             00000007
CVROE                             00000006
CVRR                              00000005
CVRSS                             00000004
CX08                              000008B4
CX16                              000008C6
CX24                              000008DC
CX32                              000008F2
CX40                              00000908
CX48                              0000091E
CX56                              00000934
CX64                              00000948
CXGE16                            000008D4
CXGE24                            000008EA
CXGE32                            00000900
CXGE40                            00000916
CXGE48                            0000092C
CXGE56                            00000942
CXGE8                             000008BE
D                                 00000005
DATAINRAM                         000004E8
DATAREG                           000003DA
DATAREGSUB                        000003F2
DATATRANS_CMD_TO_EEPROM           000080FE
DATATRANS_EEPROM_TO_CMD           000080C2
DC                                00000001
DC1B0                             00000004
DC1B1                             00000005
DC2B0                             00000004
DC2B1                             00000005
DDISP                             000001F4
DDRA                              TRISA
DDRB                              TRISB
DDRC                              TRISC
DDRD                              TRISD
DDRE                              TRISE
DIR0                              00000500
DIR1                              0000051A
DIR2A                             000005AA
DIR2B                             000005D4
DIR2BA                            000005E8
DIR2C                             0000061A
DIR2CA                            0000062E
MPASM  5.51       20191122_RGMODULE_RTCV1.ASM   11-25-2019  10:52:29         PAGE 166


SYMBOL TABLE
  LABEL                             VALUE 

DIR2_YELLOW                       00000548
DIR3A                             000005AC
DIR3B                             000005EA
DIR3C                             00000630
DIR4A                             0000064A
DIR4B                             00000660
DIR4C                             00000678
DIR5                              0000067E
DIR6A                             000006B0
DIR6B                             000006DA
DIR6BA                            000006EE
DIR6C                             00000720
DIR6CA                            00000734
DIR7A                             000006B2
DIR7B                             000006F0
DIR7C                             00000736
DIRC                              000004F2
DIR_SUB                           00000578
DIR_SUB0                          0000058A
DIR_SUB1                          00000690
DISP                              000001F0
DISP0                             00000208
DISPLAY                           00000200
DMP0                              000004DE
DMP_FONT02                        00000494
DMP_FONT02CONT                    000004A2
DONE                              00000001
DR0                               000003F6
DR1                               00000410
DR2                               00000424
DR3                               00000438
DR4                               0000044C
DR5                               00000460
DRAM                              00000100
DTR_CMDEE0                        0000810E
DTR_CMDEE1                        0000811C
DTR_EECMD0                        000080D2
DTR_EECMD1                        000080E8
DTR_EECMD_EXIT                    000080F6
DUMP                              00000476
D_A                               00000005
D_NOT_A                           00000005
ECCP1AS                           00000FB6
ECCPAS0                           00000004
ECCPAS1                           00000005
ECCPAS2                           00000006
ECCPASE                           00000007
EEADR                             00000FA9
EEADRH                            00000FAA
EECON1                            00000FA6
EECON2                            00000FA7
EEDATA                            00000FA8
EEDWR0                            00008144
MPASM  5.51       20191122_RGMODULE_RTCV1.ASM   11-25-2019  10:52:29         PAGE 167


SYMBOL TABLE
  LABEL                             VALUE 

EEIE                              00000004
EEIF                              00000004
EEIP                              00000004
EEPGD                             00000007
EEPROM_DATAREAD                   000080FC
EEPROM_DATAWRITE                  0000812E
ENDPOINT0                         0000016A
ENDPOINT1                         0000016B
EXAMPLE                           00000000
FAST                              00000001
FERR                              00000002
FONT                              0000014A
FONT02H                           00000C00
FONT02H_CAP_A                     00001000
FONT02H_CAP_B                     00001200
FONT02H_CAP_C                     00001400
FONT02H_CAP_COLON                 00005C00
FONT02H_CAP_COMMA                 00006000
FONT02H_CAP_D                     00001600
FONT02H_CAP_DASH                  00005A00
FONT02H_CAP_DOT                   00006200
FONT02H_CAP_E                     00001800
FONT02H_CAP_EIGHT                 00005400
FONT02H_CAP_ENYE                  00005800
FONT02H_CAP_F                     00001A00
FONT02H_CAP_FIVE                  00004E00
FONT02H_CAP_FOUR                  00004C00
FONT02H_CAP_G                     00001C00
FONT02H_CAP_H                     00001E00
FONT02H_CAP_I                     00002000
FONT02H_CAP_J                     00002200
FONT02H_CAP_K                     00002400
FONT02H_CAP_L                     00002600
FONT02H_CAP_M                     00002800
FONT02H_CAP_N                     00002A00
FONT02H_CAP_NINE                  00005600
FONT02H_CAP_O                     00002C00
FONT02H_CAP_ONE                   00004600
FONT02H_CAP_P                     00002E00
FONT02H_CAP_Q                     00003000
FONT02H_CAP_R                     00003200
FONT02H_CAP_S                     00003400
FONT02H_CAP_SEMICOLON             00005E00
FONT02H_CAP_SEVEN                 00005200
FONT02H_CAP_SIX                   00005000
FONT02H_CAP_SPACE                 00006400
FONT02H_CAP_T                     00003600
FONT02H_CAP_THREE                 00004A00
FONT02H_CAP_TWO                   00004800
FONT02H_CAP_U                     00003800
FONT02H_CAP_V                     00003A00
FONT02H_CAP_W                     00003C00
FONT02H_CAP_X                     00003E00
MPASM  5.51       20191122_RGMODULE_RTCV1.ASM   11-25-2019  10:52:29         PAGE 168


SYMBOL TABLE
  LABEL                             VALUE 

FONT02H_CAP_Y                     00004000
FONT02H_CAP_Z                     00004200
FONT02H_CAP_ZERO                  00004400
FONT02H_ISL4                      00000E24
FONT02H_LOWERCASE                 00000E00
FONT02H_LOWERCASE0                00000E3A
FONT02H_LOW_A                     00001072
FONT02H_LOW_B                     00001272
FONT02H_LOW_C                     00001472
FONT02H_LOW_COLON                 00005C72
FONT02H_LOW_COMMA                 00006072
FONT02H_LOW_D                     00001672
FONT02H_LOW_DASH                  00005A72
FONT02H_LOW_DOT                   00006272
FONT02H_LOW_E                     00001872
FONT02H_LOW_ENYE                  00005872
FONT02H_LOW_F                     00001A72
FONT02H_LOW_G                     00001C72
FONT02H_LOW_H                     00001E72
FONT02H_LOW_I                     00002072
FONT02H_LOW_J                     00002272
FONT02H_LOW_K                     00002472
FONT02H_LOW_L                     00002672
FONT02H_LOW_M                     00002872
FONT02H_LOW_N                     00002A72
FONT02H_LOW_O                     00002C72
FONT02H_LOW_P                     00002E72
FONT02H_LOW_Q                     00003072
FONT02H_LOW_R                     00003272
FONT02H_LOW_S                     00003472
FONT02H_LOW_SEMICOLON             00005E72
FONT02H_LOW_T                     00003672
FONT02H_LOW_U                     00003872
FONT02H_LOW_V                     00003A72
FONT02H_LOW_W                     00003C72
FONT02H_LOW_X                     00003E78
FONT02H_LOW_Y                     00004078
FONT02H_LOW_Z                     00004272
FONT02H_NUMH_IS4                  00000E2C
FONT02H_NUMH_IS5                  00000E34
FONT02L                           00000D00
FONT02L_CAP_A                     00001100
FONT02L_CAP_B                     00001300
FONT02L_CAP_C                     00001500
FONT02L_CAP_COLON                 00005D00
FONT02L_CAP_COMMA                 00006100
FONT02L_CAP_D                     00001700
FONT02L_CAP_DASH                  00005B00
FONT02L_CAP_DOT                   00006300
FONT02L_CAP_E                     00001900
FONT02L_CAP_EIGHT                 00005500
FONT02L_CAP_ENYE                  00005900
FONT02L_CAP_F                     00001B00
MPASM  5.51       20191122_RGMODULE_RTCV1.ASM   11-25-2019  10:52:29         PAGE 169


SYMBOL TABLE
  LABEL                             VALUE 

FONT02L_CAP_FIVE                  00004F00
FONT02L_CAP_FOUR                  00004D00
FONT02L_CAP_G                     00001D00
FONT02L_CAP_H                     00001F00
FONT02L_CAP_I                     00002100
FONT02L_CAP_J                     00002300
FONT02L_CAP_K                     00002500
FONT02L_CAP_L                     00002700
FONT02L_CAP_M                     00002900
FONT02L_CAP_N                     00002B00
FONT02L_CAP_NINE                  00005700
FONT02L_CAP_O                     00002D00
FONT02L_CAP_ONE                   00004700
FONT02L_CAP_P                     00002F00
FONT02L_CAP_Q                     00003100
FONT02L_CAP_R                     00003300
FONT02L_CAP_S                     00003572
FONT02L_CAP_SEMICOLON             00005F00
FONT02L_CAP_SEVEN                 00005300
FONT02L_CAP_SIX                   00005100
FONT02L_CAP_SPACE                 00006500
FONT02L_CAP_T                     00003700
FONT02L_CAP_THREE                 00004B00
FONT02L_CAP_TWO                   00004900
FONT02L_CAP_U                     00003900
FONT02L_CAP_V                     00003B00
FONT02L_CAP_W                     00003D00
FONT02L_CAP_X                     00003F00
FONT02L_CAP_Y                     00004100
FONT02L_CAP_Z                     00004300
FONT02L_CAP_ZERO                  00004500
FONT02L_ISL4                      00000F24
FONT02L_LOWERCASE                 00000F00
FONT02L_LOWERCASE0                00000F3A
FONT02L_LOW_A                     00001172
FONT02L_LOW_B                     00001372
FONT02L_LOW_C                     00001572
FONT02L_LOW_COLON                 00005D72
FONT02L_LOW_COMMA                 00006172
FONT02L_LOW_D                     00001772
FONT02L_LOW_DASH                  00005B72
FONT02L_LOW_DOT                   00006372
FONT02L_LOW_E                     00001972
FONT02L_LOW_ENYE                  00005972
FONT02L_LOW_F                     00001B72
FONT02L_LOW_G                     00001D72
FONT02L_LOW_H                     00001F72
FONT02L_LOW_I                     00002172
FONT02L_LOW_J                     00002372
FONT02L_LOW_K                     00002572
FONT02L_LOW_L                     00002772
FONT02L_LOW_M                     00002972
FONT02L_LOW_N                     00002B72
MPASM  5.51       20191122_RGMODULE_RTCV1.ASM   11-25-2019  10:52:29         PAGE 170


SYMBOL TABLE
  LABEL                             VALUE 

FONT02L_LOW_O                     00002D72
FONT02L_LOW_P                     00002F72
FONT02L_LOW_Q                     00003172
FONT02L_LOW_R                     00003372
FONT02L_LOW_S                     00003500
FONT02L_LOW_SEMICOLON             00005F72
FONT02L_LOW_T                     00003772
FONT02L_LOW_U                     00003972
FONT02L_LOW_V                     00003B72
FONT02L_LOW_W                     00003D72
FONT02L_LOW_X                     00003F72
FONT02L_LOW_Y                     00004172
FONT02L_LOW_Z                     00004372
FONT02L_NUMH_IS4                  00000F2C
FONT02L_NUMH_IS5                  00000F34
FREE                              00000004
FSR0                              00000000
FSR0H                             00000FEA
FSR0L                             00000FE9
FSR1                              00000001
FSR1H                             00000FE2
FSR1L                             00000FE1
FSR2                              00000002
FSR2H                             00000FDA
FSR2L                             00000FD9
G0HI                              0000044A
G0LO                              00000444
G0_0                              BCF     LATB,2,0
G0_1                              BSF     LATB,2,0
G1HI                              0000045E
G1LO                              00000458
G1_0                              BCF     LATB,3,0
G1_1                              BSF     LATB,3,0
GCEN                              00000007
GIE                               00000007
GIEH                              00000007
GIEL                              00000006
GIE_GIEH                          00000007
GO                                00000001
GO_DONE                           00000001
GO_NOT_DONE                       00000001
GRNHALF0                          00000153
GRNHALF1                          00000154
HBCD                              00000302
HBHX                              0000079C
HBHX240                           000007C0
HBHX248                           000007DE
HBLX                              00000854
HBLX240                           00000878
HBLX248                           00000896
HIGHINT                           00000032
HLVDCON                           00000FD2
HLVDEN                            00000004
MPASM  5.51       20191122_RGMODULE_RTCV1.ASM   11-25-2019  10:52:29         PAGE 171


SYMBOL TABLE
  LABEL                             VALUE 

HLVDIE                            00000002
HLVDIF                            00000002
HLVDIN                            00000005
HLVDIP                            00000002
HLVDL0                            00000000
HLVDL1                            00000001
HLVDL2                            00000002
HLVDL3                            00000003
HTHPX                             00000784
HTH_CXGT40                        0000074E
HTH_CXGT48                        00000760
HTH_CXGT55                        00000772
HTLPX                             0000083C
HTL_CXGT40                        00000806
HTL_CXGT48                        00000818
HTL_CXGT55                        0000082A
HUB                               0000015D
HUBCHECKDUMP                      000002FA
HUBH_EXIT                         0000078E
HUBL_EXIT                         00000846
HUBTESTH                          0000073C
HUBTESTL                          000007F4
IBF                               00000007
IBOV                              00000005
IDLEN                             00000007
INDF0                             00000FEF
INDF1                             00000FE7
INDF2                             00000FDF
INIT                              00000034
INT0                              00000000
INT0E                             00000004
INT0F                             00000001
INT0IE                            00000004
INT0IF                            00000001
INT1                              00000001
INT1E                             00000003
INT1F                             00000000
INT1IE                            00000003
INT1IF                            00000000
INT1IP                            00000006
INT1P                             00000006
INT2                              00000002
INT2E                             00000004
INT2F                             00000001
INT2IE                            00000004
INT2IF                            00000001
INT2IP                            00000007
INT2P                             00000007
INTCON                            00000FF2
INTCON2                           00000FF1
INTCON3                           00000FF0
INTEDG0                           00000006
INTEDG1                           00000005
MPASM  5.51       20191122_RGMODULE_RTCV1.ASM   11-25-2019  10:52:29         PAGE 172


SYMBOL TABLE
  LABEL                             VALUE 

INTEDG2                           00000004
INTSRC                            00000007
IOFS                              00000002
IPEN                              00000007
IPR1                              00000F9F
IPR2                              00000FA2
IRCF0                             00000004
IRCF1                             00000005
IRCF2                             00000006
IRVST                             00000005
IVRST                             00000005
KBI0                              00000004
KBI1                              00000005
KBI2                              00000006
KBI3                              00000007
LATA                              00000F89
LATA0                             00000000
LATA1                             00000001
LATA2                             00000002
LATA3                             00000003
LATA4                             00000004
LATA5                             00000005
LATA6                             00000006
LATA7                             00000007
LATB                              00000F8A
LATB0                             00000000
LATB1                             00000001
LATB2                             00000002
LATB3                             00000003
LATB4                             00000004
LATB5                             00000005
LATB6                             00000006
LATB7                             00000007
LATC                              00000F8B
LATC0                             00000000
LATC1                             00000001
LATC2                             00000002
LATC3                             00000003
LATC4                             00000004
LATC5                             00000005
LATC6                             00000006
LATC7                             00000007
LATD                              00000F8C
LATD0                             00000000
LATD1                             00000001
LATD2                             00000002
LATD3                             00000003
LATD4                             00000004
LATD5                             00000005
LATD6                             00000006
LATD7                             00000007
LATE                              00000F8D
LATE0                             00000000
MPASM  5.51       20191122_RGMODULE_RTCV1.ASM   11-25-2019  10:52:29         PAGE 173


SYMBOL TABLE
  LABEL                             VALUE 

LATE1                             00000001
LATE2                             00000002
LAT_OFF                           BCF     LATD,6,0
LAT_ON                            BSF     LATD,6,0
LOOP                              00000141
LVDCON                            00000FD2
LVDEN                             00000004
LVDIE                             00000002
LVDIF                             00000002
LVDIN                             00000005
LVDIP                             00000002
LVDL0                             00000000
LVDL1                             00000001
LVDL2                             00000002
LVDL3                             00000003
LVV0                              00000000
LVV1                              00000001
LVV2                              00000002
LVV3                              00000003
MAIN                              00000116
MCLR                              00000003
MNSUB                             000001C2
MOVX                              000001A0
MOVX_TEMPH                        00000166
MOVX_TEMPL                        00000167
N                                 00000004
NOT_A                             00000005
NOT_ADDRESS                       00000005
NOT_BOR                           00000000
NOT_CS                            00000002
NOT_DONE                          00000001
NOT_MCLR                          00000003
NOT_PD                            00000002
NOT_POR                           00000001
NOT_RBPU                          00000007
NOT_RD                            00000000
NOT_RI                            00000004
NOT_SS                            00000005
NOT_T1SYNC                        00000002
NOT_T3SYNC                        00000002
NOT_TO                            00000003
NOT_W                             00000002
NOT_WR                            00000001
NOT_WRITE                         00000002
NUMBER                            00000148
OBF                               00000006
OERR                              00000001
OE_OFF                            BSF     LATD,7,0
OE_ON                             BCF     LATD,7,0
OSCCON                            00000FD3
OSCFIE                            00000007
OSCFIF                            00000007
OSCFIP                            00000007
MPASM  5.51       20191122_RGMODULE_RTCV1.ASM   11-25-2019  10:52:29         PAGE 174


SYMBOL TABLE
  LABEL                             VALUE 

OSCTUNE                           00000F9B
OSTS                              00000003
OV                                00000003
P                                 00000004
P1B                               00000005
P1C                               00000006
P1D                               00000007
P1M0                              00000006
P1M1                              00000007
PC                                00000FF9
PCFG0                             00000000
PCFG1                             00000001
PCFG2                             00000002
PCFG3                             00000003
PCL                               00000FF9
PCLATH                            00000FFA
PCLATH_TEMP                       0000016F
PCLATU                            00000FFB
PD                                00000002
PDC0                              00000000
PDC1                              00000001
PDC2                              00000002
PDC3                              00000003
PDC4                              00000004
PDC5                              00000005
PDC6                              00000006
PEIE                              00000006
PEIE_GIEL                         00000006
PEN                               00000002
PGC                               00000006
PGD                               00000007
PGM                               00000005
PIE1                              00000F9D
PIE2                              00000FA0
PIR1                              00000F9E
PIR2                              00000FA1
PLLEN                             00000006
PLUSW0                            00000FEB
PLUSW1                            00000FE3
PLUSW2                            00000FDB
POINTER                           00000145
POR                               00000001
PORTA                             00000F80
PORTB                             00000F81
PORTC                             00000F82
PORTD                             00000F83
PORTE                             00000F84
POSTDEC0                          00000FED
POSTDEC1                          00000FE5
POSTDEC2                          00000FDD
POSTINC0                          00000FEE
POSTINC1                          00000FE6
POSTINC2                          00000FDE
MPASM  5.51       20191122_RGMODULE_RTCV1.ASM   11-25-2019  10:52:29         PAGE 175


SYMBOL TABLE
  LABEL                             VALUE 

PR2                               00000FCB
PREINC0                           00000FEC
PREINC1                           00000FE4
PREINC2                           00000FDC
PROD                              00000FF3
PRODH                             00000FF4
PRODL                             00000FF3
PRSEN                             00000007
PSA                               00000003
PSP0                              00000000
PSP1                              00000001
PSP2                              00000002
PSP3                              00000003
PSP4                              00000004
PSP5                              00000005
PSP6                              00000006
PSP7                              00000007
PSPIE                             00000007
PSPIF                             00000007
PSPIP                             00000007
PSPMODE                           00000004
PSSAC0                            00000002
PSSAC1                            00000003
PSSBD0                            00000000
PSSBD1                            00000001
PWM1CON                           00000FB7
R                                 00000002
R0HI                              00000422
R0LO                              0000041C
R0_0                              BCF     LATB,0,0
R0_1                              BSF     LATB,0,0
R1HI                              00000436
R1LO                              00000430
R1_0                              BCF     LATB,1,0
R1_1                              BSF     LATB,1,0
RA0                               00000000
RA1                               00000001
RA2                               00000002
RA3                               00000003
RA4                               00000004
RA5                               00000005
RA6                               00000006
RA7                               00000007
RB0                               00000000
RB1                               00000001
RB2                               00000002
RB3                               00000003
RB4                               00000004
RB5                               00000005
RB6                               00000006
RB7                               00000007
RBIE                              00000003
RBIF                              00000000
MPASM  5.51       20191122_RGMODULE_RTCV1.ASM   11-25-2019  10:52:29         PAGE 176


SYMBOL TABLE
  LABEL                             VALUE 

RBIP                              00000000
RBPU                              00000007
RC0                               00000000
RC1                               00000001
RC2                               00000002
RC3                               00000003
RC4                               00000004
RC5                               00000005
RC6                               00000006
RC7                               00000007
RCEN                              00000003
RCIDL                             00000006
RCIE                              00000005
RCIF                              00000005
RCIP                              00000005
RCM0                              00008018
RCM1                              00008026
RCM2                              00008036
RCM3                              00008046
RCM4                              00008056
RCM5                              00008066
RCMT                              00000006
RCM_EXIT                          0000806C
RCON                              00000FD0
RCREG                             00000FAE
RCSTA                             00000FAB
RD                                00000000
RD0                               00000000
RD1                               00000001
RD16                              00000007
RD2                               00000002
RD3                               00000003
RD4                               00000004
RD5                               00000005
RD6                               00000006
RD7                               00000007
RE0                               00000000
RE1                               00000001
RE2                               00000002
RE3                               00000003
READ_CMD_MEMORY                   00008000
REDHALF0                          00000151
REDHALF1                          00000152
RI                                00000004
ROW                               00000149
RSEN                              00000001
RX                                00000007
RX9                               00000006
RX9D                              00000000
RXCKP                             00000005
RXDTP                             00000005
R_NOT_W                           00000002
R_W                               00000002
MPASM  5.51       20191122_RGMODULE_RTCV1.ASM   11-25-2019  10:52:29         PAGE 177


SYMBOL TABLE
  LABEL                             VALUE 

S                                 00000003
SBOREN                            00000006
SCK                               00000003
SCKP                              00000004
SCL                               00000003
SCRLLOOP                          00000162
SCROLL0                           00000122
SCROLL1                           0000012A
SCROLL_BIT                        00000150
SCS0                              00000000
SCS1                              00000001
SDA                               00000004
SDI                               00000004
SDO                               00000005
SEN                               00000000
SENDB                             00000003
SMP                               00000007
SP0                               00000000
SP1                               00000001
SP2                               00000002
SP3                               00000003
SP4                               00000004
SPBRG                             00000FAF
SPBRGH                            00000FB0
SPEN                              00000007
SPI_DATAIN                        00000140
SREN                              00000005
SS                                00000005
SSPADD                            00000FC8
SSPBUF                            00000FC9
SSPCON1                           00000FC6
SSPCON2                           00000FC5
SSPEN                             00000005
SSPIE                             00000003
SSPIF                             00000003
SSPIP                             00000003
SSPM0                             00000000
SSPM1                             00000001
SSPM2                             00000002
SSPM3                             00000003
SSPOV                             00000006
SSPSTAT                           00000FC7
STATUS                            00000FD8
STATUS_TEMP                       0000016D
STKFUL                            00000007
STKOVF                            00000007
STKPTR                            00000FFC
STKPTR0                           00000000
STKPTR1                           00000001
STKPTR2                           00000002
STKPTR3                           00000003
STKPTR4                           00000004
STKUNF                            00000006
MPASM  5.51       20191122_RGMODULE_RTCV1.ASM   11-25-2019  10:52:29         PAGE 178


SYMBOL TABLE
  LABEL                             VALUE 

STPT                              0000014B
SWDTE                             00000000
SWDTEN                            00000000
SYNC                              00000004
T016BIT                           00000006
T08BIT                            00000006
T0CKI                             00000004
T0CON                             00000FD5
T0CS                              00000005
T0IE                              00000005
T0IF                              00000002
T0PS0                             00000000
T0PS1                             00000001
T0PS2                             00000002
T0SE                              00000004
T13CKI                            00000000
T1CKI                             00000000
T1CKPS0                           00000004
T1CKPS1                           00000005
T1CON                             00000FCD
T1OSCEN                           00000003
T1OSI                             00000001
T1OSO                             00000000
T1RUN                             00000006
T1SYNC                            00000002
T2CKPS0                           00000000
T2CKPS1                           00000001
T2CON                             00000FCA
T2OUTPS0                          00000003
T2OUTPS1                          00000004
T2OUTPS2                          00000005
T2OUTPS3                          00000006
T3CCP1                            00000003
T3CCP2                            00000006
T3CKPS0                           00000004
T3CKPS1                           00000005
T3CON                             00000FB1
T3SYNC                            00000002
TABLAT                            00000FF5
TBLPTR                            00000FF6
TBLPTRH                           00000FF7
TBLPTRL                           00000FF6
TBLPTRU                           00000FF8
TEMPRAM                           00000155
TMR0                              00000FD6
TMR0H                             00000FD7
TMR0IE                            00000005
TMR0IF                            00000002
TMR0IP                            00000002
TMR0L                             00000FD6
TMR0ON                            00000007
TMR1                              00000FCE
TMR1CS                            00000001
MPASM  5.51       20191122_RGMODULE_RTCV1.ASM   11-25-2019  10:52:29         PAGE 179


SYMBOL TABLE
  LABEL                             VALUE 

TMR1H                             00000FCF
TMR1IE                            00000000
TMR1IF                            00000000
TMR1IP                            00000000
TMR1L                             00000FCE
TMR1ON                            00000000
TMR2                              00000FCC
TMR2IE                            00000001
TMR2IF                            00000001
TMR2IP                            00000001
TMR2ON                            00000002
TMR3                              00000FB2
TMR3CS                            00000001
TMR3H                             00000FB3
TMR3IE                            00000001
TMR3IF                            00000001
TMR3IP                            00000001
TMR3L                             00000FB2
TMR3ON                            00000000
TO                                00000003
TOS                               00000FFD
TOSH                              00000FFE
TOSL                              00000FFD
TOSU                              00000FFF
TRISA                             00000F92
TRISA0                            00000000
TRISA1                            00000001
TRISA2                            00000002
TRISA3                            00000003
TRISA4                            00000004
TRISA5                            00000005
TRISA6                            00000006
TRISA7                            00000007
TRISB                             00000F93
TRISB0                            00000000
TRISB1                            00000001
TRISB2                            00000002
TRISB3                            00000003
TRISB4                            00000004
TRISB5                            00000005
TRISB6                            00000006
TRISB7                            00000007
TRISC                             00000F94
TRISC0                            00000000
TRISC1                            00000001
TRISC2                            00000002
TRISC3                            00000003
TRISC4                            00000004
TRISC5                            00000005
TRISC6                            00000006
TRISC7                            00000007
TRISD                             00000F95
TRISD0                            00000000
MPASM  5.51       20191122_RGMODULE_RTCV1.ASM   11-25-2019  10:52:29         PAGE 180


SYMBOL TABLE
  LABEL                             VALUE 

TRISD1                            00000001
TRISD2                            00000002
TRISD3                            00000003
TRISD4                            00000004
TRISD5                            00000005
TRISD6                            00000006
TRISD7                            00000007
TRISE                             00000F96
TRISE0                            00000000
TRISE1                            00000001
TRISE2                            00000002
TRMT                              00000001
TUN0                              00000000
TUN1                              00000001
TUN2                              00000002
TUN3                              00000003
TUN4                              00000004
TX                                00000006
TX9                               00000006
TX9D                              00000000
TXCKP                             00000004
TXEN                              00000005
TXIE                              00000004
TXIF                              00000004
TXIP                              00000004
TXREG                             00000FAD
TXSTA                             00000FAC
UA                                00000001
VCFG0                             00000004
VCFG1                             00000005
VDIRMAG                           00000007
VPP                               00000003
W                                 00000000
WCOL                              00000007
WDTCON                            00000FD1
WIDTH                             0000014F
WIDTH_CHECK                       00007000
WR                                00000001
WREG                              00000FE8
WREN                              00000002
WRERR                             00000003
WUE                               00000001
W_TEMP                            0000016C
Z                                 00000002
_BOREN_NOSLP_2L                   000000FD
_BOREN_OFF_2L                     000000F9
_BOREN_ON_2L                      000000FB
_BOREN_SBORDIS_2L                 000000FF
_BORV_0_2L                        000000E7
_BORV_1_2L                        000000EF
_BORV_2_2L                        000000F7
_BORV_3_2L                        000000FF
_CCP2MX_PORTBE_3H                 000000FE
MPASM  5.51       20191122_RGMODULE_RTCV1.ASM   11-25-2019  10:52:29         PAGE 181


SYMBOL TABLE
  LABEL                             VALUE 

_CCP2MX_PORTC_3H                  000000FF
_CONFIG1H                         00300001
_CONFIG2H                         00300003
_CONFIG2L                         00300002
_CONFIG3H                         00300005
_CONFIG4L                         00300006
_CONFIG5H                         00300009
_CONFIG5L                         00300008
_CONFIG6H                         0030000B
_CONFIG6L                         0030000A
_CONFIG7H                         0030000D
_CONFIG7L                         0030000C
_CP0_OFF_5L                       000000FF
_CP0_ON_5L                        000000FE
_CP1_OFF_5L                       000000FF
_CP1_ON_5L                        000000FD
_CP2_OFF_5L                       000000FF
_CP2_ON_5L                        000000FB
_CP3_OFF_5L                       000000FF
_CP3_ON_5L                        000000F7
_CPB_OFF_5H                       000000FF
_CPB_ON_5H                        000000BF
_CPD_OFF_5H                       000000FF
_CPD_ON_5H                        0000007F
_DEBUG_OFF_4L                     000000FF
_DEBUG_ON_4L                      0000007F
_DEVID1                           003FFFFE
_DEVID2                           003FFFFF
_EBTR0_OFF_7L                     000000FF
_EBTR0_ON_7L                      000000FE
_EBTR1_OFF_7L                     000000FF
_EBTR1_ON_7L                      000000FD
_EBTR2_OFF_7L                     000000FF
_EBTR2_ON_7L                      000000FB
_EBTR3_OFF_7L                     000000FF
_EBTR3_ON_7L                      000000F7
_EBTRB_OFF_7H                     000000FF
_EBTRB_ON_7H                      000000BF
_FCMEN_OFF_1H                     000000BF
_FCMEN_ON_1H                      000000FF
_IDLOC0                           00200000
_IDLOC1                           00200001
_IDLOC2                           00200002
_IDLOC3                           00200003
_IDLOC4                           00200004
_IDLOC5                           00200005
_IDLOC6                           00200006
_IDLOC7                           00200007
_IESO_OFF_1H                      0000007F
_IESO_ON_1H                       000000FF
_LPT1OSC_OFF_3H                   000000FB
_LPT1OSC_ON_3H                    000000FF
_LVP_OFF_4L                       000000FB
MPASM  5.51       20191122_RGMODULE_RTCV1.ASM   11-25-2019  10:52:29         PAGE 182


SYMBOL TABLE
  LABEL                             VALUE 

_LVP_ON_4L                        000000FF
_MCLRE_OFF_3H                     0000007F
_MCLRE_ON_3H                      000000FF
_OSC_ECIO6_1H                     000000F5
_OSC_EC_1H                        000000F4
_OSC_HSPLL_1H                     000000F6
_OSC_HS_1H                        000000F2
_OSC_INTIO67_1H                   000000F8
_OSC_INTIO7_1H                    000000F9
_OSC_LP_1H                        000000F0
_OSC_RCIO6_1H                     000000F7
_OSC_RC_1H                        000000F3
_OSC_XT_1H                        000000F1
_PBADEN_OFF_3H                    000000FD
_PBADEN_ON_3H                     000000FF
_PWRT_OFF_2L                      000000FF
_PWRT_ON_2L                       000000FE
_STVREN_OFF_4L                    000000FE
_STVREN_ON_4L                     000000FF
_WDTPS_1024_2H                    000000F5
_WDTPS_128_2H                     000000EF
_WDTPS_16384_2H                   000000FD
_WDTPS_16_2H                      000000E9
_WDTPS_1_2H                       000000E1
_WDTPS_2048_2H                    000000F7
_WDTPS_256_2H                     000000F1
_WDTPS_2_2H                       000000E3
_WDTPS_32768_2H                   000000FF
_WDTPS_32_2H                      000000EB
_WDTPS_4096_2H                    000000F9
_WDTPS_4_2H                       000000E5
_WDTPS_512_2H                     000000F3
_WDTPS_64_2H                      000000ED
_WDTPS_8192_2H                    000000FB
_WDTPS_8_2H                       000000E7
_WDT_OFF_2H                       000000FE
_WDT_ON_2H                        000000FF
_WRT0_OFF_6L                      000000FF
_WRT0_ON_6L                       000000FE
_WRT1_OFF_6L                      000000FF
_WRT1_ON_6L                       000000FD
_WRT2_OFF_6L                      000000FF
_WRT2_ON_6L                       000000FB
_WRT3_OFF_6L                      000000FF
_WRT3_ON_6L                       000000F7
_WRTB_OFF_6H                      000000FF
_WRTB_ON_6H                       000000BF
_WRTC_OFF_6H                      000000FF
_WRTC_ON_6H                       000000DF
_WRTD_OFF_6H                      000000FF
_WRTD_ON_6H                       0000007F
_XINST_OFF_4L                     000000BF
_XINST_ON_4L                      000000FF
MPASM  5.51       20191122_RGMODULE_RTCV1.ASM   11-25-2019  10:52:29         PAGE 183


SYMBOL TABLE
  LABEL                             VALUE 

__18F4620                         00000001
__DEBUG                           1


MEMORY USAGE MAP ('X' = Used,  '-' = Unused)

0000 : XXXX----XX------ --------XXXXXXXX XXXXXXXXXXXXXXXX XXXXXXXXXXXXXXXX
0040 : XXXXXXXXXXXXXXXX XXXXXXXXXXXXXXXX XXXXXXXXXXXXXXXX XXXXXXXXXXXXXXXX
0080 : XXXXXXXXXXXXXXXX XXXXXXXXXXXXXXXX XXXXXXXXXXXXXXXX XXXXXXXXXXXXXXXX
00C0 : XXXXXXXXXXXXXXXX XXXXXXXXXXXXXXXX XXXXXXXXXXXXXXXX XXXXXXXXXXXXXXXX
0100 : XXXXXXXXXXXXXXXX XXXXXXXXXXXXXXXX XXXXXXXXXXXXXXXX XXXXXXXXXXXXXXXX
0140 : XXXXXXXXXXXXXXXX XXXXXXXXXXXXXXXX XXXXXXXXXXXXXXXX XXXXXXXXXXXXXXXX
0180 : XXXXXXXXXXXXXXXX XXXXXXXXXXXXXXXX XXXXXXXXXXXXXXXX XXXXXXXXXXXXXXXX
01C0 : XXXXXXXXXXXXXXXX XXXXXXXXXXXXXXXX XXXXXXXXXXXXXXXX XXXXXXXXXXXXXXXX
0200 : XXXXXXXXXXXXXXXX XXXXXXXXXXXXXXXX XXXXXXXXXXXXXXXX XXXXXXXXXXXXXXXX
0240 : XXXXXXXXXXXXXXXX XXXXXXXXXXXXXXXX XXXXXXXXXXXXXXXX XXXXXXXXXXXXXXXX
0280 : XXXXXXXXXXXXXXXX XXXXXXXXXXXXXXXX XXXXXXXXXXXXXXXX XXXXXXXXXXXXXXXX
02C0 : XXXXXXXXXXXXXXXX XXXXXXXXXXXXXXXX XXXXXXXXXXXXXXXX XXXXXXXXXXXXXXXX
0300 : XXXXXXXXXXXXXXXX XXXXXXXXXXXXXXXX XXXXXXXXXXXXXXXX XXXXXXXXXXXXXXXX
0340 : XXXXXXXXXXXXXXXX XXXXXXXXXXXXXXXX XXXXXXXXXXXXXXXX XXXXXXXXXXXXXXXX
0380 : XXXXXXXXXXXXXXXX XXXXXXXXXXXXXXXX XXXXXXXXXXXXXXXX XXXXXXXXXXXXXXXX
03C0 : XXXXXXXXXXXXXXXX XXXXXXXXXXXXXXXX XXXXXXXXXXXXXXXX XXXXXXXXXXXXXXXX
0400 : XXXXXXXXXXXXXXXX XXXXXXXXXXXXXXXX XXXXXXXXXXXXXXXX XXXXXXXXXXXXXXXX
0440 : XXXXXXXXXXXXXXXX XXXXXXXXXXXXXXXX XXXXXXXXXXXXXXXX XXXXXXXXXXXXXXXX
0480 : XXXXXXXXXXXXXXXX XXXXXXXXXXXXXXXX XXXXXXXXXXXXXXXX XXXXXXXXXXXXXXXX
04C0 : XXXXXXXXXXXXXXXX XXXXXXXXXXXXXXXX XXXXXXXXXXXXXXXX XXXXXXXXXXXXXXXX
0500 : XXXXXXXXXXXXXXXX XXXXXXXXXXXXXXXX XXXXXXXXXXXXXXXX XXXXXXXXXXXXXXXX
0540 : XXXXXXXXXXXXXXXX XXXXXXXXXXXXXXXX XXXXXXXXXXXXXXXX XXXXXXXXXXXXXXXX
0580 : XXXXXXXXXXXXXXXX XXXXXXXXXXXXXXXX XXXXXXXXXXXXXXXX XXXXXXXXXXXXXXXX
05C0 : XXXXXXXXXXXXXXXX XXXXXXXXXXXXXXXX XXXXXXXXXXXXXXXX XXXXXXXXXXXXXXXX
0600 : XXXXXXXXXXXXXXXX XXXXXXXXXXXXXXXX XXXXXXXXXXXXXXXX XXXXXXXXXXXXXXXX
0640 : XXXXXXXXXXXXXXXX XXXXXXXXXXXXXXXX XXXXXXXXXXXXXXXX XXXXXXXXXXXXXXXX
0680 : XXXXXXXXXXXXXXXX XXXXXXXXXXXXXXXX XXXXXXXXXXXXXXXX XXXXXXXXXXXXXXXX
06C0 : XXXXXXXXXXXXXXXX XXXXXXXXXXXXXXXX XXXXXXXXXXXXXXXX XXXXXXXXXXXXXXXX
0700 : XXXXXXXXXXXXXXXX XXXXXXXXXXXXXXXX XXXXXXXXXXXXXXXX XXXXXXXXXXXXXXXX
0740 : XXXXXXXXXXXXXXXX XXXXXXXXXXXXXXXX XXXXXXXXXXXXXXXX XXXXXXXXXXXXXXXX
0780 : XXXXXXXXXXXXXXXX XXXXXXXXXXXXXXXX XXXXXXXXXXXXXXXX XXXXXXXXXXXXXXXX
07C0 : XXXXXXXXXXXXXXXX XXXXXXXXXXXXXXXX XXXXXXXXXXXXXXXX XXXXXXXXXXXXXXXX
0800 : XXXXXXXXXXXXXXXX XXXXXXXXXXXXXXXX XXXXXXXXXXXXXXXX XXXXXXXXXXXXXXXX
0840 : XXXXXXXXXXXXXXXX XXXXXXXXXXXXXXXX XXXXXXXXXXXXXXXX XXXXXXXXXXXXXXXX
0880 : XXXXXXXXXXXXXXXX XXXXXXXXXXXXXXXX XXXXXXXXXXXXXXXX XXXXXXXXXXXXXXXX
08C0 : XXXXXXXXXXXXXXXX XXXXXXXXXXXXXXXX XXXXXXXXXXXXXXXX XXXXXXXXXXXXXXXX
0900 : XXXXXXXXXXXXXXXX XXXXXXXXXXXXXXXX XXXXXXXXXXXXXXXX XXXXXXXXXXXXXXXX
0940 : XXXXXXXXXXXXXXXX XXXXXXXX-------- ---------------- ----------------
0C00 : XXXXXXXXXXXXXXXX XXXXXXXXXXXXXXXX XXXXXXXXXXXXXXXX XXXXXXXXXXXXXXXX
0C40 : XXXXXXXXXXXXXXXX XXXXXXXXXXXXXXXX XXXXXXXXXXXXXXXX XXXXXXXXXXXXXXXX
MPASM  5.51       20191122_RGMODULE_RTCV1.ASM   11-25-2019  10:52:29         PAGE 184


MEMORY USAGE MAP ('X' = Used,  '-' = Unused)


0C80 : XXXXXXXXXXXXXXXX XXXXXXXXXXXXXXXX XXXXXXXXXXXXXXXX XXXXXXXXXXXXXXXX
0CC0 : XXXXXXXXXXXXXXXX XXXXXXXXXXXXXXXX XX-------------- ----------------
0D00 : XXXXXXXXXXXXXXXX XXXXXXXXXXXXXXXX XXXXXXXXXXXXXXXX XXXXXXXXXXXXXXXX
0D40 : XXXXXXXXXXXXXXXX XXXXXXXXXXXXXXXX XXXXXXXXXXXXXXXX XXXXXXXXXXXXXXXX
0D80 : XXXXXXXXXXXXXXXX XXXXXXXXXXXXXXXX XXXXXXXXXXXXXXXX XXXXXXXXXXXXXXXX
0DC0 : XXXXXXXXXXXXXXXX XXXXXXXXXXXXXXXX ---------------- ----------------
0E00 : XXXXXXXXXXXXXXXX XXXXXXXXXXXXXXXX XXXXXXXXXXXXXXXX XXXXXXXXXXXXXXXX
0E40 : XXXXXXXXXXXXXXXX XXXXXXXXXXXXXXXX XXXXXXXXXXXXXXXX XXXXXXXXXXXXXXXX
0E80 : XXXXXXXXXXXXXXXX XXXXXXXXXXXXXXXX XXXXXXXXXXXXXXXX XXXXXXXXXXXXXXXX
0EC0 : XXXXXXXXXXXXXXXX XXXXXXXXXXXXXXXX XXXXXXXXXXXXXXXX XX--------------
0F00 : XXXXXXXXXXXXXXXX XXXXXXXXXXXXXXXX XXXXXXXXXXXXXXXX XXXXXXXXXXXXXXXX
0F40 : XXXXXXXXXXXXXXXX XXXXXXXXXXXXXXXX XXXXXXXXXXXXXXXX XXXXXXXXXXXXXXXX
0F80 : XXXXXXXXXXXXXXXX XXXXXXXXXXXXXXXX XXXXXXXXXXXXXXXX XXXXXXXXXXXXXXXX
0FC0 : XXXXXXXXXXXXXXXX XXXXXXXXXXXXXXXX XXXXXXXXXXXXXXXX XX--------------
1000 : XXXXXXXXXXXXXXXX XXXXXXXXXXXXXXXX XXXXXXXXXXXXXXXX XXXXXXXXXXXXXXXX
1040 : XXXXXXXXXXXXXXXX XXXXXXXXXXXXXXXX XXXXXXXXXXXXXXXX XXXXXXXXXXXXXXXX
1080 : XXXXXXXXXXXXXXXX XXXXXXXXXXXXXXXX XXXXXXXXXXXXXXXX XXXXXXXXXXXXXXXX
10C0 : XXXXXXXXXXXXXXXX XXXXXXXXXXXXXXXX XXXX------------ ----------------
1100 : XXXXXXXXXXXXXXXX XXXXXXXXXXXXXXXX XXXXXXXXXXXXXXXX XXXXXXXXXXXXXXXX
1140 : XXXXXXXXXXXXXXXX XXXXXXXXXXXXXXXX XXXXXXXXXXXXXXXX XXXXXXXXXXXXXXXX
1180 : XXXXXXXXXXXXXXXX XXXXXXXXXXXXXXXX XXXXXXXXXXXXXXXX XXXXXXXXXXXXXXXX
11C0 : XXXXXXXXXXXXXXXX XXXXXXXXXXXXXXXX XXXX------------ ----------------
1200 : XXXXXXXXXXXXXXXX XXXXXXXXXXXXXXXX XXXXXXXXXXXXXXXX XXXXXXXXXXXXXXXX
1240 : XXXXXXXXXXXXXXXX XXXXXXXXXXXXXXXX XXXXXXXXXXXXXXXX XXXXXXXXXXXXXXXX
1280 : XXXXXXXXXXXXXXXX XXXXXXXXXXXXXXXX XXXXXXXXXXXXXXXX XXXXXXXXXXXXXXXX
12C0 : XXXXXXXXXXXXXXXX XXXXXXXXXXXXXXXX XXXX------------ ----------------
1300 : XXXXXXXXXXXXXXXX XXXXXXXXXXXXXXXX XXXXXXXXXXXXXXXX XXXXXXXXXXXXXXXX
1340 : XXXXXXXXXXXXXXXX XXXXXXXXXXXXXXXX XXXXXXXXXXXXXXXX XXXXXXXXXXXXXXXX
1380 : XXXXXXXXXXXXXXXX XXXXXXXXXXXXXXXX XXXXXXXXXXXXXXXX XXXXXXXXXXXXXXXX
13C0 : XXXXXXXXXXXXXXXX XXXXXXXXXXXXXXXX XXXX------------ ----------------
1400 : XXXXXXXXXXXXXXXX XXXXXXXXXXXXXXXX XXXXXXXXXXXXXXXX XXXXXXXXXXXXXXXX
1440 : XXXXXXXXXXXXXXXX XXXXXXXXXXXXXXXX XXXXXXXXXXXXXXXX XXXXXXXXXXXXXXXX
1480 : XXXXXXXXXXXXXXXX XXXXXXXXXXXXXXXX XXXXXXXXXXXXXXXX XXXXXXXXXXXXXXXX
14C0 : XXXXXXXXXXXXXXXX XXXXXXXXXXXXXXXX XXXX------------ ----------------
1500 : XXXXXXXXXXXXXXXX XXXXXXXXXXXXXXXX XXXXXXXXXXXXXXXX XXXXXXXXXXXXXXXX
1540 : XXXXXXXXXXXXXXXX XXXXXXXXXXXXXXXX XXXXXXXXXXXXXXXX XXXXXXXXXXXXXXXX
1580 : XXXXXXXXXXXXXXXX XXXXXXXXXXXXXXXX XXXXXXXXXXXXXXXX XXXXXXXXXXXXXXXX
15C0 : XXXXXXXXXXXXXXXX XXXXXXXXXXXXXXXX XXXX------------ ----------------
1600 : XXXXXXXXXXXXXXXX XXXXXXXXXXXXXXXX XXXXXXXXXXXXXXXX XXXXXXXXXXXXXXXX
1640 : XXXXXXXXXXXXXXXX XXXXXXXXXXXXXXXX XXXXXXXXXXXXXXXX XXXXXXXXXXXXXXXX
1680 : XXXXXXXXXXXXXXXX XXXXXXXXXXXXXXXX XXXXXXXXXXXXXXXX XXXXXXXXXXXXXXXX
16C0 : XXXXXXXXXXXXXXXX XXXXXXXXXXXXXXXX XXXX------------ ----------------
1700 : XXXXXXXXXXXXXXXX XXXXXXXXXXXXXXXX XXXXXXXXXXXXXXXX XXXXXXXXXXXXXXXX
1740 : XXXXXXXXXXXXXXXX XXXXXXXXXXXXXXXX XXXXXXXXXXXXXXXX XXXXXXXXXXXXXXXX
1780 : XXXXXXXXXXXXXXXX XXXXXXXXXXXXXXXX XXXXXXXXXXXXXXXX XXXXXXXXXXXXXXXX
17C0 : XXXXXXXXXXXXXXXX XXXXXXXXXXXXXXXX XXXX------------ ----------------
MPASM  5.51       20191122_RGMODULE_RTCV1.ASM   11-25-2019  10:52:29         PAGE 185


MEMORY USAGE MAP ('X' = Used,  '-' = Unused)


1800 : XXXXXXXXXXXXXXXX XXXXXXXXXXXXXXXX XXXXXXXXXXXXXXXX XXXXXXXXXXXXXXXX
1840 : XXXXXXXXXXXXXXXX XXXXXXXXXXXXXXXX XXXXXXXXXXXXXXXX XXXXXXXXXXXXXXXX
1880 : XXXXXXXXXXXXXXXX XXXXXXXXXXXXXXXX XXXXXXXXXXXXXXXX XXXXXXXXXXXXXXXX
18C0 : XXXXXXXXXXXXXXXX XXXXXXXXXXXXXXXX XXXX------------ ----------------
1900 : XXXXXXXXXXXXXXXX XXXXXXXXXXXXXXXX XXXXXXXXXXXXXXXX XXXXXXXXXXXXXXXX
1940 : XXXXXXXXXXXXXXXX XXXXXXXXXXXXXXXX XXXXXXXXXXXXXXXX XXXXXXXXXXXXXXXX
1980 : XXXXXXXXXXXXXXXX XXXXXXXXXXXXXXXX XXXXXXXXXXXXXXXX XXXXXXXXXXXXXXXX
19C0 : XXXXXXXXXXXXXXXX XXXXXXXXXXXXXXXX XXXX------------ ----------------
1A00 : XXXXXXXXXXXXXXXX XXXXXXXXXXXXXXXX XXXXXXXXXXXXXXXX XXXXXXXXXXXXXXXX
1A40 : XXXXXXXXXXXXXXXX XXXXXXXXXXXXXXXX XXXXXXXXXXXXXXXX XXXXXXXXXXXXXXXX
1A80 : XXXXXXXXXXXXXXXX XXXXXXXXXXXXXXXX XXXXXXXXXXXXXXXX XXXXXXXXXXXXXXXX
1AC0 : XXXXXXXXXXXXXXXX XXXXXXXXXXXXXXXX XXXX------------ ----------------
1B00 : XXXXXXXXXXXXXXXX XXXXXXXXXXXXXXXX XXXXXXXXXXXXXXXX XXXXXXXXXXXXXXXX
1B40 : XXXXXXXXXXXXXXXX XXXXXXXXXXXXXXXX XXXXXXXXXXXXXXXX XXXXXXXXXXXXXXXX
1B80 : XXXXXXXXXXXXXXXX XXXXXXXXXXXXXXXX XXXXXXXXXXXXXXXX XXXXXXXXXXXXXXXX
1BC0 : XXXXXXXXXXXXXXXX XXXXXXXXXXXXXXXX XXXX------------ ----------------
1C00 : XXXXXXXXXXXXXXXX XXXXXXXXXXXXXXXX XXXXXXXXXXXXXXXX XXXXXXXXXXXXXXXX
1C40 : XXXXXXXXXXXXXXXX XXXXXXXXXXXXXXXX XXXXXXXXXXXXXXXX XXXXXXXXXXXXXXXX
1C80 : XXXXXXXXXXXXXXXX XXXXXXXXXXXXXXXX XXXXXXXXXXXXXXXX XXXXXXXXXXXXXXXX
1CC0 : XXXXXXXXXXXXXXXX XXXXXXXXXXXXXXXX XXXX------------ ----------------
1D00 : XXXXXXXXXXXXXXXX XXXXXXXXXXXXXXXX XXXXXXXXXXXXXXXX XXXXXXXXXXXXXXXX
1D40 : XXXXXXXXXXXXXXXX XXXXXXXXXXXXXXXX XXXXXXXXXXXXXXXX XXXXXXXXXXXXXXXX
1D80 : XXXXXXXXXXXXXXXX XXXXXXXXXXXXXXXX XXXXXXXXXXXXXXXX XXXXXXXXXXXXXXXX
1DC0 : XXXXXXXXXXXXXXXX XXXXXXXXXXXXXXXX XXXX------------ ----------------
1E00 : XXXXXXXXXXXXXXXX XXXXXXXXXXXXXXXX XXXXXXXXXXXXXXXX XXXXXXXXXXXXXXXX
1E40 : XXXXXXXXXXXXXXXX XXXXXXXXXXXXXXXX XXXXXXXXXXXXXXXX XXXXXXXXXXXXXXXX
1E80 : XXXXXXXXXXXXXXXX XXXXXXXXXXXXXXXX XXXXXXXXXXXXXXXX XXXXXXXXXXXXXXXX
1EC0 : XXXXXXXXXXXXXXXX XXXXXXXXXXXXXXXX XXXX------------ ----------------
1F00 : XXXXXXXXXXXXXXXX XXXXXXXXXXXXXXXX XXXXXXXXXXXXXXXX XXXXXXXXXXXXXXXX
1F40 : XXXXXXXXXXXXXXXX XXXXXXXXXXXXXXXX XXXXXXXXXXXXXXXX XXXXXXXXXXXXXXXX
1F80 : XXXXXXXXXXXXXXXX XXXXXXXXXXXXXXXX XXXXXXXXXXXXXXXX XXXXXXXXXXXXXXXX
1FC0 : XXXXXXXXXXXXXXXX XXXXXXXXXXXXXXXX XXXX------------ ----------------
2000 : XXXXXXXXXXXXXXXX XXXXXXXXXXXXXXXX XXXXXXXXXXXXXXXX XXXXXXXXXXXXXXXX
2040 : XXXXXXXXXXXXXXXX XXXXXXXXXXXXXXXX XXXXXXXXXXXXXXXX XXXXXXXXXXXXXXXX
2080 : XXXXXXXXXXXXXXXX XXXXXXXXXXXXXXXX XXXXXXXXXXXXXXXX XXXXXXXXXXXXXXXX
20C0 : XXXXXXXXXXXXXXXX XXXXXXXXXXXXXXXX XXXX------------ ----------------
2100 : XXXXXXXXXXXXXXXX XXXXXXXXXXXXXXXX XXXXXXXXXXXXXXXX XXXXXXXXXXXXXXXX
2140 : XXXXXXXXXXXXXXXX XXXXXXXXXXXXXXXX XXXXXXXXXXXXXXXX XXXXXXXXXXXXXXXX
2180 : XXXXXXXXXXXXXXXX XXXXXXXXXXXXXXXX XXXXXXXXXXXXXXXX XXXXXXXXXXXXXXXX
21C0 : XXXXXXXXXXXXXXXX XXXXXXXXXXXXXXXX XXXX------------ ----------------
2200 : XXXXXXXXXXXXXXXX XXXXXXXXXXXXXXXX XXXXXXXXXXXXXXXX XXXXXXXXXXXXXXXX
2240 : XXXXXXXXXXXXXXXX XXXXXXXXXXXXXXXX XXXXXXXXXXXXXXXX XXXXXXXXXXXXXXXX
2280 : XXXXXXXXXXXXXXXX XXXXXXXXXXXXXXXX XXXXXXXXXXXXXXXX XXXXXXXXXXXXXXXX
22C0 : XXXXXXXXXXXXXXXX XXXXXXXXXXXXXXXX XXXX------------ ----------------
2300 : XXXXXXXXXXXXXXXX XXXXXXXXXXXXXXXX XXXXXXXXXXXXXXXX XXXXXXXXXXXXXXXX
2340 : XXXXXXXXXXXXXXXX XXXXXXXXXXXXXXXX XXXXXXXXXXXXXXXX XXXXXXXXXXXXXXXX
MPASM  5.51       20191122_RGMODULE_RTCV1.ASM   11-25-2019  10:52:29         PAGE 186


MEMORY USAGE MAP ('X' = Used,  '-' = Unused)


2380 : XXXXXXXXXXXXXXXX XXXXXXXXXXXXXXXX XXXXXXXXXXXXXXXX XXXXXXXXXXXXXXXX
23C0 : XXXXXXXXXXXXXXXX XXXXXXXXXXXXXXXX XXXX------------ ----------------
2400 : XXXXXXXXXXXXXXXX XXXXXXXXXXXXXXXX XXXXXXXXXXXXXXXX XXXXXXXXXXXXXXXX
2440 : XXXXXXXXXXXXXXXX XXXXXXXXXXXXXXXX XXXXXXXXXXXXXXXX XXXXXXXXXXXXXXXX
2480 : XXXXXXXXXXXXXXXX XXXXXXXXXXXXXXXX XXXXXXXXXXXXXXXX XXXXXXXXXXXXXXXX
24C0 : XXXXXXXXXXXXXXXX XXXXXXXXXXXXXXXX XXXX------------ ----------------
2500 : XXXXXXXXXXXXXXXX XXXXXXXXXXXXXXXX XXXXXXXXXXXXXXXX XXXXXXXXXXXXXXXX
2540 : XXXXXXXXXXXXXXXX XXXXXXXXXXXXXXXX XXXXXXXXXXXXXXXX XXXXXXXXXXXXXXXX
2580 : XXXXXXXXXXXXXXXX XXXXXXXXXXXXXXXX XXXXXXXXXXXXXXXX XXXXXXXXXXXXXXXX
25C0 : XXXXXXXXXXXXXXXX XXXXXXXXXXXXXXXX XXXX------------ ----------------
2600 : XXXXXXXXXXXXXXXX XXXXXXXXXXXXXXXX XXXXXXXXXXXXXXXX XXXXXXXXXXXXXXXX
2640 : XXXXXXXXXXXXXXXX XXXXXXXXXXXXXXXX XXXXXXXXXXXXXXXX XXXXXXXXXXXXXXXX
2680 : XXXXXXXXXXXXXXXX XXXXXXXXXXXXXXXX XXXXXXXXXXXXXXXX XXXXXXXXXXXXXXXX
26C0 : XXXXXXXXXXXXXXXX XXXXXXXXXXXXXXXX XXXX------------ ----------------
2700 : XXXXXXXXXXXXXXXX XXXXXXXXXXXXXXXX XXXXXXXXXXXXXXXX XXXXXXXXXXXXXXXX
2740 : XXXXXXXXXXXXXXXX XXXXXXXXXXXXXXXX XXXXXXXXXXXXXXXX XXXXXXXXXXXXXXXX
2780 : XXXXXXXXXXXXXXXX XXXXXXXXXXXXXXXX XXXXXXXXXXXXXXXX XXXXXXXXXXXXXXXX
27C0 : XXXXXXXXXXXXXXXX XXXXXXXXXXXXXXXX XXXX------------ ----------------
2800 : XXXXXXXXXXXXXXXX XXXXXXXXXXXXXXXX XXXXXXXXXXXXXXXX XXXXXXXXXXXXXXXX
2840 : XXXXXXXXXXXXXXXX XXXXXXXXXXXXXXXX XXXXXXXXXXXXXXXX XXXXXXXXXXXXXXXX
2880 : XXXXXXXXXXXXXXXX XXXXXXXXXXXXXXXX XXXXXXXXXXXXXXXX XXXXXXXXXXXXXXXX
28C0 : XXXXXXXXXXXXXXXX XXXXXXXXXXXXXXXX XXXX------------ ----------------
2900 : XXXXXXXXXXXXXXXX XXXXXXXXXXXXXXXX XXXXXXXXXXXXXXXX XXXXXXXXXXXXXXXX
2940 : XXXXXXXXXXXXXXXX XXXXXXXXXXXXXXXX XXXXXXXXXXXXXXXX XXXXXXXXXXXXXXXX
2980 : XXXXXXXXXXXXXXXX XXXXXXXXXXXXXXXX XXXXXXXXXXXXXXXX XXXXXXXXXXXXXXXX
29C0 : XXXXXXXXXXXXXXXX XXXXXXXXXXXXXXXX XXXX------------ ----------------
2A00 : XXXXXXXXXXXXXXXX XXXXXXXXXXXXXXXX XXXXXXXXXXXXXXXX XXXXXXXXXXXXXXXX
2A40 : XXXXXXXXXXXXXXXX XXXXXXXXXXXXXXXX XXXXXXXXXXXXXXXX XXXXXXXXXXXXXXXX
2A80 : XXXXXXXXXXXXXXXX XXXXXXXXXXXXXXXX XXXXXXXXXXXXXXXX XXXXXXXXXXXXXXXX
2AC0 : XXXXXXXXXXXXXXXX XXXXXXXXXXXXXXXX XXXX------------ ----------------
2B00 : XXXXXXXXXXXXXXXX XXXXXXXXXXXXXXXX XXXXXXXXXXXXXXXX XXXXXXXXXXXXXXXX
2B40 : XXXXXXXXXXXXXXXX XXXXXXXXXXXXXXXX XXXXXXXXXXXXXXXX XXXXXXXXXXXXXXXX
2B80 : XXXXXXXXXXXXXXXX XXXXXXXXXXXXXXXX XXXXXXXXXXXXXXXX XXXXXXXXXXXXXXXX
2BC0 : XXXXXXXXXXXXXXXX XXXXXXXXXXXXXXXX XXXX------------ ----------------
2C00 : XXXXXXXXXXXXXXXX XXXXXXXXXXXXXXXX XXXXXXXXXXXXXXXX XXXXXXXXXXXXXXXX
2C40 : XXXXXXXXXXXXXXXX XXXXXXXXXXXXXXXX XXXXXXXXXXXXXXXX XXXXXXXXXXXXXXXX
2C80 : XXXXXXXXXXXXXXXX XXXXXXXXXXXXXXXX XXXXXXXXXXXXXXXX XXXXXXXXXXXXXXXX
2CC0 : XXXXXXXXXXXXXXXX XXXXXXXXXXXXXXXX XXXX------------ ----------------
2D00 : XXXXXXXXXXXXXXXX XXXXXXXXXXXXXXXX XXXXXXXXXXXXXXXX XXXXXXXXXXXXXXXX
2D40 : XXXXXXXXXXXXXXXX XXXXXXXXXXXXXXXX XXXXXXXXXXXXXXXX XXXXXXXXXXXXXXXX
2D80 : XXXXXXXXXXXXXXXX XXXXXXXXXXXXXXXX XXXXXXXXXXXXXXXX XXXXXXXXXXXXXXXX
2DC0 : XXXXXXXXXXXXXXXX XXXXXXXXXXXXXXXX XXXX------------ ----------------
2E00 : XXXXXXXXXXXXXXXX XXXXXXXXXXXXXXXX XXXXXXXXXXXXXXXX XXXXXXXXXXXXXXXX
2E40 : XXXXXXXXXXXXXXXX XXXXXXXXXXXXXXXX XXXXXXXXXXXXXXXX XXXXXXXXXXXXXXXX
2E80 : XXXXXXXXXXXXXXXX XXXXXXXXXXXXXXXX XXXXXXXXXXXXXXXX XXXXXXXXXXXXXXXX
2EC0 : XXXXXXXXXXXXXXXX XXXXXXXXXXXXXXXX XXXX------------ ----------------
MPASM  5.51       20191122_RGMODULE_RTCV1.ASM   11-25-2019  10:52:29         PAGE 187


MEMORY USAGE MAP ('X' = Used,  '-' = Unused)


2F00 : XXXXXXXXXXXXXXXX XXXXXXXXXXXXXXXX XXXXXXXXXXXXXXXX XXXXXXXXXXXXXXXX
2F40 : XXXXXXXXXXXXXXXX XXXXXXXXXXXXXXXX XXXXXXXXXXXXXXXX XXXXXXXXXXXXXXXX
2F80 : XXXXXXXXXXXXXXXX XXXXXXXXXXXXXXXX XXXXXXXXXXXXXXXX XXXXXXXXXXXXXXXX
2FC0 : XXXXXXXXXXXXXXXX XXXXXXXXXXXXXXXX XXXX------------ ----------------
3000 : XXXXXXXXXXXXXXXX XXXXXXXXXXXXXXXX XXXXXXXXXXXXXXXX XXXXXXXXXXXXXXXX
3040 : XXXXXXXXXXXXXXXX XXXXXXXXXXXXXXXX XXXXXXXXXXXXXXXX XXXXXXXXXXXXXXXX
3080 : XXXXXXXXXXXXXXXX XXXXXXXXXXXXXXXX XXXXXXXXXXXXXXXX XXXXXXXXXXXXXXXX
30C0 : XXXXXXXXXXXXXXXX XXXXXXXXXXXXXXXX XXXX------------ ----------------
3100 : XXXXXXXXXXXXXXXX XXXXXXXXXXXXXXXX XXXXXXXXXXXXXXXX XXXXXXXXXXXXXXXX
3140 : XXXXXXXXXXXXXXXX XXXXXXXXXXXXXXXX XXXXXXXXXXXXXXXX XXXXXXXXXXXXXXXX
3180 : XXXXXXXXXXXXXXXX XXXXXXXXXXXXXXXX XXXXXXXXXXXXXXXX XXXXXXXXXXXXXXXX
31C0 : XXXXXXXXXXXXXXXX XXXXXXXXXXXXXXXX XXXX------------ ----------------
3200 : XXXXXXXXXXXXXXXX XXXXXXXXXXXXXXXX XXXXXXXXXXXXXXXX XXXXXXXXXXXXXXXX
3240 : XXXXXXXXXXXXXXXX XXXXXXXXXXXXXXXX XXXXXXXXXXXXXXXX XXXXXXXXXXXXXXXX
3280 : XXXXXXXXXXXXXXXX XXXXXXXXXXXXXXXX XXXXXXXXXXXXXXXX XXXXXXXXXXXXXXXX
32C0 : XXXXXXXXXXXXXXXX XXXXXXXXXXXXXXXX XXXX------------ ----------------
3300 : XXXXXXXXXXXXXXXX XXXXXXXXXXXXXXXX XXXXXXXXXXXXXXXX XXXXXXXXXXXXXXXX
3340 : XXXXXXXXXXXXXXXX XXXXXXXXXXXXXXXX XXXXXXXXXXXXXXXX XXXXXXXXXXXXXXXX
3380 : XXXXXXXXXXXXXXXX XXXXXXXXXXXXXXXX XXXXXXXXXXXXXXXX XXXXXXXXXXXXXXXX
33C0 : XXXXXXXXXXXXXXXX XXXXXXXXXXXXXXXX XXXX------------ ----------------
3400 : XXXXXXXXXXXXXXXX XXXXXXXXXXXXXXXX XXXXXXXXXXXXXXXX XXXXXXXXXXXXXXXX
3440 : XXXXXXXXXXXXXXXX XXXXXXXXXXXXXXXX XXXXXXXXXXXXXXXX XXXXXXXXXXXXXXXX
3480 : XXXXXXXXXXXXXXXX XXXXXXXXXXXXXXXX XXXXXXXXXXXXXXXX XXXXXXXXXXXXXXXX
34C0 : XXXXXXXXXXXXXXXX XXXXXXXXXXXXXXXX XXXX------------ ----------------
3500 : XXXXXXXXXXXXXXXX XXXXXXXXXXXXXXXX XXXXXXXXXXXXXXXX XXXXXXXXXXXXXXXX
3540 : XXXXXXXXXXXXXXXX XXXXXXXXXXXXXXXX XXXXXXXXXXXXXXXX XXXXXXXXXXXXXXXX
3580 : XXXXXXXXXXXXXXXX XXXXXXXXXXXXXXXX XXXXXXXXXXXXXXXX XXXXXXXXXXXXXXXX
35C0 : XXXXXXXXXXXXXXXX XXXXXXXXXXXXXXXX XXXX------------ ----------------
3600 : XXXXXXXXXXXXXXXX XXXXXXXXXXXXXXXX XXXXXXXXXXXXXXXX XXXXXXXXXXXXXXXX
3640 : XXXXXXXXXXXXXXXX XXXXXXXXXXXXXXXX XXXXXXXXXXXXXXXX XXXXXXXXXXXXXXXX
3680 : XXXXXXXXXXXXXXXX XXXXXXXXXXXXXXXX XXXXXXXXXXXXXXXX XXXXXXXXXXXXXXXX
36C0 : XXXXXXXXXXXXXXXX XXXXXXXXXXXXXXXX XXXX------------ ----------------
3700 : XXXXXXXXXXXXXXXX XXXXXXXXXXXXXXXX XXXXXXXXXXXXXXXX XXXXXXXXXXXXXXXX
3740 : XXXXXXXXXXXXXXXX XXXXXXXXXXXXXXXX XXXXXXXXXXXXXXXX XXXXXXXXXXXXXXXX
3780 : XXXXXXXXXXXXXXXX XXXXXXXXXXXXXXXX XXXXXXXXXXXXXXXX XXXXXXXXXXXXXXXX
37C0 : XXXXXXXXXXXXXXXX XXXXXXXXXXXXXXXX XXXX------------ ----------------
3800 : XXXXXXXXXXXXXXXX XXXXXXXXXXXXXXXX XXXXXXXXXXXXXXXX XXXXXXXXXXXXXXXX
3840 : XXXXXXXXXXXXXXXX XXXXXXXXXXXXXXXX XXXXXXXXXXXXXXXX XXXXXXXXXXXXXXXX
3880 : XXXXXXXXXXXXXXXX XXXXXXXXXXXXXXXX XXXXXXXXXXXXXXXX XXXXXXXXXXXXXXXX
38C0 : XXXXXXXXXXXXXXXX XXXXXXXXXXXXXXXX XXXX------------ ----------------
3900 : XXXXXXXXXXXXXXXX XXXXXXXXXXXXXXXX XXXXXXXXXXXXXXXX XXXXXXXXXXXXXXXX
3940 : XXXXXXXXXXXXXXXX XXXXXXXXXXXXXXXX XXXXXXXXXXXXXXXX XXXXXXXXXXXXXXXX
3980 : XXXXXXXXXXXXXXXX XXXXXXXXXXXXXXXX XXXXXXXXXXXXXXXX XXXXXXXXXXXXXXXX
39C0 : XXXXXXXXXXXXXXXX XXXXXXXXXXXXXXXX XXXX------------ ----------------
3A00 : XXXXXXXXXXXXXXXX XXXXXXXXXXXXXXXX XXXXXXXXXXXXXXXX XXXXXXXXXXXXXXXX
3A40 : XXXXXXXXXXXXXXXX XXXXXXXXXXXXXXXX XXXXXXXXXXXXXXXX XXXXXXXXXXXXXXXX
MPASM  5.51       20191122_RGMODULE_RTCV1.ASM   11-25-2019  10:52:29         PAGE 188


MEMORY USAGE MAP ('X' = Used,  '-' = Unused)


3A80 : XXXXXXXXXXXXXXXX XXXXXXXXXXXXXXXX XXXXXXXXXXXXXXXX XXXXXXXXXXXXXXXX
3AC0 : XXXXXXXXXXXXXXXX XXXXXXXXXXXXXXXX XXXX------------ ----------------
3B00 : XXXXXXXXXXXXXXXX XXXXXXXXXXXXXXXX XXXXXXXXXXXXXXXX XXXXXXXXXXXXXXXX
3B40 : XXXXXXXXXXXXXXXX XXXXXXXXXXXXXXXX XXXXXXXXXXXXXXXX XXXXXXXXXXXXXXXX
3B80 : XXXXXXXXXXXXXXXX XXXXXXXXXXXXXXXX XXXXXXXXXXXXXXXX XXXXXXXXXXXXXXXX
3BC0 : XXXXXXXXXXXXXXXX XXXXXXXXXXXXXXXX XXXX------------ ----------------
3C00 : XXXXXXXXXXXXXXXX XXXXXXXXXXXXXXXX XXXXXXXXXXXXXXXX XXXXXXXXXXXXXXXX
3C40 : XXXXXXXXXXXXXXXX XXXXXXXXXXXXXXXX XXXXXXXXXXXXXXXX XXXXXXXXXXXXXXXX
3C80 : XXXXXXXXXXXXXXXX XXXXXXXXXXXXXXXX XXXXXXXXXXXXXXXX XXXXXXXXXXXXXXXX
3CC0 : XXXXXXXXXXXXXXXX XXXXXXXXXXXXXXXX XXXX------------ ----------------
3D00 : XXXXXXXXXXXXXXXX XXXXXXXXXXXXXXXX XXXXXXXXXXXXXXXX XXXXXXXXXXXXXXXX
3D40 : XXXXXXXXXXXXXXXX XXXXXXXXXXXXXXXX XXXXXXXXXXXXXXXX XXXXXXXXXXXXXXXX
3D80 : XXXXXXXXXXXXXXXX XXXXXXXXXXXXXXXX XXXXXXXXXXXXXXXX XXXXXXXXXXXXXXXX
3DC0 : XXXXXXXXXXXXXXXX XXXXXXXXXXXXXXXX XXXX------------ ----------------
3E00 : XXXXXXXXXXXXXXXX XXXXXXXXXXXXXXXX XXXXXXXXXXXXXXXX XXXXXXXXXXXXXXXX
3E40 : XXXXXXXXXXXXXXXX XXXXXXXXXXXXXXXX XXXXXXXXXXXXXXXX XXXXXXXXXXXXXXXX
3E80 : XXXXXXXXXXXXXXXX XXXXXXXXXXXXXXXX XXXXXXXXXXXXXXXX XXXXXXXXXXXXXXXX
3EC0 : XXXXXXXXXXXXXXXX XXXXXXXXXXXXXXXX XXXXXXXXXX------ ----------------
3F00 : XXXXXXXXXXXXXXXX XXXXXXXXXXXXXXXX XXXXXXXXXXXXXXXX XXXXXXXXXXXXXXXX
3F40 : XXXXXXXXXXXXXXXX XXXXXXXXXXXXXXXX XXXXXXXXXXXXXXXX XXXXXXXXXXXXXXXX
3F80 : XXXXXXXXXXXXXXXX XXXXXXXXXXXXXXXX XXXXXXXXXXXXXXXX XXXXXXXXXXXXXXXX
3FC0 : XXXXXXXXXXXXXXXX XXXXXXXXXXXXXXXX XXXX------------ ----------------
4000 : XXXXXXXXXXXXXXXX XXXXXXXXXXXXXXXX XXXXXXXXXXXXXXXX XXXXXXXXXXXXXXXX
4040 : XXXXXXXXXXXXXXXX XXXXXXXXXXXXXXXX XXXXXXXXXXXXXXXX XXXXXXXXXXXXXXXX
4080 : XXXXXXXXXXXXXXXX XXXXXXXXXXXXXXXX XXXXXXXXXXXXXXXX XXXXXXXXXXXXXXXX
40C0 : XXXXXXXXXXXXXXXX XXXXXXXXXXXXXXXX XXXXXXXXXX------ ----------------
4100 : XXXXXXXXXXXXXXXX XXXXXXXXXXXXXXXX XXXXXXXXXXXXXXXX XXXXXXXXXXXXXXXX
4140 : XXXXXXXXXXXXXXXX XXXXXXXXXXXXXXXX XXXXXXXXXXXXXXXX XXXXXXXXXXXXXXXX
4180 : XXXXXXXXXXXXXXXX XXXXXXXXXXXXXXXX XXXXXXXXXXXXXXXX XXXXXXXXXXXXXXXX
41C0 : XXXXXXXXXXXXXXXX XXXXXXXXXXXXXXXX XXXX------------ ----------------
4200 : XXXXXXXXXXXXXXXX XXXXXXXXXXXXXXXX XXXXXXXXXXXXXXXX XXXXXXXXXXXXXXXX
4240 : XXXXXXXXXXXXXXXX XXXXXXXXXXXXXXXX XXXXXXXXXXXXXXXX XXXXXXXXXXXXXXXX
4280 : XXXXXXXXXXXXXXXX XXXXXXXXXXXXXXXX XXXXXXXXXXXXXXXX XXXXXXXXXXXXXXXX
42C0 : XXXXXXXXXXXXXXXX XXXXXXXXXXXXXXXX XXXX------------ ----------------
4300 : XXXXXXXXXXXXXXXX XXXXXXXXXXXXXXXX XXXXXXXXXXXXXXXX XXXXXXXXXXXXXXXX
4340 : XXXXXXXXXXXXXXXX XXXXXXXXXXXXXXXX XXXXXXXXXXXXXXXX XXXXXXXXXXXXXXXX
4380 : XXXXXXXXXXXXXXXX XXXXXXXXXXXXXXXX XXXXXXXXXXXXXXXX XXXXXXXXXXXXXXXX
43C0 : XXXXXXXXXXXXXXXX XXXXXXXXXXXXXXXX XXXX------------ ----------------
4400 : XXXXXXXXXXXXXXXX XXXXXXXXXXXXXXXX XXXXXXXXXXXXXXXX XXXXXXXXXXXXXXXX
4440 : XXXXXXXXXXXXXXXX XXXXXXXXXXXXXXXX XXXXXXXXXXXXXXXX XX--------------
4500 : XXXXXXXXXXXXXXXX XXXXXXXXXXXXXXXX XXXXXXXXXXXXXXXX XXXXXXXXXXXXXXXX
4540 : XXXXXXXXXXXXXXXX XXXXXXXXXXXXXXXX XXXXXXXXXXXXXXXX XX--------------
4600 : XXXXXXXXXXXXXXXX XXXXXXXXXXXXXXXX XXXXXXXXXXXXXXXX XXXXXXXXXXXXXXXX
4640 : XXXXXXXXXXXXXXXX XXXXXXXXXXXXXXXX XXXXXXXXXXXXXXXX XX--------------
4700 : XXXXXXXXXXXXXXXX XXXXXXXXXXXXXXXX XXXXXXXXXXXXXXXX XXXXXXXXXXXXXXXX
4740 : XXXXXXXXXXXXXXXX XXXXXXXXXXXXXXXX XXXXXXXXXXXXXXXX XX--------------
MPASM  5.51       20191122_RGMODULE_RTCV1.ASM   11-25-2019  10:52:29         PAGE 189


MEMORY USAGE MAP ('X' = Used,  '-' = Unused)


4800 : XXXXXXXXXXXXXXXX XXXXXXXXXXXXXXXX XXXXXXXXXXXXXXXX XXXXXXXXXXXXXXXX
4840 : XXXXXXXXXXXXXXXX XXXXXXXXXXXXXXXX XXXXXXXXXXXXXXXX XX--------------
4900 : XXXXXXXXXXXXXXXX XXXXXXXXXXXXXXXX XXXXXXXXXXXXXXXX XXXXXXXXXXXXXXXX
4940 : XXXXXXXXXXXXXXXX XXXXXXXXXXXXXXXX XXXXXXXXXXXXXXXX XX--------------
4A00 : XXXXXXXXXXXXXXXX XXXXXXXXXXXXXXXX XXXXXXXXXXXXXXXX XXXXXXXXXXXXXXXX
4A40 : XXXXXXXXXXXXXXXX XXXXXXXXXXXXXXXX XXXXXXXXXXXXXXXX XX--------------
4B00 : XXXXXXXXXXXXXXXX XXXXXXXXXXXXXXXX XXXXXXXXXXXXXXXX XXXXXXXXXXXXXXXX
4B40 : XXXXXXXXXXXXXXXX XXXXXXXXXXXXXXXX XXXXXXXXXXXXXXXX XX--------------
4C00 : XXXXXXXXXXXXXXXX XXXXXXXXXXXXXXXX XXXXXXXXXXXXXXXX XXXXXXXXXXXXXXXX
4C40 : XXXXXXXXXXXXXXXX XXXXXXXXXXXXXXXX XXXXXXXXXXXXXXXX XX--------------
4D00 : XXXXXXXXXXXXXXXX XXXXXXXXXXXXXXXX XXXXXXXXXXXXXXXX XXXXXXXXXXXXXXXX
4D40 : XXXXXXXXXXXXXXXX XXXXXXXXXXXXXXXX XXXXXXXXXXXXXXXX XX--------------
4E00 : XXXXXXXXXXXXXXXX XXXXXXXXXXXXXXXX XXXXXXXXXXXXXXXX XXXXXXXXXXXXXXXX
4E40 : XXXXXXXXXXXXXXXX XXXXXXXXXXXXXXXX XXXXXXXXXXXXXXXX XX--------------
4F00 : XXXXXXXXXXXXXXXX XXXXXXXXXXXXXXXX XXXXXXXXXXXXXXXX XXXXXXXXXXXXXXXX
4F40 : XXXXXXXXXXXXXXXX XXXXXXXXXXXXXXXX XXXXXXXXXXXXXXXX XX--------------
5000 : XXXXXXXXXXXXXXXX XXXXXXXXXXXXXXXX XXXXXXXXXXXXXXXX XXXXXXXXXXXXXXXX
5040 : XXXXXXXXXXXXXXXX XXXXXXXXXXXXXXXX XXXXXXXXXXXXXXXX XX--------------
5100 : XXXXXXXXXXXXXXXX XXXXXXXXXXXXXXXX XXXXXXXXXXXXXXXX XXXXXXXXXXXXXXXX
5140 : XXXXXXXXXXXXXXXX XXXXXXXXXXXXXXXX XXXXXXXXXXXXXXXX XX--------------
5200 : XXXXXXXXXXXXXXXX XXXXXXXXXXXXXXXX XXXXXXXXXXXXXXXX XXXXXXXXXXXXXXXX
5240 : XXXXXXXXXXXXXXXX XXXXXXXXXXXXXXXX XXXXXXXXXXXXXXXX XX--------------
5300 : XXXXXXXXXXXXXXXX XXXXXXXXXXXXXXXX XXXXXXXXXXXXXXXX XXXXXXXXXXXXXXXX
5340 : XXXXXXXXXXXXXXXX XXXXXXXXXXXXXXXX XXXXXXXXXXXXXXXX XX--------------
5400 : XXXXXXXXXXXXXXXX XXXXXXXXXXXXXXXX XXXXXXXXXXXXXXXX XXXXXXXXXXXXXXXX
5440 : XXXXXXXXXXXXXXXX XXXXXXXXXXXXXXXX XXXXXXXXXXXXXXXX XX--------------
5500 : XXXXXXXXXXXXXXXX XXXXXXXXXXXXXXXX XXXXXXXXXXXXXXXX XXXXXXXXXXXXXXXX
5540 : XXXXXXXXXXXXXXXX XXXXXXXXXXXXXXXX XXXXXXXXXXXXXXXX XX--------------
5600 : XXXXXXXXXXXXXXXX XXXXXXXXXXXXXXXX XXXXXXXXXXXXXXXX XXXXXXXXXXXXXXXX
5640 : XXXXXXXXXXXXXXXX XXXXXXXXXXXXXXXX XXXXXXXXXXXXXXXX XX--------------
5700 : XXXXXXXXXXXXXXXX XXXXXXXXXXXXXXXX XXXXXXXXXXXXXXXX XXXXXXXXXXXXXXXX
5740 : XXXXXXXXXXXXXXXX XXXXXXXXXXXXXXXX XXXXXXXXXXXXXXXX XX--------------
5800 : XXXXXXXXXXXXXXXX XXXXXXXXXXXXXXXX XXXXXXXXXXXXXXXX XXXXXXXXXXXXXXXX
5840 : XXXXXXXXXXXXXXXX XXXXXXXXXXXXXXXX XXXXXXXXXXXXXXXX XXXXXXXXXXXXXXXX
5880 : XXXXXXXXXXXXXXXX XXXXXXXXXXXXXXXX XXXXXXXXXXXXXXXX XXXXXXXXXXXXXXXX
58C0 : XXXXXXXXXXXXXXXX XXXXXXXXXXXXXXXX XXXX------------ ----------------
5900 : XXXXXXXXXXXXXXXX XXXXXXXXXXXXXXXX XXXXXXXXXXXXXXXX XXXXXXXXXXXXXXXX
5940 : XXXXXXXXXXXXXXXX XXXXXXXXXXXXXXXX XXXXXXXXXXXXXXXX XXXXXXXXXXXXXXXX
5980 : XXXXXXXXXXXXXXXX XXXXXXXXXXXXXXXX XXXXXXXXXXXXXXXX XXXXXXXXXXXXXXXX
59C0 : XXXXXXXXXXXXXXXX XXXXXXXXXXXXXXXX XXXX------------ ----------------
5A00 : XXXXXXXXXXXXXXXX XXXXXXXXXXXXXXXX XXXXXXXXXXXXXXXX XXXXXXXXXXXXXXXX
5A40 : XXXXXXXXXXXXXXXX XXXXXXXXXXXXXXXX XXXXXXXXXXXXXXXX XXXXXXXXXXXXXXXX
5A80 : XXXXXXXXXXXXXXXX XXXXXXXXXXXXXXXX XXXXXXXXXXXXXXXX XXXXXXXXXXXXXXXX
5AC0 : XXXXXXXXXXXXXXXX XXXXXXXXXXXXXXXX XXXX------------ ----------------
5B00 : XXXXXXXXXXXXXXXX XXXXXXXXXXXXXXXX XXXXXXXXXXXXXXXX XXXXXXXXXXXXXXXX
5B40 : XXXXXXXXXXXXXXXX XXXXXXXXXXXXXXXX XXXXXXXXXXXXXXXX XXXXXXXXXXXXXXXX
MPASM  5.51       20191122_RGMODULE_RTCV1.ASM   11-25-2019  10:52:29         PAGE 190


MEMORY USAGE MAP ('X' = Used,  '-' = Unused)


5B80 : XXXXXXXXXXXXXXXX XXXXXXXXXXXXXXXX XXXXXXXXXXXXXXXX XXXXXXXXXXXXXXXX
5BC0 : XXXXXXXXXXXXXXXX XXXXXXXXXXXXXXXX XXXX------------ ----------------
5C00 : XXXXXXXXXXXXXXXX XXXXXXXXXXXXXXXX XXXXXXXXXXXXXXXX XXXXXXXXXXXXXXXX
5C40 : XXXXXXXXXXXXXXXX XXXXXXXXXXXXXXXX XXXXXXXXXXXXXXXX XXXXXXXXXXXXXXXX
5C80 : XXXXXXXXXXXXXXXX XXXXXXXXXXXXXXXX XXXXXXXXXXXXXXXX XXXXXXXXXXXXXXXX
5CC0 : XXXXXXXXXXXXXXXX XXXXXXXXXXXXXXXX XXXX------------ ----------------
5D00 : XXXXXXXXXXXXXXXX XXXXXXXXXXXXXXXX XXXXXXXXXXXXXXXX XXXXXXXXXXXXXXXX
5D40 : XXXXXXXXXXXXXXXX XXXXXXXXXXXXXXXX XXXXXXXXXXXXXXXX XXXXXXXXXXXXXXXX
5D80 : XXXXXXXXXXXXXXXX XXXXXXXXXXXXXXXX XXXXXXXXXXXXXXXX XXXXXXXXXXXXXXXX
5DC0 : XXXXXXXXXXXXXXXX XXXXXXXXXXXXXXXX XXXX------------ ----------------
5E00 : XXXXXXXXXXXXXXXX XXXXXXXXXXXXXXXX XXXXXXXXXXXXXXXX XXXXXXXXXXXXXXXX
5E40 : XXXXXXXXXXXXXXXX XXXXXXXXXXXXXXXX XXXXXXXXXXXXXXXX XXXXXXXXXXXXXXXX
5E80 : XXXXXXXXXXXXXXXX XXXXXXXXXXXXXXXX XXXXXXXXXXXXXXXX XXXXXXXXXXXXXXXX
5EC0 : XXXXXXXXXXXXXXXX XXXXXXXXXXXXXXXX XXXX------------ ----------------
5F00 : XXXXXXXXXXXXXXXX XXXXXXXXXXXXXXXX XXXXXXXXXXXXXXXX XXXXXXXXXXXXXXXX
5F40 : XXXXXXXXXXXXXXXX XXXXXXXXXXXXXXXX XXXXXXXXXXXXXXXX XXXXXXXXXXXXXXXX
5F80 : XXXXXXXXXXXXXXXX XXXXXXXXXXXXXXXX XXXXXXXXXXXXXXXX XXXXXXXXXXXXXXXX
5FC0 : XXXXXXXXXXXXXXXX XXXXXXXXXXXXXXXX XXXX------------ ----------------
6000 : XXXXXXXXXXXXXXXX XXXXXXXXXXXXXXXX XXXXXXXXXXXXXXXX XXXXXXXXXXXXXXXX
6040 : XXXXXXXXXXXXXXXX XXXXXXXXXXXXXXXX XXXXXXXXXXXXXXXX XXXXXXXXXXXXXXXX
6080 : XXXXXXXXXXXXXXXX XXXXXXXXXXXXXXXX XXXXXXXXXXXXXXXX XXXXXXXXXXXXXXXX
60C0 : XXXXXXXXXXXXXXXX XXXXXXXXXXXXXXXX XXXX------------ ----------------
6100 : XXXXXXXXXXXXXXXX XXXXXXXXXXXXXXXX XXXXXXXXXXXXXXXX XXXXXXXXXXXXXXXX
6140 : XXXXXXXXXXXXXXXX XXXXXXXXXXXXXXXX XXXXXXXXXXXXXXXX XXXXXXXXXXXXXXXX
6180 : XXXXXXXXXXXXXXXX XXXXXXXXXXXXXXXX XXXXXXXXXXXXXXXX XXXXXXXXXXXXXXXX
61C0 : XXXXXXXXXXXXXXXX XXXXXXXXXXXXXXXX XXXX------------ ----------------
6200 : XXXXXXXXXXXXXXXX XXXXXXXXXXXXXXXX XXXXXXXXXXXXXXXX XXXXXXXXXXXXXXXX
6240 : XXXXXXXXXXXXXXXX XXXXXXXXXXXXXXXX XXXXXXXXXXXXXXXX XXXXXXXXXXXXXXXX
6280 : XXXXXXXXXXXXXXXX XXXXXXXXXXXXXXXX XXXXXXXXXXXXXXXX XXXXXXXXXXXXXXXX
62C0 : XXXXXXXXXXXXXXXX XXXXXXXXXXXXXXXX XXXX------------ ----------------
6300 : XXXXXXXXXXXXXXXX XXXXXXXXXXXXXXXX XXXXXXXXXXXXXXXX XXXXXXXXXXXXXXXX
6340 : XXXXXXXXXXXXXXXX XXXXXXXXXXXXXXXX XXXXXXXXXXXXXXXX XXXXXXXXXXXXXXXX
6380 : XXXXXXXXXXXXXXXX XXXXXXXXXXXXXXXX XXXXXXXXXXXXXXXX XXXXXXXXXXXXXXXX
63C0 : XXXXXXXXXXXXXXXX XXXXXXXXXXXXXXXX XXXX------------ ----------------
6400 : XXXXXXXXXXXXXXXX XXXXXXXXXXXXXXXX XXXXXXXXXXXXXXXX XXXXXXXXXXXXXXXX
6440 : XXXXXXXXXXXXXXXX XXXXXXXXXXXXXXXX XXXXXXXXXXXXXXXX XX--------------
6500 : XXXXXXXXXXXXXXXX XXXXXXXXXXXXXXXX XXXXXXXXXXXXXXXX XXXXXXXXXXXXXXXX
6540 : XXXXXXXXXXXXXXXX XXXXXXXXXXXXXXXX XXXXXXXXXXXXXXXX XX--------------
7000 : XXXXXXXXXXXXXXXX XXXXXXXXXXXXXXXX XXXXXXXXXXXXXXXX XXXXXXXXXXXXXXXX
7040 : XXXXXXXXXXXXXXXX XXXXXXXXXXXXXXXX XXXXXXXXXXXXXXXX XXXXXXXXXXXXXXXX
7080 : XXXXXXXXXXXXXXXX XXXXXXXXXXXXXXXX XXXXXXXXXXXXXXXX XXXXXXXXXXXXXXXX
70C0 : XXXXXXXXXXXXXXXX XXXXXXXXXXXXXXXX XXXXXXXXXXXXXXXX XX--------------
8000 : XXXXXXXXXXXXXXXX XXXXXXXXXXXXXXXX XXXXXXXXXXXXXXXX XXXXXXXXXXXXXXXX
8040 : XXXXXXXXXXXXXXXX XXXXXXXXXXXXXXXX XXXXXXXXXXXXXXXX XXXXXXXXXXXXXXXX
8080 : XXXXXXXXXXXXXXXX XXXXXXXXXXXXXXXX XXXXXXXXXXXXXXXX XXXXXXXXXXXXXXXX
80C0 : XXXXXXXXXXXXXXXX XXXXXXXXXXXXXXXX XXXXXXXXXXXXXXXX XXXXXXXXXXXXXXXX
MPASM  5.51       20191122_RGMODULE_RTCV1.ASM   11-25-2019  10:52:29         PAGE 191


MEMORY USAGE MAP ('X' = Used,  '-' = Unused)


8100 : XXXXXXXXXXXXXXXX XXXXXXXXXXXXXXXX XXXXXXXXXXXXXXXX XXXXXXXXXXXXXXXX
8140 : XXXXXXXXXXXXXX-- ---------------- ---------------- ----------------
0000 : -XXX-XX-XXXXXX-- ---------------- ---------------- ----------------

All other memory blocks unused.

Program Memory Bytes Used: 21007
Program Memory Bytes Free: 44529


Errors   :     0
Warnings :   268 reported,     0 suppressed
Messages :     0 reported,     0 suppressed

