MPASM  5.51               20191125_RTCGPU.ASM   4-30-2024  22:19:12         PAGE  1


LOC  OBJECT CODE     LINE SOURCE TEXT
  VALUE

                      00001 ;******************************************************************************
                      00002 ;                                                                             *
                      00003 ;    FILENAME:     RGMODULE_RTC                                               *
                      00004 ;    DATE:         NOVEMBER 22, 2019                                          *
                      00005 ;    FILE VERSION: V1.0                                                       *
                      00006 ;                                                                             *
                      00007 ;    AUTHOR:       KENNYNEUTRON                                               *
                      00008 ;    COMPANY:      GER-PER ENGINEERING                                        *
                      00009 ;                                                                             * 
                      00010 ;******************************************************************************
                      00011 ;                                                                             *
                      00012 ;    FILES REQUIRED: P18F2620.INC                                             *
                      00013 ;                                                                             *
                      00014 ;******************************************************************************
                      00015 
                      00016         LIST P=18F4620                  ;DIRECTIVE TO DEFINE PROCESSOR
                      00017         #INCLUDE <P18F4620.INC> ;PROCESSOR SPECIFIC VARIABLE DEFINITIONS
                      00001         LIST
                      00002 
                      00003 ;==========================================================================
                      00004 ;  MPASM PIC18F4620 processor include
                      00005 ; 
                      00006 ;  (c) Copyright 1999-2013 Microchip Technology, All rights reserved
                      00007 ;==========================================================================
                      00008 
                      01439         LIST
                      00018 
                      00019 
                      00020 ;******************************************************************************
                      00021 ;CONFIGURATION BITS
                      00022 ;MICROCHIP HAS CHANGED THE FORMAT FOR DEFINING THE CONFIGURATION BITS, PLEASE 
                      00023 ;SEE THE .INC FILE FOR FUTHER DETAILS ON NOTATION.  BELOW ARE A FEW EXAMPLES.
                      00024 
                      00025 
                      00026 ;CONFIG
                      00027 
                      00028 
                      00029 
Warning[205]: Found directive in column 1. (CONFIG)
06 19 1E 01 80 0F C0 000030 CONFIG  OSC             =       HSPLL   ;OSCILLATOR
       F E0 0F 40 
Warning[205]: Found directive in column 1. (CONFIG)
                      00031 CONFIG  FCMEN   =       OFF             ;FAIL-SAFE CLOCK MONITOR
Warning[205]: Found directive in column 1. (CONFIG)
                      00032 CONFIG  IESO    =       OFF             ;INTERNAL/EXTERNAL SWITCH-OVER
Warning[205]: Found directive in column 1. (CONFIG)
                      00033 CONFIG  PWRT    =       OFF             ;POWER-UP TIMER
Warning[205]: Found directive in column 1. (CONFIG)
                      00034 CONFIG  BOREN   =       OFF             ;BROWN OUT RESET ENABLE
Warning[205]: Found directive in column 1. (CONFIG)
                      00035 CONFIG  PBADEN  =       OFF     ;PORTB A/D ENABLE
Warning[205]: Found directive in column 1. (CONFIG)
                      00036 CONFIG  LPT1OSC =       OFF             ;LOW-POWER TIMER1 OSCILLATOR
MPASM  5.51               20191125_RTCGPU.ASM   4-30-2024  22:19:12         PAGE  2


LOC  OBJECT CODE     LINE SOURCE TEXT
  VALUE

Warning[205]: Found directive in column 1. (CONFIG)
                      00037 CONFIG  MCLRE   =       OFF             ;MEMORY CLEAR EXTERNAL
Warning[205]: Found directive in column 1. (CONFIG)
                      00038 CONFIG  STVREN  =       OFF             ;STACK FULL/UNDERFLOW RESET ENABLE
Warning[205]: Found directive in column 1. (CONFIG)
                      00039 CONFIG  LVP     =       OFF             ;SINGLE SUPPLY ICSP
Warning[205]: Found directive in column 1. (CONFIG)
                      00040 CONFIG  XINST   =       OFF             ;EXTENDED INSTRUCTION SET
Warning[205]: Found directive in column 1. (CONFIG)
                      00041 CONFIG  DEBUG   =       OFF             ;BACKGROUND DEBUGGERS
Warning[205]: Found directive in column 1. (CONFIG)
                      00042 CONFIG  CP0     =       OFF             ;CODE PROTECT
                      00043 
                      00044 
Warning[205]: Found directive in column 1. (CONFIG)
                      00045 CONFIG  WDT             =       OFF             ;WATCHDOG TIMER
                      00046 ;CONFIG WDTPS   =       512             ;WATCHDOG TIMER POSTSCALER 1:1= 4MSECONDS
                      00047 ;******************************************************************************
                      00048 ;VARIABLE DEFINITIONS
                      00049 ; THESE VARIABLES ARE ONLY NEEDED IF LOW PRIORITY INTERRUPTS ARE USED. 
                      00050 ; MORE VARIABLES MAY BE NEEDED TO STORE OTHER SPECIAL FUNCTION REGISTERS USED
                      00051 ; IN THE INTERRUPT ROUTINES.
                      00052 
                      00053                 #DEFINE         OE_ON           BCF     LATD,7,0
                      00054                 #DEFINE         OE_OFF          BSF     LATD,7,0
                      00055 
                      00056 
                      00057                 #DEFINE         LAT_ON          BSF     LATD,6,0
                      00058                 #DEFINE         LAT_OFF         BCF     LATD,6,0
                      00059 
                      00060                 #DEFINE         CLK_ON          BSF     LATD,5,0
                      00061                 #DEFINE         CLK_OFF         BCF     LATD,5,0
                      00062 
                      00063                 #DEFINE         R0_0            BCF     LATB,0,0
                      00064                 #DEFINE         R0_1            BSF     LATB,0,0
                      00065                 
                      00066                 #DEFINE         R1_0            BCF     LATB,1,0
                      00067                 #DEFINE         R1_1            BSF     LATB,1,0
                      00068 
                      00069                 #DEFINE         G0_0            BCF     LATB,2,0
                      00070                 #DEFINE         G0_1            BSF     LATB,2,0
                      00071                 
                      00072                 #DEFINE         G1_0            BCF     LATB,3,0
                      00073                 #DEFINE         G1_1            BSF     LATB,3,0
                      00074 
                      00075 
                      00076                 #DEFINE         I2C_DAT0        BCF     LATC,0,0        ;I2C_D
                      00077                 #DEFINE         I2C_DAT1        BSF     LATC,0,0        ;I2C_D
                      00078 
                      00079                 #DEFINE         I2C_CLK0        BCF     LATC,1,0        ;I2C_C
                      00080                 #DEFINE         I2C_CLK1        BSF     LATC,1,0        ;I2C_C
                      00081 
                      00082                 CBLOCK  0X16C
MPASM  5.51               20191125_RTCGPU.ASM   4-30-2024  22:19:12         PAGE  3


LOC  OBJECT CODE     LINE SOURCE TEXT
  VALUE

  0000016C            00083                 W_TEMP  ;VARIABLE USED FOR CONTEXT SAVING 
  0000016D            00084                 STATUS_TEMP     ;VARIABLE USED FOR CONTEXT SAVING
  0000016E            00085                 BSR_TEMP        ;VARIABLE USED FOR CONTEXT SAVING
  0000016F            00086                 PCLATH_TEMP
                      00087                 ENDC
                      00088 
                      00089                 CBLOCK  0X000
  00000000            00090                         EXAMPLE         ;EXAMPLE OF A VARIABLE IN ACCESS RAM
                      00091                 ENDC
                      00092 
                      00093                 CBLOCK  0X100
  00000100            00094                         DRAM: .64
  00000140            00095                         SPI_DATAIN
  00000141            00096                         LOOP,COUNT0,COUNT1,COUNT2
                      00097 
  00000145            00098                         POINTER,BTCOUNT
  00000147            00099                         COLOR,NUMBER,ROW,FONT,STPT
                      00100 
  0000014C            00101                         CURSORX,CURSORY,CURSORX_TEMP
  0000014F            00102                         WIDTH
  00000150            00103                         SCROLL_BIT
                      00104                 ENDC
                      00105 
                      00106                 CBLOCK 0X151
  00000151            00107                         REDHALF0,REDHALF1                       ;RED UPPER HALF : RED LOWER HALF RAMS
  00000153            00108                         GRNHALF0,GRNHALF1                       ;GRN UPPER HALF : GRN LOWER HAL
                      00109 
  00000155            00110                         TEMPRAM:.8
                      00111 
                      00112 
  0000015D            00113                         HUB
  0000015E            00114                         COLORA, COLOR_FSRH,COLOR_FSRL
                      00115 
  00000161            00116                         CCOUNT
  00000162            00117                         SCRLLOOP
  00000163            00118                         CSRBIT
  00000164            00119                         CFSRLOOP
  00000165            00120                         CSRHBYTE
                      00121 
  00000166            00122                         MOVX_TEMPH,MOVX_TEMPL
                      00123                         
  00000168            00124                         CHARFSRH,CHARFSRL
                      00125 
  0000016A            00126                         ENDPOINT0,ENDPOINT1
                      00127 
                      00128 
                      00129                 ENDC
                      00130 
                      00131                 CBLOCK  0X170
Warning[210]: Extra ","
  00000170            00132                         DELAYUS, DELAYMS, SEC,DELAYS,   ;DELAY VARIABLES
                      00133                         ;=======================================================
Warning[210]: Extra ","
MPASM  5.51               20191125_RTCGPU.ASM   4-30-2024  22:19:12         PAGE  4


LOC  OBJECT CODE     LINE SOURCE TEXT
  VALUE

  00000174            00134                         I2C_LOOP,I2C_DATA0,
  00000176            00135                         I2C_REG: 0X12
                      00136 
  00000188            00137                         HOUR_T,HOUR_O,MIN_T,MIN_O,SEC_T,SEC_O
  0000018E            00138                         MON_T,MON_O,DATE_T,DATE_O,AMPM
  00000193            00139                         SET_VAR,SET_COUNTL,SET_COUNTH
  00000196            00140                         SEC_T_TEMP,SEC_O_TEMP
  00000198            00141                         BLINK
                      00142                 ENDC
                      00143 
                      00144 
                      00145 
                      00146                 CBLOCK  0X200
  00000200            00147                 COLORM:48
                      00148                 
                      00149                 ENDC
                      00150 
                      00151                 CBLOCK  0X300
  00000300            00152                 CMD_MEMORY:0XFF
                      00153                 ENDC
                      00154 ;******************************************************************************
                      00155 ;EEPROM DATA
                      00156 ; DATA TO BE PROGRAMMED INTO THE DATA EEPROM IS DEFINED HERE
                      00157 
F00000                00158                 ORG     0XF00000
                      00159                         
                      00160         ;       DE      "TEST DATA",0,1,2,3,4,5
                      00161 
                      00162 ;******************************************************************************
                      00163 ;RESET VECTOR
                      00164 ; THIS CODE WILL START EXECUTING WHEN A RESET OCCURS.
                      00165 
000000                00166                 ORG     0X0000
                      00167 
000000 EF1A F000      00168                 GOTO    INIT            ;GO TO START OF MAIN CODE
                      00169 
                      00170 ;******************************************************************************
                      00171 ;HIGH PRIORITY INTERRUPT VECTOR
                      00172 ; THIS CODE WILL START EXECUTING WHEN A HIGH PRIORITY INTERRUPT OCCURS OR
                      00173 ; WHEN ANY INTERRUPT OCCURS IF INTERRUPT PRIORITIES ARE NOT ENABLED.
                      00174 
000008                00175                 ORG     0X0008
                      00176 
000008 D014           00177                 BRA     HIGHINT         ;GO TO HIGH PRIORITY INTERRUPT ROUTINE
                      00178 
                      00179 ;******************************************************************************
                      00180 ;LOW PRIORITY INTERRUPT VECTOR AND ROUTINE
                      00181 ; THIS CODE WILL START EXECUTING WHEN A LOW PRIORITY INTERRUPT OCCURS.
                      00182 ; THIS CODE CAN BE REMOVED IF LOW PRIORITY INTERRUPTS ARE NOT USED.
                      00183 
000018                00184                 ORG     0X0018
                      00185 
000018 CFD8 F16D      00186                 MOVFF   STATUS,STATUS_TEMP      ;SAVE STATUS REGISTER
MPASM  5.51               20191125_RTCGPU.ASM   4-30-2024  22:19:12         PAGE  5


LOC  OBJECT CODE     LINE SOURCE TEXT
  VALUE

00001C CFE8 F16C      00187                 MOVFF   WREG,W_TEMP             ;SAVE WORKING REGISTER
000020 CFE0 F16E      00188                 MOVFF   BSR,BSR_TEMP            ;SAVE BSR REGISTER
                      00189 
                      00190 ;       *** LOW PRIORITY INTERRUPT CODE GOES HERE ***
                      00191 
                      00192 
000024 C16E FFE0      00193                 MOVFF   BSR_TEMP,BSR            ;RESTORE BSR REGISTER
000028 C16C FFE8      00194                 MOVFF   W_TEMP,WREG                             ;RESTORE WORKING REGISTER
00002C C16D FFD8      00195                 MOVFF   STATUS_TEMP,STATUS      ;RESTORE STATUS REGISTER
000030 0010           00196                 RETFIE
                      00197 
                      00198 ;******************************************************************************
                      00199                                 ;HIGH PRIORITY INTERRUPT ROUTINE
                      00200                                 ; THE HIGH PRIORITY INTERRUPT CODE IS PLACED HERE TO AVOID CONFLICTING W
                            ITH
                      00201                                 ; THE LOW PRIORITY INTERRUPT VECTOR.
                      00202 
000032                00203 HIGHINT:
                      00204 
                      00205                                 ;       *** HIGH PRIORITY INTERRUPT CODE GOES HERE ***
                      00206 
                      00207 
000032 0011           00208                 RETFIE  FAST
                      00209 
                      00210 ;$$$$$$$$$$$$$$$$$$$$$$$$       INITIALIZE              $$$$$$$$$$$$$$$$$$$$$$$$$$$$$$$$$
000034                00211 INIT
                      00212 ;========================= INITIALIZE PORTA =================================
Warning[203]: Found opcode in column 1. (CLRF)
000034 6A80           00213 CLRF PORTA              ; INITIALIZE PORTA BY
                      00214                                 ; CLEARING OUTPUT
                      00215                                 ; DATA LATCHES
Warning[203]: Found opcode in column 1. (CLRF)
000036 6A89           00216 CLRF LATA               ; ALTERNATE METHOD
                      00217                                 ; TO CLEAR OUTPUT
                      00218                                 ; DATA LATCHES
Warning[203]: Found opcode in column 1. (MOVLW)
000038 0E07           00219 MOVLW 07H               ; CONFIGURE A/D
Warning[203]: Found opcode in column 1. (MOVWF)
00003A 6EC1           00220 MOVWF ADCON1    ; FOR DIGITAL INPUTS
Warning[203]: Found opcode in column 1. (MOVWF)
00003C 6E07           00221 MOVWF 07H               ; CONFIGURE COMPARATORS
Warning[203]: Found opcode in column 1. (MOVWF)
00003E 6EB4           00222 MOVWF CMCON     ; FOR DIGITAL INPUT
Warning[203]: Found opcode in column 1. (MOVLW)
000040 0ECF           00223 MOVLW 0CFH              ; VALUE USED TO
                      00224                                 ; INITIALIZE DATA
                      00225                                 ; DIRECTION
Warning[203]: Found opcode in column 1. (MOVWF)
000042 6E92           00226 MOVWF TRISA     ; SET RA<7:6,3:0> AS INPUTS
                      00227                                 ; RA<5:4> AS OUTPUTS
                      00228 
Warning[203]: Found opcode in column 1. (BCF)
000044 9092           00229 BCF     TRISA,0         ;RA0 = OUTPUT   (I2C DATA)
MPASM  5.51               20191125_RTCGPU.ASM   4-30-2024  22:19:12         PAGE  6


LOC  OBJECT CODE     LINE SOURCE TEXT
  VALUE

Warning[203]: Found opcode in column 1. (BCF)
000046 9292           00230 BCF     TRISA,1         ;RA1 = OUTPUT   (I2C CLOCK)
                      00231 ;============================================================================
                      00232 
                      00233 
                      00234 ;========================= INITIALIZE PORTB =================================
Warning[203]: Found opcode in column 1. (CLRF)
000048 6A81           00235 CLRF PORTB              ; INITIALIZE PORTB BY
                      00236                                 ; CLEARING OUTPUT
                      00237                                 ; DATA LATCHES
Warning[203]: Found opcode in column 1. (CLRF)
00004A 6A8A           00238 CLRF LATB               ; ALTERNATE METHOD
                      00239                                 ; TO CLEAR OUTPUT
                      00240                                 ; DATA LATCHES
Warning[203]: Found opcode in column 1. (MOVLW)
00004C 0E0F           00241 MOVLW 0FH               ; SET RB<4:0> AS
Warning[203]: Found opcode in column 1. (MOVWF)
00004E 6EC1           00242 MOVWF ADCON1    ; DIGITAL I/O PINS
                      00243                                 ; (REQUIRED IF CONFIG BIT
                      00244                                 ; PBADEN IS SET)
Warning[203]: Found opcode in column 1. (MOVLW)
000050 0E00           00245 MOVLW 0                 ; VALUE USED TO
                      00246                                 ; INITIALIZE DATA
                      00247                                 ; DIRECTION
Warning[203]: Found opcode in column 1. (MOVWF)
000052 6E93           00248 MOVWF TRISB     ; SET RB<3:0> AS INPUTS
                      00249                                 ; RB<7:0> AS INPUTS
                      00250 ;============================================================================
                      00251 
                      00252 
                      00253 ;========================= INITIALIZE PORTC =================================
Warning[203]: Found opcode in column 1. (CLRF)
000054 6A82           00254 CLRF PORTC
Warning[203]: Found opcode in column 1. (CLRF)
000056 6A8B           00255 CLRF LATC
Warning[203]: Found opcode in column 1. (MOVLW)
000058 0EFF           00256 MOVLW B'11111111'
Warning[203]: Found opcode in column 1. (MOVWF)
00005A 6E94           00257 MOVWF TRISC
                      00258 
                      00259 ;PORT C0 ===> N/A
                      00260 ;PORT C1 ===> N/A
                      00261 ;PORT C2 ===> N/A
                      00262 ;PORT C3 ===> SPI CLK   (SCL)
                      00263 ;PORT C4 ===> SPI DATAIN (SDI)
                      00264 ;PORT C5 ===> SPI DATAOUT (SDO)
                      00265 ;PORT C6 ===> N/A
                      00266 ;PORT C7 ===> N/A
Warning[203]: Found opcode in column 1. (BCF)
00005C 9094           00267 BCF     TRISC,0         ;RA0 = OUTPUT   (I2C DATA)
Warning[203]: Found opcode in column 1. (BCF)
00005E 9294           00268 BCF     TRISC,1         ;RA1 = OUTPUT   (I2C CLOCK)
                      00269 ;============================================================================ 
MPASM  5.51               20191125_RTCGPU.ASM   4-30-2024  22:19:12         PAGE  7


LOC  OBJECT CODE     LINE SOURCE TEXT
  VALUE

                      00270 
                      00271 
                      00272 ;========================= INITIALIZE PORTD =================================
Warning[203]: Found opcode in column 1. (CLRF)
000060 6A83           00273 CLRF PORTD              ; INITIALIZE PORTD BY
                      00274                                 ; CLEARING OUTPUT
                      00275                                 ; DATA LATCHES
Warning[203]: Found opcode in column 1. (CLRF)
000062 6A8C           00276 CLRF LATD               ; ALTERNATE METHOD
                      00277                                 ; TO CLEAR OUTPUT
                      00278                                 ; DATA LATCHES
Warning[203]: Found opcode in column 1. (MOVLW)
000064 0E00           00279 MOVLW 0                 ; VALUE USED TO
                      00280                                 ; INITIALIZE DATA
                      00281                                 ; DIRECTION
Warning[203]: Found opcode in column 1. (MOVWF)
000066 6E95           00282 MOVWF TRISD     ; SET RD<3:0> AS INPUTS
                      00283                                 ; RD<5:4> AS OUTPUTS
                      00284                                 ; RD<7:6> AS INPUTS
                      00285 ;============================================================================
                      00286 
                      00287 ;========================= INITIALIZE PORTE =================================
Warning[203]: Found opcode in column 1. (CLRF)
000068 6A84           00288 CLRF PORTE              ; INITIALIZE PORTE BY
                      00289                                 ; CLEARING OUTPUT
                      00290                                 ; DATA LATCHES
Warning[203]: Found opcode in column 1. (CLRF)
00006A 6A8D           00291 CLRF LATE               ; ALTERNATE METHOD
                      00292                                 ; TO CLEAR OUTPUT
                      00293                                 ; DATA LATCHES
Warning[203]: Found opcode in column 1. (MOVLW)
00006C 0E0A           00294 MOVLW 0AH               ; CONFIGURE A/D
Warning[203]: Found opcode in column 1. (MOVWF)
00006E 6EC1           00295 MOVWF ADCON1    ; FOR DIGITAL INPUTS
                      00296 
                      00297 
Warning[203]: Found opcode in column 1. (MOVLW)
000070 0E07           00298 MOVLW B'0000111'
Warning[203]: Found opcode in column 1. (MOVWF)
000072 6E96           00299 MOVWF TRISE,0   ; SET RE<0> AS INPUTS
                      00300                                 ; RE<1> AS OUTPUTS
                      00301                                 ; RE<2> AS INPUTS
                      00302 ;============================================================================
                      00303 
                      00304 ;============== WATCHDOG TIMER =========
                      00305 ;BSF    WDTCON,0,0
                      00306 
                      00307 ;=======================================
                      00308 
                      00309 
                      00310 
                      00311 
Warning[203]: Found opcode in column 1. (MOVLB)
MPASM  5.51               20191125_RTCGPU.ASM   4-30-2024  22:19:12         PAGE  8


LOC  OBJECT CODE     LINE SOURCE TEXT
  VALUE

000074 0101           00312 MOVLB   0X01            
Warning[203]: Found opcode in column 1. (BCF)
000076 908A           00313 R0_0
Warning[203]: Found opcode in column 1. (BCF)
000078 928A           00314 R1_0
Warning[203]: Found opcode in column 1. (BCF)
00007A 948A           00315 G0_0
Warning[203]: Found opcode in column 1. (BCF)
00007C 968A           00316 G1_0
                      00317 
Warning[203]: Found opcode in column 1. (BCF)
00007E 908B           00318 BCF     LATC,0,0
                      00319 
Warning[203]: Found opcode in column 1. (BCF)
000080 988C           00320 BCF     LATD,4,0
Warning[203]: Found opcode in column 1. (BSF)
000082 868C           00321 BSF     LATD,3,0
Warning[203]: Found opcode in column 1. (BSF)
000084 848C           00322 BSF     LATD,2,0
Warning[203]: Found opcode in column 1. (BSF)
000086 828C           00323 BSF     LATD,1,0
Warning[203]: Found opcode in column 1. (BSF)
000088 808C           00324 BSF     LATD,0,0
                      00325 
Warning[203]: Found opcode in column 1. (MOVLW)
00008A 0E00           00326 MOVLW   0
Warning[203]: Found opcode in column 1. (MOVWF)
00008C 6F63           00327 MOVWF   CSRBIT
                      00328 
Warning[203]: Found opcode in column 1. (MOVLW)
00008E 0E00           00329 MOVLW   0
Warning[203]: Found opcode in column 1. (MOVWF)
000090 6F5E           00330 MOVWF   COLORA,1
                      00331 
Warning[203]: Found opcode in column 1. (MOVLW)
000092 0E00           00332 MOVLW   0
Warning[203]: Found opcode in column 1. (MOVWF)
000094 6F50           00333 MOVWF   SCROLL_BIT
                      00334 
                      00335 
                      00336 
                      00337 
                      00338 
                      00339 
                      00340 
                      00341 
                      00342 
                      00343 
                      00344 
Warning[203]: Found opcode in column 1. (MOVLB)
000096 0101           00345 MOVLB   1
                      00346 
                      00347 
MPASM  5.51               20191125_RTCGPU.ASM   4-30-2024  22:19:12         PAGE  9


LOC  OBJECT CODE     LINE SOURCE TEXT
  VALUE

Warning[203]: Found opcode in column 1. (MOVLW)
000098 0E00           00348 MOVLW   0
Warning[203]: Found opcode in column 1. (MOVWF)
00009A 6F75           00349 MOVWF   I2C_DATA0
                      00350 
                      00351 
Warning[203]: Found opcode in column 1. (BCF)
00009C 9094           00352 BCF     TRISC,0         ;RA0 = OUTPUT   (I2C DATA)
Warning[203]: Found opcode in column 1. (BCF)
00009E 9294           00353 BCF     TRISC,1         ;RA1 = OUTPUT   (I2C CLOCK)
                      00354 
                      00355 ;========== DS3231 SET ================
                      00356 ;               CALL    I2C_WRITE
                      00357 ;               CALL    I2C_WRADD
                      00358 ;               
                      00359 ;               MOVLW   0X50            ;SECONDS
                      00360 ;               MOVWF   I2C_DATA0
                      00361 ;               CALL    I2C_DATAOUT
                      00362 ;
                      00363 ;               MOVLW   0X59            ;MINUTE
                      00364 ;               MOVWF   I2C_DATA0
                      00365 ;               CALL    I2C_DATAOUT
                      00366 ;
                      00367 ;               MOVLW   B'01110001'             ;HOUR
                      00368 ;               MOVWF   I2C_DATA0
                      00369 ;               CALL    I2C_DATAOUT
                      00370 ;
                      00371 ;               MOVLW   B'00000101'             ;DAY
                      00372 ;               MOVWF   I2C_DATA0
                      00373 ;               CALL    I2C_DATAOUT
                      00374 ;
                      00375 ;               MOVLW   0X02            ;DATE
                      00376 ;               MOVWF   I2C_DATA0
                      00377 ;               CALL    I2C_DATAOUT
                      00378 ;
                      00379 ;               MOVLW   B'00010001'                     ;MONTH
                      00380 ;               MOVWF   I2C_DATA0
                      00381 ;               CALL    I2C_DATAOUT
                      00382 ;
                      00383 ;               CALL    I2C_STOP
                      00384 ;======================================
                      00385 
Warning[203]: Found opcode in column 1. (MOVLW)
0000A0 0E00           00386 MOVLW   0
Warning[203]: Found opcode in column 1. (MOVWF)
0000A2 6F94           00387 MOVWF   SET_COUNTL
Warning[203]: Found opcode in column 1. (MOVWF)
0000A4 6F93           00388 MOVWF   SET_VAR
Warning[203]: Found opcode in column 1. (MOVWF)
0000A6 6F98           00389 MOVWF   BLINK
                      00390 
                      00391 
                      00392 
MPASM  5.51               20191125_RTCGPU.ASM   4-30-2024  22:19:12         PAGE 10


LOC  OBJECT CODE     LINE SOURCE TEXT
  VALUE

                      00393 
                      00394 
                      00395 
                      00396 
                      00397 
Warning[203]: Found opcode in column 1. (GOTO)
0000A8 EF56 F000      00398 GOTO    MAIN
                      00399 ;#######################        MAIN PROGRAM  ###########################
0000AC                00400 MAIN
0000AC 8195           00401                 BSF             SET_COUNTH,0
0000AE EC79 F000      00402                 CALL    DISP
0000B2 B484           00403                 BTFSC   PORTE,2 ;SET
0000B4 EF56 F000      00404                 GOTO    MAIN
0000B8                00405 MAN0
0000B8 2B94           00406                 INCF    SET_COUNTL
0000BA 0EFA           00407                 MOVLW   .250
0000BC 6194           00408                 CPFSLT  SET_COUNTL
0000BE EF68 F000      00409                 GOTO    MAN1            
                      00410 
0000C2 A484           00411                 BTFSS   PORTE,2 ;SET
0000C4 EF5C F000      00412                 GOTO    MAN0
                      00413 
0000C8 0E00           00414                 MOVLW   0
0000CA 6F94           00415                 MOVWF   SET_COUNTL
0000CC EF56 F000      00416                 GOTO    MAIN
                      00417 
0000D0                00418 MAN1
0000D0 2B93           00419                 INCF    SET_VAR
0000D2 0E00           00420                 MOVLW   0
0000D4 6F94           00421                 MOVWF   SET_COUNTL
0000D6                00422 MAN2
0000D6 ECA4 F000      00423                 CALL    DISPLAY_SETT
0000DA A484           00424                 BTFSS   PORTE,2 ;SET
0000DC EF6B F000      00425                 GOTO    MAN2
0000E0 0E00           00426                 MOVLW   0
0000E2 6F94           00427                 MOVWF   SET_COUNTL
                      00428 
                      00429 
0000E4                00430 MAN3    
0000E4 EC81 F000      00431                 CALL    DISPLAY
0000E8 A195           00432                 BTFSS   SET_COUNTH,0    ;UP
0000EA EF72 F000      00433                 GOTO    MAN3
                      00434 
Warning[203]: Found opcode in column 1. (GOTO)
0000EE EF56 F000      00435 GOTO    MAIN
                      00436 
                      00437 ;####################################################################
                      00438 
                      00439 
                      00440 
                      00441 
                      00442 ;=====  REPEATING OF THE DISPLAY SUBROUTINE FOR =============== 
                      00443 ;=====  DISPLAYING MULTIPLE DATA
MPASM  5.51               20191125_RTCGPU.ASM   4-30-2024  22:19:12         PAGE 11


LOC  OBJECT CODE     LINE SOURCE TEXT
  VALUE

0000F2                00444 DISP
                      00445 
0000F2 0EC8           00446         MOVLW   .200    ;SCROLLING SPEED
0000F4 6F61           00447         MOVWF   CCOUNT
                      00448 
0000F6                00449 DDISP
0000F6 EC81 F000      00450         CALL    DISPLAY
0000FA 2F61           00451         DECFSZ  CCOUNT,F
0000FC EF7B F000      00452         GOTO    DDISP
                      00453 
Warning[203]: Found opcode in column 1. (RETURN)
000100 0012           00454 RETURN
                      00455 ;==============================================================
                      00456 
                      00457 
                      00458 ;========================       DISPLAYING      =======================
000102                00459 DISPLAY
000102 0E10           00460                 MOVLW   .16
000104 6F44           00461                 MOVWF   COUNT2
000106 0E00           00462                 MOVLW   0
000108 6F49           00463                 MOVWF   ROW
                      00464 
00010A                00465 DISP0   
00010A 9E8C           00466                 OE_ON
00010C ECC9 F001      00467                 CALL    CLR_RAM
                      00468 
000110 ECB9 F000      00469                 CALL    COMMAND
                      00470 
000114 ECE0 F001      00471                 CALL    DATAREG
                      00472 
000118 8E8C           00473                 OE_OFF
00011A C149 FF8C      00474                 MOVFF   ROW,LATD
00011E 8C8C           00475                 LAT_ON
000120 9C8C           00476                 LAT_OFF
000122 2B49           00477                 INCF    ROW
000124 2F44           00478                 DECFSZ  COUNT2,F
000126 EF85 F000      00479                 GOTO    DISP0
                      00480 
                      00481 
00012A 0E01           00482                 MOVLW   1
00012C 6193           00483                 CPFSLT  SET_VAR
00012E EF9E F000      00484                 GOTO    DISPLAY_SET
000132 EF9B F000      00485                 GOTO    DISPLAY_NOSET
                      00486 
                      00487 
000136                00488 DISPLAY_NOSET
000136 EC00 F050      00489                 CALL    I2C_ROUTINE
Warning[203]: Found opcode in column 1. (RETURN)
00013A 0012           00490 RETURN
                      00491 
00013C                00492 DISPLAY_SET
00013C EC31 F050      00493                 CALL    I2C_SET_ROUTINE
000140 EC00 F058      00494                 CALL    BUTTON_ROUTINE
MPASM  5.51               20191125_RTCGPU.ASM   4-30-2024  22:19:12         PAGE 12


LOC  OBJECT CODE     LINE SOURCE TEXT
  VALUE

000144 2B98           00495                 INCF    BLINK
Warning[203]: Found opcode in column 1. (RETURN)
000146 0012           00496 RETURN
                      00497 ;==============================================================
                      00498 
                      00499 
                      00500 ;========================       DISPLAYING      =======================
000148                00501 DISPLAY_SETT
000148 0E10           00502                 MOVLW   .16
00014A 6F44           00503                 MOVWF   COUNT2
00014C 0E00           00504                 MOVLW   0
00014E 6F49           00505                 MOVWF   ROW
                      00506 
000150                00507 DISPS0  
000150 9E8C           00508                 OE_ON
000152 ECC9 F001      00509                 CALL    CLR_RAM
                      00510 
000156 ECB9 F000      00511                 CALL    COMMAND
                      00512 
00015A ECE0 F001      00513                 CALL    DATAREG
                      00514 
00015E 8E8C           00515                 OE_OFF
000160 C149 FF8C      00516                 MOVFF   ROW,LATD
000164 8C8C           00517                 LAT_ON
000166 9C8C           00518                 LAT_OFF
000168 2B49           00519                 INCF    ROW
00016A 2F44           00520                 DECFSZ  COUNT2,F
00016C EFA8 F000      00521                 GOTO    DISPS0
                      00522 
                      00523 
                      00524 
Warning[203]: Found opcode in column 1. (RETURN)
000170 0012           00525 RETURN
                      00526 ;==============================================================
                      00527 
                      00528 
                      00529 
                      00530 
                      00531 
                      00532 ;=======================        COMMANDS                ===================
000172                00533 COMMAND
                      00534 
                      00535 
                      00536 ;=====  BEFORE SMART DISPLAYING THIS IS HOW TO DISPLAY MANUALLY =====
000172 0E01           00537                 MOVLW   1
000174 6EDA           00538                 MOVWF   FSR2H
000176 0EA0           00539                 MOVLW   0XA0
000178 6ED9           00540                 MOVWF   FSR2L
                      00541 
                      00542 
00017A 0E00           00543                 MOVLW   0X00
00017C 6F5D           00544                 MOVWF   HUB
                      00545 
MPASM  5.51               20191125_RTCGPU.ASM   4-30-2024  22:19:12         PAGE 13


LOC  OBJECT CODE     LINE SOURCE TEXT
  VALUE

                      00546 
                      00547 ;===================    DATE            ==========
                      00548 
00017E 0E08           00549                 MOVLW   8
000180 6F4A           00550                 MOVWF   FONT
                      00551 
000182 0E05           00552                 MOVLW   5
000184 6393           00553                 CPFSEQ  SET_VAR
000186 EFC8 F000      00554                 GOTO    DISPL_MON
                      00555 
00018A A598           00556                 BTFSS   BLINK,2
00018C EFD9 F000      00557                 GOTO    SKIP_DISPL_MON
                      00558 
000190                00559 DISPL_MON
                      00560 
000190 0E10           00561                 MOVLW   10
000192 6F47           00562                 MOVWF   COLOR
000194 0E42           00563                 MOVLW   .66
000196 6F4C           00564                 MOVWF   CURSORX
000198 C18E F148      00565                 MOVFF   MON_T,NUMBER
00019C 9F48           00566                 BCF             NUMBER,7
00019E EC9C F001      00567                 CALL    HUBCHECKDUMP
                      00568 
0001A2 0E00           00569                 MOVLW   0
0001A4 6F47           00570                 MOVWF   COLOR
0001A6 0E4A           00571                 MOVLW   .74
0001A8 6F4C           00572                 MOVWF   CURSORX
0001AA C18F F148      00573                 MOVFF   MON_O,NUMBER
0001AE EC9C F001      00574                 CALL    HUBCHECKDUMP
                      00575 
0001B2                00576 SKIP_DISPL_MON
                      00577 
0001B2 0E00           00578                 MOVLW   0
0001B4 6F47           00579                 MOVWF   COLOR
0001B6 0E53           00580                 MOVLW   .83
0001B8 6F4C           00581                 MOVWF   CURSORX
0001BA 0E0A           00582                 MOVLW   0A
0001BC 6F48           00583                 MOVWF   NUMBER
0001BE EC9C F001      00584                 CALL    HUBCHECKDUMP
                      00585 
                      00586 
                      00587 
0001C2 0E04           00588                 MOVLW   4
0001C4 6393           00589                 CPFSEQ  SET_VAR
0001C6 EFE8 F000      00590                 GOTO    DISPL_DATE
                      00591 
0001CA A598           00592                 BTFSS   BLINK,2
0001CC EFF8 F000      00593                 GOTO    SKIP_DISPL_DATE
                      00594 
0001D0                00595 DISPL_DATE
0001D0 0E00           00596                 MOVLW   0
0001D2 6F47           00597                 MOVWF   COLOR
0001D4 0E58           00598                 MOVLW   .88
MPASM  5.51               20191125_RTCGPU.ASM   4-30-2024  22:19:12         PAGE 14


LOC  OBJECT CODE     LINE SOURCE TEXT
  VALUE

0001D6 6F4C           00599                 MOVWF   CURSORX
0001D8 C190 F148      00600                 MOVFF   DATE_T,NUMBER
0001DC EC9C F001      00601                 CALL    HUBCHECKDUMP
                      00602 
                      00603 
0001E0 0E00           00604                 MOVLW   0
0001E2 6F47           00605                 MOVWF   COLOR
0001E4 0E60           00606                 MOVLW   .96
0001E6 6F4C           00607                 MOVWF   CURSORX
0001E8 C191 F148      00608                 MOVFF   DATE_O,NUMBER
0001EC EC9C F001      00609                 CALL    HUBCHECKDUMP
                      00610 
0001F0                00611 SKIP_DISPL_DATE
                      00612 
                      00613 
                      00614 
                      00615 
                      00616 
                      00617 ;===================    SECONDS         ==========
0001F0 0E01           00618                 MOVLW   1
0001F2 6393           00619                 CPFSEQ  SET_VAR
0001F4 EFFF F000      00620                 GOTO    DISPL_SEC
                      00621 
0001F8 A598           00622                 BTFSS   BLINK,2
0001FA EF11 F001      00623                 GOTO    SKIP_DISPL_SEC
                      00624         
                      00625 
                      00626 
0001FE                00627 DISPL_SEC
0001FE 0E04           00628                 MOVLW   4
000200 6F4A           00629                 MOVWF   FONT
                      00630 
000202 0E01           00631                 MOVLW   1
000204 6F47           00632                 MOVWF   COLOR
000206 0E73           00633                 MOVLW   .115
000208 6F4C           00634                 MOVWF   CURSORX
00020A C18C F148      00635                 MOVFF   SEC_T,NUMBER
00020E EC9C F001      00636                 CALL    HUBCHECKDUMP
                      00637 
                      00638 
000212 0E01           00639                 MOVLW   1
000214 6F47           00640                 MOVWF   COLOR
000216 0E79           00641                 MOVLW   .121
000218 6F4C           00642                 MOVWF   CURSORX
00021A C18D F148      00643                 MOVFF   SEC_O,NUMBER
00021E EC9C F001      00644                 CALL    HUBCHECKDUMP
                      00645 
000222                00646 SKIP_DISPL_SEC
                      00647 
                      00648 
                      00649 
                      00650 
                      00651 
MPASM  5.51               20191125_RTCGPU.ASM   4-30-2024  22:19:12         PAGE 15


LOC  OBJECT CODE     LINE SOURCE TEXT
  VALUE

                      00652 
                      00653 
                      00654 ;===================    TIME            ==========
000222 0E02           00655                 MOVLW   2
000224 6F4A           00656                 MOVWF   FONT
                      00657 
000226 0E00           00658                 MOVLW   0X00
000228 6F5D           00659                 MOVWF   HUB
                      00660 
00022A 0E03           00661                 MOVLW   3
00022C 6393           00662                 CPFSEQ  SET_VAR
00022E EF1C F001      00663                 GOTO    DISPL_HOUR
                      00664 
000232 A598           00665                 BTFSS   BLINK,2
000234 EF32 F001      00666                 GOTO    SKIP_DISPL_HOUR
                      00667 
                      00668 
000238                00669 DISPL_HOUR
000238 0E01           00670                 MOVLW   1
00023A 6F47           00671                 MOVWF   COLOR
00023C 0E40           00672                 MOVLW   .64
00023E 6F4C           00673                 MOVWF   CURSORX
000240 C188 F148      00674                 MOVFF   HOUR_T,NUMBER
000244 9548           00675                 BCF             NUMBER,2
000246 9348           00676                 BCF             NUMBER,1
000248 0E1A           00677                 MOVLW   1A
00024A 2748           00678                 ADDWF   NUMBER
00024C EC9C F001      00679                 CALL    HUBCHECKDUMP
                      00680 
                      00681 
000250 0E01           00682                 MOVLW   1
000252 6F47           00683                 MOVWF   COLOR
000254 0E4B           00684                 MOVLW   .75
000256 6F4C           00685                 MOVWF   CURSORX
000258 C189 F148      00686                 MOVFF   HOUR_O,NUMBER
00025C 0E1A           00687                 MOVLW   1A
00025E 2748           00688                 ADDWF   NUMBER
000260 EC9C F001      00689                 CALL    HUBCHECKDUMP
                      00690 
000264                00691 SKIP_DISPL_HOUR
000264 0E01           00692                 MOVLW   1
000266 6193           00693                 CPFSLT  SET_VAR
000268 EF39 F001      00694                 GOTO    NOSKIPSEMICOLON
                      00695 
00026C B18D           00696                 BTFSC   SEC_O,0
00026E EF41 F001      00697                 GOTO    SKIPSEMICOLON
                      00698 
                      00699 
000272                00700 NOSKIPSEMICOLON
000272 0E00           00701                 MOVLW   0
000274 6F47           00702                 MOVWF   COLOR
000276 0E56           00703                 MOVLW   .86
000278 6F4C           00704                 MOVWF   CURSORX
MPASM  5.51               20191125_RTCGPU.ASM   4-30-2024  22:19:12         PAGE 16


LOC  OBJECT CODE     LINE SOURCE TEXT
  VALUE

00027A 0E26           00705                 MOVLW   26
00027C 6F48           00706                 MOVWF   NUMBER
00027E EC9C F001      00707                 CALL    HUBCHECKDUMP
                      00708 
                      00709 
000282                00710 SKIPSEMICOLON
                      00711 
000282 0E02           00712                 MOVLW   2
000284 6393           00713                 CPFSEQ  SET_VAR
000286 EF48 F001      00714                 GOTO    DISPL_MIN
                      00715 
00028A A598           00716                 BTFSS   BLINK,2
00028C EF5C F001      00717                 GOTO    SKIP_DISPL_MIN
                      00718 
000290                00719 DISPL_MIN
000290 0E01           00720                 MOVLW   1
000292 6F47           00721                 MOVWF   COLOR
000294 0E5B           00722                 MOVLW   .91
000296 6F4C           00723                 MOVWF   CURSORX
000298 C18A F148      00724                 MOVFF   MIN_T,NUMBER
00029C 0E1A           00725                 MOVLW   1A
00029E 2748           00726                 ADDWF   NUMBER
0002A0 EC9C F001      00727                 CALL    HUBCHECKDUMP
                      00728 
                      00729 
0002A4 0E01           00730                 MOVLW   1
0002A6 6F47           00731                 MOVWF   COLOR
0002A8 0E66           00732                 MOVLW   .102
0002AA 6F4C           00733                 MOVWF   CURSORX
0002AC C18B F148      00734                 MOVFF   MIN_O,NUMBER
0002B0 0E1A           00735                 MOVLW   1A
0002B2 2748           00736                 ADDWF   NUMBER
0002B4 EC9C F001      00737                 CALL    HUBCHECKDUMP
                      00738 
                      00739 
0002B8                00740 SKIP_DISPL_MIN
0002B8 0E00           00741                 MOVLW   0
0002BA 6F47           00742                 MOVWF   COLOR
0002BC 0E72           00743                 MOVLW   .114
0002BE 6F4C           00744                 MOVWF   CURSORX
0002C0 0E27           00745                 MOVLW   27                              ;A/P
0002C2 6F48           00746                 MOVWF   NUMBER
0002C4 B388           00747                 BTFSC   HOUR_T,1
0002C6 2B48           00748                 INCF    NUMBER
0002C8 EC9C F001      00749                 CALL    HUBCHECKDUMP
                      00750 
                      00751 
0002CC 0E00           00752                 MOVLW   0
0002CE 6F47           00753                 MOVWF   COLOR
0002D0 0E79           00754                 MOVLW   .121
0002D2 6F4C           00755                 MOVWF   CURSORX
0002D4 0E24           00756                 MOVLW   24                              ;M
0002D6 6F48           00757                 MOVWF   NUMBER
MPASM  5.51               20191125_RTCGPU.ASM   4-30-2024  22:19:12         PAGE 17


LOC  OBJECT CODE     LINE SOURCE TEXT
  VALUE

0002D8 EC9C F001      00758                 CALL    HUBCHECKDUMP
                      00759 
                      00760 
                      00761 
                      00762 
0002DC 0E02           00763                 MOVLW   2
0002DE 6F47           00764                 MOVWF   COLOR
0002E0 0E6A           00765                 MOVLW   .106
0002E2 6F4C           00766                 MOVWF   CURSORX
0002E4 0E29           00767                 MOVLW   29                      ;logo
0002E6 6F48           00768                 MOVWF   NUMBER
0002E8 EC9C F001      00769                 CALL    HUBCHECKDUMP
                      00770 
                      00771 
Warning[203]: Found opcode in column 1. (RETURN)
0002EC 0012           00772 RETURN
                      00773 ;====================================================================
                      00774 
                      00775 
                      00776 
                      00777 
                      00778 
                      00779 ;==================================================================     
                      00780 
0002EE                00781 CMD_SUB
0002EE CFDF F14C      00782                 MOVFF   INDF2,CURSORX
                      00783                 
0002F2 C15E F147      00784                 MOVFF   COLORA,COLOR
                      00785                 
0002F6 2AD9           00786                 INCF    FSR2L
0002F8 CFDF F165      00787                 MOVFF   INDF2,CSRHBYTE
0002FC 06D9           00788                 DECF    FSR2L
                      00789 
0002FE 0E05           00790                 MOVLW   5
000300 6165           00791                 CPFSLT  CSRHBYTE
000302 EF97 F001      00792                 GOTO    CMD_SUB2        ;CSRHBYTE IS 5 AND UP
                      00793                                                         ;CSRHBYTE IS 4 AND DOWN
                      00794                 
                      00795 
000306 0E7F           00796                 MOVLW   .127
000308 614C           00797                 CPFSLT  CURSORX
00030A EF89 F001      00798                 GOTO    CMD_SUB0        ;CURSORX > 127
00030E EF91 F001      00799                 GOTO    CMD_SUB1        ;CURSORX < 127
                      00800                 
                      00801                 
                      00802 
000312                00803 CMD_SUB0
000312 0E03           00804                 MOVLW   3
000314 6365           00805                 CPFSEQ  CSRHBYTE
000316 EF97 F001      00806                 GOTO    CMD_SUB2
00031A EC9C F001      00807                 CALL    HUBCHECKDUMP
00031E EF97 F001      00808                 GOTO    CMD_SUB2
                      00809                 
MPASM  5.51               20191125_RTCGPU.ASM   4-30-2024  22:19:12         PAGE 18


LOC  OBJECT CODE     LINE SOURCE TEXT
  VALUE

                      00810                 
000322                00811 CMD_SUB1
                      00812 
000322 0E04           00813                 MOVLW   4
000324 6365           00814                 CPFSEQ  CSRHBYTE,1
000326 EF97 F001      00815                 GOTO    CMD_SUB2
00032A EC9C F001      00816                 CALL    HUBCHECKDUMP
                      00817 
                      00818 
00032E                00819 CMD_SUB2
                      00820 
                      00821 
00032E 2AD9           00822                 INCF    FSR2L
000330 2AD9           00823                 INCF    FSR2L
000332 0E00           00824                 MOVLW   0X00
000334 6F5D           00825                 MOVWF   HUB
                      00826                 
                      00827 
Warning[203]: Found opcode in column 1. (RETURN)
000336 0012           00828 RETURN
                      00829 
                      00830 ;==================================================================     
000338                00831 HUBCHECKDUMP
000338 0E7F           00832                 MOVLW   .127
00033A 614C           00833                 CPFSLT  CURSORX,1
                      00834                 
00033C EFB8 F001      00835                 GOTO    CMDG127
000340                00836 HBCD
000340 0E40           00837                 MOVLW   .64
000342 634C           00838                 CPFSEQ  CURSORX,1
000344 EFA6 F001      00839                 GOTO    CMD0
000348 EFB1 F001      00840                 GOTO    CMD64
                      00841 
00034C                00842 CMD0            
00034C 0E3F           00843                 MOVLW   .63
00034E 654C           00844                 CPFSGT  CURSORX,1
000350 EFAE F001      00845                 GOTO    CMDD
                      00846 
000354 0E20           00847                 MOVLW   0X20
000356 6F5D           00848                 MOVWF   HUB
                      00849                 
000358 0E40           00850                 MOVLW   .64
00035A 5F4C           00851                 SUBWF   CURSORX
                      00852                 
                      00853 
00035C                00854 CMDD
                      00855                 
00035C EC2A F002      00856                 CALL    DUMP
Warning[203]: Found opcode in column 1. (RETURN)
000360 0012           00857 RETURN
                      00858 
000362                00859 CMD64
000362 0E20           00860                 MOVLW   0X20
MPASM  5.51               20191125_RTCGPU.ASM   4-30-2024  22:19:12         PAGE 19


LOC  OBJECT CODE     LINE SOURCE TEXT
  VALUE

000364 6F5D           00861                 MOVWF   HUB
                      00862 
                      00863 
000366 0E00           00864                 MOVLW   .0
000368 6F4C           00865                 MOVWF   CURSORX
00036A EC2A F002      00866                 CALL    DUMP
Warning[203]: Found opcode in column 1. (RETURN)
00036E 0012           00867 RETURN
                      00868 
000370                00869 CMDG127
000370 0E7F           00870                 MOVLW   .127
000372 634C           00871                 CPFSEQ  CURSORX,1
000374 EFBE F001      00872                 GOTO    CMDG127C
000378 EFA0 F001      00873                 GOTO    HBCD
00037C                00874 CMDG127C
00037C 0EE8           00875                 MOVLW   .232
00037E 654C           00876                 CPFSGT  CURSORX,1
000380 0012           00877                 RETURN  
                      00878 
000382 8163           00879                 BSF             CSRBIT,0
000384 C14C F14E      00880                 MOVFF   CURSORX,CURSORX_TEMP
                      00881 
000388 0ED0           00882                 MOVLW   .208
00038A 5F4C           00883                 SUBWF   CURSORX
00038C EC2A F002      00884                 CALL    DUMP
Warning[203]: Found opcode in column 1. (RETURN)
000390 0012           00885 RETURN
                      00886 ;==============================================================
                      00887 
                      00888 
                      00889 ;=======================        CLEAR   RAM             ===================
000392                00890 CLR_RAM
000392 0101           00891         MOVLB           0X01    ;BANK1
000394 0E40           00892         MOVLW           .64
000396 6F45           00893         MOVWF           POINTER
                      00894 
000398 0E01           00895         MOVLW           0X01
00039A 6EEA           00896         MOVWF           FSR0H,0
                      00897 
00039C 0E00           00898         MOVLW           0X00
00039E 6EE9           00899         MOVWF           FSR0L,0  
                      00900 
0003A0 0EFF           00901         MOVLW           0XFF
                      00902 
0003A2                00903 CLR0
0003A2 6EEF           00904         MOVWF           INDF0
                      00905 
0003A4 2AE9           00906         INCF            FSR0L
0003A6 2F45           00907         DECFSZ          POINTER, F
0003A8 EFD1 F001      00908         GOTO            CLR0
                      00909         
                      00910         
0003AC 0EFF           00911                 MOVLW   0XFF
MPASM  5.51               20191125_RTCGPU.ASM   4-30-2024  22:19:12         PAGE 20


LOC  OBJECT CODE     LINE SOURCE TEXT
  VALUE

0003AE 6F55           00912                 MOVWF   TEMPRAM+00
0003B0 6F56           00913                 MOVWF   TEMPRAM+01
0003B2 6F57           00914                 MOVWF   TEMPRAM+02
0003B4 6F58           00915                 MOVWF   TEMPRAM+03
0003B6 6F59           00916                 MOVWF   TEMPRAM+04
0003B8 6F5A           00917                 MOVWF   TEMPRAM+05
0003BA 6F5B           00918                 MOVWF   TEMPRAM+06
0003BC 6F5C           00919                 MOVWF   TEMPRAM+07
                      00920 
0003BE 0012           00921         RETURN
                      00922 ;==============================================================
                      00923 
                      00924 
                      00925 ;=======================        REGISTER DATA           ===============
0003C0                00926 DATAREG
                      00927 
                      00928 
0003C0 0101           00929         MOVLB   0X01
                      00930 
0003C2 0E01           00931         MOVLW   0X01
0003C4 6EEA           00932         MOVWF   FSR0H
                      00933 
                      00934 ;       MOVLW   0X00
                      00935 ;       MOVWF   FSR0L
                      00936 ;       CALL    DATAREGSUB
                      00937 
0003C6 0E20           00938         MOVLW   0X20
0003C8 6EE9           00939         MOVWF   FSR0L
0003CA ECE8 F001      00940         CALL    DATAREGSUB
Warning[203]: Found opcode in column 1. (RETURN)
0003CE 0012           00941 RETURN
                      00942 ;==============================================================
                      00943 
                      00944 
                      00945 
                      00946 ;==================== DATA REGISRY SUB ROUTINE ================
0003D0                00947 DATAREGSUB
0003D0 0E08           00948         MOVLW   8
0003D2 6F42           00949         MOVWF   COUNT0
                      00950         
                      00951 
0003D4                00952 DR0
0003D4 CFEF F151      00953         MOVFF   INDF0,REDHALF0
                      00954         
0003D8 86E9           00955         BSF             FSR0L,3
                      00956         
0003DA CFEF F152      00957         MOVFF   INDF0,REDHALF1
                      00958 
                      00959 
0003DE 88E9           00960         BSF             FSR0L,4
                      00961         
0003E0 CFEF F154      00962         MOVFF   INDF0,GRNHALF1
                      00963 
MPASM  5.51               20191125_RTCGPU.ASM   4-30-2024  22:19:12         PAGE 21


LOC  OBJECT CODE     LINE SOURCE TEXT
  VALUE

                      00964         
0003E4 96E9           00965         BCF             FSR0L,3
                      00966 
0003E6 CFEF F153      00967         MOVFF   INDF0,GRNHALF0
                      00968 
0003EA 0E08           00969         MOVLW   8
0003EC 6F43           00970         MOVWF   COUNT1
                      00971 
0003EE                00972 DR1
0003EE 3751           00973         RLCF            REDHALF0
                      00974         
0003F0 A0D8           00975         BTFSS   STATUS,C
0003F2 EFFD F001      00976         GOTO    R0LO
0003F6 EF00 F002      00977         GOTO    R0HI
                      00978 
0003FA                00979 R0LO
0003FA 808A           00980         R0_1
0003FC EF01 F002      00981         GOTO    DR2
000400                00982 R0HI
000400 908A           00983         R0_0
                      00984 ;-------------------
000402                00985 DR2
000402 3752           00986         RLCF    REDHALF1
                      00987         
000404 A0D8           00988         BTFSS   STATUS,C
000406 EF07 F002      00989         GOTO    R1LO
00040A EF0A F002      00990         GOTO    R1HI
                      00991 
00040E                00992 R1LO
00040E 828A           00993         R1_1
000410 EF0B F002      00994         GOTO    DR3
                      00995 
000414                00996 R1HI
000414 928A           00997         R1_0
                      00998 ;-------------------
000416                00999 DR3
                      01000         
000416 3753           01001         RLCF            GRNHALF0
                      01002         
000418 A0D8           01003         BTFSS   STATUS,C
00041A EF11 F002      01004         GOTO    G0LO
00041E EF14 F002      01005         GOTO    G0HI
                      01006 
                      01007 
000422                01008 G0LO
000422 848A           01009         G0_1
000424 EF15 F002      01010         GOTO    DR4
                      01011 
000428                01012 G0HI
000428 948A           01013         G0_0
                      01014 ;-------------------
00042A                01015 DR4
                      01016 
MPASM  5.51               20191125_RTCGPU.ASM   4-30-2024  22:19:12         PAGE 22


LOC  OBJECT CODE     LINE SOURCE TEXT
  VALUE

00042A 3754           01017         RLCF            GRNHALF1
                      01018 
00042C A0D8           01019         BTFSS   STATUS,C
00042E EF1B F002      01020         GOTO    G1LO
000432 EF1E F002      01021         GOTO    G1HI
                      01022 
                      01023 
000436                01024 G1LO
000436 868A           01025         G1_1
000438 EF1F F002      01026         GOTO    DR5
00043C                01027 G1HI
00043C 968A           01028         G1_0
                      01029 ;-------------------
00043E                01030 DR5
                      01031         
                      01032 
00043E 8A8C           01033         CLK_ON
000440 9A8C           01034         CLK_OFF
                      01035 
000442 2F43           01036         DECFSZ  COUNT1,F
000444 EFF7 F001      01037         GOTO    DR1
                      01038 
000448 98E9           01039         BCF             FSR0L,4
00044A 2AE9           01040         INCF    FSR0L
                      01041         
00044C 2F42           01042         DECFSZ  COUNT0,F
00044E EFEA F001      01043         GOTO    DR0
Warning[203]: Found opcode in column 1. (RETURN)
000452 0012           01044 RETURN
                      01045 ;============================================================== 
                      01046 
                      01047 
                      01048 
                      01049 ;======================= DUMPING OF DATA ======================
000454                01050 DUMP
000454 C149 F146      01051                 MOVFF   ROW,BTCOUNT
                      01052 
000458 CFFA F16F      01053                 MOVFF   PCLATH,PCLATH_TEMP
00045C 0E00           01054                 MOVLW   0
00045E 6F45           01055                 MOVWF   POINTER
                      01056 
000460 0EFF           01057                 MOVLW   0XFF
000462 6F55           01058                 MOVWF   TEMPRAM+00
000464 6F56           01059                 MOVWF   TEMPRAM+01
000466 6F57           01060                 MOVWF   TEMPRAM+02
000468 6F58           01061                 MOVWF   TEMPRAM+03
00046A 6F59           01062                 MOVWF   TEMPRAM+04
00046C 6F5A           01063                 MOVWF   TEMPRAM+05
00046E 6F5B           01064                 MOVWF   TEMPRAM+06
000470 6F5C           01065                 MOVWF   TEMPRAM+07
                      01066 ;============================
000472 0E00           01067                 MOVLW   0
000474 6EFB           01068                 MOVWF   PCLATU
MPASM  5.51               20191125_RTCGPU.ASM   4-30-2024  22:19:12         PAGE 23


LOC  OBJECT CODE     LINE SOURCE TEXT
  VALUE

000476 0E04           01069                 MOVLW   4
000478 6EFA           01070                 MOVWF   PCLATH
                      01071 
00047A C14A FFE8      01072                 MOVFF   FONT,WREG
00047E 26F9           01073                 ADDWF   PCL
                      01074 
000480 0012           01075                 RETURN
000482 EF47 F002      01076                 GOTO    DMP_FONT02
000486 EF71 F002      01077                 GOTO    DMP_FONT04
00048A EF8A F002      01078                 GOTO    DMP_FONT06
                      01079 
                      01080 
                      01081 
                      01082 ;============== FONT = 02 =============
00048E                01083 DMP_FONT02
                      01084 
00048E C146 FFE8      01085                 MOVFF   BTCOUNT,WREG
000492 B4D8           01086                 BTFSC   STATUS,Z
000494 EF4E F002      01087                 GOTO    DMP_FONT02CONT
                      01088 
                      01089 
000498 2746           01090                 ADDWF   BTCOUNT
00049A 2746           01091                 ADDWF   BTCOUNT
00049C                01092 DMP_FONT02CONT
                      01093 
00049C 0E00           01094                 MOVLW   0
00049E 6EFA           01095                 MOVWF   PCLATH
                      01096 
0004A0 EC00 F006      01097                 CALL    FONT02H
0004A4 6F55           01098                 MOVWF   TEMPRAM+00
0004A6 2B46           01099                 INCF    BTCOUNT
                      01100 
                      01101 
0004A8 EC00 F006      01102                 CALL    FONT02H
0004AC 6F56           01103                 MOVWF   TEMPRAM+01
0004AE 2B46           01104                 INCF    BTCOUNT
                      01105 
                      01106 
0004B0 EC00 F006      01107                 CALL    FONT02H
0004B4 6F57           01108                 MOVWF   TEMPRAM+02
                      01109 
0004B6 0746           01110                 DECF    BTCOUNT
0004B8 0746           01111                 DECF    BTCOUNT
                      01112 
                      01113 
                      01114 
                      01115                 
                      01116                 
0004BA EC80 F006      01117                 CALL    FONT02L
0004BE 6F59           01118                 MOVWF   TEMPRAM+04
0004C0 2B46           01119                 INCF    BTCOUNT
                      01120 
                      01121 
MPASM  5.51               20191125_RTCGPU.ASM   4-30-2024  22:19:12         PAGE 24


LOC  OBJECT CODE     LINE SOURCE TEXT
  VALUE

                      01122 
0004C2 EC80 F006      01123                 CALL    FONT02L
0004C6 6F5A           01124                 MOVWF   TEMPRAM+05
0004C8 2B46           01125                 INCF    BTCOUNT
                      01126 
                      01127 
0004CA EC80 F006      01128                 CALL    FONT02L
0004CE 6F5B           01129                 MOVWF   TEMPRAM+06
                      01130 
                      01131 
                      01132 
                      01133 
0004D0 C16F FFFA      01134                 MOVFF   PCLATH_TEMP,PCLATH
0004D4 EF6C F002      01135                 GOTO    DMP0
                      01136 
                      01137 
0004D8                01138 DMP0
                      01139                 
                      01140 
0004D8 C16F FFFA      01141                 MOVFF   PCLATH_TEMP,PCLATH
0004DC ECA0 F002      01142                 CALL    DATAINRAM
                      01143 
Warning[203]: Found opcode in column 1. (RETURN)
0004E0 0012           01144 RETURN
                      01145 ;======================================
                      01146 
                      01147 
                      01148 ;============== FONT = 04 =============
0004E2                01149 DMP_FONT04
                      01150 
                      01151 
0004E2 C146 FFE8      01152                 MOVFF   BTCOUNT,WREG
0004E6 B4D8           01153                 BTFSC   STATUS,Z
0004E8 EF7B F002      01154                 GOTO    DMP_FONT04CONT
                      01155 
                      01156 
0004EC C149 F146      01157                 MOVFF   ROW,BTCOUNT
                      01158 
0004F0 0E08           01159                 MOVLW   8
0004F2 6149           01160                 CPFSLT  ROW
0004F4 0012           01161                 RETURN
                      01162 
0004F6                01163 DMP_FONT04CONT
                      01164 
                      01165 
                      01166 
0004F6 0E00           01167                 MOVLW   0
0004F8 6EFA           01168                 MOVWF   PCLATH
                      01169 
0004FA EC00 F038      01170                 CALL    FONT04H
0004FE 6F55           01171                 MOVWF   TEMPRAM+00
000500 2B46           01172                 INCF    BTCOUNT
                      01173 
MPASM  5.51               20191125_RTCGPU.ASM   4-30-2024  22:19:12         PAGE 25


LOC  OBJECT CODE     LINE SOURCE TEXT
  VALUE

                      01174 
                      01175 
                      01176 
000502 C16F FFFA      01177                 MOVFF   PCLATH_TEMP,PCLATH
000506 EF85 F002      01178                 GOTO    DMP04
                      01179 
                      01180 
00050A                01181 DMP04
                      01182                 
                      01183 
00050A C16F FFFA      01184                 MOVFF   PCLATH_TEMP,PCLATH
00050E ECA0 F002      01185                 CALL    DATAINRAM
                      01186 
Warning[203]: Found opcode in column 1. (RETURN)
000512 0012           01187 RETURN
                      01188 ;============== FONT = 06 =============
000514                01189 DMP_FONT06
                      01190 
                      01191 
000514 C146 FFE8      01192                 MOVFF   BTCOUNT,WREG
000518 B4D8           01193                 BTFSC   STATUS,Z
00051A EF91 F002      01194                 GOTO    DMP_FONT06CONT
                      01195 
                      01196 
00051E C149 F146      01197                 MOVFF   ROW,BTCOUNT
                      01198 
                      01199 
000522                01200 DMP_FONT06CONT
                      01201 
                      01202 
                      01203 
000522 0E00           01204                 MOVLW   0
000524 6EFA           01205                 MOVWF   PCLATH
                      01206 
000526 EC00 F039      01207                 CALL    FONT06H
00052A 6F59           01208                 MOVWF   TEMPRAM+04
00052C 2B46           01209                 INCF    BTCOUNT
                      01210 
                      01211 
                      01212 
                      01213 
00052E C16F FFFA      01214                 MOVFF   PCLATH_TEMP,PCLATH
000532 EF9B F002      01215                 GOTO    DMP06
                      01216 
                      01217 
000536                01218 DMP06
                      01219                 
                      01220 
000536 C16F FFFA      01221                 MOVFF   PCLATH_TEMP,PCLATH
00053A ECA0 F002      01222                 CALL    DATAINRAM
                      01223 
Warning[203]: Found opcode in column 1. (RETURN)
00053E 0012           01224 RETURN
MPASM  5.51               20191125_RTCGPU.ASM   4-30-2024  22:19:12         PAGE 26


LOC  OBJECT CODE     LINE SOURCE TEXT
  VALUE

                      01225 ;==============================================================
                      01226 
                      01227 
                      01228 
                      01229 
                      01230 
                      01231 
                      01232 
                      01233 
                      01234 ;======================== PUT DATA IN RAM =====================
000540                01235 DATAINRAM
                      01236                 
000540 674C           01237                 TSTFSZ  CURSORX,1
000542 EFA5 F002      01238                 GOTO    DIRC
                      01239 
000546 EFB9 F002      01240                 GOTO    DIR1   ;DIR2(0)
                      01241 
00054A                01242 DIRC
00054A EC82 F004      01243                 CALL    CURSORX_TEST
00054E 6741           01244                 TSTFSZ  LOOP
000550 EFAC F002      01245                 GOTO    DIR0
000554 EFB9 F002      01246                 GOTO    DIR1
000558                01247 DIR0
000558 80D8           01248                 BSF             STATUS,C
00055A 3355           01249                 RRCF    TEMPRAM+00
00055C 3356           01250                 RRCF    TEMPRAM+01
00055E 3357           01251                 RRCF    TEMPRAM+02
000560 3358           01252                 RRCF    TEMPRAM+03
000562 80D8           01253                 BSF             STATUS,C
000564 3359           01254                 RRCF    TEMPRAM+04
000566 335A           01255                 RRCF    TEMPRAM+05
000568 335B           01256                 RRCF    TEMPRAM+06
00056A 335C           01257                 RRCF    TEMPRAM+07
                      01258 
00056C 2F41           01259                 DECFSZ  LOOP,F
00056E EFAC F002      01260                 GOTO    DIR0
                      01261 
000572                01262 DIR1
                      01263 
000572 CFFA F16F      01264                 MOVFF   PCLATH,PCLATH_TEMP
000576 0E01           01265                 MOVLW   0X01
000578 6EEA           01266                 MOVWF   FSR0H
00057A 0E00           01267                 MOVLW   0X00
00057C 6EE9           01268                 MOVWF   FSR0L
                      01269 
00057E 0E01           01270                 MOVLW   0X01
000580 6EE2           01271                 MOVWF   FSR1H
000582 0E55           01272                 MOVLW   0X55
000584 6EE1           01273                 MOVWF   FSR1L
                      01274 
000586 C15D FFE8      01275                 MOVFF   HUB,WREG
00058A 26E9           01276                 ADDWF   FSR0L
                      01277 
MPASM  5.51               20191125_RTCGPU.ASM   4-30-2024  22:19:12         PAGE 27


LOC  OBJECT CODE     LINE SOURCE TEXT
  VALUE

00058C C145 FFE8      01278                 MOVFF   POINTER,WREG
000590 26E9           01279                 ADDWF   FSR0L
                      01280                 
000592 B347           01281                 BTFSC   COLOR,1
000594 EFD0 F002      01282                 GOTO    DIR2_YELLOW
000598 ECE8 F002      01283                 CALL    DIR_SUB
00059C 9163           01284                 BCF             CSRBIT,0        
Warning[203]: Found opcode in column 1. (RETURN)
00059E 0012           01285 RETURN
                      01286 
0005A0                01287 DIR2_YELLOW
0005A0 0E00           01288                 MOVLW   0
0005A2 6F47           01289                 MOVWF   COLOR
0005A4 ECE8 F002      01290                 CALL    DIR_SUB
                      01291 
                      01292 
0005A8 0E01           01293                 MOVLW   0X01
0005AA 6EEA           01294                 MOVWF   FSR0H
0005AC 0E00           01295                 MOVLW   0X00
0005AE 6EE9           01296                 MOVWF   FSR0L
                      01297 
                      01298 
0005B0 0E01           01299                 MOVLW   0X01
0005B2 6EE2           01300                 MOVWF   FSR1H
0005B4 0E55           01301                 MOVLW   0X55
0005B6 6EE1           01302                 MOVWF   FSR1L
                      01303 
0005B8 C15D FFE8      01304                 MOVFF   HUB,WREG
0005BC 26E9           01305                 ADDWF   FSR0L
                      01306 
0005BE C145 FFE8      01307                 MOVFF   POINTER,WREG
0005C2 26E9           01308                 ADDWF   FSR0L
                      01309 
0005C4 0E01           01310                 MOVLW   1
0005C6 6F47           01311                 MOVWF   COLOR
0005C8 ECE8 F002      01312                 CALL    DIR_SUB
0005CC 9163           01313                 BCF             CSRBIT,0
Warning[203]: Found opcode in column 1. (RETURN)
0005CE 0012           01314 RETURN
                      01315 
                      01316 
0005D0                01317 DIR_SUB
0005D0 B147           01318                 BTFSC   COLOR,0
0005D2 88E9           01319                 BSF             FSR0L,4
                      01320 
0005D4 A163           01321                 BTFSS   CSRBIT,0
0005D6 EFF1 F002      01322                 GOTO    DIR_SUB0
                      01323 
0005DA 90E9           01324                 BCF             FSR0L,0
0005DC 92E9           01325                 BCF             FSR0L,1
0005DE 94E9           01326                 BCF             FSR0L,2
0005E0 96E9           01327                 BCF             FSR0L,3
0005E2                01328 DIR_SUB0
MPASM  5.51               20191125_RTCGPU.ASM   4-30-2024  22:19:12         PAGE 28


LOC  OBJECT CODE     LINE SOURCE TEXT
  VALUE

0005E2 ECCA F003      01329                 CALL    HUBTESTH        ;TEMPRAM+00
0005E6 2AE1           01330                 INCF    FSR1L
                      01331 
0005E8 B163           01332                 BTFSC   CSRBIT,0
0005EA EF01 F003      01333                 GOTO    DIR2A
                      01334 
                      01335 
0005EE 0E37           01336                 MOVLW   .55
0005F0 654C           01337                 CPFSGT  CURSORX,1
0005F2 EF01 F003      01338                 GOTO    DIR2A
                      01339                 
0005F6 90E9           01340                 BCF             FSR0L,0
0005F8 92E9           01341                 BCF             FSR0L,1
0005FA 94E9           01342                 BCF             FSR0L,2
                      01343                 
0005FC 8AE9           01344                 BSF             FSR0L,5
0005FE EF02 F003      01345                 GOTO    DIR3A
                      01346 
000602                01347 DIR2A
000602 2AE9           01348                 INCF    FSR0L
000604                01349 DIR3A
000604 ECCA F003      01350                 CALL    HUBTESTH        ;TEMPRAM+01
000608 2AE1           01351                 INCF    FSR1L
                      01352 
00060A B163           01353                 BTFSC   CSRBIT,0
00060C EF20 F003      01354                 GOTO    DIR2BA
                      01355 
                      01356 
000610 0E2F           01357                 MOVLW   .47
000612 654C           01358                 CPFSGT  CURSORX,1
000614 EF16 F003      01359                 GOTO    DIR2B
                      01360 
000618 0E37           01361                 MOVLW   .55
00061A 614C           01362                 CPFSLT  CURSORX,1
00061C EF16 F003      01363                 GOTO    DIR2B
                      01364                 
000620 90E9           01365                 BCF             FSR0L,0
000622 92E9           01366                 BCF             FSR0L,1
000624 94E9           01367                 BCF             FSR0L,2
                      01368                 
000626 8AE9           01369                 BSF             FSR0L,5
000628 EF21 F003      01370                 GOTO    DIR3B
                      01371 
00062C                01372 DIR2B
00062C 0E37           01373                 MOVLW   .55
00062E 634C           01374                 CPFSEQ  CURSORX,1
000630 EF20 F003      01375                 GOTO    DIR2BA
000634 90E9           01376                 BCF             FSR0L,0
000636 92E9           01377                 BCF             FSR0L,1
000638 94E9           01378                 BCF             FSR0L,2
                      01379                 
00063A 8AE9           01380                 BSF             FSR0L,5
00063C EF21 F003      01381                 GOTO    DIR3B
MPASM  5.51               20191125_RTCGPU.ASM   4-30-2024  22:19:12         PAGE 29


LOC  OBJECT CODE     LINE SOURCE TEXT
  VALUE

                      01382 
000640                01383 DIR2BA
000640 2AE9           01384                 INCF    FSR0L
000642                01385 DIR3B
000642 ECCA F003      01386                 CALL    HUBTESTH        ;TEMPRAM+02
000646 2AE1           01387                 INCF    FSR1L
                      01388 
000648 B163           01389                 BTFSC   CSRBIT,0
00064A EF43 F003      01390                 GOTO    DIR2CA
                      01391 
00064E 0E27           01392                 MOVLW   .39
000650 654C           01393                 CPFSGT  CURSORX,1
000652 EF39 F003      01394                 GOTO    DIR2C
                      01395 
000656 0E2F           01396                 MOVLW   .47
000658 614C           01397                 CPFSLT  CURSORX,1
00065A EF39 F003      01398                 GOTO    DIR2C
                      01399 
00065E 0E37           01400                 MOVLW   .55
000660 614C           01401                 CPFSLT  CURSORX,1
000662 EF39 F003      01402                 GOTO    DIR2C
                      01403                 
000666 90E9           01404                 BCF             FSR0L,0
000668 92E9           01405                 BCF             FSR0L,1
00066A 94E9           01406                 BCF             FSR0L,2
                      01407                 
00066C 8AE9           01408                 BSF             FSR0L,5
00066E EF44 F003      01409                 GOTO    DIR3C
                      01410 
000672                01411 DIR2C
000672 0E2F           01412                 MOVLW   .47
000674 634C           01413                 CPFSEQ  CURSORX,1
000676 EF43 F003      01414                 GOTO    DIR2CA
00067A 90E9           01415                 BCF             FSR0L,0
00067C 92E9           01416                 BCF             FSR0L,1
00067E 94E9           01417                 BCF             FSR0L,2
                      01418                 
000680 8AE9           01419                 BSF             FSR0L,5
000682 EF44 F003      01420                 GOTO    DIR3C
000686                01421 DIR2CA
000686 2AE9           01422                 INCF    FSR0L
000688                01423 DIR3C
000688 ECCA F003      01424                 CALL    HUBTESTH        ;TEMPRAM+03
00068C 2AE1           01425                 INCF    FSR1L
                      01426 
00068E 0E37           01427                 MOVLW   .55
000690 654C           01428                 CPFSGT  CURSORX,1
000692 EF51 F003      01429                 GOTO    DIR4A
                      01430                 
000696 80E9           01431                 BSF             FSR0L,0
000698 82E9           01432                 BSF             FSR0L,1
00069A 84E9           01433                 BSF             FSR0L,2
                      01434                 
MPASM  5.51               20191125_RTCGPU.ASM   4-30-2024  22:19:12         PAGE 30


LOC  OBJECT CODE     LINE SOURCE TEXT
  VALUE

00069C 9AE9           01435                 BCF             FSR0L,5
                      01436 
00069E EF6B F003      01437                 GOTO    DIR5
                      01438 
0006A2                01439 DIR4A
0006A2 0E2F           01440                 MOVLW   .47
0006A4 654C           01441                 CPFSGT  CURSORX,1
0006A6 EF5C F003      01442                 GOTO    DIR4B
                      01443                 
0006AA 80E9           01444                 BSF             FSR0L,0
0006AC 82E9           01445                 BSF             FSR0L,1
0006AE 84E9           01446                 BSF             FSR0L,2
                      01447                 
0006B0 9AE9           01448                 BCF             FSR0L,5
0006B2 06E9           01449                 DECF    FSR0L
0006B4 EF6B F003      01450                 GOTO    DIR5
                      01451 
0006B8                01452 DIR4B
                      01453 
0006B8 0E27           01454                 MOVLW   .39
0006BA 654C           01455                 CPFSGT  CURSORX,1
0006BC EF68 F003      01456                 GOTO    DIR4C
                      01457                 
0006C0 80E9           01458                 BSF             FSR0L,0
0006C2 82E9           01459                 BSF             FSR0L,1
0006C4 84E9           01460                 BSF             FSR0L,2
                      01461                 
0006C6 9AE9           01462                 BCF             FSR0L,5
0006C8 06E9           01463                 DECF    FSR0L
0006CA 06E9           01464                 DECF    FSR0L
0006CC EF6B F003      01465                 GOTO    DIR5
                      01466 
0006D0                01467 DIR4C
0006D0 06E9           01468                 DECF    FSR0L
0006D2 06E9           01469                 DECF    FSR0L
0006D4 06E9           01470                 DECF    FSR0L
                      01471 
                      01472 
0006D6                01473 DIR5
0006D6 86E9           01474                 BSF             FSR0L,3
                      01475 
0006D8 BB5D           01476                 BTFSC   HUB,5
0006DA 8AE9           01477                 BSF             FSR0L,5
                      01478 
0006DC A163           01479                 BTFSS   CSRBIT,0
0006DE EF74 F003      01480                 GOTO    DIR_SUB1
                      01481 
0006E2 90E9           01482                 BCF             FSR0L,0
0006E4 92E9           01483                 BCF             FSR0L,1
0006E6 94E9           01484                 BCF             FSR0L,2
0006E8                01485 DIR_SUB1                
0006E8 EC26 F004      01486                 CALL    HUBTESTL        ;TEMPRAM+04
0006EC 2AE1           01487                 INCF    FSR1L
MPASM  5.51               20191125_RTCGPU.ASM   4-30-2024  22:19:12         PAGE 31


LOC  OBJECT CODE     LINE SOURCE TEXT
  VALUE

                      01488 
0006EE B163           01489                 BTFSC   CSRBIT,0
0006F0 EF84 F003      01490                 GOTO    DIR6A
                      01491 
0006F4 0E37           01492                 MOVLW   .55
0006F6 654C           01493                 CPFSGT  CURSORX,1
0006F8 EF84 F003      01494                 GOTO    DIR6A
                      01495                 
0006FC 90E9           01496                 BCF             FSR0L,0
0006FE 92E9           01497                 BCF             FSR0L,1
000700 94E9           01498                 BCF             FSR0L,2
000702 8AE9           01499                 BSF             FSR0L,5
000704 EF85 F003      01500                 GOTO    DIR7A
                      01501 
000708                01502 DIR6A
                      01503 
000708 2AE9           01504                 INCF    FSR0L
00070A                01505 DIR7A
00070A EC26 F004      01506                 CALL    HUBTESTL        ;TEMPRAM+05
00070E 2AE1           01507                 INCF    FSR1L
                      01508 
000710 B163           01509                 BTFSC   CSRBIT,0
000712 EFA3 F003      01510                 GOTO    DIR6BA
                      01511 
000716 0E2F           01512                 MOVLW   .47
000718 654C           01513                 CPFSGT  CURSORX,1
00071A EF99 F003      01514                 GOTO    DIR6B
                      01515 
00071E 0E37           01516                 MOVLW   .55
000720 614C           01517                 CPFSLT  CURSORX,1
000722 EF99 F003      01518                 GOTO    DIR6B
                      01519                 
000726 90E9           01520                 BCF             FSR0L,0
000728 92E9           01521                 BCF             FSR0L,1
00072A 94E9           01522                 BCF             FSR0L,2
00072C 8AE9           01523                 BSF             FSR0L,5
00072E EFA4 F003      01524                 GOTO    DIR7B
                      01525 
000732                01526 DIR6B
000732 0E37           01527                 MOVLW   .55
000734 634C           01528                 CPFSEQ  CURSORX,1
000736 EFA3 F003      01529                 GOTO    DIR6BA
00073A 90E9           01530                 BCF             FSR0L,0
00073C 92E9           01531                 BCF             FSR0L,1
00073E 94E9           01532                 BCF             FSR0L,2
                      01533                 
000740 8AE9           01534                 BSF             FSR0L,5
000742 EFA4 F003      01535                 GOTO    DIR7B
000746                01536 DIR6BA
000746 2AE9           01537                 INCF    FSR0L
000748                01538 DIR7B
000748 EC26 F004      01539                 CALL    HUBTESTL        ;TEMPRAM+06
00074C 2AE1           01540                 INCF    FSR1L
MPASM  5.51               20191125_RTCGPU.ASM   4-30-2024  22:19:12         PAGE 32


LOC  OBJECT CODE     LINE SOURCE TEXT
  VALUE

                      01541 
00074E B163           01542                 BTFSC   CSRBIT,0
000750 EFC6 F003      01543                 GOTO    DIR6CA
                      01544 
000754 0E27           01545                 MOVLW   .39
000756 654C           01546                 CPFSGT  CURSORX,1
000758 EFBC F003      01547                 GOTO    DIR6C
                      01548 
00075C 0E2F           01549                 MOVLW   .47
00075E 614C           01550                 CPFSLT  CURSORX,1
000760 EFBC F003      01551                 GOTO    DIR6C
                      01552 
000764 0E37           01553                 MOVLW   .55
000766 614C           01554                 CPFSLT  CURSORX,1
000768 EFBC F003      01555                 GOTO    DIR6C
                      01556 
                      01557 
                      01558                 
00076C 90E9           01559                 BCF             FSR0L,0
00076E 92E9           01560                 BCF             FSR0L,1
000770 94E9           01561                 BCF             FSR0L,2
000772 8AE9           01562                 BSF             FSR0L,5
000774 EFC7 F003      01563                 GOTO    DIR7C
                      01564 
000778                01565 DIR6C
000778 0E2F           01566                 MOVLW   .47
00077A 634C           01567                 CPFSEQ  CURSORX,1
00077C EFC6 F003      01568                 GOTO    DIR6CA
000780 90E9           01569                 BCF             FSR0L,0
000782 92E9           01570                 BCF             FSR0L,1
000784 94E9           01571                 BCF             FSR0L,2
                      01572                 
000786 8AE9           01573                 BSF             FSR0L,5
000788 EFC7 F003      01574                 GOTO    DIR7C
                      01575 
00078C                01576 DIR6CA
00078C 2AE9           01577                 INCF    FSR0L
00078E                01578 DIR7C
00078E EC26 F004      01579                 CALL    HUBTESTL        ;TEMPRAM+07
                      01580 
Warning[203]: Found opcode in column 1. (RETURN)
000792 0012           01581 RETURN
                      01582 
                      01583 
                      01584 
000794                01585 HUBTESTH
000794 AB5D           01586                 BTFSS   HUB,5
000796 EFF3 F003      01587                 GOTO    HUBH_EXIT
                      01588 
00079A 0E28           01589                 MOVLW   .40
00079C 614C           01590                 CPFSLT  CURSORX,1
00079E EFD3 F003      01591                 GOTO    HTH_CXGT40
0007A2 EFF3 F003      01592                 GOTO    HUBH_EXIT
MPASM  5.51               20191125_RTCGPU.ASM   4-30-2024  22:19:12         PAGE 33


LOC  OBJECT CODE     LINE SOURCE TEXT
  VALUE

                      01593 
                      01594 
0007A6                01595 HTH_CXGT40
0007A6 0E30           01596                 MOVLW   .48
0007A8 614C           01597                 CPFSLT  CURSORX,1
0007AA EFDC F003      01598                 GOTO    HTH_CXGT48
                      01599 
0007AE 0E57           01600                 MOVLW   57
0007B0 64E1           01601                 CPFSGT  FSR1L,0
0007B2 EFF3 F003      01602                 GOTO    HUBH_EXIT
0007B6 0012           01603                 RETURN
                      01604 
                      01605 
0007B8                01606 HTH_CXGT48
0007B8 0E37           01607                 MOVLW   .55
0007BA 614C           01608                 CPFSLT  CURSORX,1
0007BC EFE5 F003      01609                 GOTO    HTH_CXGT55
                      01610 
0007C0 0E56           01611                 MOVLW   56
0007C2 64E1           01612                 CPFSGT  FSR1L,0
0007C4 EFF3 F003      01613                 GOTO    HUBH_EXIT
0007C8 0012           01614                 RETURN
                      01615 
                      01616 
0007CA                01617 HTH_CXGT55
0007CA 0E37           01618                 MOVLW   .55
0007CC 634C           01619                 CPFSEQ  CURSORX,1
0007CE EFEE F003      01620                 GOTO    HTHPX
                      01621 
0007D2 0E56           01622                 MOVLW   56
0007D4 64E1           01623                 CPFSGT  FSR1L,0
0007D6 EFF3 F003      01624                 GOTO    HUBH_EXIT
0007DA 0012           01625                 RETURN
                      01626                 
                      01627 
0007DC                01628 HTHPX
0007DC 0E55           01629                 MOVLW   55
0007DE 64E1           01630                 CPFSGT  FSR1L,0
0007E0 EFF3 F003      01631                 GOTO    HUBH_EXIT
0007E4 0012           01632                 RETURN
                      01633                 
                      01634 
                      01635 
0007E6                01636 HUBH_EXIT
0007E6 B163           01637                 BTFSC   CSRBIT,0
0007E8 EFFA F003      01638                 GOTO    HBHX
0007EC CFE7 FFE8      01639                 MOVFF   INDF1,WREG
0007F0 16EF           01640                 ANDWF   INDF0
0007F2 0012           01641                 RETURN
0007F4                01642 HBHX
0007F4 0EE8           01643                 MOVLW   .232
0007F6 654E           01644                 CPFSGT  CURSORX_TEMP,1
0007F8 0012           01645                 RETURN
MPASM  5.51               20191125_RTCGPU.ASM   4-30-2024  22:19:12         PAGE 34


LOC  OBJECT CODE     LINE SOURCE TEXT
  VALUE

                      01646                 
                      01647 
0007FA 0EF0           01648                 MOVLW   .240
0007FC 614E           01649                 CPFSLT  CURSORX_TEMP,1
0007FE EF0C F004      01650                 GOTO    HBHX240
                      01651 
000802 0E57           01652                 MOVLW   57
000804 64E1           01653                 CPFSGT  FSR1L
000806 0012           01654                 RETURN
                      01655                 
                      01656 
                      01657                 
000808 0E03           01658                 MOVLW   3
00080A 5EE9           01659                 SUBWF   FSR0L
                      01660 
00080C CFE7 FFE8      01661                 MOVFF   INDF1,WREG
000810 16EF           01662                 ANDWF   INDF0   
                      01663                         
000812 0E03           01664                 MOVLW   3
000814 26E9           01665                 ADDWF   FSR0L
Warning[203]: Found opcode in column 1. (RETURN)
000816 0012           01666 RETURN
                      01667 
                      01668 
000818                01669 HBHX240 
000818 0EF8           01670                 MOVLW   .248
00081A 614E           01671                 CPFSLT  CURSORX_TEMP,1
00081C EF1B F004      01672                 GOTO    HBHX248
                      01673         
000820 0E56           01674                 MOVLW   56
000822 64E1           01675                 CPFSGT  FSR1L
000824 0012           01676                 RETURN
                      01677                 
                      01678 
                      01679                 
000826 0E02           01680                 MOVLW   2
000828 5EE9           01681                 SUBWF   FSR0L
                      01682 
00082A CFE7 FFE8      01683                 MOVFF   INDF1,WREG
00082E 16EF           01684                 ANDWF   INDF0   
                      01685                         
000830 0E02           01686                 MOVLW   2
000832 26E9           01687                 ADDWF   FSR0L
Warning[203]: Found opcode in column 1. (RETURN)
000834 0012           01688 RETURN
                      01689 
000836                01690 HBHX248
000836 0E55           01691                 MOVLW   55
000838 64E1           01692                 CPFSGT  FSR1L
00083A 0012           01693                 RETURN
                      01694                 
00083C 0E01           01695                 MOVLW   1
00083E 5EE9           01696                 SUBWF   FSR0L
MPASM  5.51               20191125_RTCGPU.ASM   4-30-2024  22:19:12         PAGE 35


LOC  OBJECT CODE     LINE SOURCE TEXT
  VALUE

                      01697 
000840 CFE7 FFE8      01698                 MOVFF   INDF1,WREG
000844 16EF           01699                 ANDWF   INDF0   
                      01700                         
000846 0E01           01701                 MOVLW   1
000848 26E9           01702                 ADDWF   FSR0L
Warning[203]: Found opcode in column 1. (RETURN)
00084A 0012           01703 RETURN
                      01704 
                      01705 
                      01706 
                      01707 
                      01708 
                      01709 
00084C                01710 HUBTESTL
00084C AB5D           01711                 BTFSS   HUB,5
00084E EF4F F004      01712                 GOTO    HUBL_EXIT
                      01713 
000852 0E28           01714                 MOVLW   .40
000854 614C           01715                 CPFSLT  CURSORX,1
000856 EF2F F004      01716                 GOTO    HTL_CXGT40
00085A EF4F F004      01717                 GOTO    HUBL_EXIT
                      01718 
                      01719 
00085E                01720 HTL_CXGT40
00085E 0E30           01721                 MOVLW   .48
000860 614C           01722                 CPFSLT  CURSORX,1
000862 EF38 F004      01723                 GOTO    HTL_CXGT48
                      01724 
000866 0E5B           01725                 MOVLW   5B
000868 64E1           01726                 CPFSGT  FSR1L,0
00086A EF4F F004      01727                 GOTO    HUBL_EXIT
00086E 0012           01728                 RETURN
                      01729 
                      01730 
000870                01731 HTL_CXGT48
000870 0E37           01732                 MOVLW   .55
000872 614C           01733                 CPFSLT  CURSORX,1
000874 EF41 F004      01734                 GOTO    HTL_CXGT55
                      01735 
000878 0E5A           01736                 MOVLW   5A
00087A 64E1           01737                 CPFSGT  FSR1L,0
00087C EF4F F004      01738                 GOTO    HUBL_EXIT
000880 0012           01739                 RETURN
                      01740 
                      01741 
000882                01742 HTL_CXGT55
000882 0E37           01743                 MOVLW   .55
000884 634C           01744                 CPFSEQ  CURSORX,1
000886 EF4A F004      01745                 GOTO    HTLPX
                      01746 
00088A 0E5A           01747                 MOVLW   5A
00088C 64E1           01748                 CPFSGT  FSR1L,0
MPASM  5.51               20191125_RTCGPU.ASM   4-30-2024  22:19:12         PAGE 36


LOC  OBJECT CODE     LINE SOURCE TEXT
  VALUE

00088E EF4F F004      01749                 GOTO    HUBL_EXIT
000892 0012           01750                 RETURN
                      01751                 
                      01752 
000894                01753 HTLPX
000894 0E59           01754                 MOVLW   59
000896 64E1           01755                 CPFSGT  FSR1L,0
000898 EF4F F004      01756                 GOTO    HUBL_EXIT
00089C 0012           01757                 RETURN
                      01758                 
                      01759 
                      01760 
00089E                01761 HUBL_EXIT
00089E B163           01762                 BTFSC   CSRBIT,0
0008A0 EF56 F004      01763                 GOTO    HBLX
0008A4 CFE7 FFE8      01764                 MOVFF   INDF1,WREG
0008A8 16EF           01765                 ANDWF   INDF0
0008AA 0012           01766                 RETURN
0008AC                01767 HBLX
0008AC 0EE8           01768                 MOVLW   .232
0008AE 654E           01769                 CPFSGT  CURSORX_TEMP,1
0008B0 0012           01770                 RETURN
                      01771                 
                      01772 
0008B2 0EF0           01773                 MOVLW   .240
0008B4 614E           01774                 CPFSLT  CURSORX_TEMP,1
0008B6 EF68 F004      01775                 GOTO    HBLX240
                      01776 
0008BA 0E5B           01777                 MOVLW   5B
0008BC 64E1           01778                 CPFSGT  FSR1L
0008BE 0012           01779                 RETURN
                      01780                 
                      01781 
                      01782                 
0008C0 0E03           01783                 MOVLW   3
0008C2 5EE9           01784                 SUBWF   FSR0L
                      01785 
0008C4 CFE7 FFE8      01786                 MOVFF   INDF1,WREG
0008C8 16EF           01787                 ANDWF   INDF0   
                      01788                         
0008CA 0E03           01789                 MOVLW   3
0008CC 26E9           01790                 ADDWF   FSR0L
Warning[203]: Found opcode in column 1. (RETURN)
0008CE 0012           01791 RETURN
                      01792 
                      01793 
0008D0                01794 HBLX240 
0008D0 0EF8           01795                 MOVLW   .248
0008D2 614E           01796                 CPFSLT  CURSORX_TEMP,1
0008D4 EF77 F004      01797                 GOTO    HBLX248
                      01798         
0008D8 0E5A           01799                 MOVLW   5A
0008DA 64E1           01800                 CPFSGT  FSR1L
MPASM  5.51               20191125_RTCGPU.ASM   4-30-2024  22:19:12         PAGE 37


LOC  OBJECT CODE     LINE SOURCE TEXT
  VALUE

0008DC 0012           01801                 RETURN
                      01802                 
                      01803 
                      01804                 
0008DE 0E02           01805                 MOVLW   2
0008E0 5EE9           01806                 SUBWF   FSR0L
                      01807 
0008E2 CFE7 FFE8      01808                 MOVFF   INDF1,WREG
0008E6 16EF           01809                 ANDWF   INDF0   
                      01810                         
0008E8 0E02           01811                 MOVLW   2
0008EA 26E9           01812                 ADDWF   FSR0L
Warning[203]: Found opcode in column 1. (RETURN)
0008EC 0012           01813 RETURN
                      01814 
0008EE                01815 HBLX248
0008EE 0E59           01816                 MOVLW   59
0008F0 64E1           01817                 CPFSGT  FSR1L
0008F2 0012           01818                 RETURN
                      01819                 
0008F4 0E01           01820                 MOVLW   1
0008F6 5EE9           01821                 SUBWF   FSR0L
                      01822 
0008F8 CFE7 FFE8      01823                 MOVFF   INDF1,WREG
0008FC 16EF           01824                 ANDWF   INDF0   
                      01825                         
0008FE 0E01           01826                 MOVLW   1
000900 26E9           01827                 ADDWF   FSR0L
Warning[203]: Found opcode in column 1. (RETURN)
000902 0012           01828 RETURN
                      01829         
                      01830 ;==========================================================     
                      01831 
                      01832 
                      01833 
                      01834 
                      01835 
                      01836 ;==========     CHECK CURSOR X (FOR     SHIFTING DATA) ============
000904                01837 CURSORX_TEST            
000904 0E08           01838         MOVLW   8
000906 614C           01839         CPFSLT  CURSORX,1
000908 EF8B F004      01840         GOTO    CXGE8           ;CURSORX>=DEC8
                      01841 
                      01842 ;CURSORX<DEC8
00090C                01843 CX08
00090C C14C F141      01844         MOVFF   CURSORX,LOOP
000910 0E00           01845         MOVLW   0
000912 6F45           01846         MOVWF   POINTER
Warning[203]: Found opcode in column 1. (RETURN)
000914 0012           01847 RETURN
                      01848 
                      01849 
000916                01850 CXGE8
MPASM  5.51               20191125_RTCGPU.ASM   4-30-2024  22:19:12         PAGE 38


LOC  OBJECT CODE     LINE SOURCE TEXT
  VALUE

000916 0E10           01851         MOVLW   .16
000918 614C           01852         CPFSLT  CURSORX,1
00091A EF96 F004      01853         GOTO    CXGE16          ;CURSORX>=DEC16
                      01854 ;CURSORX<DEC16
00091E                01855 CX16
00091E C14C F141      01856         MOVFF   CURSORX,LOOP
000922 0E08           01857         MOVLW   8
000924 5F41           01858         SUBWF   LOOP,1
000926 0E01           01859         MOVLW   1
000928 6F45           01860         MOVWF   POINTER
Warning[203]: Found opcode in column 1. (RETURN)
00092A 0012           01861 RETURN
                      01862 
                      01863         
00092C                01864 CXGE16
00092C 0E18           01865         MOVLW   .24
00092E 614C           01866         CPFSLT  CURSORX,1
000930 EFA1 F004      01867         GOTO    CXGE24          ;CURSORX>=DEC24
                      01868 ;CURSORX<DEC24
000934                01869 CX24
000934 C14C F141      01870         MOVFF   CURSORX,LOOP
000938 0E10           01871         MOVLW   .16
00093A 5F41           01872         SUBWF   LOOP,1
00093C 0E02           01873         MOVLW   2
00093E 6F45           01874         MOVWF   POINTER
Warning[203]: Found opcode in column 1. (RETURN)
000940 0012           01875 RETURN
                      01876 
                      01877 
000942                01878 CXGE24
000942 0E20           01879         MOVLW   .32
000944 614C           01880         CPFSLT  CURSORX,1
000946 EFAC F004      01881         GOTO    CXGE32          ;CURSORX>=DEC32
                      01882 ;CURSORX<DEC32
00094A                01883 CX32
00094A C14C F141      01884         MOVFF   CURSORX,LOOP
00094E 0E18           01885         MOVLW   .24
000950 5F41           01886         SUBWF   LOOP,1
000952 0E03           01887         MOVLW   3
000954 6F45           01888         MOVWF   POINTER
Warning[203]: Found opcode in column 1. (RETURN)
000956 0012           01889 RETURN
                      01890 
000958                01891 CXGE32
000958 0E28           01892         MOVLW   .40
00095A 614C           01893         CPFSLT  CURSORX,1
00095C EFB7 F004      01894         GOTO    CXGE40          ;CURSORX>=DEC40
                      01895 ;CURSORX<DEC40
000960                01896 CX40
000960 C14C F141      01897         MOVFF   CURSORX,LOOP
000964 0E20           01898         MOVLW   .32
000966 5F41           01899         SUBWF   LOOP,1
000968 0E04           01900         MOVLW   4
MPASM  5.51               20191125_RTCGPU.ASM   4-30-2024  22:19:12         PAGE 39


LOC  OBJECT CODE     LINE SOURCE TEXT
  VALUE

00096A 6F45           01901         MOVWF   POINTER
Warning[203]: Found opcode in column 1. (RETURN)
00096C 0012           01902 RETURN
                      01903 
                      01904 
00096E                01905 CXGE40
00096E 0E30           01906         MOVLW   .48
000970 614C           01907         CPFSLT  CURSORX,1
000972 EFC2 F004      01908         GOTO    CXGE48          ;CURSORX>=DEC48
                      01909 ;CURSORX<DEC48
000976                01910 CX48
000976 C14C F141      01911         MOVFF   CURSORX,LOOP
00097A 0E28           01912         MOVLW   .40
00097C 5F41           01913         SUBWF   LOOP,1
00097E 0E05           01914         MOVLW   5
000980 6F45           01915         MOVWF   POINTER
Warning[203]: Found opcode in column 1. (RETURN)
000982 0012           01916 RETURN
                      01917 
                      01918 
                      01919 
000984                01920 CXGE48
000984 0E38           01921         MOVLW   .56
000986 614C           01922         CPFSLT  CURSORX,1
000988 EFCD F004      01923         GOTO    CXGE56          ;CURSORX>=DEC56
                      01924 ;CURSORX<DEC56
00098C                01925 CX56
00098C C14C F141      01926         MOVFF   CURSORX,LOOP
000990 0E30           01927         MOVLW   .48
000992 5F41           01928         SUBWF   LOOP,1
000994 0E06           01929         MOVLW   6
000996 6F45           01930         MOVWF   POINTER
Warning[203]: Found opcode in column 1. (RETURN)
000998 0012           01931 RETURN
                      01932 
                      01933 
00099A                01934 CXGE56
00099A 0E40           01935         MOVLW   .64
00099C 614C           01936         CPFSLT  CURSORX,1
00099E 0012           01937         RETURN          ;CURSORX>=DEC64
                      01938 ;CURSORX<DEC64
0009A0                01939 CX64
0009A0 C14C F141      01940         MOVFF   CURSORX,LOOP
0009A4 0E38           01941         MOVLW   .56
0009A6 5F41           01942         SUBWF   LOOP,1
0009A8 0E07           01943         MOVLW   7
0009AA 6F45           01944         MOVWF   POINTER
Warning[203]: Found opcode in column 1. (RETURN)
0009AC 0012           01945 RETURN
                      01946 
                      01947 
Warning[203]: Found opcode in column 1. (RETURN)
0009AE 0012           01948 RETURN
MPASM  5.51               20191125_RTCGPU.ASM   4-30-2024  22:19:12         PAGE 40


LOC  OBJECT CODE     LINE SOURCE TEXT
  VALUE

                      01949 ;============================================================== 
                      01950 
                      01951 
Warning[205]: Found directive in column 1. (ORG)
00A000                01952 ORG     0XA000
                      01953 
                      01954 ;======= INTER-INTEGRATED CIRCUIT COMMUNICATION (I2C) ======
                      01955 ;========== I2C ROUTINE =======
00A000                01956 I2C_ROUTINE
00A000 EC9F F050      01957                 CALL    I2C_WRITE
00A004 ECBD F050      01958                 CALL    I2C_WRADD
00A008 EC62 F050      01959                 CALL    I2C_STOP
                      01960 
00A00C ECD8 F050      01961                 CALL    I2C_READ
00A010 ECF6 F050      01962                 CALL    I2C_DATAIN
00A014 EC93 F050      01963                 CALL    I2C_MACK
00A018 C175 F176      01964                 MOVFF   I2C_DATA0,I2C_REG+00    ;SECONDS
                      01965 
                      01966 
00A01C ECF6 F050      01967                 CALL    I2C_DATAIN
00A020 EC93 F050      01968                 CALL    I2C_MACK
00A024 C175 F177      01969                 MOVFF   I2C_DATA0,I2C_REG+01    ;MINUTE
                      01970 
                      01971 
00A028 ECF6 F050      01972                 CALL    I2C_DATAIN
00A02C EC93 F050      01973                 CALL    I2C_MACK
00A030 C175 F178      01974                 MOVFF   I2C_DATA0,I2C_REG+02    ;HOUR
                      01975 
                      01976 
00A034 ECF6 F050      01977                 CALL    I2C_DATAIN
00A038 EC93 F050      01978                 CALL    I2C_MACK
00A03C C175 F179      01979                 MOVFF   I2C_DATA0,I2C_REG+03    ;DAY
                      01980 
00A040 ECF6 F050      01981                 CALL    I2C_DATAIN
00A044 EC93 F050      01982                 CALL    I2C_MACK
00A048 C175 F17A      01983                 MOVFF   I2C_DATA0,I2C_REG+04    ;DATE
                      01984 
00A04C ECF6 F050      01985                 CALL    I2C_DATAIN
00A050 EC88 F050      01986                 CALL    I2C_MNACK
00A054 C175 F17B      01987                 MOVFF   I2C_DATA0,I2C_REG+05    ;MONTH
                      01988 
                      01989 
                      01990 
                      01991 
00A058 EC62 F050      01992                 CALL    I2C_STOP
                      01993 
00A05C EC29 F051      01994                 CALL    I2C_DATATOCLOCK
Warning[203]: Found opcode in column 1. (RETURN)
00A060 0012           01995 RETURN
                      01996 ;=============================
                      01997 
                      01998 
                      01999 ;========== I2C SET ROUTINE =======
MPASM  5.51               20191125_RTCGPU.ASM   4-30-2024  22:19:12         PAGE 41


LOC  OBJECT CODE     LINE SOURCE TEXT
  VALUE

00A062                02000 I2C_SET_ROUTINE
00A062 EC9F F050      02001                 CALL    I2C_WRITE
00A066 ECBD F050      02002                 CALL    I2C_WRADD
00A06A EC62 F050      02003                 CALL    I2C_STOP
                      02004 
00A06E ECD8 F050      02005                 CALL    I2C_READ
00A072 ECF6 F050      02006                 CALL    I2C_DATAIN
00A076 EC88 F050      02007                 CALL    I2C_MNACK
00A07A C175 F176      02008                 MOVFF   I2C_DATA0,I2C_REG+00    ;SECONDS
                      02009 
00A07E EC62 F050      02010                 CALL    I2C_STOP
                      02011 
00A082 6B97           02012                 CLRF    SEC_O_TEMP
00A084 6B96           02013                 CLRF    SEC_T_TEMP
                      02014 
00A086 3776           02015                 RLCF    I2C_REG+00
00A088 3796           02016                 RLCF    SEC_T_TEMP
00A08A 3776           02017                 RLCF    I2C_REG+00
00A08C 3796           02018                 RLCF    SEC_T_TEMP
00A08E 3776           02019                 RLCF    I2C_REG+00
00A090 3796           02020                 RLCF    SEC_T_TEMP
00A092 3776           02021                 RLCF    I2C_REG+00
00A094 3796           02022                 RLCF    SEC_T_TEMP
                      02023 
00A096 3776           02024                 RLCF    I2C_REG+00
00A098 3797           02025                 RLCF    SEC_O_TEMP
00A09A 3776           02026                 RLCF    I2C_REG+00
00A09C 3797           02027                 RLCF    SEC_O_TEMP
00A09E 3776           02028                 RLCF    I2C_REG+00
00A0A0 3797           02029                 RLCF    SEC_O_TEMP
00A0A2 3776           02030                 RLCF    I2C_REG+00
00A0A4 3797           02031                 RLCF    SEC_O_TEMP
Warning[203]: Found opcode in column 1. (RETURN)
00A0A6 0012           02032 RETURN
                      02033 ;=============================
                      02034 
                      02035 
                      02036 
                      02037 
                      02038 
                      02039 ;========== I2C START =======
00A0A8                02040 I2C_START
                      02041         
00A0A8 808B           02042         I2C_DAT1
00A0AA 828B           02043         I2C_CLK1
                      02044         
00A0AC 0E05           02045         MOVLW   .5
00A0AE EC88 F051      02046         CALL    DELAY_US
                      02047 
                      02048 
00A0B2 908B           02049         I2C_DAT0
00A0B4 0E05           02050         MOVLW   .5
00A0B6 EC88 F051      02051         CALL    DELAY_US
MPASM  5.51               20191125_RTCGPU.ASM   4-30-2024  22:19:12         PAGE 42


LOC  OBJECT CODE     LINE SOURCE TEXT
  VALUE

00A0BA 928B           02052         I2C_CLK0
00A0BC 0E05           02053         MOVLW   .5
00A0BE EC88 F051      02054         CALL    DELAY_US
                      02055 
Warning[203]: Found opcode in column 1. (RETURN)
00A0C2 0012           02056 RETURN
                      02057 ;=============================
                      02058 
                      02059 
                      02060 
                      02061 
                      02062 ;========== I2C START =======
00A0C4                02063 I2C_STOP
                      02064         
00A0C4 908B           02065         I2C_DAT0
00A0C6 928B           02066         I2C_CLK0
                      02067         
00A0C8 0E05           02068         MOVLW   .5
00A0CA EC88 F051      02069         CALL    DELAY_US
                      02070 
                      02071 
00A0CE 828B           02072         I2C_CLK1
00A0D0 0E05           02073         MOVLW   .5
00A0D2 EC88 F051      02074         CALL    DELAY_US
00A0D6 808B           02075         I2C_DAT1
00A0D8 0E05           02076         MOVLW   .5
00A0DA EC88 F051      02077         CALL    DELAY_US
                      02078 
Warning[203]: Found opcode in column 1. (RETURN)
00A0DE 0012           02079 RETURN
                      02080 ;=============================
                      02081 
                      02082 ;========== I2C CLKP ========
00A0E0                02083 I2C_CLKP
00A0E0 828B           02084         I2C_CLK1
00A0E2 0E0F           02085         MOVLW   0X0F
00A0E4 EC88 F051      02086         CALL    DELAY_US
00A0E8 928B           02087         I2C_CLK0
00A0EA 0E0F           02088         MOVLW   0X0F
00A0EC EC88 F051      02089         CALL    DELAY_US
Warning[203]: Found opcode in column 1. (RETURN)
00A0F0 0012           02090 RETURN
                      02091 ;=============================
                      02092 
                      02093 ;======== I2C SLAVE ACK ======
00A0F2                02094 I2C_SACK
00A0F2 8094           02095         BSF             TRISC,0,0
00A0F4 0E05           02096         MOVLW   .5
00A0F6 EC88 F051      02097         CALL    DELAY_US
                      02098         
00A0FA                02099 I2C_SA0
00A0FA 0000           02100         NOP
00A0FC B082           02101         BTFSC   PORTC,0
MPASM  5.51               20191125_RTCGPU.ASM   4-30-2024  22:19:12         PAGE 43


LOC  OBJECT CODE     LINE SOURCE TEXT
  VALUE

00A0FE EF7D F050      02102         GOTO    I2C_SA0
                      02103         
                      02104 ;       MOVLW   .10
                      02105 ;       CALL    DELAY_US
                      02106 
00A102 EC70 F050      02107         CALL    I2C_CLKP
00A106 9094           02108         BCF             TRISC,0,0
00A108 0E05           02109         MOVLW   .5
00A10A EC88 F051      02110         CALL    DELAY_US
                      02111 
Warning[203]: Found opcode in column 1. (RETURN)
00A10E 0012           02112 RETURN
                      02113 ;=============================
                      02114 
                      02115 ;======== I2C MASTER NACK ====
00A110                02116 I2C_MNACK
00A110 9094           02117         BCF             TRISC,0,0
00A112 0E05           02118         MOVLW   .5
00A114 EC88 F051      02119         CALL    DELAY_US
                      02120         
00A118 808B           02121         I2C_DAT1
                      02122         
                      02123 
00A11A EC70 F050      02124         CALL    I2C_CLKP
                      02125 
                      02126 
00A11E 0E05           02127         MOVLW   .5
00A120 EC88 F051      02128         CALL    DELAY_US
                      02129 
Warning[203]: Found opcode in column 1. (RETURN)
00A124 0012           02130 RETURN
                      02131 ;=============================
                      02132 
                      02133 ;======== I2C MASTER ACK =====
00A126                02134 I2C_MACK
00A126 9094           02135         BCF             TRISC,0,0
00A128 0E05           02136         MOVLW   .5
00A12A EC88 F051      02137         CALL    DELAY_US
                      02138         
00A12E 908B           02139         I2C_DAT0
                      02140         
                      02141 
00A130 EC70 F050      02142         CALL    I2C_CLKP
00A134 8094           02143         BSF             TRISC,0,0
                      02144 
00A136 0E05           02145         MOVLW   .5
00A138 EC88 F051      02146         CALL    DELAY_US
                      02147 
Warning[203]: Found opcode in column 1. (RETURN)
00A13C 0012           02148 RETURN
                      02149 ;=============================
                      02150 
                      02151 
MPASM  5.51               20191125_RTCGPU.ASM   4-30-2024  22:19:12         PAGE 44


LOC  OBJECT CODE     LINE SOURCE TEXT
  VALUE

                      02152 ;========== I2C WRITE ========
00A13E                02153 I2C_WRITE
00A13E 9094           02154         BCF             TRISC,0,0
00A140 EC54 F050      02155         CALL    I2C_START       ;START I2C
                      02156 
00A144 808B           02157         I2C_DAT1                        ;DAT1
00A146 EC70 F050      02158         CALL    I2C_CLKP
                      02159 
00A14A 808B           02160         I2C_DAT1                        ;DAT1
00A14C EC70 F050      02161         CALL    I2C_CLKP
                      02162 
00A150 908B           02163         I2C_DAT0                        ;DAT0
00A152 EC70 F050      02164         CALL    I2C_CLKP
                      02165 
00A156 808B           02166         I2C_DAT1                        ;DAT1
00A158 EC70 F050      02167         CALL    I2C_CLKP
                      02168 
00A15C 908B           02169         I2C_DAT0                        ;DAT0
00A15E EC70 F050      02170         CALL    I2C_CLKP
                      02171 
00A162 908B           02172         I2C_DAT0                        ;DAT0
00A164 EC70 F050      02173         CALL    I2C_CLKP
                      02174 
00A168 908B           02175         I2C_DAT0                        ;DAT0
00A16A EC70 F050      02176         CALL    I2C_CLKP
                      02177 
00A16E 908B           02178         I2C_DAT0                        ;READ/'WRITE
00A170 EC70 F050      02179         CALL    I2C_CLKP
                      02180 
                      02181 
00A174 EC79 F050      02182         CALL    I2C_SACK        ;SLAVE ACKNOWLEDGE
                      02183 
Warning[203]: Found opcode in column 1. (RETURN)
00A178 0012           02184 RETURN
                      02185 ;=============================
                      02186 
                      02187 
                      02188 ;========== I2C 8-BIT WORD ADDRESS =======
00A17A                02189 I2C_WRADD
00A17A 908B           02190         I2C_DAT0                        ;DAT0
00A17C EC70 F050      02191         CALL    I2C_CLKP
                      02192 
00A180 908B           02193         I2C_DAT0                        ;DAT0
00A182 EC70 F050      02194         CALL    I2C_CLKP
                      02195 
00A186 908B           02196         I2C_DAT0                        ;DAT0
00A188 EC70 F050      02197         CALL    I2C_CLKP
                      02198 
00A18C 908B           02199         I2C_DAT0                        ;DAT0
00A18E EC70 F050      02200         CALL    I2C_CLKP
                      02201 
00A192 908B           02202         I2C_DAT0                        ;DAT0
00A194 EC70 F050      02203         CALL    I2C_CLKP
MPASM  5.51               20191125_RTCGPU.ASM   4-30-2024  22:19:12         PAGE 45


LOC  OBJECT CODE     LINE SOURCE TEXT
  VALUE

                      02204 
00A198 908B           02205         I2C_DAT0                        ;DAT0
00A19A EC70 F050      02206         CALL    I2C_CLKP
                      02207 
00A19E 908B           02208         I2C_DAT0                        ;DAT0
00A1A0 EC70 F050      02209         CALL    I2C_CLKP
                      02210 
00A1A4 908B           02211         I2C_DAT0                        ;DAT0
00A1A6 EC70 F050      02212         CALL    I2C_CLKP
                      02213 
                      02214 
00A1AA EC79 F050      02215         CALL    I2C_SACK        ;SLAVE ACKNOWLEDGE      
Warning[203]: Found opcode in column 1. (RETURN)
00A1AE 0012           02216 RETURN
                      02217 ;=============================
                      02218 
                      02219 
                      02220 
                      02221 ;========== I2C READ ========
00A1B0                02222 I2C_READ
00A1B0 9094           02223         BCF             TRISC,0,0
00A1B2 EC54 F050      02224         CALL    I2C_START       ;START I2C
                      02225 
00A1B6 808B           02226         I2C_DAT1                        ;DAT1
00A1B8 EC70 F050      02227         CALL    I2C_CLKP
                      02228 
00A1BC 808B           02229         I2C_DAT1                        ;DAT1
00A1BE EC70 F050      02230         CALL    I2C_CLKP
                      02231 
00A1C2 908B           02232         I2C_DAT0                        ;DAT0
00A1C4 EC70 F050      02233         CALL    I2C_CLKP
                      02234 
00A1C8 808B           02235         I2C_DAT1                        ;DAT1
00A1CA EC70 F050      02236         CALL    I2C_CLKP
                      02237 
00A1CE 908B           02238         I2C_DAT0                        ;DAT0
00A1D0 EC70 F050      02239         CALL    I2C_CLKP
                      02240 
00A1D4 908B           02241         I2C_DAT0                        ;DAT0
00A1D6 EC70 F050      02242         CALL    I2C_CLKP
                      02243 
00A1DA 908B           02244         I2C_DAT0                        ;DAT0
00A1DC EC70 F050      02245         CALL    I2C_CLKP
                      02246 
00A1E0 808B           02247         I2C_DAT1                        ;READ/'WRITE
00A1E2 EC70 F050      02248         CALL    I2C_CLKP
                      02249 
                      02250 
00A1E6 EC79 F050      02251         CALL    I2C_SACK        ;SLAVE ACKNOWLEDGE
                      02252 
Warning[203]: Found opcode in column 1. (RETURN)
00A1EA 0012           02253 RETURN
                      02254 ;=============================
MPASM  5.51               20191125_RTCGPU.ASM   4-30-2024  22:19:12         PAGE 46


LOC  OBJECT CODE     LINE SOURCE TEXT
  VALUE

                      02255 
                      02256 
                      02257 
                      02258 ;========== I2C DATAIN =======  
                      02259 ;I2C SLAVE TO MASTER DATA TRANSFER
00A1EC                02260 I2C_DATAIN
00A1EC 8094           02261         BSF             TRISC,0,0
00A1EE 0E05           02262         MOVLW   .5
00A1F0 EC88 F051      02263         CALL    DELAY_US
                      02264 
00A1F4 0E08           02265         MOVLW   8
00A1F6 6F74           02266         MOVWF   I2C_LOOP
                      02267 
00A1F8                02268 I2C_DI
                      02269 
00A1F8 A082           02270         BTFSS   PORTC,0
00A1FA EF01 F051      02271         GOTO    I2CSDA_LO
00A1FE EF04 F051      02272         GOTO    I2CSDA_HI
                      02273 
00A202                02274 I2CSDA_LO
00A202 90D8           02275         BCF             STATUS,C
00A204 EF08 F051      02276         GOTO    I2C_DICONT
                      02277 
00A208                02278 I2CSDA_HI
00A208 80D8           02279         BSF             STATUS,C
00A20A EF08 F051      02280         GOTO    I2C_DICONT
                      02281 
Warning[203]: Found opcode in column 1. (NOP)
00A20E 0000           02282 NOP
00A210                02283 I2C_DICONT
00A210 3775           02284         RLCF    I2C_DATA0
00A212 EC70 F050      02285         CALL    I2C_CLKP
                      02286         
00A216 2F74           02287         DECFSZ  I2C_LOOP
00A218 EFFC F050      02288         GOTO    I2C_DI
                      02289 
                      02290 
00A21C 0E05           02291         MOVLW   .5
00A21E EC88 F051      02292         CALL    DELAY_US
                      02293 
                      02294         
Warning[203]: Found opcode in column 1. (RETURN)
00A222 0012           02295 RETURN
                      02296 ;=============================
                      02297 
                      02298 
                      02299 
                      02300 ;========== I2C DATAOUT ======= 
                      02301 ;I2C MASTER TO SLAVE DATA TRANSFER
00A224                02302 I2C_DATAOUT
                      02303 
Warning[203]: Found opcode in column 1. (MOVLW)
00A224 0E08           02304 MOVLW   8
MPASM  5.51               20191125_RTCGPU.ASM   4-30-2024  22:19:12         PAGE 47


LOC  OBJECT CODE     LINE SOURCE TEXT
  VALUE

Warning[203]: Found opcode in column 1. (MOVWF)
00A226 6F74           02305 MOVWF   I2C_LOOP
                      02306 
00A228                02307 I2C_DO0
00A228 3775           02308         RLCF    I2C_DATA0
00A22A A0D8           02309         BTFSS   STATUS,C
00A22C EF1A F051      02310         GOTO    I2C_DATA0B0
00A230 EF1D F051      02311         GOTO    I2C_DATA0B1
                      02312 
00A234                02313 I2C_DATA0B0
00A234 908B           02314         I2C_DAT0        ;SDA LO
00A236 EF21 F051      02315         GOTO    I2C_DO1
00A23A                02316 I2C_DATA0B1
00A23A 808B           02317         I2C_DAT1        ;SDA HI
00A23C EF21 F051      02318         GOTO    I2C_DO1
Warning[203]: Found opcode in column 1. (NOP)
00A240 0000           02319 NOP
00A242                02320 I2C_DO1
00A242 EC70 F050      02321         CALL    I2C_CLKP
00A246 2F74           02322         DECFSZ  I2C_LOOP
00A248 EF14 F051      02323         GOTO    I2C_DO0
                      02324 
00A24C EC79 F050      02325         CALL    I2C_SACK
                      02326         
Warning[203]: Found opcode in column 1. (RETURN)
00A250 0012           02327 RETURN
                      02328 ;=============================
                      02329 
                      02330 
                      02331 
00A252                02332 I2C_DATATOCLOCK
00A252 6B8D           02333         CLRF    SEC_O
00A254 6B8C           02334         CLRF    SEC_T
                      02335 
00A256 3776           02336         RLCF    I2C_REG+00
00A258 378C           02337         RLCF    SEC_T
00A25A 3776           02338         RLCF    I2C_REG+00
00A25C 378C           02339         RLCF    SEC_T
00A25E 3776           02340         RLCF    I2C_REG+00
00A260 378C           02341         RLCF    SEC_T
00A262 3776           02342         RLCF    I2C_REG+00
00A264 378C           02343         RLCF    SEC_T
                      02344 
00A266 3776           02345         RLCF    I2C_REG+00
00A268 378D           02346         RLCF    SEC_O
00A26A 3776           02347         RLCF    I2C_REG+00
00A26C 378D           02348         RLCF    SEC_O
00A26E 3776           02349         RLCF    I2C_REG+00
00A270 378D           02350         RLCF    SEC_O
00A272 3776           02351         RLCF    I2C_REG+00
00A274 378D           02352         RLCF    SEC_O
                      02353 
                      02354 
MPASM  5.51               20191125_RTCGPU.ASM   4-30-2024  22:19:12         PAGE 48


LOC  OBJECT CODE     LINE SOURCE TEXT
  VALUE

                      02355 
00A276 6B8B           02356         CLRF    MIN_O
00A278 6B8A           02357         CLRF    MIN_T
                      02358 
00A27A 3777           02359         RLCF    I2C_REG+01
00A27C 378A           02360         RLCF    MIN_T
00A27E 3777           02361         RLCF    I2C_REG+01
00A280 378A           02362         RLCF    MIN_T
00A282 3777           02363         RLCF    I2C_REG+01
00A284 378A           02364         RLCF    MIN_T
00A286 3777           02365         RLCF    I2C_REG+01
00A288 378A           02366         RLCF    MIN_T
                      02367 
00A28A 3777           02368         RLCF    I2C_REG+01
00A28C 378B           02369         RLCF    MIN_O
00A28E 3777           02370         RLCF    I2C_REG+01
00A290 378B           02371         RLCF    MIN_O
00A292 3777           02372         RLCF    I2C_REG+01
00A294 378B           02373         RLCF    MIN_O
00A296 3777           02374         RLCF    I2C_REG+01
00A298 378B           02375         RLCF    MIN_O
                      02376 
                      02377 
00A29A 6B88           02378         CLRF    HOUR_T
00A29C 6B89           02379         CLRF    HOUR_O
                      02380 
                      02381 
00A29E 3778           02382         RLCF    I2C_REG+02
00A2A0 3788           02383         RLCF    HOUR_T
00A2A2 3778           02384         RLCF    I2C_REG+02
00A2A4 3788           02385         RLCF    HOUR_T
00A2A6 3778           02386         RLCF    I2C_REG+02
00A2A8 3788           02387         RLCF    HOUR_T
00A2AA 3778           02388         RLCF    I2C_REG+02
00A2AC 3788           02389         RLCF    HOUR_T
                      02390 
00A2AE 9F88           02391         BCF             HOUR_T,7
00A2B0 9D88           02392         BCF             HOUR_T,6
00A2B2 9B88           02393         BCF             HOUR_T,5
00A2B4 9988           02394         BCF             HOUR_T,4
                      02395 
                      02396 
00A2B6 3778           02397         RLCF    I2C_REG+02
00A2B8 3789           02398         RLCF    HOUR_O
00A2BA 3778           02399         RLCF    I2C_REG+02
00A2BC 3789           02400         RLCF    HOUR_O
00A2BE 3778           02401         RLCF    I2C_REG+02
00A2C0 3789           02402         RLCF    HOUR_O
00A2C2 3778           02403         RLCF    I2C_REG+02
00A2C4 3789           02404         RLCF    HOUR_O
                      02405 
                      02406 
                      02407         
MPASM  5.51               20191125_RTCGPU.ASM   4-30-2024  22:19:12         PAGE 49


LOC  OBJECT CODE     LINE SOURCE TEXT
  VALUE

                      02408 
00A2C6 6B90           02409         CLRF    DATE_T
00A2C8 6B91           02410         CLRF    DATE_O
                      02411 
00A2CA 377A           02412         RLCF    I2C_REG+04
00A2CC 3790           02413         RLCF    DATE_T
00A2CE 377A           02414         RLCF    I2C_REG+04
00A2D0 3790           02415         RLCF    DATE_T
00A2D2 377A           02416         RLCF    I2C_REG+04
00A2D4 3790           02417         RLCF    DATE_T
00A2D6 377A           02418         RLCF    I2C_REG+04
00A2D8 3790           02419         RLCF    DATE_T
                      02420 
                      02421 
00A2DA 377A           02422         RLCF    I2C_REG+04
00A2DC 3791           02423         RLCF    DATE_O
00A2DE 377A           02424         RLCF    I2C_REG+04
00A2E0 3791           02425         RLCF    DATE_O
00A2E2 377A           02426         RLCF    I2C_REG+04
00A2E4 3791           02427         RLCF    DATE_O
00A2E6 377A           02428         RLCF    I2C_REG+04
00A2E8 3791           02429         RLCF    DATE_O
                      02430 
00A2EA 6B8E           02431         CLRF    MON_T
00A2EC 6B8F           02432         CLRF    MON_O
                      02433 
00A2EE 377B           02434         RLCF    I2C_REG+05
00A2F0 378E           02435         RLCF    MON_T
00A2F2 377B           02436         RLCF    I2C_REG+05
00A2F4 378E           02437         RLCF    MON_T
00A2F6 377B           02438         RLCF    I2C_REG+05
00A2F8 378E           02439         RLCF    MON_T
00A2FA 377B           02440         RLCF    I2C_REG+05
00A2FC 378E           02441         RLCF    MON_T
                      02442 
00A2FE 377B           02443         RLCF    I2C_REG+05
00A300 378F           02444         RLCF    MON_O
00A302 377B           02445         RLCF    I2C_REG+05
00A304 378F           02446         RLCF    MON_O
00A306 377B           02447         RLCF    I2C_REG+05
00A308 378F           02448         RLCF    MON_O
00A30A 377B           02449         RLCF    I2C_REG+05
00A30C 378F           02450         RLCF    MON_O
                      02451 
Warning[203]: Found opcode in column 1. (RETURN)
00A30E 0012           02452 RETURN
                      02453 
                      02454 
                      02455 
                      02456 ;==========     DELAY USEC =========
00A310                02457 DELAY_US
                      02458 
00A310 6F70           02459         MOVWF   DELAYUS
MPASM  5.51               20191125_RTCGPU.ASM   4-30-2024  22:19:12         PAGE 50


LOC  OBJECT CODE     LINE SOURCE TEXT
  VALUE

                      02460 
00A312                02461 USEC
                      02462 
00A312 0000           02463         NOP
00A314 0000           02464         NOP
00A316 0000           02465         NOP
00A318 0000           02466         NOP
Warning[203]: Found opcode in column 1. (DECFSZ)
00A31A 2F70           02467 DECFSZ  DELAYUS,F
                      02468 
Warning[203]: Found opcode in column 1. (GOTO)
00A31C EF89 F051      02469 GOTO    USEC
                      02470 
Warning[203]: Found opcode in column 1. (RETURN)
00A320 0012           02471 RETURN
                      02472 ;=================================
                      02473 
                      02474 
                      02475 
                      02476 ;=========== DELAY ONE MS ========
00A322                02477 DELAY_ONEMS
                      02478 
00A322 0E05           02479         MOVLW   .5
00A324 6F41           02480         MOVWF   LOOP
                      02481 
00A326                02482 MSEC
00A326 0EC8           02483         MOVLW   .200
00A328 EC88 F051      02484         CALL    DELAY_US
00A32C 2F41           02485         DECFSZ  LOOP,F
00A32E EF93 F051      02486         GOTO    MSEC
                      02487 
Warning[203]: Found opcode in column 1. (RETURN)
00A332 0012           02488 RETURN
                      02489 ;==================================
                      02490 
                      02491 
                      02492 ;=========== DELAY MS   ==========
00A334                02493 DELAY_MS
                      02494         
00A334 6F71           02495         MOVWF   DELAYMS
00A336                02496 MSEC0
00A336 EC91 F051      02497         CALL    DELAY_ONEMS
00A33A 2F71           02498         DECFSZ  DELAYMS,F
00A33C EF9B F051      02499         GOTO    MSEC0
Warning[203]: Found opcode in column 1. (RETURN)
00A340 0012           02500 RETURN
                      02501 ;=================================
                      02502 
                      02503 ;=========== DELAY      ONE     SECOND ===
00A342                02504 DELAY_ONESEC
                      02505 
00A342 0E05           02506         MOVLW   .5
00A344 6F72           02507         MOVWF   SEC
MPASM  5.51               20191125_RTCGPU.ASM   4-30-2024  22:19:12         PAGE 51


LOC  OBJECT CODE     LINE SOURCE TEXT
  VALUE

00A346                02508 SEC0
00A346 0EC8           02509         MOVLW   .200
00A348 EC9A F051      02510         CALL    DELAY_MS
00A34C 2F72           02511         DECFSZ  SEC,F
00A34E EFA3 F051      02512         GOTO    SEC0
Warning[203]: Found opcode in column 1. (RETURN)
00A352 0012           02513 RETURN
                      02514 ;=================================
                      02515 
                      02516 ;==========     DELAY SEC =========
00A354                02517 DELAY_SEC
                      02518 
00A354 6F73           02519         MOVWF   DELAYS
00A356                02520 SEC1
00A356 ECA1 F051      02521         CALL    DELAY_ONESEC
00A35A 2F73           02522         DECFSZ  DELAYS,F
00A35C EFAB F051      02523         GOTO    SEC1
Warning[203]: Found opcode in column 1. (RETURN)
00A360 0012           02524 RETURN
                      02525 ;=================================
                      02526 
                      02527 
                      02528 
                      02529 
                      02530 
                      02531 
Warning[203]: Found opcode in column 1. (RETURN)
00A362 0012           02532 RETURN
                      02533 
                      02534 
                      02535 
                      02536 
Warning[205]: Found directive in column 1. (ORG)
00B000                02537 ORG     0XB000
                      02538 
                      02539 
                      02540 
00B000                02541 BUTTON_ROUTINE
                      02542 
00B000 EC26 F058      02543                 CALL    BR_SEC
00B004 EC3F F058      02544                 CALL    BR_MIN
00B008 EC58 F058      02545                 CALL    BR_HOUR
00B00C EC71 F058      02546                 CALL    BR_DATE
00B010 EC8A F058      02547                 CALL    BR_MON
00B014 ECA3 F058      02548                 CALL    BR_SAVEANDWRITE
                      02549 
                      02550 
00B018 0E00           02551                 MOVLW   0
00B01A 6F94           02552                 MOVWF   SET_COUNTL
                      02553 
                      02554 
                      02555 
00B01C B484           02556                 BTFSC   PORTE,2 ;SET
MPASM  5.51               20191125_RTCGPU.ASM   4-30-2024  22:19:12         PAGE 52


LOC  OBJECT CODE     LINE SOURCE TEXT
  VALUE

00B01E EF23 F058      02557                 GOTO    BUT_CONT
00B022                02558 BUT0
00B022 2B94           02559                 INCF    SET_COUNTL
00B024 0EFA           02560                 MOVLW   .250
00B026 6194           02561                 CPFSLT  SET_COUNTL
00B028 EF1D F058      02562                 GOTO    BUT1            
                      02563 
00B02C A484           02564                 BTFSS   PORTE,2 ;SET
00B02E EF11 F058      02565                 GOTO    BUT0
                      02566 
00B032 0E00           02567                 MOVLW   0
00B034 6F94           02568                 MOVWF   SET_COUNTL
00B036 EF23 F058      02569                 GOTO    BUT_CONT
                      02570 
00B03A                02571 BUT1
00B03A 2B93           02572                 INCF    SET_VAR
00B03C                02573 BUT2
00B03C ECA4 F000      02574                 CALL    DISPLAY_SETT
00B040 A484           02575                 BTFSS   PORTE,2 ;SET
00B042 EF1E F058      02576                 GOTO    BUT2
                      02577 
                      02578 
00B046                02579 BUT_CONT
00B046 0E00           02580                 MOVLW   0
00B048 6F94           02581                 MOVWF   SET_COUNTL
                      02582 
Warning[203]: Found opcode in column 1. (RETURN)
00B04A 0012           02583 RETURN
                      02584 
                      02585 
                      02586 ;======================================
00B04C                02587 BR_SEC
00B04C 0E01           02588                 MOVLW   1
00B04E 6393           02589                 CPFSEQ  SET_VAR
00B050 0012           02590                 RETURN
                      02591 
00B052                02592 SETSEC0
00B052 B084           02593                 BTFSC   PORTE,0 ;UP
00B054 EF34 F058      02594                 GOTO    SETSEC1
00B058 2B8D           02595                 INCF    SEC_O
00B05A EC10 F059      02596                 CALL    SEC_O_CON
00B05E                02597 BRS0
00B05E ECA4 F000      02598                 CALL    DISPLAY_SETT
00B062 A084           02599                 BTFSS   PORTE,0 ;UP     DEBOUNCE
00B064 EF2F F058      02600                 GOTO    BRS0
                      02601 
                      02602 
00B068                02603 SETSEC1
00B068 B284           02604                 BTFSC   PORTE,1 ;DW
00B06A 0012           02605                 RETURN
00B06C 078D           02606                 DECF    SEC_O
00B06E EC10 F059      02607                 CALL    SEC_O_CON
00B072                02608 BRS1
MPASM  5.51               20191125_RTCGPU.ASM   4-30-2024  22:19:12         PAGE 53


LOC  OBJECT CODE     LINE SOURCE TEXT
  VALUE

00B072 ECA4 F000      02609                 CALL    DISPLAY_SETT
00B076 A284           02610                 BTFSS   PORTE,1 ;DW_DEBOUNCE
00B078 EF39 F058      02611                 GOTO    BRS1
Warning[203]: Found opcode in column 1. (RETURN)
00B07C 0012           02612 RETURN
                      02613 
                      02614 ;======================================
00B07E                02615 BR_MIN
00B07E 0E02           02616                 MOVLW   2
00B080 6393           02617                 CPFSEQ  SET_VAR
00B082 0012           02618                 RETURN
                      02619 
00B084                02620 SETMIN0
00B084 B084           02621                 BTFSC   PORTE,0 ;UP
00B086 EF4D F058      02622                 GOTO    SETMIN1
00B08A 2B8B           02623                 INCF    MIN_O
00B08C EC34 F059      02624                 CALL    MIN_O_CON
00B090                02625 BRM0
00B090 ECA4 F000      02626                 CALL    DISPLAY_SETT
00B094 A084           02627                 BTFSS   PORTE,0 ;UP     DEBOUNCE
00B096 EF48 F058      02628                 GOTO    BRM0
                      02629 
                      02630 
00B09A                02631 SETMIN1
00B09A B284           02632                 BTFSC   PORTE,1 ;DW
00B09C 0012           02633                 RETURN
00B09E 078B           02634                 DECF    MIN_O
00B0A0 EC34 F059      02635                 CALL    MIN_O_CON
00B0A4                02636 BRM1
00B0A4 ECA4 F000      02637                 CALL    DISPLAY_SETT
00B0A8 A284           02638                 BTFSS   PORTE,1 ;DW_DEBOUNCE
00B0AA EF52 F058      02639                 GOTO    BRM1
                      02640 
Warning[203]: Found opcode in column 1. (RETURN)
00B0AE 0012           02641 RETURN
                      02642 ;======================================
00B0B0                02643 BR_HOUR
00B0B0 0E03           02644                 MOVLW   3
00B0B2 6393           02645                 CPFSEQ  SET_VAR
00B0B4 0012           02646                 RETURN
                      02647 
00B0B6                02648 SETHOUR0
00B0B6 B084           02649                 BTFSC   PORTE,0 ;UP
00B0B8 EF66 F058      02650                 GOTO    SETHOUR1
00B0BC 2B89           02651                 INCF    HOUR_O
00B0BE EC58 F059      02652                 CALL    HOUR_O_CON
00B0C2                02653 BRH0
00B0C2 ECA4 F000      02654                 CALL    DISPLAY_SETT
00B0C6 A084           02655                 BTFSS   PORTE,0 ;UP     DEBOUNCE
00B0C8 EF61 F058      02656                 GOTO    BRH0
                      02657 
                      02658 
00B0CC                02659 SETHOUR1
MPASM  5.51               20191125_RTCGPU.ASM   4-30-2024  22:19:12         PAGE 54


LOC  OBJECT CODE     LINE SOURCE TEXT
  VALUE

00B0CC B284           02660                 BTFSC   PORTE,1 ;DW
00B0CE 0012           02661                 RETURN
00B0D0 0789           02662                 DECF    HOUR_O
00B0D2 EC58 F059      02663                 CALL    HOUR_O_CON
00B0D6                02664 BRH1
00B0D6 ECA4 F000      02665                 CALL    DISPLAY_SETT
00B0DA A284           02666                 BTFSS   PORTE,1 ;DW_DEBOUNCE
00B0DC EF6B F058      02667                 GOTO    BRH1
                      02668 
Warning[203]: Found opcode in column 1. (RETURN)
00B0E0 0012           02669 RETURN
                      02670 ;======================================
00B0E2                02671 BR_DATE
00B0E2 0E04           02672                 MOVLW   4
00B0E4 6393           02673                 CPFSEQ  SET_VAR
00B0E6 0012           02674                 RETURN
                      02675 
00B0E8                02676 SETDATE0
00B0E8 B084           02677                 BTFSC   PORTE,0 ;UP
00B0EA EF7F F058      02678                 GOTO    SETDATE1
00B0EE 2B91           02679                 INCF    DATE_O
00B0F0 EC97 F059      02680                 CALL    DATE_O_CON
00B0F4                02681 BRD0
00B0F4 ECA4 F000      02682                 CALL    DISPLAY_SETT
00B0F8 A084           02683                 BTFSS   PORTE,0 ;UP     DEBOUNCE
00B0FA EF7A F058      02684                 GOTO    BRD0
                      02685 
                      02686 
00B0FE                02687 SETDATE1
00B0FE B284           02688                 BTFSC   PORTE,1 ;DW
00B100 0012           02689                 RETURN
00B102 0791           02690                 DECF    DATE_O
00B104 EC97 F059      02691                 CALL    DATE_O_CON
00B108                02692 BRD1
00B108 ECA4 F000      02693                 CALL    DISPLAY_SETT
00B10C A284           02694                 BTFSS   PORTE,1 ;DW_DEBOUNCE
00B10E EF84 F058      02695                 GOTO    BRD1
                      02696 
Warning[203]: Found opcode in column 1. (RETURN)
00B112 0012           02697 RETURN
                      02698 ;======================================
00B114                02699 BR_MON
00B114 0E05           02700                 MOVLW   5
00B116 6393           02701                 CPFSEQ  SET_VAR
00B118 0012           02702                 RETURN
                      02703 
00B11A                02704 SETMON0
00B11A B084           02705                 BTFSC   PORTE,0 ;UP
00B11C EF98 F058      02706                 GOTO    SETMON1
00B120 2B8F           02707                 INCF    MON_O
00B122 ECD7 F059      02708                 CALL    MON_O_CON
00B126                02709 BRMO0
00B126 ECA4 F000      02710                 CALL    DISPLAY_SETT
MPASM  5.51               20191125_RTCGPU.ASM   4-30-2024  22:19:12         PAGE 55


LOC  OBJECT CODE     LINE SOURCE TEXT
  VALUE

00B12A A084           02711                 BTFSS   PORTE,0 ;UP     DEBOUNCE
00B12C EF7A F058      02712                 GOTO    BRD0
                      02713 
                      02714 
00B130                02715 SETMON1
00B130 B284           02716                 BTFSC   PORTE,1 ;DW
00B132 0012           02717                 RETURN
00B134 078F           02718                 DECF    MON_O
00B136 ECD7 F059      02719                 CALL    MON_O_CON
00B13A                02720 BRMO1
00B13A ECA4 F000      02721                 CALL    DISPLAY_SETT
00B13E A284           02722                 BTFSS   PORTE,1 ;DW_DEBOUNCE
00B140 EF9D F058      02723                 GOTO    BRMO1
                      02724 
Warning[203]: Found opcode in column 1. (RETURN)
00B144 0012           02725 RETURN
                      02726 ;======================================
                      02727 
                      02728 
                      02729 
00B146                02730 BR_SAVEANDWRITE
                      02731 
00B146 0E06           02732                 MOVLW   6
00B148 6393           02733                 CPFSEQ  SET_VAR
00B14A 0012           02734                 RETURN
                      02735 
                      02736 
                      02737 
                      02738 ;========== DS3231 SET ================
00B14C EC9F F050      02739                 CALL    I2C_WRITE
00B150 ECBD F050      02740                 CALL    I2C_WRADD
                      02741                 
                      02742                 ;SECONDS
00B154 6B75           02743                 CLRF    I2C_DATA0
00B156 C18D FFE8      02744                 MOVFF   SEC_O,WREG
00B15A 2775           02745                 ADDWF   I2C_DATA0
                      02746 
                      02747 
00B15C 6AD8           02748                 CLRF    STATUS,C
00B15E 378C           02749                 RLCF    SEC_T
00B160 6AD8           02750                 CLRF    STATUS,C
00B162 378C           02751                 RLCF    SEC_T
00B164 6AD8           02752                 CLRF    STATUS,C
00B166 378C           02753                 RLCF    SEC_T
00B168 6AD8           02754                 CLRF    STATUS,C
00B16A 378C           02755                 RLCF    SEC_T
00B16C C18C FFE8      02756                 MOVFF   SEC_T,WREG
00B170 2775           02757                 ADDWF   I2C_DATA0
00B172 EC12 F051      02758                 CALL    I2C_DATAOUT
                      02759 
                      02760                 ;MINUTE
00B176 6B75           02761                 CLRF    I2C_DATA0
00B178 C18B FFE8      02762                 MOVFF   MIN_O,WREG
MPASM  5.51               20191125_RTCGPU.ASM   4-30-2024  22:19:12         PAGE 56


LOC  OBJECT CODE     LINE SOURCE TEXT
  VALUE

00B17C 2775           02763                 ADDWF   I2C_DATA0
                      02764 
                      02765 
00B17E 6AD8           02766                 CLRF    STATUS,C
00B180 378A           02767                 RLCF    MIN_T
00B182 6AD8           02768                 CLRF    STATUS,C
00B184 378A           02769                 RLCF    MIN_T
00B186 6AD8           02770                 CLRF    STATUS,C
00B188 378A           02771                 RLCF    MIN_T
00B18A 6AD8           02772                 CLRF    STATUS,C
00B18C 378A           02773                 RLCF    MIN_T
00B18E C18A FFE8      02774                 MOVFF   MIN_T,WREG
00B192 2775           02775                 ADDWF   I2C_DATA0
00B194 EC12 F051      02776                 CALL    I2C_DATAOUT
                      02777 
                      02778                 ;HOUR
00B198 6B75           02779                 CLRF    I2C_DATA0
00B19A C189 FFE8      02780                 MOVFF   HOUR_O,WREG
00B19E 2775           02781                 ADDWF   I2C_DATA0
                      02782 
                      02783 
00B1A0 6AD8           02784                 CLRF    STATUS,C
00B1A2 3788           02785                 RLCF    HOUR_T
00B1A4 6AD8           02786                 CLRF    STATUS,C
00B1A6 3788           02787                 RLCF    HOUR_T
00B1A8 6AD8           02788                 CLRF    STATUS,C
00B1AA 3788           02789                 RLCF    HOUR_T
00B1AC 6AD8           02790                 CLRF    STATUS,C
00B1AE 3788           02791                 RLCF    HOUR_T
00B1B0 C188 FFE8      02792                 MOVFF   HOUR_T,WREG
00B1B4 2775           02793                 ADDWF   I2C_DATA0
00B1B6 8D75           02794                 BSF             I2C_DATA0,6             ;12/'24 HOUR FORMAT
00B1B8 EC12 F051      02795                 CALL    I2C_DATAOUT
                      02796 
00B1BC 0E01           02797                 MOVLW   B'00000001'             ;DAY
00B1BE 6F75           02798                 MOVWF   I2C_DATA0
00B1C0 EC12 F051      02799                 CALL    I2C_DATAOUT
                      02800 
                      02801                 ;DATE
00B1C4 6B75           02802                 CLRF    I2C_DATA0
00B1C6 C191 FFE8      02803                 MOVFF   DATE_O,WREG
00B1CA 2775           02804                 ADDWF   I2C_DATA0
                      02805 
                      02806 
00B1CC 6AD8           02807                 CLRF    STATUS,C
00B1CE 3790           02808                 RLCF    DATE_T
00B1D0 6AD8           02809                 CLRF    STATUS,C
00B1D2 3790           02810                 RLCF    DATE_T
00B1D4 6AD8           02811                 CLRF    STATUS,C
00B1D6 3790           02812                 RLCF    DATE_T
00B1D8 6AD8           02813                 CLRF    STATUS,C
00B1DA 3790           02814                 RLCF    DATE_T
00B1DC C190 FFE8      02815                 MOVFF   DATE_T,WREG
MPASM  5.51               20191125_RTCGPU.ASM   4-30-2024  22:19:12         PAGE 57


LOC  OBJECT CODE     LINE SOURCE TEXT
  VALUE

00B1E0 2775           02816                 ADDWF   I2C_DATA0
00B1E2 EC12 F051      02817                 CALL    I2C_DATAOUT
                      02818 
                      02819                 ;MONTH
00B1E6 6B75           02820                 CLRF    I2C_DATA0
00B1E8 C18F FFE8      02821                 MOVFF   MON_O,WREG
00B1EC 2775           02822                 ADDWF   I2C_DATA0
                      02823 
                      02824 
00B1EE 6AD8           02825                 CLRF    STATUS,C
00B1F0 378E           02826                 RLCF    MON_T
00B1F2 6AD8           02827                 CLRF    STATUS,C
00B1F4 378E           02828                 RLCF    MON_T
00B1F6 6AD8           02829                 CLRF    STATUS,C
00B1F8 378E           02830                 RLCF    MON_T
00B1FA 6AD8           02831                 CLRF    STATUS,C
00B1FC 378E           02832                 RLCF    MON_T
00B1FE C18E FFE8      02833                 MOVFF   MON_T,WREG
00B202 2775           02834                 ADDWF   I2C_DATA0
00B204 9F75           02835                 BCF             I2C_DATA0,7
00B206 EC12 F051      02836                 CALL    I2C_DATAOUT
                      02837 
00B20A EC62 F050      02838                 CALL    I2C_STOP
                      02839 ;======================================
                      02840 
                      02841 
                      02842 
                      02843 
                      02844 
                      02845 
                      02846 
                      02847 
                      02848 
                      02849 
                      02850 
                      02851 
                      02852 
                      02853                 
00B20E 0E00           02854                 MOVLW   0
00B210 6F93           02855                 MOVWF   SET_VAR
00B212 0E00           02856                 MOVLW   0
00B214 6F94           02857                 MOVWF   SET_COUNTL
                      02858 
                      02859 
00B216 0EC8           02860                 MOVLW   .200
00B218 EC9A F051      02861                 CALL    DELAY_MS
00B21C 8195           02862                 BSF             SET_COUNTH,0
Warning[203]: Found opcode in column 1. (RETURN)
00B21E 0012           02863 RETURN
                      02864 
                      02865 
                      02866 
                      02867 
MPASM  5.51               20191125_RTCGPU.ASM   4-30-2024  22:19:12         PAGE 58


LOC  OBJECT CODE     LINE SOURCE TEXT
  VALUE

                      02868 
                      02869 
                      02870 
                      02871 
                      02872 
                      02873 ;========================================
00B220                02874 SEC_O_CON
00B220 0E09           02875                 MOVLW   9
00B222 658D           02876                 CPFSGT  SEC_O
00B224 0012           02877                 RETURN
                      02878 
00B226 0EFF           02879                 MOVLW   .255
00B228 638D           02880                 CPFSEQ  SEC_O
00B22A EF19 F059      02881                 GOTO    SEC_O_INC
00B22E EF1F F059      02882                 GOTO    SEC_O_DEC
                      02883 
00B232                02884 SEC_O_INC
00B232 2B8C           02885                 INCF    SEC_T
00B234 EC25 F059      02886                 CALL    SEC_T_CON
00B238 0E00           02887                 MOVLW   0
00B23A 6F8D           02888                 MOVWF   SEC_O
00B23C 0012           02889                 RETURN
                      02890 
00B23E                02891 SEC_O_DEC
00B23E 078C           02892                 DECF    SEC_T
00B240 EC25 F059      02893                 CALL    SEC_T_CON
00B244 0E09           02894                 MOVLW   9
00B246 6F8D           02895                 MOVWF   SEC_O
00B248 0012           02896                 RETURN
                      02897 
                      02898 ;===========================
00B24A                02899 SEC_T_CON
00B24A 0E05           02900                 MOVLW   5
00B24C 658C           02901                 CPFSGT  SEC_T
00B24E 0012           02902                 RETURN
                      02903 
00B250 0EFF           02904                 MOVLW   .255
00B252 638C           02905                 CPFSEQ  SEC_T
00B254 EF2E F059      02906                 GOTO    SEC_T_INC
00B258 EF31 F059      02907                 GOTO    SEC_T_DEC
                      02908 
00B25C                02909 SEC_T_INC
00B25C 0E00           02910                 MOVLW   0
00B25E 6F8C           02911                 MOVWF   SEC_T
00B260 0012           02912                 RETURN
                      02913 
00B262                02914 SEC_T_DEC
00B262 0E05           02915                 MOVLW   5
00B264 6F8C           02916                 MOVWF   SEC_T
00B266 0012           02917                 RETURN
                      02918 ;===========================================
                      02919 
                      02920 
MPASM  5.51               20191125_RTCGPU.ASM   4-30-2024  22:19:12         PAGE 59


LOC  OBJECT CODE     LINE SOURCE TEXT
  VALUE

                      02921 
                      02922 ;========================================
00B268                02923 MIN_O_CON
00B268 0E09           02924                 MOVLW   9
00B26A 658B           02925                 CPFSGT  MIN_O
00B26C 0012           02926                 RETURN
                      02927 
00B26E 0EFF           02928                 MOVLW   .255
00B270 638B           02929                 CPFSEQ  MIN_O
00B272 EF3D F059      02930                 GOTO    MIN_O_INC
00B276 EF43 F059      02931                 GOTO    MIN_O_DEC
                      02932 
00B27A                02933 MIN_O_INC
00B27A 2B8A           02934                 INCF    MIN_T
00B27C EC49 F059      02935                 CALL    MIN_T_CON
00B280 0E00           02936                 MOVLW   0
00B282 6F8B           02937                 MOVWF   MIN_O
00B284 0012           02938                 RETURN
                      02939 
00B286                02940 MIN_O_DEC
00B286 078A           02941                 DECF    MIN_T
00B288 EC49 F059      02942                 CALL    MIN_T_CON
00B28C 0E09           02943                 MOVLW   9
00B28E 6F8B           02944                 MOVWF   MIN_O
00B290 0012           02945                 RETURN
                      02946 
                      02947 ;===========================
00B292                02948 MIN_T_CON
00B292 0E05           02949                 MOVLW   5
00B294 658A           02950                 CPFSGT  MIN_T
00B296 0012           02951                 RETURN
                      02952 
00B298 0EFF           02953                 MOVLW   .255
00B29A 638A           02954                 CPFSEQ  MIN_T
00B29C EF52 F059      02955                 GOTO    MIN_T_INC
00B2A0 EF55 F059      02956                 GOTO    MIN_T_DEC
                      02957 
00B2A4                02958 MIN_T_INC
00B2A4 0E00           02959                 MOVLW   0
00B2A6 6F8A           02960                 MOVWF   MIN_T
00B2A8 0012           02961                 RETURN
                      02962 
00B2AA                02963 MIN_T_DEC
00B2AA 0E05           02964                 MOVLW   5
00B2AC 6F8A           02965                 MOVWF   MIN_T
00B2AE 0012           02966                 RETURN
                      02967 ;===========================================
                      02968 
                      02969 
                      02970 ;========================================
00B2B0                02971 HOUR_O_CON
00B2B0 A188           02972                 BTFSS   HOUR_T,0
00B2B2 EF5D F059      02973                 GOTO    HOURT0
MPASM  5.51               20191125_RTCGPU.ASM   4-30-2024  22:19:12         PAGE 60


LOC  OBJECT CODE     LINE SOURCE TEXT
  VALUE

00B2B6 EF76 F059      02974                 GOTO    HOURT1
                      02975 
00B2BA                02976 HOURT0
00B2BA 0E00           02977                 MOVLW   0
00B2BC 6389           02978                 CPFSEQ  HOUR_O
00B2BE EF63 F059      02979                 GOTO    HOURT01
00B2C2 EF72 F059      02980                 GOTO    HOURT02
                      02981                                 
00B2C6                02982 HOURT01
00B2C6 0E00           02983                 MOVLW   0
00B2C8 6389           02984                 CPFSEQ  HOUR_O
00B2CA EF6B F059      02985                 GOTO    HOUR01_CONT
00B2CE 0E02           02986                 MOVLW   2
00B2D0 6F89           02987                 MOVWF   HOUR_O
00B2D2 8188           02988                 BSF             HOUR_T,0
00B2D4 0012           02989                 RETURN
                      02990 
00B2D6                02991 HOUR01_CONT
00B2D6 0E09           02992                 MOVLW   9
00B2D8 6589           02993                 CPFSGT  HOUR_O
00B2DA 0012           02994                 RETURN
                      02995 
00B2DC 0E00           02996                 MOVLW   0
00B2DE 6F89           02997                 MOVWF   HOUR_O
00B2E0 8188           02998                 BSF             HOUR_T,0
00B2E2 0012           02999                 RETURN
00B2E4                03000 HOURT02
00B2E4 0E02           03001                 MOVLW   2
00B2E6 6F89           03002                 MOVWF   HOUR_O
00B2E8 8188           03003                 BSF             HOUR_T,0
00B2EA 0012           03004                 RETURN
                      03005 
                      03006 
                      03007 
00B2EC                03008 HOURT1
00B2EC 0E02           03009                 MOVLW   2
00B2EE 6389           03010                 CPFSEQ  HOUR_O
00B2F0 EF85 F059      03011                 GOTO    HOURT1_CONT
                      03012                 
00B2F4 A388           03013                 BTFSS   HOUR_T,1
00B2F6 EF7F F059      03014                 GOTO    HOURT1_CLR
00B2FA EF82 F059      03015                 GOTO    HOURT1_SET
                      03016 
00B2FE                03017 HOURT1_CLR
00B2FE 8388           03018                 BSF             HOUR_T,1
00B300 EF85 F059      03019                 GOTO    HOURT1_CONT
                      03020 
00B304                03021 HOURT1_SET
00B304 9388           03022                 BCF             HOUR_T,1
00B306 EF85 F059      03023                 GOTO    HOURT1_CONT
                      03024 
00B30A                03025 HOURT1_CONT
00B30A 0E02           03026                 MOVLW   2
MPASM  5.51               20191125_RTCGPU.ASM   4-30-2024  22:19:12         PAGE 61


LOC  OBJECT CODE     LINE SOURCE TEXT
  VALUE

00B30C 6589           03027                 CPFSGT  HOUR_O
00B30E 0012           03028                 RETURN
                      03029 
                      03030 
00B310 0EFF           03031                 MOVLW   .255
00B312 6389           03032                 CPFSEQ  HOUR_O
00B314 EF8E F059      03033                 GOTO    HOUR_O_INC
00B318 EF92 F059      03034                 GOTO    HOUR_O_DEC
                      03035 
00B31C                03036 HOUR_O_INC
00B31C 0E01           03037                 MOVLW   1
00B31E 6F89           03038                 MOVWF   HOUR_O
00B320 9188           03039                 BCF             HOUR_T,0
00B322 0012           03040                 RETURN
                      03041 
                      03042 
                      03043 
00B324                03044 HOUR_O_DEC
00B324 0E09           03045                 MOVLW   9
00B326 6F89           03046                 MOVWF   HOUR_O
00B328 9188           03047                 BCF             HOUR_T,0
00B32A 0012           03048                 RETURN
                      03049 
                      03050 
                      03051 ;===========================================
Warning[203]: Found opcode in column 1. (RETURN)
00B32C 0012           03052 RETURN
                      03053 
                      03054 
                      03055 
                      03056 ;========================================
00B32E                03057 DATE_O_CON
00B32E 0E03           03058                 MOVLW   3
00B330 6390           03059                 CPFSEQ  DATE_T
00B332 EF9D F059      03060                 GOTO    DOC_CONT
00B336 EFC4 F059      03061                 GOTO    DATET3
                      03062 
                      03063 
00B33A                03064 DOC_CONT
00B33A 0E00           03065                 MOVLW   0
00B33C 6390           03066                 CPFSEQ  DATE_T
00B33E EFB3 F059      03067                 GOTO    DATEN0
                      03068 
00B342                03069 DATET0
                      03070                 
00B342 0E00           03071                 MOVLW   0
00B344 6391           03072                 CPFSEQ  DATE_O
00B346 EFA7 F059      03073                 GOTO    DATET0_T_INC
00B34A EFAE F059      03074                 GOTO    DATET0_T_DEC
                      03075 
00B34E                03076 DATET0_T_INC
                      03077 
00B34E 0E09           03078                 MOVLW   9
MPASM  5.51               20191125_RTCGPU.ASM   4-30-2024  22:19:12         PAGE 62


LOC  OBJECT CODE     LINE SOURCE TEXT
  VALUE

00B350 6591           03079                 CPFSGT  DATE_O
00B352 0012           03080                 RETURN
                      03081 
00B354 0E00           03082                 MOVLW   0
00B356 6F91           03083                 MOVWF   DATE_O
00B358 2B90           03084                 INCF    DATE_T
00B35A 0012           03085                 RETURN
                      03086 
00B35C                03087 DATET0_T_DEC
00B35C 0E01           03088                 MOVLW   1
00B35E 6F91           03089                 MOVWF   DATE_O
00B360 0E03           03090                 MOVLW   3
00B362 6F90           03091                 MOVWF   DATE_T
00B364 0012           03092                 RETURN
                      03093 
00B366                03094 DATEN0
00B366 0E09           03095                 MOVLW   9
00B368 6591           03096                 CPFSGT  DATE_O
00B36A 0012           03097                 RETURN
                      03098 
00B36C 0EFF           03099                 MOVLW   .255
00B36E 6391           03100                 CPFSEQ  DATE_O
00B370 EFBC F059      03101                 GOTO    DATEN0_T_INC
00B374 EFC0 F059      03102                 GOTO    DATEN0_T_DEC
                      03103 
00B378                03104 DATEN0_T_INC
00B378 0E00           03105                 MOVLW   0
00B37A 6F91           03106                 MOVWF   DATE_O
00B37C 2B90           03107                 INCF    DATE_T
00B37E 0012           03108                 RETURN
                      03109 
00B380                03110 DATEN0_T_DEC
00B380 0E09           03111                 MOVLW   9
00B382 6F91           03112                 MOVWF   DATE_O
00B384 0790           03113                 DECF    DATE_T
00B386 0012           03114                 RETURN
                      03115                 
                      03116 
                      03117 
00B388                03118 DATET3
00B388 0E01           03119                 MOVLW   1
00B38A 6591           03120                 CPFSGT  DATE_O
00B38C 0012           03121                 RETURN
                      03122 
                      03123 
00B38E 0EFF           03124                 MOVLW   .255
00B390 6391           03125                 CPFSEQ  DATE_O
00B392 EFCD F059      03126                 GOTO    DATET3_INC
00B396 EFD2 F059      03127                 GOTO    DATET3_DEC
                      03128 
                      03129 
00B39A                03130 DATET3_INC
00B39A 0E01           03131                 MOVLW   1
MPASM  5.51               20191125_RTCGPU.ASM   4-30-2024  22:19:12         PAGE 63


LOC  OBJECT CODE     LINE SOURCE TEXT
  VALUE

00B39C 6F91           03132                 MOVWF   DATE_O
00B39E 0E00           03133                 MOVLW   0
00B3A0 6F90           03134                 MOVWF   DATE_T
00B3A2 0012           03135                 RETURN
                      03136 
00B3A4                03137 DATET3_DEC
00B3A4 0E09           03138                 MOVLW   9
00B3A6 6F91           03139                 MOVWF   DATE_O
00B3A8 0790           03140                 DECF    DATE_T
00B3AA 0012           03141                 RETURN
                      03142 
                      03143 
                      03144 ;===========================================
Warning[203]: Found opcode in column 1. (RETURN)
00B3AC 0012           03145 RETURN
                      03146 
                      03147 
                      03148 ;========================================
00B3AE                03149 MON_O_CON
00B3AE A18E           03150                 BTFSS   MON_T,0
00B3B0 EFDC F059      03151                 GOTO    MONT0
00B3B4 EFF5 F059      03152                 GOTO    MONT1
                      03153 
00B3B8                03154 MONT0
00B3B8 0E00           03155                 MOVLW   0
00B3BA 638F           03156                 CPFSEQ  MON_O
00B3BC EFE2 F059      03157                 GOTO    MONT01
00B3C0 EFF1 F059      03158                 GOTO    MONT02
                      03159                                 
00B3C4                03160 MONT01
00B3C4 0E00           03161                 MOVLW   0
00B3C6 638F           03162                 CPFSEQ  MON_O
00B3C8 EFEA F059      03163                 GOTO    MON01_CONT
00B3CC 0E02           03164                 MOVLW   2
00B3CE 6F8F           03165                 MOVWF   MON_O
00B3D0 818E           03166                 BSF             MON_T,0
00B3D2 0012           03167                 RETURN
                      03168 
00B3D4                03169 MON01_CONT
00B3D4 0E09           03170                 MOVLW   9
00B3D6 658F           03171                 CPFSGT  MON_O
00B3D8 0012           03172                 RETURN
                      03173 
00B3DA 0E00           03174                 MOVLW   0
00B3DC 6F8F           03175                 MOVWF   MON_O
00B3DE 818E           03176                 BSF             MON_T,0
00B3E0 0012           03177                 RETURN
00B3E2                03178 MONT02
00B3E2 0E02           03179                 MOVLW   2
00B3E4 6F8F           03180                 MOVWF   MON_O
00B3E6 818E           03181                 BSF             MON_T,0
00B3E8 0012           03182                 RETURN
                      03183 
MPASM  5.51               20191125_RTCGPU.ASM   4-30-2024  22:19:12         PAGE 64


LOC  OBJECT CODE     LINE SOURCE TEXT
  VALUE

                      03184 
                      03185 
00B3EA                03186 MONT1
00B3EA 0E02           03187                 MOVLW   2
00B3EC 658F           03188                 CPFSGT  MON_O
00B3EE 0012           03189                 RETURN
                      03190 
                      03191 
00B3F0 0EFF           03192                 MOVLW   .255
00B3F2 638F           03193                 CPFSEQ  MON_O
00B3F4 EFFE F059      03194                 GOTO    MON_O_INC
00B3F8 EF02 F05A      03195                 GOTO    MON_O_DEC
                      03196 
00B3FC                03197 MON_O_INC
00B3FC 0E01           03198                 MOVLW   1
00B3FE 6F8F           03199                 MOVWF   MON_O
00B400 918E           03200                 BCF             MON_T,0
00B402 0012           03201                 RETURN
                      03202 
                      03203 
                      03204 
00B404                03205 MON_O_DEC
00B404 0E09           03206                 MOVLW   9
00B406 6F8F           03207                 MOVWF   MON_O
00B408 918E           03208                 BCF             MON_T,0
00B40A 0012           03209                 RETURN
                      03210 
                      03211 ;===========================================
Warning[203]: Found opcode in column 1. (RETURN)
00B40C 0012           03212 RETURN
                      03213 
                      03214 
                      03215 
Warning[205]: Found directive in column 1. (ORG)
000C00                03216 ORG     0X0C00
000C00                03217 FONT02H
                      03218 
000C00 0E00           03219         MOVLW   0
000C02 6EFB           03220         MOVWF   PCLATU,0
000C04 0E0C           03221         MOVLW   0X0C
000C06 6EFA           03222         MOVWF   PCLATH,0
                      03223 
                      03224 
000C08 0E2B           03225         MOVLW   2B
000C0A 6148           03226         CPFSLT  NUMBER,1
000C0C EF00 F007      03227         GOTO    FONT02H_LOWERCASE
                      03228 
                      03229 
000C10 C148 FFE8      03230         MOVFF   NUMBER,WREG
                      03231 
                      03232 
                      03233 
000C14 90D8           03234         BCF             STATUS,C
MPASM  5.51               20191125_RTCGPU.ASM   4-30-2024  22:19:12         PAGE 65


LOC  OBJECT CODE     LINE SOURCE TEXT
  VALUE

000C16 34E8           03235         RLCF    WREG,0
000C18 90D8           03236         BCF             STATUS,C
000C1A 34E8           03237         RLCF    WREG,0
                      03238 
000C1C 26F9           03239         ADDWF   PCL,1,0
                      03240 
                      03241         
000C1E EF00 F008      03242         GOTO    FONT02H_CAP_A           ;00
                      03243         
000C22 EF00 F009      03244         GOTO    FONT02H_CAP_B           ;01
                      03245 
000C26 EF00 F00A      03246         GOTO    FONT02H_CAP_C           ;02
                      03247 
000C2A EF00 F00B      03248         GOTO    FONT02H_CAP_D           ;03
                      03249 
000C2E EF00 F00C      03250         GOTO    FONT02H_CAP_E           ;04
                      03251 
000C32 EF00 F00D      03252         GOTO    FONT02H_CAP_F           ;05
                      03253 
000C36 EF00 F00E      03254         GOTO    FONT02H_CAP_G           ;06     
                      03255         
000C3A EF00 F00F      03256         GOTO    FONT02H_CAP_H           ;07
                      03257 
000C3E EF00 F010      03258         GOTO    FONT02H_CAP_I           ;08
                      03259         
000C42 EF00 F011      03260         GOTO    FONT02H_CAP_J           ;09
                      03261 
000C46 EF00 F012      03262         GOTO    FONT02H_CAP_K           ;0A
                      03263 
000C4A EF00 F013      03264         GOTO    FONT02H_CAP_L           ;0B
                      03265 
000C4E EF00 F014      03266         GOTO    FONT02H_CAP_M           ;0C
                      03267         
000C52 EF00 F015      03268         GOTO    FONT02H_CAP_N           ;0D
                      03269         
000C56 EF00 F016      03270         GOTO    FONT02H_CAP_O           ;0E
                      03271 
000C5A EF00 F017      03272         GOTO    FONT02H_CAP_P           ;0F
                      03273 
000C5E EF00 F018      03274         GOTO    FONT02H_CAP_Q           ;10
                      03275 
000C62 EF00 F019      03276         GOTO    FONT02H_CAP_R           ;11
                      03277 
000C66 EF00 F01A      03278         GOTO    FONT02H_CAP_S           ;12
                      03279 
000C6A EF00 F01B      03280         GOTO    FONT02H_CAP_T           ;13
                      03281 
000C6E EF00 F01C      03282         GOTO    FONT02H_CAP_U           ;14
                      03283 
000C72 EF00 F01D      03284         GOTO    FONT02H_CAP_V           ;15
                      03285 
000C76 EF00 F01E      03286         GOTO    FONT02H_CAP_W           ;16
                      03287 
MPASM  5.51               20191125_RTCGPU.ASM   4-30-2024  22:19:12         PAGE 66


LOC  OBJECT CODE     LINE SOURCE TEXT
  VALUE

000C7A EF00 F01F      03288         GOTO    FONT02H_CAP_X           ;17
                      03289 
000C7E EF00 F020      03290         GOTO    FONT02H_CAP_Y           ;18
                      03291 
000C82 EF00 F021      03292         GOTO    FONT02H_CAP_Z           ;19
                      03293 
000C86 EF00 F022      03294         GOTO    FONT02H_CAP_ZERO        ;1A
                      03295 
000C8A EF00 F023      03296         GOTO    FONT02H_CAP_ONE         ;1B
                      03297 
000C8E EF00 F024      03298         GOTO    FONT02H_CAP_TWO         ;1C
                      03299 
000C92 EF00 F025      03300         GOTO    FONT02H_CAP_THREE       ;1D
                      03301 
000C96 EF00 F026      03302         GOTO    FONT02H_CAP_FOUR        ;1E
                      03303 
000C9A EF00 F027      03304         GOTO    FONT02H_CAP_FIVE        ;1F
                      03305 
000C9E EF00 F028      03306         GOTO    FONT02H_CAP_SIX         ;20
                      03307 
000CA2 EF00 F029      03308         GOTO    FONT02H_CAP_SEVEN       ;21
                      03309 
000CA6 EF00 F02A      03310         GOTO    FONT02H_CAP_EIGHT       ;22
                      03311 
000CAA EF00 F02B      03312         GOTO    FONT02H_CAP_NINE        ;23
                      03313         
000CAE EF00 F02C      03314         GOTO    FONT02H_CAP_ENYE        ;24
                      03315 
000CB2 EF00 F02D      03316         GOTO    FONT02H_CAP_DASH        ;25
                      03317 
000CB6 EF39 F02E      03318         GOTO    FONT02H_LOW_COLON       ;26
                      03319 
000CBA EF00 F02F      03320         GOTO    FONT02H_CAP_SEMICOLON   ;27
                      03321 
000CBE EF00 F030      03322         GOTO    FONT02H_CAP_COMMA       ;28
                      03323 
000CC2 EF00 F031      03324         GOTO    FONT02H_CAP_DOT         ;29
                      03325 
000CC6 EF00 F032      03326         GOTO    FONT02H_CAP_SPACE       ;2A
                      03327 
                      03328 
000CCA 0012           03329         RETURN                                          ;2B
000CCC 0000           03330         NOP
000CCE 0012           03331         RETURN                                          ;2C
000CD0 0000           03332         NOP
000CD2 0012           03333         RETURN                                          ;2D
000CD4 0000           03334         NOP
000CD6 0012           03335         RETURN                                          ;2E
000CD8 0000           03336         NOP
000CDA 0012           03337         RETURN                                          ;2F
000CDC 0000           03338         NOP
000CDE EF39 F008      03339         GOTO    FONT02H_LOW_A           ;30
                      03340 
MPASM  5.51               20191125_RTCGPU.ASM   4-30-2024  22:19:12         PAGE 67


LOC  OBJECT CODE     LINE SOURCE TEXT
  VALUE

                      03341 
                      03342 
                      03343 
Warning[205]: Found directive in column 1. (ORG)
000D00                03344 ORG     0X0D00
000D00                03345 FONT02L
                      03346 
000D00 0E00           03347         MOVLW   0
000D02 6EFB           03348         MOVWF   PCLATU,0
000D04 0E0D           03349         MOVLW   0X0D
000D06 6EFA           03350         MOVWF   PCLATH,0
                      03351 
                      03352 
000D08 0E2B           03353         MOVLW   2B
000D0A 6148           03354         CPFSLT  NUMBER,1
000D0C EF80 F007      03355         GOTO    FONT02L_LOWERCASE
                      03356 
                      03357 
000D10 C148 FFE8      03358         MOVFF   NUMBER,WREG
                      03359 
                      03360 
000D14 90D8           03361         BCF             STATUS,C
000D16 34E8           03362         RLCF    WREG,0
000D18 90D8           03363         BCF             STATUS,C
000D1A 34E8           03364         RLCF    WREG,0
                      03365 
                      03366 
                      03367 
000D1C 26F9           03368         ADDWF   PCL,1,0
                      03369 
                      03370 
                      03371         
000D1E EF80 F008      03372         GOTO    FONT02L_CAP_A
                      03373         
000D22 EF80 F009      03374         GOTO    FONT02L_CAP_B
                      03375 
000D26 EF80 F00A      03376         GOTO    FONT02L_CAP_C
                      03377 
000D2A EF80 F00B      03378         GOTO    FONT02L_CAP_D
                      03379 
000D2E EF80 F00C      03380         GOTO    FONT02L_CAP_E
                      03381 
000D32 EF80 F00D      03382         GOTO    FONT02L_CAP_F
                      03383 
000D36 EF80 F00E      03384         GOTO    FONT02L_CAP_G
                      03385 
000D3A EF80 F00F      03386         GOTO    FONT02L_CAP_H
                      03387 
000D3E EF80 F010      03388         GOTO    FONT02L_CAP_I
                      03389 
000D42 EF80 F011      03390         GOTO    FONT02L_CAP_J
                      03391         
000D46 EF80 F012      03392         GOTO    FONT02L_CAP_K
MPASM  5.51               20191125_RTCGPU.ASM   4-30-2024  22:19:12         PAGE 68


LOC  OBJECT CODE     LINE SOURCE TEXT
  VALUE

                      03393 
000D4A EF80 F013      03394         GOTO    FONT02L_CAP_L
                      03395         
000D4E EF80 F014      03396         GOTO    FONT02L_CAP_M
                      03397         
000D52 EF80 F015      03398         GOTO    FONT02L_CAP_N
                      03399 
000D56 EF80 F016      03400         GOTO    FONT02L_CAP_O
                      03401 
000D5A EF80 F017      03402         GOTO    FONT02L_CAP_P
                      03403         
000D5E EF80 F018      03404         GOTO    FONT02L_CAP_Q
                      03405 
000D62 EF80 F019      03406         GOTO    FONT02L_CAP_R
                      03407 
000D66 EFB9 F01A      03408         GOTO    FONT02L_CAP_S
                      03409         
000D6A EF80 F01B      03410         GOTO    FONT02L_CAP_T
                      03411 
000D6E EF80 F01C      03412         GOTO    FONT02L_CAP_U
                      03413 
000D72 EF80 F01D      03414         GOTO    FONT02L_CAP_V
                      03415 
000D76 EF80 F01E      03416         GOTO    FONT02L_CAP_W
                      03417 
000D7A EF80 F01F      03418         GOTO    FONT02L_CAP_X
                      03419 
000D7E EF80 F020      03420         GOTO    FONT02L_CAP_Y
                      03421 
000D82 EF80 F021      03422         GOTO    FONT02L_CAP_Z
                      03423 
000D86 EF80 F022      03424         GOTO    FONT02L_CAP_ZERO
                      03425 
000D8A EF80 F023      03426         GOTO    FONT02L_CAP_ONE
                      03427         
000D8E EF80 F024      03428         GOTO    FONT02L_CAP_TWO
                      03429 
000D92 EF80 F025      03430         GOTO    FONT02L_CAP_THREE
                      03431 
000D96 EF80 F026      03432         GOTO    FONT02L_CAP_FOUR
                      03433 
000D9A EF80 F027      03434         GOTO    FONT02L_CAP_FIVE
                      03435 
000D9E EF80 F028      03436         GOTO    FONT02L_CAP_SIX
                      03437 
000DA2 EF80 F029      03438         GOTO    FONT02L_CAP_SEVEN
                      03439 
000DA6 EF80 F02A      03440         GOTO    FONT02L_CAP_EIGHT
                      03441 
000DAA EF80 F02B      03442         GOTO    FONT02L_CAP_NINE
                      03443         
000DAE EF80 F02C      03444         GOTO    FONT02L_CAP_ENYE
                      03445 
MPASM  5.51               20191125_RTCGPU.ASM   4-30-2024  22:19:12         PAGE 69


LOC  OBJECT CODE     LINE SOURCE TEXT
  VALUE

000DB2 EF80 F02D      03446         GOTO    FONT02L_CAP_DASH
                      03447 
000DB6 EFB9 F02E      03448         GOTO    FONT02L_LOW_COLON
                      03449 
000DBA EF80 F02F      03450         GOTO    FONT02L_CAP_SEMICOLON
                      03451 
000DBE EF80 F030      03452         GOTO    FONT02L_CAP_COMMA
                      03453 
000DC2 EF80 F031      03454         GOTO    FONT02L_CAP_DOT
                      03455 
000DC6 EF80 F032      03456         GOTO    FONT02L_CAP_SPACE
                      03457 
                      03458 
000DCA 0012           03459         RETURN
000DCC 0000           03460         NOP
000DCE 0012           03461         RETURN
000DD0 0000           03462         NOP
000DD2 0012           03463         RETURN
000DD4 0000           03464         NOP
000DD6 0012           03465         RETURN
000DD8 0000           03466         NOP
000DDA 0012           03467         RETURN
000DDC EFB9 F008      03468         GOTO    FONT02L_LOW_A
                      03469 
                      03470 
                      03471 
                      03472 
Warning[205]: Found directive in column 1. (ORG)
000E00                03473 ORG     0X0E00
000E00                03474 FONT02H_LOWERCASE
                      03475 
000E00 0E00           03476         MOVLW   0
000E02 6EFB           03477         MOVWF   PCLATU,0
000E04 0E0E           03478         MOVLW   0X0E
000E06 6EFA           03479         MOVWF   PCLATH,0
                      03480 
                      03481 
000E08 0E5F           03482         MOVLW   5F
000E0A 6148           03483         CPFSLT  NUMBER,1
000E0C EF00 F032      03484         GOTO    FONT02H_CAP_SPACE
                      03485 
                      03486 
000E10 C148 FFE8      03487         MOVFF   NUMBER,WREG
                      03488 
                      03489 
000E14 ACE8           03490         BTFSS   WREG,6
000E16 EF12 F007      03491         GOTO    FONT02H_ISL4
                      03492         
000E1A A8E8           03493         BTFSS   WREG,4
000E1C EF16 F007      03494         GOTO    FONT02H_NUMH_IS4
000E20 EF1A F007      03495         GOTO    FONT02H_NUMH_IS5
                      03496 
                      03497 
MPASM  5.51               20191125_RTCGPU.ASM   4-30-2024  22:19:12         PAGE 70


LOC  OBJECT CODE     LINE SOURCE TEXT
  VALUE

000E24                03498 FONT02H_ISL4
000E24 98E8           03499         BCF             WREG,4
000E26 9AE8           03500         BCF             WREG,5
000E28 EF1D F007      03501         GOTO    FONT02H_LOWERCASE0      
                      03502 
000E2C                03503 FONT02H_NUMH_IS4
000E2C 9CE8           03504         BCF             WREG,6
000E2E 88E8           03505         BSF             WREG,4
000E30 EF1D F007      03506         GOTO    FONT02H_LOWERCASE0
                      03507 
000E34                03508 FONT02H_NUMH_IS5
000E34 98E8           03509         BCF             WREG,4
000E36 9CE8           03510         BCF             WREG,6
000E38 8AE8           03511         BSF             WREG,5
                      03512 
000E3A                03513 FONT02H_LOWERCASE0
                      03514 
000E3A 90D8           03515         BCF             STATUS,C
000E3C 34E8           03516         RLCF    WREG,0
000E3E 90D8           03517         BCF             STATUS,C
000E40 34E8           03518         RLCF    WREG,0
                      03519 
000E42 26F9           03520         ADDWF   PCL,1,0
                      03521 
                      03522         
000E44 EF39 F008      03523         GOTO    FONT02H_LOW_A           ;30
                      03524         
000E48 EF39 F009      03525         GOTO    FONT02H_LOW_B           ;31
                      03526 
000E4C EF39 F00A      03527         GOTO    FONT02H_LOW_C           ;32
                      03528 
000E50 EF39 F00B      03529         GOTO    FONT02H_LOW_D           ;33
                      03530 
000E54 EF39 F00C      03531         GOTO    FONT02H_LOW_E           ;34
                      03532 
000E58 EF39 F00D      03533         GOTO    FONT02H_LOW_F           ;35
                      03534 
000E5C EF39 F00E      03535         GOTO    FONT02H_LOW_G           ;36
                      03536 
000E60 EF39 F00F      03537         GOTO    FONT02H_LOW_H           ;37
                      03538 
000E64 EF39 F010      03539         GOTO    FONT02H_LOW_I           ;38
                      03540 
000E68 EF39 F011      03541         GOTO    FONT02H_LOW_J           ;39
                      03542 
000E6C EF39 F012      03543         GOTO    FONT02H_LOW_K           ;3A
                      03544 
000E70 EF39 F013      03545         GOTO    FONT02H_LOW_L           ;3B
                      03546 
000E74 EF39 F014      03547         GOTO    FONT02H_LOW_M           ;3C
                      03548 
000E78 EF39 F015      03549         GOTO    FONT02H_LOW_N           ;3D
                      03550 
MPASM  5.51               20191125_RTCGPU.ASM   4-30-2024  22:19:12         PAGE 71


LOC  OBJECT CODE     LINE SOURCE TEXT
  VALUE

000E7C EF39 F016      03551         GOTO    FONT02H_LOW_O           ;3E
                      03552 
000E80 EF39 F017      03553         GOTO    FONT02H_LOW_P           ;3F
                      03554 
000E84 EF39 F018      03555         GOTO    FONT02H_LOW_Q           ;40
                      03556 
000E88 EF39 F019      03557         GOTO    FONT02H_LOW_R           ;41
                      03558 
000E8C EF39 F01A      03559         GOTO    FONT02H_LOW_S           ;42
                      03560 
000E90 EF39 F01B      03561         GOTO    FONT02H_LOW_T           ;43
                      03562 
000E94 EF39 F01C      03563         GOTO    FONT02H_LOW_U           ;44
                      03564 
000E98 EF39 F01D      03565         GOTO    FONT02H_LOW_V           ;45
                      03566 
000E9C EF39 F01E      03567         GOTO    FONT02H_LOW_W           ;46
                      03568 
000EA0 EF3C F01F      03569         GOTO    FONT02H_LOW_X           ;47
                      03570 
000EA4 EF3C F020      03571         GOTO    FONT02H_LOW_Y           ;48
                      03572 
000EA8 EF39 F021      03573         GOTO    FONT02H_LOW_Z           ;49
                      03574 
000EAC EF80 F022      03575         GOTO    FONT02L_CAP_ZERO        ;4A
                      03576 
000EB0 EF80 F023      03577         GOTO    FONT02L_CAP_ONE         ;4B
                      03578 
000EB4 EF80 F024      03579         GOTO    FONT02L_CAP_TWO         ;4C
                      03580 
000EB8 EF80 F025      03581         GOTO    FONT02L_CAP_THREE       ;4D
                      03582 
000EBC EF80 F026      03583         GOTO    FONT02L_CAP_FOUR        ;4E
                      03584 
000EC0 EF80 F027      03585         GOTO    FONT02L_CAP_FIVE        ;4F
                      03586 
000EC4 EF80 F028      03587         GOTO    FONT02L_CAP_SIX         ;50
                      03588 
000EC8 EF80 F029      03589         GOTO    FONT02L_CAP_SEVEN       ;51
                      03590 
000ECC EF80 F02A      03591         GOTO    FONT02L_CAP_EIGHT       ;52
                      03592 
000ED0 EF80 F02B      03593         GOTO    FONT02L_CAP_NINE        ;53
                      03594 
000ED4 EF39 F02C      03595         GOTO    FONT02H_LOW_ENYE        ;54
                      03596 
000ED8 EF39 F02D      03597         GOTO    FONT02H_LOW_DASH        ;55
                      03598 
000EDC EFB9 F02E      03599         GOTO    FONT02L_LOW_COLON       ;56
                      03600 
000EE0 EF39 F02F      03601         GOTO    FONT02H_LOW_SEMICOLON   ;57
                      03602         
000EE4 EF39 F030      03603         GOTO    FONT02H_LOW_COMMA       ;58
MPASM  5.51               20191125_RTCGPU.ASM   4-30-2024  22:19:12         PAGE 72


LOC  OBJECT CODE     LINE SOURCE TEXT
  VALUE

                      03604 
000EE8 EF39 F031      03605         GOTO    FONT02H_LOW_DOT         ;59
                      03606 
000EEC EF00 F032      03607         GOTO    FONT02H_CAP_SPACE       ;5A
                      03608 
                      03609 
Warning[203]: Found opcode in column 1. (RETURN)
000EF0 0012           03610 RETURN
                      03611 
                      03612 
                      03613 
                      03614 
                      03615 
Warning[205]: Found directive in column 1. (ORG)
000F00                03616 ORG     0X0F00
000F00                03617 FONT02L_LOWERCASE
                      03618 
000F00 0E00           03619         MOVLW   0
000F02 6EFB           03620         MOVWF   PCLATU,0
000F04 0E0F           03621         MOVLW   0X0F
000F06 6EFA           03622         MOVWF   PCLATH,0
                      03623 
                      03624 
000F08 0E5F           03625         MOVLW   5F
000F0A 6148           03626         CPFSLT  NUMBER,1
000F0C EF00 F032      03627         GOTO    FONT02H_CAP_SPACE
                      03628 
                      03629 
000F10 C148 FFE8      03630         MOVFF   NUMBER,WREG
                      03631 
000F14 ACE8           03632         BTFSS   WREG,6
000F16 EF92 F007      03633         GOTO    FONT02L_ISL4
                      03634         
000F1A A8E8           03635         BTFSS   WREG,4
000F1C EF96 F007      03636         GOTO    FONT02L_NUMH_IS4
000F20 EF9A F007      03637         GOTO    FONT02L_NUMH_IS5
                      03638 
                      03639 
000F24                03640 FONT02L_ISL4
000F24 98E8           03641         BCF             WREG,4
000F26 9AE8           03642         BCF             WREG,5
000F28 EF9D F007      03643         GOTO    FONT02L_LOWERCASE0      
                      03644 
000F2C                03645 FONT02L_NUMH_IS4
000F2C 9CE8           03646         BCF             WREG,6
000F2E 88E8           03647         BSF             WREG,4
000F30 EF9D F007      03648         GOTO    FONT02L_LOWERCASE0
                      03649 
000F34                03650 FONT02L_NUMH_IS5
000F34 98E8           03651         BCF             WREG,4
000F36 9CE8           03652         BCF             WREG,6
000F38 8AE8           03653         BSF             WREG,5
                      03654 
MPASM  5.51               20191125_RTCGPU.ASM   4-30-2024  22:19:12         PAGE 73


LOC  OBJECT CODE     LINE SOURCE TEXT
  VALUE

                      03655 
000F3A                03656 FONT02L_LOWERCASE0
                      03657 
000F3A 90D8           03658         BCF             STATUS,C
000F3C 34E8           03659         RLCF    WREG,0
000F3E 90D8           03660         BCF             STATUS,C
000F40 34E8           03661         RLCF    WREG,0
                      03662 
                      03663 
                      03664 
000F42 26F9           03665         ADDWF   PCL,1,0
                      03666 
                      03667 
                      03668         
000F44 EFB9 F008      03669         GOTO    FONT02L_LOW_A
                      03670         
000F48 EFB9 F009      03671         GOTO    FONT02L_LOW_B
                      03672 
000F4C EFB9 F00A      03673         GOTO    FONT02L_LOW_C
                      03674 
000F50 EFB9 F00B      03675         GOTO    FONT02L_LOW_D
                      03676 
000F54 EFB9 F00C      03677         GOTO    FONT02L_LOW_E
                      03678 
000F58 EFB9 F00D      03679         GOTO    FONT02L_LOW_F
                      03680 
000F5C EFB9 F00E      03681         GOTO    FONT02L_LOW_G
                      03682 
000F60 EFB9 F00F      03683         GOTO    FONT02L_LOW_H
                      03684 
000F64 EFB9 F010      03685         GOTO    FONT02L_LOW_I
                      03686 
000F68 EFB9 F011      03687         GOTO    FONT02L_LOW_J
                      03688 
000F6C EFB9 F012      03689         GOTO    FONT02L_LOW_K
                      03690 
000F70 EFB9 F013      03691         GOTO    FONT02L_LOW_L
                      03692 
000F74 EFB9 F014      03693         GOTO    FONT02L_LOW_M
                      03694 
000F78 EFB9 F015      03695         GOTO    FONT02L_LOW_N
                      03696 
000F7C EFB9 F016      03697         GOTO    FONT02L_LOW_O
                      03698 
000F80 EFB9 F017      03699         GOTO    FONT02L_LOW_P
                      03700 
000F84 EFB9 F018      03701         GOTO    FONT02L_LOW_Q
                      03702 
000F88 EFB9 F019      03703         GOTO    FONT02L_LOW_R
                      03704 
000F8C EF80 F01A      03705         GOTO    FONT02L_LOW_S
                      03706 
000F90 EFB9 F01B      03707         GOTO    FONT02L_LOW_T
MPASM  5.51               20191125_RTCGPU.ASM   4-30-2024  22:19:12         PAGE 74


LOC  OBJECT CODE     LINE SOURCE TEXT
  VALUE

                      03708 
000F94 EFB9 F01C      03709         GOTO    FONT02L_LOW_U
                      03710 
000F98 EFB9 F01D      03711         GOTO    FONT02L_LOW_V
                      03712 
000F9C EFB9 F01E      03713         GOTO    FONT02L_LOW_W
                      03714 
000FA0 EFB9 F01F      03715         GOTO    FONT02L_LOW_X
                      03716 
000FA4 EFB9 F020      03717         GOTO    FONT02L_LOW_Y
                      03718 
000FA8 EFB9 F021      03719         GOTO    FONT02L_LOW_Z
                      03720 
000FAC EF00 F022      03721         GOTO    FONT02H_CAP_ZERO        ;4A
                      03722 
000FB0 EF00 F023      03723         GOTO    FONT02H_CAP_ONE         ;4B
                      03724 
000FB4 EF00 F024      03725         GOTO    FONT02H_CAP_TWO         ;4C
                      03726 
000FB8 EF00 F025      03727         GOTO    FONT02H_CAP_THREE       ;4D
                      03728 
000FBC EF00 F026      03729         GOTO    FONT02H_CAP_FOUR        ;4E
                      03730 
000FC0 EF00 F027      03731         GOTO    FONT02H_CAP_FIVE        ;4F
                      03732 
000FC4 EF00 F028      03733         GOTO    FONT02H_CAP_SIX         ;50
                      03734 
000FC8 EF00 F029      03735         GOTO    FONT02H_CAP_SEVEN       ;51
                      03736 
000FCC EF00 F02A      03737         GOTO    FONT02H_CAP_EIGHT       ;52
                      03738 
000FD0 EF00 F02B      03739         GOTO    FONT02H_CAP_NINE        ;53
                      03740 
000FD4 EFB9 F02C      03741         GOTO    FONT02L_LOW_ENYE        ;54
                      03742 
000FD8 EFB9 F02D      03743         GOTO    FONT02L_LOW_DASH        ;55
                      03744 
000FDC EF39 F02E      03745         GOTO    FONT02H_LOW_COLON       ;56
                      03746 
000FE0 EFB9 F02F      03747         GOTO    FONT02L_LOW_SEMICOLON   ;57
                      03748 
000FE4 EFB9 F030      03749         GOTO    FONT02L_LOW_COMMA       ;58
                      03750 
000FE8 EFB9 F031      03751         GOTO    FONT02L_LOW_DOT         ;59
                      03752 
000FEC EF80 F032      03753         GOTO    FONT02L_CAP_SPACE       ;5A
                      03754 
                      03755 
Warning[203]: Found opcode in column 1. (RETURN)
000FF0 0012           03756 RETURN
                      03757 
                      03758 
                      03759 
MPASM  5.51               20191125_RTCGPU.ASM   4-30-2024  22:19:12         PAGE 75


LOC  OBJECT CODE     LINE SOURCE TEXT
  VALUE

                      03760 
                      03761 
                      03762 
                      03763 
                      03764 
                      03765 
                      03766 
                      03767 ;=========================      CHARACTERS VISUAL MEMORY ================
Warning[205]: Found directive in column 1. (ORG)
001000                03768 ORG 0X1000
001000                03769 FONT02H_CAP_A
                      03770 
001000 0E00           03771         MOVLW   0
001002 6EFB           03772         MOVWF   PCLATU,0
001004 0E10           03773         MOVLW   10
001006 6EFA           03774         MOVWF   PCLATH,0
                      03775 
                      03776 
                      03777 
001008 C146 FFE8      03778                         MOVFF   BTCOUNT,WREG
00100C 90D8           03779                         BCF             STATUS,C
00100E 36E8           03780                         RLCF    WREG
                      03781 
                      03782                 
001010 26F9           03783                         ADDWF   PCL,1,0
001012 0CFF 0CFF 0CFF 03784                         DT      B'11111111',B'11111111',B'11111111'     ;BTC=00
001018 0CFF 0C8F 0CFF 03785                         DT      B'11111111',B'10001111',B'11111111'     ;BTC=01
00101E 0CFF 0C07 0CFF 03786                         DT      B'11111111',B'00000111',B'11111111'     ;BTC=02
001024 0CFE 0C03 0CFF 03787                         DT      B'11111110',B'00000011',B'11111111'     ;BTC=03
00102A 0CFC 0C01 0CFF 03788                         DT      B'11111100',B'00000001',B'11111111'     ;BTC=04
001030 0CF8 0C20 0CFF 03789                         DT      B'11111000',B'00100000',B'11111111'     ;BTC=05
001036 0CF0 0C70 0C7F 03790                         DT      B'11110000',B'01110000',B'01111111'     ;BTC=06
00103C 0CE0 0CF8 0C3F 03791                         DT      B'11100000',B'11111000',B'00111111'     ;BTC=07
001042 0CC1 0CFC 0C1F 03792                         DT      B'11000001',B'11111100',B'00011111'     ;BTC=08
001048 0C83 0CFE 0C0F 03793                         DT      B'10000011',B'11111110',B'00001111'     ;BTC=09
00104E 0C87 0CFF 0C0F 03794                         DT      B'10000111',B'11111111',B'00001111'     ;BTC=0A
001054 0C87 0CFF 0C0F 03795                         DT      B'10000111',B'11111111',B'00001111'     ;BTC=0B
00105A 0C87 0CFF 0C0F 03796                         DT      B'10000111',B'11111111',B'00001111'     ;BTC=0C
001060 0C87 0CFF 0C0F 03797                         DT      B'10000111',B'11111111',B'00001111'     ;BTC=0D
001066 0C87 0CFF 0C0F 03798                         DT      B'10000111',B'11111111',B'00001111'     ;BTC=0E
00106C 0C87 0CFF 0C0F 03799                         DT      B'10000111',B'11111111',B'00001111'     ;BTC=0F
                      03800 
001072                03801 FONT02H_LOW_A
                      03802 
001072 0E00           03803         MOVLW   0
001074 6EFB           03804         MOVWF   PCLATU,0
001076 0E10           03805         MOVLW   10
001078 6EFA           03806         MOVWF   PCLATH,0
                      03807 
                      03808 
                      03809 
00107A C146 FFE8      03810                         MOVFF   BTCOUNT,WREG
00107E 90D8           03811                         BCF             STATUS,C
MPASM  5.51               20191125_RTCGPU.ASM   4-30-2024  22:19:12         PAGE 76


LOC  OBJECT CODE     LINE SOURCE TEXT
  VALUE

001080 36E8           03812                         RLCF    WREG
                      03813 
                      03814                 
001082 26F9           03815                         ADDWF   PCL,1,0
001084 0CFF 0CFF 0CFF 03816                         DT      B'11111111',B'11111111',B'11111111'     ;BTC=00
00108A 0CFF 0CFF 0CFF 03817                         DT      B'11111111',B'11111111',B'11111111'     ;BTC=01
001090 0CFF 0CFF 0CFF 03818                         DT      B'11111111',B'11111111',B'11111111'     ;BTC=02
001096 0CFF 0CFF 0CFF 03819                         DT      B'11111111',B'11111111',B'11111111'     ;BTC=03
00109C 0CFF 0CFF 0CFF 03820                         DT      B'11111111',B'11111111',B'11111111'     ;BTC=04
0010A2 0CFF 0CFF 0CFF 03821                         DT      B'11111111',B'11111111',B'11111111'     ;BTC=05
0010A8 0CFF 0CFF 0CFF 03822                         DT      B'11111111',B'11111111',B'11111111'     ;BTC=06
0010AE 0CFF 0CFF 0CFF 03823                         DT      B'11111111',B'11111111',B'11111111'     ;BTC=07
0010B4 0CFF 0CFF 0CFF 03824                         DT      B'11111111',B'11111111',B'11111111'     ;BTC=08
0010BA 0CFF 0CFF 0CFF 03825                         DT      B'11111111',B'11111111',B'11111111'     ;BTC=09
0010C0 0CFF 0CFF 0CFF 03826                         DT      B'11111111',B'11111111',B'11111111'     ;BTC=0A
0010C6 0CFF 0CFF 0CFF 03827                         DT      B'11111111',B'11111111',B'11111111'     ;BTC=0B
0010CC 0CFF 0CFF 0CFF 03828                         DT      B'11111111',B'11111111',B'11111111'     ;BTC=0C
0010D2 0CFF 0CFF 0CFF 03829                         DT      B'11111111',B'11111111',B'11111111'     ;BTC=0D
0010D8 0CC0 0C01 0CFF 03830                         DT      B'11000000',B'00000001',B'11111111'     ;BTC=0E
0010DE 0CC0 0C00 0CFF 03831                         DT      B'11000000',B'00000000',B'11111111'     ;BTC=0F
                      03832 
Warning[205]: Found directive in column 1. (ORG)
001100                03833 ORG 0X1100
001100                03834 FONT02L_CAP_A
                      03835 
001100 0E00           03836         MOVLW   0
001102 6EFB           03837         MOVWF   PCLATU,0
001104 0E11           03838         MOVLW   11
001106 6EFA           03839         MOVWF   PCLATH,0
                      03840 
                      03841 
                      03842 
001108 C146 FFE8      03843                         MOVFF   BTCOUNT,WREG
00110C 90D8           03844                         BCF             STATUS,C
00110E 36E8           03845                         RLCF    WREG
                      03846 
                      03847                 
001110 26F9           03848                         ADDWF   PCL,1,0
001112 0C80 0C00 0C0F 03849                         DT      B'10000000',B'00000000',B'00001111'     ;BTC=10
001118 0C80 0C00 0C0F 03850                         DT      B'10000000',B'00000000',B'00001111'     ;BTC=11
00111E 0C80 0C00 0C0F 03851                         DT      B'10000000',B'00000000',B'00001111'     ;BTC=12
001124 0C80 0C00 0C0F 03852                         DT      B'10000000',B'00000000',B'00001111'     ;BTC=13
00112A 0C87 0CFF 0C0F 03853                         DT      B'10000111',B'11111111',B'00001111'     ;BTC=14
001130 0C87 0CFF 0C0F 03854                         DT      B'10000111',B'11111111',B'00001111'     ;BTC=15
001136 0C87 0CFF 0C0F 03855                         DT      B'10000111',B'11111111',B'00001111'     ;BTC=16
00113C 0C87 0CFF 0C0F 03856                         DT      B'10000111',B'11111111',B'00001111'     ;BTC=17
001142 0C87 0CFF 0C0F 03857                         DT      B'10000111',B'11111111',B'00001111'     ;BTC=18
001148 0C87 0CFF 0C0F 03858                         DT      B'10000111',B'11111111',B'00001111'     ;BTC=19
00114E 0C87 0CFF 0C0F 03859                         DT      B'10000111',B'11111111',B'00001111'     ;BTC=1A
001154 0C87 0CFF 0C0F 03860                         DT      B'10000111',B'11111111',B'00001111'     ;BTC=1B
00115A 0C87 0CFF 0C0F 03861                         DT      B'10000111',B'11111111',B'00001111'     ;BTC=1C
001160 0C87 0CFF 0C0F 03862                         DT      B'10000111',B'11111111',B'00001111'     ;BTC=1D
001166 0C87 0CFF 0C0F 03863                         DT      B'10000111',B'11111111',B'00001111'     ;BTC=1E
MPASM  5.51               20191125_RTCGPU.ASM   4-30-2024  22:19:12         PAGE 77


LOC  OBJECT CODE     LINE SOURCE TEXT
  VALUE

00116C 0CFF 0CFF 0CFF 03864                         DT      B'11111111',B'11111111',B'11111111'     ;BTC=1F
                      03865 
001172                03866 FONT02L_LOW_A
                      03867 
001172 0E00           03868         MOVLW   0
001174 6EFB           03869         MOVWF   PCLATU,0
001176 0E11           03870         MOVLW   11
001178 6EFA           03871         MOVWF   PCLATH,0
                      03872 
                      03873 
                      03874 
00117A C146 FFE8      03875                         MOVFF   BTCOUNT,WREG
00117E 90D8           03876                         BCF             STATUS,C
001180 36E8           03877                         RLCF    WREG
                      03878 
                      03879                 
001182 26F9           03880                         ADDWF   PCL,1,0
001184 0CC0 0C00 0C7F 03881                         DT      B'11000000',B'00000000',B'01111111'     ;BTC=10
00118A 0CFF 0CF8 0C7F 03882                         DT      B'11111111',B'11111000',B'01111111'     ;BTC=11
001190 0CFF 0CFC 0C7F 03883                         DT      B'11111111',B'11111100',B'01111111'     ;BTC=12
001196 0CFF 0CFC 0C7F 03884                         DT      B'11111111',B'11111100',B'01111111'     ;BTC=13
00119C 0CFF 0CF8 0C7F 03885                         DT      B'11111111',B'11111000',B'01111111'     ;BTC=14
0011A2 0CE0 0C00 0C7F 03886                         DT      B'11100000',B'00000000',B'01111111'     ;BTC=15
0011A8 0CC0 0C00 0C7F 03887                         DT      B'11000000',B'00000000',B'01111111'     ;BTC=16
0011AE 0C80 0C00 0C7F 03888                         DT      B'10000000',B'00000000',B'01111111'     ;BTC=17
0011B4 0C87 0CF8 0C7F 03889                         DT      B'10000111',B'11111000',B'01111111'     ;BTC=18
0011BA 0C8F 0CFC 0C7F 03890                         DT      B'10001111',B'11111100',B'01111111'     ;BTC=19
0011C0 0C8F 0CFC 0C7F 03891                         DT      B'10001111',B'11111100',B'01111111'     ;BTC=1A
0011C6 0C87 0CF8 0C7F 03892                         DT      B'10000111',B'11111000',B'01111111'     ;BTC=1B
0011CC 0C80 0C00 0C7F 03893                         DT      B'10000000',B'00000000',B'01111111'     ;BTC=1C
0011D2 0CC0 0C00 0C7F 03894                         DT      B'11000000',B'00000000',B'01111111'     ;BTC=1D
0011D8 0CE0 0C04 0C7F 03895                         DT      B'11100000',B'00000100',B'01111111'     ;BTC=1E
0011DE 0CFF 0CFF 0CFF 03896                         DT      B'11111111',B'11111111',B'11111111'     ;BTC=1F
                      03897 
                      03898 
                      03899 
Warning[205]: Found directive in column 1. (ORG)
001200                03900 ORG 0X1200
001200                03901 FONT02H_CAP_B
                      03902 
001200 0E00           03903         MOVLW   0
001202 6EFB           03904         MOVWF   PCLATU,0
001204 0E12           03905         MOVLW   12
001206 6EFA           03906         MOVWF   PCLATH,0
                      03907 
                      03908         
                      03909 
                      03910         
001208 C146 FFE8      03911                         MOVFF   BTCOUNT,WREG
00120C 90D8           03912                         BCF             STATUS,C
00120E 36E8           03913                         RLCF    WREG
                      03914 
                      03915                 
MPASM  5.51               20191125_RTCGPU.ASM   4-30-2024  22:19:12         PAGE 78


LOC  OBJECT CODE     LINE SOURCE TEXT
  VALUE

001210 26F9           03916                         ADDWF   PCL,1,0
001212 0CFF 0CFF 0CFF 03917                         DT      B'11111111',B'11111111',B'11111111'     ;BTC=00
001218 0C80 0C00 0CFF 03918                         DT      B'10000000',B'00000000',B'11111111'     ;BTC=01
00121E 0C80 0C00 0C7F 03919                         DT      B'10000000',B'00000000',B'01111111'     ;BTC=02
001224 0C80 0C00 0C3F 03920                         DT      B'10000000',B'00000000',B'00111111'     ;BTC=03
00122A 0C87 0CFC 0C1F 03921                         DT      B'10000111',B'11111100',B'00011111'     ;BTC=04
001230 0C87 0CFE 0C0F 03922                         DT      B'10000111',B'11111110',B'00001111'     ;BTC=05
001236 0C87 0CFF 0C0F 03923                         DT      B'10000111',B'11111111',B'00001111'     ;BTC=06
00123C 0C87 0CFF 0C0F 03924                         DT      B'10000111',B'11111111',B'00001111'     ;BTC=07
001242 0C87 0CFF 0C0F 03925                         DT      B'10000111',B'11111111',B'00001111'     ;BTC=08
001248 0C87 0CFF 0C0F 03926                         DT      B'10000111',B'11111111',B'00001111'     ;BTC=09
00124E 0C87 0CFF 0C0F 03927                         DT      B'10000111',B'11111111',B'00001111'     ;BTC=0A
001254 0C87 0CFF 0C0F 03928                         DT      B'10000111',B'11111111',B'00001111'     ;BTC=0B
00125A 0C87 0CFE 0C0F 03929                         DT      B'10000111',B'11111110',B'00001111'     ;BTC=0C
001260 0C87 0CFC 0C1F 03930                         DT      B'10000111',B'11111100',B'00011111'     ;BTC=0D
001266 0C80 0C00 0C3F 03931                         DT      B'10000000',B'00000000',B'00111111'     ;BTC=0E
00126C 0C80 0C00 0C7F 03932                         DT      B'10000000',B'00000000',B'01111111'     ;BTC=0F
                      03933 
001272                03934 FONT02H_LOW_B
                      03935 
001272 0E00           03936         MOVLW   0
001274 6EFB           03937         MOVWF   PCLATU,0
001276 0E12           03938         MOVLW   12
001278 6EFA           03939         MOVWF   PCLATH,0
                      03940 
                      03941         
                      03942 
                      03943         
00127A C146 FFE8      03944                         MOVFF   BTCOUNT,WREG
00127E 90D8           03945                         BCF             STATUS,C
001280 36E8           03946                         RLCF    WREG
                      03947 
                      03948                 
001282 26F9           03949                         ADDWF   PCL,1,0
001284 0CFF 0CFF 0CFF 03950                         DT      B'11111111',B'11111111',B'11111111'     ;BTC=00
00128A 0C8F 0CFF 0CFF 03951                         DT      B'10001111',B'11111111',B'11111111'     ;BTC=01
001290 0C8F 0CFF 0CFF 03952                         DT      B'10001111',B'11111111',B'11111111'     ;BTC=02
001296 0C8F 0CFF 0CFF 03953                         DT      B'10001111',B'11111111',B'11111111'     ;BTC=03
00129C 0C8F 0CFF 0CFF 03954                         DT      B'10001111',B'11111111',B'11111111'     ;BTC=04
0012A2 0C8F 0CFF 0CFF 03955                         DT      B'10001111',B'11111111',B'11111111'     ;BTC=05
0012A8 0C8F 0CFF 0CFF 03956                         DT      B'10001111',B'11111111',B'11111111'     ;BTC=06
0012AE 0C8F 0CFF 0CFF 03957                         DT      B'10001111',B'11111111',B'11111111'     ;BTC=07
0012B4 0C8F 0CFF 0CFF 03958                         DT      B'10001111',B'11111111',B'11111111'     ;BTC=08
0012BA 0C8F 0CFF 0CFF 03959                         DT      B'10001111',B'11111111',B'11111111'     ;BTC=09
0012C0 0C8F 0CFF 0CFF 03960                         DT      B'10001111',B'11111111',B'11111111'     ;BTC=0A
0012C6 0C8F 0CFF 0CFF 03961                         DT      B'10001111',B'11111111',B'11111111'     ;BTC=0B
0012CC 0C8F 0CFF 0CFF 03962                         DT      B'10001111',B'11111111',B'11111111'     ;BTC=0C
0012D2 0C8F 0CFF 0CFF 03963                         DT      B'10001111',B'11111111',B'11111111'     ;BTC=0D
0012D8 0C8F 0CFF 0CFF 03964                         DT      B'10001111',B'11111111',B'11111111'     ;BTC=0E
0012DE 0C8F 0CFF 0CFF 03965                         DT      B'10001111',B'11111111',B'11111111'     ;BTC=0F
                      03966 
Warning[205]: Found directive in column 1. (ORG)
001300                03967 ORG 0X1300
MPASM  5.51               20191125_RTCGPU.ASM   4-30-2024  22:19:12         PAGE 79


LOC  OBJECT CODE     LINE SOURCE TEXT
  VALUE

001300                03968 FONT02L_CAP_B
                      03969 
001300 0E00           03970         MOVLW   0
001302 6EFB           03971         MOVWF   PCLATU,0
001304 0E13           03972         MOVLW   13
001306 6EFA           03973         MOVWF   PCLATH,0
                      03974 
                      03975 
                      03976 
                      03977 
001308 C146 FFE8      03978                         MOVFF   BTCOUNT,WREG
00130C 90D8           03979                         BCF             STATUS,C
00130E 36E8           03980                         RLCF    WREG
                      03981 
                      03982                 
001310 26F9           03983                         ADDWF   PCL,1,0
001312 0C80 0C00 0C7F 03984                         DT      B'10000000',B'00000000',B'01111111'     ;BTC=10
001318 0C87 0CFC 0C3F 03985                         DT      B'10000111',B'11111100',B'00111111'     ;BTC=11
00131E 0C87 0CFE 0C1F 03986                         DT      B'10000111',B'11111110',B'00011111'     ;BTC=12
001324 0C87 0CFF 0C0F 03987                         DT      B'10000111',B'11111111',B'00001111'     ;BTC=13
00132A 0C87 0CFF 0C0F 03988                         DT      B'10000111',B'11111111',B'00001111'     ;BTC=14
001330 0C87 0CFF 0C0F 03989                         DT      B'10000111',B'11111111',B'00001111'     ;BTC=15
001336 0C87 0CFF 0C0F 03990                         DT      B'10000111',B'11111111',B'00001111'     ;BTC=16
00133C 0C87 0CFF 0C0F 03991                         DT      B'10000111',B'11111111',B'00001111'     ;BTC=17
001342 0C87 0CFF 0C0F 03992                         DT      B'10000111',B'11111111',B'00001111'     ;BTC=18
001348 0C87 0CFF 0C0F 03993                         DT      B'10000111',B'11111111',B'00001111'     ;BTC=19
00134E 0C87 0CFE 0C0F 03994                         DT      B'10000111',B'11111110',B'00001111'     ;BTC=1A
001354 0C87 0CFC 0C1F 03995                         DT      B'10000111',B'11111100',B'00011111'     ;BTC=1B
00135A 0C80 0C00 0C3F 03996                         DT      B'10000000',B'00000000',B'00111111'     ;BTC=1C
001360 0C80 0C00 0C7F 03997                         DT      B'10000000',B'00000000',B'01111111'     ;BTC=1D
001366 0C80 0C00 0CFF 03998                         DT      B'10000000',B'00000000',B'11111111'     ;BTC=1E
00136C 0CFF 0CFF 0CFF 03999                         DT      B'11111111',B'11111111',B'11111111'     ;BTC=1F
                      04000 
001372                04001 FONT02L_LOW_B
                      04002 
001372 0E00           04003         MOVLW   0
001374 6EFB           04004         MOVWF   PCLATU,0
001376 0E13           04005         MOVLW   13
001378 6EFA           04006         MOVWF   PCLATH,0
                      04007 
                      04008 
                      04009 
                      04010 
00137A C146 FFE8      04011                         MOVFF   BTCOUNT,WREG
00137E 90D8           04012                         BCF             STATUS,C
001380 36E8           04013                         RLCF    WREG
                      04014 
                      04015                 
001382 26F9           04016                         ADDWF   PCL,1,0
001384 0C80 0C01 0CFF 04017                         DT      B'10000000',B'00000001',B'11111111'     ;BTC=10
00138A 0C80 0C00 0CFF 04018                         DT      B'10000000',B'00000000',B'11111111'     ;BTC=11
001390 0C80 0C00 0C7F 04019                         DT      B'10000000',B'00000000',B'01111111'     ;BTC=12
001396 0C8F 0CF8 0C7F 04020                         DT      B'10001111',B'11111000',B'01111111'     ;BTC=13
MPASM  5.51               20191125_RTCGPU.ASM   4-30-2024  22:19:12         PAGE 80


LOC  OBJECT CODE     LINE SOURCE TEXT
  VALUE

00139C 0C8F 0CFC 0C7F 04021                         DT      B'10001111',B'11111100',B'01111111'     ;BTC=14
0013A2 0C8F 0CFC 0C7F 04022                         DT      B'10001111',B'11111100',B'01111111'     ;BTC=15
0013A8 0C8F 0CFC 0C7F 04023                         DT      B'10001111',B'11111100',B'01111111'     ;BTC=16
0013AE 0C8F 0CFC 0C7F 04024                         DT      B'10001111',B'11111100',B'01111111'     ;BTC=17
0013B4 0C8F 0CFC 0C7F 04025                         DT      B'10001111',B'11111100',B'01111111'     ;BTC=18
0013BA 0C8F 0CFC 0C7F 04026                         DT      B'10001111',B'11111100',B'01111111'     ;BTC=19
0013C0 0C8F 0CFC 0C7F 04027                         DT      B'10001111',B'11111100',B'01111111'     ;BTC=1A
0013C6 0C8F 0CF8 0C7F 04028                         DT      B'10001111',B'11111000',B'01111111'     ;BTC=1B
0013CC 0C80 0C00 0C7F 04029                         DT      B'10000000',B'00000000',B'01111111'     ;BTC=1C
0013D2 0C80 0C00 0CFF 04030                         DT      B'10000000',B'00000000',B'11111111'     ;BTC=1D
0013D8 0C80 0C01 0CFF 04031                         DT      B'10000000',B'00000001',B'11111111'     ;BTC=1E
0013DE 0CFF 0CFF 0CFF 04032                         DT      B'11111111',B'11111111',B'11111111'     ;BTC=1F
                      04033 
                      04034 
                      04035 
                      04036 
Warning[205]: Found directive in column 1. (ORG)
001400                04037 ORG 0X1400
001400                04038 FONT02H_CAP_C
                      04039 
001400 0E00           04040         MOVLW   0
001402 6EFB           04041         MOVWF   PCLATU,0
001404 0E14           04042         MOVLW   14
001406 6EFA           04043         MOVWF   PCLATH,0
                      04044 
                      04045         
                      04046 
                      04047         
001408 C146 FFE8      04048                         MOVFF   BTCOUNT,WREG
00140C 90D8           04049                         BCF             STATUS,C
00140E 36E8           04050                         RLCF    WREG
                      04051 
                      04052                 
001410 26F9           04053                         ADDWF   PCL,1,0
001412 0CFF 0CFF 0CFF 04054                         DT      B'11111111',B'11111111',B'11111111'     ;BTC=00
001418 0CF0 0C00 0C7F 04055                         DT      B'11110000',B'00000000',B'01111111'     ;BTC=01
00141E 0CE0 0C00 0C3F 04056                         DT      B'11100000',B'00000000',B'00111111'     ;BTC=02
001424 0CC0 0C00 0C1F 04057                         DT      B'11000000',B'00000000',B'00011111'     ;BTC=03
00142A 0C81 0CFE 0C0F 04058                         DT      B'10000001',B'11111110',B'00001111'     ;BTC=04
001430 0C83 0CFF 0C0F 04059                         DT      B'10000011',B'11111111',B'00001111'     ;BTC=05
001436 0C87 0CFF 0C0F 04060                         DT      B'10000111',B'11111111',B'00001111'     ;BTC=06
00143C 0C87 0CFF 0CFF 04061                         DT      B'10000111',B'11111111',B'11111111'     ;BTC=07
001442 0C87 0CFF 0CFF 04062                         DT      B'10000111',B'11111111',B'11111111'     ;BTC=08
001448 0C87 0CFF 0CFF 04063                         DT      B'10000111',B'11111111',B'11111111'     ;BTC=09
00144E 0C87 0CFF 0CFF 04064                         DT      B'10000111',B'11111111',B'11111111'     ;BTC=0A
001454 0C87 0CFF 0CFF 04065                         DT      B'10000111',B'11111111',B'11111111'     ;BTC=0B
00145A 0C87 0CFF 0CFF 04066                         DT      B'10000111',B'11111111',B'11111111'     ;BTC=0C
001460 0C87 0CFF 0CFF 04067                         DT      B'10000111',B'11111111',B'11111111'     ;BTC=0D
001466 0C87 0CFF 0CFF 04068                         DT      B'10000111',B'11111111',B'11111111'     ;BTC=0E
00146C 0C87 0CFF 0CFF 04069                         DT      B'10000111',B'11111111',B'11111111'     ;BTC=0F
                      04070 
                      04071 
001472                04072 FONT02H_LOW_C
MPASM  5.51               20191125_RTCGPU.ASM   4-30-2024  22:19:12         PAGE 81


LOC  OBJECT CODE     LINE SOURCE TEXT
  VALUE

                      04073 
001472 0E00           04074         MOVLW   0
001474 6EFB           04075         MOVWF   PCLATU,0
001476 0E14           04076         MOVLW   14
001478 6EFA           04077         MOVWF   PCLATH,0
                      04078 
                      04079         
                      04080 
                      04081         
00147A C146 FFE8      04082                         MOVFF   BTCOUNT,WREG
00147E 90D8           04083                         BCF             STATUS,C
001480 36E8           04084                         RLCF    WREG
                      04085 
                      04086                 
001482 26F9           04087                         ADDWF   PCL,1,0
001484 0CFF 0CFF 0CFF 04088                         DT      B'11111111',B'11111111',B'11111111'     ;BTC=00
00148A 0CFF 0CFF 0CFF 04089                         DT      B'11111111',B'11111111',B'11111111'     ;BTC=01
001490 0CFF 0CFF 0CFF 04090                         DT      B'11111111',B'11111111',B'11111111'     ;BTC=02
001496 0CFF 0CFF 0CFF 04091                         DT      B'11111111',B'11111111',B'11111111'     ;BTC=03
00149C 0CFF 0CFF 0CFF 04092                         DT      B'11111111',B'11111111',B'11111111'     ;BTC=04
0014A2 0CFF 0CFF 0CFF 04093                         DT      B'11111111',B'11111111',B'11111111'     ;BTC=05
0014A8 0CFF 0CFF 0CFF 04094                         DT      B'11111111',B'11111111',B'11111111'     ;BTC=06
0014AE 0CFF 0CFF 0CFF 04095                         DT      B'11111111',B'11111111',B'11111111'     ;BTC=07
0014B4 0CFF 0CFF 0CFF 04096                         DT      B'11111111',B'11111111',B'11111111'     ;BTC=08
0014BA 0CFF 0CFF 0CFF 04097                         DT      B'11111111',B'11111111',B'11111111'     ;BTC=09
0014C0 0CFF 0CFF 0CFF 04098                         DT      B'11111111',B'11111111',B'11111111'     ;BTC=0A
0014C6 0CFF 0CFF 0CFF 04099                         DT      B'11111111',B'11111111',B'11111111'     ;BTC=0B
0014CC 0CFF 0CFF 0CFF 04100                         DT      B'11111111',B'11111111',B'11111111'     ;BTC=0C
0014D2 0CFF 0CFF 0CFF 04101                         DT      B'11111111',B'11111111',B'11111111'     ;BTC=0D
0014D8 0CE0 0C01 0CFF 04102                         DT      B'11100000',B'00000001',B'11111111'     ;BTC=0E
0014DE 0CC0 0C00 0CFF 04103                         DT      B'11000000',B'00000000',B'11111111'     ;BTC=0F
                      04104 
                      04105 
Warning[205]: Found directive in column 1. (ORG)
001500                04106 ORG 0X1500
001500                04107 FONT02L_CAP_C
                      04108 
001500 0E00           04109         MOVLW   0
001502 6EFB           04110         MOVWF   PCLATU,0
001504 0E15           04111         MOVLW   15
001506 6EFA           04112         MOVWF   PCLATH,0
                      04113 
                      04114 
                      04115 
                      04116 
001508 C146 FFE8      04117                         MOVFF   BTCOUNT,WREG
00150C 90D8           04118                         BCF             STATUS,C
00150E 36E8           04119                         RLCF    WREG
                      04120 
                      04121                 
001510 26F9           04122                         ADDWF   PCL,1,0
001512 0C87 0CFF 0CFF 04123                         DT      B'10000111',B'11111111',B'11111111'     ;BTC=10
001518 0C87 0CFF 0CFF 04124                         DT      B'10000111',B'11111111',B'11111111'     ;BTC=11
MPASM  5.51               20191125_RTCGPU.ASM   4-30-2024  22:19:12         PAGE 82


LOC  OBJECT CODE     LINE SOURCE TEXT
  VALUE

00151E 0C87 0CFF 0CFF 04125                         DT      B'10000111',B'11111111',B'11111111'     ;BTC=12
001524 0C87 0CFF 0CFF 04126                         DT      B'10000111',B'11111111',B'11111111'     ;BTC=13
00152A 0C87 0CFF 0CFF 04127                         DT      B'10000111',B'11111111',B'11111111'     ;BTC=14
001530 0C87 0CFF 0CFF 04128                         DT      B'10000111',B'11111111',B'11111111'     ;BTC=15
001536 0C87 0CFF 0CFF 04129                         DT      B'10000111',B'11111111',B'11111111'     ;BTC=16
00153C 0C87 0CFF 0CFF 04130                         DT      B'10000111',B'11111111',B'11111111'     ;BTC=17
001542 0C87 0CFF 0CFF 04131                         DT      B'10000111',B'11111111',B'11111111'     ;BTC=18
001548 0C87 0CFF 0C0F 04132                         DT      B'10000111',B'11111111',B'00001111'     ;BTC=19
00154E 0C83 0CFF 0C0F 04133                         DT      B'10000011',B'11111111',B'00001111'     ;BTC=1A
001554 0C81 0CFE 0C0F 04134                         DT      B'10000001',B'11111110',B'00001111'     ;BTC=1B
00155A 0CC0 0C00 0C1F 04135                         DT      B'11000000',B'00000000',B'00011111'     ;BTC=1C
001560 0CE0 0C00 0C3F 04136                         DT      B'11100000',B'00000000',B'00111111'     ;BTC=1D
001566 0CF0 0C00 0C7F 04137                         DT      B'11110000',B'00000000',B'01111111'     ;BTC=1E
00156C 0CFF 0CFF 0CFF 04138                         DT      B'11111111',B'11111111',B'11111111'     ;BTC=1F
                      04139 
001572                04140 FONT02L_LOW_C
                      04141 
001572 0E00           04142         MOVLW   0
001574 6EFB           04143         MOVWF   PCLATU,0
001576 0E15           04144         MOVLW   15
001578 6EFA           04145         MOVWF   PCLATH,0
                      04146 
                      04147 
                      04148 
                      04149 
00157A C146 FFE8      04150                         MOVFF   BTCOUNT,WREG
00157E 90D8           04151                         BCF             STATUS,C
001580 36E8           04152                         RLCF    WREG
                      04153 
                      04154                 
001582 26F9           04155                         ADDWF   PCL,1,0
001584 0C80 0C00 0C7F 04156                         DT      B'10000000',B'00000000',B'01111111'     ;BTC=10
00158A 0C87 0CFC 0C7F 04157                         DT      B'10000111',B'11111100',B'01111111'     ;BTC=11
001590 0C8F 0CFF 0CFF 04158                         DT      B'10001111',B'11111111',B'11111111'     ;BTC=12
001596 0C8F 0CFF 0CFF 04159                         DT      B'10001111',B'11111111',B'11111111'     ;BTC=13
00159C 0C8F 0CFF 0CFF 04160                         DT      B'10001111',B'11111111',B'11111111'     ;BTC=14
0015A2 0C8F 0CFF 0CFF 04161                         DT      B'10001111',B'11111111',B'11111111'     ;BTC=15
0015A8 0C8F 0CFF 0CFF 04162                         DT      B'10001111',B'11111111',B'11111111'     ;BTC=16
0015AE 0C8F 0CFF 0CFF 04163                         DT      B'10001111',B'11111111',B'11111111'     ;BTC=17
0015B4 0C8F 0CFF 0CFF 04164                         DT      B'10001111',B'11111111',B'11111111'     ;BTC=18
0015BA 0C8F 0CFF 0CFF 04165                         DT      B'10001111',B'11111111',B'11111111'     ;BTC=19
0015C0 0C8F 0CFF 0CFF 04166                         DT      B'10001111',B'11111111',B'11111111'     ;BTC=1A
0015C6 0C87 0CFC 0C7F 04167                         DT      B'10000111',B'11111100',B'01111111'     ;BTC=1B
0015CC 0C80 0C00 0C7F 04168                         DT      B'10000000',B'00000000',B'01111111'     ;BTC=1C
0015D2 0CC0 0C00 0CFF 04169                         DT      B'11000000',B'00000000',B'11111111'     ;BTC=1D
0015D8 0CE0 0C01 0CFF 04170                         DT      B'11100000',B'00000001',B'11111111'     ;BTC=1E
0015DE 0CFF 0CFF 0CFF 04171                         DT      B'11111111',B'11111111',B'11111111'     ;BTC=1F
                      04172 
                      04173 
                      04174 
                      04175 
Warning[205]: Found directive in column 1. (ORG)
001600                04176 ORG 0X1600
MPASM  5.51               20191125_RTCGPU.ASM   4-30-2024  22:19:12         PAGE 83


LOC  OBJECT CODE     LINE SOURCE TEXT
  VALUE

001600                04177 FONT02H_CAP_D
                      04178 
001600 0E00           04179         MOVLW   0
001602 6EFB           04180         MOVWF   PCLATU,0
001604 0E16           04181         MOVLW   16
001606 6EFA           04182         MOVWF   PCLATH,0
                      04183 
                      04184         
                      04185 
                      04186         
001608 C146 FFE8      04187                         MOVFF   BTCOUNT,WREG
00160C 90D8           04188                         BCF             STATUS,C
00160E 36E8           04189                         RLCF    WREG
                      04190 
                      04191                 
001610 26F9           04192                         ADDWF   PCL,1,0
001612 0CFF 0CFF 0CFF 04193                         DT      B'11111111',B'11111111',B'11111111'     ;BTC=00
001618 0C80 0C00 0CFF 04194                         DT      B'10000000',B'00000000',B'11111111'     ;BTC=01
00161E 0C80 0C00 0C7F 04195                         DT      B'10000000',B'00000000',B'01111111'     ;BTC=02
001624 0C80 0C00 0C3F 04196                         DT      B'10000000',B'00000000',B'00111111'     ;BTC=03
00162A 0C87 0CF8 0C1F 04197                         DT      B'10000111',B'11111000',B'00011111'     ;BTC=04
001630 0C87 0CFC 0C0F 04198                         DT      B'10000111',B'11111100',B'00001111'     ;BTC=05
001636 0C87 0CFE 0C0F 04199                         DT      B'10000111',B'11111110',B'00001111'     ;BTC=06
00163C 0C87 0CFF 0C0F 04200                         DT      B'10000111',B'11111111',B'00001111'     ;BTC=07
001642 0C87 0CFF 0C0F 04201                         DT      B'10000111',B'11111111',B'00001111'     ;BTC=08
001648 0C87 0CFF 0C0F 04202                         DT      B'10000111',B'11111111',B'00001111'     ;BTC=09
00164E 0C87 0CFF 0C0F 04203                         DT      B'10000111',B'11111111',B'00001111'     ;BTC=0A
001654 0C87 0CFF 0C0F 04204                         DT      B'10000111',B'11111111',B'00001111'     ;BTC=0B
00165A 0C87 0CFF 0C0F 04205                         DT      B'10000111',B'11111111',B'00001111'     ;BTC=0C
001660 0C87 0CFF 0C0F 04206                         DT      B'10000111',B'11111111',B'00001111'     ;BTC=0D
001666 0C87 0CFF 0C0F 04207                         DT      B'10000111',B'11111111',B'00001111'     ;BTC=0E
00166C 0C87 0CFF 0C0F 04208                         DT      B'10000111',B'11111111',B'00001111'     ;BTC=0F
                      04209 
                      04210 
001672                04211 FONT02H_LOW_D
                      04212 
001672 0E00           04213         MOVLW   0
001674 6EFB           04214         MOVWF   PCLATU,0
001676 0E16           04215         MOVLW   16
001678 6EFA           04216         MOVWF   PCLATH,0
                      04217 
                      04218         
                      04219 
                      04220         
00167A C146 FFE8      04221                         MOVFF   BTCOUNT,WREG
00167E 90D8           04222                         BCF             STATUS,C
001680 36E8           04223                         RLCF    WREG
                      04224 
                      04225                 
001682 26F9           04226                         ADDWF   PCL,1,0
001684 0CFF 0CFF 0CFF 04227                         DT      B'11111111',B'11111111',B'11111111'     ;BTC=00
00168A 0CFF 0CFC 0C7F 04228                         DT      B'11111111',B'11111100',B'01111111'     ;BTC=01
001690 0CFF 0CFC 0C7F 04229                         DT      B'11111111',B'11111100',B'01111111'     ;BTC=02
MPASM  5.51               20191125_RTCGPU.ASM   4-30-2024  22:19:12         PAGE 84


LOC  OBJECT CODE     LINE SOURCE TEXT
  VALUE

001696 0CFF 0CFC 0C7F 04230                         DT      B'11111111',B'11111100',B'01111111'     ;BTC=03
00169C 0CFF 0CFC 0C7F 04231                         DT      B'11111111',B'11111100',B'01111111'     ;BTC=04
0016A2 0CFF 0CFC 0C7F 04232                         DT      B'11111111',B'11111100',B'01111111'     ;BTC=05
0016A8 0CFF 0CFC 0C7F 04233                         DT      B'11111111',B'11111100',B'01111111'     ;BTC=06
0016AE 0CFF 0CFC 0C7F 04234                         DT      B'11111111',B'11111100',B'01111111'     ;BTC=07
0016B4 0CFF 0CFC 0C7F 04235                         DT      B'11111111',B'11111100',B'01111111'     ;BTC=08
0016BA 0CFF 0CFC 0C7F 04236                         DT      B'11111111',B'11111100',B'01111111'     ;BTC=09
0016C0 0CFF 0CFC 0C7F 04237                         DT      B'11111111',B'11111100',B'01111111'     ;BTC=0A
0016C6 0CFF 0CFC 0C7F 04238                         DT      B'11111111',B'11111100',B'01111111'     ;BTC=0B
0016CC 0CFF 0CFC 0C7F 04239                         DT      B'11111111',B'11111100',B'01111111'     ;BTC=0C
0016D2 0CFF 0CFC 0C7F 04240                         DT      B'11111111',B'11111100',B'01111111'     ;BTC=0D
0016D8 0CFF 0CFC 0C7F 04241                         DT      B'11111111',B'11111100',B'01111111'     ;BTC=0E
0016DE 0CFF 0CFC 0C7F 04242                         DT      B'11111111',B'11111100',B'01111111'     ;BTC=0F
                      04243 
                      04244 
Warning[205]: Found directive in column 1. (ORG)
001700                04245 ORG 0X1700
001700                04246 FONT02L_CAP_D
                      04247 
001700 0E00           04248         MOVLW   0
001702 6EFB           04249         MOVWF   PCLATU,0
001704 0E17           04250         MOVLW   17
001706 6EFA           04251         MOVWF   PCLATH,0
                      04252 
                      04253 
                      04254 
                      04255 
001708 C146 FFE8      04256                         MOVFF   BTCOUNT,WREG
00170C 90D8           04257                         BCF             STATUS,C
00170E 36E8           04258                         RLCF    WREG
                      04259 
                      04260                 
001710 26F9           04261                         ADDWF   PCL,1,0
001712 0C87 0CFF 0C0F 04262                         DT      B'10000111',B'11111111',B'00001111'     ;BTC=10
001718 0C87 0CFF 0C0F 04263                         DT      B'10000111',B'11111111',B'00001111'     ;BTC=11
00171E 0C87 0CFF 0C0F 04264                         DT      B'10000111',B'11111111',B'00001111'     ;BTC=12
001724 0C87 0CFF 0C0F 04265                         DT      B'10000111',B'11111111',B'00001111'     ;BTC=13
00172A 0C87 0CFF 0C0F 04266                         DT      B'10000111',B'11111111',B'00001111'     ;BTC=14
001730 0C87 0CFF 0C0F 04267                         DT      B'10000111',B'11111111',B'00001111'     ;BTC=15
001736 0C87 0CFF 0C0F 04268                         DT      B'10000111',B'11111111',B'00001111'     ;BTC=16
00173C 0C87 0CFF 0C0F 04269                         DT      B'10000111',B'11111111',B'00001111'     ;BTC=17
001742 0C87 0CFF 0C0F 04270                         DT      B'10000111',B'11111111',B'00001111'     ;BTC=18
001748 0C87 0CFE 0C0F 04271                         DT      B'10000111',B'11111110',B'00001111'     ;BTC=19
00174E 0C87 0CFC 0C0F 04272                         DT      B'10000111',B'11111100',B'00001111'     ;BTC=1A
001754 0C87 0CF8 0C1F 04273                         DT      B'10000111',B'11111000',B'00011111'     ;BTC=1B
00175A 0C80 0C00 0C3F 04274                         DT      B'10000000',B'00000000',B'00111111'     ;BTC=1C
001760 0C80 0C00 0C7F 04275                         DT      B'10000000',B'00000000',B'01111111'     ;BTC=1D
001766 0C80 0C00 0CFF 04276                         DT      B'10000000',B'00000000',B'11111111'     ;BTC=1E
00176C 0CFF 0CFF 0CFF 04277                         DT      B'11111111',B'11111111',B'11111111'     ;BTC=1F
                      04278 
                      04279 
001772                04280 FONT02L_LOW_D
                      04281 
MPASM  5.51               20191125_RTCGPU.ASM   4-30-2024  22:19:12         PAGE 85


LOC  OBJECT CODE     LINE SOURCE TEXT
  VALUE

001772 0E00           04282         MOVLW   0
001774 6EFB           04283         MOVWF   PCLATU,0
001776 0E17           04284         MOVLW   17
001778 6EFA           04285         MOVWF   PCLATH,0
                      04286 
                      04287 
                      04288 
                      04289 
00177A C146 FFE8      04290                         MOVFF   BTCOUNT,WREG
00177E 90D8           04291                         BCF             STATUS,C
001780 36E8           04292                         RLCF    WREG
                      04293 
                      04294                 
001782 26F9           04295                         ADDWF   PCL,1,0
001784 0CF0 0C00 0C7F 04296                         DT      B'11110000',B'00000000',B'01111111'     ;BTC=10
00178A 0CE0 0C00 0C7F 04297                         DT      B'11100000',B'00000000',B'01111111'     ;BTC=11
001790 0CC0 0C00 0C7F 04298                         DT      B'11000000',B'00000000',B'01111111'     ;BTC=12
001796 0C87 0CFC 0C7F 04299                         DT      B'10000111',B'11111100',B'01111111'     ;BTC=13
00179C 0C8F 0CFC 0C7F 04300                         DT      B'10001111',B'11111100',B'01111111'     ;BTC=14
0017A2 0C8F 0CFC 0C7F 04301                         DT      B'10001111',B'11111100',B'01111111'     ;BTC=15
0017A8 0C8F 0CFC 0C7F 04302                         DT      B'10001111',B'11111100',B'01111111'     ;BTC=16
0017AE 0C8F 0CFC 0C7F 04303                         DT      B'10001111',B'11111100',B'01111111'     ;BTC=17
0017B4 0C8F 0CFC 0C7F 04304                         DT      B'10001111',B'11111100',B'01111111'     ;BTC=18
0017BA 0C8F 0CFC 0C7F 04305                         DT      B'10001111',B'11111100',B'01111111'     ;BTC=19
0017C0 0C8F 0CFC 0C7F 04306                         DT      B'10001111',B'11111100',B'01111111'     ;BTC=1A
0017C6 0C87 0CFC 0C7F 04307                         DT      B'10000111',B'11111100',B'01111111'     ;BTC=1B
0017CC 0CC0 0C00 0C7F 04308                         DT      B'11000000',B'00000000',B'01111111'     ;BTC=1C
0017D2 0CE0 0C00 0C7F 04309                         DT      B'11100000',B'00000000',B'01111111'     ;BTC=1D
0017D8 0CF0 0C00 0C7F 04310                         DT      B'11110000',B'00000000',B'01111111'     ;BTC=1E
0017DE 0CFF 0CFF 0CFF 04311                         DT      B'11111111',B'11111111',B'11111111'     ;BTC=1F
                      04312 
                      04313 
                      04314 
Warning[205]: Found directive in column 1. (ORG)
001800                04315 ORG 0X1800
001800                04316 FONT02H_CAP_E
                      04317 
001800 0E00           04318         MOVLW   0
001802 6EFB           04319         MOVWF   PCLATU,0
001804 0E18           04320         MOVLW   18
001806 6EFA           04321         MOVWF   PCLATH,0
                      04322 
                      04323         
                      04324 
                      04325         
001808 C146 FFE8      04326                         MOVFF   BTCOUNT,WREG
00180C 90D8           04327                         BCF             STATUS,C
00180E 36E8           04328                         RLCF    WREG
                      04329 
                      04330                 
001810 26F9           04331                         ADDWF   PCL,1,0
001812 0CFF 0CFF 0CFF 04332                         DT      B'11111111',B'11111111',B'11111111'     ;BTC=00
001818 0C80 0C00 0C0F 04333                         DT      B'10000000',B'00000000',B'00001111'     ;BTC=01
MPASM  5.51               20191125_RTCGPU.ASM   4-30-2024  22:19:12         PAGE 86


LOC  OBJECT CODE     LINE SOURCE TEXT
  VALUE

00181E 0C80 0C00 0C0F 04334                         DT      B'10000000',B'00000000',B'00001111'     ;BTC=02
001824 0C80 0C00 0C0F 04335                         DT      B'10000000',B'00000000',B'00001111'     ;BTC=03
00182A 0C80 0C00 0C0F 04336                         DT      B'10000000',B'00000000',B'00001111'     ;BTC=04
001830 0C87 0CFF 0C0F 04337                         DT      B'10000111',B'11111111',B'00001111'     ;BTC=05
001836 0C87 0CFF 0CFF 04338                         DT      B'10000111',B'11111111',B'11111111'     ;BTC=06
00183C 0C87 0CFF 0CFF 04339                         DT      B'10000111',B'11111111',B'11111111'     ;BTC=07
001842 0C87 0CFF 0CFF 04340                         DT      B'10000111',B'11111111',B'11111111'     ;BTC=08
001848 0C87 0CFF 0CFF 04341                         DT      B'10000111',B'11111111',B'11111111'     ;BTC=09
00184E 0C87 0CFF 0CFF 04342                         DT      B'10000111',B'11111111',B'11111111'     ;BTC=0A
001854 0C87 0CFF 0CFF 04343                         DT      B'10000111',B'11111111',B'11111111'     ;BTC=0B
00185A 0C87 0CFF 0CFF 04344                         DT      B'10000111',B'11111111',B'11111111'     ;BTC=0C
001860 0C87 0CFF 0CFF 04345                         DT      B'10000111',B'11111111',B'11111111'     ;BTC=0D
001866 0C80 0C00 0C7F 04346                         DT      B'10000000',B'00000000',B'01111111'     ;BTC=0E
00186C 0C80 0C00 0C7F 04347                         DT      B'10000000',B'00000000',B'01111111'     ;BTC=0F
                      04348 
                      04349 
001872                04350 FONT02H_LOW_E
                      04351 
001872 0E00           04352         MOVLW   0
001874 6EFB           04353         MOVWF   PCLATU,0
001876 0E18           04354         MOVLW   18
001878 6EFA           04355         MOVWF   PCLATH,0
                      04356 
                      04357         
                      04358 
                      04359         
00187A C146 FFE8      04360                         MOVFF   BTCOUNT,WREG
00187E 90D8           04361                         BCF             STATUS,C
001880 36E8           04362                         RLCF    WREG
                      04363 
                      04364                 
001882 26F9           04365                         ADDWF   PCL,1,0
001884 0CFF 0CFF 0CFF 04366                         DT      B'11111111',B'11111111',B'11111111'     ;BTC=00
00188A 0CFF 0CFF 0CFF 04367                         DT      B'11111111',B'11111111',B'11111111'     ;BTC=01
001890 0CFF 0CFF 0CFF 04368                         DT      B'11111111',B'11111111',B'11111111'     ;BTC=02
001896 0CFF 0CFF 0CFF 04369                         DT      B'11111111',B'11111111',B'11111111'     ;BTC=03
00189C 0CFF 0CFF 0CFF 04370                         DT      B'11111111',B'11111111',B'11111111'     ;BTC=04
0018A2 0CFF 0CFF 0CFF 04371                         DT      B'11111111',B'11111111',B'11111111'     ;BTC=05
0018A8 0CFF 0CFF 0CFF 04372                         DT      B'11111111',B'11111111',B'11111111'     ;BTC=06
0018AE 0CFF 0CFF 0CFF 04373                         DT      B'11111111',B'11111111',B'11111111'     ;BTC=07
0018B4 0CFF 0CFF 0CFF 04374                         DT      B'11111111',B'11111111',B'11111111'     ;BTC=08
0018BA 0CFF 0CFF 0CFF 04375                         DT      B'11111111',B'11111111',B'11111111'     ;BTC=09
0018C0 0CFF 0CFF 0CFF 04376                         DT      B'11111111',B'11111111',B'11111111'     ;BTC=0A
0018C6 0CFF 0CFF 0CFF 04377                         DT      B'11111111',B'11111111',B'11111111'     ;BTC=0B
0018CC 0CFF 0CFF 0CFF 04378                         DT      B'11111111',B'11111111',B'11111111'     ;BTC=0C
0018D2 0CFF 0CFF 0CFF 04379                         DT      B'11111111',B'11111111',B'11111111'     ;BTC=0D
0018D8 0CE0 0C01 0CFF 04380                         DT      B'11100000',B'00000001',B'11111111'     ;BTC=0E
0018DE 0CC0 0C00 0CFF 04381                         DT      B'11000000',B'00000000',B'11111111'     ;BTC=0F
                      04382 
                      04383 
Warning[205]: Found directive in column 1. (ORG)
001900                04384 ORG 0X1900
001900                04385 FONT02L_CAP_E
MPASM  5.51               20191125_RTCGPU.ASM   4-30-2024  22:19:12         PAGE 87


LOC  OBJECT CODE     LINE SOURCE TEXT
  VALUE

                      04386 
001900 0E00           04387         MOVLW   0
001902 6EFB           04388         MOVWF   PCLATU,0
001904 0E19           04389         MOVLW   19
001906 6EFA           04390         MOVWF   PCLATH,0
                      04391 
                      04392 
                      04393 
                      04394 
001908 C146 FFE8      04395                         MOVFF   BTCOUNT,WREG
00190C 90D8           04396                         BCF             STATUS,C
00190E 36E8           04397                         RLCF    WREG
                      04398 
                      04399                 
001910 26F9           04400                         ADDWF   PCL,1,0
001912 0C80 0C00 0C7F 04401                         DT      B'10000000',B'00000000',B'01111111'     ;BTC=10
001918 0C80 0C00 0C7F 04402                         DT      B'10000000',B'00000000',B'01111111'     ;BTC=11
00191E 0C87 0CFF 0CFF 04403                         DT      B'10000111',B'11111111',B'11111111'     ;BTC=12
001924 0C87 0CFF 0CFF 04404                         DT      B'10000111',B'11111111',B'11111111'     ;BTC=13
00192A 0C87 0CFF 0CFF 04405                         DT      B'10000111',B'11111111',B'11111111'     ;BTC=14
001930 0C87 0CFF 0CFF 04406                         DT      B'10000111',B'11111111',B'11111111'     ;BTC=15
001936 0C87 0CFF 0CFF 04407                         DT      B'10000111',B'11111111',B'11111111'     ;BTC=16
00193C 0C87 0CFF 0CFF 04408                         DT      B'10000111',B'11111111',B'11111111'     ;BTC=17
001942 0C87 0CFF 0CFF 04409                         DT      B'10000111',B'11111111',B'11111111'     ;BTC=18
001948 0C87 0CFF 0CFF 04410                         DT      B'10000111',B'11111111',B'11111111'     ;BTC=19
00194E 0C87 0CFF 0C0F 04411                         DT      B'10000111',B'11111111',B'00001111'     ;BTC=1A
001954 0C80 0C00 0C0F 04412                         DT      B'10000000',B'00000000',B'00001111'     ;BTC=1B
00195A 0C80 0C00 0C0F 04413                         DT      B'10000000',B'00000000',B'00001111'     ;BTC=1C
001960 0C80 0C00 0C0F 04414                         DT      B'10000000',B'00000000',B'00001111'     ;BTC=1D
001966 0C80 0C00 0C0F 04415                         DT      B'10000000',B'00000000',B'00001111'     ;BTC=1E
00196C 0CFF 0CFF 0CFF 04416                         DT      B'11111111',B'11111111',B'11111111'     ;BTC=1F
                      04417 
                      04418 
                      04419 
001972                04420 FONT02L_LOW_E
                      04421 
001972 0E00           04422         MOVLW   0
001974 6EFB           04423         MOVWF   PCLATU,0
001976 0E19           04424         MOVLW   19
001978 6EFA           04425         MOVWF   PCLATH,0
                      04426 
                      04427 
                      04428 
                      04429 
00197A C146 FFE8      04430                         MOVFF   BTCOUNT,WREG
00197E 90D8           04431                         BCF             STATUS,C
001980 36E8           04432                         RLCF    WREG
                      04433 
                      04434                 
001982 26F9           04435                         ADDWF   PCL,1,0
001984 0C80 0C00 0C7F 04436                         DT      B'10000000',B'00000000',B'01111111'     ;BTC=10
00198A 0C87 0CF8 0C7F 04437                         DT      B'10000111',B'11111000',B'01111111'     ;BTC=11
001990 0C8F 0CFC 0C7F 04438                         DT      B'10001111',B'11111100',B'01111111'     ;BTC=12
MPASM  5.51               20191125_RTCGPU.ASM   4-30-2024  22:19:12         PAGE 88


LOC  OBJECT CODE     LINE SOURCE TEXT
  VALUE

001996 0C8F 0CFC 0C7F 04439                         DT      B'10001111',B'11111100',B'01111111'     ;BTC=13
00199C 0C87 0CF8 0C7F 04440                         DT      B'10000111',B'11111000',B'01111111'     ;BTC=14
0019A2 0C80 0C00 0C7F 04441                         DT      B'10000000',B'00000000',B'01111111'     ;BTC=15
0019A8 0C80 0C00 0CFF 04442                         DT      B'10000000',B'00000000',B'11111111'     ;BTC=16
0019AE 0C80 0C01 0CFF 04443                         DT      B'10000000',B'00000001',B'11111111'     ;BTC=17
0019B4 0C87 0CFF 0CFF 04444                         DT      B'10000111',B'11111111',B'11111111'     ;BTC=18
0019BA 0C8F 0CFF 0CFF 04445                         DT      B'10001111',B'11111111',B'11111111'     ;BTC=19
0019C0 0C8F 0CFF 0CFF 04446                         DT      B'10001111',B'11111111',B'11111111'     ;BTC=1A
0019C6 0C87 0CFF 0CFF 04447                         DT      B'10000111',B'11111111',B'11111111'     ;BTC=1B
0019CC 0C80 0C00 0C7F 04448                         DT      B'10000000',B'00000000',B'01111111'     ;BTC=1C
0019D2 0CC0 0C00 0C7F 04449                         DT      B'11000000',B'00000000',B'01111111'     ;BTC=1D
0019D8 0CE0 0C00 0C7F 04450                         DT      B'11100000',B'00000000',B'01111111'     ;BTC=1E
0019DE 0CFF 0CFF 0CFF 04451                         DT      B'11111111',B'11111111',B'11111111'     ;BTC=1F
                      04452 
                      04453 
Warning[205]: Found directive in column 1. (ORG)
001A00                04454 ORG 0X1A00
001A00                04455 FONT02H_CAP_F
                      04456 
001A00 0E00           04457         MOVLW   0
001A02 6EFB           04458         MOVWF   PCLATU,0
001A04 0E1A           04459         MOVLW   1A
001A06 6EFA           04460         MOVWF   PCLATH,0
                      04461 
                      04462         
                      04463 
                      04464         
001A08 C146 FFE8      04465                         MOVFF   BTCOUNT,WREG
001A0C 90D8           04466                         BCF             STATUS,C
001A0E 36E8           04467                         RLCF    WREG
                      04468 
                      04469                 
001A10 26F9           04470                         ADDWF   PCL,1,0
001A12 0CFF 0CFF 0CFF 04471                         DT      B'11111111',B'11111111',B'11111111'     ;BTC=00
001A18 0C80 0C00 0C0F 04472                         DT      B'10000000',B'00000000',B'00001111'     ;BTC=01
001A1E 0C80 0C00 0C0F 04473                         DT      B'10000000',B'00000000',B'00001111'     ;BTC=02
001A24 0C80 0C00 0C0F 04474                         DT      B'10000000',B'00000000',B'00001111'     ;BTC=03
001A2A 0C80 0C00 0C0F 04475                         DT      B'10000000',B'00000000',B'00001111'     ;BTC=04
001A30 0C87 0CFF 0CFF 04476                         DT      B'10000111',B'11111111',B'11111111'     ;BTC=05
001A36 0C87 0CFF 0CFF 04477                         DT      B'10000111',B'11111111',B'11111111'     ;BTC=06
001A3C 0C87 0CFF 0CFF 04478                         DT      B'10000111',B'11111111',B'11111111'     ;BTC=07
001A42 0C87 0CFF 0CFF 04479                         DT      B'10000111',B'11111111',B'11111111'     ;BTC=08
001A48 0C87 0CFF 0CFF 04480                         DT      B'10000111',B'11111111',B'11111111'     ;BTC=09
001A4E 0C87 0CFF 0CFF 04481                         DT      B'10000111',B'11111111',B'11111111'     ;BTC=0A
001A54 0C87 0CFF 0CFF 04482                         DT      B'10000111',B'11111111',B'11111111'     ;BTC=0B
001A5A 0C87 0CFF 0CFF 04483                         DT      B'10000111',B'11111111',B'11111111'     ;BTC=0C
001A60 0C87 0CFF 0CFF 04484                         DT      B'10000111',B'11111111',B'11111111'     ;BTC=0D
001A66 0C80 0C00 0C7F 04485                         DT      B'10000000',B'00000000',B'01111111'     ;BTC=0E
001A6C 0C80 0C00 0C7F 04486                         DT      B'10000000',B'00000000',B'01111111'     ;BTC=0F
                      04487 
                      04488 
001A72                04489 FONT02H_LOW_F
                      04490 
MPASM  5.51               20191125_RTCGPU.ASM   4-30-2024  22:19:12         PAGE 89


LOC  OBJECT CODE     LINE SOURCE TEXT
  VALUE

001A72 0E00           04491         MOVLW   0
001A74 6EFB           04492         MOVWF   PCLATU,0
001A76 0E1A           04493         MOVLW   1A
001A78 6EFA           04494         MOVWF   PCLATH,0
                      04495 
                      04496         
                      04497 
                      04498         
001A7A C146 FFE8      04499                         MOVFF   BTCOUNT,WREG
001A7E 90D8           04500                         BCF             STATUS,C
001A80 36E8           04501                         RLCF    WREG
                      04502 
                      04503                 
001A82 26F9           04504                         ADDWF   PCL,1,0
001A84 0CFF 0CFF 0CFF 04505                         DT      B'11111111',B'11111111',B'11111111'     ;BTC=00
001A8A 0CF8 0C0F 0CFF 04506                         DT      B'11111000',B'00001111',B'11111111'     ;BTC=01
001A90 0CF0 0C07 0CFF 04507                         DT      B'11110000',B'00000111',B'11111111'     ;BTC=02
001A96 0CE0 0C03 0CFF 04508                         DT      B'11100000',B'00000011',B'11111111'     ;BTC=03
001A9C 0CE1 0CC3 0CFF 04509                         DT      B'11100001',B'11000011',B'11111111'     ;BTC=04
001AA2 0CE3 0CE3 0CFF 04510                         DT      B'11100011',B'11100011',B'11111111'     ;BTC=05
001AA8 0CE3 0CFF 0CFF 04511                         DT      B'11100011',B'11111111',B'11111111'     ;BTC=06
001AAE 0CE3 0CFF 0CFF 04512                         DT      B'11100011',B'11111111',B'11111111'     ;BTC=07
001AB4 0CE3 0CFF 0CFF 04513                         DT      B'11100011',B'11111111',B'11111111'     ;BTC=08
001ABA 0CE3 0CFF 0CFF 04514                         DT      B'11100011',B'11111111',B'11111111'     ;BTC=09
001AC0 0CE3 0CFF 0CFF 04515                         DT      B'11100011',B'11111111',B'11111111'     ;BTC=0A
001AC6 0CE3 0CFF 0CFF 04516                         DT      B'11100011',B'11111111',B'11111111'     ;BTC=0B
001ACC 0CE3 0CFF 0CFF 04517                         DT      B'11100011',B'11111111',B'11111111'     ;BTC=0C
001AD2 0CE3 0CFF 0CFF 04518                         DT      B'11100011',B'11111111',B'11111111'     ;BTC=0D
001AD8 0C80 0C1F 0CFF 04519                         DT      B'10000000',B'00011111',B'11111111'     ;BTC=0E
001ADE 0C80 0C1F 0CFF 04520                         DT      B'10000000',B'00011111',B'11111111'     ;BTC=0F
                      04521 
                      04522 
Warning[205]: Found directive in column 1. (ORG)
001B00                04523 ORG 0X1B00
001B00                04524 FONT02L_CAP_F
                      04525 
001B00 0E00           04526         MOVLW   0
001B02 6EFB           04527         MOVWF   PCLATU,0
001B04 0E1B           04528         MOVLW   1B
001B06 6EFA           04529         MOVWF   PCLATH,0
                      04530 
                      04531 
                      04532 
                      04533 
001B08 C146 FFE8      04534                         MOVFF   BTCOUNT,WREG
001B0C 90D8           04535                         BCF             STATUS,C
001B0E 36E8           04536                         RLCF    WREG
                      04537 
                      04538                 
001B10 26F9           04539                         ADDWF   PCL,1,0
001B12 0C80 0C00 0C7F 04540                         DT      B'10000000',B'00000000',B'01111111'     ;BTC=10
001B18 0C80 0C00 0C7F 04541                         DT      B'10000000',B'00000000',B'01111111'     ;BTC=11
001B1E 0C87 0CFF 0CFF 04542                         DT      B'10000111',B'11111111',B'11111111'     ;BTC=12
MPASM  5.51               20191125_RTCGPU.ASM   4-30-2024  22:19:12         PAGE 90


LOC  OBJECT CODE     LINE SOURCE TEXT
  VALUE

001B24 0C87 0CFF 0CFF 04543                         DT      B'10000111',B'11111111',B'11111111'     ;BTC=13
001B2A 0C87 0CFF 0CFF 04544                         DT      B'10000111',B'11111111',B'11111111'     ;BTC=14
001B30 0C87 0CFF 0CFF 04545                         DT      B'10000111',B'11111111',B'11111111'     ;BTC=15
001B36 0C87 0CFF 0CFF 04546                         DT      B'10000111',B'11111111',B'11111111'     ;BTC=16
001B3C 0C87 0CFF 0CFF 04547                         DT      B'10000111',B'11111111',B'11111111'     ;BTC=17
001B42 0C87 0CFF 0CFF 04548                         DT      B'10000111',B'11111111',B'11111111'     ;BTC=18
001B48 0C87 0CFF 0CFF 04549                         DT      B'10000111',B'11111111',B'11111111'     ;BTC=19
001B4E 0C87 0CFF 0CFF 04550                         DT      B'10000111',B'11111111',B'11111111'     ;BTC=1A
001B54 0C87 0CFF 0CFF 04551                         DT      B'10000111',B'11111111',B'11111111'     ;BTC=1B
001B5A 0C87 0CFF 0CFF 04552                         DT      B'10000111',B'11111111',B'11111111'     ;BTC=1C
001B60 0C87 0CFF 0CFF 04553                         DT      B'10000111',B'11111111',B'11111111'     ;BTC=1D
001B66 0C87 0CFF 0CFF 04554                         DT      B'10000111',B'11111111',B'11111111'     ;BTC=1E
001B6C 0CFF 0CFF 0CFF 04555                         DT      B'11111111',B'11111111',B'11111111'     ;BTC=1F
                      04556 
                      04557 
001B72                04558 FONT02L_LOW_F
                      04559 
001B72 0E00           04560         MOVLW   0
001B74 6EFB           04561         MOVWF   PCLATU,0
001B76 0E1B           04562         MOVLW   1B
001B78 6EFA           04563         MOVWF   PCLATH,0
                      04564 
                      04565 
                      04566 
                      04567 
001B7A C146 FFE8      04568                         MOVFF   BTCOUNT,WREG
001B7E 90D8           04569                         BCF             STATUS,C
001B80 36E8           04570                         RLCF    WREG
                      04571 
                      04572                 
001B82 26F9           04573                         ADDWF   PCL,1,0
001B84 0C80 0C1F 0CFF 04574                         DT      B'10000000',B'00011111',B'11111111'     ;BTC=10
001B8A 0CE3 0CFF 0CFF 04575                         DT      B'11100011',B'11111111',B'11111111'     ;BTC=11
001B90 0CE3 0CFF 0CFF 04576                         DT      B'11100011',B'11111111',B'11111111'     ;BTC=12
001B96 0CE3 0CFF 0CFF 04577                         DT      B'11100011',B'11111111',B'11111111'     ;BTC=13
001B9C 0CE3 0CFF 0CFF 04578                         DT      B'11100011',B'11111111',B'11111111'     ;BTC=14
001BA2 0CE3 0CFF 0CFF 04579                         DT      B'11100011',B'11111111',B'11111111'     ;BTC=15
001BA8 0CE3 0CFF 0CFF 04580                         DT      B'11100011',B'11111111',B'11111111'     ;BTC=16
001BAE 0CE3 0CFF 0CFF 04581                         DT      B'11100011',B'11111111',B'11111111'     ;BTC=17
001BB4 0CE3 0CFF 0CFF 04582                         DT      B'11100011',B'11111111',B'11111111'     ;BTC=18
001BBA 0CE3 0CFF 0CFF 04583                         DT      B'11100011',B'11111111',B'11111111'     ;BTC=19
001BC0 0CE3 0CFF 0CFF 04584                         DT      B'11100011',B'11111111',B'11111111'     ;BTC=1A
001BC6 0CE3 0CFF 0CFF 04585                         DT      B'11100011',B'11111111',B'11111111'     ;BTC=1B
001BCC 0CE3 0CFF 0CFF 04586                         DT      B'11100011',B'11111111',B'11111111'     ;BTC=1C
001BD2 0CE3 0CFF 0CFF 04587                         DT      B'11100011',B'11111111',B'11111111'     ;BTC=1D
001BD8 0CE3 0CFF 0CFF 04588                         DT      B'11100011',B'11111111',B'11111111'     ;BTC=1E
001BDE 0CFF 0CFF 0CFF 04589                         DT      B'11111111',B'11111111',B'11111111'     ;BTC=1F
                      04590 
                      04591 
                      04592 
                      04593 
                      04594 
Warning[205]: Found directive in column 1. (ORG)
MPASM  5.51               20191125_RTCGPU.ASM   4-30-2024  22:19:12         PAGE 91


LOC  OBJECT CODE     LINE SOURCE TEXT
  VALUE

001C00                04595 ORG 0X1C00
001C00                04596 FONT02H_CAP_G
                      04597 
001C00 0E00           04598         MOVLW   0
001C02 6EFB           04599         MOVWF   PCLATU,0
001C04 0E1C           04600         MOVLW   1C
001C06 6EFA           04601         MOVWF   PCLATH,0
                      04602 
                      04603         
                      04604 
                      04605         
001C08 C146 FFE8      04606                         MOVFF   BTCOUNT,WREG
001C0C 90D8           04607                         BCF             STATUS,C
001C0E 36E8           04608                         RLCF    WREG
                      04609 
                      04610                 
001C10 26F9           04611                         ADDWF   PCL,1,0
001C12 0CFF 0CFF 0CFF 04612                         DT      B'11111111',B'11111111',B'11111111'     ;BTC=00
001C18 0CF8 0C00 0C7F 04613                         DT      B'11111000',B'00000000',B'01111111'     ;BTC=01
001C1E 0CF0 0C00 0C3F 04614                         DT      B'11110000',B'00000000',B'00111111'     ;BTC=02
001C24 0CE0 0C00 0C1F 04615                         DT      B'11100000',B'00000000',B'00011111'     ;BTC=03
001C2A 0CC0 0C00 0C0F 04616                         DT      B'11000000',B'00000000',B'00001111'     ;BTC=04
001C30 0C81 0CFE 0C0F 04617                         DT      B'10000001',B'11111110',B'00001111'     ;BTC=05
001C36 0C83 0CFF 0C0F 04618                         DT      B'10000011',B'11111111',B'00001111'     ;BTC=06
001C3C 0C87 0CFF 0C0F 04619                         DT      B'10000111',B'11111111',B'00001111'     ;BTC=07
001C42 0C87 0CFF 0CFF 04620                         DT      B'10000111',B'11111111',B'11111111'     ;BTC=08
001C48 0C87 0CFF 0CFF 04621                         DT      B'10000111',B'11111111',B'11111111'     ;BTC=09
001C4E 0C87 0CFF 0CFF 04622                         DT      B'10000111',B'11111111',B'11111111'     ;BTC=0A
001C54 0C87 0CFF 0CFF 04623                         DT      B'10000111',B'11111111',B'11111111'     ;BTC=0B
001C5A 0C87 0CFF 0CFF 04624                         DT      B'10000111',B'11111111',B'11111111'     ;BTC=0C
001C60 0C87 0CFF 0CFF 04625                         DT      B'10000111',B'11111111',B'11111111'     ;BTC=0D
001C66 0C87 0CFF 0CFF 04626                         DT      B'10000111',B'11111111',B'11111111'     ;BTC=0E
001C6C 0C87 0CC0 0C0F 04627                         DT      B'10000111',B'11000000',B'00001111'     ;BTC=0F
                      04628 
001C72                04629 FONT02H_LOW_G
                      04630 
001C72 0E00           04631         MOVLW   0
001C74 6EFB           04632         MOVWF   PCLATU,0
001C76 0E1C           04633         MOVLW   1C
001C78 6EFA           04634         MOVWF   PCLATH,0
                      04635 
                      04636         
                      04637 
                      04638         
001C7A C146 FFE8      04639                         MOVFF   BTCOUNT,WREG
001C7E 90D8           04640                         BCF             STATUS,C
001C80 36E8           04641                         RLCF    WREG
                      04642 
                      04643                 
001C82 26F9           04644                         ADDWF   PCL,1,0
001C84 0CFF 0CFF 0CFF 04645                         DT      B'11111111',B'11111111',B'11111111'     ;BTC=00
001C8A 0CFF 0CFF 0CFF 04646                         DT      B'11111111',B'11111111',B'11111111'     ;BTC=01
001C90 0CFF 0CFF 0CFF 04647                         DT      B'11111111',B'11111111',B'11111111'     ;BTC=02
MPASM  5.51               20191125_RTCGPU.ASM   4-30-2024  22:19:12         PAGE 92


LOC  OBJECT CODE     LINE SOURCE TEXT
  VALUE

001C96 0CFF 0CFF 0CFF 04648                         DT      B'11111111',B'11111111',B'11111111'     ;BTC=03
001C9C 0CFF 0CFF 0CFF 04649                         DT      B'11111111',B'11111111',B'11111111'     ;BTC=04
001CA2 0CFF 0CFC 0C7F 04650                         DT      B'11111111',B'11111100',B'01111111'     ;BTC=05
001CA8 0CE0 0C00 0C7F 04651                         DT      B'11100000',B'00000000',B'01111111'     ;BTC=06
001CAE 0CC0 0C00 0C7F 04652                         DT      B'11000000',B'00000000',B'01111111'     ;BTC=07
001CB4 0C80 0C00 0C7F 04653                         DT      B'10000000',B'00000000',B'01111111'     ;BTC=08
001CBA 0C87 0CF8 0C7F 04654                         DT      B'10000111',B'11111000',B'01111111'     ;BTC=09
001CC0 0C8F 0CFC 0C7F 04655                         DT      B'10001111',B'11111100',B'01111111'     ;BTC=0A
001CC6 0C8F 0CFC 0C7F 04656                         DT      B'10001111',B'11111100',B'01111111'     ;BTC=0B
001CCC 0C8F 0CFC 0C7F 04657                         DT      B'10001111',B'11111100',B'01111111'     ;BTC=0C
001CD2 0C8F 0CFC 0C7F 04658                         DT      B'10001111',B'11111100',B'01111111'     ;BTC=0D
001CD8 0C8F 0CFC 0C7F 04659                         DT      B'10001111',B'11111100',B'01111111'     ;BTC=0E
001CDE 0C8F 0CFC 0C7F 04660                         DT      B'10001111',B'11111100',B'01111111'     ;BTC=0F
                      04661 
Warning[205]: Found directive in column 1. (ORG)
001D00                04662 ORG 0X1D00
001D00                04663 FONT02L_CAP_G
                      04664 
001D00 0E00           04665         MOVLW   0
001D02 6EFB           04666         MOVWF   PCLATU,0
001D04 0E1D           04667         MOVLW   1D
001D06 6EFA           04668         MOVWF   PCLATH,0
                      04669 
                      04670 
                      04671 
                      04672 
001D08 C146 FFE8      04673                         MOVFF   BTCOUNT,WREG
001D0C 90D8           04674                         BCF             STATUS,C
001D0E 36E8           04675                         RLCF    WREG
                      04676 
                      04677                 
001D10 26F9           04678                         ADDWF   PCL,1,0
001D12 0C87 0CC0 0C0F 04679                         DT      B'10000111',B'11000000',B'00001111'     ;BTC=10
001D18 0C87 0CC0 0C0F 04680                         DT      B'10000111',B'11000000',B'00001111'     ;BTC=11
001D1E 0C87 0CC0 0C0F 04681                         DT      B'10000111',B'11000000',B'00001111'     ;BTC=12
001D24 0C87 0CFF 0C0F 04682                         DT      B'10000111',B'11111111',B'00001111'     ;BTC=13
001D2A 0C87 0CFF 0C0F 04683                         DT      B'10000111',B'11111111',B'00001111'     ;BTC=14
001D30 0C87 0CFF 0C0F 04684                         DT      B'10000111',B'11111111',B'00001111'     ;BTC=15
001D36 0C87 0CFF 0C0F 04685                         DT      B'10000111',B'11111111',B'00001111'     ;BTC=16
001D3C 0C87 0CFF 0C0F 04686                         DT      B'10000111',B'11111111',B'00001111'     ;BTC=17
001D42 0C87 0CFF 0C0F 04687                         DT      B'10000111',B'11111111',B'00001111'     ;BTC=18
001D48 0C83 0CFE 0C0F 04688                         DT      B'10000011',B'11111110',B'00001111'     ;BTC=19
001D4E 0C81 0CFC 0C0F 04689                         DT      B'10000001',B'11111100',B'00001111'     ;BTC=1A
001D54 0C80 0C00 0C1F 04690                         DT      B'10000000',B'00000000',B'00011111'     ;BTC=1B
001D5A 0CC0 0C00 0C3F 04691                         DT      B'11000000',B'00000000',B'00111111'     ;BTC=1C
001D60 0CE0 0C00 0C7F 04692                         DT      B'11100000',B'00000000',B'01111111'     ;BTC=1D
001D66 0CF0 0C00 0CFF 04693                         DT      B'11110000',B'00000000',B'11111111'     ;BTC=1E
001D6C 0CFF 0CFF 0CFF 04694                         DT      B'11111111',B'11111111',B'11111111'     ;BTC=1F
                      04695 
                      04696 
001D72                04697 FONT02L_LOW_G
                      04698 
001D72 0E00           04699         MOVLW   0
MPASM  5.51               20191125_RTCGPU.ASM   4-30-2024  22:19:12         PAGE 93


LOC  OBJECT CODE     LINE SOURCE TEXT
  VALUE

001D74 6EFB           04700         MOVWF   PCLATU,0
001D76 0E1D           04701         MOVLW   1D
001D78 6EFA           04702         MOVWF   PCLATH,0
                      04703 
                      04704 
                      04705 
                      04706 
001D7A C146 FFE8      04707                         MOVFF   BTCOUNT,WREG
001D7E 90D8           04708                         BCF             STATUS,C
001D80 36E8           04709                         RLCF    WREG
                      04710 
                      04711                 
001D82 26F9           04712                         ADDWF   PCL,1,0
001D84 0C8F 0CFC 0C7F 04713                         DT      B'10001111',B'11111100',B'01111111'     ;BTC=10
001D8A 0C87 0CF8 0C7F 04714                         DT      B'10000111',B'11111000',B'01111111'     ;BTC=11
001D90 0C80 0C00 0C7F 04715                         DT      B'10000000',B'00000000',B'01111111'     ;BTC=12
001D96 0CC0 0C00 0C7F 04716                         DT      B'11000000',B'00000000',B'01111111'     ;BTC=13
001D9C 0CE0 0C00 0C7F 04717                         DT      B'11100000',B'00000000',B'01111111'     ;BTC=14
001DA2 0CFF 0CFC 0C7F 04718                         DT      B'11111111',B'11111100',B'01111111'     ;BTC=15
001DA8 0CFF 0CFC 0C7F 04719                         DT      B'11111111',B'11111100',B'01111111'     ;BTC=16
001DAE 0CFF 0CFC 0C7F 04720                         DT      B'11111111',B'11111100',B'01111111'     ;BTC=17
001DB4 0CFF 0CFC 0C7F 04721                         DT      B'11111111',B'11111100',B'01111111'     ;BTC=18
001DBA 0CFF 0CFC 0C7F 04722                         DT      B'11111111',B'11111100',B'01111111'     ;BTC=19
001DC0 0C8F 0CFC 0C7F 04723                         DT      B'10001111',B'11111100',B'01111111'     ;BTC=1A
001DC6 0C8F 0CFC 0C7F 04724                         DT      B'10001111',B'11111100',B'01111111'     ;BTC=1B
001DCC 0C87 0CF8 0C7F 04725                         DT      B'10000111',B'11111000',B'01111111'     ;BTC=1C
001DD2 0C80 0C00 0C7F 04726                         DT      B'10000000',B'00000000',B'01111111'     ;BTC=1D
001DD8 0CC0 0C00 0CFF 04727                         DT      B'11000000',B'00000000',B'11111111'     ;BTC=1E
001DDE 0CE0 0C01 0CFF 04728                         DT      B'11100000',B'00000001',B'11111111'     ;BTC=1F
                      04729 
                      04730 
Warning[205]: Found directive in column 1. (ORG)
001E00                04731 ORG 0X1E00
001E00                04732 FONT02H_CAP_H
                      04733 
001E00 0E00           04734         MOVLW   0
001E02 6EFB           04735         MOVWF   PCLATU,0
001E04 0E1E           04736         MOVLW   1E
001E06 6EFA           04737         MOVWF   PCLATH,0
                      04738 
                      04739         
                      04740 
                      04741         
001E08 C146 FFE8      04742                         MOVFF   BTCOUNT,WREG
001E0C 90D8           04743                         BCF             STATUS,C
001E0E 36E8           04744                         RLCF    WREG
                      04745 
                      04746                 
001E10 26F9           04747                         ADDWF   PCL,1,0
001E12 0CFF 0CFF 0CFF 04748                         DT      B'11111111',B'11111111',B'11111111'     ;BTC=00
001E18 0C87 0CFF 0C0F 04749                         DT      B'10000111',B'11111111',B'00001111'     ;BTC=01
001E1E 0C87 0CFF 0C0F 04750                         DT      B'10000111',B'11111111',B'00001111'     ;BTC=02
001E24 0C87 0CFF 0C0F 04751                         DT      B'10000111',B'11111111',B'00001111'     ;BTC=03
MPASM  5.51               20191125_RTCGPU.ASM   4-30-2024  22:19:12         PAGE 94


LOC  OBJECT CODE     LINE SOURCE TEXT
  VALUE

001E2A 0C87 0CFF 0C0F 04752                         DT      B'10000111',B'11111111',B'00001111'     ;BTC=04
001E30 0C87 0CFF 0C0F 04753                         DT      B'10000111',B'11111111',B'00001111'     ;BTC=05
001E36 0C87 0CFF 0C0F 04754                         DT      B'10000111',B'11111111',B'00001111'     ;BTC=06
001E3C 0C87 0CFF 0C0F 04755                         DT      B'10000111',B'11111111',B'00001111'     ;BTC=07
001E42 0C87 0CFF 0C0F 04756                         DT      B'10000111',B'11111111',B'00001111'     ;BTC=08
001E48 0C87 0CFF 0C0F 04757                         DT      B'10000111',B'11111111',B'00001111'     ;BTC=09
001E4E 0C87 0CFF 0C0F 04758                         DT      B'10000111',B'11111111',B'00001111'     ;BTC=0A
001E54 0C87 0CFF 0C0F 04759                         DT      B'10000111',B'11111111',B'00001111'     ;BTC=0B
001E5A 0C87 0CFF 0C0F 04760                         DT      B'10000111',B'11111111',B'00001111'     ;BTC=0C
001E60 0C87 0CFF 0C0F 04761                         DT      B'10000111',B'11111111',B'00001111'     ;BTC=0D
001E66 0C80 0C00 0C0F 04762                         DT      B'10000000',B'00000000',B'00001111'     ;BTC=0E
001E6C 0C80 0C00 0C0F 04763                         DT      B'10000000',B'00000000',B'00001111'     ;BTC=0F
                      04764 
                      04765 
001E72                04766 FONT02H_LOW_H
                      04767 
001E72 0E00           04768         MOVLW   0
001E74 6EFB           04769         MOVWF   PCLATU,0
001E76 0E1E           04770         MOVLW   1E
001E78 6EFA           04771         MOVWF   PCLATH,0
                      04772 
                      04773         
                      04774 
                      04775         
001E7A C146 FFE8      04776                         MOVFF   BTCOUNT,WREG
001E7E 90D8           04777                         BCF             STATUS,C
001E80 36E8           04778                         RLCF    WREG
                      04779 
                      04780                 
001E82 26F9           04781                         ADDWF   PCL,1,0
001E84 0CFF 0CFF 0CFF 04782                         DT      B'11111111',B'11111111',B'11111111'     ;BTC=00
001E8A 0C8F 0CFF 0CFF 04783                         DT      B'10001111',B'11111111',B'11111111'     ;BTC=01
001E90 0C8F 0CFF 0CFF 04784                         DT      B'10001111',B'11111111',B'11111111'     ;BTC=02
001E96 0C8F 0CFF 0CFF 04785                         DT      B'10001111',B'11111111',B'11111111'     ;BTC=03
001E9C 0C8F 0CFF 0CFF 04786                         DT      B'10001111',B'11111111',B'11111111'     ;BTC=04
001EA2 0C8F 0CFF 0CFF 04787                         DT      B'10001111',B'11111111',B'11111111'     ;BTC=05
001EA8 0C8F 0CFF 0CFF 04788                         DT      B'10001111',B'11111111',B'11111111'     ;BTC=06
001EAE 0C8F 0CFF 0CFF 04789                         DT      B'10001111',B'11111111',B'11111111'     ;BTC=07
001EB4 0C8F 0CFF 0CFF 04790                         DT      B'10001111',B'11111111',B'11111111'     ;BTC=08
001EBA 0C8F 0CFF 0CFF 04791                         DT      B'10001111',B'11111111',B'11111111'     ;BTC=09
001EC0 0C8F 0CFF 0CFF 04792                         DT      B'10001111',B'11111111',B'11111111'     ;BTC=0A
001EC6 0C8F 0CFF 0CFF 04793                         DT      B'10001111',B'11111111',B'11111111'     ;BTC=0B
001ECC 0C8F 0CFF 0CFF 04794                         DT      B'10001111',B'11111111',B'11111111'     ;BTC=0C
001ED2 0C8F 0CFF 0CFF 04795                         DT      B'10001111',B'11111111',B'11111111'     ;BTC=0D
001ED8 0C8F 0CFF 0CFF 04796                         DT      B'10001111',B'11111111',B'11111111'     ;BTC=0E
001EDE 0C8F 0CFF 0CFF 04797                         DT      B'10001111',B'11111111',B'11111111'     ;BTC=0F
                      04798 
                      04799 
                      04800 
Warning[205]: Found directive in column 1. (ORG)
001F00                04801 ORG 0X1F00
001F00                04802 FONT02L_CAP_H
                      04803 
MPASM  5.51               20191125_RTCGPU.ASM   4-30-2024  22:19:12         PAGE 95


LOC  OBJECT CODE     LINE SOURCE TEXT
  VALUE

001F00 0E00           04804         MOVLW   0
001F02 6EFB           04805         MOVWF   PCLATU,0
001F04 0E1F           04806         MOVLW   1F
001F06 6EFA           04807         MOVWF   PCLATH,0
                      04808 
                      04809 
                      04810 
                      04811 
001F08 C146 FFE8      04812                         MOVFF   BTCOUNT,WREG
001F0C 90D8           04813                         BCF             STATUS,C
001F0E 36E8           04814                         RLCF    WREG
                      04815 
                      04816                 
001F10 26F9           04817                         ADDWF   PCL,1,0
001F12 0C80 0C00 0C0F 04818                         DT      B'10000000',B'00000000',B'00001111'     ;BTC=10
001F18 0C80 0C00 0C0F 04819                         DT      B'10000000',B'00000000',B'00001111'     ;BTC=11
001F1E 0C87 0CFF 0C0F 04820                         DT      B'10000111',B'11111111',B'00001111'     ;BTC=12
001F24 0C87 0CFF 0C0F 04821                         DT      B'10000111',B'11111111',B'00001111'     ;BTC=13
001F2A 0C87 0CFF 0C0F 04822                         DT      B'10000111',B'11111111',B'00001111'     ;BTC=14
001F30 0C87 0CFF 0C0F 04823                         DT      B'10000111',B'11111111',B'00001111'     ;BTC=15
001F36 0C87 0CFF 0C0F 04824                         DT      B'10000111',B'11111111',B'00001111'     ;BTC=16
001F3C 0C87 0CFF 0C0F 04825                         DT      B'10000111',B'11111111',B'00001111'     ;BTC=17
001F42 0C87 0CFF 0C0F 04826                         DT      B'10000111',B'11111111',B'00001111'     ;BTC=18
001F48 0C87 0CFF 0C0F 04827                         DT      B'10000111',B'11111111',B'00001111'     ;BTC=19
001F4E 0C87 0CFF 0C0F 04828                         DT      B'10000111',B'11111111',B'00001111'     ;BTC=1A
001F54 0C87 0CFF 0C0F 04829                         DT      B'10000111',B'11111111',B'00001111'     ;BTC=1B
001F5A 0C87 0CFF 0C0F 04830                         DT      B'10000111',B'11111111',B'00001111'     ;BTC=1C
001F60 0C87 0CFF 0C0F 04831                         DT      B'10000111',B'11111111',B'00001111'     ;BTC=1D
001F66 0C87 0CFF 0C0F 04832                         DT      B'10000111',B'11111111',B'00001111'     ;BTC=1E
001F6C 0CFF 0CFF 0CFF 04833                         DT      B'11111111',B'11111111',B'11111111'     ;BTC=1F
                      04834 
                      04835 
001F72                04836 FONT02L_LOW_H
                      04837 
001F72 0E00           04838         MOVLW   0
001F74 6EFB           04839         MOVWF   PCLATU,0
001F76 0E1F           04840         MOVLW   1F
001F78 6EFA           04841         MOVWF   PCLATH,0
                      04842 
                      04843 
                      04844 
                      04845 
001F7A C146 FFE8      04846                         MOVFF   BTCOUNT,WREG
001F7E 90D8           04847                         BCF             STATUS,C
001F80 36E8           04848                         RLCF    WREG
                      04849 
                      04850                 
001F82 26F9           04851                         ADDWF   PCL,1,0
001F84 0C88 0C03 0CFF 04852                         DT      B'10001000',B'00000011',B'11111111'     ;BTC=10
001F8A 0C80 0C01 0CFF 04853                         DT      B'10000000',B'00000001',B'11111111'     ;BTC=11
001F90 0C80 0C00 0CFF 04854                         DT      B'10000000',B'00000000',B'11111111'     ;BTC=12
001F96 0C87 0CF0 0CFF 04855                         DT      B'10000111',B'11110000',B'11111111'     ;BTC=13
001F9C 0C8F 0CF8 0CFF 04856                         DT      B'10001111',B'11111000',B'11111111'     ;BTC=14
MPASM  5.51               20191125_RTCGPU.ASM   4-30-2024  22:19:12         PAGE 96


LOC  OBJECT CODE     LINE SOURCE TEXT
  VALUE

001FA2 0C8F 0CF8 0CFF 04857                         DT      B'10001111',B'11111000',B'11111111'     ;BTC=15
001FA8 0C8F 0CF8 0CFF 04858                         DT      B'10001111',B'11111000',B'11111111'     ;BTC=16
001FAE 0C8F 0CF8 0CFF 04859                         DT      B'10001111',B'11111000',B'11111111'     ;BTC=17
001FB4 0C8F 0CF8 0CFF 04860                         DT      B'10001111',B'11111000',B'11111111'     ;BTC=18
001FBA 0C8F 0CF8 0CFF 04861                         DT      B'10001111',B'11111000',B'11111111'     ;BTC=19
001FC0 0C8F 0CF8 0CFF 04862                         DT      B'10001111',B'11111000',B'11111111'     ;BTC=1A
001FC6 0C8F 0CF8 0CFF 04863                         DT      B'10001111',B'11111000',B'11111111'     ;BTC=1B
001FCC 0C8F 0CF8 0CFF 04864                         DT      B'10001111',B'11111000',B'11111111'     ;BTC=1C
001FD2 0C8F 0CF8 0CFF 04865                         DT      B'10001111',B'11111000',B'11111111'     ;BTC=1D
001FD8 0C8F 0CF8 0CFF 04866                         DT      B'10001111',B'11111000',B'11111111'     ;BTC=1E
001FDE 0CFF 0CFF 0CFF 04867                         DT      B'11111111',B'11111111',B'11111111'     ;BTC=1F
                      04868 
                      04869 
                      04870 
Warning[205]: Found directive in column 1. (ORG)
002000                04871 ORG 0X2000
002000                04872 FONT02H_CAP_I
                      04873 
002000 0E00           04874         MOVLW   0
002002 6EFB           04875         MOVWF   PCLATU,0
002004 0E20           04876         MOVLW   20
002006 6EFA           04877         MOVWF   PCLATH,0
                      04878 
                      04879         
                      04880 
                      04881         
002008 C146 FFE8      04882                         MOVFF   BTCOUNT,WREG
00200C 90D8           04883                         BCF             STATUS,C
00200E 36E8           04884                         RLCF    WREG
                      04885 
                      04886                 
002010 26F9           04887                         ADDWF   PCL,1,0
002012 0CFF 0CFF 0CFF 04888                         DT      B'11111111',B'11111111',B'11111111'     ;BTC=00
002018 0C80 0C00 0C7F 04889                         DT      B'10000000',B'00000000',B'01111111'     ;BTC=01
00201E 0C80 0C00 0C7F 04890                         DT      B'10000000',B'00000000',B'01111111'     ;BTC=02
002024 0C80 0C00 0C7F 04891                         DT      B'10000000',B'00000000',B'01111111'     ;BTC=03
00202A 0C80 0C00 0C7F 04892                         DT      B'10000000',B'00000000',B'01111111'     ;BTC=04
002030 0CFE 0C1F 0CFF 04893                         DT      B'11111110',B'00011111',B'11111111'     ;BTC=05
002036 0CFE 0C1F 0CFF 04894                         DT      B'11111110',B'00011111',B'11111111'     ;BTC=06
00203C 0CFE 0C1F 0CFF 04895                         DT      B'11111110',B'00011111',B'11111111'     ;BTC=07
002042 0CFE 0C1F 0CFF 04896                         DT      B'11111110',B'00011111',B'11111111'     ;BTC=08
002048 0CFE 0C1F 0CFF 04897                         DT      B'11111110',B'00011111',B'11111111'     ;BTC=09
00204E 0CFE 0C1F 0CFF 04898                         DT      B'11111110',B'00011111',B'11111111'     ;BTC=0A
002054 0CFE 0C1F 0CFF 04899                         DT      B'11111110',B'00011111',B'11111111'     ;BTC=0B
00205A 0CFE 0C1F 0CFF 04900                         DT      B'11111110',B'00011111',B'11111111'     ;BTC=0C
002060 0CFE 0C1F 0CFF 04901                         DT      B'11111110',B'00011111',B'11111111'     ;BTC=0D
002066 0CFE 0C1F 0CFF 04902                         DT      B'11111110',B'00011111',B'11111111'     ;BTC=0E
00206C 0CFE 0C1F 0CFF 04903                         DT      B'11111110',B'00011111',B'11111111'     ;BTC=0F
                      04904 
                      04905 
002072                04906 FONT02H_LOW_I
                      04907 
002072 0E00           04908         MOVLW   0
MPASM  5.51               20191125_RTCGPU.ASM   4-30-2024  22:19:12         PAGE 97


LOC  OBJECT CODE     LINE SOURCE TEXT
  VALUE

002074 6EFB           04909         MOVWF   PCLATU,0
002076 0E20           04910         MOVLW   20
002078 6EFA           04911         MOVWF   PCLATH,0
                      04912 
                      04913         
                      04914 
                      04915         
00207A C146 FFE8      04916                         MOVFF   BTCOUNT,WREG
00207E 90D8           04917                         BCF             STATUS,C
002080 36E8           04918                         RLCF    WREG
                      04919 
                      04920                 
002082 26F9           04921                         ADDWF   PCL,1,0
002084 0CFF 0CFF 0CFF 04922                         DT      B'11111111',B'11111111',B'11111111'     ;BTC=00
00208A 0CFF 0CFF 0CFF 04923                         DT      B'11111111',B'11111111',B'11111111'     ;BTC=01
002090 0CFF 0CFF 0CFF 04924                         DT      B'11111111',B'11111111',B'11111111'     ;BTC=02
002096 0CFF 0CFF 0CFF 04925                         DT      B'11111111',B'11111111',B'11111111'     ;BTC=03
00209C 0CFF 0CFF 0CFF 04926                         DT      B'11111111',B'11111111',B'11111111'     ;BTC=04
0020A2 0CFF 0CFF 0CFF 04927                         DT      B'11111111',B'11111111',B'11111111'     ;BTC=05
0020A8 0CFF 0CFF 0CFF 04928                         DT      B'11111111',B'11111111',B'11111111'     ;BTC=06
0020AE 0CFF 0CFF 0CFF 04929                         DT      B'11111111',B'11111111',B'11111111'     ;BTC=07
0020B4 0CFF 0CFF 0CFF 04930                         DT      B'11111111',B'11111111',B'11111111'     ;BTC=08
0020BA 0CFF 0CFF 0CFF 04931                         DT      B'11111111',B'11111111',B'11111111'     ;BTC=09
0020C0 0CDF 0CFF 0CFF 04932                         DT      B'11011111',B'11111111',B'11111111'     ;BTC=0A
0020C6 0C8F 0CFF 0CFF 04933                         DT      B'10001111',B'11111111',B'11111111'     ;BTC=0B
0020CC 0C8F 0CFF 0CFF 04934                         DT      B'10001111',B'11111111',B'11111111'     ;BTC=0C
0020D2 0CDF 0CFF 0CFF 04935                         DT      B'11011111',B'11111111',B'11111111'     ;BTC=0D
0020D8 0CFF 0CFF 0CFF 04936                         DT      B'11111111',B'11111111',B'11111111'     ;BTC=0E
0020DE 0CFF 0CFF 0CFF 04937                         DT      B'11111111',B'11111111',B'11111111'     ;BTC=0F
                      04938 
                      04939 
                      04940 
Warning[205]: Found directive in column 1. (ORG)
002100                04941 ORG 0X2100
002100                04942 FONT02L_CAP_I
                      04943 
002100 0E00           04944         MOVLW   0
002102 6EFB           04945         MOVWF   PCLATU,0
002104 0E21           04946         MOVLW   21
002106 6EFA           04947         MOVWF   PCLATH,0
                      04948 
                      04949 
                      04950 
                      04951 
002108 C146 FFE8      04952                         MOVFF   BTCOUNT,WREG
00210C 90D8           04953                         BCF             STATUS,C
00210E 36E8           04954                         RLCF    WREG
                      04955 
                      04956                 
002110 26F9           04957                         ADDWF   PCL,1,0
002112 0CFE 0C1F 0CFF 04958                         DT      B'11111110',B'00011111',B'11111111'     ;BTC=10
002118 0CFE 0C1F 0CFF 04959                         DT      B'11111110',B'00011111',B'11111111'     ;BTC=11
00211E 0CFE 0C1F 0CFF 04960                         DT      B'11111110',B'00011111',B'11111111'     ;BTC=12
MPASM  5.51               20191125_RTCGPU.ASM   4-30-2024  22:19:12         PAGE 98


LOC  OBJECT CODE     LINE SOURCE TEXT
  VALUE

002124 0CFE 0C1F 0CFF 04961                         DT      B'11111110',B'00011111',B'11111111'     ;BTC=13
00212A 0CFE 0C1F 0CFF 04962                         DT      B'11111110',B'00011111',B'11111111'     ;BTC=14
002130 0CFE 0C1F 0CFF 04963                         DT      B'11111110',B'00011111',B'11111111'     ;BTC=15
002136 0CFE 0C1F 0CFF 04964                         DT      B'11111110',B'00011111',B'11111111'     ;BTC=16
00213C 0CFE 0C1F 0CFF 04965                         DT      B'11111110',B'00011111',B'11111111'     ;BTC=17
002142 0CFE 0C1F 0CFF 04966                         DT      B'11111110',B'00011111',B'11111111'     ;BTC=18
002148 0CFE 0C1F 0CFF 04967                         DT      B'11111110',B'00011111',B'11111111'     ;BTC=19
00214E 0CFE 0C1F 0CFF 04968                         DT      B'11111110',B'00011111',B'11111111'     ;BTC=1A
002154 0C80 0C00 0CFF 04969                         DT      B'10000000',B'00000000',B'11111111'     ;BTC=1B
00215A 0C80 0C00 0CFF 04970                         DT      B'10000000',B'00000000',B'11111111'     ;BTC=1C
002160 0C80 0C00 0CFF 04971                         DT      B'10000000',B'00000000',B'11111111'     ;BTC=1D
002166 0C80 0C00 0CFF 04972                         DT      B'10000000',B'00000000',B'11111111'     ;BTC=1E
00216C 0CFF 0CFF 0CFF 04973                         DT      B'11111111',B'11111111',B'11111111'     ;BTC=1F
                      04974 
                      04975 
002172                04976 FONT02L_LOW_I
                      04977 
002172 0E00           04978         MOVLW   0
002174 6EFB           04979         MOVWF   PCLATU,0
002176 0E21           04980         MOVLW   21
002178 6EFA           04981         MOVWF   PCLATH,0
                      04982 
                      04983 
                      04984 
                      04985 
00217A C146 FFE8      04986                         MOVFF   BTCOUNT,WREG
00217E 90D8           04987                         BCF             STATUS,C
002180 36E8           04988                         RLCF    WREG
                      04989 
                      04990                 
002182 26F9           04991                         ADDWF   PCL,1,0
002184 0C8F 0CFF 0CFF 04992                         DT      B'10001111',B'11111111',B'11111111'     ;BTC=10
00218A 0C8F 0CFF 0CFF 04993                         DT      B'10001111',B'11111111',B'11111111'     ;BTC=11
002190 0C8F 0CFF 0CFF 04994                         DT      B'10001111',B'11111111',B'11111111'     ;BTC=12
002196 0C8F 0CFF 0CFF 04995                         DT      B'10001111',B'11111111',B'11111111'     ;BTC=13
00219C 0C8F 0CFF 0CFF 04996                         DT      B'10001111',B'11111111',B'11111111'     ;BTC=14
0021A2 0C8F 0CFF 0CFF 04997                         DT      B'10001111',B'11111111',B'11111111'     ;BTC=15
0021A8 0C8F 0CFF 0CFF 04998                         DT      B'10001111',B'11111111',B'11111111'     ;BTC=16
0021AE 0C8F 0CFF 0CFF 04999                         DT      B'10001111',B'11111111',B'11111111'     ;BTC=17
0021B4 0C8F 0CFF 0CFF 05000                         DT      B'10001111',B'11111111',B'11111111'     ;BTC=18
0021BA 0C8F 0CFF 0CFF 05001                         DT      B'10001111',B'11111111',B'11111111'     ;BTC=19
0021C0 0C8F 0CFF 0CFF 05002                         DT      B'10001111',B'11111111',B'11111111'     ;BTC=1A
0021C6 0C8F 0CFF 0CFF 05003                         DT      B'10001111',B'11111111',B'11111111'     ;BTC=1B
0021CC 0C8F 0CFF 0CFF 05004                         DT      B'10001111',B'11111111',B'11111111'     ;BTC=1C
0021D2 0C8F 0CFF 0CFF 05005                         DT      B'10001111',B'11111111',B'11111111'     ;BTC=1D
0021D8 0C8F 0CFF 0CFF 05006                         DT      B'10001111',B'11111111',B'11111111'     ;BTC=1E
0021DE 0CFF 0CFF 0CFF 05007                         DT      B'11111111',B'11111111',B'11111111'     ;BTC=1F
                      05008 
                      05009 
                      05010 
Warning[205]: Found directive in column 1. (ORG)
002200                05011 ORG 0X2200
002200                05012 FONT02H_CAP_J
MPASM  5.51               20191125_RTCGPU.ASM   4-30-2024  22:19:12         PAGE 99


LOC  OBJECT CODE     LINE SOURCE TEXT
  VALUE

                      05013 
002200 0E00           05014         MOVLW   0
002202 6EFB           05015         MOVWF   PCLATU,0
002204 0E22           05016         MOVLW   22
002206 6EFA           05017         MOVWF   PCLATH,0
                      05018 
                      05019         
                      05020 
                      05021         
002208 C146 FFE8      05022                         MOVFF   BTCOUNT,WREG
00220C 90D8           05023                         BCF             STATUS,C
00220E 36E8           05024                         RLCF    WREG
                      05025 
                      05026                 
002210 26F9           05027                         ADDWF   PCL,1,0
002212 0CFF 0CFF 0CFF 05028                         DT      B'11111111',B'11111111',B'11111111'     ;BTC=00
002218 0CFF 0CC0 0C0F 05029                         DT      B'11111111',B'11000000',B'00001111'     ;BTC=01
00221E 0CFF 0CC0 0C0F 05030                         DT      B'11111111',B'11000000',B'00001111'     ;BTC=02
002224 0CFF 0CC0 0C0F 05031                         DT      B'11111111',B'11000000',B'00001111'     ;BTC=03
00222A 0CFF 0CFC 0C3F 05032                         DT      B'11111111',B'11111100',B'00111111'     ;BTC=04
002230 0CFF 0CFC 0C3F 05033                         DT      B'11111111',B'11111100',B'00111111'     ;BTC=05
002236 0CFF 0CFC 0C3F 05034                         DT      B'11111111',B'11111100',B'00111111'     ;BTC=06
00223C 0CFF 0CFC 0C3F 05035                         DT      B'11111111',B'11111100',B'00111111'     ;BTC=07
002242 0CFF 0CFC 0C3F 05036                         DT      B'11111111',B'11111100',B'00111111'     ;BTC=08
002248 0CFF 0CFC 0C3F 05037                         DT      B'11111111',B'11111100',B'00111111'     ;BTC=09
00224E 0CFF 0CFC 0C3F 05038                         DT      B'11111111',B'11111100',B'00111111'     ;BTC=0A
002254 0CFF 0CFC 0C3F 05039                         DT      B'11111111',B'11111100',B'00111111'     ;BTC=0B
00225A 0CFF 0CFC 0C3F 05040                         DT      B'11111111',B'11111100',B'00111111'     ;BTC=0C
002260 0CFF 0CFC 0C3F 05041                         DT      B'11111111',B'11111100',B'00111111'     ;BTC=0D
002266 0CFF 0CFC 0C3F 05042                         DT      B'11111111',B'11111100',B'00111111'     ;BTC=0E
00226C 0CFF 0CFC 0C3F 05043                         DT      B'11111111',B'11111100',B'00111111'     ;BTC=0F
                      05044 
                      05045 
002272                05046 FONT02H_LOW_J
                      05047 
002272 0E00           05048         MOVLW   0
002274 6EFB           05049         MOVWF   PCLATU,0
002276 0E22           05050         MOVLW   22
002278 6EFA           05051         MOVWF   PCLATH,0
                      05052 
                      05053         
                      05054 
                      05055         
00227A C146 FFE8      05056                         MOVFF   BTCOUNT,WREG
00227E 90D8           05057                         BCF             STATUS,C
002280 36E8           05058                         RLCF    WREG
                      05059 
                      05060                 
002282 26F9           05061                         ADDWF   PCL,1,0
002284 0CFF 0CFF 0CFF 05062                         DT      B'11111111',B'11111111',B'11111111'     ;BTC=00
00228A 0CFF 0CFF 0CFF 05063                         DT      B'11111111',B'11111111',B'11111111'     ;BTC=01
002290 0CFF 0CFF 0CFF 05064                         DT      B'11111111',B'11111111',B'11111111'     ;BTC=02
002296 0CFF 0CFF 0CFF 05065                         DT      B'11111111',B'11111111',B'11111111'     ;BTC=03
MPASM  5.51               20191125_RTCGPU.ASM   4-30-2024  22:19:12         PAGE 100


LOC  OBJECT CODE     LINE SOURCE TEXT
  VALUE

00229C 0CFF 0CFD 0CFF 05066                         DT      B'11111111',B'11111101',B'11111111'     ;BTC=04
0022A2 0CFF 0CF8 0CFF 05067                         DT      B'11111111',B'11111000',B'11111111'     ;BTC=05
0022A8 0CFF 0CF8 0CFF 05068                         DT      B'11111111',B'11111000',B'11111111'     ;BTC=06
0022AE 0CFF 0CFD 0CFF 05069                         DT      B'11111111',B'11111101',B'11111111'     ;BTC=07
0022B4 0CFF 0CFF 0CFF 05070                         DT      B'11111111',B'11111111',B'11111111'     ;BTC=08
0022BA 0CFF 0CFF 0CFF 05071                         DT      B'11111111',B'11111111',B'11111111'     ;BTC=09
0022C0 0CFF 0CF8 0CFF 05072                         DT      B'11111111',B'11111000',B'11111111'     ;BTC=0A
0022C6 0CFF 0CF8 0CFF 05073                         DT      B'11111111',B'11111000',B'11111111'     ;BTC=0B
0022CC 0CFF 0CF8 0CFF 05074                         DT      B'11111111',B'11111000',B'11111111'     ;BTC=0C
0022D2 0CFF 0CF8 0CFF 05075                         DT      B'11111111',B'11111000',B'11111111'     ;BTC=0D
0022D8 0CFF 0CF8 0CFF 05076                         DT      B'11111111',B'11111000',B'11111111'     ;BTC=0E
0022DE 0CFF 0CF8 0CFF 05077                         DT      B'11111111',B'11111000',B'11111111'     ;BTC=0F
                      05078 
                      05079 
Warning[205]: Found directive in column 1. (ORG)
002300                05080 ORG 0X2300
002300                05081 FONT02L_CAP_J
                      05082 
002300 0E00           05083         MOVLW   0
002302 6EFB           05084         MOVWF   PCLATU,0
002304 0E23           05085         MOVLW   23
002306 6EFA           05086         MOVWF   PCLATH,0
                      05087 
                      05088 
                      05089 
                      05090 
002308 C146 FFE8      05091                         MOVFF   BTCOUNT,WREG
00230C 90D8           05092                         BCF             STATUS,C
00230E 36E8           05093                         RLCF    WREG
                      05094 
                      05095                 
002310 26F9           05096                         ADDWF   PCL,1,0
002312 0CFF 0CFC 0C3F 05097                         DT      B'11111111',B'11111100',B'00111111'     ;BTC=10
002318 0CFF 0CFC 0C3F 05098                         DT      B'11111111',B'11111100',B'00111111'     ;BTC=11
00231E 0CFF 0CFC 0C3F 05099                         DT      B'11111111',B'11111100',B'00111111'     ;BTC=12
002324 0CFF 0CFC 0C3F 05100                         DT      B'11111111',B'11111100',B'00111111'     ;BTC=13
00232A 0CFF 0CFC 0C3F 05101                         DT      B'11111111',B'11111100',B'00111111'     ;BTC=14
002330 0CFF 0CFC 0C3F 05102                         DT      B'11111111',B'11111100',B'00111111'     ;BTC=15
002336 0CFF 0CFC 0C3F 05103                         DT      B'11111111',B'11111100',B'00111111'     ;BTC=16
00233C 0C87 0CFC 0C3F 05104                         DT      B'10000111',B'11111100',B'00111111'     ;BTC=17
002342 0C87 0CFC 0C3F 05105                         DT      B'10000111',B'11111100',B'00111111'     ;BTC=18
002348 0C87 0CFC 0C3F 05106                         DT      B'10000111',B'11111100',B'00111111'     ;BTC=19
00234E 0C83 0CF8 0C3F 05107                         DT      B'10000011',B'11111000',B'00111111'     ;BTC=1A
002354 0C81 0CF0 0C7F 05108                         DT      B'10000001',B'11110000',B'01111111'     ;BTC=1B
00235A 0CC0 0C00 0CFF 05109                         DT      B'11000000',B'00000000',B'11111111'     ;BTC=1C
002360 0CE0 0C01 0CFF 05110                         DT      B'11100000',B'00000001',B'11111111'     ;BTC=1D
002366 0CF0 0C03 0CFF 05111                         DT      B'11110000',B'00000011',B'11111111'     ;BTC=1E
00236C 0CFF 0CFF 0CFF 05112                         DT      B'11111111',B'11111111',B'11111111'     ;BTC=1F
                      05113 
                      05114 
002372                05115 FONT02L_LOW_J
                      05116 
002372 0E00           05117         MOVLW   0
MPASM  5.51               20191125_RTCGPU.ASM   4-30-2024  22:19:12         PAGE 101


LOC  OBJECT CODE     LINE SOURCE TEXT
  VALUE

002374 6EFB           05118         MOVWF   PCLATU,0
002376 0E23           05119         MOVLW   23
002378 6EFA           05120         MOVWF   PCLATH,0
                      05121 
                      05122 
                      05123 
                      05124 
00237A C146 FFE8      05125                         MOVFF   BTCOUNT,WREG
00237E 90D8           05126                         BCF             STATUS,C
002380 36E8           05127                         RLCF    WREG
                      05128 
                      05129                 
002382 26F9           05130                         ADDWF   PCL,1,0
002384 0CFF 0CF8 0CFF 05131                         DT      B'11111111',B'11111000',B'11111111'     ;BTC=10
00238A 0CFF 0CF8 0CFF 05132                         DT      B'11111111',B'11111000',B'11111111'     ;BTC=11
002390 0CFF 0CF8 0CFF 05133                         DT      B'11111111',B'11111000',B'11111111'     ;BTC=12
002396 0CFF 0CF8 0CFF 05134                         DT      B'11111111',B'11111000',B'11111111'     ;BTC=13
00239C 0CFF 0CF8 0CFF 05135                         DT      B'11111111',B'11111000',B'11111111'     ;BTC=14
0023A2 0CFF 0CF8 0CFF 05136                         DT      B'11111111',B'11111000',B'11111111'     ;BTC=15
0023A8 0CFF 0CF8 0CFF 05137                         DT      B'11111111',B'11111000',B'11111111'     ;BTC=16
0023AE 0CFF 0CF8 0CFF 05138                         DT      B'11111111',B'11111000',B'11111111'     ;BTC=17
0023B4 0CFF 0CF8 0CFF 05139                         DT      B'11111111',B'11111000',B'11111111'     ;BTC=18
0023BA 0CFF 0CF8 0CFF 05140                         DT      B'11111111',B'11111000',B'11111111'     ;BTC=19
0023C0 0C8F 0CF8 0CFF 05141                         DT      B'10001111',B'11111000',B'11111111'     ;BTC=1A
0023C6 0C8F 0CF8 0CFF 05142                         DT      B'10001111',B'11111000',B'11111111'     ;BTC=1B
0023CC 0C87 0CF0 0CFF 05143                         DT      B'10000111',B'11110000',B'11111111'     ;BTC=1C
0023D2 0C80 0C00 0CFF 05144                         DT      B'10000000',B'00000000',B'11111111'     ;BTC=1D
0023D8 0CC0 0C01 0CFF 05145                         DT      B'11000000',B'00000001',B'11111111'     ;BTC=1E
0023DE 0CE0 0C03 0CFF 05146                         DT      B'11100000',B'00000011',B'11111111'     ;BTC=1F
                      05147 
                      05148 
                      05149 
Warning[205]: Found directive in column 1. (ORG)
002400                05150 ORG 0X2400
002400                05151 FONT02H_CAP_K
                      05152 
002400 0E00           05153         MOVLW   0
002402 6EFB           05154         MOVWF   PCLATU,0
002404 0E24           05155         MOVLW   24
002406 6EFA           05156         MOVWF   PCLATH,0
                      05157 
                      05158         
                      05159 
                      05160         
002408 C146 FFE8      05161                         MOVFF   BTCOUNT,WREG
00240C 90D8           05162                         BCF             STATUS,C
00240E 36E8           05163                         RLCF    WREG
                      05164 
                      05165                 
002410 26F9           05166                         ADDWF   PCL,1,0
002412 0CFF 0CFF 0CFF 05167                         DT      B'11111111',B'11111111',B'11111111'     ;BTC=00
002418 0C87 0CFE 0C0F 05168                         DT      B'10000111',B'11111110',B'00001111'     ;BTC=01
00241E 0C87 0CFC 0C1F 05169                         DT      B'10000111',B'11111100',B'00011111'     ;BTC=02
MPASM  5.51               20191125_RTCGPU.ASM   4-30-2024  22:19:12         PAGE 102


LOC  OBJECT CODE     LINE SOURCE TEXT
  VALUE

002424 0C87 0CF8 0C3F 05170                         DT      B'10000111',B'11111000',B'00111111'     ;BTC=03
00242A 0C87 0CF0 0C7F 05171                         DT      B'10000111',B'11110000',B'01111111'     ;BTC=04
002430 0C87 0CE0 0CFF 05172                         DT      B'10000111',B'11100000',B'11111111'     ;BTC=05
002436 0C87 0CC1 0CFF 05173                         DT      B'10000111',B'11000001',B'11111111'     ;BTC=06
00243C 0C87 0C83 0CFF 05174                         DT      B'10000111',B'10000011',B'11111111'     ;BTC=07
002442 0C87 0C07 0CFF 05175                         DT      B'10000111',B'00000111',B'11111111'     ;BTC=08
002448 0C86 0C0F 0CFF 05176                         DT      B'10000110',B'00001111',B'11111111'     ;BTC=09
00244E 0C84 0C1F 0CFF 05177                         DT      B'10000100',B'00011111',B'11111111'     ;BTC=0A
002454 0C80 0C3F 0CFF 05178                         DT      B'10000000',B'00111111',B'11111111'     ;BTC=0B
00245A 0C80 0C7F 0CFF 05179                         DT      B'10000000',B'01111111',B'11111111'     ;BTC=0C
002460 0C80 0CFF 0CFF 05180                         DT      B'10000000',B'11111111',B'11111111'     ;BTC=0D
002466 0C81 0CFF 0CFF 05181                         DT      B'10000001',B'11111111',B'11111111'     ;BTC=0E
00246C 0C83 0CFF 0CFF 05182                         DT      B'10000011',B'11111111',B'11111111'     ;BTC=0F
                      05183 
002472                05184 FONT02H_LOW_K
                      05185 
002472 0E00           05186         MOVLW   0
002474 6EFB           05187         MOVWF   PCLATU,0
002476 0E24           05188         MOVLW   24
002478 6EFA           05189         MOVWF   PCLATH,0
                      05190 
                      05191         
                      05192 
                      05193         
00247A C146 FFE8      05194                         MOVFF   BTCOUNT,WREG
00247E 90D8           05195                         BCF             STATUS,C
002480 36E8           05196                         RLCF    WREG
                      05197 
                      05198                 
002482 26F9           05199                         ADDWF   PCL,1,0
002484 0CFF 0CFF 0CFF 05200                         DT      B'11111111',B'11111111',B'11111111'     ;BTC=00
00248A 0C8F 0CFF 0CFF 05201                         DT      B'10001111',B'11111111',B'11111111'     ;BTC=01
002490 0C8F 0CFF 0CFF 05202                         DT      B'10001111',B'11111111',B'11111111'     ;BTC=02
002496 0C8F 0CFF 0CFF 05203                         DT      B'10001111',B'11111111',B'11111111'     ;BTC=03
00249C 0C8F 0CFF 0CFF 05204                         DT      B'10001111',B'11111111',B'11111111'     ;BTC=04
0024A2 0C8F 0CFF 0CFF 05205                         DT      B'10001111',B'11111111',B'11111111'     ;BTC=05
0024A8 0C8F 0CFF 0CFF 05206                         DT      B'10001111',B'11111111',B'11111111'     ;BTC=06
0024AE 0C8F 0CFF 0CFF 05207                         DT      B'10001111',B'11111111',B'11111111'     ;BTC=07
0024B4 0C8F 0C8F 0CFF 05208                         DT      B'10001111',B'10001111',B'11111111'     ;BTC=08
0024BA 0C8F 0C8F 0CFF 05209                         DT      B'10001111',B'10001111',B'11111111'     ;BTC=09
0024C0 0C8F 0C1F 0CFF 05210                         DT      B'10001111',B'00011111',B'11111111'     ;BTC=0A
0024C6 0C8F 0C1F 0CFF 05211                         DT      B'10001111',B'00011111',B'11111111'     ;BTC=0B
0024CC 0C8E 0C3F 0CFF 05212                         DT      B'10001110',B'00111111',B'11111111'     ;BTC=0C
0024D2 0C8E 0C3F 0CFF 05213                         DT      B'10001110',B'00111111',B'11111111'     ;BTC=0D
0024D8 0C8C 0C7F 0CFF 05214                         DT      B'10001100',B'01111111',B'11111111'     ;BTC=0E
0024DE 0C8C 0C7F 0CFF 05215                         DT      B'10001100',B'01111111',B'11111111'     ;BTC=0F
                      05216 
                      05217 
Warning[205]: Found directive in column 1. (ORG)
002500                05218 ORG 0X2500
002500                05219 FONT02L_CAP_K
                      05220 
002500 0E00           05221         MOVLW   0
MPASM  5.51               20191125_RTCGPU.ASM   4-30-2024  22:19:12         PAGE 103


LOC  OBJECT CODE     LINE SOURCE TEXT
  VALUE

002502 6EFB           05222         MOVWF   PCLATU,0
002504 0E25           05223         MOVLW   25
002506 6EFA           05224         MOVWF   PCLATH,0
                      05225 
                      05226 
                      05227 
                      05228 
002508 C146 FFE8      05229                         MOVFF   BTCOUNT,WREG
00250C 90D8           05230                         BCF             STATUS,C
00250E 36E8           05231                         RLCF    WREG
                      05232 
                      05233                 
002510 26F9           05234                         ADDWF   PCL,1,0
002512 0C83 0CFF 0CFF 05235                         DT      B'10000011',B'11111111',B'11111111'     ;BTC=10
002518 0C81 0CFF 0CFF 05236                         DT      B'10000001',B'11111111',B'11111111'     ;BTC=11
00251E 0C80 0CFF 0CFF 05237                         DT      B'10000000',B'11111111',B'11111111'     ;BTC=12
002524 0C80 0C7F 0CFF 05238                         DT      B'10000000',B'01111111',B'11111111'     ;BTC=13
00252A 0C80 0C3F 0CFF 05239                         DT      B'10000000',B'00111111',B'11111111'     ;BTC=14
002530 0C84 0C1F 0CFF 05240                         DT      B'10000100',B'00011111',B'11111111'     ;BTC=15
002536 0C86 0C0F 0CFF 05241                         DT      B'10000110',B'00001111',B'11111111'     ;BTC=16
00253C 0C87 0C07 0CFF 05242                         DT      B'10000111',B'00000111',B'11111111'     ;BTC=17
002542 0C87 0C83 0CFF 05243                         DT      B'10000111',B'10000011',B'11111111'     ;BTC=18
002548 0C87 0CC1 0CFF 05244                         DT      B'10000111',B'11000001',B'11111111'     ;BTC=19
00254E 0C87 0CE0 0CFF 05245                         DT      B'10000111',B'11100000',B'11111111'     ;BTC=1A
002554 0C87 0CF0 0C7F 05246                         DT      B'10000111',B'11110000',B'01111111'     ;BTC=1B
00255A 0C87 0CF8 0C3F 05247                         DT      B'10000111',B'11111000',B'00111111'     ;BTC=1C
002560 0C87 0CFC 0C1F 05248                         DT      B'10000111',B'11111100',B'00011111'     ;BTC=1D
002566 0C87 0CFE 0C0F 05249                         DT      B'10000111',B'11111110',B'00001111'     ;BTC=1E
00256C 0CFF 0CFF 0CFF 05250                         DT      B'11111111',B'11111111',B'11111111'     ;BTC=1F
                      05251 
                      05252 
002572                05253 FONT02L_LOW_K
                      05254 
002572 0E00           05255         MOVLW   0
002574 6EFB           05256         MOVWF   PCLATU,0
002576 0E25           05257         MOVLW   25
002578 6EFA           05258         MOVWF   PCLATH,0
                      05259 
                      05260 
                      05261 
                      05262 
00257A C146 FFE8      05263                         MOVFF   BTCOUNT,WREG
00257E 90D8           05264                         BCF             STATUS,C
002580 36E8           05265                         RLCF    WREG
                      05266 
                      05267                 
002582 26F9           05268                         ADDWF   PCL,1,0
002584 0C88 0CFF 0CFF 05269                         DT      B'10001000',B'11111111',B'11111111'     ;BTC=10
00258A 0C88 0CFF 0CFF 05270                         DT      B'10001000',B'11111111',B'11111111'     ;BTC=11
002590 0C81 0CFF 0CFF 05271                         DT      B'10000001',B'11111111',B'11111111'     ;BTC=12
002596 0C81 0CFF 0CFF 05272                         DT      B'10000001',B'11111111',B'11111111'     ;BTC=13
00259C 0C81 0CFF 0CFF 05273                         DT      B'10000001',B'11111111',B'11111111'     ;BTC=14
0025A2 0C88 0CFF 0CFF 05274                         DT      B'10001000',B'11111111',B'11111111'     ;BTC=15
MPASM  5.51               20191125_RTCGPU.ASM   4-30-2024  22:19:12         PAGE 104


LOC  OBJECT CODE     LINE SOURCE TEXT
  VALUE

0025A8 0C88 0CFF 0CFF 05275                         DT      B'10001000',B'11111111',B'11111111'     ;BTC=16
0025AE 0C8C 0C7F 0CFF 05276                         DT      B'10001100',B'01111111',B'11111111'     ;BTC=17
0025B4 0C8C 0C7F 0CFF 05277                         DT      B'10001100',B'01111111',B'11111111'     ;BTC=18
0025BA 0C8E 0C3F 0CFF 05278                         DT      B'10001110',B'00111111',B'11111111'     ;BTC=19
0025C0 0C8E 0C3F 0CFF 05279                         DT      B'10001110',B'00111111',B'11111111'     ;BTC=1A
0025C6 0C8F 0C1F 0CFF 05280                         DT      B'10001111',B'00011111',B'11111111'     ;BTC=1B
0025CC 0C8F 0C1F 0CFF 05281                         DT      B'10001111',B'00011111',B'11111111'     ;BTC=1C
0025D2 0C8F 0C8F 0CFF 05282                         DT      B'10001111',B'10001111',B'11111111'     ;BTC=1D
0025D8 0C8F 0C8F 0CFF 05283                         DT      B'10001111',B'10001111',B'11111111'     ;BTC=1E
0025DE 0CFF 0CFF 0CFF 05284                         DT      B'11111111',B'11111111',B'11111111'     ;BTC=1F
                      05285 
                      05286 
Warning[205]: Found directive in column 1. (ORG)
002600                05287 ORG 0X2600
002600                05288 FONT02H_CAP_L
                      05289 
002600 0E00           05290         MOVLW   0
002602 6EFB           05291         MOVWF   PCLATU,0
002604 0E26           05292         MOVLW   26
002606 6EFA           05293         MOVWF   PCLATH,0
                      05294 
                      05295         
                      05296 
                      05297         
002608 C146 FFE8      05298                         MOVFF   BTCOUNT,WREG
00260C 90D8           05299                         BCF             STATUS,C
00260E 36E8           05300                         RLCF    WREG
                      05301 
                      05302                 
002610 26F9           05303                         ADDWF   PCL,1,0
002612 0CFF 0CFF 0CFF 05304                         DT      B'11111111',B'11111111',B'11111111'     ;BTC=00
002618 0C87 0CFF 0CFF 05305                         DT      B'10000111',B'11111111',B'11111111'     ;BTC=01
00261E 0C87 0CFF 0CFF 05306                         DT      B'10000111',B'11111111',B'11111111'     ;BTC=02
002624 0C87 0CFF 0CFF 05307                         DT      B'10000111',B'11111111',B'11111111'     ;BTC=03
00262A 0C87 0CFF 0CFF 05308                         DT      B'10000111',B'11111111',B'11111111'     ;BTC=04
002630 0C87 0CFF 0CFF 05309                         DT      B'10000111',B'11111111',B'11111111'     ;BTC=05
002636 0C87 0CFF 0CFF 05310                         DT      B'10000111',B'11111111',B'11111111'     ;BTC=06
00263C 0C87 0CFF 0CFF 05311                         DT      B'10000111',B'11111111',B'11111111'     ;BTC=07
002642 0C87 0CFF 0CFF 05312                         DT      B'10000111',B'11111111',B'11111111'     ;BTC=08
002648 0C87 0CFF 0CFF 05313                         DT      B'10000111',B'11111111',B'11111111'     ;BTC=09
00264E 0C87 0CFF 0CFF 05314                         DT      B'10000111',B'11111111',B'11111111'     ;BTC=0A
002654 0C87 0CFF 0CFF 05315                         DT      B'10000111',B'11111111',B'11111111'     ;BTC=0B
00265A 0C87 0CFF 0CFF 05316                         DT      B'10000111',B'11111111',B'11111111'     ;BTC=0C
002660 0C87 0CFF 0CFF 05317                         DT      B'10000111',B'11111111',B'11111111'     ;BTC=0D
002666 0C87 0CFF 0CFF 05318                         DT      B'10000111',B'11111111',B'11111111'     ;BTC=0E
00266C 0C87 0CFF 0CFF 05319                         DT      B'10000111',B'11111111',B'11111111'     ;BTC=0F
                      05320 
002672                05321 FONT02H_LOW_L
                      05322 
002672 0E00           05323         MOVLW   0
002674 6EFB           05324         MOVWF   PCLATU,0
002676 0E26           05325         MOVLW   26
002678 6EFA           05326         MOVWF   PCLATH,0
MPASM  5.51               20191125_RTCGPU.ASM   4-30-2024  22:19:12         PAGE 105


LOC  OBJECT CODE     LINE SOURCE TEXT
  VALUE

                      05327 
                      05328         
                      05329 
                      05330         
00267A C146 FFE8      05331                         MOVFF   BTCOUNT,WREG
00267E 90D8           05332                         BCF             STATUS,C
002680 36E8           05333                         RLCF    WREG
                      05334 
                      05335                 
002682 26F9           05336                         ADDWF   PCL,1,0
002684 0CFF 0CFF 0CFF 05337                         DT      B'11111111',B'11111111',B'11111111'     ;BTC=00
00268A 0C8F 0CFF 0CFF 05338                         DT      B'10001111',B'11111111',B'11111111'     ;BTC=01
002690 0C8F 0CFF 0CFF 05339                         DT      B'10001111',B'11111111',B'11111111'     ;BTC=02
002696 0C8F 0CFF 0CFF 05340                         DT      B'10001111',B'11111111',B'11111111'     ;BTC=03
00269C 0C8F 0CFF 0CFF 05341                         DT      B'10001111',B'11111111',B'11111111'     ;BTC=04
0026A2 0C8F 0CFF 0CFF 05342                         DT      B'10001111',B'11111111',B'11111111'     ;BTC=05
0026A8 0C8F 0CFF 0CFF 05343                         DT      B'10001111',B'11111111',B'11111111'     ;BTC=06
0026AE 0C8F 0CFF 0CFF 05344                         DT      B'10001111',B'11111111',B'11111111'     ;BTC=07
0026B4 0C8F 0CFF 0CFF 05345                         DT      B'10001111',B'11111111',B'11111111'     ;BTC=08
0026BA 0C8F 0CFF 0CFF 05346                         DT      B'10001111',B'11111111',B'11111111'     ;BTC=09
0026C0 0C8F 0CFF 0CFF 05347                         DT      B'10001111',B'11111111',B'11111111'     ;BTC=0A
0026C6 0C8F 0CFF 0CFF 05348                         DT      B'10001111',B'11111111',B'11111111'     ;BTC=0B
0026CC 0C8F 0CFF 0CFF 05349                         DT      B'10001111',B'11111111',B'11111111'     ;BTC=0C
0026D2 0C8F 0CFF 0CFF 05350                         DT      B'10001111',B'11111111',B'11111111'     ;BTC=0D
0026D8 0C8F 0CFF 0CFF 05351                         DT      B'10001111',B'11111111',B'11111111'     ;BTC=0E
0026DE 0C8F 0CFF 0CFF 05352                         DT      B'10001111',B'11111111',B'11111111'     ;BTC=0F
                      05353 
                      05354 
                      05355 
Warning[205]: Found directive in column 1. (ORG)
002700                05356 ORG 0X2700
002700                05357 FONT02L_CAP_L
                      05358 
002700 0E00           05359         MOVLW   0
002702 6EFB           05360         MOVWF   PCLATU,0
002704 0E27           05361         MOVLW   27
002706 6EFA           05362         MOVWF   PCLATH,0
                      05363 
                      05364 
                      05365 
                      05366 
002708 C146 FFE8      05367                         MOVFF   BTCOUNT,WREG
00270C 90D8           05368                         BCF             STATUS,C
00270E 36E8           05369                         RLCF    WREG
                      05370 
                      05371                 
002710 26F9           05372                         ADDWF   PCL,1,0
002712 0C87 0CFF 0CFF 05373                         DT      B'10000111',B'11111111',B'11111111'     ;BTC=10
002718 0C87 0CFF 0CFF 05374                         DT      B'10000111',B'11111111',B'11111111'     ;BTC=11
00271E 0C87 0CFF 0CFF 05375                         DT      B'10000111',B'11111111',B'11111111'     ;BTC=12
002724 0C87 0CFF 0CFF 05376                         DT      B'10000111',B'11111111',B'11111111'     ;BTC=13
00272A 0C87 0CFF 0CFF 05377                         DT      B'10000111',B'11111111',B'11111111'     ;BTC=14
002730 0C87 0CFF 0CFF 05378                         DT      B'10000111',B'11111111',B'11111111'     ;BTC=15
MPASM  5.51               20191125_RTCGPU.ASM   4-30-2024  22:19:12         PAGE 106


LOC  OBJECT CODE     LINE SOURCE TEXT
  VALUE

002736 0C87 0CFF 0CFF 05379                         DT      B'10000111',B'11111111',B'11111111'     ;BTC=16
00273C 0C87 0CFF 0CFF 05380                         DT      B'10000111',B'11111111',B'11111111'     ;BTC=17
002742 0C87 0CFF 0CFF 05381                         DT      B'10000111',B'11111111',B'11111111'     ;BTC=18
002748 0C87 0CFF 0CFF 05382                         DT      B'10000111',B'11111111',B'11111111'     ;BTC=19
00274E 0C87 0CFF 0CFF 05383                         DT      B'10000111',B'11111111',B'11111111'     ;BTC=1A
002754 0C80 0C01 0CFF 05384                         DT      B'10000000',B'00000001',B'11111111'     ;BTC=1B
00275A 0C80 0C01 0CFF 05385                         DT      B'10000000',B'00000001',B'11111111'     ;BTC=1C
002760 0C80 0C01 0CFF 05386                         DT      B'10000000',B'00000001',B'11111111'     ;BTC=1D
002766 0C80 0C01 0CFF 05387                         DT      B'10000000',B'00000001',B'11111111'     ;BTC=1E
00276C 0CFF 0CFF 0CFF 05388                         DT      B'11111111',B'11111111',B'11111111'     ;BTC=1F
                      05389 
002772                05390 FONT02L_LOW_L
                      05391 
002772 0E00           05392         MOVLW   0
002774 6EFB           05393         MOVWF   PCLATU,0
002776 0E27           05394         MOVLW   27
002778 6EFA           05395         MOVWF   PCLATH,0
                      05396 
                      05397 
                      05398 
                      05399 
00277A C146 FFE8      05400                         MOVFF   BTCOUNT,WREG
00277E 90D8           05401                         BCF             STATUS,C
002780 36E8           05402                         RLCF    WREG
                      05403 
                      05404                 
002782 26F9           05405                         ADDWF   PCL,1,0
002784 0C8F 0CFF 0CFF 05406                         DT      B'10001111',B'11111111',B'11111111'     ;BTC=10
00278A 0C8F 0CFF 0CFF 05407                         DT      B'10001111',B'11111111',B'11111111'     ;BTC=11
002790 0C8F 0CFF 0CFF 05408                         DT      B'10001111',B'11111111',B'11111111'     ;BTC=12
002796 0C8F 0CFF 0CFF 05409                         DT      B'10001111',B'11111111',B'11111111'     ;BTC=13
00279C 0C8F 0CFF 0CFF 05410                         DT      B'10001111',B'11111111',B'11111111'     ;BTC=14
0027A2 0C8F 0CFF 0CFF 05411                         DT      B'10001111',B'11111111',B'11111111'     ;BTC=15
0027A8 0C8F 0CFF 0CFF 05412                         DT      B'10001111',B'11111111',B'11111111'     ;BTC=16
0027AE 0C8F 0CFF 0CFF 05413                         DT      B'10001111',B'11111111',B'11111111'     ;BTC=17
0027B4 0C8F 0CFF 0CFF 05414                         DT      B'10001111',B'11111111',B'11111111'     ;BTC=18
0027BA 0C8F 0CFF 0CFF 05415                         DT      B'10001111',B'11111111',B'11111111'     ;BTC=19
0027C0 0C8F 0CFF 0CFF 05416                         DT      B'10001111',B'11111111',B'11111111'     ;BTC=1A
0027C6 0C8F 0CFF 0CFF 05417                         DT      B'10001111',B'11111111',B'11111111'     ;BTC=1B
0027CC 0C8F 0CFF 0CFF 05418                         DT      B'10001111',B'11111111',B'11111111'     ;BTC=1C
0027D2 0C8F 0CFF 0CFF 05419                         DT      B'10001111',B'11111111',B'11111111'     ;BTC=1D
0027D8 0C8F 0CFF 0CFF 05420                         DT      B'10001111',B'11111111',B'11111111'     ;BTC=1E
0027DE 0CFF 0CFF 0CFF 05421                         DT      B'11111111',B'11111111',B'11111111'     ;BTC=1F
                      05422 
                      05423 
                      05424 
                      05425 
Warning[205]: Found directive in column 1. (ORG)
002800                05426 ORG 0X2800
002800                05427 FONT02H_CAP_M
                      05428 
002800 0E00           05429         MOVLW   0
002802 6EFB           05430         MOVWF   PCLATU,0
MPASM  5.51               20191125_RTCGPU.ASM   4-30-2024  22:19:12         PAGE 107


LOC  OBJECT CODE     LINE SOURCE TEXT
  VALUE

002804 0E28           05431         MOVLW   28
002806 6EFA           05432         MOVWF   PCLATH,0
                      05433 
                      05434         
                      05435 
                      05436         
002808 C146 FFE8      05437                         MOVFF   BTCOUNT,WREG
00280C 90D8           05438                         BCF             STATUS,C
00280E 36E8           05439                         RLCF    WREG
                      05440 
                      05441                 
002810 26F9           05442                         ADDWF   PCL,1,0
002812 0CFF 0CFF 0CFF 05443                         DT      B'11111111',B'11111111',B'11111111'     ;BTC=00
002818 0C87 0CFF 0C0F 05444                         DT      B'10000111',B'11111111',B'00001111'     ;BTC=01
00281E 0C87 0CFF 0C0F 05445                         DT      B'10000111',B'11111111',B'00001111'     ;BTC=02
002824 0C87 0CFF 0C0F 05446                         DT      B'10000111',B'11111111',B'00001111'     ;BTC=03
00282A 0C83 0CFE 0C0F 05447                         DT      B'10000011',B'11111110',B'00001111'     ;BTC=04
002830 0C81 0CFC 0C0F 05448                         DT      B'10000001',B'11111100',B'00001111'     ;BTC=05
002836 0C80 0CF8 0C0F 05449                         DT      B'10000000',B'11111000',B'00001111'     ;BTC=06
00283C 0C80 0C70 0C0F 05450                         DT      B'10000000',B'01110000',B'00001111'     ;BTC=07
002842 0C84 0C21 0C0F 05451                         DT      B'10000100',B'00100001',B'00001111'     ;BTC=08
002848 0C86 0C03 0C0F 05452                         DT      B'10000110',B'00000011',B'00001111'     ;BTC=09
00284E 0C87 0C07 0C0F 05453                         DT      B'10000111',B'00000111',B'00001111'     ;BTC=0A
002854 0C87 0C8F 0C0F 05454                         DT      B'10000111',B'10001111',B'00001111'     ;BTC=0B
00285A 0C87 0CDF 0C0F 05455                         DT      B'10000111',B'11011111',B'00001111'     ;BTC=0C
002860 0C87 0CFF 0C0F 05456                         DT      B'10000111',B'11111111',B'00001111'     ;BTC=0D
002866 0C87 0CFF 0C0F 05457                         DT      B'10000111',B'11111111',B'00001111'     ;BTC=0E
00286C 0C87 0CFF 0C0F 05458                         DT      B'10000111',B'11111111',B'00001111'     ;BTC=0F
                      05459 
                      05460 
002872                05461 FONT02H_LOW_M
                      05462 
002872 0E00           05463         MOVLW   0
002874 6EFB           05464         MOVWF   PCLATU,0
002876 0E28           05465         MOVLW   28
002878 6EFA           05466         MOVWF   PCLATH,0
                      05467 
                      05468         
                      05469 
                      05470         
00287A C146 FFE8      05471                         MOVFF   BTCOUNT,WREG
00287E 90D8           05472                         BCF             STATUS,C
002880 36E8           05473                         RLCF    WREG
                      05474 
                      05475                 
002882 26F9           05476                         ADDWF   PCL,1,0
002884 0CFF 0CFF 0CFF 05477                         DT      B'11111111',B'11111111',B'11111111'     ;BTC=00
00288A 0CFF 0CFF 0CFF 05478                         DT      B'11111111',B'11111111',B'11111111'     ;BTC=01
002890 0CFF 0CFF 0CFF 05479                         DT      B'11111111',B'11111111',B'11111111'     ;BTC=02
002896 0CFF 0CFF 0CFF 05480                         DT      B'11111111',B'11111111',B'11111111'     ;BTC=03
00289C 0CFF 0CFF 0CFF 05481                         DT      B'11111111',B'11111111',B'11111111'     ;BTC=04
0028A2 0CFF 0CFF 0CFF 05482                         DT      B'11111111',B'11111111',B'11111111'     ;BTC=05
0028A8 0CFF 0CFF 0CFF 05483                         DT      B'11111111',B'11111111',B'11111111'     ;BTC=06
MPASM  5.51               20191125_RTCGPU.ASM   4-30-2024  22:19:12         PAGE 108


LOC  OBJECT CODE     LINE SOURCE TEXT
  VALUE

0028AE 0CFF 0CFF 0CFF 05484                         DT      B'11111111',B'11111111',B'11111111'     ;BTC=07
0028B4 0CFF 0CFF 0CFF 05485                         DT      B'11111111',B'11111111',B'11111111'     ;BTC=08
0028BA 0CFF 0CFF 0CFF 05486                         DT      B'11111111',B'11111111',B'11111111'     ;BTC=09
0028C0 0CFF 0CFF 0CFF 05487                         DT      B'11111111',B'11111111',B'11111111'     ;BTC=0A
0028C6 0CFF 0CFF 0CFF 05488                         DT      B'11111111',B'11111111',B'11111111'     ;BTC=0B
0028CC 0CFF 0CFF 0CFF 05489                         DT      B'11111111',B'11111111',B'11111111'     ;BTC=0C
0028D2 0CFF 0CFF 0CFF 05490                         DT      B'11111111',B'11111111',B'11111111'     ;BTC=0D
0028D8 0C88 0CE0 0CFF 05491                         DT      B'10001000',B'11100000',B'11111111'     ;BTC=0E
0028DE 0C80 0C40 0C7F 05492                         DT      B'10000000',B'01000000',B'01111111'     ;BTC=0F
                      05493 
                      05494 
                      05495 
Warning[205]: Found directive in column 1. (ORG)
002900                05496 ORG 0X2900
002900                05497 FONT02L_CAP_M
                      05498 
002900 0E00           05499         MOVLW   0
002902 6EFB           05500         MOVWF   PCLATU,0
002904 0E29           05501         MOVLW   29
002906 6EFA           05502         MOVWF   PCLATH,0
                      05503 
                      05504 
                      05505 
                      05506 
002908 C146 FFE8      05507                         MOVFF   BTCOUNT,WREG
00290C 90D8           05508                         BCF             STATUS,C
00290E 36E8           05509                         RLCF    WREG
                      05510 
                      05511                 
002910 26F9           05512                         ADDWF   PCL,1,0
002912 0C87 0CFF 0C0F 05513                         DT      B'10000111',B'11111111',B'00001111'     ;BTC=10
002918 0C87 0CFF 0C0F 05514                         DT      B'10000111',B'11111111',B'00001111'     ;BTC=11
00291E 0C87 0CFF 0C0F 05515                         DT      B'10000111',B'11111111',B'00001111'     ;BTC=12
002924 0C87 0CFF 0C0F 05516                         DT      B'10000111',B'11111111',B'00001111'     ;BTC=13
00292A 0C87 0CFF 0C0F 05517                         DT      B'10000111',B'11111111',B'00001111'     ;BTC=14
002930 0C87 0CFF 0C0F 05518                         DT      B'10000111',B'11111111',B'00001111'     ;BTC=15
002936 0C87 0CFF 0C0F 05519                         DT      B'10000111',B'11111111',B'00001111'     ;BTC=16
00293C 0C87 0CFF 0C0F 05520                         DT      B'10000111',B'11111111',B'00001111'     ;BTC=17
002942 0C87 0CFF 0C0F 05521                         DT      B'10000111',B'11111111',B'00001111'     ;BTC=18
002948 0C87 0CFF 0C0F 05522                         DT      B'10000111',B'11111111',B'00001111'     ;BTC=19
00294E 0C87 0CFF 0C0F 05523                         DT      B'10000111',B'11111111',B'00001111'     ;BTC=1A
002954 0C87 0CFF 0C0F 05524                         DT      B'10000111',B'11111111',B'00001111'     ;BTC=1B
00295A 0C87 0CFF 0C0F 05525                         DT      B'10000111',B'11111111',B'00001111'     ;BTC=1C
002960 0C87 0CFF 0C0F 05526                         DT      B'10000111',B'11111111',B'00001111'     ;BTC=1D
002966 0C87 0CFF 0C0F 05527                         DT      B'10000111',B'11111111',B'00001111'     ;BTC=1E
00296C 0CFF 0CFF 0CFF 05528                         DT      B'11111111',B'11111111',B'11111111'     ;BTC=1F
                      05529 
                      05530 
002972                05531 FONT02L_LOW_M
                      05532 
002972 0E00           05533         MOVLW   0
002974 6EFB           05534         MOVWF   PCLATU,0
002976 0E29           05535         MOVLW   29
MPASM  5.51               20191125_RTCGPU.ASM   4-30-2024  22:19:12         PAGE 109


LOC  OBJECT CODE     LINE SOURCE TEXT
  VALUE

002978 6EFA           05536         MOVWF   PCLATH,0
                      05537 
                      05538 
                      05539 
                      05540 
00297A C146 FFE8      05541                         MOVFF   BTCOUNT,WREG
00297E 90D8           05542                         BCF             STATUS,C
002980 36E8           05543                         RLCF    WREG
                      05544 
                      05545                 
002982 26F9           05546                         ADDWF   PCL,1,0
002984 0C80 0C00 0C3F 05547                         DT      B'10000000',B'00000000',B'00111111'     ;BTC=10
00298A 0C86 0C0C 0C3F 05548                         DT      B'10000110',B'00001100',B'00111111'     ;BTC=11
002990 0C8F 0C1E 0C3F 05549                         DT      B'10001111',B'00011110',B'00111111'     ;BTC=12
002996 0C8F 0C1E 0C3F 05550                         DT      B'10001111',B'00011110',B'00111111'     ;BTC=13
00299C 0C8F 0C1E 0C3F 05551                         DT      B'10001111',B'00011110',B'00111111'     ;BTC=14
0029A2 0C8F 0C1E 0C3F 05552                         DT      B'10001111',B'00011110',B'00111111'     ;BTC=15
0029A8 0C8F 0C1E 0C3F 05553                         DT      B'10001111',B'00011110',B'00111111'     ;BTC=16
0029AE 0C8F 0C1E 0C3F 05554                         DT      B'10001111',B'00011110',B'00111111'     ;BTC=17
0029B4 0C8F 0C1E 0C3F 05555                         DT      B'10001111',B'00011110',B'00111111'     ;BTC=18
0029BA 0C8F 0C1E 0C3F 05556                         DT      B'10001111',B'00011110',B'00111111'     ;BTC=19
0029C0 0C8F 0C1E 0C3F 05557                         DT      B'10001111',B'00011110',B'00111111'     ;BTC=1A
0029C6 0C8F 0C1E 0C3F 05558                         DT      B'10001111',B'00011110',B'00111111'     ;BTC=1B
0029CC 0C8F 0C1E 0C3F 05559                         DT      B'10001111',B'00011110',B'00111111'     ;BTC=1C
0029D2 0C8F 0C1E 0C3F 05560                         DT      B'10001111',B'00011110',B'00111111'     ;BTC=1D
0029D8 0C8F 0C1E 0C3F 05561                         DT      B'10001111',B'00011110',B'00111111'     ;BTC=1E
0029DE 0CFF 0CFF 0CFF 05562                         DT      B'11111111',B'11111111',B'11111111'     ;BTC=1F
                      05563 
                      05564 
                      05565 
                      05566 
                      05567 
                      05568 
Warning[205]: Found directive in column 1. (ORG)
002A00                05569 ORG 0X2A00
002A00                05570 FONT02H_CAP_N
                      05571 
002A00 0E00           05572         MOVLW   0
002A02 6EFB           05573         MOVWF   PCLATU,0
002A04 0E2A           05574         MOVLW   2A
002A06 6EFA           05575         MOVWF   PCLATH,0
                      05576 
                      05577         
                      05578 
                      05579         
002A08 C146 FFE8      05580                         MOVFF   BTCOUNT,WREG
002A0C 90D8           05581                         BCF             STATUS,C
002A0E 36E8           05582                         RLCF    WREG
                      05583 
                      05584                 
002A10 26F9           05585                         ADDWF   PCL,1,0
002A12 0CFF 0CFF 0CFF 05586                         DT      B'11111111',B'11111111',B'11111111'     ;BTC=00
002A18 0C87 0CFF 0C0F 05587                         DT      B'10000111',B'11111111',B'00001111'     ;BTC=01
MPASM  5.51               20191125_RTCGPU.ASM   4-30-2024  22:19:12         PAGE 110


LOC  OBJECT CODE     LINE SOURCE TEXT
  VALUE

002A1E 0C87 0CFF 0C0F 05588                         DT      B'10000111',B'11111111',B'00001111'     ;BTC=02
002A24 0C87 0CFF 0C0F 05589                         DT      B'10000111',B'11111111',B'00001111'     ;BTC=03
002A2A 0C83 0CFF 0C0F 05590                         DT      B'10000011',B'11111111',B'00001111'     ;BTC=04
002A30 0C83 0CFF 0C0F 05591                         DT      B'10000011',B'11111111',B'00001111'     ;BTC=05
002A36 0C81 0CFF 0C0F 05592                         DT      B'10000001',B'11111111',B'00001111'     ;BTC=06
002A3C 0C81 0CFF 0C0F 05593                         DT      B'10000001',B'11111111',B'00001111'     ;BTC=07
002A42 0C80 0CFF 0C0F 05594                         DT      B'10000000',B'11111111',B'00001111'     ;BTC=08
002A48 0C80 0CFF 0C0F 05595                         DT      B'10000000',B'11111111',B'00001111'     ;BTC=09
002A4E 0C80 0C7F 0C0F 05596                         DT      B'10000000',B'01111111',B'00001111'     ;BTC=0A
002A54 0C80 0C7F 0C0F 05597                         DT      B'10000000',B'01111111',B'00001111'     ;BTC=0B
002A5A 0C84 0C3F 0C0F 05598                         DT      B'10000100',B'00111111',B'00001111'     ;BTC=0C
002A60 0C84 0C3F 0C0F 05599                         DT      B'10000100',B'00111111',B'00001111'     ;BTC=0D
002A66 0C86 0C1F 0C0F 05600                         DT      B'10000110',B'00011111',B'00001111'     ;BTC=0E
002A6C 0C86 0C1F 0C0F 05601                         DT      B'10000110',B'00011111',B'00001111'     ;BTC=0F
                      05602 
                      05603 
002A72                05604 FONT02H_LOW_N
                      05605 
002A72 0E00           05606         MOVLW   0
002A74 6EFB           05607         MOVWF   PCLATU,0
002A76 0E2A           05608         MOVLW   2A
002A78 6EFA           05609         MOVWF   PCLATH,0
                      05610 
                      05611         
                      05612 
                      05613         
002A7A C146 FFE8      05614                         MOVFF   BTCOUNT,WREG
002A7E 90D8           05615                         BCF             STATUS,C
002A80 36E8           05616                         RLCF    WREG
                      05617 
                      05618                 
002A82 26F9           05619                         ADDWF   PCL,1,0
002A84 0CFF 0CFF 0CFF 05620                         DT      B'11111111',B'11111111',B'11111111'     ;BTC=00
002A8A 0CFF 0CFF 0CFF 05621                         DT      B'11111111',B'11111111',B'11111111'     ;BTC=01
002A90 0CFF 0CFF 0CFF 05622                         DT      B'11111111',B'11111111',B'11111111'     ;BTC=02
002A96 0CFF 0CFF 0CFF 05623                         DT      B'11111111',B'11111111',B'11111111'     ;BTC=03
002A9C 0CFF 0CFF 0CFF 05624                         DT      B'11111111',B'11111111',B'11111111'     ;BTC=04
002AA2 0CFF 0CFF 0CFF 05625                         DT      B'11111111',B'11111111',B'11111111'     ;BTC=05
002AA8 0CFF 0CFF 0CFF 05626                         DT      B'11111111',B'11111111',B'11111111'     ;BTC=06
002AAE 0CFF 0CFF 0CFF 05627                         DT      B'11111111',B'11111111',B'11111111'     ;BTC=07
002AB4 0CFF 0CFF 0CFF 05628                         DT      B'11111111',B'11111111',B'11111111'     ;BTC=08
002ABA 0CFF 0CFF 0CFF 05629                         DT      B'11111111',B'11111111',B'11111111'     ;BTC=09
002AC0 0CFF 0CFF 0CFF 05630                         DT      B'11111111',B'11111111',B'11111111'     ;BTC=0A
002AC6 0CFF 0CFF 0CFF 05631                         DT      B'11111111',B'11111111',B'11111111'     ;BTC=0B
002ACC 0CFF 0CFF 0CFF 05632                         DT      B'11111111',B'11111111',B'11111111'     ;BTC=0C
002AD2 0CFF 0CFF 0CFF 05633                         DT      B'11111111',B'11111111',B'11111111'     ;BTC=0D
002AD8 0C88 0C01 0CFF 05634                         DT      B'10001000',B'00000001',B'11111111'     ;BTC=0E
002ADE 0C80 0C00 0CFF 05635                         DT      B'10000000',B'00000000',B'11111111'     ;BTC=0F
                      05636 
                      05637 
Warning[205]: Found directive in column 1. (ORG)
002B00                05638 ORG 0X2B00
002B00                05639 FONT02L_CAP_N
MPASM  5.51               20191125_RTCGPU.ASM   4-30-2024  22:19:12         PAGE 111


LOC  OBJECT CODE     LINE SOURCE TEXT
  VALUE

                      05640 
002B00 0E00           05641         MOVLW   0
002B02 6EFB           05642         MOVWF   PCLATU,0
002B04 0E2B           05643         MOVLW   2B
002B06 6EFA           05644         MOVWF   PCLATH,0
                      05645 
                      05646 
                      05647 
                      05648 
002B08 C146 FFE8      05649                         MOVFF   BTCOUNT,WREG
002B0C 90D8           05650                         BCF             STATUS,C
002B0E 36E8           05651                         RLCF    WREG
                      05652 
                      05653                 
002B10 26F9           05654                         ADDWF   PCL,1,0
002B12 0C87 0C0F 0C0F 05655                         DT      B'10000111',B'00001111',B'00001111'     ;BTC=10
002B18 0C87 0C0F 0C0F 05656                         DT      B'10000111',B'00001111',B'00001111'     ;BTC=11
002B1E 0C87 0C87 0C0F 05657                         DT      B'10000111',B'10000111',B'00001111'     ;BTC=12
002B24 0C87 0C87 0C0F 05658                         DT      B'10000111',B'10000111',B'00001111'     ;BTC=13
002B2A 0C87 0CC3 0C0F 05659                         DT      B'10000111',B'11000011',B'00001111'     ;BTC=14
002B30 0C87 0CC3 0C0F 05660                         DT      B'10000111',B'11000011',B'00001111'     ;BTC=15
002B36 0C87 0CE1 0C0F 05661                         DT      B'10000111',B'11100001',B'00001111'     ;BTC=16
002B3C 0C87 0CE1 0C0F 05662                         DT      B'10000111',B'11100001',B'00001111'     ;BTC=17
002B42 0C87 0CF0 0C0F 05663                         DT      B'10000111',B'11110000',B'00001111'     ;BTC=18
002B48 0C87 0CF0 0C0F 05664                         DT      B'10000111',B'11110000',B'00001111'     ;BTC=19
002B4E 0C87 0CF8 0C0F 05665                         DT      B'10000111',B'11111000',B'00001111'     ;BTC=1A
002B54 0C87 0CFC 0C0F 05666                         DT      B'10000111',B'11111100',B'00001111'     ;BTC=1B
002B5A 0C87 0CFC 0C0F 05667                         DT      B'10000111',B'11111100',B'00001111'     ;BTC=1C
002B60 0C87 0CFE 0C0F 05668                         DT      B'10000111',B'11111110',B'00001111'     ;BTC=1D
002B66 0C87 0CFE 0C0F 05669                         DT      B'10000111',B'11111110',B'00001111'     ;BTC=1E
002B6C 0CFF 0CFF 0CFF 05670                         DT      B'11111111',B'11111111',B'11111111'     ;BTC=1F
                      05671 
002B72                05672 FONT02L_LOW_N
                      05673 
002B72 0E00           05674         MOVLW   0
002B74 6EFB           05675         MOVWF   PCLATU,0
002B76 0E2B           05676         MOVLW   2B
002B78 6EFA           05677         MOVWF   PCLATH,0
                      05678 
                      05679 
                      05680 
                      05681 
002B7A C146 FFE8      05682                         MOVFF   BTCOUNT,WREG
002B7E 90D8           05683                         BCF             STATUS,C
002B80 36E8           05684                         RLCF    WREG
                      05685 
                      05686                 
002B82 26F9           05687                         ADDWF   PCL,1,0
002B84 0C80 0C00 0C7F 05688                         DT      B'10000000',B'00000000',B'01111111'     ;BTC=10
002B8A 0C87 0CF8 0C7F 05689                         DT      B'10000111',B'11111000',B'01111111'     ;BTC=11
002B90 0C8F 0CFC 0C7F 05690                         DT      B'10001111',B'11111100',B'01111111'     ;BTC=12
002B96 0C8F 0CFC 0C7F 05691                         DT      B'10001111',B'11111100',B'01111111'     ;BTC=13
002B9C 0C8F 0CFC 0C7F 05692                         DT      B'10001111',B'11111100',B'01111111'     ;BTC=14
MPASM  5.51               20191125_RTCGPU.ASM   4-30-2024  22:19:12         PAGE 112


LOC  OBJECT CODE     LINE SOURCE TEXT
  VALUE

002BA2 0C8F 0CFC 0C7F 05693                         DT      B'10001111',B'11111100',B'01111111'     ;BTC=15
002BA8 0C8F 0CFC 0C7F 05694                         DT      B'10001111',B'11111100',B'01111111'     ;BTC=16
002BAE 0C8F 0CFC 0C7F 05695                         DT      B'10001111',B'11111100',B'01111111'     ;BTC=17
002BB4 0C8F 0CFC 0C7F 05696                         DT      B'10001111',B'11111100',B'01111111'     ;BTC=18
002BBA 0C8F 0CFC 0C7F 05697                         DT      B'10001111',B'11111100',B'01111111'     ;BTC=19
002BC0 0C8F 0CFC 0C7F 05698                         DT      B'10001111',B'11111100',B'01111111'     ;BTC=1A
002BC6 0C8F 0CFC 0C7F 05699                         DT      B'10001111',B'11111100',B'01111111'     ;BTC=1B
002BCC 0C8F 0CFC 0C7F 05700                         DT      B'10001111',B'11111100',B'01111111'     ;BTC=1C
002BD2 0C8F 0CFC 0C7F 05701                         DT      B'10001111',B'11111100',B'01111111'     ;BTC=1D
002BD8 0C8F 0CFC 0C7F 05702                         DT      B'10001111',B'11111100',B'01111111'     ;BTC=1E
002BDE 0CFF 0CFF 0CFF 05703                         DT      B'11111111',B'11111111',B'11111111'     ;BTC=1F
                      05704 
Warning[205]: Found directive in column 1. (ORG)
002C00                05705 ORG 0X2C00
002C00                05706 FONT02H_CAP_O
                      05707 
002C00 0E00           05708         MOVLW   0
002C02 6EFB           05709         MOVWF   PCLATU,0
002C04 0E2C           05710         MOVLW   2C
002C06 6EFA           05711         MOVWF   PCLATH,0
                      05712 
                      05713         
                      05714 
                      05715         
002C08 C146 FFE8      05716                         MOVFF   BTCOUNT,WREG
002C0C 90D8           05717                         BCF             STATUS,C
002C0E 36E8           05718                         RLCF    WREG
                      05719 
                      05720                 
002C10 26F9           05721                         ADDWF   PCL,1,0
002C12 0CFF 0CFF 0CFF 05722                         DT      B'11111111',B'11111111',B'11111111'     ;BTC=00
002C18 0CFC 0C01 0CFF 05723                         DT      B'11111100',B'00000001',B'11111111'     ;BTC=01
002C1E 0CF8 0C00 0CFF 05724                         DT      B'11111000',B'00000000',B'11111111'     ;BTC=02
002C24 0CF0 0C00 0C7F 05725                         DT      B'11110000',B'00000000',B'01111111'     ;BTC=03
002C2A 0CE0 0CF8 0C3F 05726                         DT      B'11100000',B'11111000',B'00111111'     ;BTC=04
002C30 0CC1 0CFC 0C1F 05727                         DT      B'11000001',B'11111100',B'00011111'     ;BTC=05
002C36 0C83 0CFE 0C0F 05728                         DT      B'10000011',B'11111110',B'00001111'     ;BTC=06
002C3C 0C87 0CFF 0C0F 05729                         DT      B'10000111',B'11111111',B'00001111'     ;BTC=07
002C42 0C87 0CFF 0C0F 05730                         DT      B'10000111',B'11111111',B'00001111'     ;BTC=08
002C48 0C87 0CFF 0C0F 05731                         DT      B'10000111',B'11111111',B'00001111'     ;BTC=09
002C4E 0C87 0CFF 0C0F 05732                         DT      B'10000111',B'11111111',B'00001111'     ;BTC=0A
002C54 0C87 0CFF 0C0F 05733                         DT      B'10000111',B'11111111',B'00001111'     ;BTC=0B
002C5A 0C87 0CFF 0C0F 05734                         DT      B'10000111',B'11111111',B'00001111'     ;BTC=0C
002C60 0C87 0CFF 0C0F 05735                         DT      B'10000111',B'11111111',B'00001111'     ;BTC=0D
002C66 0C87 0CFF 0C0F 05736                         DT      B'10000111',B'11111111',B'00001111'     ;BTC=0E
002C6C 0C87 0CFF 0C0F 05737                         DT      B'10000111',B'11111111',B'00001111'     ;BTC=0F
                      05738 
002C72                05739 FONT02H_LOW_O
                      05740 
002C72 0E00           05741         MOVLW   0
002C74 6EFB           05742         MOVWF   PCLATU,0
002C76 0E2C           05743         MOVLW   2C
002C78 6EFA           05744         MOVWF   PCLATH,0
MPASM  5.51               20191125_RTCGPU.ASM   4-30-2024  22:19:12         PAGE 113


LOC  OBJECT CODE     LINE SOURCE TEXT
  VALUE

                      05745 
                      05746         
                      05747 
                      05748         
002C7A C146 FFE8      05749                         MOVFF   BTCOUNT,WREG
002C7E 90D8           05750                         BCF             STATUS,C
002C80 36E8           05751                         RLCF    WREG
                      05752 
                      05753                 
002C82 26F9           05754                         ADDWF   PCL,1,0
002C84 0CFF 0CFF 0CFF 05755                         DT      B'11111111',B'11111111',B'11111111'     ;BTC=00
002C8A 0CFF 0CFF 0CFF 05756                         DT      B'11111111',B'11111111',B'11111111'     ;BTC=01
002C90 0CFF 0CFF 0CFF 05757                         DT      B'11111111',B'11111111',B'11111111'     ;BTC=02
002C96 0CFF 0CFF 0CFF 05758                         DT      B'11111111',B'11111111',B'11111111'     ;BTC=03
002C9C 0CFF 0CFF 0CFF 05759                         DT      B'11111111',B'11111111',B'11111111'     ;BTC=04
002CA2 0CFF 0CFF 0CFF 05760                         DT      B'11111111',B'11111111',B'11111111'     ;BTC=05
002CA8 0CFF 0CFF 0CFF 05761                         DT      B'11111111',B'11111111',B'11111111'     ;BTC=06
002CAE 0CFF 0CFF 0CFF 05762                         DT      B'11111111',B'11111111',B'11111111'     ;BTC=07
002CB4 0CFF 0CFF 0CFF 05763                         DT      B'11111111',B'11111111',B'11111111'     ;BTC=08
002CBA 0CFF 0CFF 0CFF 05764                         DT      B'11111111',B'11111111',B'11111111'     ;BTC=09
002CC0 0CFF 0CFF 0CFF 05765                         DT      B'11111111',B'11111111',B'11111111'     ;BTC=0A
002CC6 0CFF 0CFF 0CFF 05766                         DT      B'11111111',B'11111111',B'11111111'     ;BTC=0B
002CCC 0CFF 0CFF 0CFF 05767                         DT      B'11111111',B'11111111',B'11111111'     ;BTC=0C
002CD2 0CFF 0CFF 0CFF 05768                         DT      B'11111111',B'11111111',B'11111111'     ;BTC=0D
002CD8 0CE0 0C01 0CFF 05769                         DT      B'11100000',B'00000001',B'11111111'     ;BTC=0E
002CDE 0CC0 0C00 0CFF 05770                         DT      B'11000000',B'00000000',B'11111111'     ;BTC=0F
                      05771 
                      05772 
Warning[205]: Found directive in column 1. (ORG)
002D00                05773 ORG 0X2D00
002D00                05774 FONT02L_CAP_O
                      05775 
002D00 0E00           05776         MOVLW   0
002D02 6EFB           05777         MOVWF   PCLATU,0
002D04 0E2D           05778         MOVLW   2D
002D06 6EFA           05779         MOVWF   PCLATH,0
                      05780 
                      05781 
                      05782 
                      05783 
002D08 C146 FFE8      05784                         MOVFF   BTCOUNT,WREG
002D0C 90D8           05785                         BCF             STATUS,C
002D0E 36E8           05786                         RLCF    WREG
                      05787 
                      05788                 
002D10 26F9           05789                         ADDWF   PCL,1,0
002D12 0C87 0CFF 0C0F 05790                         DT      B'10000111',B'11111111',B'00001111'     ;BTC=10
002D18 0C87 0CFF 0C0F 05791                         DT      B'10000111',B'11111111',B'00001111'     ;BTC=11
002D1E 0C87 0CFF 0C0F 05792                         DT      B'10000111',B'11111111',B'00001111'     ;BTC=12
002D24 0C87 0CFF 0C0F 05793                         DT      B'10000111',B'11111111',B'00001111'     ;BTC=13
002D2A 0C87 0CFF 0C0F 05794                         DT      B'10000111',B'11111111',B'00001111'     ;BTC=14
002D30 0C87 0CFF 0C0F 05795                         DT      B'10000111',B'11111111',B'00001111'     ;BTC=15
002D36 0C87 0CFF 0C0F 05796                         DT      B'10000111',B'11111111',B'00001111'     ;BTC=16
MPASM  5.51               20191125_RTCGPU.ASM   4-30-2024  22:19:12         PAGE 114


LOC  OBJECT CODE     LINE SOURCE TEXT
  VALUE

002D3C 0C87 0CFF 0C0F 05797                         DT      B'10000111',B'11111111',B'00001111'     ;BTC=17
002D42 0C87 0CFF 0C0F 05798                         DT      B'10000111',B'11111111',B'00001111'     ;BTC=18
002D48 0C83 0CFE 0C0F 05799                         DT      B'10000011',B'11111110',B'00001111'     ;BTC=19
002D4E 0CC1 0CFC 0C1F 05800                         DT      B'11000001',B'11111100',B'00011111'     ;BTC=1A
002D54 0CE0 0CF8 0C3F 05801                         DT      B'11100000',B'11111000',B'00111111'     ;BTC=1B
002D5A 0CF0 0C00 0C7F 05802                         DT      B'11110000',B'00000000',B'01111111'     ;BTC=1C
002D60 0CF8 0C00 0CFF 05803                         DT      B'11111000',B'00000000',B'11111111'     ;BTC=1D
002D66 0CFC 0C01 0CFF 05804                         DT      B'11111100',B'00000001',B'11111111'     ;BTC=1E
002D6C 0CFF 0CFF 0CFF 05805                         DT      B'11111111',B'11111111',B'11111111'     ;BTC=1F
                      05806 
                      05807 
002D72                05808 FONT02L_LOW_O
                      05809 
002D72 0E00           05810         MOVLW   0
002D74 6EFB           05811         MOVWF   PCLATU,0
002D76 0E2D           05812         MOVLW   2D
002D78 6EFA           05813         MOVWF   PCLATH,0
                      05814 
                      05815 
                      05816 
                      05817 
002D7A C146 FFE8      05818                         MOVFF   BTCOUNT,WREG
002D7E 90D8           05819                         BCF             STATUS,C
002D80 36E8           05820                         RLCF    WREG
                      05821 
                      05822                 
002D82 26F9           05823                         ADDWF   PCL,1,0
002D84 0C80 0C00 0C7F 05824                         DT      B'10000000',B'00000000',B'01111111'     ;BTC=10
002D8A 0C87 0CF8 0C7F 05825                         DT      B'10000111',B'11111000',B'01111111'     ;BTC=11
002D90 0C8F 0CFC 0C7F 05826                         DT      B'10001111',B'11111100',B'01111111'     ;BTC=12
002D96 0C8F 0CFC 0C7F 05827                         DT      B'10001111',B'11111100',B'01111111'     ;BTC=13
002D9C 0C8F 0CFC 0C7F 05828                         DT      B'10001111',B'11111100',B'01111111'     ;BTC=14
002DA2 0C8F 0CFC 0C7F 05829                         DT      B'10001111',B'11111100',B'01111111'     ;BTC=15
002DA8 0C8F 0CFC 0C7F 05830                         DT      B'10001111',B'11111100',B'01111111'     ;BTC=16
002DAE 0C8F 0CFC 0C7F 05831                         DT      B'10001111',B'11111100',B'01111111'     ;BTC=17
002DB4 0C8F 0CFC 0C7F 05832                         DT      B'10001111',B'11111100',B'01111111'     ;BTC=18
002DBA 0C8F 0CFC 0C7F 05833                         DT      B'10001111',B'11111100',B'01111111'     ;BTC=19
002DC0 0C8F 0CFC 0C7F 05834                         DT      B'10001111',B'11111100',B'01111111'     ;BTC=1A
002DC6 0C87 0CF8 0C7F 05835                         DT      B'10000111',B'11111000',B'01111111'     ;BTC=1B
002DCC 0C80 0C00 0C7F 05836                         DT      B'10000000',B'00000000',B'01111111'     ;BTC=1C
002DD2 0CC0 0C00 0CFF 05837                         DT      B'11000000',B'00000000',B'11111111'     ;BTC=1D
002DD8 0CE0 0C01 0CFF 05838                         DT      B'11100000',B'00000001',B'11111111'     ;BTC=1E
002DDE 0CFF 0CFF 0CFF 05839                         DT      B'11111111',B'11111111',B'11111111'     ;BTC=1F
                      05840 
                      05841 
                      05842 
Warning[205]: Found directive in column 1. (ORG)
002E00                05843 ORG 0X2E00
002E00                05844 FONT02H_CAP_P
                      05845 
002E00 0E00           05846         MOVLW   0
002E02 6EFB           05847         MOVWF   PCLATU,0
002E04 0E2E           05848         MOVLW   2E
MPASM  5.51               20191125_RTCGPU.ASM   4-30-2024  22:19:12         PAGE 115


LOC  OBJECT CODE     LINE SOURCE TEXT
  VALUE

002E06 6EFA           05849         MOVWF   PCLATH,0
                      05850 
                      05851         
                      05852 
                      05853         
002E08 C146 FFE8      05854                         MOVFF   BTCOUNT,WREG
002E0C 90D8           05855                         BCF             STATUS,C
002E0E 36E8           05856                         RLCF    WREG
                      05857 
                      05858                 
002E10 26F9           05859                         ADDWF   PCL,1,0
002E12 0CFF 0CFF 0CFF 05860                         DT      B'11111111',B'11111111',B'11111111'     ;BTC=00
002E18 0C80 0C00 0CFF 05861                         DT      B'10000000',B'00000000',B'11111111'     ;BTC=01
002E1E 0C80 0C00 0C7F 05862                         DT      B'10000000',B'00000000',B'01111111'     ;BTC=02
002E24 0C80 0C00 0C3F 05863                         DT      B'10000000',B'00000000',B'00111111'     ;BTC=03
002E2A 0C87 0CFC 0C1F 05864                         DT      B'10000111',B'11111100',B'00011111'     ;BTC=04
002E30 0C87 0CFE 0C0F 05865                         DT      B'10000111',B'11111110',B'00001111'     ;BTC=05
002E36 0C87 0CFF 0C0F 05866                         DT      B'10000111',B'11111111',B'00001111'     ;BTC=06
002E3C 0C87 0CFF 0C0F 05867                         DT      B'10000111',B'11111111',B'00001111'     ;BTC=07
002E42 0C87 0CFF 0C0F 05868                         DT      B'10000111',B'11111111',B'00001111'     ;BTC=08
002E48 0C87 0CFF 0C0F 05869                         DT      B'10000111',B'11111111',B'00001111'     ;BTC=09
002E4E 0C87 0CFF 0C0F 05870                         DT      B'10000111',B'11111111',B'00001111'     ;BTC=0A
002E54 0C87 0CFF 0C0F 05871                         DT      B'10000111',B'11111111',B'00001111'     ;BTC=0B
002E5A 0C87 0CFE 0C0F 05872                         DT      B'10000111',B'11111110',B'00001111'     ;BTC=0C
002E60 0C87 0CFC 0C1F 05873                         DT      B'10000111',B'11111100',B'00011111'     ;BTC=0D
002E66 0C80 0C00 0C3F 05874                         DT      B'10000000',B'00000000',B'00111111'     ;BTC=0E
002E6C 0C80 0C00 0C7F 05875                         DT      B'10000000',B'00000000',B'01111111'     ;BTC=0F
                      05876 
                      05877 
002E72                05878 FONT02H_LOW_P
                      05879 
002E72 0E00           05880         MOVLW   0
002E74 6EFB           05881         MOVWF   PCLATU,0
002E76 0E2E           05882         MOVLW   2E
002E78 6EFA           05883         MOVWF   PCLATH,0
                      05884 
                      05885         
                      05886 
                      05887         
002E7A C146 FFE8      05888                         MOVFF   BTCOUNT,WREG
002E7E 90D8           05889                         BCF             STATUS,C
002E80 36E8           05890                         RLCF    WREG
                      05891 
                      05892                 
002E82 26F9           05893                         ADDWF   PCL,1,0
002E84 0CFF 0CFF 0CFF 05894                         DT      B'11111111',B'11111111',B'11111111'     ;BTC=00
002E8A 0CFF 0CFF 0CFF 05895                         DT      B'11111111',B'11111111',B'11111111'     ;BTC=01
002E90 0CFF 0CFF 0CFF 05896                         DT      B'11111111',B'11111111',B'11111111'     ;BTC=02
002E96 0CFF 0CFF 0CFF 05897                         DT      B'11111111',B'11111111',B'11111111'     ;BTC=03
002E9C 0CFF 0CFF 0CFF 05898                         DT      B'11111111',B'11111111',B'11111111'     ;BTC=04
002EA2 0CFF 0CFF 0CFF 05899                         DT      B'11111111',B'11111111',B'11111111'     ;BTC=05
002EA8 0C80 0C01 0CFF 05900                         DT      B'10000000',B'00000001',B'11111111'     ;BTC=06
002EAE 0C80 0C00 0CFF 05901                         DT      B'10000000',B'00000000',B'11111111'     ;BTC=07
MPASM  5.51               20191125_RTCGPU.ASM   4-30-2024  22:19:12         PAGE 116


LOC  OBJECT CODE     LINE SOURCE TEXT
  VALUE

002EB4 0C80 0C00 0C7F 05902                         DT      B'10000000',B'00000000',B'01111111'     ;BTC=08
002EBA 0C8F 0CF8 0C7F 05903                         DT      B'10001111',B'11111000',B'01111111'     ;BTC=09
002EC0 0C8F 0CFC 0C7F 05904                         DT      B'10001111',B'11111100',B'01111111'     ;BTC=0A
002EC6 0C8F 0CFC 0C7F 05905                         DT      B'10001111',B'11111100',B'01111111'     ;BTC=0B
002ECC 0C8F 0CFC 0C7F 05906                         DT      B'10001111',B'11111100',B'01111111'     ;BTC=0C
002ED2 0C8F 0CFC 0C7F 05907                         DT      B'10001111',B'11111100',B'01111111'     ;BTC=0D
002ED8 0C8F 0CFC 0C7F 05908                         DT      B'10001111',B'11111100',B'01111111'     ;BTC=0E
002EDE 0C8F 0CFC 0C7F 05909                         DT      B'10001111',B'11111100',B'01111111'     ;BTC=0F
                      05910 
                      05911 
                      05912 
Warning[205]: Found directive in column 1. (ORG)
002F00                05913 ORG 0X2F00
002F00                05914 FONT02L_CAP_P
                      05915 
002F00 0E00           05916         MOVLW   0
002F02 6EFB           05917         MOVWF   PCLATU,0
002F04 0E2F           05918         MOVLW   2F
002F06 6EFA           05919         MOVWF   PCLATH,0
                      05920 
                      05921 
                      05922 
                      05923 
002F08 C146 FFE8      05924                         MOVFF   BTCOUNT,WREG
002F0C 90D8           05925                         BCF             STATUS,C
002F0E 36E8           05926                         RLCF    WREG
                      05927 
                      05928                 
002F10 26F9           05929                         ADDWF   PCL,1,0
002F12 0C80 0C00 0CFF 05930                         DT      B'10000000',B'00000000',B'11111111'     ;BTC=10
002F18 0C87 0CFF 0CFF 05931                         DT      B'10000111',B'11111111',B'11111111'     ;BTC=11
002F1E 0C87 0CFF 0CFF 05932                         DT      B'10000111',B'11111111',B'11111111'     ;BTC=12
002F24 0C87 0CFF 0CFF 05933                         DT      B'10000111',B'11111111',B'11111111'     ;BTC=13
002F2A 0C87 0CFF 0CFF 05934                         DT      B'10000111',B'11111111',B'11111111'     ;BTC=14
002F30 0C87 0CFF 0CFF 05935                         DT      B'10000111',B'11111111',B'11111111'     ;BTC=15
002F36 0C87 0CFF 0CFF 05936                         DT      B'10000111',B'11111111',B'11111111'     ;BTC=16
002F3C 0C87 0CFF 0CFF 05937                         DT      B'10000111',B'11111111',B'11111111'     ;BTC=17
002F42 0C87 0CFF 0CFF 05938                         DT      B'10000111',B'11111111',B'11111111'     ;BTC=18
002F48 0C87 0CFF 0CFF 05939                         DT      B'10000111',B'11111111',B'11111111'     ;BTC=19
002F4E 0C87 0CFF 0CFF 05940                         DT      B'10000111',B'11111111',B'11111111'     ;BTC=1A
002F54 0C87 0CFF 0CFF 05941                         DT      B'10000111',B'11111111',B'11111111'     ;BTC=1B
002F5A 0C87 0CFF 0CFF 05942                         DT      B'10000111',B'11111111',B'11111111'     ;BTC=1C
002F60 0C87 0CFF 0CFF 05943                         DT      B'10000111',B'11111111',B'11111111'     ;BTC=1D
002F66 0C87 0CFF 0CFF 05944                         DT      B'10000111',B'11111111',B'11111111'     ;BTC=1E
002F6C 0CFF 0CFF 0CFF 05945                         DT      B'11111111',B'11111111',B'11111111'     ;BTC=1F
                      05946 
                      05947 
002F72                05948 FONT02L_LOW_P
                      05949 
002F72 0E00           05950         MOVLW   0
002F74 6EFB           05951         MOVWF   PCLATU,0
002F76 0E2F           05952         MOVLW   2F
002F78 6EFA           05953         MOVWF   PCLATH,0
MPASM  5.51               20191125_RTCGPU.ASM   4-30-2024  22:19:12         PAGE 117


LOC  OBJECT CODE     LINE SOURCE TEXT
  VALUE

                      05954 
                      05955 
                      05956 
                      05957 
002F7A C146 FFE8      05958                         MOVFF   BTCOUNT,WREG
002F7E 90D8           05959                         BCF             STATUS,C
002F80 36E8           05960                         RLCF    WREG
                      05961 
                      05962                 
002F82 26F9           05963                         ADDWF   PCL,1,0
002F84 0C8F 0CFC 0C7F 05964                         DT      B'10001111',B'11111100',B'01111111'     ;BTC=10
002F8A 0C8F 0CF8 0C7F 05965                         DT      B'10001111',B'11111000',B'01111111'     ;BTC=11
002F90 0C80 0C00 0C7F 05966                         DT      B'10000000',B'00000000',B'01111111'     ;BTC=12
002F96 0C80 0C00 0CFF 05967                         DT      B'10000000',B'00000000',B'11111111'     ;BTC=13
002F9C 0C80 0C01 0CFF 05968                         DT      B'10000000',B'00000001',B'11111111'     ;BTC=14
002FA2 0C8F 0CFF 0CFF 05969                         DT      B'10001111',B'11111111',B'11111111'     ;BTC=15
002FA8 0C8F 0CFF 0CFF 05970                         DT      B'10001111',B'11111111',B'11111111'     ;BTC=16
002FAE 0C8F 0CFF 0CFF 05971                         DT      B'10001111',B'11111111',B'11111111'     ;BTC=17
002FB4 0C8F 0CFF 0CFF 05972                         DT      B'10001111',B'11111111',B'11111111'     ;BTC=18
002FBA 0C8F 0CFF 0CFF 05973                         DT      B'10001111',B'11111111',B'11111111'     ;BTC=19
002FC0 0C8F 0CFF 0CFF 05974                         DT      B'10001111',B'11111111',B'11111111'     ;BTC=1A
002FC6 0C8F 0CFF 0CFF 05975                         DT      B'10001111',B'11111111',B'11111111'     ;BTC=1B
002FCC 0C8F 0CFF 0CFF 05976                         DT      B'10001111',B'11111111',B'11111111'     ;BTC=1C
002FD2 0C8F 0CFF 0CFF 05977                         DT      B'10001111',B'11111111',B'11111111'     ;BTC=1D
002FD8 0C8F 0CFF 0CFF 05978                         DT      B'10001111',B'11111111',B'11111111'     ;BTC=1E
002FDE 0C8F 0CFF 0CFF 05979                         DT      B'10001111',B'11111111',B'11111111'     ;BTC=1F
                      05980 
                      05981 
                      05982 
Warning[205]: Found directive in column 1. (ORG)
003000                05983 ORG 0X3000
003000                05984 FONT02H_CAP_Q
                      05985 
003000 0E00           05986         MOVLW   0
003002 6EFB           05987         MOVWF   PCLATU,0
003004 0E30           05988         MOVLW   30
003006 6EFA           05989         MOVWF   PCLATH,0
                      05990 
                      05991         
                      05992 
                      05993         
003008 C146 FFE8      05994                         MOVFF   BTCOUNT,WREG
00300C 90D8           05995                         BCF             STATUS,C
00300E 36E8           05996                         RLCF    WREG
                      05997 
                      05998                 
003010 26F9           05999                         ADDWF   PCL,1,0
003012 0CFF 0CFF 0CFF 06000                         DT      B'11111111',B'11111111',B'11111111'     ;BTC=00
003018 0CFC 0C01 0CFF 06001                         DT      B'11111100',B'00000001',B'11111111'     ;BTC=01
00301E 0CF8 0C00 0CFF 06002                         DT      B'11111000',B'00000000',B'11111111'     ;BTC=02
003024 0CF0 0C00 0C7F 06003                         DT      B'11110000',B'00000000',B'01111111'     ;BTC=03
00302A 0CE0 0CF8 0C3F 06004                         DT      B'11100000',B'11111000',B'00111111'     ;BTC=04
003030 0CC1 0CFC 0C1F 06005                         DT      B'11000001',B'11111100',B'00011111'     ;BTC=05
MPASM  5.51               20191125_RTCGPU.ASM   4-30-2024  22:19:12         PAGE 118


LOC  OBJECT CODE     LINE SOURCE TEXT
  VALUE

003036 0C83 0CFE 0C0F 06006                         DT      B'10000011',B'11111110',B'00001111'     ;BTC=06
00303C 0C87 0CFF 0C0F 06007                         DT      B'10000111',B'11111111',B'00001111'     ;BTC=07
003042 0C87 0CFF 0C0F 06008                         DT      B'10000111',B'11111111',B'00001111'     ;BTC=08
003048 0C87 0CFF 0C0F 06009                         DT      B'10000111',B'11111111',B'00001111'     ;BTC=09
00304E 0C87 0CFF 0C0F 06010                         DT      B'10000111',B'11111111',B'00001111'     ;BTC=0A
003054 0C87 0CFF 0C0F 06011                         DT      B'10000111',B'11111111',B'00001111'     ;BTC=0B
00305A 0C87 0CFF 0C0F 06012                         DT      B'10000111',B'11111111',B'00001111'     ;BTC=0C
003060 0C87 0CFF 0C0F 06013                         DT      B'10000111',B'11111111',B'00001111'     ;BTC=0D
003066 0C87 0CFF 0C0F 06014                         DT      B'10000111',B'11111111',B'00001111'     ;BTC=0E
00306C 0C87 0CFF 0C0F 06015                         DT      B'10000111',B'11111111',B'00001111'     ;BTC=0F
                      06016 
003072                06017 FONT02H_LOW_Q
                      06018 
003072 0E00           06019         MOVLW   0
003074 6EFB           06020         MOVWF   PCLATU,0
003076 0E30           06021         MOVLW   30
003078 6EFA           06022         MOVWF   PCLATH,0
                      06023 
                      06024         
                      06025 
                      06026         
00307A C146 FFE8      06027                         MOVFF   BTCOUNT,WREG
00307E 90D8           06028                         BCF             STATUS,C
003080 36E8           06029                         RLCF    WREG
                      06030 
                      06031                 
003082 26F9           06032                         ADDWF   PCL,1,0
003084 0CFF 0CFF 0CFF 06033                         DT      B'11111111',B'11111111',B'11111111'     ;BTC=00
00308A 0CFF 0CFF 0CFF 06034                         DT      B'11111111',B'11111111',B'11111111'     ;BTC=01
003090 0CFF 0CFF 0CFF 06035                         DT      B'11111111',B'11111111',B'11111111'     ;BTC=02
003096 0CFF 0CFF 0CFF 06036                         DT      B'11111111',B'11111111',B'11111111'     ;BTC=03
00309C 0CFF 0CFF 0CFF 06037                         DT      B'11111111',B'11111111',B'11111111'     ;BTC=04
0030A2 0CFF 0CFF 0CFF 06038                         DT      B'11111111',B'11111111',B'11111111'     ;BTC=05
0030A8 0CE0 0C00 0C7F 06039                         DT      B'11100000',B'00000000',B'01111111'     ;BTC=06
0030AE 0CC0 0C00 0C7F 06040                         DT      B'11000000',B'00000000',B'01111111'     ;BTC=07
0030B4 0C80 0C00 0C7F 06041                         DT      B'10000000',B'00000000',B'01111111'     ;BTC=08
0030BA 0C87 0CFC 0C7F 06042                         DT      B'10000111',B'11111100',B'01111111'     ;BTC=09
0030C0 0C8F 0CFC 0C7F 06043                         DT      B'10001111',B'11111100',B'01111111'     ;BTC=0A
0030C6 0C8F 0CFC 0C7F 06044                         DT      B'10001111',B'11111100',B'01111111'     ;BTC=0B
0030CC 0C8F 0CFC 0C7F 06045                         DT      B'10001111',B'11111100',B'01111111'     ;BTC=0C
0030D2 0C8F 0CFC 0C7F 06046                         DT      B'10001111',B'11111100',B'01111111'     ;BTC=0D
0030D8 0C8F 0CFC 0C7F 06047                         DT      B'10001111',B'11111100',B'01111111'     ;BTC=0E
0030DE 0C8F 0CFC 0C7F 06048                         DT      B'10001111',B'11111100',B'01111111'     ;BTC=0F
                      06049 
                      06050 
                      06051 
Warning[205]: Found directive in column 1. (ORG)
003100                06052 ORG 0X3100
003100                06053 FONT02L_CAP_Q
                      06054 
003100 0E00           06055         MOVLW   0
003102 6EFB           06056         MOVWF   PCLATU,0
003104 0E31           06057         MOVLW   31
MPASM  5.51               20191125_RTCGPU.ASM   4-30-2024  22:19:12         PAGE 119


LOC  OBJECT CODE     LINE SOURCE TEXT
  VALUE

003106 6EFA           06058         MOVWF   PCLATH,0
                      06059 
                      06060 
                      06061 
                      06062 
003108 C146 FFE8      06063                         MOVFF   BTCOUNT,WREG
00310C 90D8           06064                         BCF             STATUS,C
00310E 36E8           06065                         RLCF    WREG
                      06066 
                      06067                 
003110 26F9           06068                         ADDWF   PCL,1,0
003112 0C87 0CFF 0C0F 06069                         DT      B'10000111',B'11111111',B'00001111'     ;BTC=10
003118 0C87 0CFF 0C0F 06070                         DT      B'10000111',B'11111111',B'00001111'     ;BTC=11
00311E 0C87 0CFF 0C0F 06071                         DT      B'10000111',B'11111111',B'00001111'     ;BTC=12
003124 0C87 0CFF 0C0F 06072                         DT      B'10000111',B'11111111',B'00001111'     ;BTC=13
00312A 0C87 0CFF 0C0F 06073                         DT      B'10000111',B'11111111',B'00001111'     ;BTC=14
003130 0C87 0CFF 0C0F 06074                         DT      B'10000111',B'11111111',B'00001111'     ;BTC=15
003136 0C87 0CFF 0C0F 06075                         DT      B'10000111',B'11111111',B'00001111'     ;BTC=16
00313C 0C87 0CFF 0C0F 06076                         DT      B'10000111',B'11111111',B'00001111'     ;BTC=17
003142 0C87 0CF9 0C0F 06077                         DT      B'10000111',B'11111001',B'00001111'     ;BTC=18
003148 0C83 0CF0 0C0F 06078                         DT      B'10000011',B'11110000',B'00001111'     ;BTC=19
00314E 0CC1 0CF0 0C1F 06079                         DT      B'11000001',B'11110000',B'00011111'     ;BTC=1A
003154 0CE0 0CF8 0C3F 06080                         DT      B'11100000',B'11111000',B'00111111'     ;BTC=1B
00315A 0CF0 0C00 0C1F 06081                         DT      B'11110000',B'00000000',B'00011111'     ;BTC=1C
003160 0CF8 0C00 0C1F 06082                         DT      B'11111000',B'00000000',B'00011111'     ;BTC=1D
003166 0CFC 0C01 0C3F 06083                         DT      B'11111100',B'00000001',B'00111111'     ;BTC=1E
00316C 0CFF 0CFF 0CFF 06084                         DT      B'11111111',B'11111111',B'11111111'     ;BTC=1F
                      06085 
003172                06086 FONT02L_LOW_Q
                      06087 
003172 0E00           06088         MOVLW   0
003174 6EFB           06089         MOVWF   PCLATU,0
003176 0E31           06090         MOVLW   31
003178 6EFA           06091         MOVWF   PCLATH,0
                      06092 
                      06093 
                      06094 
                      06095 
00317A C146 FFE8      06096                         MOVFF   BTCOUNT,WREG
00317E 90D8           06097                         BCF             STATUS,C
003180 36E8           06098                         RLCF    WREG
                      06099 
                      06100                 
003182 26F9           06101                         ADDWF   PCL,1,0
003184 0C8F 0CFC 0C7F 06102                         DT      B'10001111',B'11111100',B'01111111'     ;BTC=10
00318A 0C87 0CFC 0C7F 06103                         DT      B'10000111',B'11111100',B'01111111'     ;BTC=11
003190 0C80 0C00 0C7F 06104                         DT      B'10000000',B'00000000',B'01111111'     ;BTC=12
003196 0CC0 0C00 0C7F 06105                         DT      B'11000000',B'00000000',B'01111111'     ;BTC=13
00319C 0CE0 0C00 0C7F 06106                         DT      B'11100000',B'00000000',B'01111111'     ;BTC=14
0031A2 0CFF 0CFC 0C7F 06107                         DT      B'11111111',B'11111100',B'01111111'     ;BTC=15
0031A8 0CFF 0CFC 0C7F 06108                         DT      B'11111111',B'11111100',B'01111111'     ;BTC=16
0031AE 0CFF 0CFC 0C7F 06109                         DT      B'11111111',B'11111100',B'01111111'     ;BTC=17
0031B4 0CFF 0CFC 0C7F 06110                         DT      B'11111111',B'11111100',B'01111111'     ;BTC=18
MPASM  5.51               20191125_RTCGPU.ASM   4-30-2024  22:19:12         PAGE 120


LOC  OBJECT CODE     LINE SOURCE TEXT
  VALUE

0031BA 0CFF 0CFC 0C7F 06111                         DT      B'11111111',B'11111100',B'01111111'     ;BTC=19
0031C0 0CFF 0CFC 0C7F 06112                         DT      B'11111111',B'11111100',B'01111111'     ;BTC=1A
0031C6 0CFF 0CFC 0C7F 06113                         DT      B'11111111',B'11111100',B'01111111'     ;BTC=1B
0031CC 0CFF 0CFC 0C7F 06114                         DT      B'11111111',B'11111100',B'01111111'     ;BTC=1C
0031D2 0CFF 0CFC 0C3F 06115                         DT      B'11111111',B'11111100',B'00111111'     ;BTC=1D
0031D8 0CFF 0CFC 0C3F 06116                         DT      B'11111111',B'11111100',B'00111111'     ;BTC=1E
0031DE 0CFF 0CFC 0C3F 06117                         DT      B'11111111',B'11111100',B'00111111'     ;BTC=1F
                      06118 
                      06119 
                      06120 
Warning[205]: Found directive in column 1. (ORG)
003200                06121 ORG 0X3200
003200                06122 FONT02H_CAP_R
                      06123 
003200 0E00           06124         MOVLW   0
003202 6EFB           06125         MOVWF   PCLATU,0
003204 0E32           06126         MOVLW   32
003206 6EFA           06127         MOVWF   PCLATH,0
                      06128 
                      06129         
                      06130 
                      06131         
003208 C146 FFE8      06132                         MOVFF   BTCOUNT,WREG
00320C 90D8           06133                         BCF             STATUS,C
00320E 36E8           06134                         RLCF    WREG
                      06135 
                      06136                 
003210 26F9           06137                         ADDWF   PCL,1,0
003212 0CFF 0CFF 0CFF 06138                         DT      B'11111111',B'11111111',B'11111111'     ;BTC=00
003218 0C80 0C00 0CFF 06139                         DT      B'10000000',B'00000000',B'11111111'     ;BTC=01
00321E 0C80 0C00 0C7F 06140                         DT      B'10000000',B'00000000',B'01111111'     ;BTC=02
003224 0C80 0C00 0C3F 06141                         DT      B'10000000',B'00000000',B'00111111'     ;BTC=03
00322A 0C87 0CFC 0C1F 06142                         DT      B'10000111',B'11111100',B'00011111'     ;BTC=04
003230 0C87 0CFE 0C0F 06143                         DT      B'10000111',B'11111110',B'00001111'     ;BTC=05
003236 0C87 0CFF 0C0F 06144                         DT      B'10000111',B'11111111',B'00001111'     ;BTC=06
00323C 0C87 0CFF 0C0F 06145                         DT      B'10000111',B'11111111',B'00001111'     ;BTC=07
003242 0C87 0CFF 0C0F 06146                         DT      B'10000111',B'11111111',B'00001111'     ;BTC=08
003248 0C87 0CFF 0C0F 06147                         DT      B'10000111',B'11111111',B'00001111'     ;BTC=09
00324E 0C87 0CFF 0C0F 06148                         DT      B'10000111',B'11111111',B'00001111'     ;BTC=0A
003254 0C87 0CFF 0C0F 06149                         DT      B'10000111',B'11111111',B'00001111'     ;BTC=0B
00325A 0C87 0CFE 0C0F 06150                         DT      B'10000111',B'11111110',B'00001111'     ;BTC=0C
003260 0C87 0CFC 0C1F 06151                         DT      B'10000111',B'11111100',B'00011111'     ;BTC=0D
003266 0C80 0C00 0C3F 06152                         DT      B'10000000',B'00000000',B'00111111'     ;BTC=0E
00326C 0C80 0C00 0C7F 06153                         DT      B'10000000',B'00000000',B'01111111'     ;BTC=0F
                      06154 
003272                06155 FONT02H_LOW_R
                      06156 
003272 0E00           06157         MOVLW   0
003274 6EFB           06158         MOVWF   PCLATU,0
003276 0E32           06159         MOVLW   32
003278 6EFA           06160         MOVWF   PCLATH,0
                      06161 
                      06162         
MPASM  5.51               20191125_RTCGPU.ASM   4-30-2024  22:19:12         PAGE 121


LOC  OBJECT CODE     LINE SOURCE TEXT
  VALUE

                      06163 
                      06164         
00327A C146 FFE8      06165                         MOVFF   BTCOUNT,WREG
00327E 90D8           06166                         BCF             STATUS,C
003280 36E8           06167                         RLCF    WREG
                      06168 
                      06169                 
003282 26F9           06170                         ADDWF   PCL,1,0
003284 0CFF 0CFF 0CFF 06171                         DT      B'11111111',B'11111111',B'11111111'     ;BTC=00
00328A 0CFF 0CFF 0CFF 06172                         DT      B'11111111',B'11111111',B'11111111'     ;BTC=01
003290 0CFF 0CFF 0CFF 06173                         DT      B'11111111',B'11111111',B'11111111'     ;BTC=02
003296 0CFF 0CFF 0CFF 06174                         DT      B'11111111',B'11111111',B'11111111'     ;BTC=03
00329C 0CFF 0CFF 0CFF 06175                         DT      B'11111111',B'11111111',B'11111111'     ;BTC=04
0032A2 0CFF 0CFF 0CFF 06176                         DT      B'11111111',B'11111111',B'11111111'     ;BTC=05
0032A8 0CFF 0CFF 0CFF 06177                         DT      B'11111111',B'11111111',B'11111111'     ;BTC=06
0032AE 0CFF 0CFF 0CFF 06178                         DT      B'11111111',B'11111111',B'11111111'     ;BTC=07
0032B4 0CFF 0CFF 0CFF 06179                         DT      B'11111111',B'11111111',B'11111111'     ;BTC=08
0032BA 0CFF 0CFF 0CFF 06180                         DT      B'11111111',B'11111111',B'11111111'     ;BTC=09
0032C0 0CFF 0CFF 0CFF 06181                         DT      B'11111111',B'11111111',B'11111111'     ;BTC=0A
0032C6 0CFF 0CFF 0CFF 06182                         DT      B'11111111',B'11111111',B'11111111'     ;BTC=0B
0032CC 0CFF 0CFF 0CFF 06183                         DT      B'11111111',B'11111111',B'11111111'     ;BTC=0C
0032D2 0CFF 0CFF 0CFF 06184                         DT      B'11111111',B'11111111',B'11111111'     ;BTC=0D
0032D8 0C88 0C1F 0CFF 06185                         DT      B'10001000',B'00011111',B'11111111'     ;BTC=0E
0032DE 0C80 0C0F 0CFF 06186                         DT      B'10000000',B'00001111',B'11111111'     ;BTC=0F
                      06187 
                      06188 
Warning[205]: Found directive in column 1. (ORG)
003300                06189 ORG 0X3300
003300                06190 FONT02L_CAP_R
                      06191 
003300 0E00           06192         MOVLW   0
003302 6EFB           06193         MOVWF   PCLATU,0
003304 0E33           06194         MOVLW   33
003306 6EFA           06195         MOVWF   PCLATH,0
                      06196 
                      06197 
                      06198 
                      06199 
003308 C146 FFE8      06200                         MOVFF   BTCOUNT,WREG
00330C 90D8           06201                         BCF             STATUS,C
00330E 36E8           06202                         RLCF    WREG
                      06203 
                      06204                 
003310 26F9           06205                         ADDWF   PCL,1,0
003312 0C80 0C00 0CFF 06206                         DT      B'10000000',B'00000000',B'11111111'     ;BTC=10
003318 0C87 0CC3 0CFF 06207                         DT      B'10000111',B'11000011',B'11111111'     ;BTC=11
00331E 0C87 0CC3 0CFF 06208                         DT      B'10000111',B'11000011',B'11111111'     ;BTC=12
003324 0C87 0CE1 0CFF 06209                         DT      B'10000111',B'11100001',B'11111111'     ;BTC=13
00332A 0C87 0CE1 0CFF 06210                         DT      B'10000111',B'11100001',B'11111111'     ;BTC=14
003330 0C87 0CF0 0CFF 06211                         DT      B'10000111',B'11110000',B'11111111'     ;BTC=15
003336 0C87 0CF0 0CFF 06212                         DT      B'10000111',B'11110000',B'11111111'     ;BTC=16
00333C 0C87 0CF8 0C7F 06213                         DT      B'10000111',B'11111000',B'01111111'     ;BTC=17
003342 0C87 0CF8 0C7F 06214                         DT      B'10000111',B'11111000',B'01111111'     ;BTC=18
MPASM  5.51               20191125_RTCGPU.ASM   4-30-2024  22:19:12         PAGE 122


LOC  OBJECT CODE     LINE SOURCE TEXT
  VALUE

003348 0C87 0CFC 0C3F 06215                         DT      B'10000111',B'11111100',B'00111111'     ;BTC=19
00334E 0C87 0CFC 0C3F 06216                         DT      B'10000111',B'11111100',B'00111111'     ;BTC=1A
003354 0C87 0CFE 0C1F 06217                         DT      B'10000111',B'11111110',B'00011111'     ;BTC=1B
00335A 0C87 0CFE 0C1F 06218                         DT      B'10000111',B'11111110',B'00011111'     ;BTC=1C
003360 0C87 0CFF 0C0F 06219                         DT      B'10000111',B'11111111',B'00001111'     ;BTC=1D
003366 0C87 0CFF 0C0F 06220                         DT      B'10000111',B'11111111',B'00001111'     ;BTC=1E
00336C 0CFF 0CFF 0CFF 06221                         DT      B'11111111',B'11111111',B'11111111'     ;BTC=1F
                      06222 
003372                06223 FONT02L_LOW_R
                      06224 
003372 0E00           06225         MOVLW   0
003374 6EFB           06226         MOVWF   PCLATU,0
003376 0E33           06227         MOVLW   33
003378 6EFA           06228         MOVWF   PCLATH,0
                      06229 
                      06230 
                      06231 
                      06232 
00337A C146 FFE8      06233                         MOVFF   BTCOUNT,WREG
00337E 90D8           06234                         BCF             STATUS,C
003380 36E8           06235                         RLCF    WREG
                      06236 
                      06237                 
003382 26F9           06238                         ADDWF   PCL,1,0
003384 0C80 0C07 0CFF 06239                         DT      B'10000000',B'00000111',B'11111111'     ;BTC=10
00338A 0C87 0CC7 0CFF 06240                         DT      B'10000111',B'11000111',B'11111111'     ;BTC=11
003390 0C8F 0CFF 0CFF 06241                         DT      B'10001111',B'11111111',B'11111111'     ;BTC=12
003396 0C8F 0CFF 0CFF 06242                         DT      B'10001111',B'11111111',B'11111111'     ;BTC=13
00339C 0C8F 0CFF 0CFF 06243                         DT      B'10001111',B'11111111',B'11111111'     ;BTC=14
0033A2 0C8F 0CFF 0CFF 06244                         DT      B'10001111',B'11111111',B'11111111'     ;BTC=15
0033A8 0C8F 0CFF 0CFF 06245                         DT      B'10001111',B'11111111',B'11111111'     ;BTC=16
0033AE 0C8F 0CFF 0CFF 06246                         DT      B'10001111',B'11111111',B'11111111'     ;BTC=17
0033B4 0C8F 0CFF 0CFF 06247                         DT      B'10001111',B'11111111',B'11111111'     ;BTC=18
0033BA 0C8F 0CFF 0CFF 06248                         DT      B'10001111',B'11111111',B'11111111'     ;BTC=19
0033C0 0C8F 0CFF 0CFF 06249                         DT      B'10001111',B'11111111',B'11111111'     ;BTC=1A
0033C6 0C8F 0CFF 0CFF 06250                         DT      B'10001111',B'11111111',B'11111111'     ;BTC=1B
0033CC 0C8F 0CFF 0CFF 06251                         DT      B'10001111',B'11111111',B'11111111'     ;BTC=1C
0033D2 0C8F 0CFF 0CFF 06252                         DT      B'10001111',B'11111111',B'11111111'     ;BTC=1D
0033D8 0C8F 0CFF 0CFF 06253                         DT      B'10001111',B'11111111',B'11111111'     ;BTC=1E
0033DE 0CFF 0CFF 0CFF 06254                         DT      B'11111111',B'11111111',B'11111111'     ;BTC=1F
                      06255 
                      06256 
Warning[205]: Found directive in column 1. (ORG)
003400                06257 ORG 0X3400
003400                06258 FONT02H_CAP_S
                      06259 
003400 0E00           06260         MOVLW   0
003402 6EFB           06261         MOVWF   PCLATU,0
003404 0E34           06262         MOVLW   34
003406 6EFA           06263         MOVWF   PCLATH,0
                      06264 
                      06265         
                      06266 
MPASM  5.51               20191125_RTCGPU.ASM   4-30-2024  22:19:12         PAGE 123


LOC  OBJECT CODE     LINE SOURCE TEXT
  VALUE

                      06267         
003408 C146 FFE8      06268                         MOVFF   BTCOUNT,WREG
00340C 90D8           06269                         BCF             STATUS,C
00340E 36E8           06270                         RLCF    WREG
                      06271 
                      06272                 
003410 26F9           06273                         ADDWF   PCL,1,0
003412 0CFF 0CFF 0CFF 06274                         DT      B'11111111',B'11111111',B'11111111'     ;BTC=00
003418 0CF8 0C00 0C0F 06275                         DT      B'11111000',B'00000000',B'00001111'     ;BTC=01
00341E 0CF0 0C00 0C0F 06276                         DT      B'11110000',B'00000000',B'00001111'     ;BTC=02
003424 0CE0 0C00 0C0F 06277                         DT      B'11100000',B'00000000',B'00001111'     ;BTC=03
00342A 0CC0 0C00 0C0F 06278                         DT      B'11000000',B'00000000',B'00001111'     ;BTC=04
003430 0C81 0CFF 0CFF 06279                         DT      B'10000001',B'11111111',B'11111111'     ;BTC=05
003436 0C83 0CFF 0CFF 06280                         DT      B'10000011',B'11111111',B'11111111'     ;BTC=06
00343C 0C87 0CFF 0CFF 06281                         DT      B'10000111',B'11111111',B'11111111'     ;BTC=07
003442 0C87 0CFF 0CFF 06282                         DT      B'10000111',B'11111111',B'11111111'     ;BTC=08
003448 0C87 0CFF 0CFF 06283                         DT      B'10000111',B'11111111',B'11111111'     ;BTC=09
00344E 0C87 0CFF 0CFF 06284                         DT      B'10000111',B'11111111',B'11111111'     ;BTC=0A
003454 0C87 0CFF 0CFF 06285                         DT      B'10000111',B'11111111',B'11111111'     ;BTC=0B
00345A 0C83 0CFF 0CFF 06286                         DT      B'10000011',B'11111111',B'11111111'     ;BTC=0C
003460 0C81 0CFF 0CFF 06287                         DT      B'10000001',B'11111111',B'11111111'     ;BTC=0D
003466 0CC0 0C00 0CFF 06288                         DT      B'11000000',B'00000000',B'11111111'     ;BTC=0E
00346C 0CE0 0C00 0C7F 06289                         DT      B'11100000',B'00000000',B'01111111'     ;BTC=0F
                      06290 
                      06291 
003472                06292 FONT02H_LOW_S
                      06293 
003472 0E00           06294         MOVLW   0
003474 6EFB           06295         MOVWF   PCLATU,0
003476 0E34           06296         MOVLW   34
003478 6EFA           06297         MOVWF   PCLATH,0
                      06298 
                      06299         
                      06300 
                      06301         
00347A C146 FFE8      06302                         MOVFF   BTCOUNT,WREG
00347E 90D8           06303                         BCF             STATUS,C
003480 36E8           06304                         RLCF    WREG
                      06305 
                      06306                 
003482 26F9           06307                         ADDWF   PCL,1,0
003484 0CFF 0CFF 0CFF 06308                         DT      B'11111111',B'11111111',B'11111111'     ;BTC=00
00348A 0CFF 0CFF 0CFF 06309                         DT      B'11111111',B'11111111',B'11111111'     ;BTC=01
003490 0CFF 0CFF 0CFF 06310                         DT      B'11111111',B'11111111',B'11111111'     ;BTC=02
003496 0CFF 0CFF 0CFF 06311                         DT      B'11111111',B'11111111',B'11111111'     ;BTC=03
00349C 0CFF 0CFF 0CFF 06312                         DT      B'11111111',B'11111111',B'11111111'     ;BTC=04
0034A2 0CFF 0CFF 0CFF 06313                         DT      B'11111111',B'11111111',B'11111111'     ;BTC=05
0034A8 0CFF 0CFF 0CFF 06314                         DT      B'11111111',B'11111111',B'11111111'     ;BTC=06
0034AE 0CFF 0CFF 0CFF 06315                         DT      B'11111111',B'11111111',B'11111111'     ;BTC=07
0034B4 0CFF 0CFF 0CFF 06316                         DT      B'11111111',B'11111111',B'11111111'     ;BTC=08
0034BA 0CFF 0CFF 0CFF 06317                         DT      B'11111111',B'11111111',B'11111111'     ;BTC=09
0034C0 0CFF 0CFF 0CFF 06318                         DT      B'11111111',B'11111111',B'11111111'     ;BTC=0A
0034C6 0CFF 0CFF 0CFF 06319                         DT      B'11111111',B'11111111',B'11111111'     ;BTC=0B
MPASM  5.51               20191125_RTCGPU.ASM   4-30-2024  22:19:12         PAGE 124


LOC  OBJECT CODE     LINE SOURCE TEXT
  VALUE

0034CC 0CFF 0CFF 0CFF 06320                         DT      B'11111111',B'11111111',B'11111111'     ;BTC=0C
0034D2 0CFF 0CFF 0CFF 06321                         DT      B'11111111',B'11111111',B'11111111'     ;BTC=0D
0034D8 0CF0 0C1F 0CFF 06322                         DT      B'11110000',B'00011111',B'11111111'     ;BTC=0E
0034DE 0CE0 0C0F 0CFF 06323                         DT      B'11100000',B'00001111',B'11111111'     ;BTC=0F
                      06324 
                      06325 
Warning[205]: Found directive in column 1. (ORG)
003500                06326 ORG 0X3500
003500                06327 FONT02L_LOW_S
                      06328 
003500 0E00           06329         MOVLW   0
003502 6EFB           06330         MOVWF   PCLATU,0
003504 0E35           06331         MOVLW   35
003506 6EFA           06332         MOVWF   PCLATH,0
                      06333 
                      06334 
                      06335 
                      06336 
003508 C146 FFE8      06337                         MOVFF   BTCOUNT,WREG
00350C 90D8           06338                         BCF             STATUS,C
00350E 36E8           06339                         RLCF    WREG
                      06340 
                      06341                 
003510 26F9           06342                         ADDWF   PCL,1,0
003512 0CC0 0C07 0CFF 06343                         DT      B'11000000',B'00000111',B'11111111'     ;BTC=10
003518 0C87 0CC7 0CFF 06344                         DT      B'10000111',B'11000111',B'11111111'     ;BTC=11
00351E 0C8F 0CFF 0CFF 06345                         DT      B'10001111',B'11111111',B'11111111'     ;BTC=12
003524 0C8F 0CFF 0CFF 06346                         DT      B'10001111',B'11111111',B'11111111'     ;BTC=13
00352A 0C87 0CFF 0CFF 06347                         DT      B'10000111',B'11111111',B'11111111'     ;BTC=14
003530 0C80 0C1F 0CFF 06348                         DT      B'10000000',B'00011111',B'11111111'     ;BTC=15
003536 0CC0 0C0F 0CFF 06349                         DT      B'11000000',B'00001111',B'11111111'     ;BTC=16
00353C 0CE0 0C07 0CFF 06350                         DT      B'11100000',B'00000111',B'11111111'     ;BTC=17
003542 0CFF 0C87 0CFF 06351                         DT      B'11111111',B'10000111',B'11111111'     ;BTC=18
003548 0CFF 0CC7 0CFF 06352                         DT      B'11111111',B'11000111',B'11111111'     ;BTC=19
00354E 0CFF 0CC7 0CFF 06353                         DT      B'11111111',B'11000111',B'11111111'     ;BTC=1A
003554 0C8F 0C87 0CFF 06354                         DT      B'10001111',B'10000111',B'11111111'     ;BTC=1B
00355A 0C80 0C0F 0CFF 06355                         DT      B'10000000',B'00001111',B'11111111'     ;BTC=1C
003560 0CC0 0C1F 0CFF 06356                         DT      B'11000000',B'00011111',B'11111111'     ;BTC=1D
003566 0CE0 0C3F 0CFF 06357                         DT      B'11100000',B'00111111',B'11111111'     ;BTC=1E
00356C 0CFF 0CFF 0CFF 06358                         DT      B'11111111',B'11111111',B'11111111'     ;BTC=1F
                      06359 
003572                06360 FONT02L_CAP_S
                      06361 
003572 0E00           06362         MOVLW   0
003574 6EFB           06363         MOVWF   PCLATU,0
003576 0E35           06364         MOVLW   35
003578 6EFA           06365         MOVWF   PCLATH,0
                      06366 
                      06367 
                      06368 
                      06369 
00357A C146 FFE8      06370                         MOVFF   BTCOUNT,WREG
00357E 90D8           06371                         BCF             STATUS,C
MPASM  5.51               20191125_RTCGPU.ASM   4-30-2024  22:19:12         PAGE 125


LOC  OBJECT CODE     LINE SOURCE TEXT
  VALUE

003580 36E8           06372                         RLCF    WREG
                      06373 
                      06374                 
003582 26F9           06375                         ADDWF   PCL,1,0
003584 0CF0 0C00 0C3F 06376                         DT      B'11110000',B'00000000',B'00111111'     ;BTC=10
00358A 0CF8 0C00 0C1F 06377                         DT      B'11111000',B'00000000',B'00011111'     ;BTC=11
003590 0CFF 0CFC 0C0F 06378                         DT      B'11111111',B'11111100',B'00001111'     ;BTC=12
003596 0CFF 0CFE 0C0F 06379                         DT      B'11111111',B'11111110',B'00001111'     ;BTC=13
00359C 0CFF 0CFF 0C0F 06380                         DT      B'11111111',B'11111111',B'00001111'     ;BTC=14
0035A2 0CFF 0CFF 0C0F 06381                         DT      B'11111111',B'11111111',B'00001111'     ;BTC=15
0035A8 0CFF 0CFF 0C0F 06382                         DT      B'11111111',B'11111111',B'00001111'     ;BTC=16
0035AE 0CFF 0CFF 0C0F 06383                         DT      B'11111111',B'11111111',B'00001111'     ;BTC=17
0035B4 0CFF 0CFF 0C0F 06384                         DT      B'11111111',B'11111111',B'00001111'     ;BTC=18
0035BA 0CFF 0CFE 0C0F 06385                         DT      B'11111111',B'11111110',B'00001111'     ;BTC=19
0035C0 0CFF 0CFC 0C0F 06386                         DT      B'11111111',B'11111100',B'00001111'     ;BTC=1A
0035C6 0C80 0C00 0C1F 06387                         DT      B'10000000',B'00000000',B'00011111'     ;BTC=1B
0035CC 0C80 0C00 0C3F 06388                         DT      B'10000000',B'00000000',B'00111111'     ;BTC=1C
0035D2 0C80 0C00 0C7F 06389                         DT      B'10000000',B'00000000',B'01111111'     ;BTC=1D
0035D8 0C80 0C00 0CFF 06390                         DT      B'10000000',B'00000000',B'11111111'     ;BTC=1E
0035DE 0CFF 0CFF 0CFF 06391                         DT      B'11111111',B'11111111',B'11111111'     ;BTC=1F
                      06392 
                      06393 
                      06394 
                      06395 
Warning[205]: Found directive in column 1. (ORG)
003600                06396 ORG 0X3600
003600                06397 FONT02H_CAP_T
                      06398 
003600 0E00           06399         MOVLW   0
003602 6EFB           06400         MOVWF   PCLATU,0
003604 0E36           06401         MOVLW   36
003606 6EFA           06402         MOVWF   PCLATH,0
                      06403 
                      06404         
                      06405 
                      06406         
003608 C146 FFE8      06407                         MOVFF   BTCOUNT,WREG
00360C 90D8           06408                         BCF             STATUS,C
00360E 36E8           06409                         RLCF    WREG
                      06410 
                      06411                 
003610 26F9           06412                         ADDWF   PCL,1,0
003612 0CFF 0CFF 0CFF 06413                         DT      B'11111111',B'11111111',B'11111111'     ;BTC=00
003618 0C80 0C00 0C1F 06414                         DT      B'10000000',B'00000000',B'00011111'     ;BTC=01
00361E 0C80 0C00 0C1F 06415                         DT      B'10000000',B'00000000',B'00011111'     ;BTC=02
003624 0C80 0C00 0C1F 06416                         DT      B'10000000',B'00000000',B'00011111'     ;BTC=03
00362A 0C80 0C00 0C1F 06417                         DT      B'10000000',B'00000000',B'00011111'     ;BTC=04
003630 0CFF 0C0F 0CFF 06418                         DT      B'11111111',B'00001111',B'11111111'     ;BTC=05
003636 0CFF 0C0F 0CFF 06419                         DT      B'11111111',B'00001111',B'11111111'     ;BTC=06
00363C 0CFF 0C0F 0CFF 06420                         DT      B'11111111',B'00001111',B'11111111'     ;BTC=07
003642 0CFF 0C0F 0CFF 06421                         DT      B'11111111',B'00001111',B'11111111'     ;BTC=08
003648 0CFF 0C0F 0CFF 06422                         DT      B'11111111',B'00001111',B'11111111'     ;BTC=09
00364E 0CFF 0C0F 0CFF 06423                         DT      B'11111111',B'00001111',B'11111111'     ;BTC=0A
MPASM  5.51               20191125_RTCGPU.ASM   4-30-2024  22:19:12         PAGE 126


LOC  OBJECT CODE     LINE SOURCE TEXT
  VALUE

003654 0CFF 0C0F 0CFF 06424                         DT      B'11111111',B'00001111',B'11111111'     ;BTC=0B
00365A 0CFF 0C0F 0CFF 06425                         DT      B'11111111',B'00001111',B'11111111'     ;BTC=0C
003660 0CFF 0C0F 0CFF 06426                         DT      B'11111111',B'00001111',B'11111111'     ;BTC=0D
003666 0CFF 0C0F 0CFF 06427                         DT      B'11111111',B'00001111',B'11111111'     ;BTC=0E
00366C 0CFF 0C0F 0CFF 06428                         DT      B'11111111',B'00001111',B'11111111'     ;BTC=0F
                      06429 
003672                06430 FONT02H_LOW_T
                      06431 
003672 0E00           06432         MOVLW   0
003674 6EFB           06433         MOVWF   PCLATU,0
003676 0E36           06434         MOVLW   36
003678 6EFA           06435         MOVWF   PCLATH,0
                      06436 
                      06437         
                      06438 
                      06439         
00367A C146 FFE8      06440                         MOVFF   BTCOUNT,WREG
00367E 90D8           06441                         BCF             STATUS,C
003680 36E8           06442                         RLCF    WREG
                      06443 
                      06444                 
003682 26F9           06445                         ADDWF   PCL,1,0
003684 0CFF 0CFF 0CFF 06446                         DT      B'11111111',B'11111111',B'11111111'     ;BTC=00
00368A 0CF8 0CFF 0CFF 06447                         DT      B'11111000',B'11111111',B'11111111'     ;BTC=01
003690 0CF8 0CFF 0CFF 06448                         DT      B'11111000',B'11111111',B'11111111'     ;BTC=02
003696 0CF8 0CFF 0CFF 06449                         DT      B'11111000',B'11111111',B'11111111'     ;BTC=03
00369C 0CF8 0CFF 0CFF 06450                         DT      B'11111000',B'11111111',B'11111111'     ;BTC=04
0036A2 0CF8 0CFF 0CFF 06451                         DT      B'11111000',B'11111111',B'11111111'     ;BTC=05
0036A8 0CF8 0CFF 0CFF 06452                         DT      B'11111000',B'11111111',B'11111111'     ;BTC=06
0036AE 0CF8 0CFF 0CFF 06453                         DT      B'11111000',B'11111111',B'11111111'     ;BTC=07
0036B4 0CF8 0CFF 0CFF 06454                         DT      B'11111000',B'11111111',B'11111111'     ;BTC=08
0036BA 0CF8 0CFF 0CFF 06455                         DT      B'11111000',B'11111111',B'11111111'     ;BTC=09
0036C0 0CF8 0CFF 0CFF 06456                         DT      B'11111000',B'11111111',B'11111111'     ;BTC=0A
0036C6 0CF8 0CFF 0CFF 06457                         DT      B'11111000',B'11111111',B'11111111'     ;BTC=0B
0036CC 0CF8 0CFF 0CFF 06458                         DT      B'11111000',B'11111111',B'11111111'     ;BTC=0C
0036D2 0CF8 0CFF 0CFF 06459                         DT      B'11111000',B'11111111',B'11111111'     ;BTC=0D
0036D8 0C80 0C0F 0CFF 06460                         DT      B'10000000',B'00001111',B'11111111'     ;BTC=0E
0036DE 0C80 0C0F 0CFF 06461                         DT      B'10000000',B'00001111',B'11111111'     ;BTC=0F
                      06462 
                      06463 
Warning[205]: Found directive in column 1. (ORG)
003700                06464 ORG 0X3700
003700                06465 FONT02L_CAP_T
                      06466 
003700 0E00           06467         MOVLW   0
003702 6EFB           06468         MOVWF   PCLATU,0
003704 0E37           06469         MOVLW   37
003706 6EFA           06470         MOVWF   PCLATH,0
                      06471 
                      06472 
                      06473 
                      06474 
003708 C146 FFE8      06475                         MOVFF   BTCOUNT,WREG
MPASM  5.51               20191125_RTCGPU.ASM   4-30-2024  22:19:12         PAGE 127


LOC  OBJECT CODE     LINE SOURCE TEXT
  VALUE

00370C 90D8           06476                         BCF             STATUS,C
00370E 36E8           06477                         RLCF    WREG
                      06478 
                      06479                 
003710 26F9           06480                         ADDWF   PCL,1,0
003712 0CFF 0C0F 0CFF 06481                         DT      B'11111111',B'00001111',B'11111111'     ;BTC=10
003718 0CFF 0C0F 0CFF 06482                         DT      B'11111111',B'00001111',B'11111111'     ;BTC=11
00371E 0CFF 0C0F 0CFF 06483                         DT      B'11111111',B'00001111',B'11111111'     ;BTC=12
003724 0CFF 0C0F 0CFF 06484                         DT      B'11111111',B'00001111',B'11111111'     ;BTC=13
00372A 0CFF 0C0F 0CFF 06485                         DT      B'11111111',B'00001111',B'11111111'     ;BTC=14
003730 0CFF 0C0F 0CFF 06486                         DT      B'11111111',B'00001111',B'11111111'     ;BTC=15
003736 0CFF 0C0F 0CFF 06487                         DT      B'11111111',B'00001111',B'11111111'     ;BTC=16
00373C 0CFF 0C0F 0CFF 06488                         DT      B'11111111',B'00001111',B'11111111'     ;BTC=17
003742 0CFF 0C0F 0CFF 06489                         DT      B'11111111',B'00001111',B'11111111'     ;BTC=18
003748 0CFF 0C0F 0CFF 06490                         DT      B'11111111',B'00001111',B'11111111'     ;BTC=19
00374E 0CFF 0C0F 0CFF 06491                         DT      B'11111111',B'00001111',B'11111111'     ;BTC=1A
003754 0CFF 0C0F 0CFF 06492                         DT      B'11111111',B'00001111',B'11111111'     ;BTC=1B
00375A 0CFF 0C0F 0CFF 06493                         DT      B'11111111',B'00001111',B'11111111'     ;BTC=1C
003760 0CFF 0C0F 0CFF 06494                         DT      B'11111111',B'00001111',B'11111111'     ;BTC=1D
003766 0CFF 0C0F 0CFF 06495                         DT      B'11111111',B'00001111',B'11111111'     ;BTC=1E
00376C 0CFF 0CFF 0CFF 06496                         DT      B'11111111',B'11111111',B'11111111'     ;BTC=1F
                      06497 
                      06498 
003772                06499 FONT02L_LOW_T
                      06500 
003772 0E00           06501         MOVLW   0
003774 6EFB           06502         MOVWF   PCLATU,0
003776 0E37           06503         MOVLW   37
003778 6EFA           06504         MOVWF   PCLATH,0
                      06505 
                      06506 
                      06507 
                      06508 
00377A C146 FFE8      06509                         MOVFF   BTCOUNT,WREG
00377E 90D8           06510                         BCF             STATUS,C
003780 36E8           06511                         RLCF    WREG
                      06512 
                      06513                 
003782 26F9           06514                         ADDWF   PCL,1,0
003784 0C80 0C0F 0CFF 06515                         DT      B'10000000',B'00001111',B'11111111'     ;BTC=10
00378A 0CF8 0CFF 0CFF 06516                         DT      B'11111000',B'11111111',B'11111111'     ;BTC=11
003790 0CF8 0CFF 0CFF 06517                         DT      B'11111000',B'11111111',B'11111111'     ;BTC=12
003796 0CF8 0CFF 0CFF 06518                         DT      B'11111000',B'11111111',B'11111111'     ;BTC=13
00379C 0CF8 0CFF 0CFF 06519                         DT      B'11111000',B'11111111',B'11111111'     ;BTC=14
0037A2 0CF8 0CFF 0CFF 06520                         DT      B'11111000',B'11111111',B'11111111'     ;BTC=15
0037A8 0CF8 0CFF 0CFF 06521                         DT      B'11111000',B'11111111',B'11111111'     ;BTC=16
0037AE 0CF8 0CFF 0CFF 06522                         DT      B'11111000',B'11111111',B'11111111'     ;BTC=17
0037B4 0CF8 0CFF 0CFF 06523                         DT      B'11111000',B'11111111',B'11111111'     ;BTC=18
0037BA 0CF8 0CFF 0CFF 06524                         DT      B'11111000',B'11111111',B'11111111'     ;BTC=19
0037C0 0CF8 0CE3 0CFF 06525                         DT      B'11111000',B'11100011',B'11111111'     ;BTC=1A
0037C6 0CF8 0C63 0CFF 06526                         DT      B'11111000',B'01100011',B'11111111'     ;BTC=1B
0037CC 0CF8 0C03 0CFF 06527                         DT      B'11111000',B'00000011',B'11111111'     ;BTC=1C
0037D2 0CFC 0C07 0CFF 06528                         DT      B'11111100',B'00000111',B'11111111'     ;BTC=1D
MPASM  5.51               20191125_RTCGPU.ASM   4-30-2024  22:19:12         PAGE 128


LOC  OBJECT CODE     LINE SOURCE TEXT
  VALUE

0037D8 0CFE 0C0F 0CFF 06529                         DT      B'11111110',B'00001111',B'11111111'     ;BTC=1E
0037DE 0CFF 0CFF 0CFF 06530                         DT      B'11111111',B'11111111',B'11111111'     ;BTC=1F
                      06531 
Warning[205]: Found directive in column 1. (ORG)
003800                06532 ORG 0X3800
003800                06533 FONT02H_CAP_U
                      06534 
003800 0E00           06535         MOVLW   0
003802 6EFB           06536         MOVWF   PCLATU,0
003804 0E38           06537         MOVLW   38
003806 6EFA           06538         MOVWF   PCLATH,0
                      06539 
                      06540         
                      06541 
                      06542         
003808 C146 FFE8      06543                         MOVFF   BTCOUNT,WREG
00380C 90D8           06544                         BCF             STATUS,C
00380E 36E8           06545                         RLCF    WREG
                      06546 
                      06547                 
003810 26F9           06548                         ADDWF   PCL,1,0
003812 0CFF 0CFF 0CFF 06549                         DT      B'11111111',B'11111111',B'11111111'     ;BTC=00
003818 0C87 0CFF 0C0F 06550                         DT      B'10000111',B'11111111',B'00001111'     ;BTC=01
00381E 0C87 0CFF 0C0F 06551                         DT      B'10000111',B'11111111',B'00001111'     ;BTC=02
003824 0C87 0CFF 0C0F 06552                         DT      B'10000111',B'11111111',B'00001111'     ;BTC=03
00382A 0C87 0CFF 0C0F 06553                         DT      B'10000111',B'11111111',B'00001111'     ;BTC=04
003830 0C87 0CFF 0C0F 06554                         DT      B'10000111',B'11111111',B'00001111'     ;BTC=05
003836 0C87 0CFF 0C0F 06555                         DT      B'10000111',B'11111111',B'00001111'     ;BTC=06
00383C 0C87 0CFF 0C0F 06556                         DT      B'10000111',B'11111111',B'00001111'     ;BTC=07
003842 0C87 0CFF 0C0F 06557                         DT      B'10000111',B'11111111',B'00001111'     ;BTC=08
003848 0C87 0CFF 0C0F 06558                         DT      B'10000111',B'11111111',B'00001111'     ;BTC=09
00384E 0C87 0CFF 0C0F 06559                         DT      B'10000111',B'11111111',B'00001111'     ;BTC=0A
003854 0C87 0CFF 0C0F 06560                         DT      B'10000111',B'11111111',B'00001111'     ;BTC=0B
00385A 0C87 0CFF 0C0F 06561                         DT      B'10000111',B'11111111',B'00001111'     ;BTC=0C
003860 0C87 0CFF 0C0F 06562                         DT      B'10000111',B'11111111',B'00001111'     ;BTC=0D
003866 0C87 0CFF 0C0F 06563                         DT      B'10000111',B'11111111',B'00001111'     ;BTC=0E
00386C 0C87 0CFF 0C0F 06564                         DT      B'10000111',B'11111111',B'00001111'     ;BTC=0F
                      06565 
003872                06566 FONT02H_LOW_U
                      06567 
003872 0E00           06568         MOVLW   0
003874 6EFB           06569         MOVWF   PCLATU,0
003876 0E38           06570         MOVLW   38
003878 6EFA           06571         MOVWF   PCLATH,0
                      06572 
                      06573         
                      06574 
                      06575         
00387A C146 FFE8      06576                         MOVFF   BTCOUNT,WREG
00387E 90D8           06577                         BCF             STATUS,C
003880 36E8           06578                         RLCF    WREG
                      06579 
                      06580                 
MPASM  5.51               20191125_RTCGPU.ASM   4-30-2024  22:19:12         PAGE 129


LOC  OBJECT CODE     LINE SOURCE TEXT
  VALUE

003882 26F9           06581                         ADDWF   PCL,1,0
003884 0CFF 0CFF 0CFF 06582                         DT      B'11111111',B'11111111',B'11111111'     ;BTC=00
00388A 0CFF 0CFF 0CFF 06583                         DT      B'11111111',B'11111111',B'11111111'     ;BTC=01
003890 0CFF 0CFF 0CFF 06584                         DT      B'11111111',B'11111111',B'11111111'     ;BTC=02
003896 0CFF 0CFF 0CFF 06585                         DT      B'11111111',B'11111111',B'11111111'     ;BTC=03
00389C 0CFF 0CFF 0CFF 06586                         DT      B'11111111',B'11111111',B'11111111'     ;BTC=04
0038A2 0CFF 0CFF 0CFF 06587                         DT      B'11111111',B'11111111',B'11111111'     ;BTC=05
0038A8 0CFF 0CFF 0CFF 06588                         DT      B'11111111',B'11111111',B'11111111'     ;BTC=06
0038AE 0CFF 0CFF 0CFF 06589                         DT      B'11111111',B'11111111',B'11111111'     ;BTC=07
0038B4 0CFF 0CFF 0CFF 06590                         DT      B'11111111',B'11111111',B'11111111'     ;BTC=08
0038BA 0CFF 0CFF 0CFF 06591                         DT      B'11111111',B'11111111',B'11111111'     ;BTC=09
0038C0 0CFF 0CFF 0CFF 06592                         DT      B'11111111',B'11111111',B'11111111'     ;BTC=0A
0038C6 0CFF 0CFF 0CFF 06593                         DT      B'11111111',B'11111111',B'11111111'     ;BTC=0B
0038CC 0CFF 0CFF 0CFF 06594                         DT      B'11111111',B'11111111',B'11111111'     ;BTC=0C
0038D2 0CFF 0CFF 0CFF 06595                         DT      B'11111111',B'11111111',B'11111111'     ;BTC=0D
0038D8 0C8F 0CFC 0C7F 06596                         DT      B'10001111',B'11111100',B'01111111'     ;BTC=0E
0038DE 0C8F 0CFC 0C7F 06597                         DT      B'10001111',B'11111100',B'01111111'     ;BTC=0F
                      06598 
Warning[205]: Found directive in column 1. (ORG)
003900                06599 ORG 0X3900
003900                06600 FONT02L_CAP_U
                      06601 
003900 0E00           06602         MOVLW   0
003902 6EFB           06603         MOVWF   PCLATU,0
003904 0E39           06604         MOVLW   39
003906 6EFA           06605         MOVWF   PCLATH,0
                      06606 
                      06607 
                      06608 
                      06609 
003908 C146 FFE8      06610                         MOVFF   BTCOUNT,WREG
00390C 90D8           06611                         BCF             STATUS,C
00390E 36E8           06612                         RLCF    WREG
                      06613 
                      06614                 
003910 26F9           06615                         ADDWF   PCL,1,0
003912 0C87 0CFF 0C0F 06616                         DT      B'10000111',B'11111111',B'00001111'     ;BTC=10
003918 0C87 0CFF 0C0F 06617                         DT      B'10000111',B'11111111',B'00001111'     ;BTC=11
00391E 0C87 0CFF 0C0F 06618                         DT      B'10000111',B'11111111',B'00001111'     ;BTC=12
003924 0C87 0CFF 0C0F 06619                         DT      B'10000111',B'11111111',B'00001111'     ;BTC=13
00392A 0C87 0CFF 0C0F 06620                         DT      B'10000111',B'11111111',B'00001111'     ;BTC=14
003930 0C87 0CFF 0C0F 06621                         DT      B'10000111',B'11111111',B'00001111'     ;BTC=15
003936 0C87 0CFF 0C0F 06622                         DT      B'10000111',B'11111111',B'00001111'     ;BTC=16
00393C 0C87 0CFF 0C0F 06623                         DT      B'10000111',B'11111111',B'00001111'     ;BTC=17
003942 0C87 0CFF 0C0F 06624                         DT      B'10000111',B'11111111',B'00001111'     ;BTC=18
003948 0C87 0CFF 0C0F 06625                         DT      B'10000111',B'11111111',B'00001111'     ;BTC=19
00394E 0C83 0CFE 0C0F 06626                         DT      B'10000011',B'11111110',B'00001111'     ;BTC=1A
003954 0C81 0CFC 0C0F 06627                         DT      B'10000001',B'11111100',B'00001111'     ;BTC=1B
00395A 0CC0 0C00 0C1F 06628                         DT      B'11000000',B'00000000',B'00011111'     ;BTC=1C
003960 0CE0 0C00 0C3F 06629                         DT      B'11100000',B'00000000',B'00111111'     ;BTC=1D
003966 0CF0 0C00 0C7F 06630                         DT      B'11110000',B'00000000',B'01111111'     ;BTC=1E
00396C 0CFF 0CFF 0CFF 06631                         DT      B'11111111',B'11111111',B'11111111'     ;BTC=1F
                      06632 
MPASM  5.51               20191125_RTCGPU.ASM   4-30-2024  22:19:12         PAGE 130


LOC  OBJECT CODE     LINE SOURCE TEXT
  VALUE

003972                06633 FONT02L_LOW_U
                      06634 
003972 0E00           06635         MOVLW   0
003974 6EFB           06636         MOVWF   PCLATU,0
003976 0E39           06637         MOVLW   39
003978 6EFA           06638         MOVWF   PCLATH,0
                      06639 
                      06640 
                      06641 
                      06642 
00397A C146 FFE8      06643                         MOVFF   BTCOUNT,WREG
00397E 90D8           06644                         BCF             STATUS,C
003980 36E8           06645                         RLCF    WREG
                      06646 
                      06647                 
003982 26F9           06648                         ADDWF   PCL,1,0
003984 0C8F 0CFC 0C7F 06649                         DT      B'10001111',B'11111100',B'01111111'     ;BTC=10
00398A 0C8F 0CFC 0C7F 06650                         DT      B'10001111',B'11111100',B'01111111'     ;BTC=11
003990 0C8F 0CFC 0C7F 06651                         DT      B'10001111',B'11111100',B'01111111'     ;BTC=12
003996 0C8F 0CFC 0C7F 06652                         DT      B'10001111',B'11111100',B'01111111'     ;BTC=13
00399C 0C8F 0CFC 0C7F 06653                         DT      B'10001111',B'11111100',B'01111111'     ;BTC=14
0039A2 0C8F 0CFC 0C7F 06654                         DT      B'10001111',B'11111100',B'01111111'     ;BTC=15
0039A8 0C8F 0CFC 0C7F 06655                         DT      B'10001111',B'11111100',B'01111111'     ;BTC=16
0039AE 0C8F 0CFC 0C7F 06656                         DT      B'10001111',B'11111100',B'01111111'     ;BTC=17
0039B4 0C8F 0CFC 0C7F 06657                         DT      B'10001111',B'11111100',B'01111111'     ;BTC=18
0039BA 0C8F 0CFC 0C7F 06658                         DT      B'10001111',B'11111100',B'01111111'     ;BTC=19
0039C0 0C8F 0CFC 0C7F 06659                         DT      B'10001111',B'11111100',B'01111111'     ;BTC=1A
0039C6 0C87 0CF8 0C7F 06660                         DT      B'10000111',B'11111000',B'01111111'     ;BTC=1B
0039CC 0C80 0C00 0C7F 06661                         DT      B'10000000',B'00000000',B'01111111'     ;BTC=1C
0039D2 0CC0 0C00 0C7F 06662                         DT      B'11000000',B'00000000',B'01111111'     ;BTC=1D
0039D8 0CE0 0C04 0C7F 06663                         DT      B'11100000',B'00000100',B'01111111'     ;BTC=1E
0039DE 0CFF 0CFF 0CFF 06664                         DT      B'11111111',B'11111111',B'11111111'     ;BTC=1F
                      06665 
                      06666 
                      06667 
                      06668 
Warning[205]: Found directive in column 1. (ORG)
003A00                06669 ORG 0X3A00
003A00                06670 FONT02H_CAP_V
                      06671 
003A00 0E00           06672         MOVLW   0
003A02 6EFB           06673         MOVWF   PCLATU,0
003A04 0E3A           06674         MOVLW   3A
003A06 6EFA           06675         MOVWF   PCLATH,0
                      06676 
                      06677         
                      06678 
                      06679         
003A08 C146 FFE8      06680                         MOVFF   BTCOUNT,WREG
003A0C 90D8           06681                         BCF             STATUS,C
003A0E 36E8           06682                         RLCF    WREG
                      06683 
                      06684                 
MPASM  5.51               20191125_RTCGPU.ASM   4-30-2024  22:19:12         PAGE 131


LOC  OBJECT CODE     LINE SOURCE TEXT
  VALUE

003A10 26F9           06685                         ADDWF   PCL,1,0
003A12 0CFF 0CFF 0CFF 06686                         DT      B'11111111',B'11111111',B'11111111'     ;BTC=00
003A18 0C87 0CFF 0C0F 06687                         DT      B'10000111',B'11111111',B'00001111'     ;BTC=01
003A1E 0C87 0CFF 0C0F 06688                         DT      B'10000111',B'11111111',B'00001111'     ;BTC=02
003A24 0C87 0CFF 0C0F 06689                         DT      B'10000111',B'11111111',B'00001111'     ;BTC=03
003A2A 0C87 0CFF 0C0F 06690                         DT      B'10000111',B'11111111',B'00001111'     ;BTC=04
003A30 0C87 0CFF 0C0F 06691                         DT      B'10000111',B'11111111',B'00001111'     ;BTC=05
003A36 0C87 0CFF 0C0F 06692                         DT      B'10000111',B'11111111',B'00001111'     ;BTC=06
003A3C 0C87 0CFF 0C0F 06693                         DT      B'10000111',B'11111111',B'00001111'     ;BTC=07
003A42 0C87 0CFF 0C0F 06694                         DT      B'10000111',B'11111111',B'00001111'     ;BTC=08
003A48 0C87 0CFF 0C0F 06695                         DT      B'10000111',B'11111111',B'00001111'     ;BTC=09
003A4E 0C87 0CFF 0C0F 06696                         DT      B'10000111',B'11111111',B'00001111'     ;BTC=0A
003A54 0C87 0CFF 0C0F 06697                         DT      B'10000111',B'11111111',B'00001111'     ;BTC=0B
003A5A 0C87 0CFF 0C0F 06698                         DT      B'10000111',B'11111111',B'00001111'     ;BTC=0C
003A60 0C87 0CFF 0C0F 06699                         DT      B'10000111',B'11111111',B'00001111'     ;BTC=0D
003A66 0C87 0CFF 0C0F 06700                         DT      B'10000111',B'11111111',B'00001111'     ;BTC=0E
003A6C 0C87 0CFF 0C0F 06701                         DT      B'10000111',B'11111111',B'00001111'     ;BTC=0F
                      06702 
                      06703 
003A72                06704 FONT02H_LOW_V
                      06705 
003A72 0E00           06706         MOVLW   0
003A74 6EFB           06707         MOVWF   PCLATU,0
003A76 0E3A           06708         MOVLW   3A
003A78 6EFA           06709         MOVWF   PCLATH,0
                      06710 
                      06711         
                      06712 
                      06713         
003A7A C146 FFE8      06714                         MOVFF   BTCOUNT,WREG
003A7E 90D8           06715                         BCF             STATUS,C
003A80 36E8           06716                         RLCF    WREG
                      06717 
                      06718                 
003A82 26F9           06719                         ADDWF   PCL,1,0
003A84 0CFF 0CFF 0CFF 06720                         DT      B'11111111',B'11111111',B'11111111'     ;BTC=00
003A8A 0CFF 0CFF 0CFF 06721                         DT      B'11111111',B'11111111',B'11111111'     ;BTC=01
003A90 0CFF 0CFF 0CFF 06722                         DT      B'11111111',B'11111111',B'11111111'     ;BTC=02
003A96 0CFF 0CFF 0CFF 06723                         DT      B'11111111',B'11111111',B'11111111'     ;BTC=03
003A9C 0CFF 0CFF 0CFF 06724                         DT      B'11111111',B'11111111',B'11111111'     ;BTC=04
003AA2 0CFF 0CFF 0CFF 06725                         DT      B'11111111',B'11111111',B'11111111'     ;BTC=05
003AA8 0CFF 0CFF 0CFF 06726                         DT      B'11111111',B'11111111',B'11111111'     ;BTC=06
003AAE 0CFF 0CFF 0CFF 06727                         DT      B'11111111',B'11111111',B'11111111'     ;BTC=07
003AB4 0CFF 0CFF 0CFF 06728                         DT      B'11111111',B'11111111',B'11111111'     ;BTC=08
003ABA 0CFF 0CFF 0CFF 06729                         DT      B'11111111',B'11111111',B'11111111'     ;BTC=09
003AC0 0CFF 0CFF 0CFF 06730                         DT      B'11111111',B'11111111',B'11111111'     ;BTC=0A
003AC6 0CFF 0CFF 0CFF 06731                         DT      B'11111111',B'11111111',B'11111111'     ;BTC=0B
003ACC 0CFF 0CFF 0CFF 06732                         DT      B'11111111',B'11111111',B'11111111'     ;BTC=0C
003AD2 0CFF 0CFF 0CFF 06733                         DT      B'11111111',B'11111111',B'11111111'     ;BTC=0D
003AD8 0C8F 0CFC 0C7F 06734                         DT      B'10001111',B'11111100',B'01111111'     ;BTC=0E
003ADE 0C8F 0CFC 0C7F 06735                         DT      B'10001111',B'11111100',B'01111111'     ;BTC=0F
                      06736 
                      06737 
MPASM  5.51               20191125_RTCGPU.ASM   4-30-2024  22:19:12         PAGE 132


LOC  OBJECT CODE     LINE SOURCE TEXT
  VALUE

Warning[205]: Found directive in column 1. (ORG)
003B00                06738 ORG 0X3B00
003B00                06739 FONT02L_CAP_V
                      06740 
003B00 0E00           06741         MOVLW   0
003B02 6EFB           06742         MOVWF   PCLATU,0
003B04 0E3B           06743         MOVLW   3B
003B06 6EFA           06744         MOVWF   PCLATH,0
                      06745 
                      06746 
                      06747 
                      06748 
003B08 C146 FFE8      06749                         MOVFF   BTCOUNT,WREG
003B0C 90D8           06750                         BCF             STATUS,C
003B0E 36E8           06751                         RLCF    WREG
                      06752 
                      06753                 
003B10 26F9           06754                         ADDWF   PCL,1,0
003B12 0C87 0CFF 0C0F 06755                         DT      B'10000111',B'11111111',B'00001111'     ;BTC=10
003B18 0C87 0CFF 0C0F 06756                         DT      B'10000111',B'11111111',B'00001111'     ;BTC=11
003B1E 0C87 0CFF 0C0F 06757                         DT      B'10000111',B'11111111',B'00001111'     ;BTC=12
003B24 0C87 0CFF 0C0F 06758                         DT      B'10000111',B'11111111',B'00001111'     ;BTC=13
003B2A 0C87 0CFF 0C0F 06759                         DT      B'10000111',B'11111111',B'00001111'     ;BTC=14
003B30 0C87 0CFF 0C0F 06760                         DT      B'10000111',B'11111111',B'00001111'     ;BTC=15
003B36 0C87 0CFF 0C0F 06761                         DT      B'10000111',B'11111111',B'00001111'     ;BTC=16
003B3C 0C87 0CFF 0C0F 06762                         DT      B'10000111',B'11111111',B'00001111'     ;BTC=17
003B42 0CC3 0CFE 0C1F 06763                         DT      B'11000011',B'11111110',B'00011111'     ;BTC=18
003B48 0CE1 0CFC 0C3F 06764                         DT      B'11100001',B'11111100',B'00111111'     ;BTC=19
003B4E 0CF0 0CF8 0C7F 06765                         DT      B'11110000',B'11111000',B'01111111'     ;BTC=1A
003B54 0CF8 0C70 0CFF 06766                         DT      B'11111000',B'01110000',B'11111111'     ;BTC=1B
003B5A 0CFC 0C01 0CFF 06767                         DT      B'11111100',B'00000001',B'11111111'     ;BTC=1C
003B60 0CFE 0C03 0CFF 06768                         DT      B'11111110',B'00000011',B'11111111'     ;BTC=1D
003B66 0CFF 0C07 0CFF 06769                         DT      B'11111111',B'00000111',B'11111111'     ;BTC=1E
003B6C 0CFF 0CFF 0CFF 06770                         DT      B'11111111',B'11111111',B'11111111'     ;BTC=1F
                      06771 
                      06772 
003B72                06773 FONT02L_LOW_V
                      06774 
003B72 0E00           06775         MOVLW   0
003B74 6EFB           06776         MOVWF   PCLATU,0
003B76 0E3B           06777         MOVLW   3B
003B78 6EFA           06778         MOVWF   PCLATH,0
                      06779 
                      06780 
                      06781 
                      06782 
003B7A C146 FFE8      06783                         MOVFF   BTCOUNT,WREG
003B7E 90D8           06784                         BCF             STATUS,C
003B80 36E8           06785                         RLCF    WREG
                      06786 
                      06787                 
003B82 26F9           06788                         ADDWF   PCL,1,0
003B84 0C8F 0CFC 0C7F 06789                         DT      B'10001111',B'11111100',B'01111111'     ;BTC=10
MPASM  5.51               20191125_RTCGPU.ASM   4-30-2024  22:19:12         PAGE 133


LOC  OBJECT CODE     LINE SOURCE TEXT
  VALUE

003B8A 0C8F 0CFC 0C7F 06790                         DT      B'10001111',B'11111100',B'01111111'     ;BTC=11
003B90 0C8F 0CFC 0C7F 06791                         DT      B'10001111',B'11111100',B'01111111'     ;BTC=12
003B96 0C8F 0CFC 0C7F 06792                         DT      B'10001111',B'11111100',B'01111111'     ;BTC=13
003B9C 0C8F 0CFC 0C7F 06793                         DT      B'10001111',B'11111100',B'01111111'     ;BTC=14
003BA2 0C8F 0CFC 0C7F 06794                         DT      B'10001111',B'11111100',B'01111111'     ;BTC=15
003BA8 0C8F 0CFC 0C7F 06795                         DT      B'10001111',B'11111100',B'01111111'     ;BTC=16
003BAE 0C8F 0CFC 0C7F 06796                         DT      B'10001111',B'11111100',B'01111111'     ;BTC=17
003BB4 0C8F 0CFC 0C7F 06797                         DT      B'10001111',B'11111100',B'01111111'     ;BTC=18
003BBA 0CC7 0CF8 0CFF 06798                         DT      B'11000111',B'11111000',B'11111111'     ;BTC=19
003BC0 0CE3 0CF1 0CFF 06799                         DT      B'11100011',B'11110001',B'11111111'     ;BTC=1A
003BC6 0CF1 0CE3 0CFF 06800                         DT      B'11110001',B'11100011',B'11111111'     ;BTC=1B
003BCC 0CF8 0CC7 0CFF 06801                         DT      B'11111000',B'11000111',B'11111111'     ;BTC=1C
003BD2 0CFC 0C0F 0CFF 06802                         DT      B'11111100',B'00001111',B'11111111'     ;BTC=1D
003BD8 0CFE 0C1F 0CFF 06803                         DT      B'11111110',B'00011111',B'11111111'     ;BTC=1E
003BDE 0CFF 0CFF 0CFF 06804                         DT      B'11111111',B'11111111',B'11111111'     ;BTC=1F
                      06805 
                      06806 
                      06807 
Warning[205]: Found directive in column 1. (ORG)
003C00                06808 ORG 0X3C00
003C00                06809 FONT02H_CAP_W
                      06810 
003C00 0E00           06811         MOVLW   0
003C02 6EFB           06812         MOVWF   PCLATU,0
003C04 0E3C           06813         MOVLW   3C
003C06 6EFA           06814         MOVWF   PCLATH,0
                      06815 
                      06816         
                      06817 
                      06818         
003C08 C146 FFE8      06819                         MOVFF   BTCOUNT,WREG
003C0C 90D8           06820                         BCF             STATUS,C
003C0E 36E8           06821                         RLCF    WREG
                      06822 
                      06823                 
003C10 26F9           06824                         ADDWF   PCL,1,0
003C12 0CFF 0CFF 0CFF 06825                         DT      B'11111111',B'11111111',B'11111111'     ;BTC=00
003C18 0C87 0CFF 0C0F 06826                         DT      B'10000111',B'11111111',B'00001111'     ;BTC=01
003C1E 0C87 0CFF 0C0F 06827                         DT      B'10000111',B'11111111',B'00001111'     ;BTC=02
003C24 0C87 0CFF 0C0F 06828                         DT      B'10000111',B'11111111',B'00001111'     ;BTC=03
003C2A 0C87 0CFF 0C0F 06829                         DT      B'10000111',B'11111111',B'00001111'     ;BTC=04
003C30 0C87 0CFF 0C0F 06830                         DT      B'10000111',B'11111111',B'00001111'     ;BTC=05
003C36 0C87 0CFF 0C0F 06831                         DT      B'10000111',B'11111111',B'00001111'     ;BTC=06
003C3C 0C87 0CFF 0C0F 06832                         DT      B'10000111',B'11111111',B'00001111'     ;BTC=07
003C42 0C87 0CFF 0C0F 06833                         DT      B'10000111',B'11111111',B'00001111'     ;BTC=08
003C48 0C87 0CFF 0C0F 06834                         DT      B'10000111',B'11111111',B'00001111'     ;BTC=09
003C4E 0C87 0C8F 0C0F 06835                         DT      B'10000111',B'10001111',B'00001111'     ;BTC=0A
003C54 0C87 0C8F 0C0F 06836                         DT      B'10000111',B'10001111',B'00001111'     ;BTC=0B
003C5A 0C87 0C8F 0C0F 06837                         DT      B'10000111',B'10001111',B'00001111'     ;BTC=0C
003C60 0C87 0C8F 0C0F 06838                         DT      B'10000111',B'10001111',B'00001111'     ;BTC=0D
003C66 0C87 0C8F 0C0F 06839                         DT      B'10000111',B'10001111',B'00001111'     ;BTC=0E
003C6C 0C87 0C8F 0C0F 06840                         DT      B'10000111',B'10001111',B'00001111'     ;BTC=0F
                      06841 
MPASM  5.51               20191125_RTCGPU.ASM   4-30-2024  22:19:12         PAGE 134


LOC  OBJECT CODE     LINE SOURCE TEXT
  VALUE

                      06842 
003C72                06843 FONT02H_LOW_W
                      06844 
003C72 0E00           06845         MOVLW   0
003C74 6EFB           06846         MOVWF   PCLATU,0
003C76 0E3C           06847         MOVLW   3C
003C78 6EFA           06848         MOVWF   PCLATH,0
                      06849 
                      06850         
                      06851 
                      06852         
003C7A C146 FFE8      06853                         MOVFF   BTCOUNT,WREG
003C7E 90D8           06854                         BCF             STATUS,C
003C80 36E8           06855                         RLCF    WREG
                      06856 
                      06857                 
003C82 26F9           06858                         ADDWF   PCL,1,0
003C84 0CFF 0CFF 0CFF 06859                         DT      B'11111111',B'11111111',B'11111111'     ;BTC=00
003C8A 0CFF 0CFF 0CFF 06860                         DT      B'11111111',B'11111111',B'11111111'     ;BTC=01
003C90 0CFF 0CFF 0CFF 06861                         DT      B'11111111',B'11111111',B'11111111'     ;BTC=02
003C96 0CFF 0CFF 0CFF 06862                         DT      B'11111111',B'11111111',B'11111111'     ;BTC=03
003C9C 0CFF 0CFF 0CFF 06863                         DT      B'11111111',B'11111111',B'11111111'     ;BTC=04
003CA2 0CFF 0CFF 0CFF 06864                         DT      B'11111111',B'11111111',B'11111111'     ;BTC=05
003CA8 0CFF 0CFF 0CFF 06865                         DT      B'11111111',B'11111111',B'11111111'     ;BTC=06
003CAE 0CFF 0CFF 0CFF 06866                         DT      B'11111111',B'11111111',B'11111111'     ;BTC=07
003CB4 0CFF 0CFF 0CFF 06867                         DT      B'11111111',B'11111111',B'11111111'     ;BTC=08
003CBA 0CFF 0CFF 0CFF 06868                         DT      B'11111111',B'11111111',B'11111111'     ;BTC=09
003CC0 0CFF 0CFF 0CFF 06869                         DT      B'11111111',B'11111111',B'11111111'     ;BTC=0A
003CC6 0CFF 0CFF 0CFF 06870                         DT      B'11111111',B'11111111',B'11111111'     ;BTC=0B
003CCC 0CFF 0CFF 0CFF 06871                         DT      B'11111111',B'11111111',B'11111111'     ;BTC=0C
003CD2 0CFF 0CFF 0CFF 06872                         DT      B'11111111',B'11111111',B'11111111'     ;BTC=0D
003CD8 0C8F 0C1E 0C3F 06873                         DT      B'10001111',B'00011110',B'00111111'     ;BTC=0E
003CDE 0C8F 0C1E 0C3F 06874                         DT      B'10001111',B'00011110',B'00111111'     ;BTC=0F
                      06875 
Warning[205]: Found directive in column 1. (ORG)
003D00                06876 ORG 0X3D00
003D00                06877 FONT02L_CAP_W
                      06878 
003D00 0E00           06879         MOVLW   0
003D02 6EFB           06880         MOVWF   PCLATU,0
003D04 0E3D           06881         MOVLW   3D
003D06 6EFA           06882         MOVWF   PCLATH,0
                      06883 
                      06884 
                      06885 
                      06886 
003D08 C146 FFE8      06887                         MOVFF   BTCOUNT,WREG
003D0C 90D8           06888                         BCF             STATUS,C
003D0E 36E8           06889                         RLCF    WREG
                      06890 
                      06891                 
003D10 26F9           06892                         ADDWF   PCL,1,0
003D12 0C87 0C8F 0C0F 06893                         DT      B'10000111',B'10001111',B'00001111'     ;BTC=10
MPASM  5.51               20191125_RTCGPU.ASM   4-30-2024  22:19:12         PAGE 135


LOC  OBJECT CODE     LINE SOURCE TEXT
  VALUE

003D18 0C87 0C8F 0C0F 06894                         DT      B'10000111',B'10001111',B'00001111'     ;BTC=11
003D1E 0C87 0C8F 0C0F 06895                         DT      B'10000111',B'10001111',B'00001111'     ;BTC=12
003D24 0C87 0C8F 0C0F 06896                         DT      B'10000111',B'10001111',B'00001111'     ;BTC=13
003D2A 0C87 0C8F 0C0F 06897                         DT      B'10000111',B'10001111',B'00001111'     ;BTC=14
003D30 0C87 0C8F 0C0F 06898                         DT      B'10000111',B'10001111',B'00001111'     ;BTC=15
003D36 0C87 0C8F 0C0F 06899                         DT      B'10000111',B'10001111',B'00001111'     ;BTC=16
003D3C 0C87 0C8F 0C0F 06900                         DT      B'10000111',B'10001111',B'00001111'     ;BTC=17
003D42 0C87 0C8F 0C0F 06901                         DT      B'10000111',B'10001111',B'00001111'     ;BTC=18
003D48 0C87 0C8F 0C0F 06902                         DT      B'10000111',B'10001111',B'00001111'     ;BTC=19
003D4E 0C87 0C8F 0C0F 06903                         DT      B'10000111',B'10001111',B'00001111'     ;BTC=1A
003D54 0C83 0C06 0C0F 06904                         DT      B'10000011',B'00000110',B'00001111'     ;BTC=1B
003D5A 0CC0 0C00 0C1F 06905                         DT      B'11000000',B'00000000',B'00011111'     ;BTC=1C
003D60 0CE0 0C20 0C3F 06906                         DT      B'11100000',B'00100000',B'00111111'     ;BTC=1D
003D66 0CF0 0C70 0C7F 06907                         DT      B'11110000',B'01110000',B'01111111'     ;BTC=1E
003D6C 0CFF 0CFF 0CFF 06908                         DT      B'11111111',B'11111111',B'11111111'     ;BTC=1F
                      06909 
                      06910 
003D72                06911 FONT02L_LOW_W
                      06912 
003D72 0E00           06913         MOVLW   0
003D74 6EFB           06914         MOVWF   PCLATU,0
003D76 0E3D           06915         MOVLW   3D
003D78 6EFA           06916         MOVWF   PCLATH,0
                      06917 
                      06918 
                      06919 
                      06920 
003D7A C146 FFE8      06921                         MOVFF   BTCOUNT,WREG
003D7E 90D8           06922                         BCF             STATUS,C
003D80 36E8           06923                         RLCF    WREG
                      06924 
                      06925                 
003D82 26F9           06926                         ADDWF   PCL,1,0
003D84 0C8F 0C1E 0C3F 06927                         DT      B'10001111',B'00011110',B'00111111'     ;BTC=10
003D8A 0C8F 0C1E 0C3F 06928                         DT      B'10001111',B'00011110',B'00111111'     ;BTC=11
003D90 0C8F 0C1E 0C3F 06929                         DT      B'10001111',B'00011110',B'00111111'     ;BTC=12
003D96 0C8F 0C1E 0C3F 06930                         DT      B'10001111',B'00011110',B'00111111'     ;BTC=13
003D9C 0C8F 0C1E 0C3F 06931                         DT      B'10001111',B'00011110',B'00111111'     ;BTC=14
003DA2 0C8F 0C1E 0C3F 06932                         DT      B'10001111',B'00011110',B'00111111'     ;BTC=15
003DA8 0C8F 0C1E 0C3F 06933                         DT      B'10001111',B'00011110',B'00111111'     ;BTC=16
003DAE 0C8F 0C1E 0C3F 06934                         DT      B'10001111',B'00011110',B'00111111'     ;BTC=17
003DB4 0C8F 0C1E 0C3F 06935                         DT      B'10001111',B'00011110',B'00111111'     ;BTC=18
003DBA 0C8F 0C1E 0C3F 06936                         DT      B'10001111',B'00011110',B'00111111'     ;BTC=19
003DC0 0C8F 0C1E 0C3F 06937                         DT      B'10001111',B'00011110',B'00111111'     ;BTC=1A
003DC6 0C86 0C0C 0C3F 06938                         DT      B'10000110',B'00001100',B'00111111'     ;BTC=1B
003DCC 0C80 0C00 0C3F 06939                         DT      B'10000000',B'00000000',B'00111111'     ;BTC=1C
003DD2 0CC0 0C40 0C3F 06940                         DT      B'11000000',B'01000000',B'00111111'     ;BTC=1D
003DD8 0CE0 0CE2 0C3F 06941                         DT      B'11100000',B'11100010',B'00111111'     ;BTC=1E
003DDE 0CFF 0CFF 0CFF 06942                         DT      B'11111111',B'11111111',B'11111111'     ;BTC=1F
                      06943 
                      06944 
                      06945 
                      06946 
MPASM  5.51               20191125_RTCGPU.ASM   4-30-2024  22:19:12         PAGE 136


LOC  OBJECT CODE     LINE SOURCE TEXT
  VALUE

Warning[205]: Found directive in column 1. (ORG)
003E00                06947 ORG 0X3E00
003E00                06948 FONT02H_CAP_X
                      06949 
003E00 0E00           06950         MOVLW   0
003E02 6EFB           06951         MOVWF   PCLATU,0
003E04 0E3E           06952         MOVLW   3E
003E06 6EFA           06953         MOVWF   PCLATH,0
                      06954 
                      06955         
                      06956 
                      06957         
003E08 C146 FFE8      06958                         MOVFF   BTCOUNT,WREG
003E0C 90D8           06959                         BCF             STATUS,C
003E0E 36E8           06960                         RLCF    WREG
                      06961 
                      06962                 
003E10 26F9           06963                         ADDWF   PCL,1,0
003E12 0CFF 0CFF 0CFF 06964                         DT      B'11111111',B'11111111',B'11111111'     ;BTC=00
003E18 0C87 0CFF 0C0F 06965                         DT      B'10000111',B'11111111',B'00001111'     ;BTC=01
003E1E 0C87 0CFF 0C0F 06966                         DT      B'10000111',B'11111111',B'00001111'     ;BTC=02
003E24 0C87 0CFF 0C0F 06967                         DT      B'10000111',B'11111111',B'00001111'     ;BTC=03
003E2A 0C87 0CFF 0C0F 06968                         DT      B'10000111',B'11111111',B'00001111'     ;BTC=04
003E30 0C87 0CFF 0C0F 06969                         DT      B'10000111',B'11111111',B'00001111'     ;BTC=05
003E36 0C87 0CFF 0C0F 06970                         DT      B'10000111',B'11111111',B'00001111'     ;BTC=06
003E3C 0C87 0CFF 0C0F 06971                         DT      B'10000111',B'11111111',B'00001111'     ;BTC=07
003E42 0C87 0CFE 0C1F 06972                         DT      B'10000111',B'11111110',B'00011111'     ;BTC=08
003E48 0CC3 0CFC 0C3F 06973                         DT      B'11000011',B'11111100',B'00111111'     ;BTC=09
003E4E 0CE1 0CF8 0C7F 06974                         DT      B'11100001',B'11111000',B'01111111'     ;BTC=0A
003E54 0CF0 0CF0 0CFF 06975                         DT      B'11110000',B'11110000',B'11111111'     ;BTC=0B
003E5A 0CF8 0C61 0CFF 06976                         DT      B'11111000',B'01100001',B'11111111'     ;BTC=0C
003E60 0CFC 0C03 0CFF 06977                         DT      B'11111100',B'00000011',B'11111111'     ;BTC=0D
003E66 0CFE 0C07 0CFF 06978                         DT      B'11111110',B'00000111',B'11111111'     ;BTC=0E
003E6C 0CFF 0C0F 0CFF 06979                         DT      B'11111111',B'00001111',B'11111111'     ;BTC=0F
003E72 0CFF 0C0F 0CFF 06980                         DT      B'11111111',B'00001111',B'11111111'     ;BTC=10
                      06981 
                      06982 
003E78                06983 FONT02H_LOW_X
                      06984 
003E78 0E00           06985         MOVLW   0
003E7A 6EFB           06986         MOVWF   PCLATU,0
003E7C 0E3E           06987         MOVLW   3E
003E7E 6EFA           06988         MOVWF   PCLATH,0
                      06989 
                      06990         
                      06991 
                      06992         
003E80 C146 FFE8      06993                         MOVFF   BTCOUNT,WREG
003E84 90D8           06994                         BCF             STATUS,C
003E86 36E8           06995                         RLCF    WREG
                      06996 
                      06997                 
003E88 26F9           06998                         ADDWF   PCL,1,0
MPASM  5.51               20191125_RTCGPU.ASM   4-30-2024  22:19:12         PAGE 137


LOC  OBJECT CODE     LINE SOURCE TEXT
  VALUE

003E8A 0CFF 0CFF 0CFF 06999                         DT      B'11111111',B'11111111',B'11111111'     ;BTC=00
003E90 0CFF 0CFF 0CFF 07000                         DT      B'11111111',B'11111111',B'11111111'     ;BTC=01
003E96 0CFF 0CFF 0CFF 07001                         DT      B'11111111',B'11111111',B'11111111'     ;BTC=02
003E9C 0CFF 0CFF 0CFF 07002                         DT      B'11111111',B'11111111',B'11111111'     ;BTC=03
003EA2 0CFF 0CFF 0CFF 07003                         DT      B'11111111',B'11111111',B'11111111'     ;BTC=04
003EA8 0CFF 0CFF 0CFF 07004                         DT      B'11111111',B'11111111',B'11111111'     ;BTC=05
003EAE 0CFF 0CFF 0CFF 07005                         DT      B'11111111',B'11111111',B'11111111'     ;BTC=06
003EB4 0CFF 0CFF 0CFF 07006                         DT      B'11111111',B'11111111',B'11111111'     ;BTC=07
003EBA 0CFF 0CFF 0CFF 07007                         DT      B'11111111',B'11111111',B'11111111'     ;BTC=08
003EC0 0CFF 0CFF 0CFF 07008                         DT      B'11111111',B'11111111',B'11111111'     ;BTC=09
003EC6 0CFF 0CFF 0CFF 07009                         DT      B'11111111',B'11111111',B'11111111'     ;BTC=0A
003ECC 0CFF 0CFF 0CFF 07010                         DT      B'11111111',B'11111111',B'11111111'     ;BTC=0B
003ED2 0CFF 0CFF 0CFF 07011                         DT      B'11111111',B'11111111',B'11111111'     ;BTC=0C
003ED8 0CFF 0CFF 0CFF 07012                         DT      B'11111111',B'11111111',B'11111111'     ;BTC=0D
003EDE 0C8F 0CFC 0C7F 07013                         DT      B'10001111',B'11111100',B'01111111'     ;BTC=0E
003EE4 0C8F 0CFC 0C7F 07014                         DT      B'10001111',B'11111100',B'01111111'     ;BTC=0F
                      07015 
                      07016 
Warning[205]: Found directive in column 1. (ORG)
003F00                07017 ORG 0X3F00
003F00                07018 FONT02L_CAP_X
                      07019 
003F00 0E00           07020         MOVLW   0
003F02 6EFB           07021         MOVWF   PCLATU,0
003F04 0E3F           07022         MOVLW   3F
003F06 6EFA           07023         MOVWF   PCLATH,0
                      07024 
                      07025 
                      07026 
                      07027 
003F08 C146 FFE8      07028                         MOVFF   BTCOUNT,WREG
003F0C 90D8           07029                         BCF             STATUS,C
003F0E 36E8           07030                         RLCF    WREG
                      07031 
                      07032                 
003F10 26F9           07033                         ADDWF   PCL,1,0
003F12 0CFF 0C0F 0CFF 07034                         DT      B'11111111',B'00001111',B'11111111'     ;BTC=10
003F18 0CFE 0C07 0CFF 07035                         DT      B'11111110',B'00000111',B'11111111'     ;BTC=11
003F1E 0CFC 0C03 0CFF 07036                         DT      B'11111100',B'00000011',B'11111111'     ;BTC=12
003F24 0CF8 0C61 0CFF 07037                         DT      B'11111000',B'01100001',B'11111111'     ;BTC=13
003F2A 0CF0 0CF0 0CFF 07038                         DT      B'11110000',B'11110000',B'11111111'     ;BTC=14
003F30 0CE1 0CF8 0C7F 07039                         DT      B'11100001',B'11111000',B'01111111'     ;BTC=15
003F36 0CC3 0CFC 0C3F 07040                         DT      B'11000011',B'11111100',B'00111111'     ;BTC=16
003F3C 0C87 0CFE 0C1F 07041                         DT      B'10000111',B'11111110',B'00011111'     ;BTC=17
003F42 0C87 0CFF 0C0F 07042                         DT      B'10000111',B'11111111',B'00001111'     ;BTC=18
003F48 0C87 0CFF 0C0F 07043                         DT      B'10000111',B'11111111',B'00001111'     ;BTC=19
003F4E 0C87 0CFF 0C0F 07044                         DT      B'10000111',B'11111111',B'00001111'     ;BTC=1A
003F54 0C87 0CFF 0C0F 07045                         DT      B'10000111',B'11111111',B'00001111'     ;BTC=1B
003F5A 0C87 0CFF 0C0F 07046                         DT      B'10000111',B'11111111',B'00001111'     ;BTC=1C
003F60 0C87 0CFF 0C0F 07047                         DT      B'10000111',B'11111111',B'00001111'     ;BTC=1D
003F66 0C87 0CFF 0C0F 07048                         DT      B'10000111',B'11111111',B'00001111'     ;BTC=1E
003F6C 0CFF 0CFF 0CFF 07049                         DT      B'11111111',B'11111111',B'11111111'     ;BTC=1F
                      07050 
MPASM  5.51               20191125_RTCGPU.ASM   4-30-2024  22:19:12         PAGE 138


LOC  OBJECT CODE     LINE SOURCE TEXT
  VALUE

                      07051 
003F72                07052 FONT02L_LOW_X
                      07053 
003F72 0E00           07054         MOVLW   0
003F74 6EFB           07055         MOVWF   PCLATU,0
003F76 0E3F           07056         MOVLW   3F
003F78 6EFA           07057         MOVWF   PCLATH,0
                      07058 
                      07059 
                      07060 
                      07061 
003F7A C146 FFE8      07062                         MOVFF   BTCOUNT,WREG
003F7E 90D8           07063                         BCF             STATUS,C
003F80 36E8           07064                         RLCF    WREG
                      07065 
                      07066                 
003F82 26F9           07067                         ADDWF   PCL,1,0
003F84 0CC7 0CFC 0C7F 07068                         DT      B'11000111',B'11111100',B'01111111'     ;BTC=10
003F8A 0CE3 0CF8 0CFF 07069                         DT      B'11100011',B'11111000',B'11111111'     ;BTC=11
003F90 0CF1 0CF1 0CFF 07070                         DT      B'11110001',B'11110001',B'11111111'     ;BTC=12
003F96 0CF8 0CE3 0CFF 07071                         DT      B'11111000',B'11100011',B'11111111'     ;BTC=13
003F9C 0CFC 0C47 0CFF 07072                         DT      B'11111100',B'01000111',B'11111111'     ;BTC=14
003FA2 0CFE 0C0F 0CFF 07073                         DT      B'11111110',B'00001111',B'11111111'     ;BTC=15
003FA8 0CFE 0C1F 0CFF 07074                         DT      B'11111110',B'00011111',B'11111111'     ;BTC=16
003FAE 0CFC 0C0F 0CFF 07075                         DT      B'11111100',B'00001111',B'11111111'     ;BTC=17
003FB4 0CF8 0CC7 0CFF 07076                         DT      B'11111000',B'11000111',B'11111111'     ;BTC=18
003FBA 0CF1 0CE3 0CFF 07077                         DT      B'11110001',B'11100011',B'11111111'     ;BTC=19
003FC0 0CE3 0CF1 0CFF 07078                         DT      B'11100011',B'11110001',B'11111111'     ;BTC=1A
003FC6 0CC7 0CF8 0CFF 07079                         DT      B'11000111',B'11111000',B'11111111'     ;BTC=1B
003FCC 0C8F 0CFC 0C7F 07080                         DT      B'10001111',B'11111100',B'01111111'     ;BTC=1C
003FD2 0C8F 0CFC 0C7F 07081                         DT      B'10001111',B'11111100',B'01111111'     ;BTC=1D
003FD8 0C8F 0CFC 0C7F 07082                         DT      B'10001111',B'11111100',B'01111111'     ;BTC=1E
003FDE 0CFF 0CFF 0CFF 07083                         DT      B'11111111',B'11111111',B'11111111'     ;BTC=1F
                      07084 
                      07085 
                      07086 
                      07087 
                      07088 
Warning[205]: Found directive in column 1. (ORG)
004000                07089 ORG 0X4000
004000                07090 FONT02H_CAP_Y
                      07091 
004000 0E00           07092         MOVLW   0
004002 6EFB           07093         MOVWF   PCLATU,0
004004 0E40           07094         MOVLW   40
004006 6EFA           07095         MOVWF   PCLATH,0
                      07096 
                      07097         
                      07098 
                      07099         
004008 C146 FFE8      07100                         MOVFF   BTCOUNT,WREG
00400C 90D8           07101                         BCF             STATUS,C
00400E 36E8           07102                         RLCF    WREG
MPASM  5.51               20191125_RTCGPU.ASM   4-30-2024  22:19:12         PAGE 139


LOC  OBJECT CODE     LINE SOURCE TEXT
  VALUE

                      07103 
                      07104                 
004010 26F9           07105                         ADDWF   PCL,1,0
004012 0CFF 0CFF 0CFF 07106                         DT      B'11111111',B'11111111',B'11111111'     ;BTC=00
004018 0C87 0CFF 0C0F 07107                         DT      B'10000111',B'11111111',B'00001111'     ;BTC=01
00401E 0C87 0CFF 0C0F 07108                         DT      B'10000111',B'11111111',B'00001111'     ;BTC=02
004024 0C87 0CFF 0C0F 07109                         DT      B'10000111',B'11111111',B'00001111'     ;BTC=03
00402A 0C87 0CFF 0C0F 07110                         DT      B'10000111',B'11111111',B'00001111'     ;BTC=04
004030 0C87 0CFF 0C0F 07111                         DT      B'10000111',B'11111111',B'00001111'     ;BTC=05
004036 0C87 0CFF 0C0F 07112                         DT      B'10000111',B'11111111',B'00001111'     ;BTC=06
00403C 0C87 0CFF 0C0F 07113                         DT      B'10000111',B'11111111',B'00001111'     ;BTC=07
004042 0C87 0CFE 0C1F 07114                         DT      B'10000111',B'11111110',B'00011111'     ;BTC=08
004048 0CC3 0CFC 0C3F 07115                         DT      B'11000011',B'11111100',B'00111111'     ;BTC=09
00404E 0CE1 0CF8 0C7F 07116                         DT      B'11100001',B'11111000',B'01111111'     ;BTC=0A
004054 0CF0 0CF0 0CFF 07117                         DT      B'11110000',B'11110000',B'11111111'     ;BTC=0B
00405A 0CF8 0C61 0CFF 07118                         DT      B'11111000',B'01100001',B'11111111'     ;BTC=0C
004060 0CFC 0C03 0CFF 07119                         DT      B'11111100',B'00000011',B'11111111'     ;BTC=0D
004066 0CFE 0C07 0CFF 07120                         DT      B'11111110',B'00000111',B'11111111'     ;BTC=0E
00406C 0CFF 0C0F 0CFF 07121                         DT      B'11111111',B'00001111',B'11111111'     ;BTC=0F
004072 0CFF 0C0F 0CFF 07122                         DT      B'11111111',B'00001111',B'11111111'     ;BTC=10
                      07123 
                      07124 
004078                07125 FONT02H_LOW_Y
                      07126 
004078 0E00           07127         MOVLW   0
00407A 6EFB           07128         MOVWF   PCLATU,0
00407C 0E40           07129         MOVLW   40
00407E 6EFA           07130         MOVWF   PCLATH,0
                      07131 
                      07132         
                      07133 
                      07134         
004080 C146 FFE8      07135                         MOVFF   BTCOUNT,WREG
004084 90D8           07136                         BCF             STATUS,C
004086 36E8           07137                         RLCF    WREG
                      07138 
                      07139                 
004088 26F9           07140                         ADDWF   PCL,1,0
00408A 0CFF 0CFF 0CFF 07141                         DT      B'11111111',B'11111111',B'11111111'     ;BTC=00
004090 0CFF 0CFF 0CFF 07142                         DT      B'11111111',B'11111111',B'11111111'     ;BTC=01
004096 0CFF 0CFF 0CFF 07143                         DT      B'11111111',B'11111111',B'11111111'     ;BTC=02
00409C 0CFF 0CFF 0CFF 07144                         DT      B'11111111',B'11111111',B'11111111'     ;BTC=03
0040A2 0CFF 0CFF 0CFF 07145                         DT      B'11111111',B'11111111',B'11111111'     ;BTC=04
0040A8 0CFF 0CFF 0CFF 07146                         DT      B'11111111',B'11111111',B'11111111'     ;BTC=05
0040AE 0CFF 0CFF 0CFF 07147                         DT      B'11111111',B'11111111',B'11111111'     ;BTC=06
0040B4 0CFF 0CFF 0CFF 07148                         DT      B'11111111',B'11111111',B'11111111'     ;BTC=07
0040BA 0CFF 0CFF 0CFF 07149                         DT      B'11111111',B'11111111',B'11111111'     ;BTC=08
0040C0 0CFF 0CFF 0CFF 07150                         DT      B'11111111',B'11111111',B'11111111'     ;BTC=09
0040C6 0CFF 0CFF 0CFF 07151                         DT      B'11111111',B'11111111',B'11111111'     ;BTC=0A
0040CC 0CFF 0CFF 0CFF 07152                         DT      B'11111111',B'11111111',B'11111111'     ;BTC=0B
0040D2 0CFF 0CFF 0CFF 07153                         DT      B'11111111',B'11111111',B'11111111'     ;BTC=0C
0040D8 0CFF 0CFF 0CFF 07154                         DT      B'11111111',B'11111111',B'11111111'     ;BTC=0D
0040DE 0C8F 0CFC 0C7F 07155                         DT      B'10001111',B'11111100',B'01111111'     ;BTC=0E
MPASM  5.51               20191125_RTCGPU.ASM   4-30-2024  22:19:12         PAGE 140


LOC  OBJECT CODE     LINE SOURCE TEXT
  VALUE

0040E4 0C8F 0CFC 0C7F 07156                         DT      B'10001111',B'11111100',B'01111111'     ;BTC=0F
                      07157 
Warning[205]: Found directive in column 1. (ORG)
004100                07158 ORG 0X4100
004100                07159 FONT02L_CAP_Y
                      07160 
004100 0E00           07161         MOVLW   0
004102 6EFB           07162         MOVWF   PCLATU,0
004104 0E41           07163         MOVLW   41
004106 6EFA           07164         MOVWF   PCLATH,0
                      07165 
                      07166 
                      07167 
                      07168 
004108 C146 FFE8      07169                         MOVFF   BTCOUNT,WREG
00410C 90D8           07170                         BCF             STATUS,C
00410E 36E8           07171                         RLCF    WREG
                      07172 
                      07173                 
004110 26F9           07174                         ADDWF   PCL,1,0
004112 0CFF 0C0F 0CFF 07175                         DT      B'11111111',B'00001111',B'11111111'     ;BTC=10
004118 0CFF 0C0F 0CFF 07176                         DT      B'11111111',B'00001111',B'11111111'     ;BTC=11
00411E 0CFF 0C0F 0CFF 07177                         DT      B'11111111',B'00001111',B'11111111'     ;BTC=12
004124 0CFF 0C0F 0CFF 07178                         DT      B'11111111',B'00001111',B'11111111'     ;BTC=13
00412A 0CFF 0C0F 0CFF 07179                         DT      B'11111111',B'00001111',B'11111111'     ;BTC=14
004130 0CFF 0C0F 0CFF 07180                         DT      B'11111111',B'00001111',B'11111111'     ;BTC=15
004136 0CFF 0C0F 0CFF 07181                         DT      B'11111111',B'00001111',B'11111111'     ;BTC=16
00413C 0CFF 0C0F 0CFF 07182                         DT      B'11111111',B'00001111',B'11111111'     ;BTC=17
004142 0CFF 0C0F 0CFF 07183                         DT      B'11111111',B'00001111',B'11111111'     ;BTC=18
004148 0CFF 0C0F 0CFF 07184                         DT      B'11111111',B'00001111',B'11111111'     ;BTC=19
00414E 0CFF 0C0F 0CFF 07185                         DT      B'11111111',B'00001111',B'11111111'     ;BTC=1A
004154 0CFF 0C0F 0CFF 07186                         DT      B'11111111',B'00001111',B'11111111'     ;BTC=1B
00415A 0CFF 0C0F 0CFF 07187                         DT      B'11111111',B'00001111',B'11111111'     ;BTC=1C
004160 0CFF 0C0F 0CFF 07188                         DT      B'11111111',B'00001111',B'11111111'     ;BTC=1D
004166 0CFF 0C0F 0CFF 07189                         DT      B'11111111',B'00001111',B'11111111'     ;BTC=1E
00416C 0CFF 0CFF 0CFF 07190                         DT      B'11111111',B'11111111',B'11111111'     ;BTC=1F
                      07191 
                      07192 
004172                07193 FONT02L_LOW_Y
                      07194 
004172 0E00           07195         MOVLW   0
004174 6EFB           07196         MOVWF   PCLATU,0
004176 0E41           07197         MOVLW   41
004178 6EFA           07198         MOVWF   PCLATH,0
                      07199 
                      07200 
                      07201 
                      07202 
00417A C146 FFE8      07203                         MOVFF   BTCOUNT,WREG
00417E 90D8           07204                         BCF             STATUS,C
004180 36E8           07205                         RLCF    WREG
                      07206 
                      07207                 
MPASM  5.51               20191125_RTCGPU.ASM   4-30-2024  22:19:12         PAGE 141


LOC  OBJECT CODE     LINE SOURCE TEXT
  VALUE

004182 26F9           07208                         ADDWF   PCL,1,0
004184 0C8F 0CFC 0C7F 07209                         DT      B'10001111',B'11111100',B'01111111'     ;BTC=10
00418A 0CC7 0CF8 0CFF 07210                         DT      B'11000111',B'11111000',B'11111111'     ;BTC=11
004190 0CE3 0CF1 0CFF 07211                         DT      B'11100011',B'11110001',B'11111111'     ;BTC=12
004196 0CF1 0CE3 0CFF 07212                         DT      B'11110001',B'11100011',B'11111111'     ;BTC=13
00419C 0CF8 0CC7 0CFF 07213                         DT      B'11111000',B'11000111',B'11111111'     ;BTC=14
0041A2 0CFC 0C0F 0CFF 07214                         DT      B'11111100',B'00001111',B'11111111'     ;BTC=15
0041A8 0CFE 0C1F 0CFF 07215                         DT      B'11111110',B'00011111',B'11111111'     ;BTC=16
0041AE 0CFE 0C3F 0CFF 07216                         DT      B'11111110',B'00111111',B'11111111'     ;BTC=17
0041B4 0CFC 0C7F 0CFF 07217                         DT      B'11111100',B'01111111',B'11111111'     ;BTC=18
0041BA 0CF8 0CFF 0CFF 07218                         DT      B'11111000',B'11111111',B'11111111'     ;BTC=19
0041C0 0CF1 0CFF 0CFF 07219                         DT      B'11110001',B'11111111',B'11111111'     ;BTC=1A
0041C6 0CE3 0CFF 0CFF 07220                         DT      B'11100011',B'11111111',B'11111111'     ;BTC=1B
0041CC 0CC7 0CFF 0CFF 07221                         DT      B'11000111',B'11111111',B'11111111'     ;BTC=1C
0041D2 0C8F 0CFF 0CFF 07222                         DT      B'10001111',B'11111111',B'11111111'     ;BTC=1D
0041D8 0C8F 0CFF 0CFF 07223                         DT      B'10001111',B'11111111',B'11111111'     ;BTC=1E
0041DE 0C8F 0CFF 0CFF 07224                         DT      B'10001111',B'11111111',B'11111111'     ;BTC=1F
                      07225 
                      07226 
Warning[205]: Found directive in column 1. (ORG)
004200                07227 ORG 0X4200
004200                07228 FONT02H_CAP_Z
                      07229 
004200 0E00           07230         MOVLW   0
004202 6EFB           07231         MOVWF   PCLATU,0
004204 0E42           07232         MOVLW   42
004206 6EFA           07233         MOVWF   PCLATH,0
                      07234 
                      07235         
                      07236 
                      07237         
004208 C146 FFE8      07238                         MOVFF   BTCOUNT,WREG
00420C 90D8           07239                         BCF             STATUS,C
00420E 36E8           07240                         RLCF    WREG
                      07241 
                      07242                 
004210 26F9           07243                         ADDWF   PCL,1,0
004212 0CFF 0CFF 0CFF 07244                         DT      B'11111111',B'11111111',B'11111111'     ;BTC=00
004218 0C80 0C00 0C0F 07245                         DT      B'10000000',B'00000000',B'00001111'     ;BTC=01
00421E 0C80 0C00 0C0F 07246                         DT      B'10000000',B'00000000',B'00001111'     ;BTC=02
004224 0C80 0C00 0C0F 07247                         DT      B'10000000',B'00000000',B'00001111'     ;BTC=03
00422A 0C80 0C00 0C0F 07248                         DT      B'10000000',B'00000000',B'00001111'     ;BTC=04
004230 0CFF 0CFF 0C0F 07249                         DT      B'11111111',B'11111111',B'00001111'     ;BTC=05
004236 0CFF 0CFF 0C0F 07250                         DT      B'11111111',B'11111111',B'00001111'     ;BTC=06
00423C 0CFF 0CFF 0C0F 07251                         DT      B'11111111',B'11111111',B'00001111'     ;BTC=07
004242 0CFF 0CFE 0C1F 07252                         DT      B'11111111',B'11111110',B'00011111'     ;BTC=08
004248 0CFF 0CFC 0C3F 07253                         DT      B'11111111',B'11111100',B'00111111'     ;BTC=09
00424E 0CFF 0CF8 0C7F 07254                         DT      B'11111111',B'11111000',B'01111111'     ;BTC=0A
004254 0CFF 0CF0 0CFF 07255                         DT      B'11111111',B'11110000',B'11111111'     ;BTC=0B
00425A 0CFF 0CE1 0CFF 07256                         DT      B'11111111',B'11100001',B'11111111'     ;BTC=0C
004260 0CFF 0CC3 0CFF 07257                         DT      B'11111111',B'11000011',B'11111111'     ;BTC=0D
004266 0CFF 0C87 0CFF 07258                         DT      B'11111111',B'10000111',B'11111111'     ;BTC=0E 
00426C 0CFF 0C0F 0CFF 07259                         DT      B'11111111',B'00001111',B'11111111'     ;BTC=0F
MPASM  5.51               20191125_RTCGPU.ASM   4-30-2024  22:19:12         PAGE 142


LOC  OBJECT CODE     LINE SOURCE TEXT
  VALUE

                      07260 
                      07261 
004272                07262 FONT02H_LOW_Z
                      07263 
004272 0E00           07264         MOVLW   0
004274 6EFB           07265         MOVWF   PCLATU,0
004276 0E42           07266         MOVLW   42
004278 6EFA           07267         MOVWF   PCLATH,0
                      07268 
                      07269         
                      07270 
                      07271         
00427A C146 FFE8      07272                         MOVFF   BTCOUNT,WREG
00427E 90D8           07273                         BCF             STATUS,C
004280 36E8           07274                         RLCF    WREG
                      07275 
                      07276                 
004282 26F9           07277                         ADDWF   PCL,1,0
004284 0CFF 0CFF 0CFF 07278                         DT      B'11111111',B'11111111',B'11111111'     ;BTC=00
00428A 0CFF 0CFF 0CFF 07279                         DT      B'11111111',B'11111111',B'11111111'     ;BTC=01
004290 0CFF 0CFF 0CFF 07280                         DT      B'11111111',B'11111111',B'11111111'     ;BTC=02
004296 0CFF 0CFF 0CFF 07281                         DT      B'11111111',B'11111111',B'11111111'     ;BTC=03
00429C 0CFF 0CFF 0CFF 07282                         DT      B'11111111',B'11111111',B'11111111'     ;BTC=04
0042A2 0CFF 0CFF 0CFF 07283                         DT      B'11111111',B'11111111',B'11111111'     ;BTC=05
0042A8 0CFF 0CFF 0CFF 07284                         DT      B'11111111',B'11111111',B'11111111'     ;BTC=06
0042AE 0CFF 0CFF 0CFF 07285                         DT      B'11111111',B'11111111',B'11111111'     ;BTC=07
0042B4 0CFF 0CFF 0CFF 07286                         DT      B'11111111',B'11111111',B'11111111'     ;BTC=08
0042BA 0CFF 0CFF 0CFF 07287                         DT      B'11111111',B'11111111',B'11111111'     ;BTC=09
0042C0 0CFF 0CFF 0CFF 07288                         DT      B'11111111',B'11111111',B'11111111'     ;BTC=0A
0042C6 0CFF 0CFF 0CFF 07289                         DT      B'11111111',B'11111111',B'11111111'     ;BTC=0B
0042CC 0CFF 0CFF 0CFF 07290                         DT      B'11111111',B'11111111',B'11111111'     ;BTC=0C
0042D2 0CFF 0CFF 0CFF 07291                         DT      B'11111111',B'11111111',B'11111111'     ;BTC=0D
0042D8 0C80 0C00 0C7F 07292                         DT      B'10000000',B'00000000',B'01111111'     ;BTC=0E
0042DE 0C80 0C00 0C7F 07293                         DT      B'10000000',B'00000000',B'01111111'     ;BTC=0F
                      07294 
                      07295 
Warning[205]: Found directive in column 1. (ORG)
004300                07296 ORG 0X4300
004300                07297 FONT02L_CAP_Z
                      07298 
004300 0E00           07299         MOVLW   0
004302 6EFB           07300         MOVWF   PCLATU,0
004304 0E43           07301         MOVLW   43
004306 6EFA           07302         MOVWF   PCLATH,0
                      07303 
                      07304 
                      07305 
                      07306 
004308 C146 FFE8      07307                         MOVFF   BTCOUNT,WREG
00430C 90D8           07308                         BCF             STATUS,C
00430E 36E8           07309                         RLCF    WREG
                      07310 
                      07311                 
MPASM  5.51               20191125_RTCGPU.ASM   4-30-2024  22:19:12         PAGE 143


LOC  OBJECT CODE     LINE SOURCE TEXT
  VALUE

004310 26F9           07312                         ADDWF   PCL,1,0
004312 0CFE 0C1F 0CFF 07313                         DT      B'11111110',B'00011111',B'11111111'     ;BTC=10
004318 0CFC 0C3F 0CFF 07314                         DT      B'11111100',B'00111111',B'11111111'     ;BTC=11
00431E 0CF8 0C7F 0CFF 07315                         DT      B'11111000',B'01111111',B'11111111'     ;BTC=12
004324 0CF0 0CFF 0CFF 07316                         DT      B'11110000',B'11111111',B'11111111'     ;BTC=13
00432A 0CE1 0CFF 0CFF 07317                         DT      B'11100001',B'11111111',B'11111111'     ;BTC=14
004330 0CC3 0CFF 0CFF 07318                         DT      B'11000011',B'11111111',B'11111111'     ;BTC=15
004336 0C87 0CFF 0CFF 07319                         DT      B'10000111',B'11111111',B'11111111'     ;BTC=16
00433C 0C87 0CFF 0CFF 07320                         DT      B'10000111',B'11111111',B'11111111'     ;BTC=17
004342 0C87 0CFF 0CFF 07321                         DT      B'10000111',B'11111111',B'11111111'     ;BTC=18
004348 0C87 0CFF 0CFF 07322                         DT      B'10000111',B'11111111',B'11111111'     ;BTC=19
00434E 0C87 0CFF 0CFF 07323                         DT      B'10000111',B'11111111',B'11111111'     ;BTC=1A
004354 0C80 0C00 0C0F 07324                         DT      B'10000000',B'00000000',B'00001111'     ;BTC=1B
00435A 0C80 0C00 0C0F 07325                         DT      B'10000000',B'00000000',B'00001111'     ;BTC=1C
004360 0C80 0C00 0C0F 07326                         DT      B'10000000',B'00000000',B'00001111'     ;BTC=1D
004366 0C80 0C00 0C0F 07327                         DT      B'10000000',B'00000000',B'00001111'     ;BTC=1E
00436C 0CFF 0CFF 0CFF 07328                         DT      B'11111111',B'11111111',B'11111111'     ;BTC=1F
                      07329 
                      07330 
004372                07331 FONT02L_LOW_Z
                      07332 
004372 0E00           07333         MOVLW   0
004374 6EFB           07334         MOVWF   PCLATU,0
004376 0E43           07335         MOVLW   43
004378 6EFA           07336         MOVWF   PCLATH,0
                      07337 
                      07338 
                      07339 
                      07340 
00437A C146 FFE8      07341                         MOVFF   BTCOUNT,WREG
00437E 90D8           07342                         BCF             STATUS,C
004380 36E8           07343                         RLCF    WREG
                      07344 
                      07345                 
004382 26F9           07346                         ADDWF   PCL,1,0
004384 0C80 0C00 0CFF 07347                         DT      B'10000000',B'00000000',B'11111111'     ;BTC=10
00438A 0CFF 0CF1 0CFF 07348                         DT      B'11111111',B'11110001',B'11111111'     ;BTC=11
004390 0CFF 0CE3 0CFF 07349                         DT      B'11111111',B'11100011',B'11111111'     ;BTC=12
004396 0CFF 0CC7 0CFF 07350                         DT      B'11111111',B'11000111',B'11111111'     ;BTC=13
00439C 0CFF 0C8F 0CFF 07351                         DT      B'11111111',B'10001111',B'11111111'     ;BTC=14
0043A2 0CFF 0C1F 0CFF 07352                         DT      B'11111111',B'00011111',B'11111111'     ;BTC=15
0043A8 0CFE 0C3F 0CFF 07353                         DT      B'11111110',B'00111111',B'11111111'     ;BTC=16
0043AE 0CFC 0C7F 0CFF 07354                         DT      B'11111100',B'01111111',B'11111111'     ;BTC=17
0043B4 0CF8 0CFF 0CFF 07355                         DT      B'11111000',B'11111111',B'11111111'     ;BTC=18
0043BA 0CF1 0CFF 0CFF 07356                         DT      B'11110001',B'11111111',B'11111111'     ;BTC=19
0043C0 0CE3 0CFF 0CFF 07357                         DT      B'11100011',B'11111111',B'11111111'     ;BTC=1A
0043C6 0CC7 0CFF 0CFF 07358                         DT      B'11000111',B'11111111',B'11111111'     ;BTC=1B
0043CC 0C80 0C00 0C7F 07359                         DT      B'10000000',B'00000000',B'01111111'     ;BTC=1C
0043D2 0C80 0C00 0C7F 07360                         DT      B'10000000',B'00000000',B'01111111'     ;BTC=1D
0043D8 0C80 0C00 0C7F 07361                         DT      B'10000000',B'00000000',B'01111111'     ;BTC=1E
0043DE 0CFF 0CFF 0CFF 07362                         DT      B'11111111',B'11111111',B'11111111'     ;BTC=1F
                      07363 
                      07364 
MPASM  5.51               20191125_RTCGPU.ASM   4-30-2024  22:19:12         PAGE 144


LOC  OBJECT CODE     LINE SOURCE TEXT
  VALUE

                      07365 
                      07366 
                      07367 
                      07368 
                      07369 
                      07370 
                      07371 
                      07372 
                      07373 
Warning[205]: Found directive in column 1. (ORG)
004400                07374 ORG 0X4400
004400                07375 FONT02H_CAP_ZERO
                      07376 
004400 0E00           07377         MOVLW   0
004402 6EFB           07378         MOVWF   PCLATU,0
004404 0E44           07379         MOVLW   44
004406 6EFA           07380         MOVWF   PCLATH,0
                      07381 
                      07382         
                      07383 
                      07384         
004408 C146 FFE8      07385                         MOVFF   BTCOUNT,WREG
00440C 90D8           07386                         BCF             STATUS,C
00440E 36E8           07387                         RLCF    WREG
                      07388 
                      07389                 
004410 26F9           07390                         ADDWF   PCL,1,0
004412 0CC0 0CFF 0CFF 07391                         DT      B'11000000',B'11111111',B'11111111'     ;BTC=00
004418 0C80 0C7F 0CFF 07392                         DT      B'10000000',B'01111111',B'11111111'     ;BTC=01
00441E 0C1E 0C3F 0CFF 07393                         DT      B'00011110',B'00111111',B'11111111'     ;BTC=02
004424 0C3F 0C3F 0CFF 07394                         DT      B'00111111',B'00111111',B'11111111'     ;BTC=03
00442A 0C3F 0C3F 0CFF 07395                         DT      B'00111111',B'00111111',B'11111111'     ;BTC=04
004430 0C3F 0C3F 0CFF 07396                         DT      B'00111111',B'00111111',B'11111111'     ;BTC=05
004436 0C3F 0C3F 0CFF 07397                         DT      B'00111111',B'00111111',B'11111111'     ;BTC=06
00443C 0C3F 0C3F 0CFF 07398                         DT      B'00111111',B'00111111',B'11111111'     ;BTC=07
004442 0C3F 0C3F 0CFF 07399                         DT      B'00111111',B'00111111',B'11111111'     ;BTC=08
004448 0C3F 0C3F 0CFF 07400                         DT      B'00111111',B'00111111',B'11111111'     ;BTC=09
00444E 0C3F 0C3F 0CFF 07401                         DT      B'00111111',B'00111111',B'11111111'     ;BTC=0A
004454 0C3F 0C3F 0CFF 07402                         DT      B'00111111',B'00111111',B'11111111'     ;BTC=0B
00445A 0C1E 0C3F 0CFF 07403                         DT      B'00011110',B'00111111',B'11111111'     ;BTC=0C
004460 0C80 0C7F 0CFF 07404                         DT      B'10000000',B'01111111',B'11111111'     ;BTC=0D
004466 0CC0 0CFF 0CFF 07405                         DT      B'11000000',B'11111111',B'11111111'     ;BTC=0E
00446C 0CFF 0CFF 0CFF 07406                         DT      B'11111111',B'11111111',B'11111111'     ;BTC=0F
                      07407 
                      07408 
Warning[205]: Found directive in column 1. (ORG)
004500                07409 ORG 0X4500
004500                07410 FONT02L_CAP_ZERO
                      07411 
004500 0E00           07412         MOVLW   0
004502 6EFB           07413         MOVWF   PCLATU,0
004504 0E45           07414         MOVLW   45
004506 6EFA           07415         MOVWF   PCLATH,0
MPASM  5.51               20191125_RTCGPU.ASM   4-30-2024  22:19:12         PAGE 145


LOC  OBJECT CODE     LINE SOURCE TEXT
  VALUE

                      07416 
                      07417 
                      07418 
                      07419 
004508 C146 FFE8      07420                         MOVFF   BTCOUNT,WREG
00450C 90D8           07421                         BCF             STATUS,C
00450E 36E8           07422                         RLCF    WREG
                      07423 
                      07424                 
004510 26F9           07425                         ADDWF   PCL,1,0
004512 0CFF 0CFF 0CFF 07426                         DT      B'11111111',B'11111111',B'11111111'     ;BTC=10
004518 0CFF 0CFF 0CFF 07427                         DT      B'11111111',B'11111111',B'11111111'     ;BTC=11
00451E 0CFF 0CFF 0CFF 07428                         DT      B'11111111',B'11111111',B'11111111'     ;BTC=12
004524 0CFF 0CFF 0CFF 07429                         DT      B'11111111',B'11111111',B'11111111'     ;BTC=13
00452A 0CFF 0CFF 0CFF 07430                         DT      B'11111111',B'11111111',B'11111111'     ;BTC=14
004530 0CFF 0CFF 0CFF 07431                         DT      B'11111111',B'11111111',B'11111111'     ;BTC=15
004536 0CFF 0CFF 0CFF 07432                         DT      B'11111111',B'11111111',B'11111111'     ;BTC=16
00453C 0CFF 0CFF 0CFF 07433                         DT      B'11111111',B'11111111',B'11111111'     ;BTC=17
004542 0CFF 0CFF 0CFF 07434                         DT      B'11111111',B'11111111',B'11111111'     ;BTC=18
004548 0CFF 0CFF 0CFF 07435                         DT      B'11111111',B'11111111',B'11111111'     ;BTC=19
00454E 0CFF 0CFF 0CFF 07436                         DT      B'11111111',B'11111111',B'11111111'     ;BTC=1A
004554 0CFF 0CFF 0CFF 07437                         DT      B'11111111',B'11111111',B'11111111'     ;BTC=1B
00455A 0CFF 0CFF 0CFF 07438                         DT      B'11111111',B'11111111',B'11111111'     ;BTC=1C
004560 0CFF 0CFF 0CFF 07439                         DT      B'11111111',B'11111111',B'11111111'     ;BTC=1D
004566 0CFF 0CFF 0CFF 07440                         DT      B'11111111',B'11111111',B'11111111'     ;BTC=1E
00456C 0CFF 0CFF 0CFF 07441                         DT      B'11111111',B'11111111',B'11111111'     ;BTC=1F
                      07442 
                      07443 
Warning[205]: Found directive in column 1. (ORG)
004600                07444 ORG 0X4600
004600                07445 FONT02H_CAP_ONE
                      07446 
004600 0E00           07447         MOVLW   0
004602 6EFB           07448         MOVWF   PCLATU,0
004604 0E46           07449         MOVLW   46
004606 6EFA           07450         MOVWF   PCLATH,0
                      07451 
                      07452         
                      07453 
                      07454         
004608 C146 FFE8      07455                         MOVFF   BTCOUNT,WREG
00460C 90D8           07456                         BCF             STATUS,C
00460E 36E8           07457                         RLCF    WREG
                      07458 
                      07459                 
004610 26F9           07460                         ADDWF   PCL,1,0
004612 0CE7 0CFF 0CFF 07461                         DT      B'11100111',B'11111111',B'11111111'     ;BTC=00
004618 0CE7 0CFF 0CFF 07462                         DT      B'11100111',B'11111111',B'11111111'     ;BTC=01
00461E 0CC7 0CFF 0CFF 07463                         DT      B'11000111',B'11111111',B'11111111'     ;BTC=02
004624 0C87 0CFF 0CFF 07464                         DT      B'10000111',B'11111111',B'11111111'     ;BTC=03
00462A 0C27 0CFF 0CFF 07465                         DT      B'00100111',B'11111111',B'11111111'     ;BTC=04
004630 0CE7 0CFF 0CFF 07466                         DT      B'11100111',B'11111111',B'11111111'     ;BTC=05
004636 0CE7 0CFF 0CFF 07467                         DT      B'11100111',B'11111111',B'11111111'     ;BTC=06
MPASM  5.51               20191125_RTCGPU.ASM   4-30-2024  22:19:12         PAGE 146


LOC  OBJECT CODE     LINE SOURCE TEXT
  VALUE

00463C 0CE7 0CFF 0CFF 07468                         DT      B'11100111',B'11111111',B'11111111'     ;BTC=07
004642 0CE7 0CFF 0CFF 07469                         DT      B'11100111',B'11111111',B'11111111'     ;BTC=08
004648 0CE7 0CFF 0CFF 07470                         DT      B'11100111',B'11111111',B'11111111'     ;BTC=09
00464E 0CE7 0CFF 0CFF 07471                         DT      B'11100111',B'11111111',B'11111111'     ;BTC=0A
004654 0CE7 0CFF 0CFF 07472                         DT      B'11100111',B'11111111',B'11111111'     ;BTC=0B
00465A 0CE7 0CFF 0CFF 07473                         DT      B'11100111',B'11111111',B'11111111'     ;BTC=0C
004660 0C00 0CFF 0CFF 07474                         DT      B'00000000',B'11111111',B'11111111'     ;BTC=0D
004666 0C00 0CFF 0CFF 07475                         DT      B'00000000',B'11111111',B'11111111'     ;BTC=0E
00466C 0CFF 0CFF 0CFF 07476                         DT      B'11111111',B'11111111',B'11111111'     ;BTC=0F
                      07477 
Warning[205]: Found directive in column 1. (ORG)
004700                07478 ORG 0X4700
004700                07479 FONT02L_CAP_ONE
                      07480 
004700 0E00           07481         MOVLW   0
004702 6EFB           07482         MOVWF   PCLATU,0
004704 0E47           07483         MOVLW   47
004706 6EFA           07484         MOVWF   PCLATH,0
                      07485 
                      07486 
                      07487 
                      07488 
004708 C146 FFE8      07489                         MOVFF   BTCOUNT,WREG
00470C 90D8           07490                         BCF             STATUS,C
00470E 36E8           07491                         RLCF    WREG
                      07492 
                      07493                 
004710 26F9           07494                         ADDWF   PCL,1,0
                      07495 
004712 0CFF 0CFF 0CFF 07496                         DT      B'11111111',B'11111111',B'11111111'     ;BTC=10
004718 0CFF 0CFF 0CFF 07497                         DT      B'11111111',B'11111111',B'11111111'     ;BTC=11
00471E 0CFF 0CFF 0CFF 07498                         DT      B'11111111',B'11111111',B'11111111'     ;BTC=12
004724 0CFF 0CFF 0CFF 07499                         DT      B'11111111',B'11111111',B'11111111'     ;BTC=13
00472A 0CFF 0CFF 0CFF 07500                         DT      B'11111111',B'11111111',B'11111111'     ;BTC=14
004730 0CFF 0CFF 0CFF 07501                         DT      B'11111111',B'11111111',B'11111111'     ;BTC=15
004736 0CFF 0CFF 0CFF 07502                         DT      B'11111111',B'11111111',B'11111111'     ;BTC=16
00473C 0CFF 0CFF 0CFF 07503                         DT      B'11111111',B'11111111',B'11111111'     ;BTC=17
004742 0CFF 0CFF 0CFF 07504                         DT      B'11111111',B'11111111',B'11111111'     ;BTC=18
004748 0CFF 0CFF 0CFF 07505                         DT      B'11111111',B'11111111',B'11111111'     ;BTC=19
00474E 0CFF 0CFF 0CFF 07506                         DT      B'11111111',B'11111111',B'11111111'     ;BTC=1A
004754 0CFF 0CFF 0CFF 07507                         DT      B'11111111',B'11111111',B'11111111'     ;BTC=1B
00475A 0CFF 0CFF 0CFF 07508                         DT      B'11111111',B'11111111',B'11111111'     ;BTC=1C
004760 0CFF 0CFF 0CFF 07509                         DT      B'11111111',B'11111111',B'11111111'     ;BTC=1D
004766 0CFF 0CFF 0CFF 07510                         DT      B'11111111',B'11111111',B'11111111'     ;BTC=1E
00476C 0CFF 0CFF 0CFF 07511                         DT      B'11111111',B'11111111',B'11111111'     ;BTC=1F
                      07512 
Warning[205]: Found directive in column 1. (ORG)
004800                07513 ORG 0X4800
004800                07514 FONT02H_CAP_TWO
                      07515 
004800 0E00           07516         MOVLW   0
004802 6EFB           07517         MOVWF   PCLATU,0
004804 0E48           07518         MOVLW   48
MPASM  5.51               20191125_RTCGPU.ASM   4-30-2024  22:19:12         PAGE 147


LOC  OBJECT CODE     LINE SOURCE TEXT
  VALUE

004806 6EFA           07519         MOVWF   PCLATH,0
                      07520 
                      07521         
                      07522 
                      07523         
004808 C146 FFE8      07524                         MOVFF   BTCOUNT,WREG
00480C 90D8           07525                         BCF             STATUS,C
00480E 36E8           07526                         RLCF    WREG
                      07527 
                      07528                 
004810 26F9           07529                         ADDWF   PCL,1,0
004812 0CC0 0CFF 0CFF 07530                         DT      B'11000000',B'11111111',B'11111111'     ;BTC=00
004818 0C80 0C7F 0CFF 07531                         DT      B'10000000',B'01111111',B'11111111'     ;BTC=01
00481E 0C3E 0C3F 0CFF 07532                         DT      B'00111110',B'00111111',B'11111111'     ;BTC=02
004824 0CFF 0C3F 0CFF 07533                         DT      B'11111111',B'00111111',B'11111111'     ;BTC=03
00482A 0CFF 0C3F 0CFF 07534                         DT      B'11111111',B'00111111',B'11111111'     ;BTC=04
004830 0CFF 0C3F 0CFF 07535                         DT      B'11111111',B'00111111',B'11111111'     ;BTC=05
004836 0CFE 0C3F 0CFF 07536                         DT      B'11111110',B'00111111',B'11111111'     ;BTC=06
00483C 0CC0 0C7F 0CFF 07537                         DT      B'11000000',B'01111111',B'11111111'     ;BTC=07
004842 0C80 0CFF 0CFF 07538                         DT      B'10000000',B'11111111',B'11111111'     ;BTC=08
004848 0C1F 0CFF 0CFF 07539                         DT      B'00011111',B'11111111',B'11111111'     ;BTC=09
00484E 0C3F 0CFF 0CFF 07540                         DT      B'00111111',B'11111111',B'11111111'     ;BTC=0A
004854 0C3F 0CFF 0CFF 07541                         DT      B'00111111',B'11111111',B'11111111'     ;BTC=0B
00485A 0C3F 0C3F 0CFF 07542                         DT      B'00111111',B'00111111',B'11111111'     ;BTC=0C
004860 0C00 0C3F 0CFF 07543                         DT      B'00000000',B'00111111',B'11111111'     ;BTC=0D
004866 0C00 0C3F 0CFF 07544                         DT      B'00000000',B'00111111',B'11111111'     ;BTC=0E
00486C 0CFF 0CFF 0CFF 07545                         DT      B'11111111',B'11111111',B'11111111'     ;BTC=0F
                      07546 
                      07547 
                      07548 
Warning[205]: Found directive in column 1. (ORG)
004900                07549 ORG 0X4900
004900                07550 FONT02L_CAP_TWO
                      07551 
004900 0E00           07552         MOVLW   0
004902 6EFB           07553         MOVWF   PCLATU,0
004904 0E49           07554         MOVLW   49
004906 6EFA           07555         MOVWF   PCLATH,0
                      07556 
                      07557 
                      07558 
                      07559 
004908 C146 FFE8      07560                         MOVFF   BTCOUNT,WREG
00490C 90D8           07561                         BCF             STATUS,C
00490E 36E8           07562                         RLCF    WREG
                      07563 
                      07564                 
004910 26F9           07565                         ADDWF   PCL,1,0
004912 0CFF 0CFF 0CFF 07566                         DT      B'11111111',B'11111111',B'11111111'     ;BTC=10
004918 0CFF 0CFF 0CFF 07567                         DT      B'11111111',B'11111111',B'11111111'     ;BTC=11
00491E 0CFF 0CFF 0CFF 07568                         DT      B'11111111',B'11111111',B'11111111'     ;BTC=12
004924 0CFF 0CFF 0CFF 07569                         DT      B'11111111',B'11111111',B'11111111'     ;BTC=13
00492A 0CFF 0CFF 0CFF 07570                         DT      B'11111111',B'11111111',B'11111111'     ;BTC=14
MPASM  5.51               20191125_RTCGPU.ASM   4-30-2024  22:19:12         PAGE 148


LOC  OBJECT CODE     LINE SOURCE TEXT
  VALUE

004930 0CFF 0CFF 0CFF 07571                         DT      B'11111111',B'11111111',B'11111111'     ;BTC=15
004936 0CFF 0CFF 0CFF 07572                         DT      B'11111111',B'11111111',B'11111111'     ;BTC=16
00493C 0CFF 0CFF 0CFF 07573                         DT      B'11111111',B'11111111',B'11111111'     ;BTC=17
004942 0CFF 0CFF 0CFF 07574                         DT      B'11111111',B'11111111',B'11111111'     ;BTC=18
004948 0CFF 0CFF 0CFF 07575                         DT      B'11111111',B'11111111',B'11111111'     ;BTC=19
00494E 0CFF 0CFF 0CFF 07576                         DT      B'11111111',B'11111111',B'11111111'     ;BTC=1A
004954 0CFF 0CFF 0CFF 07577                         DT      B'11111111',B'11111111',B'11111111'     ;BTC=1B
00495A 0CFF 0CFF 0CFF 07578                         DT      B'11111111',B'11111111',B'11111111'     ;BTC=1C
004960 0CFF 0CFF 0CFF 07579                         DT      B'11111111',B'11111111',B'11111111'     ;BTC=1D
004966 0CFF 0CFF 0CFF 07580                         DT      B'11111111',B'11111111',B'11111111'     ;BTC=1E
00496C 0CFF 0CFF 0CFF 07581                         DT      B'11111111',B'11111111',B'11111111'     ;BTC=1F
                      07582 
                      07583 
                      07584 
Warning[205]: Found directive in column 1. (ORG)
004A00                07585 ORG 0X4A00
004A00                07586 FONT02H_CAP_THREE
                      07587 
004A00 0E00           07588         MOVLW   0
004A02 6EFB           07589         MOVWF   PCLATU,0
004A04 0E4A           07590         MOVLW   4A
004A06 6EFA           07591         MOVWF   PCLATH,0
                      07592 
                      07593         
                      07594 
                      07595         
004A08 C146 FFE8      07596                         MOVFF   BTCOUNT,WREG
004A0C 90D8           07597                         BCF             STATUS,C
004A0E 36E8           07598                         RLCF    WREG
                      07599 
                      07600                 
004A10 26F9           07601                         ADDWF   PCL,1,0
004A12 0CC0 0CFF 0CFF 07602                         DT      B'11000000',B'11111111',B'11111111'     ;BTC=00
004A18 0C80 0C7F 0CFF 07603                         DT      B'10000000',B'01111111',B'11111111'     ;BTC=01
004A1E 0C1E 0C3F 0CFF 07604                         DT      B'00011110',B'00111111',B'11111111'     ;BTC=02
004A24 0C3F 0C3F 0CFF 07605                         DT      B'00111111',B'00111111',B'11111111'     ;BTC=03
004A2A 0CFF 0C3F 0CFF 07606                         DT      B'11111111',B'00111111',B'11111111'     ;BTC=04
004A30 0CFF 0C3F 0CFF 07607                         DT      B'11111111',B'00111111',B'11111111'     ;BTC=05
004A36 0CFE 0C3F 0CFF 07608                         DT      B'11111110',B'00111111',B'11111111'     ;BTC=06
004A3C 0CE0 0C7F 0CFF 07609                         DT      B'11100000',B'01111111',B'11111111'     ;BTC=07
004A42 0CE0 0C7F 0CFF 07610                         DT      B'11100000',B'01111111',B'11111111'     ;BTC=08
004A48 0CFE 0C3F 0CFF 07611                         DT      B'11111110',B'00111111',B'11111111'     ;BTC=09
004A4E 0CFF 0C3F 0CFF 07612                         DT      B'11111111',B'00111111',B'11111111'     ;BTC=0A
004A54 0C3F 0C3F 0CFF 07613                         DT      B'00111111',B'00111111',B'11111111'     ;BTC=0B
004A5A 0C1E 0C3F 0CFF 07614                         DT      B'00011110',B'00111111',B'11111111'     ;BTC=0C
004A60 0C80 0C7F 0CFF 07615                         DT      B'10000000',B'01111111',B'11111111'     ;BTC=0D
004A66 0CC0 0CFF 0CFF 07616                         DT      B'11000000',B'11111111',B'11111111'     ;BTC=0E
004A6C 0CFF 0CFF 0CFF 07617                         DT      B'11111111',B'11111111',B'11111111'     ;BTC=0F
                      07618 
                      07619 
                      07620 
                      07621 
Warning[205]: Found directive in column 1. (ORG)
MPASM  5.51               20191125_RTCGPU.ASM   4-30-2024  22:19:12         PAGE 149


LOC  OBJECT CODE     LINE SOURCE TEXT
  VALUE

004B00                07622 ORG 0X4B00
004B00                07623 FONT02L_CAP_THREE
                      07624 
004B00 0E00           07625         MOVLW   0
004B02 6EFB           07626         MOVWF   PCLATU,0
004B04 0E4B           07627         MOVLW   4B
004B06 6EFA           07628         MOVWF   PCLATH,0
                      07629 
                      07630 
                      07631 
                      07632 
004B08 C146 FFE8      07633                         MOVFF   BTCOUNT,WREG
004B0C 90D8           07634                         BCF             STATUS,C
004B0E 36E8           07635                         RLCF    WREG
                      07636 
                      07637                 
004B10 26F9           07638                         ADDWF   PCL,1,0
                      07639 
004B12 0CFF 0CFF 0CFF 07640                         DT      B'11111111',B'11111111',B'11111111'     ;BTC=10
004B18 0CFF 0CFF 0CFF 07641                         DT      B'11111111',B'11111111',B'11111111'     ;BTC=11
004B1E 0CFF 0CFF 0CFF 07642                         DT      B'11111111',B'11111111',B'11111111'     ;BTC=12
004B24 0CFF 0CFF 0CFF 07643                         DT      B'11111111',B'11111111',B'11111111'     ;BTC=13
004B2A 0CFF 0CFF 0CFF 07644                         DT      B'11111111',B'11111111',B'11111111'     ;BTC=14
004B30 0CFF 0CFF 0CFF 07645                         DT      B'11111111',B'11111111',B'11111111'     ;BTC=15
004B36 0CFF 0CFF 0CFF 07646                         DT      B'11111111',B'11111111',B'11111111'     ;BTC=16
004B3C 0CFF 0CFF 0CFF 07647                         DT      B'11111111',B'11111111',B'11111111'     ;BTC=17
004B42 0CFF 0CFF 0CFF 07648                         DT      B'11111111',B'11111111',B'11111111'     ;BTC=18
004B48 0CFF 0CFF 0CFF 07649                         DT      B'11111111',B'11111111',B'11111111'     ;BTC=19
004B4E 0CFF 0CFF 0CFF 07650                         DT      B'11111111',B'11111111',B'11111111'     ;BTC=1A
004B54 0CFF 0CFF 0CFF 07651                         DT      B'11111111',B'11111111',B'11111111'     ;BTC=1B
004B5A 0CFF 0CFF 0CFF 07652                         DT      B'11111111',B'11111111',B'11111111'     ;BTC=1C
004B60 0CFF 0CFF 0CFF 07653                         DT      B'11111111',B'11111111',B'11111111'     ;BTC=1D
004B66 0CFF 0CFF 0CFF 07654                         DT      B'11111111',B'11111111',B'11111111'     ;BTC=1E
004B6C 0CFF 0CFF 0CFF 07655                         DT      B'11111111',B'11111111',B'11111111'     ;BTC=1F
                      07656 
                      07657 
                      07658 
Warning[205]: Found directive in column 1. (ORG)
004C00                07659 ORG 0X4C00
004C00                07660 FONT02H_CAP_FOUR
                      07661 
004C00 0E00           07662         MOVLW   0
004C02 6EFB           07663         MOVWF   PCLATU,0
004C04 0E4C           07664         MOVLW   4C
004C06 6EFA           07665         MOVWF   PCLATH,0
                      07666 
                      07667         
                      07668 
                      07669         
004C08 C146 FFE8      07670                         MOVFF   BTCOUNT,WREG
004C0C 90D8           07671                         BCF             STATUS,C
004C0E 36E8           07672                         RLCF    WREG
                      07673 
MPASM  5.51               20191125_RTCGPU.ASM   4-30-2024  22:19:12         PAGE 150


LOC  OBJECT CODE     LINE SOURCE TEXT
  VALUE

                      07674                 
004C10 26F9           07675                         ADDWF   PCL,1,0
004C12 0CFF 0CBF 0CFF 07676                         DT      B'11111111',B'10111111',B'11111111'     ;BTC=00
004C18 0CFD 0C3F 0CFF 07677                         DT      B'11111101',B'00111111',B'11111111'     ;BTC=01
004C1E 0CF9 0C3F 0CFF 07678                         DT      B'11111001',B'00111111',B'11111111'     ;BTC=02
004C24 0CF9 0C3F 0CFF 07679                         DT      B'11111001',B'00111111',B'11111111'     ;BTC=03
004C2A 0CF3 0C3F 0CFF 07680                         DT      B'11110011',B'00111111',B'11111111'     ;BTC=04
004C30 0CE7 0C3F 0CFF 07681                         DT      B'11100111',B'00111111',B'11111111'     ;BTC=05
004C36 0CCF 0C3F 0CFF 07682                         DT      B'11001111',B'00111111',B'11111111'     ;BTC=06
004C3C 0C9F 0C3F 0CFF 07683                         DT      B'10011111',B'00111111',B'11111111'     ;BTC=07
004C42 0C3F 0C3F 0CFF 07684                         DT      B'00111111',B'00111111',B'11111111'     ;BTC=08
004C48 0C00 0C3F 0CFF 07685                         DT      B'00000000',B'00111111',B'11111111'     ;BTC=09
004C4E 0C00 0C3F 0CFF 07686                         DT      B'00000000',B'00111111',B'11111111'     ;BTC=0A
004C54 0CFF 0C3F 0CFF 07687                         DT      B'11111111',B'00111111',B'11111111'     ;BTC=0B
004C5A 0CFF 0C3F 0CFF 07688                         DT      B'11111111',B'00111111',B'11111111'     ;BTC=0C
004C60 0CFF 0C3F 0CFF 07689                         DT      B'11111111',B'00111111',B'11111111'     ;BTC=0D
004C66 0CFF 0C7F 0CFF 07690                         DT      B'11111111',B'01111111',B'11111111'     ;BTC=0E
004C6C 0CFF 0CFF 0CFF 07691                         DT      B'11111111',B'11111111',B'11111111'     ;BTC=0F
                      07692 
                      07693 
Warning[205]: Found directive in column 1. (ORG)
004D00                07694 ORG 0X4D00
004D00                07695 FONT02L_CAP_FOUR
                      07696 
004D00 0E00           07697         MOVLW   0
004D02 6EFB           07698         MOVWF   PCLATU,0
004D04 0E4D           07699         MOVLW   4D
004D06 6EFA           07700         MOVWF   PCLATH,0
                      07701 
                      07702 
                      07703 
                      07704 
004D08 C146 FFE8      07705                         MOVFF   BTCOUNT,WREG
004D0C 90D8           07706                         BCF             STATUS,C
004D0E 36E8           07707                         RLCF    WREG
                      07708 
                      07709                 
004D10 26F9           07710                         ADDWF   PCL,1,0
004D12 0CFF 0CFF 0CFF 07711                         DT      B'11111111',B'11111111',B'11111111'     ;BTC=10
004D18 0CFF 0CFF 0CFF 07712                         DT      B'11111111',B'11111111',B'11111111'     ;BTC=11
004D1E 0CFF 0CFF 0CFF 07713                         DT      B'11111111',B'11111111',B'11111111'     ;BTC=12
004D24 0CFF 0CFF 0CFF 07714                         DT      B'11111111',B'11111111',B'11111111'     ;BTC=13
004D2A 0CFF 0CFF 0CFF 07715                         DT      B'11111111',B'11111111',B'11111111'     ;BTC=14
004D30 0CFF 0CFF 0CFF 07716                         DT      B'11111111',B'11111111',B'11111111'     ;BTC=15
004D36 0CFF 0CFF 0CFF 07717                         DT      B'11111111',B'11111111',B'11111111'     ;BTC=16
004D3C 0CFF 0CFF 0CFF 07718                         DT      B'11111111',B'11111111',B'11111111'     ;BTC=17
004D42 0CFF 0CFF 0CFF 07719                         DT      B'11111111',B'11111111',B'11111111'     ;BTC=18
004D48 0CFF 0CFF 0CFF 07720                         DT      B'11111111',B'11111111',B'11111111'     ;BTC=19
004D4E 0CFF 0CFF 0CFF 07721                         DT      B'11111111',B'11111111',B'11111111'     ;BTC=1A
004D54 0CFF 0CFF 0CFF 07722                         DT      B'11111111',B'11111111',B'11111111'     ;BTC=1B
004D5A 0CFF 0CFF 0CFF 07723                         DT      B'11111111',B'11111111',B'11111111'     ;BTC=1C
004D60 0CFF 0CFF 0CFF 07724                         DT      B'11111111',B'11111111',B'11111111'     ;BTC=1D
004D66 0CFF 0CFF 0CFF 07725                         DT      B'11111111',B'11111111',B'11111111'     ;BTC=1E
MPASM  5.51               20191125_RTCGPU.ASM   4-30-2024  22:19:12         PAGE 151


LOC  OBJECT CODE     LINE SOURCE TEXT
  VALUE

004D6C 0CFF 0CFF 0CFF 07726                         DT      B'11111111',B'11111111',B'11111111'     ;BTC=1F
                      07727 
                      07728 
                      07729 
                      07730 
Warning[205]: Found directive in column 1. (ORG)
004E00                07731 ORG 0X4E00
004E00                07732 FONT02H_CAP_FIVE
                      07733 
004E00 0E00           07734         MOVLW   0
004E02 6EFB           07735         MOVWF   PCLATU,0
004E04 0E4E           07736         MOVLW   4E
004E06 6EFA           07737         MOVWF   PCLATH,0
                      07738 
                      07739         
                      07740 
                      07741         
004E08 C146 FFE8      07742                         MOVFF   BTCOUNT,WREG
004E0C 90D8           07743                         BCF             STATUS,C
004E0E 36E8           07744                         RLCF    WREG
                      07745 
                      07746                 
004E10 26F9           07747                         ADDWF   PCL,1,0
004E12 0C00 0C3F 0CFF 07748                         DT      B'00000000',B'00111111',B'11111111'     ;BTC=00
004E18 0C00 0C3F 0CFF 07749                         DT      B'00000000',B'00111111',B'11111111'     ;BTC=01
004E1E 0C3F 0C7F 0CFF 07750                         DT      B'00111111',B'01111111',B'11111111'     ;BTC=02
004E24 0C3F 0CFF 0CFF 07751                         DT      B'00111111',B'11111111',B'11111111'     ;BTC=03
004E2A 0C3F 0CFF 0CFF 07752                         DT      B'00111111',B'11111111',B'11111111'     ;BTC=04
004E30 0C3F 0CFF 0CFF 07753                         DT      B'00111111',B'11111111',B'11111111'     ;BTC=05
004E36 0C00 0CFF 0CFF 07754                         DT      B'00000000',B'11111111',B'11111111'     ;BTC=06
004E3C 0C00 0C7F 0CFF 07755                         DT      B'00000000',B'01111111',B'11111111'     ;BTC=07
004E42 0CFE 0C3F 0CFF 07756                         DT      B'11111110',B'00111111',B'11111111'     ;BTC=08
004E48 0CFF 0C3F 0CFF 07757                         DT      B'11111111',B'00111111',B'11111111'     ;BTC=09
004E4E 0CFF 0C3F 0CFF 07758                         DT      B'11111111',B'00111111',B'11111111'     ;BTC=0A
004E54 0C3F 0C3F 0CFF 07759                         DT      B'00111111',B'00111111',B'11111111'     ;BTC=0B
004E5A 0C1E 0C3F 0CFF 07760                         DT      B'00011110',B'00111111',B'11111111'     ;BTC=0C
004E60 0C80 0C7F 0CFF 07761                         DT      B'10000000',B'01111111',B'11111111'     ;BTC=0D
004E66 0CC0 0CFF 0CFF 07762                         DT      B'11000000',B'11111111',B'11111111'     ;BTC=0E
004E6C 0CFF 0CFF 0CFF 07763                         DT      B'11111111',B'11111111',B'11111111'     ;BTC=0F
                      07764 
Warning[205]: Found directive in column 1. (ORG)
004F00                07765 ORG 0X4F00
004F00                07766 FONT02L_CAP_FIVE
                      07767 
004F00 0E00           07768         MOVLW   0
004F02 6EFB           07769         MOVWF   PCLATU,0
004F04 0E4F           07770         MOVLW   4F
004F06 6EFA           07771         MOVWF   PCLATH,0
                      07772 
                      07773 
                      07774 
                      07775 
004F08 C146 FFE8      07776                         MOVFF   BTCOUNT,WREG
MPASM  5.51               20191125_RTCGPU.ASM   4-30-2024  22:19:12         PAGE 152


LOC  OBJECT CODE     LINE SOURCE TEXT
  VALUE

004F0C 90D8           07777                         BCF             STATUS,C
004F0E 36E8           07778                         RLCF    WREG
                      07779 
                      07780                 
004F10 26F9           07781                         ADDWF   PCL,1,0
004F12 0CFF 0CFF 0CFF 07782                         DT      B'11111111',B'11111111',B'11111111'     ;BTC=10
004F18 0CFF 0CFF 0CFF 07783                         DT      B'11111111',B'11111111',B'11111111'     ;BTC=11
004F1E 0CFF 0CFF 0CFF 07784                         DT      B'11111111',B'11111111',B'11111111'     ;BTC=12
004F24 0CFF 0CFF 0CFF 07785                         DT      B'11111111',B'11111111',B'11111111'     ;BTC=13
004F2A 0CFF 0CFF 0CFF 07786                         DT      B'11111111',B'11111111',B'11111111'     ;BTC=14
004F30 0CFF 0CFF 0CFF 07787                         DT      B'11111111',B'11111111',B'11111111'     ;BTC=15
004F36 0CFF 0CFF 0CFF 07788                         DT      B'11111111',B'11111111',B'11111111'     ;BTC=16
004F3C 0CFF 0CFF 0CFF 07789                         DT      B'11111111',B'11111111',B'11111111'     ;BTC=17
004F42 0CFF 0CFF 0CFF 07790                         DT      B'11111111',B'11111111',B'11111111'     ;BTC=18
004F48 0CFF 0CFF 0CFF 07791                         DT      B'11111111',B'11111111',B'11111111'     ;BTC=19
004F4E 0CFF 0CFF 0CFF 07792                         DT      B'11111111',B'11111111',B'11111111'     ;BTC=1A
004F54 0CFF 0CFF 0CFF 07793                         DT      B'11111111',B'11111111',B'11111111'     ;BTC=1B
004F5A 0CFF 0CFF 0CFF 07794                         DT      B'11111111',B'11111111',B'11111111'     ;BTC=1C
004F60 0CFF 0CFF 0CFF 07795                         DT      B'11111111',B'11111111',B'11111111'     ;BTC=1D
004F66 0CFF 0CFF 0CFF 07796                         DT      B'11111111',B'11111111',B'11111111'     ;BTC=1E
004F6C 0CFF 0CFF 0CFF 07797                         DT      B'11111111',B'11111111',B'11111111'     ;BTC=1F
                      07798 
                      07799 
                      07800 
Warning[205]: Found directive in column 1. (ORG)
005000                07801 ORG 0X5000
005000                07802 FONT02H_CAP_SIX
                      07803 
005000 0E00           07804         MOVLW   0
005002 6EFB           07805         MOVWF   PCLATU,0
005004 0E50           07806         MOVLW   50
005006 6EFA           07807         MOVWF   PCLATH,0
                      07808 
                      07809         
                      07810 
                      07811         
005008 C146 FFE8      07812                         MOVFF   BTCOUNT,WREG
00500C 90D8           07813                         BCF             STATUS,C
00500E 36E8           07814                         RLCF    WREG
                      07815 
                      07816                 
005010 26F9           07817                         ADDWF   PCL,1,0
005012 0CC0 0C7F 0CFF 07818                         DT      B'11000000',B'01111111',B'11111111'     ;BTC=00
005018 0C80 0C3F 0CFF 07819                         DT      B'10000000',B'00111111',B'11111111'     ;BTC=01
00501E 0C1E 0C3F 0CFF 07820                         DT      B'00011110',B'00111111',B'11111111'     ;BTC=02
005024 0C3F 0C3F 0CFF 07821                         DT      B'00111111',B'00111111',B'11111111'     ;BTC=03
00502A 0C3F 0CFF 0CFF 07822                         DT      B'00111111',B'11111111',B'11111111'     ;BTC=04
005030 0C1F 0CFF 0CFF 07823                         DT      B'00011111',B'11111111',B'11111111'     ;BTC=05
005036 0C00 0CFF 0CFF 07824                         DT      B'00000000',B'11111111',B'11111111'     ;BTC=06
00503C 0C00 0C7F 0CFF 07825                         DT      B'00000000',B'01111111',B'11111111'     ;BTC=07
005042 0C1E 0C3F 0CFF 07826                         DT      B'00011110',B'00111111',B'11111111'     ;BTC=08
005048 0C3F 0C3F 0CFF 07827                         DT      B'00111111',B'00111111',B'11111111'     ;BTC=09
00504E 0C3F 0C3F 0CFF 07828                         DT      B'00111111',B'00111111',B'11111111'     ;BTC=0A
MPASM  5.51               20191125_RTCGPU.ASM   4-30-2024  22:19:12         PAGE 153


LOC  OBJECT CODE     LINE SOURCE TEXT
  VALUE

005054 0C3F 0C3F 0CFF 07829                         DT      B'00111111',B'00111111',B'11111111'     ;BTC=0B
00505A 0C1E 0C3F 0CFF 07830                         DT      B'00011110',B'00111111',B'11111111'     ;BTC=0C
005060 0C80 0C7F 0CFF 07831                         DT      B'10000000',B'01111111',B'11111111'     ;BTC=0D
005066 0CC0 0CFF 0CFF 07832                         DT      B'11000000',B'11111111',B'11111111'     ;BTC=0E
00506C 0CFF 0CFF 0CFF 07833                         DT      B'11111111',B'11111111',B'11111111'     ;BTC=0F
                      07834         
Warning[205]: Found directive in column 1. (ORG)
005100                07835 ORG 0X5100
005100                07836 FONT02L_CAP_SIX
                      07837 
005100 0E00           07838         MOVLW   0
005102 6EFB           07839         MOVWF   PCLATU,0
005104 0E51           07840         MOVLW   51
005106 6EFA           07841         MOVWF   PCLATH,0
                      07842 
                      07843 
                      07844 
                      07845 
005108 C146 FFE8      07846                         MOVFF   BTCOUNT,WREG
00510C 90D8           07847                         BCF             STATUS,C
00510E 36E8           07848                         RLCF    WREG
                      07849 
                      07850                 
005110 26F9           07851                         ADDWF   PCL,1,0
005112 0CFF 0CFF 0CFF 07852                         DT      B'11111111',B'11111111',B'11111111'     ;BTC=10
005118 0CFF 0CFF 0CFF 07853                         DT      B'11111111',B'11111111',B'11111111'     ;BTC=11
00511E 0CFF 0CFF 0CFF 07854                         DT      B'11111111',B'11111111',B'11111111'     ;BTC=12
005124 0CFF 0CFF 0CFF 07855                         DT      B'11111111',B'11111111',B'11111111'     ;BTC=13
00512A 0CFF 0CFF 0CFF 07856                         DT      B'11111111',B'11111111',B'11111111'     ;BTC=14
005130 0CFF 0CFF 0CFF 07857                         DT      B'11111111',B'11111111',B'11111111'     ;BTC=15
005136 0CFF 0CFF 0CFF 07858                         DT      B'11111111',B'11111111',B'11111111'     ;BTC=16
00513C 0CFF 0CFF 0CFF 07859                         DT      B'11111111',B'11111111',B'11111111'     ;BTC=17
005142 0CFF 0CFF 0CFF 07860                         DT      B'11111111',B'11111111',B'11111111'     ;BTC=18
005148 0CFF 0CFF 0CFF 07861                         DT      B'11111111',B'11111111',B'11111111'     ;BTC=19
00514E 0CFF 0CFF 0CFF 07862                         DT      B'11111111',B'11111111',B'11111111'     ;BTC=1A
005154 0CFF 0CFF 0CFF 07863                         DT      B'11111111',B'11111111',B'11111111'     ;BTC=1B
00515A 0CFF 0CFF 0CFF 07864                         DT      B'11111111',B'11111111',B'11111111'     ;BTC=1C
005160 0CFF 0CFF 0CFF 07865                         DT      B'11111111',B'11111111',B'11111111'     ;BTC=1D
005166 0CFF 0CFF 0CFF 07866                         DT      B'11111111',B'11111111',B'11111111'     ;BTC=1E
00516C 0CFF 0CFF 0CFF 07867                         DT      B'11111111',B'11111111',B'11111111'     ;BTC=1F
                      07868 
                      07869 
                      07870 
Warning[205]: Found directive in column 1. (ORG)
005200                07871 ORG 0X5200
005200                07872 FONT02H_CAP_SEVEN
                      07873 
005200 0E00           07874         MOVLW   0
005202 6EFB           07875         MOVWF   PCLATU,0
005204 0E52           07876         MOVLW   52
005206 6EFA           07877         MOVWF   PCLATH,0
                      07878 
                      07879         
MPASM  5.51               20191125_RTCGPU.ASM   4-30-2024  22:19:12         PAGE 154


LOC  OBJECT CODE     LINE SOURCE TEXT
  VALUE

                      07880 
                      07881         
005208 C146 FFE8      07882                         MOVFF   BTCOUNT,WREG
00520C 90D8           07883                         BCF             STATUS,C
00520E 36E8           07884                         RLCF    WREG
                      07885 
                      07886                 
005210 26F9           07887                         ADDWF   PCL,1,0
005212 0C00 0C3F 0CFF 07888                         DT      B'00000000',B'00111111',B'11111111'     ;BTC=00
005218 0C00 0C3F 0CFF 07889                         DT      B'00000000',B'00111111',B'11111111'     ;BTC=01
00521E 0C3F 0C3F 0CFF 07890                         DT      B'00111111',B'00111111',B'11111111'     ;BTC=02
005224 0C3F 0C3F 0CFF 07891                         DT      B'00111111',B'00111111',B'11111111'     ;BTC=03
00522A 0CFF 0C3F 0CFF 07892                         DT      B'11111111',B'00111111',B'11111111'     ;BTC=04
005230 0CFF 0C3F 0CFF 07893                         DT      B'11111111',B'00111111',B'11111111'     ;BTC=05
005236 0CFE 0C3F 0CFF 07894                         DT      B'11111110',B'00111111',B'11111111'     ;BTC=06
00523C 0CFC 0C7F 0CFF 07895                         DT      B'11111100',B'01111111',B'11111111'     ;BTC=07
005242 0CF8 0CFF 0CFF 07896                         DT      B'11111000',B'11111111',B'11111111'     ;BTC=08
005248 0CF1 0CFF 0CFF 07897                         DT      B'11110001',B'11111111',B'11111111'     ;BTC=09
00524E 0CE3 0CFF 0CFF 07898                         DT      B'11100011',B'11111111',B'11111111'     ;BTC=0A
005254 0CE7 0CFF 0CFF 07899                         DT      B'11100111',B'11111111',B'11111111'     ;BTC=0B
00525A 0CE7 0CFF 0CFF 07900                         DT      B'11100111',B'11111111',B'11111111'     ;BTC=0C
005260 0CE7 0CFF 0CFF 07901                         DT      B'11100111',B'11111111',B'11111111'     ;BTC=0D
005266 0CE7 0CFF 0CFF 07902                         DT      B'11100111',B'11111111',B'11111111'     ;BTC=0E
00526C 0CFF 0CFF 0CFF 07903                         DT      B'11111111',B'11111111',B'11111111'     ;BTC=0F
                      07904         
Warning[205]: Found directive in column 1. (ORG)
005300                07905 ORG 0X5300
005300                07906 FONT02L_CAP_SEVEN
                      07907 
005300 0E00           07908         MOVLW   0
005302 6EFB           07909         MOVWF   PCLATU,0
005304 0E53           07910         MOVLW   53
005306 6EFA           07911         MOVWF   PCLATH,0
                      07912 
                      07913 
                      07914 
                      07915 
005308 C146 FFE8      07916                         MOVFF   BTCOUNT,WREG
00530C 90D8           07917                         BCF             STATUS,C
00530E 36E8           07918                         RLCF    WREG
                      07919 
                      07920                 
005310 26F9           07921                         ADDWF   PCL,1,0
005312 0CFF 0CFF 0CFF 07922                         DT      B'11111111',B'11111111',B'11111111'     ;BTC=10
005318 0CFF 0CFF 0CFF 07923                         DT      B'11111111',B'11111111',B'11111111'     ;BTC=11
00531E 0CFF 0CFF 0CFF 07924                         DT      B'11111111',B'11111111',B'11111111'     ;BTC=12
005324 0CFF 0CFF 0CFF 07925                         DT      B'11111111',B'11111111',B'11111111'     ;BTC=13
00532A 0CFF 0CFF 0CFF 07926                         DT      B'11111111',B'11111111',B'11111111'     ;BTC=14
005330 0CFF 0CFF 0CFF 07927                         DT      B'11111111',B'11111111',B'11111111'     ;BTC=15
005336 0CFF 0CFF 0CFF 07928                         DT      B'11111111',B'11111111',B'11111111'     ;BTC=16
00533C 0CFF 0CFF 0CFF 07929                         DT      B'11111111',B'11111111',B'11111111'     ;BTC=17
005342 0CFF 0CFF 0CFF 07930                         DT      B'11111111',B'11111111',B'11111111'     ;BTC=18
005348 0CFF 0CFF 0CFF 07931                         DT      B'11111111',B'11111111',B'11111111'     ;BTC=19
MPASM  5.51               20191125_RTCGPU.ASM   4-30-2024  22:19:12         PAGE 155


LOC  OBJECT CODE     LINE SOURCE TEXT
  VALUE

00534E 0CFF 0CFF 0CFF 07932                         DT      B'11111111',B'11111111',B'11111111'     ;BTC=1A
005354 0CFF 0CFF 0CFF 07933                         DT      B'11111111',B'11111111',B'11111111'     ;BTC=1B
00535A 0CFF 0CFF 0CFF 07934                         DT      B'11111111',B'11111111',B'11111111'     ;BTC=1C
005360 0CFF 0CFF 0CFF 07935                         DT      B'11111111',B'11111111',B'11111111'     ;BTC=1D
005366 0CFF 0CFF 0CFF 07936                         DT      B'11111111',B'11111111',B'11111111'     ;BTC=1E
00536C 0CFF 0CFF 0CFF 07937                         DT      B'11111111',B'11111111',B'11111111'     ;BTC=1F
                      07938 
                      07939 
                      07940 
Warning[205]: Found directive in column 1. (ORG)
005400                07941 ORG 0X5400
005400                07942 FONT02H_CAP_EIGHT
005400 0E00           07943         MOVLW   0
005402 6EFB           07944         MOVWF   PCLATU,0
005404 0E54           07945         MOVLW   54
005406 6EFA           07946         MOVWF   PCLATH,0
                      07947 
                      07948         
                      07949 
                      07950         
005408 C146 FFE8      07951                         MOVFF   BTCOUNT,WREG
00540C 90D8           07952                         BCF             STATUS,C
00540E 36E8           07953                         RLCF    WREG
                      07954 
                      07955                 
005410 26F9           07956                         ADDWF   PCL,1,0
005412 0CC0 0CFF 0CFF 07957                         DT      B'11000000',B'11111111',B'11111111'     ;BTC=00
005418 0C80 0C7F 0CFF 07958                         DT      B'10000000',B'01111111',B'11111111'     ;BTC=01
00541E 0C1E 0C3F 0CFF 07959                         DT      B'00011110',B'00111111',B'11111111'     ;BTC=02
005424 0C3F 0C3F 0CFF 07960                         DT      B'00111111',B'00111111',B'11111111'     ;BTC=03
00542A 0C3F 0C3F 0CFF 07961                         DT      B'00111111',B'00111111',B'11111111'     ;BTC=04
005430 0C1E 0C3F 0CFF 07962                         DT      B'00011110',B'00111111',B'11111111'     ;BTC=05
005436 0C80 0C7F 0CFF 07963                         DT      B'10000000',B'01111111',B'11111111'     ;BTC=06
00543C 0C80 0C7F 0CFF 07964                         DT      B'10000000',B'01111111',B'11111111'     ;BTC=07
005442 0C1E 0C3F 0CFF 07965                         DT      B'00011110',B'00111111',B'11111111'     ;BTC=08
005448 0C3F 0C3F 0CFF 07966                         DT      B'00111111',B'00111111',B'11111111'     ;BTC=09
00544E 0C3F 0C3F 0CFF 07967                         DT      B'00111111',B'00111111',B'11111111'     ;BTC=0A
005454 0C3F 0C3F 0CFF 07968                         DT      B'00111111',B'00111111',B'11111111'     ;BTC=0B
00545A 0C1E 0C3F 0CFF 07969                         DT      B'00011110',B'00111111',B'11111111'     ;BTC=0C
005460 0C80 0C7F 0CFF 07970                         DT      B'10000000',B'01111111',B'11111111'     ;BTC=0D
005466 0CC0 0CFF 0CFF 07971                         DT      B'11000000',B'11111111',B'11111111'     ;BTC=0E
00546C 0CFF 0CFF 0CFF 07972                         DT      B'11111111',B'11111111',B'11111111'     ;BTC=0F
                      07973         
Warning[205]: Found directive in column 1. (ORG)
005500                07974 ORG 0X5500
005500                07975 FONT02L_CAP_EIGHT
                      07976 
005500 0E00           07977         MOVLW   0
005502 6EFB           07978         MOVWF   PCLATU,0
005504 0E55           07979         MOVLW   55
005506 6EFA           07980         MOVWF   PCLATH,0
                      07981 
                      07982 
MPASM  5.51               20191125_RTCGPU.ASM   4-30-2024  22:19:12         PAGE 156


LOC  OBJECT CODE     LINE SOURCE TEXT
  VALUE

                      07983 
                      07984 
005508 C146 FFE8      07985                         MOVFF   BTCOUNT,WREG
00550C 90D8           07986                         BCF             STATUS,C
00550E 36E8           07987                         RLCF    WREG
                      07988 
                      07989                 
005510 26F9           07990                         ADDWF   PCL,1,0
005512 0CFF 0CFF 0CFF 07991                         DT      B'11111111',B'11111111',B'11111111'     ;BTC=10
005518 0CFF 0CFF 0CFF 07992                         DT      B'11111111',B'11111111',B'11111111'     ;BTC=11
00551E 0CFF 0CFF 0CFF 07993                         DT      B'11111111',B'11111111',B'11111111'     ;BTC=12
005524 0CFF 0CFF 0CFF 07994                         DT      B'11111111',B'11111111',B'11111111'     ;BTC=13
00552A 0CFF 0CFF 0CFF 07995                         DT      B'11111111',B'11111111',B'11111111'     ;BTC=14
005530 0CFF 0CFF 0CFF 07996                         DT      B'11111111',B'11111111',B'11111111'     ;BTC=15
005536 0CFF 0CFF 0CFF 07997                         DT      B'11111111',B'11111111',B'11111111'     ;BTC=16
00553C 0CFF 0CFF 0CFF 07998                         DT      B'11111111',B'11111111',B'11111111'     ;BTC=17
005542 0CFF 0CFF 0CFF 07999                         DT      B'11111111',B'11111111',B'11111111'     ;BTC=18
005548 0CFF 0CFF 0CFF 08000                         DT      B'11111111',B'11111111',B'11111111'     ;BTC=19
00554E 0CFF 0CFF 0CFF 08001                         DT      B'11111111',B'11111111',B'11111111'     ;BTC=1A
005554 0CFF 0CFF 0CFF 08002                         DT      B'11111111',B'11111111',B'11111111'     ;BTC=1B
00555A 0CFF 0CFF 0CFF 08003                         DT      B'11111111',B'11111111',B'11111111'     ;BTC=1C
005560 0CFF 0CFF 0CFF 08004                         DT      B'11111111',B'11111111',B'11111111'     ;BTC=1D
005566 0CFF 0CFF 0CFF 08005                         DT      B'11111111',B'11111111',B'11111111'     ;BTC=1E
00556C 0CFF 0CFF 0CFF 08006                         DT      B'11111111',B'11111111',B'11111111'     ;BTC=1F
                      08007 
                      08008 
                      08009 
Warning[205]: Found directive in column 1. (ORG)
005600                08010 ORG 0X5600
005600                08011 FONT02H_CAP_NINE
005600 0E00           08012         MOVLW   0
005602 6EFB           08013         MOVWF   PCLATU,0
005604 0E56           08014         MOVLW   56
005606 6EFA           08015         MOVWF   PCLATH,0
                      08016 
                      08017         
                      08018 
                      08019         
005608 C146 FFE8      08020                         MOVFF   BTCOUNT,WREG
00560C 90D8           08021                         BCF             STATUS,C
00560E 36E8           08022                         RLCF    WREG
                      08023 
                      08024                 
005610 26F9           08025                         ADDWF   PCL,1,0
005612 0CC0 0CFF 0CFF 08026                         DT      B'11000000',B'11111111',B'11111111'     ;BTC=00
005618 0C80 0C7F 0CFF 08027                         DT      B'10000000',B'01111111',B'11111111'     ;BTC=01
00561E 0C1E 0C3F 0CFF 08028                         DT      B'00011110',B'00111111',B'11111111'     ;BTC=02
005624 0C3F 0C3F 0CFF 08029                         DT      B'00111111',B'00111111',B'11111111'     ;BTC=03
00562A 0C3F 0C3F 0CFF 08030                         DT      B'00111111',B'00111111',B'11111111'     ;BTC=04
005630 0C3F 0C3F 0CFF 08031                         DT      B'00111111',B'00111111',B'11111111'     ;BTC=05
005636 0C1E 0C3F 0CFF 08032                         DT      B'00011110',B'00111111',B'11111111'     ;BTC=06
00563C 0C80 0C3F 0CFF 08033                         DT      B'10000000',B'00111111',B'11111111'     ;BTC=07
005642 0CC0 0C3F 0CFF 08034                         DT      B'11000000',B'00111111',B'11111111'     ;BTC=08
MPASM  5.51               20191125_RTCGPU.ASM   4-30-2024  22:19:12         PAGE 157


LOC  OBJECT CODE     LINE SOURCE TEXT
  VALUE

005648 0CFE 0C3F 0CFF 08035                         DT      B'11111110',B'00111111',B'11111111'     ;BTC=09
00564E 0CFF 0C3F 0CFF 08036                         DT      B'11111111',B'00111111',B'11111111'     ;BTC=0A
005654 0C3F 0C3F 0CFF 08037                         DT      B'00111111',B'00111111',B'11111111'     ;BTC=0B
00565A 0C1E 0C3F 0CFF 08038                         DT      B'00011110',B'00111111',B'11111111'     ;BTC=0C
005660 0C80 0C7F 0CFF 08039                         DT      B'10000000',B'01111111',B'11111111'     ;BTC=0D
005666 0CC0 0CFF 0CFF 08040                         DT      B'11000000',B'11111111',B'11111111'     ;BTC=0E
00566C 0CFF 0CFF 0CFF 08041                         DT      B'11111111',B'11111111',B'11111111'     ;BTC=0F
                      08042 
                      08043         
Warning[205]: Found directive in column 1. (ORG)
005700                08044 ORG 0X5700
005700                08045 FONT02L_CAP_NINE
005700 0E00           08046         MOVLW   0
005702 6EFB           08047         MOVWF   PCLATU,0
005704 0E57           08048         MOVLW   57
005706 6EFA           08049         MOVWF   PCLATH,0
                      08050 
                      08051 
                      08052 
                      08053 
005708 C146 FFE8      08054                         MOVFF   BTCOUNT,WREG
00570C 90D8           08055                         BCF             STATUS,C
00570E 36E8           08056                         RLCF    WREG
                      08057 
                      08058                 
005710 26F9           08059                         ADDWF   PCL,1,0
005712 0CFF 0CFF 0CFF 08060                         DT      B'11111111',B'11111111',B'11111111'     ;BTC=10
005718 0CFF 0CFF 0CFF 08061                         DT      B'11111111',B'11111111',B'11111111'     ;BTC=11
00571E 0CFF 0CFF 0CFF 08062                         DT      B'11111111',B'11111111',B'11111111'     ;BTC=12
005724 0CFF 0CFF 0CFF 08063                         DT      B'11111111',B'11111111',B'11111111'     ;BTC=13
00572A 0CFF 0CFF 0CFF 08064                         DT      B'11111111',B'11111111',B'11111111'     ;BTC=14
005730 0CFF 0CFF 0CFF 08065                         DT      B'11111111',B'11111111',B'11111111'     ;BTC=15
005736 0CFF 0CFF 0CFF 08066                         DT      B'11111111',B'11111111',B'11111111'     ;BTC=16
00573C 0CFF 0CFF 0CFF 08067                         DT      B'11111111',B'11111111',B'11111111'     ;BTC=17
005742 0CFF 0CFF 0CFF 08068                         DT      B'11111111',B'11111111',B'11111111'     ;BTC=18
005748 0CFF 0CFF 0CFF 08069                         DT      B'11111111',B'11111111',B'11111111'     ;BTC=19
00574E 0CFF 0CFF 0CFF 08070                         DT      B'11111111',B'11111111',B'11111111'     ;BTC=1A
005754 0CFF 0CFF 0CFF 08071                         DT      B'11111111',B'11111111',B'11111111'     ;BTC=1B
00575A 0CFF 0CFF 0CFF 08072                         DT      B'11111111',B'11111111',B'11111111'     ;BTC=1C
005760 0CFF 0CFF 0CFF 08073                         DT      B'11111111',B'11111111',B'11111111'     ;BTC=1D
005766 0CFF 0CFF 0CFF 08074                         DT      B'11111111',B'11111111',B'11111111'     ;BTC=1E
00576C 0CFF 0CFF 0CFF 08075                         DT      B'11111111',B'11111111',B'11111111'     ;BTC=1F
                      08076 
                      08077 
Warning[205]: Found directive in column 1. (ORG)
005800                08078 ORG 0X5800
005800                08079 FONT02H_CAP_ENYE
005800 0E00           08080         MOVLW   0
005802 6EFB           08081         MOVWF   PCLATU,0
005804 0E58           08082         MOVLW   58
005806 6EFA           08083         MOVWF   PCLATH,0
                      08084 
                      08085         
MPASM  5.51               20191125_RTCGPU.ASM   4-30-2024  22:19:12         PAGE 158


LOC  OBJECT CODE     LINE SOURCE TEXT
  VALUE

                      08086 
                      08087         
005808 C146 FFE8      08088                         MOVFF   BTCOUNT,WREG
00580C 90D8           08089                         BCF             STATUS,C
00580E 36E8           08090                         RLCF    WREG
                      08091 
                      08092                 
005810 26F9           08093                         ADDWF   PCL,1,0
005812 0CFF 0CFF 0CFF 08094                         DT      B'11111111',B'11111111',B'11111111'     ;BTC=00
005818 0CFF 0CFF 0CFF 08095                         DT      B'11111111',B'11111111',B'11111111'     ;BTC=01
00581E 0CFF 0CFF 0CFF 08096                         DT      B'11111111',B'11111111',B'11111111'     ;BTC=02
005824 0CFF 0CFF 0CFF 08097                         DT      B'11111111',B'11111111',B'11111111'     ;BTC=03
00582A 0CFF 0CFF 0CFF 08098                         DT      B'11111111',B'11111111',B'11111111'     ;BTC=04
005830 0CFF 0CFF 0CFF 08099                         DT      B'11111111',B'11111111',B'11111111'     ;BTC=05
005836 0CFF 0CFF 0CFF 08100                         DT      B'11111111',B'11111111',B'11111111'     ;BTC=06
00583C 0CFF 0CFF 0CFF 08101                         DT      B'11111111',B'11111111',B'11111111'     ;BTC=07
005842 0CFF 0CFF 0CFF 08102                         DT      B'11111111',B'11111111',B'11111111'     ;BTC=08
005848 0C7B 0CFF 0CFF 08103                         DT      B'01111011',B'11111111',B'11111111'     ;BTC=09
00584E 0C33 0CFF 0CFF 08104                         DT      B'00110011',B'11111111',B'11111111'     ;BTC=0A
005854 0C4B 0CFF 0CFF 08105                         DT      B'01001011',B'11111111',B'11111111'     ;BTC=0B
00585A 0C7B 0CFF 0CFF 08106                         DT      B'01111011',B'11111111',B'11111111'     ;BTC=0C
005860 0C7B 0CFF 0CFF 08107                         DT      B'01111011',B'11111111',B'11111111'     ;BTC=0D
005866 0C7B 0CFF 0CFF 08108                         DT      B'01111011',B'11111111',B'11111111'     ;BTC=0E
00586C 0CFF 0CFF 0CFF 08109                         DT      B'11111111',B'11111111',B'11111111'     ;BTC=0F
                      08110 
                      08111 
                      08112 
005872                08113 FONT02H_LOW_ENYE
005872 0E00           08114         MOVLW   0
005874 6EFB           08115         MOVWF   PCLATU,0
005876 0E58           08116         MOVLW   58
005878 6EFA           08117         MOVWF   PCLATH,0
                      08118 
                      08119         
                      08120 
                      08121         
00587A C146 FFE8      08122                         MOVFF   BTCOUNT,WREG
00587E 90D8           08123                         BCF             STATUS,C
005880 36E8           08124                         RLCF    WREG
                      08125 
                      08126                 
005882 26F9           08127                         ADDWF   PCL,1,0
005884 0CFF 0CFF 0CFF 08128                         DT      B'11111111',B'11111111',B'11111111'     ;BTC=00
00588A 0CFF 0CFF 0CFF 08129                         DT      B'11111111',B'11111111',B'11111111'     ;BTC=01
005890 0CFF 0CFF 0CFF 08130                         DT      B'11111111',B'11111111',B'11111111'     ;BTC=02
005896 0CFF 0CFF 0CFF 08131                         DT      B'11111111',B'11111111',B'11111111'     ;BTC=03
00589C 0CFF 0CFF 0CFF 08132                         DT      B'11111111',B'11111111',B'11111111'     ;BTC=04
0058A2 0CFF 0CFF 0CFF 08133                         DT      B'11111111',B'11111111',B'11111111'     ;BTC=05
0058A8 0CFF 0CFF 0CFF 08134                         DT      B'11111111',B'11111111',B'11111111'     ;BTC=06
0058AE 0CFF 0CFF 0CFF 08135                         DT      B'11111111',B'11111111',B'11111111'     ;BTC=07
0058B4 0CFF 0CFF 0CFF 08136                         DT      B'11111111',B'11111111',B'11111111'     ;BTC=08
0058BA 0CFF 0CFF 0CFF 08137                         DT      B'11111111',B'11111111',B'11111111'     ;BTC=09
0058C0 0CFF 0CFF 0CFF 08138                         DT      B'11111111',B'11111111',B'11111111'     ;BTC=0A
MPASM  5.51               20191125_RTCGPU.ASM   4-30-2024  22:19:12         PAGE 159


LOC  OBJECT CODE     LINE SOURCE TEXT
  VALUE

0058C6 0CE0 0C7E 0CFF 08139                         DT      B'11100000',B'01111110',B'11111111'     ;BTC=0B
0058CC 0CDF 0C81 0CFF 08140                         DT      B'11011111',B'10000001',B'11111111'     ;BTC=0C
0058D2 0CFF 0CFF 0CFF 08141                         DT      B'11111111',B'11111111',B'11111111'     ;BTC=0D
0058D8 0C88 0C01 0CFF 08142                         DT      B'10001000',B'00000001',B'11111111'     ;BTC=0E
0058DE 0C80 0C00 0CFF 08143                         DT      B'10000000',B'00000000',B'11111111'     ;BTC=0F
                      08144         
Warning[205]: Found directive in column 1. (ORG)
005900                08145 ORG 0X5900
005900                08146 FONT02L_CAP_ENYE
005900 0E00           08147         MOVLW   0
005902 6EFB           08148         MOVWF   PCLATU,0
005904 0E59           08149         MOVLW   59
005906 6EFA           08150         MOVWF   PCLATH,0
                      08151 
                      08152 
                      08153 
                      08154 
005908 C146 FFE8      08155                         MOVFF   BTCOUNT,WREG
00590C 90D8           08156                         BCF             STATUS,C
00590E 36E8           08157                         RLCF    WREG
                      08158 
                      08159                 
005910 26F9           08160                         ADDWF   PCL,1,0
005912 0CFF 0CFF 0CFF 08161                         DT      B'11111111',B'11111111',B'11111111'     ;BTC=10
005918 0CFF 0CFF 0CFF 08162                         DT      B'11111111',B'11111111',B'11111111'     ;BTC=11
00591E 0CFF 0CFF 0CFF 08163                         DT      B'11111111',B'11111111',B'11111111'     ;BTC=12
005924 0CFF 0CFF 0CFF 08164                         DT      B'11111111',B'11111111',B'11111111'     ;BTC=13
00592A 0CFF 0CFF 0CFF 08165                         DT      B'11111111',B'11111111',B'11111111'     ;BTC=14
005930 0CFF 0CFF 0CFF 08166                         DT      B'11111111',B'11111111',B'11111111'     ;BTC=15
005936 0CFF 0CFF 0CFF 08167                         DT      B'11111111',B'11111111',B'11111111'     ;BTC=16
00593C 0CFF 0CFF 0CFF 08168                         DT      B'11111111',B'11111111',B'11111111'     ;BTC=17
005942 0CFF 0CFF 0CFF 08169                         DT      B'11111111',B'11111111',B'11111111'     ;BTC=18
005948 0CFF 0CFF 0CFF 08170                         DT      B'11111111',B'11111111',B'11111111'     ;BTC=19
00594E 0CFF 0CFF 0CFF 08171                         DT      B'11111111',B'11111111',B'11111111'     ;BTC=1A
005954 0CFF 0CFF 0CFF 08172                         DT      B'11111111',B'11111111',B'11111111'     ;BTC=1B
00595A 0CFF 0CFF 0CFF 08173                         DT      B'11111111',B'11111111',B'11111111'     ;BTC=1C
005960 0CFF 0CFF 0CFF 08174                         DT      B'11111111',B'11111111',B'11111111'     ;BTC=1D
005966 0CFF 0CFF 0CFF 08175                         DT      B'11111111',B'11111111',B'11111111'     ;BTC=1E
00596C 0CFF 0CFF 0CFF 08176                         DT      B'11111111',B'11111111',B'11111111'     ;BTC=1F
                      08177 
005972                08178 FONT02L_LOW_ENYE
005972 0E00           08179         MOVLW   0
005974 6EFB           08180         MOVWF   PCLATU,0
005976 0E59           08181         MOVLW   59
005978 6EFA           08182         MOVWF   PCLATH,0
                      08183 
                      08184 
                      08185 
                      08186 
00597A C146 FFE8      08187                         MOVFF   BTCOUNT,WREG
00597E 90D8           08188                         BCF             STATUS,C
005980 36E8           08189                         RLCF    WREG
                      08190 
MPASM  5.51               20191125_RTCGPU.ASM   4-30-2024  22:19:12         PAGE 160


LOC  OBJECT CODE     LINE SOURCE TEXT
  VALUE

                      08191                 
005982 26F9           08192                         ADDWF   PCL,1,0
005984 0C80 0C00 0C7F 08193                         DT      B'10000000',B'00000000',B'01111111'     ;BTC=10
00598A 0C87 0CF8 0C7F 08194                         DT      B'10000111',B'11111000',B'01111111'     ;BTC=11
005990 0C8F 0CFC 0C7F 08195                         DT      B'10001111',B'11111100',B'01111111'     ;BTC=12
005996 0C8F 0CFC 0C7F 08196                         DT      B'10001111',B'11111100',B'01111111'     ;BTC=13
00599C 0C8F 0CFC 0C7F 08197                         DT      B'10001111',B'11111100',B'01111111'     ;BTC=14
0059A2 0C8F 0CFC 0C7F 08198                         DT      B'10001111',B'11111100',B'01111111'     ;BTC=15
0059A8 0C8F 0CFC 0C7F 08199                         DT      B'10001111',B'11111100',B'01111111'     ;BTC=16
0059AE 0C8F 0CFC 0C7F 08200                         DT      B'10001111',B'11111100',B'01111111'     ;BTC=17
0059B4 0C8F 0CFC 0C7F 08201                         DT      B'10001111',B'11111100',B'01111111'     ;BTC=18
0059BA 0C8F 0CFC 0C7F 08202                         DT      B'10001111',B'11111100',B'01111111'     ;BTC=19
0059C0 0C8F 0CFC 0C7F 08203                         DT      B'10001111',B'11111100',B'01111111'     ;BTC=1A
0059C6 0C8F 0CFC 0C7F 08204                         DT      B'10001111',B'11111100',B'01111111'     ;BTC=1B
0059CC 0C8F 0CFC 0C7F 08205                         DT      B'10001111',B'11111100',B'01111111'     ;BTC=1C
0059D2 0C8F 0CFC 0C7F 08206                         DT      B'10001111',B'11111100',B'01111111'     ;BTC=1D
0059D8 0C8F 0CFC 0C7F 08207                         DT      B'10001111',B'11111100',B'01111111'     ;BTC=1E
0059DE 0CFF 0CFF 0CFF 08208                         DT      B'11111111',B'11111111',B'11111111'     ;BTC=1F
                      08209 
                      08210 
                      08211 
                      08212 
Warning[205]: Found directive in column 1. (ORG)
005A00                08213 ORG 0X5A00
005A00                08214 FONT02H_CAP_DASH
005A00 0E00           08215         MOVLW   0
005A02 6EFB           08216         MOVWF   PCLATU,0
005A04 0E5A           08217         MOVLW   5A
005A06 6EFA           08218         MOVWF   PCLATH,0
                      08219 
                      08220         
                      08221 
                      08222         
005A08 C146 FFE8      08223                         MOVFF   BTCOUNT,WREG
005A0C 90D8           08224                         BCF             STATUS,C
005A0E 36E8           08225                         RLCF    WREG
                      08226 
                      08227                 
005A10 26F9           08228                         ADDWF   PCL,1,0
005A12 0CFF 0CFF 0CFF 08229                         DT      B'11111111',B'11111111',B'11111111'     ;BTC=00
005A18 0CFF 0CFF 0CFF 08230                         DT      B'11111111',B'11111111',B'11111111'     ;BTC=01
005A1E 0CFF 0CFF 0CFF 08231                         DT      B'11111111',B'11111111',B'11111111'     ;BTC=02
005A24 0CFF 0CFF 0CFF 08232                         DT      B'11111111',B'11111111',B'11111111'     ;BTC=03
005A2A 0CFF 0CFF 0CFF 08233                         DT      B'11111111',B'11111111',B'11111111'     ;BTC=04
005A30 0CFF 0CFF 0CFF 08234                         DT      B'11111111',B'11111111',B'11111111'     ;BTC=05
005A36 0CFF 0CFF 0CFF 08235                         DT      B'11111111',B'11111111',B'11111111'     ;BTC=06
005A3C 0CFF 0CFF 0CFF 08236                         DT      B'11111111',B'11111111',B'11111111'     ;BTC=07
005A42 0CFF 0CFF 0CFF 08237                         DT      B'11111111',B'11111111',B'11111111'     ;BTC=08
005A48 0CFF 0CFF 0CFF 08238                         DT      B'11111111',B'11111111',B'11111111'     ;BTC=09
005A4E 0CFF 0CFF 0CFF 08239                         DT      B'11111111',B'11111111',B'11111111'     ;BTC=0A
005A54 0CFF 0CFF 0CFF 08240                         DT      B'11111111',B'11111111',B'11111111'     ;BTC=0B
005A5A 0CFF 0CFF 0CFF 08241                         DT      B'11111111',B'11111111',B'11111111'     ;BTC=0C
005A60 0C80 0C0F 0CFF 08242                         DT      B'10000000',B'00001111',B'11111111'     ;BTC=0D
MPASM  5.51               20191125_RTCGPU.ASM   4-30-2024  22:19:12         PAGE 161


LOC  OBJECT CODE     LINE SOURCE TEXT
  VALUE

005A66 0C80 0C0F 0CFF 08243                         DT      B'10000000',B'00001111',B'11111111'     ;BTC=0E
005A6C 0C80 0C0F 0CFF 08244                         DT      B'10000000',B'00001111',B'11111111'     ;BTC=0F
                      08245 
                      08246 
005A72                08247 FONT02H_LOW_DASH
005A72 0E00           08248         MOVLW   0
005A74 6EFB           08249         MOVWF   PCLATU,0
005A76 0E5A           08250         MOVLW   5A
005A78 6EFA           08251         MOVWF   PCLATH,0
                      08252 
                      08253         
                      08254 
                      08255         
005A7A C146 FFE8      08256                         MOVFF   BTCOUNT,WREG
005A7E 90D8           08257                         BCF             STATUS,C
005A80 36E8           08258                         RLCF    WREG
                      08259 
                      08260                 
005A82 26F9           08261                         ADDWF   PCL,1,0
005A84 0CFF 0CFF 0CFF 08262                         DT      B'11111111',B'11111111',B'11111111'     ;BTC=00
005A8A 0CFF 0CFF 0CFF 08263                         DT      B'11111111',B'11111111',B'11111111'     ;BTC=01
005A90 0CFF 0CFF 0CFF 08264                         DT      B'11111111',B'11111111',B'11111111'     ;BTC=02
005A96 0CFF 0CFF 0CFF 08265                         DT      B'11111111',B'11111111',B'11111111'     ;BTC=03
005A9C 0CFF 0CFF 0CFF 08266                         DT      B'11111111',B'11111111',B'11111111'     ;BTC=04
005AA2 0CFF 0CFF 0CFF 08267                         DT      B'11111111',B'11111111',B'11111111'     ;BTC=05
005AA8 0CFF 0CFF 0CFF 08268                         DT      B'11111111',B'11111111',B'11111111'     ;BTC=06
005AAE 0CFF 0CFF 0CFF 08269                         DT      B'11111111',B'11111111',B'11111111'     ;BTC=07
005AB4 0CFF 0CFF 0CFF 08270                         DT      B'11111111',B'11111111',B'11111111'     ;BTC=08
005ABA 0CFF 0CFF 0CFF 08271                         DT      B'11111111',B'11111111',B'11111111'     ;BTC=09
005AC0 0CFF 0CFF 0CFF 08272                         DT      B'11111111',B'11111111',B'11111111'     ;BTC=0A
005AC6 0CFF 0CFF 0CFF 08273                         DT      B'11111111',B'11111111',B'11111111'     ;BTC=0B
005ACC 0CFF 0CFF 0CFF 08274                         DT      B'11111111',B'11111111',B'11111111'     ;BTC=0C
005AD2 0CFF 0CFF 0CFF 08275                         DT      B'11111111',B'11111111',B'11111111'     ;BTC=0D
005AD8 0CFF 0CFF 0CFF 08276                         DT      B'11111111',B'11111111',B'11111111'     ;BTC=0E
005ADE 0C80 0CFF 0CFF 08277                         DT      B'10000000',B'11111111',B'11111111'     ;BTC=0F
                      08278         
Warning[205]: Found directive in column 1. (ORG)
005B00                08279 ORG 0X5B00
005B00                08280 FONT02L_CAP_DASH
005B00 0E00           08281         MOVLW   0
005B02 6EFB           08282         MOVWF   PCLATU,0
005B04 0E5B           08283         MOVLW   5B
005B06 6EFA           08284         MOVWF   PCLATH,0
                      08285 
                      08286 
                      08287 
                      08288 
005B08 C146 FFE8      08289                         MOVFF   BTCOUNT,WREG
005B0C 90D8           08290                         BCF             STATUS,C
005B0E 36E8           08291                         RLCF    WREG
                      08292 
                      08293                 
005B10 26F9           08294                         ADDWF   PCL,1,0
MPASM  5.51               20191125_RTCGPU.ASM   4-30-2024  22:19:12         PAGE 162


LOC  OBJECT CODE     LINE SOURCE TEXT
  VALUE

005B12 0C80 0C0F 0CFF 08295                         DT      B'10000000',B'00001111',B'11111111'     ;BTC=10
005B18 0C80 0C0F 0CFF 08296                         DT      B'10000000',B'00001111',B'11111111'     ;BTC=11
005B1E 0CFF 0CFF 0CFF 08297                         DT      B'11111111',B'11111111',B'11111111'     ;BTC=12
005B24 0CFF 0CFF 0CFF 08298                         DT      B'11111111',B'11111111',B'11111111'     ;BTC=13
005B2A 0CFF 0CFF 0CFF 08299                         DT      B'11111111',B'11111111',B'11111111'     ;BTC=14
005B30 0CFF 0CFF 0CFF 08300                         DT      B'11111111',B'11111111',B'11111111'     ;BTC=15
005B36 0CFF 0CFF 0CFF 08301                         DT      B'11111111',B'11111111',B'11111111'     ;BTC=16
005B3C 0CFF 0CFF 0CFF 08302                         DT      B'11111111',B'11111111',B'11111111'     ;BTC=17
005B42 0CFF 0CFF 0CFF 08303                         DT      B'11111111',B'11111111',B'11111111'     ;BTC=18
005B48 0CFF 0CFF 0CFF 08304                         DT      B'11111111',B'11111111',B'11111111'     ;BTC=19
005B4E 0CFF 0CFF 0CFF 08305                         DT      B'11111111',B'11111111',B'11111111'     ;BTC=1A
005B54 0CFF 0CFF 0CFF 08306                         DT      B'11111111',B'11111111',B'11111111'     ;BTC=1B
005B5A 0CFF 0CFF 0CFF 08307                         DT      B'11111111',B'11111111',B'11111111'     ;BTC=1C
005B60 0CFF 0CFF 0CFF 08308                         DT      B'11111111',B'11111111',B'11111111'     ;BTC=1D
005B66 0CFF 0CFF 0CFF 08309                         DT      B'11111111',B'11111111',B'11111111'     ;BTC=1E
005B6C 0CFF 0CFF 0CFF 08310                         DT      B'11111111',B'11111111',B'11111111'     ;BTC=1F
                      08311 
005B72                08312 FONT02L_LOW_DASH
005B72 0E00           08313         MOVLW   0
005B74 6EFB           08314         MOVWF   PCLATU,0
005B76 0E5B           08315         MOVLW   5B
005B78 6EFA           08316         MOVWF   PCLATH,0
                      08317 
                      08318 
                      08319 
                      08320 
005B7A C146 FFE8      08321                         MOVFF   BTCOUNT,WREG
005B7E 90D8           08322                         BCF             STATUS,C
005B80 36E8           08323                         RLCF    WREG
                      08324 
                      08325                 
005B82 26F9           08326                         ADDWF   PCL,1,0
005B84 0C80 0CFF 0CFF 08327                         DT      B'10000000',B'11111111',B'11111111'     ;BTC=10
005B8A 0C80 0CFF 0CFF 08328                         DT      B'10000000',B'11111111',B'11111111'     ;BTC=11
005B90 0CFF 0CFF 0CFF 08329                         DT      B'11111111',B'11111111',B'11111111'     ;BTC=12
005B96 0CFF 0CFF 0CFF 08330                         DT      B'11111111',B'11111111',B'11111111'     ;BTC=13
005B9C 0CFF 0CFF 0CFF 08331                         DT      B'11111111',B'11111111',B'11111111'     ;BTC=14
005BA2 0CFF 0CFF 0CFF 08332                         DT      B'11111111',B'11111111',B'11111111'     ;BTC=15
005BA8 0CFF 0CFF 0CFF 08333                         DT      B'11111111',B'11111111',B'11111111'     ;BTC=16
005BAE 0CFF 0CFF 0CFF 08334                         DT      B'11111111',B'11111111',B'11111111'     ;BTC=17
005BB4 0CFF 0CFF 0CFF 08335                         DT      B'11111111',B'11111111',B'11111111'     ;BTC=18
005BBA 0CFF 0CFF 0CFF 08336                         DT      B'11111111',B'11111111',B'11111111'     ;BTC=19
005BC0 0CFF 0CFF 0CFF 08337                         DT      B'11111111',B'11111111',B'11111111'     ;BTC=1A
005BC6 0CFF 0CFF 0CFF 08338                         DT      B'11111111',B'11111111',B'11111111'     ;BTC=1B
005BCC 0CFF 0CFF 0CFF 08339                         DT      B'11111111',B'11111111',B'11111111'     ;BTC=1C
005BD2 0CFF 0CFF 0CFF 08340                         DT      B'11111111',B'11111111',B'11111111'     ;BTC=1D
005BD8 0CFF 0CFF 0CFF 08341                         DT      B'11111111',B'11111111',B'11111111'     ;BTC=1E
005BDE 0CFF 0CFF 0CFF 08342                         DT      B'11111111',B'11111111',B'11111111'     ;BTC=1F
                      08343 
                      08344 
                      08345 
                      08346 
Warning[205]: Found directive in column 1. (ORG)
MPASM  5.51               20191125_RTCGPU.ASM   4-30-2024  22:19:12         PAGE 163


LOC  OBJECT CODE     LINE SOURCE TEXT
  VALUE

005C00                08347 ORG 0X5C00
005C00                08348 FONT02H_CAP_COLON
005C00 0E00           08349         MOVLW   0
005C02 6EFB           08350         MOVWF   PCLATU,0
005C04 0E5C           08351         MOVLW   5C
005C06 6EFA           08352         MOVWF   PCLATH,0
                      08353 
                      08354         
                      08355 
                      08356         
005C08 C146 FFE8      08357                         MOVFF   BTCOUNT,WREG
005C0C 90D8           08358                         BCF             STATUS,C
005C0E 36E8           08359                         RLCF    WREG
                      08360 
                      08361                 
005C10 26F9           08362                         ADDWF   PCL,1,0
005C12 0CFF 0CFF 0CFF 08363                         DT      B'11111111',B'11111111',B'11111111'     ;BTC=00
005C18 0CFF 0CFF 0CFF 08364                         DT      B'11111111',B'11111111',B'11111111'     ;BTC=01
005C1E 0CFF 0CFF 0CFF 08365                         DT      B'11111111',B'11111111',B'11111111'     ;BTC=02
005C24 0CFF 0CFF 0CFF 08366                         DT      B'11111111',B'11111111',B'11111111'     ;BTC=03
005C2A 0CFF 0CFF 0CFF 08367                         DT      B'11111111',B'11111111',B'11111111'     ;BTC=04
005C30 0CFF 0CFF 0CFF 08368                         DT      B'11111111',B'11111111',B'11111111'     ;BTC=05
005C36 0CE3 0CFF 0CFF 08369                         DT      B'11100011',B'11111111',B'11111111'     ;BTC=06
005C3C 0CC1 0CFF 0CFF 08370                         DT      B'11000001',B'11111111',B'11111111'     ;BTC=07
005C42 0C80 0CFF 0CFF 08371                         DT      B'10000000',B'11111111',B'11111111'     ;BTC=08
005C48 0C80 0CFF 0CFF 08372                         DT      B'10000000',B'11111111',B'11111111'     ;BTC=09
005C4E 0C80 0CFF 0CFF 08373                         DT      B'10000000',B'11111111',B'11111111'     ;BTC=0A
005C54 0CC1 0CFF 0CFF 08374                         DT      B'11000001',B'11111111',B'11111111'     ;BTC=0B
005C5A 0CE3 0CFF 0CFF 08375                         DT      B'11100011',B'11111111',B'11111111'     ;BTC=0C
005C60 0CFF 0CFF 0CFF 08376                         DT      B'11111111',B'11111111',B'11111111'     ;BTC=0D
005C66 0CFF 0CFF 0CFF 08377                         DT      B'11111111',B'11111111',B'11111111'     ;BTC=0E
005C6C 0CFF 0CFF 0CFF 08378                         DT      B'11111111',B'11111111',B'11111111'     ;BTC=0F
                      08379 
005C72                08380 FONT02H_LOW_COLON
005C72 0E00           08381         MOVLW   0
005C74 6EFB           08382         MOVWF   PCLATU,0
005C76 0E5C           08383         MOVLW   5C
005C78 6EFA           08384         MOVWF   PCLATH,0
                      08385 
                      08386         
                      08387 
                      08388         
005C7A C146 FFE8      08389                         MOVFF   BTCOUNT,WREG
005C7E 90D8           08390                         BCF             STATUS,C
005C80 36E8           08391                         RLCF    WREG
                      08392 
                      08393                 
005C82 26F9           08394                         ADDWF   PCL,1,0
005C84 0CFF 0CFF 0CFF 08395                         DT      B'11111111',B'11111111',B'11111111'     ;BTC=00
005C8A 0CFF 0CFF 0CFF 08396                         DT      B'11111111',B'11111111',B'11111111'     ;BTC=01
005C90 0C9F 0CFF 0CFF 08397                         DT      B'10011111',B'11111111',B'11111111'     ;BTC=02
005C96 0C0F 0CFF 0CFF 08398                         DT      B'00001111',B'11111111',B'11111111'     ;BTC=03
005C9C 0C0F 0CFF 0CFF 08399                         DT      B'00001111',B'11111111',B'11111111'     ;BTC=04
MPASM  5.51               20191125_RTCGPU.ASM   4-30-2024  22:19:12         PAGE 164


LOC  OBJECT CODE     LINE SOURCE TEXT
  VALUE

005CA2 0C9F 0CFF 0CFF 08400                         DT      B'10011111',B'11111111',B'11111111'     ;BTC=05
005CA8 0CFF 0CFF 0CFF 08401                         DT      B'11111111',B'11111111',B'11111111'     ;BTC=06
005CAE 0CFF 0CFF 0CFF 08402                         DT      B'11111111',B'11111111',B'11111111'     ;BTC=07
005CB4 0CFF 0CFF 0CFF 08403                         DT      B'11111111',B'11111111',B'11111111'     ;BTC=08
005CBA 0CFF 0CFF 0CFF 08404                         DT      B'11111111',B'11111111',B'11111111'     ;BTC=09
005CC0 0C9F 0CFF 0CFF 08405                         DT      B'10011111',B'11111111',B'11111111'     ;BTC=0A
005CC6 0C0F 0CFF 0CFF 08406                         DT      B'00001111',B'11111111',B'11111111'     ;BTC=0B
005CCC 0C0F 0CFF 0CFF 08407                         DT      B'00001111',B'11111111',B'11111111'     ;BTC=0C
005CD2 0C9F 0CFF 0CFF 08408                         DT      B'10011111',B'11111111',B'11111111'     ;BTC=0D
005CD8 0CFF 0CFF 0CFF 08409                         DT      B'11111111',B'11111111',B'11111111'     ;BTC=0E
005CDE 0CFF 0CFF 0CFF 08410                         DT      B'11111111',B'11111111',B'11111111'     ;BTC=0F
                      08411         
Warning[205]: Found directive in column 1. (ORG)
005D00                08412 ORG 0X5D00
005D00                08413 FONT02L_CAP_COLON
005D00 0E00           08414         MOVLW   0
005D02 6EFB           08415         MOVWF   PCLATU,0
005D04 0E5D           08416         MOVLW   5D
005D06 6EFA           08417         MOVWF   PCLATH,0
                      08418 
                      08419 
                      08420 
                      08421 
005D08 C146 FFE8      08422                         MOVFF   BTCOUNT,WREG
005D0C 90D8           08423                         BCF             STATUS,C
005D0E 36E8           08424                         RLCF    WREG
                      08425 
                      08426                 
005D10 26F9           08427                         ADDWF   PCL,1,0
005D12 0CFF 0CFF 0CFF 08428                         DT      B'11111111',B'11111111',B'11111111'     ;BTC=10
005D18 0CFF 0CFF 0CFF 08429                         DT      B'11111111',B'11111111',B'11111111'     ;BTC=11
005D1E 0CFF 0CFF 0CFF 08430                         DT      B'11111111',B'11111111',B'11111111'     ;BTC=12
005D24 0CE3 0CFF 0CFF 08431                         DT      B'11100011',B'11111111',B'11111111'     ;BTC=13
005D2A 0CC1 0CFF 0CFF 08432                         DT      B'11000001',B'11111111',B'11111111'     ;BTC=14
005D30 0C80 0CFF 0CFF 08433                         DT      B'10000000',B'11111111',B'11111111'     ;BTC=15
005D36 0C80 0CFF 0CFF 08434                         DT      B'10000000',B'11111111',B'11111111'     ;BTC=16
005D3C 0C80 0CFF 0CFF 08435                         DT      B'10000000',B'11111111',B'11111111'     ;BTC=17
005D42 0CC1 0CFF 0CFF 08436                         DT      B'11000001',B'11111111',B'11111111'     ;BTC=18
005D48 0CE3 0CFF 0CFF 08437                         DT      B'11100011',B'11111111',B'11111111'     ;BTC=19
005D4E 0CFF 0CFF 0CFF 08438                         DT      B'11111111',B'11111111',B'11111111'     ;BTC=1A
005D54 0CFF 0CFF 0CFF 08439                         DT      B'11111111',B'11111111',B'11111111'     ;BTC=1B
005D5A 0CFF 0CFF 0CFF 08440                         DT      B'11111111',B'11111111',B'11111111'     ;BTC=1C
005D60 0CFF 0CFF 0CFF 08441                         DT      B'11111111',B'11111111',B'11111111'     ;BTC=1D
005D66 0CFF 0CFF 0CFF 08442                         DT      B'11111111',B'11111111',B'11111111'     ;BTC=1E
005D6C 0CFF 0CFF 0CFF 08443                         DT      B'11111111',B'11111111',B'11111111'     ;BTC=1F
                      08444 
                      08445 
005D72                08446 FONT02L_LOW_COLON
005D72 0E00           08447         MOVLW   0
005D74 6EFB           08448         MOVWF   PCLATU,0
005D76 0E5D           08449         MOVLW   5D
005D78 6EFA           08450         MOVWF   PCLATH,0
                      08451 
MPASM  5.51               20191125_RTCGPU.ASM   4-30-2024  22:19:12         PAGE 165


LOC  OBJECT CODE     LINE SOURCE TEXT
  VALUE

                      08452 
                      08453 
                      08454 
005D7A C146 FFE8      08455                         MOVFF   BTCOUNT,WREG
005D7E 90D8           08456                         BCF             STATUS,C
005D80 36E8           08457                         RLCF    WREG
                      08458 
                      08459                 
005D82 26F9           08460                         ADDWF   PCL,1,0
005D84 0CFF 0CFF 0CFF 08461                         DT      B'11111111',B'11111111',B'11111111'     ;BTC=10
005D8A 0CFF 0CFF 0CFF 08462                         DT      B'11111111',B'11111111',B'11111111'     ;BTC=11
005D90 0CFF 0CFF 0CFF 08463                         DT      B'11111111',B'11111111',B'11111111'     ;BTC=12
005D96 0CFF 0CFF 0CFF 08464                         DT      B'11111111',B'11111111',B'11111111'     ;BTC=13
005D9C 0CFF 0CFF 0CFF 08465                         DT      B'11111111',B'11111111',B'11111111'     ;BTC=14
005DA2 0CFF 0CFF 0CFF 08466                         DT      B'11111111',B'11111111',B'11111111'     ;BTC=15
005DA8 0CFF 0CFF 0CFF 08467                         DT      B'11111111',B'11111111',B'11111111'     ;BTC=16
005DAE 0CFF 0CFF 0CFF 08468                         DT      B'11111111',B'11111111',B'11111111'     ;BTC=17
005DB4 0CFF 0CFF 0CFF 08469                         DT      B'11111111',B'11111111',B'11111111'     ;BTC=18
005DBA 0CFF 0CFF 0CFF 08470                         DT      B'11111111',B'11111111',B'11111111'     ;BTC=19
005DC0 0CFF 0CFF 0CFF 08471                         DT      B'11111111',B'11111111',B'11111111'     ;BTC=1A
005DC6 0CFF 0CFF 0CFF 08472                         DT      B'11111111',B'11111111',B'11111111'     ;BTC=1B
005DCC 0CFF 0CFF 0CFF 08473                         DT      B'11111111',B'11111111',B'11111111'     ;BTC=1C
005DD2 0CFF 0CFF 0CFF 08474                         DT      B'11111111',B'11111111',B'11111111'     ;BTC=1D
005DD8 0CFF 0CFF 0CFF 08475                         DT      B'11111111',B'11111111',B'11111111'     ;BTC=1E
005DDE 0CFF 0CFF 0CFF 08476                         DT      B'11111111',B'11111111',B'11111111'     ;BTC=1F
                      08477 
                      08478 
Warning[205]: Found directive in column 1. (ORG)
005E00                08479 ORG 0X5E00
005E00                08480 FONT02H_CAP_SEMICOLON
005E00 0E00           08481         MOVLW   0
005E02 6EFB           08482         MOVWF   PCLATU,0
005E04 0E5E           08483         MOVLW   5E
005E06 6EFA           08484         MOVWF   PCLATH,0
                      08485 
                      08486         
                      08487 
                      08488         
005E08 C146 FFE8      08489                         MOVFF   BTCOUNT,WREG
005E0C 90D8           08490                         BCF             STATUS,C
005E0E 36E8           08491                         RLCF    WREG
                      08492 
                      08493                 
005E10 26F9           08494                         ADDWF   PCL,1,0
005E12 0CFF 0CFF 0CFF 08495                         DT      B'11111111',B'11111111',B'11111111'     ;BTC=00
005E18 0CFF 0CFF 0CFF 08496                         DT      B'11111111',B'11111111',B'11111111'     ;BTC=01
005E1E 0CFF 0CFF 0CFF 08497                         DT      B'11111111',B'11111111',B'11111111'     ;BTC=02
005E24 0CFF 0CFF 0CFF 08498                         DT      B'11111111',B'11111111',B'11111111'     ;BTC=03
005E2A 0CFF 0CFF 0CFF 08499                         DT      B'11111111',B'11111111',B'11111111'     ;BTC=04
005E30 0CFF 0CFF 0CFF 08500                         DT      B'11111111',B'11111111',B'11111111'     ;BTC=05
005E36 0CFF 0CFF 0CFF 08501                         DT      B'11111111',B'11111111',B'11111111'     ;BTC=06
005E3C 0CFF 0CFF 0CFF 08502                         DT      B'11111111',B'11111111',B'11111111'     ;BTC=07
005E42 0CFF 0CFF 0CFF 08503                         DT      B'11111111',B'11111111',B'11111111'     ;BTC=08
MPASM  5.51               20191125_RTCGPU.ASM   4-30-2024  22:19:12         PAGE 166


LOC  OBJECT CODE     LINE SOURCE TEXT
  VALUE

005E48 0CCF 0CFF 0CFF 08504                         DT      B'11001111',B'11111111',B'11111111'     ;BTC=09
005E4E 0CB7 0CFF 0CFF 08505                         DT      B'10110111',B'11111111',B'11111111'     ;BTC=0A
005E54 0C7B 0CFF 0CFF 08506                         DT      B'01111011',B'11111111',B'11111111'     ;BTC=0B
005E5A 0C03 0CFF 0CFF 08507                         DT      B'00000011',B'11111111',B'11111111'     ;BTC=0C
005E60 0C7B 0CFF 0CFF 08508                         DT      B'01111011',B'11111111',B'11111111'     ;BTC=0D
005E66 0C7B 0CFF 0CFF 08509                         DT      B'01111011',B'11111111',B'11111111'     ;BTC=0E
005E6C 0CFF 0CFF 0CFF 08510                         DT      B'11111111',B'11111111',B'11111111'     ;BTC=0F
                      08511 
                      08512 
                      08513 
005E72                08514 FONT02H_LOW_SEMICOLON
005E72 0E00           08515         MOVLW   0
005E74 6EFB           08516         MOVWF   PCLATU,0
005E76 0E5E           08517         MOVLW   5E
005E78 6EFA           08518         MOVWF   PCLATH,0
                      08519 
                      08520         
                      08521 
                      08522         
005E7A C146 FFE8      08523                         MOVFF   BTCOUNT,WREG
005E7E 90D8           08524                         BCF             STATUS,C
005E80 36E8           08525                         RLCF    WREG
                      08526 
                      08527                 
005E82 26F9           08528                         ADDWF   PCL,1,0
005E84 0CFF 0CFF 0CFF 08529                         DT      B'11111111',B'11111111',B'11111111'     ;BTC=00
005E8A 0CFF 0CFF 0CFF 08530                         DT      B'11111111',B'11111111',B'11111111'     ;BTC=01
005E90 0CFF 0CFF 0CFF 08531                         DT      B'11111111',B'11111111',B'11111111'     ;BTC=02
005E96 0CFF 0CFF 0CFF 08532                         DT      B'11111111',B'11111111',B'11111111'     ;BTC=03
005E9C 0CFF 0CFF 0CFF 08533                         DT      B'11111111',B'11111111',B'11111111'     ;BTC=04
005EA2 0CFF 0CFF 0CFF 08534                         DT      B'11111111',B'11111111',B'11111111'     ;BTC=05
005EA8 0CFF 0CFF 0CFF 08535                         DT      B'11111111',B'11111111',B'11111111'     ;BTC=06
005EAE 0CC7 0CFF 0CFF 08536                         DT      B'11000111',B'11111111',B'11111111'     ;BTC=07
005EB4 0C83 0CFF 0CFF 08537                         DT      B'10000011',B'11111111',B'11111111'     ;BTC=08
005EBA 0C83 0CFF 0CFF 08538                         DT      B'10000011',B'11111111',B'11111111'     ;BTC=09
005EC0 0C83 0CFF 0CFF 08539                         DT      B'10000011',B'11111111',B'11111111'     ;BTC=0A
005EC6 0CC7 0CFF 0CFF 08540                         DT      B'11000111',B'11111111',B'11111111'     ;BTC=0B
005ECC 0CFF 0CFF 0CFF 08541                         DT      B'11111111',B'11111111',B'11111111'     ;BTC=0C
005ED2 0CFF 0CFF 0CFF 08542                         DT      B'11111111',B'11111111',B'11111111'     ;BTC=0D
005ED8 0CFF 0CFF 0CFF 08543                         DT      B'11111111',B'11111111',B'11111111'     ;BTC=0E
005EDE 0CFF 0CFF 0CFF 08544                         DT      B'11111111',B'11111111',B'11111111'     ;BTC=0F
                      08545 
                      08546         
Warning[205]: Found directive in column 1. (ORG)
005F00                08547 ORG 0X5F00
005F00                08548 FONT02L_CAP_SEMICOLON
005F00 0E00           08549         MOVLW   0
005F02 6EFB           08550         MOVWF   PCLATU,0
005F04 0E5F           08551         MOVLW   5F
005F06 6EFA           08552         MOVWF   PCLATH,0
                      08553 
                      08554 
                      08555 
MPASM  5.51               20191125_RTCGPU.ASM   4-30-2024  22:19:12         PAGE 167


LOC  OBJECT CODE     LINE SOURCE TEXT
  VALUE

                      08556 
005F08 C146 FFE8      08557                         MOVFF   BTCOUNT,WREG
005F0C 90D8           08558                         BCF             STATUS,C
005F0E 36E8           08559                         RLCF    WREG
                      08560 
                      08561                 
005F10 26F9           08562                         ADDWF   PCL,1,0
005F12 0CFF 0CFF 0CFF 08563                         DT      B'11111111',B'11111111',B'11111111'     ;BTC=10
005F18 0CFF 0CFF 0CFF 08564                         DT      B'11111111',B'11111111',B'11111111'     ;BTC=11
005F1E 0CFF 0CFF 0CFF 08565                         DT      B'11111111',B'11111111',B'11111111'     ;BTC=12
005F24 0CFF 0CFF 0CFF 08566                         DT      B'11111111',B'11111111',B'11111111'     ;BTC=13
005F2A 0CFF 0CFF 0CFF 08567                         DT      B'11111111',B'11111111',B'11111111'     ;BTC=14
005F30 0CFF 0CFF 0CFF 08568                         DT      B'11111111',B'11111111',B'11111111'     ;BTC=15
005F36 0CFF 0CFF 0CFF 08569                         DT      B'11111111',B'11111111',B'11111111'     ;BTC=16
005F3C 0CFF 0CFF 0CFF 08570                         DT      B'11111111',B'11111111',B'11111111'     ;BTC=17
005F42 0CFF 0CFF 0CFF 08571                         DT      B'11111111',B'11111111',B'11111111'     ;BTC=18
005F48 0CFF 0CFF 0CFF 08572                         DT      B'11111111',B'11111111',B'11111111'     ;BTC=19
005F4E 0CFF 0CFF 0CFF 08573                         DT      B'11111111',B'11111111',B'11111111'     ;BTC=1A
005F54 0CFF 0CFF 0CFF 08574                         DT      B'11111111',B'11111111',B'11111111'     ;BTC=1B
005F5A 0CFF 0CFF 0CFF 08575                         DT      B'11111111',B'11111111',B'11111111'     ;BTC=1C
005F60 0CFF 0CFF 0CFF 08576                         DT      B'11111111',B'11111111',B'11111111'     ;BTC=1D
005F66 0CFF 0CFF 0CFF 08577                         DT      B'11111111',B'11111111',B'11111111'     ;BTC=1E
005F6C 0CFF 0CFF 0CFF 08578                         DT      B'11111111',B'11111111',B'11111111'     ;BTC=1F
                      08579 
005F72                08580 FONT02L_LOW_SEMICOLON
005F72 0E00           08581         MOVLW   0
005F74 6EFB           08582         MOVWF   PCLATU,0
005F76 0E5F           08583         MOVLW   5F
005F78 6EFA           08584         MOVWF   PCLATH,0
                      08585 
                      08586 
                      08587 
                      08588 
005F7A C146 FFE8      08589                         MOVFF   BTCOUNT,WREG
005F7E 90D8           08590                         BCF             STATUS,C
005F80 36E8           08591                         RLCF    WREG
                      08592 
                      08593                 
005F82 26F9           08594                         ADDWF   PCL,1,0
005F84 0CFF 0CFF 0CFF 08595                         DT      B'11111111',B'11111111',B'11111111'     ;BTC=10
005F8A 0CFF 0CFF 0CFF 08596                         DT      B'11111111',B'11111111',B'11111111'     ;BTC=11
005F90 0CFF 0CFF 0CFF 08597                         DT      B'11111111',B'11111111',B'11111111'     ;BTC=12
005F96 0CFF 0CFF 0CFF 08598                         DT      B'11111111',B'11111111',B'11111111'     ;BTC=13
005F9C 0CC7 0CFF 0CFF 08599                         DT      B'11000111',B'11111111',B'11111111'     ;BTC=14
005FA2 0C83 0CFF 0CFF 08600                         DT      B'10000011',B'11111111',B'11111111'     ;BTC=15
005FA8 0C83 0CFF 0CFF 08601                         DT      B'10000011',B'11111111',B'11111111'     ;BTC=16
005FAE 0C83 0CFF 0CFF 08602                         DT      B'10000011',B'11111111',B'11111111'     ;BTC=17
005FB4 0CC7 0CFF 0CFF 08603                         DT      B'11000111',B'11111111',B'11111111'     ;BTC=18
005FBA 0CCF 0CFF 0CFF 08604                         DT      B'11001111',B'11111111',B'11111111'     ;BTC=19
005FC0 0C9F 0CFF 0CFF 08605                         DT      B'10011111',B'11111111',B'11111111'     ;BTC=1A
005FC6 0CFF 0CFF 0CFF 08606                         DT      B'11111111',B'11111111',B'11111111'     ;BTC=1B
005FCC 0CFF 0CFF 0CFF 08607                         DT      B'11111111',B'11111111',B'11111111'     ;BTC=1C
005FD2 0CFF 0CFF 0CFF 08608                         DT      B'11111111',B'11111111',B'11111111'     ;BTC=1D
MPASM  5.51               20191125_RTCGPU.ASM   4-30-2024  22:19:12         PAGE 168


LOC  OBJECT CODE     LINE SOURCE TEXT
  VALUE

005FD8 0CFF 0CFF 0CFF 08609                         DT      B'11111111',B'11111111',B'11111111'     ;BTC=1E
005FDE 0CFF 0CFF 0CFF 08610                         DT      B'11111111',B'11111111',B'11111111'     ;BTC=1F
                      08611 
Warning[205]: Found directive in column 1. (ORG)
006000                08612 ORG 0X6000
006000                08613 FONT02H_CAP_COMMA
006000 0E00           08614         MOVLW   0
006002 6EFB           08615         MOVWF   PCLATU,0
006004 0E60           08616         MOVLW   60
006006 6EFA           08617         MOVWF   PCLATH,0
                      08618 
                      08619         
                      08620 
                      08621         
006008 C146 FFE8      08622                         MOVFF   BTCOUNT,WREG
00600C 90D8           08623                         BCF             STATUS,C
00600E 36E8           08624                         RLCF    WREG
                      08625 
                      08626                 
006010 26F9           08627                         ADDWF   PCL,1,0
006012 0CFF 0CFF 0CFF 08628                         DT      B'11111111',B'11111111',B'11111111'     ;BTC=00
006018 0CFF 0CFF 0CFF 08629                         DT      B'11111111',B'11111111',B'11111111'     ;BTC=01
00601E 0CFF 0CFF 0CFF 08630                         DT      B'11111111',B'11111111',B'11111111'     ;BTC=02
006024 0CFF 0CFF 0CFF 08631                         DT      B'11111111',B'11111111',B'11111111'     ;BTC=03
00602A 0CFF 0CFF 0CFF 08632                         DT      B'11111111',B'11111111',B'11111111'     ;BTC=04
006030 0CFF 0CFF 0CFF 08633                         DT      B'11111111',B'11111111',B'11111111'     ;BTC=05
006036 0CFF 0CFF 0CFF 08634                         DT      B'11111111',B'11111111',B'11111111'     ;BTC=06
00603C 0CFF 0CFF 0CFF 08635                         DT      B'11111111',B'11111111',B'11111111'     ;BTC=07
006042 0CFF 0CFF 0CFF 08636                         DT      B'11111111',B'11111111',B'11111111'     ;BTC=08
006048 0C07 0CFF 0CFF 08637                         DT      B'00000111',B'11111111',B'11111111'     ;BTC=09
00604E 0C7B 0CFF 0CFF 08638                         DT      B'01111011',B'11111111',B'11111111'     ;BTC=0A
006054 0C7B 0CFF 0CFF 08639                         DT      B'01111011',B'11111111',B'11111111'     ;BTC=0B
00605A 0C07 0CFF 0CFF 08640                         DT      B'00000111',B'11111111',B'11111111'     ;BTC=0C
006060 0C7F 0CFF 0CFF 08641                         DT      B'01111111',B'11111111',B'11111111'     ;BTC=0D
006066 0C7F 0CFF 0CFF 08642                         DT      B'01111111',B'11111111',B'11111111'     ;BTC=0E
00606C 0CFF 0CFF 0CFF 08643                         DT      B'11111111',B'11111111',B'11111111'     ;BTC=0F
                      08644 
006072                08645 FONT02H_LOW_COMMA
006072 0E00           08646         MOVLW   0
006074 6EFB           08647         MOVWF   PCLATU,0
006076 0E60           08648         MOVLW   60
006078 6EFA           08649         MOVWF   PCLATH,0
                      08650 
                      08651         
                      08652 
                      08653         
00607A C146 FFE8      08654                         MOVFF   BTCOUNT,WREG
00607E 90D8           08655                         BCF             STATUS,C
006080 36E8           08656                         RLCF    WREG
                      08657 
                      08658                 
006082 26F9           08659                         ADDWF   PCL,1,0
006084 0CFF 0CFF 0CFF 08660                         DT      B'11111111',B'11111111',B'11111111'     ;BTC=00
MPASM  5.51               20191125_RTCGPU.ASM   4-30-2024  22:19:12         PAGE 169


LOC  OBJECT CODE     LINE SOURCE TEXT
  VALUE

00608A 0CFF 0CFF 0CFF 08661                         DT      B'11111111',B'11111111',B'11111111'     ;BTC=01
006090 0CFF 0CFF 0CFF 08662                         DT      B'11111111',B'11111111',B'11111111'     ;BTC=02
006096 0CFF 0CFF 0CFF 08663                         DT      B'11111111',B'11111111',B'11111111'     ;BTC=03
00609C 0CFF 0CFF 0CFF 08664                         DT      B'11111111',B'11111111',B'11111111'     ;BTC=04
0060A2 0CFF 0CFF 0CFF 08665                         DT      B'11111111',B'11111111',B'11111111'     ;BTC=05
0060A8 0CFF 0CFF 0CFF 08666                         DT      B'11111111',B'11111111',B'11111111'     ;BTC=06
0060AE 0CFF 0CFF 0CFF 08667                         DT      B'11111111',B'11111111',B'11111111'     ;BTC=07
0060B4 0CFF 0CFF 0CFF 08668                         DT      B'11111111',B'11111111',B'11111111'     ;BTC=08
0060BA 0CFF 0CFF 0CFF 08669                         DT      B'11111111',B'11111111',B'11111111'     ;BTC=09
0060C0 0CFF 0CFF 0CFF 08670                         DT      B'11111111',B'11111111',B'11111111'     ;BTC=0A
0060C6 0CFF 0CFF 0CFF 08671                         DT      B'11111111',B'11111111',B'11111111'     ;BTC=0B
0060CC 0CFF 0CFF 0CFF 08672                         DT      B'11111111',B'11111111',B'11111111'     ;BTC=0C
0060D2 0CFF 0CFF 0CFF 08673                         DT      B'11111111',B'11111111',B'11111111'     ;BTC=0D
0060D8 0CFF 0CFF 0CFF 08674                         DT      B'11111111',B'11111111',B'11111111'     ;BTC=0E
0060DE 0CFF 0CFF 0CFF 08675                         DT      B'11111111',B'11111111',B'11111111'     ;BTC=0F
                      08676 
                      08677 
                      08678 
                      08679         
Warning[205]: Found directive in column 1. (ORG)
006100                08680 ORG 0X6100
006100                08681 FONT02L_CAP_COMMA
006100 0E00           08682         MOVLW   0
006102 6EFB           08683         MOVWF   PCLATU,0
006104 0E61           08684         MOVLW   61
006106 6EFA           08685         MOVWF   PCLATH,0
                      08686 
                      08687 
                      08688 
                      08689 
006108 C146 FFE8      08690                         MOVFF   BTCOUNT,WREG
00610C 90D8           08691                         BCF             STATUS,C
00610E 36E8           08692                         RLCF    WREG
                      08693 
                      08694                 
006110 26F9           08695                         ADDWF   PCL,1,0
006112 0CFF 0CFF 0CFF 08696                         DT      B'11111111',B'11111111',B'11111111'     ;BTC=10
006118 0CFF 0CFF 0CFF 08697                         DT      B'11111111',B'11111111',B'11111111'     ;BTC=11
00611E 0CFF 0CFF 0CFF 08698                         DT      B'11111111',B'11111111',B'11111111'     ;BTC=12
006124 0CFF 0CFF 0CFF 08699                         DT      B'11111111',B'11111111',B'11111111'     ;BTC=13
00612A 0CFF 0CFF 0CFF 08700                         DT      B'11111111',B'11111111',B'11111111'     ;BTC=14
006130 0CFF 0CFF 0CFF 08701                         DT      B'11111111',B'11111111',B'11111111'     ;BTC=15
006136 0CFF 0CFF 0CFF 08702                         DT      B'11111111',B'11111111',B'11111111'     ;BTC=16
00613C 0CFF 0CFF 0CFF 08703                         DT      B'11111111',B'11111111',B'11111111'     ;BTC=17
006142 0CFF 0CFF 0CFF 08704                         DT      B'11111111',B'11111111',B'11111111'     ;BTC=18
006148 0CFF 0CFF 0CFF 08705                         DT      B'11111111',B'11111111',B'11111111'     ;BTC=19
00614E 0CFF 0CFF 0CFF 08706                         DT      B'11111111',B'11111111',B'11111111'     ;BTC=1A
006154 0CFF 0CFF 0CFF 08707                         DT      B'11111111',B'11111111',B'11111111'     ;BTC=1B
00615A 0CFF 0CFF 0CFF 08708                         DT      B'11111111',B'11111111',B'11111111'     ;BTC=1C
006160 0CFF 0CFF 0CFF 08709                         DT      B'11111111',B'11111111',B'11111111'     ;BTC=1D
006166 0CFF 0CFF 0CFF 08710                         DT      B'11111111',B'11111111',B'11111111'     ;BTC=1E
00616C 0CFF 0CFF 0CFF 08711                         DT      B'11111111',B'11111111',B'11111111'     ;BTC=1F
                      08712 
MPASM  5.51               20191125_RTCGPU.ASM   4-30-2024  22:19:12         PAGE 170


LOC  OBJECT CODE     LINE SOURCE TEXT
  VALUE

006172                08713 FONT02L_LOW_COMMA
006172 0E00           08714         MOVLW   0
006174 6EFB           08715         MOVWF   PCLATU,0
006176 0E61           08716         MOVLW   61
006178 6EFA           08717         MOVWF   PCLATH,0
                      08718 
                      08719 
                      08720 
                      08721 
00617A C146 FFE8      08722                         MOVFF   BTCOUNT,WREG
00617E 90D8           08723                         BCF             STATUS,C
006180 36E8           08724                         RLCF    WREG
                      08725 
                      08726                 
006182 26F9           08727                         ADDWF   PCL,1,0
006184 0CFF 0CFF 0CFF 08728                         DT      B'11111111',B'11111111',B'11111111'     ;BTC=10
00618A 0CFF 0CFF 0CFF 08729                         DT      B'11111111',B'11111111',B'11111111'     ;BTC=11
006190 0CFF 0CFF 0CFF 08730                         DT      B'11111111',B'11111111',B'11111111'     ;BTC=12
006196 0CFF 0CFF 0CFF 08731                         DT      B'11111111',B'11111111',B'11111111'     ;BTC=13
00619C 0CFF 0CFF 0CFF 08732                         DT      B'11111111',B'11111111',B'11111111'     ;BTC=14
0061A2 0CFF 0CFF 0CFF 08733                         DT      B'11111111',B'11111111',B'11111111'     ;BTC=15
0061A8 0CFF 0CFF 0CFF 08734                         DT      B'11111111',B'11111111',B'11111111'     ;BTC=16
0061AE 0CFF 0CFF 0CFF 08735                         DT      B'11111111',B'11111111',B'11111111'     ;BTC=17
0061B4 0CFF 0CFF 0CFF 08736                         DT      B'11111111',B'11111111',B'11111111'     ;BTC=18
0061BA 0CC7 0CFF 0CFF 08737                         DT      B'11000111',B'11111111',B'11111111'     ;BTC=19
0061C0 0C83 0CFF 0CFF 08738                         DT      B'10000011',B'11111111',B'11111111'     ;BTC=1A
0061C6 0C83 0CFF 0CFF 08739                         DT      B'10000011',B'11111111',B'11111111'     ;BTC=1B
0061CC 0C83 0CFF 0CFF 08740                         DT      B'10000011',B'11111111',B'11111111'     ;BTC=1C
0061D2 0CC7 0CFF 0CFF 08741                         DT      B'11000111',B'11111111',B'11111111'     ;BTC=1D
0061D8 0CCF 0CFF 0CFF 08742                         DT      B'11001111',B'11111111',B'11111111'     ;BTC=1E
0061DE 0C9F 0CFF 0CFF 08743                         DT      B'10011111',B'11111111',B'11111111'     ;BTC=1F
                      08744 
                      08745 
Warning[205]: Found directive in column 1. (ORG)
006200                08746 ORG 0X6200
006200                08747 FONT02H_CAP_DOT
006200 0E00           08748         MOVLW   0
006202 6EFB           08749         MOVWF   PCLATU,0
006204 0E62           08750         MOVLW   62
006206 6EFA           08751         MOVWF   PCLATH,0
                      08752 
                      08753         
                      08754 
                      08755         
006208 C146 FFE8      08756                         MOVFF   BTCOUNT,WREG
00620C 90D8           08757                         BCF             STATUS,C
00620E 36E8           08758                         RLCF    WREG
                      08759 
                      08760                 
006210 26F9           08761                         ADDWF   PCL,1,0
006212 0CFF 0CFF 0CFF 08762                         DT      B'11111111',B'11111111',B'11111111'     ;BTC=00
006218 0CFF 0CFF 0CFF 08763                         DT      B'11111111',B'11111111',B'11111111'     ;BTC=01
00621E 0CFF 0CFF 0CFF 08764                         DT      B'11111111',B'11111111',B'11111111'     ;BTC=02
MPASM  5.51               20191125_RTCGPU.ASM   4-30-2024  22:19:12         PAGE 171


LOC  OBJECT CODE     LINE SOURCE TEXT
  VALUE

006224 0CFF 0CFF 0CFF 08765                         DT      B'11111111',B'11111111',B'11111111'     ;BTC=03
00622A 0CFF 0CFF 0CFF 08766                         DT      B'11111111',B'11111111',B'11111111'     ;BTC=04
006230 0CFF 0CFF 0CFF 08767                         DT      B'11111111',B'11111111',B'11111111'     ;BTC=05
006236 0CFF 0CFF 0CFF 08768                         DT      B'11111111',B'11111111',B'11111111'     ;BTC=06
00623C 0CFF 0CFF 0CFF 08769                         DT      B'11111111',B'11111111',B'11111111'     ;BTC=07
006242 0CFF 0CFF 0CFF 08770                         DT      B'11111111',B'11111111',B'11111111'     ;BTC=08
006248 0CFF 0CFF 0CFF 08771                         DT      B'11111111',B'11111111',B'11111111'     ;BTC=09
00624E 0CFF 0CFF 0CFF 08772                         DT      B'11111111',B'11111111',B'11111111'     ;BTC=0A
006254 0CFF 0CFF 0CFF 08773                         DT      B'11111111',B'11111111',B'11111111'     ;BTC=0B
00625A 0CFF 0CFF 0CFF 08774                         DT      B'11111111',B'11111111',B'11111111'     ;BTC=0C
006260 0CFF 0CFF 0CFF 08775                         DT      B'11111111',B'11111111',B'11111111'     ;BTC=0D
006266 0CFF 0CFF 0CFF 08776                         DT      B'11111111',B'11111111',B'11111111'     ;BTC=0E
00626C 0CFF 0CFF 0CFF 08777                         DT      B'11111111',B'11111111',B'11111111'     ;BTC=0F
                      08778 
006272                08779 FONT02H_LOW_DOT
006272 0E00           08780         MOVLW   0
006274 6EFB           08781         MOVWF   PCLATU,0
006276 0E62           08782         MOVLW   62
006278 6EFA           08783         MOVWF   PCLATH,0
                      08784 
                      08785         
                      08786 
                      08787         
00627A C146 FFE8      08788                         MOVFF   BTCOUNT,WREG
00627E 90D8           08789                         BCF             STATUS,C
006280 36E8           08790                         RLCF    WREG
                      08791 
                      08792                 
006282 26F9           08793                         ADDWF   PCL,1,0
006284 0CFF 0CFF 0CFF 08794                         DT      B'11111111',B'11111111',B'11111111'     ;BTC=00
00628A 0CFF 0CFF 0CFF 08795                         DT      B'11111111',B'11111111',B'11111111'     ;BTC=01
006290 0CFF 0CFF 0CFF 08796                         DT      B'11111111',B'11111111',B'11111111'     ;BTC=02
006296 0CFF 0CFF 0CFF 08797                         DT      B'11111111',B'11111111',B'11111111'     ;BTC=03
00629C 0CFF 0CFF 0CFF 08798                         DT      B'11111111',B'11111111',B'11111111'     ;BTC=04
0062A2 0CFF 0CFF 0CFF 08799                         DT      B'11111111',B'11111111',B'11111111'     ;BTC=05
0062A8 0CFF 0CFF 0CFF 08800                         DT      B'11111111',B'11111111',B'11111111'     ;BTC=06
0062AE 0CFF 0CFF 0CFF 08801                         DT      B'11111111',B'11111111',B'11111111'     ;BTC=07
0062B4 0CFF 0CFF 0CFF 08802                         DT      B'11111111',B'11111111',B'11111111'     ;BTC=08
0062BA 0CFF 0CFF 0CFF 08803                         DT      B'11111111',B'11111111',B'11111111'     ;BTC=09
0062C0 0CFF 0CFF 0CFF 08804                         DT      B'11111111',B'11111111',B'11111111'     ;BTC=0A
0062C6 0CFF 0CFF 0CFF 08805                         DT      B'11111111',B'11111111',B'11111111'     ;BTC=0B
0062CC 0CFF 0CFF 0CFF 08806                         DT      B'11111111',B'11111111',B'11111111'     ;BTC=0C
0062D2 0CFF 0CFF 0CFF 08807                         DT      B'11111111',B'11111111',B'11111111'     ;BTC=0D
0062D8 0CFF 0CFF 0CFF 08808                         DT      B'11111111',B'11111111',B'11111111'     ;BTC=0E
0062DE 0CFF 0CFF 0CFF 08809                         DT      B'11111111',B'11111111',B'11111111'     ;BTC=0F
                      08810 
                      08811 
                      08812 
                      08813         
Warning[205]: Found directive in column 1. (ORG)
006300                08814 ORG 0X6300
006300                08815 FONT02L_CAP_DOT
006300 0E00           08816         MOVLW   0
MPASM  5.51               20191125_RTCGPU.ASM   4-30-2024  22:19:12         PAGE 172


LOC  OBJECT CODE     LINE SOURCE TEXT
  VALUE

006302 6EFB           08817         MOVWF   PCLATU,0
006304 0E63           08818         MOVLW   63
006306 6EFA           08819         MOVWF   PCLATH,0
                      08820 
                      08821 
                      08822 
                      08823 
006308 C146 FFE8      08824                         MOVFF   BTCOUNT,WREG
00630C 90D8           08825                         BCF             STATUS,C
00630E 36E8           08826                         RLCF    WREG
                      08827 
                      08828                 
006310 26F9           08829                         ADDWF   PCL,1,0
                      08830 
006312 0CFF 0CFF 0CFF 08831                         DT      B'11111111',B'11111111',B'11111111'     ;BTC=10
006318 0CFF 0CF3 0CFF 08832                         DT      B'11111111',B'11110011',B'11111111'     ;BTC=11
00631E 0CF8 0C06 0C1F 08833                         DT      B'11111000',B'00000110',B'00011111'     ;BTC=12
006324 0CF0 0C0C 0C0F 08834                         DT      B'11110000',B'00001100',B'00001111'     ;BTC=13
00632A 0CE7 0C99 0CCF 08835                         DT      B'11100111',B'10011001',B'11001111'     ;BTC=14
006330 0CCF 0C33 0CCF 08836                         DT      B'11001111',B'00110011',B'11001111'     ;BTC=15
006336 0C9F 0CE7 0CCF 08837                         DT      B'10011111',B'11100111',B'11001111'     ;BTC=16
00633C 0C3C 0C01 0CCF 08838                         DT      B'00111100',B'00000001',B'11001111'     ;BTC=17
006342 0C38 0C03 0CCF 08839                         DT      B'00111000',B'00000011',B'11001111'     ;BTC=18
006348 0C3E 0C7F 0C9F 08840                         DT      B'00111110',B'01111111',B'10011111'     ;BTC=19
00634E 0C3C 0CCF 0C3F 08841                         DT      B'00111100',B'11001111',B'00111111'     ;BTC=1A
006354 0C01 0C9E 0C7F 08842                         DT      B'00000001',B'10011110',B'01111111'     ;BTC=1B
00635A 0C83 0C00 0CFF 08843                         DT      B'10000011',B'00000000',B'11111111'     ;BTC=1C
006360 0CFE 0C01 0CFF 08844                         DT      B'11111110',B'00000001',B'11111111'     ;BTC=1D
006366 0CFC 0CFF 0CFF 08845                         DT      B'11111100',B'11111111',B'11111111'     ;BTC=1E
00636C 0CFF 0CFF 0CFF 08846                         DT      B'11111111',B'11111111',B'11111111'     ;BTC=1F
                      08847 
                      08848 
006372                08849 FONT02L_LOW_DOT
006372 0E00           08850         MOVLW   0
006374 6EFB           08851         MOVWF   PCLATU,0
006376 0E63           08852         MOVLW   63
006378 6EFA           08853         MOVWF   PCLATH,0
                      08854 
                      08855 
                      08856 
                      08857 
00637A C146 FFE8      08858                         MOVFF   BTCOUNT,WREG
00637E 90D8           08859                         BCF             STATUS,C
006380 36E8           08860                         RLCF    WREG
                      08861 
                      08862                 
006382 26F9           08863                         ADDWF   PCL,1,0
006384 0CFF 0CFF 0CFF 08864                         DT      B'11111111',B'11111111',B'11111111'     ;BTC=10
00638A 0CFF 0CFF 0CFF 08865                         DT      B'11111111',B'11111111',B'11111111'     ;BTC=11
006390 0CFF 0CFF 0CFF 08866                         DT      B'11111111',B'11111111',B'11111111'     ;BTC=12
006396 0CFF 0CFF 0CFF 08867                         DT      B'11111111',B'11111111',B'11111111'     ;BTC=13
00639C 0CFF 0CFF 0CFF 08868                         DT      B'11111111',B'11111111',B'11111111'     ;BTC=14
0063A2 0CFF 0CFF 0CFF 08869                         DT      B'11111111',B'11111111',B'11111111'     ;BTC=15
MPASM  5.51               20191125_RTCGPU.ASM   4-30-2024  22:19:12         PAGE 173


LOC  OBJECT CODE     LINE SOURCE TEXT
  VALUE

0063A8 0CFF 0CFF 0CFF 08870                         DT      B'11111111',B'11111111',B'11111111'     ;BTC=16
0063AE 0CFF 0CFF 0CFF 08871                         DT      B'11111111',B'11111111',B'11111111'     ;BTC=17
0063B4 0CFF 0CFF 0CFF 08872                         DT      B'11111111',B'11111111',B'11111111'     ;BTC=18
0063BA 0CFF 0CFF 0CFF 08873                         DT      B'11111111',B'11111111',B'11111111'     ;BTC=19
0063C0 0CC7 0CFF 0CFF 08874                         DT      B'11000111',B'11111111',B'11111111'     ;BTC=1A
0063C6 0C83 0CFF 0CFF 08875                         DT      B'10000011',B'11111111',B'11111111'     ;BTC=1B
0063CC 0C83 0CFF 0CFF 08876                         DT      B'10000011',B'11111111',B'11111111'     ;BTC=1C
0063D2 0C83 0CFF 0CFF 08877                         DT      B'10000011',B'11111111',B'11111111'     ;BTC=1D
0063D8 0CC7 0CFF 0CFF 08878                         DT      B'11000111',B'11111111',B'11111111'     ;BTC=1E
0063DE 0CFF 0CFF 0CFF 08879                         DT      B'11111111',B'11111111',B'11111111'     ;BTC=1F
                      08880 
                      08881 
Warning[205]: Found directive in column 1. (ORG)
006400                08882 ORG 0X6400
006400                08883 FONT02H_CAP_SPACE
006400 0E00           08884         MOVLW   0
006402 6EFB           08885         MOVWF   PCLATU,0
006404 0E64           08886         MOVLW   64
006406 6EFA           08887         MOVWF   PCLATH,0
                      08888 
                      08889         
                      08890 
                      08891         
006408 C146 FFE8      08892                         MOVFF   BTCOUNT,WREG
00640C 90D8           08893                         BCF             STATUS,C
00640E 36E8           08894                         RLCF    WREG
                      08895 
                      08896                 
006410 26F9           08897                         ADDWF   PCL,1,0
006412 0CFF 0CFF 0CFF 08898                         DT      B'11111111',B'11111111',B'11111111'     ;BTC=00
006418 0CFF 0CFF 0CFF 08899                         DT      B'11111111',B'11111111',B'11111111'     ;BTC=01
00641E 0CFF 0CFF 0CFF 08900                         DT      B'11111111',B'11111111',B'11111111'     ;BTC=02
006424 0CFF 0CFF 0CFF 08901                         DT      B'11111111',B'11111111',B'11111111'     ;BTC=03
00642A 0CFF 0CFF 0CFF 08902                         DT      B'11111111',B'11111111',B'11111111'     ;BTC=04
006430 0CFF 0CFF 0CFF 08903                         DT      B'11111111',B'11111111',B'11111111'     ;BTC=05
006436 0CFF 0CFF 0CFF 08904                         DT      B'11111111',B'11111111',B'11111111'     ;BTC=06
00643C 0CFF 0CFF 0CFF 08905                         DT      B'11111111',B'11111111',B'11111111'     ;BTC=07
006442 0CFF 0CFF 0CFF 08906                         DT      B'11111111',B'11111111',B'11111111'     ;BTC=08
006448 0CFF 0CFF 0CFF 08907                         DT      B'11111111',B'11111111',B'11111111'     ;BTC=09
00644E 0CFF 0CFF 0CFF 08908                         DT      B'11111111',B'11111111',B'11111111'     ;BTC=0A
006454 0CFF 0CFF 0CFF 08909                         DT      B'11111111',B'11111111',B'11111111'     ;BTC=0B
00645A 0CFF 0CFF 0CFF 08910                         DT      B'11111111',B'11111111',B'11111111'     ;BTC=0C
006460 0CFF 0CFF 0CFF 08911                         DT      B'11111111',B'11111111',B'11111111'     ;BTC=0D
006466 0CFF 0CFF 0CFF 08912                         DT      B'11111111',B'11111111',B'11111111'     ;BTC=0E
00646C 0CFF 0CFF 0CFF 08913                         DT      B'11111111',B'11111111',B'11111111'     ;BTC=0F
                      08914 
                      08915 
                      08916         
Warning[205]: Found directive in column 1. (ORG)
006500                08917 ORG 0X6500
006500                08918 FONT02L_CAP_SPACE
006500 0E00           08919         MOVLW   0
006502 6EFB           08920         MOVWF   PCLATU,0
MPASM  5.51               20191125_RTCGPU.ASM   4-30-2024  22:19:12         PAGE 174


LOC  OBJECT CODE     LINE SOURCE TEXT
  VALUE

006504 0E65           08921         MOVLW   65
006506 6EFA           08922         MOVWF   PCLATH,0
                      08923 
                      08924 
                      08925 
                      08926 
006508 C146 FFE8      08927                         MOVFF   BTCOUNT,WREG
00650C 90D8           08928                         BCF             STATUS,C
00650E 36E8           08929                         RLCF    WREG
                      08930 
                      08931                 
006510 26F9           08932                         ADDWF   PCL,1,0
006512 0CFF 0CFF 0CFF 08933                         DT      B'11111111',B'11111111',B'11111111'     ;BTC=10
006518 0CFF 0CFF 0CFF 08934                         DT      B'11111111',B'11111111',B'11111111'     ;BTC=11
00651E 0CFF 0CFF 0CFF 08935                         DT      B'11111111',B'11111111',B'11111111'     ;BTC=12
006524 0CFF 0CFF 0CFF 08936                         DT      B'11111111',B'11111111',B'11111111'     ;BTC=13
00652A 0CFF 0CFF 0CFF 08937                         DT      B'11111111',B'11111111',B'11111111'     ;BTC=14
006530 0CFF 0CFF 0CFF 08938                         DT      B'11111111',B'11111111',B'11111111'     ;BTC=15
006536 0CFF 0CFF 0CFF 08939                         DT      B'11111111',B'11111111',B'11111111'     ;BTC=16
00653C 0CFF 0CFF 0CFF 08940                         DT      B'11111111',B'11111111',B'11111111'     ;BTC=17
006542 0CFF 0CFF 0CFF 08941                         DT      B'11111111',B'11111111',B'11111111'     ;BTC=18
006548 0CFF 0CFF 0CFF 08942                         DT      B'11111111',B'11111111',B'11111111'     ;BTC=19
00654E 0CFF 0CFF 0CFF 08943                         DT      B'11111111',B'11111111',B'11111111'     ;BTC=1A
006554 0CFF 0CFF 0CFF 08944                         DT      B'11111111',B'11111111',B'11111111'     ;BTC=1B
00655A 0CFF 0CFF 0CFF 08945                         DT      B'11111111',B'11111111',B'11111111'     ;BTC=1C
006560 0CFF 0CFF 0CFF 08946                         DT      B'11111111',B'11111111',B'11111111'     ;BTC=1D
006566 0CFF 0CFF 0CFF 08947                         DT      B'11111111',B'11111111',B'11111111'     ;BTC=1E
00656C 0CFF 0CFF 0CFF 08948                         DT      B'11111111',B'11111111',B'11111111'     ;BTC=1F
                      08949 
Warning[205]: Found directive in column 1. (ORG)
007000                08950 ORG 0X7000
                      08951 
007000                08952 FONT04H
                      08953 
007000 0E00           08954         MOVLW   0X00
007002 6EFB           08955         MOVWF   PCLATU,0
007004 0E70           08956         MOVLW   0X70
007006 6EFA           08957         MOVWF   PCLATH,0
                      08958 
                      08959 
                      08960 
007008 C148 FFE8      08961         MOVFF   NUMBER,WREG
                      08962 
                      08963 
                      08964 
00700C 90D8           08965         BCF             STATUS,C
00700E 34E8           08966         RLCF    WREG,0
007010 90D8           08967         BCF             STATUS,C
007012 34E8           08968         RLCF    WREG,0
                      08969 
007014 26F9           08970         ADDWF   PCL,1,0
                      08971 
                      08972         
MPASM  5.51               20191125_RTCGPU.ASM   4-30-2024  22:19:12         PAGE 175


LOC  OBJECT CODE     LINE SOURCE TEXT
  VALUE

007016 EF1F F038      08973         GOTO    FONT04H_ZERO            ;00
                      08974         
00701A EF30 F038      08975         GOTO    FONT04H_ONE                     ;01
                      08976 
00701E EF41 F038      08977         GOTO    FONT04H_TWO                     ;02
                      08978 
007022 EF52 F038      08979         GOTO    FONT04H_THREE           ;03
                      08980 
007026 EF63 F038      08981         GOTO    FONT04H_FOUR            ;04
                      08982 
00702A EF80 F038      08983         GOTO    FONT04H_FIVE            ;05
                      08984 
00702E EF91 F038      08985         GOTO    FONT04H_SIX                     ;06
                      08986 
007032 EFA2 F038      08987         GOTO    FONT04H_SEVEN           ;07
                      08988 
007036 EFB3 F038      08989         GOTO    FONT04H_EIGHT           ;08
                      08990 
00703A EFC4 F038      08991         GOTO    FONT04H_NINE            ;09
                      08992 
00703E                08993 FONT04H_ZERO
00703E 0E00           08994         MOVLW   0
007040 6EFB           08995         MOVWF   PCLATU,0
007042 0E70           08996         MOVLW   70
007044 6EFA           08997         MOVWF   PCLATH,0
                      08998 
                      08999 
007046 C146 FFE8      09000                         MOVFF   BTCOUNT,WREG
00704A 90D8           09001                         BCF             STATUS,C
00704C 36E8           09002                         RLCF    WREG
                      09003 
                      09004                 
00704E 26F9           09005                         ADDWF   PCL,1,0
007050 0CFF           09006                         DT      B'11111111'
007052 0C8F           09007                         DT      B'10001111'
007054 0C77           09008                         DT      B'01110111'
007056 0C77           09009                         DT      B'01110111'
007058 0C77           09010                         DT      B'01110111'
00705A 0C77           09011                         DT      B'01110111'
00705C 0C77           09012                         DT      B'01110111'
00705E 0C8F           09013                         DT      B'10001111'
                      09014 
                      09015 
                      09016 
007060                09017 FONT04H_ONE
007060 0E00           09018         MOVLW   0
007062 6EFB           09019         MOVWF   PCLATU,0
007064 0E70           09020         MOVLW   70
007066 6EFA           09021         MOVWF   PCLATH,0
                      09022 
                      09023 
007068 C146 FFE8      09024                         MOVFF   BTCOUNT,WREG
00706C 90D8           09025                         BCF             STATUS,C
MPASM  5.51               20191125_RTCGPU.ASM   4-30-2024  22:19:12         PAGE 176


LOC  OBJECT CODE     LINE SOURCE TEXT
  VALUE

00706E 36E8           09026                         RLCF    WREG
                      09027 
                      09028                 
007070 26F9           09029                         ADDWF   PCL,1,0
007072 0CFF           09030                         DT      B'11111111'
007074 0CDF           09031                         DT      B'11011111'
007076 0C9F           09032                         DT      B'10011111'
007078 0CDF           09033                         DT      B'11011111'
00707A 0CDF           09034                         DT      B'11011111'
00707C 0CDF           09035                         DT      B'11011111'
00707E 0CDF           09036                         DT      B'11011111'
007080 0C8F           09037                         DT      B'10001111'
                      09038 
                      09039 
                      09040 
007082                09041 FONT04H_TWO
007082 0E00           09042         MOVLW   0
007084 6EFB           09043         MOVWF   PCLATU,0
007086 0E70           09044         MOVLW   70
007088 6EFA           09045         MOVWF   PCLATH,0
                      09046 
                      09047 
00708A C146 FFE8      09048                         MOVFF   BTCOUNT,WREG
00708E 90D8           09049                         BCF             STATUS,C
007090 36E8           09050                         RLCF    WREG
                      09051 
                      09052                 
007092 26F9           09053                         ADDWF   PCL,1,0
007094 0CFF           09054                         DT      B'11111111'
007096 0C8F           09055                         DT      B'10001111'
007098 0C77           09056                         DT      B'01110111'
00709A 0CF7           09057                         DT      B'11110111'
00709C 0CEF           09058                         DT      B'11101111'
00709E 0CDF           09059                         DT      B'11011111'
0070A0 0CBF           09060                         DT      B'10111111'
0070A2 0C07           09061                         DT      B'00000111'
                      09062 
                      09063 
0070A4                09064 FONT04H_THREE
0070A4 0E00           09065         MOVLW   0
0070A6 6EFB           09066         MOVWF   PCLATU,0
0070A8 0E70           09067         MOVLW   70
0070AA 6EFA           09068         MOVWF   PCLATH,0
                      09069 
                      09070 
0070AC C146 FFE8      09071                         MOVFF   BTCOUNT,WREG
0070B0 90D8           09072                         BCF             STATUS,C
0070B2 36E8           09073                         RLCF    WREG
                      09074 
                      09075                 
0070B4 26F9           09076                         ADDWF   PCL,1,0
0070B6 0CFF           09077                         DT      B'11111111'
0070B8 0C07           09078                         DT      B'00000111'
MPASM  5.51               20191125_RTCGPU.ASM   4-30-2024  22:19:12         PAGE 177


LOC  OBJECT CODE     LINE SOURCE TEXT
  VALUE

0070BA 0CF7           09079                         DT      B'11110111'
0070BC 0CEF           09080                         DT      B'11101111'
0070BE 0CCF           09081                         DT      B'11001111'
0070C0 0CF7           09082                         DT      B'11110111'
0070C2 0C77           09083                         DT      B'01110111'
0070C4 0C8F           09084                         DT      B'10001111'
                      09085 
                      09086 
0070C6                09087 FONT04H_FOUR
0070C6 0E00           09088         MOVLW   0
0070C8 6EFB           09089         MOVWF   PCLATU,0
0070CA 0E70           09090         MOVLW   70
0070CC 6EFA           09091         MOVWF   PCLATH,0
                      09092 
                      09093 
0070CE C146 FFE8      09094                         MOVFF   BTCOUNT,WREG
0070D2 90D8           09095                         BCF             STATUS,C
0070D4 36E8           09096                         RLCF    WREG
                      09097 
                      09098                 
0070D6 26F9           09099                         ADDWF   PCL,1,0
0070D8 0CFF           09100                         DT      B'11111111'
0070DA 0CEF           09101                         DT      B'11101111'
0070DC 0CCF           09102                         DT      B'11001111'
0070DE 0CAF           09103                         DT      B'10101111'
0070E0 0C6F           09104                         DT      B'01101111'
0070E2 0C07           09105                         DT      B'00000111'
0070E4 0CEF           09106                         DT      B'11101111'
0070E6 0CEF           09107                         DT      B'11101111'
                      09108 
                      09109 
Warning[205]: Found directive in column 1. (ORG)
007100                09110 ORG 0X7100
                      09111 
007100                09112 FONT04H_FIVE
007100 0E00           09113         MOVLW   0
007102 6EFB           09114         MOVWF   PCLATU,0
007104 0E71           09115         MOVLW   71
007106 6EFA           09116         MOVWF   PCLATH,0
                      09117 
                      09118 
007108 C146 FFE8      09119                         MOVFF   BTCOUNT,WREG
00710C 90D8           09120                         BCF             STATUS,C
00710E 36E8           09121                         RLCF    WREG
                      09122 
                      09123                 
007110 26F9           09124                         ADDWF   PCL,1,0
007112 0CFF           09125                         DT      B'11111111'
007114 0C07           09126                         DT      B'00000111'
007116 0C7F           09127                         DT      B'01111111'
007118 0C0F           09128                         DT      B'00001111'
00711A 0CF7           09129                         DT      B'11110111'
00711C 0CF7           09130                         DT      B'11110111'
MPASM  5.51               20191125_RTCGPU.ASM   4-30-2024  22:19:12         PAGE 178


LOC  OBJECT CODE     LINE SOURCE TEXT
  VALUE

00711E 0C77           09131                         DT      B'01110111'
007120 0C8F           09132                         DT      B'10001111'
                      09133 
                      09134 
007122                09135 FONT04H_SIX
007122 0E00           09136         MOVLW   0
007124 6EFB           09137         MOVWF   PCLATU,0
007126 0E71           09138         MOVLW   71
007128 6EFA           09139         MOVWF   PCLATH,0
                      09140 
                      09141 
00712A C146 FFE8      09142                         MOVFF   BTCOUNT,WREG
00712E 90D8           09143                         BCF             STATUS,C
007130 36E8           09144                         RLCF    WREG
                      09145 
                      09146                 
007132 26F9           09147                         ADDWF   PCL,1,0
007134 0CFF           09148                         DT      B'11111111'
007136 0C8F           09149                         DT      B'10001111'
007138 0C77           09150                         DT      B'01110111'
00713A 0C7F           09151                         DT      B'01111111'
00713C 0C0F           09152                         DT      B'00001111'
00713E 0C77           09153                         DT      B'01110111'
007140 0C77           09154                         DT      B'01110111'
007142 0C8F           09155                         DT      B'10001111'
                      09156 
007144                09157 FONT04H_SEVEN
007144 0E00           09158         MOVLW   0
007146 6EFB           09159         MOVWF   PCLATU,0
007148 0E71           09160         MOVLW   71
00714A 6EFA           09161         MOVWF   PCLATH,0
                      09162 
                      09163 
00714C C146 FFE8      09164                         MOVFF   BTCOUNT,WREG
007150 90D8           09165                         BCF             STATUS,C
007152 36E8           09166                         RLCF    WREG
                      09167 
                      09168                 
007154 26F9           09169                         ADDWF   PCL,1,0
007156 0CFF           09170                         DT      B'11111111'
007158 0C07           09171                         DT      B'00000111'
00715A 0CF7           09172                         DT      B'11110111'
00715C 0CEF           09173                         DT      B'11101111'
00715E 0CDF           09174                         DT      B'11011111'
007160 0CBF           09175                         DT      B'10111111'
007162 0CBF           09176                         DT      B'10111111'
007164 0CBF           09177                         DT      B'10111111'
                      09178 
007166                09179 FONT04H_EIGHT
007166 0E00           09180         MOVLW   0
007168 6EFB           09181         MOVWF   PCLATU,0
00716A 0E71           09182         MOVLW   71
00716C 6EFA           09183         MOVWF   PCLATH,0
MPASM  5.51               20191125_RTCGPU.ASM   4-30-2024  22:19:12         PAGE 179


LOC  OBJECT CODE     LINE SOURCE TEXT
  VALUE

                      09184 
                      09185 
00716E C146 FFE8      09186                         MOVFF   BTCOUNT,WREG
007172 90D8           09187                         BCF             STATUS,C
007174 36E8           09188                         RLCF    WREG
                      09189 
                      09190                 
007176 26F9           09191                         ADDWF   PCL,1,0
007178 0CFF           09192                         DT      B'11111111'
00717A 0C8F           09193                         DT      B'10001111'
00717C 0C77           09194                         DT      B'01110111'
00717E 0C77           09195                         DT      B'01110111'
007180 0C8F           09196                         DT      B'10001111'
007182 0C77           09197                         DT      B'01110111'
007184 0C77           09198                         DT      B'01110111'
007186 0C8F           09199                         DT      B'10001111'
                      09200 
007188                09201 FONT04H_NINE
007188 0E00           09202         MOVLW   0
00718A 6EFB           09203         MOVWF   PCLATU,0
00718C 0E71           09204         MOVLW   71
00718E 6EFA           09205         MOVWF   PCLATH,0
                      09206 
                      09207 
007190 C146 FFE8      09208                         MOVFF   BTCOUNT,WREG
007194 90D8           09209                         BCF             STATUS,C
007196 36E8           09210                         RLCF    WREG
                      09211 
                      09212                 
007198 26F9           09213                         ADDWF   PCL,1,0
00719A 0CFF           09214                         DT      B'11111111'
00719C 0C8F           09215                         DT      B'10001111'
00719E 0C77           09216                         DT      B'01110111'
0071A0 0C77           09217                         DT      B'01110111'
0071A2 0C87           09218                         DT      B'10000111'
0071A4 0CF7           09219                         DT      B'11110111'
0071A6 0C77           09220                         DT      B'01110111'
0071A8 0C8F           09221                         DT      B'10001111'
                      09222 
                      09223 
Warning[205]: Found directive in column 1. (ORG)
007200                09224 ORG 0X7200
                      09225 
007200                09226 FONT06H
                      09227 
007200 0E00           09228         MOVLW   0X00
007202 6EFB           09229         MOVWF   PCLATU,0
007204 0E72           09230         MOVLW   0X72
007206 6EFA           09231         MOVWF   PCLATH,0
                      09232 
                      09233 
                      09234 
007208 C148 FFE8      09235         MOVFF   NUMBER,WREG
MPASM  5.51               20191125_RTCGPU.ASM   4-30-2024  22:19:12         PAGE 180


LOC  OBJECT CODE     LINE SOURCE TEXT
  VALUE

                      09236 
                      09237 
                      09238 
00720C 90D8           09239         BCF             STATUS,C
00720E 34E8           09240         RLCF    WREG,0
007210 90D8           09241         BCF             STATUS,C
007212 34E8           09242         RLCF    WREG,0
                      09243 
007214 26F9           09244         ADDWF   PCL,1,0
                      09245 
                      09246         
007216 EF23 F039      09247         GOTO    FONT06H_ZERO            ;00
                      09248         
00721A EF3C F039      09249         GOTO    FONT06H_ONE                     ;01
                      09250 
00721E EF55 F039      09251         GOTO    FONT06H_TWO                     ;02
                      09252 
007222 EF80 F039      09253         GOTO    FONT06H_THREE           ;03
                      09254 
007226 EF99 F039      09255         GOTO    FONT06H_FOUR            ;04
                      09256 
00722A EFB2 F039      09257         GOTO    FONT06H_FIVE            ;05
                      09258 
00722E EFCB F039      09259         GOTO    FONT06H_SIX                     ;06
                      09260 
007232 EFE4 F039      09261         GOTO    FONT06H_SEVEN           ;07
                      09262 
007236 EF00 F03A      09263         GOTO    FONT06H_EIGHT           ;08
                      09264 
00723A EF19 F03A      09265         GOTO    FONT06H_NINE            ;09
                      09266 
00723E EF32 F03A      09267         GOTO    FONT06H_DASH            ;0A
                      09268 
007242 EF4B F03A      09269         GOTO    FONT06H_DOT                     ;0B
                      09270 
007246                09271 FONT06H_ZERO
007246 0E00           09272         MOVLW   0
007248 6EFB           09273         MOVWF   PCLATU,0
00724A 0E72           09274         MOVLW   72
00724C 6EFA           09275         MOVWF   PCLATH,0
                      09276 
                      09277 
                      09278 
00724E C146 FFE8      09279                         MOVFF   BTCOUNT,WREG
007252 90D8           09280                         BCF             STATUS,C
007254 36E8           09281                         RLCF    WREG
                      09282 
                      09283                 
007256 26F9           09284                         ADDWF   PCL,1,0
                      09285 
007258 0CFF           09286                         DT      B'11111111'
00725A 0CC7           09287                         DT      B'11000111'
00725C 0C83           09288                         DT      B'10000011'
MPASM  5.51               20191125_RTCGPU.ASM   4-30-2024  22:19:12         PAGE 181


LOC  OBJECT CODE     LINE SOURCE TEXT
  VALUE

00725E 0C11           09289                         DT      B'00010001'
007260 0C39           09290                         DT      B'00111001'
007262 0C39           09291                         DT      B'00111001'
007264 0C39           09292                         DT      B'00111001'
007266 0C39           09293                         DT      B'00111001'
007268 0C39           09294                         DT      B'00111001'
00726A 0C39           09295                         DT      B'00111001'
00726C 0C39           09296                         DT      B'00111001'
00726E 0C39           09297                         DT      B'00111001'
007270 0C11           09298                         DT      B'00010001'
007272 0C83           09299                         DT      B'10000011'
007274 0CC7           09300                         DT      B'11000111'
007276 0CFF           09301                         DT      B'11111111'
                      09302 
                      09303 
007278                09304 FONT06H_ONE
007278 0E00           09305         MOVLW   0
00727A 6EFB           09306         MOVWF   PCLATU,0
00727C 0E72           09307         MOVLW   72
00727E 6EFA           09308         MOVWF   PCLATH,0
                      09309 
                      09310 
007280 C146 FFE8      09311                         MOVFF   BTCOUNT,WREG
007284 90D8           09312                         BCF             STATUS,C
007286 36E8           09313                         RLCF    WREG
                      09314 
                      09315                 
007288 26F9           09316                         ADDWF   PCL,1,0
                      09317 
00728A 0CFF           09318                         DT      B'11111111'
00728C 0CCF           09319                         DT      B'11001111'
00728E 0CCF           09320                         DT      B'11001111'
007290 0C8F           09321                         DT      B'10001111'
007292 0C0F           09322                         DT      B'00001111'
007294 0C4F           09323                         DT      B'01001111'
007296 0CCF           09324                         DT      B'11001111'
007298 0CCF           09325                         DT      B'11001111'
00729A 0CCF           09326                         DT      B'11001111'
00729C 0CCF           09327                         DT      B'11001111'
00729E 0CCF           09328                         DT      B'11001111'
0072A0 0CCF           09329                         DT      B'11001111'
0072A2 0CCF           09330                         DT      B'11001111'
0072A4 0C03           09331                         DT      B'00000011'
0072A6 0C03           09332                         DT      B'00000011'
0072A8 0CFF           09333                         DT      B'11111111'
                      09334 
                      09335 
0072AA                09336 FONT06H_TWO
0072AA 0E00           09337         MOVLW   0
0072AC 6EFB           09338         MOVWF   PCLATU,0
0072AE 0E72           09339         MOVLW   72
0072B0 6EFA           09340         MOVWF   PCLATH,0
                      09341 
MPASM  5.51               20191125_RTCGPU.ASM   4-30-2024  22:19:12         PAGE 182


LOC  OBJECT CODE     LINE SOURCE TEXT
  VALUE

                      09342 
0072B2 C146 FFE8      09343                         MOVFF   BTCOUNT,WREG
0072B6 90D8           09344                         BCF             STATUS,C
0072B8 36E8           09345                         RLCF    WREG
                      09346 
                      09347                 
0072BA 26F9           09348                         ADDWF   PCL,1,0
                      09349 
0072BC 0CFF           09350                         DT      B'11111111'
0072BE 0C87           09351                         DT      B'10000111'
0072C0 0C03           09352                         DT      B'00000011'
0072C2 0C31           09353                         DT      B'00110001'
0072C4 0C79           09354                         DT      B'01111001'
0072C6 0CF9           09355                         DT      B'11111001'
0072C8 0CF9           09356                         DT      B'11111001'
0072CA 0CF1           09357                         DT      B'11110001'
0072CC 0C83           09358                         DT      B'10000011'
0072CE 0C07           09359                         DT      B'00000111'
0072D0 0C3F           09360                         DT      B'00111111'
0072D2 0C3D           09361                         DT      B'00111101'
0072D4 0C39           09362                         DT      B'00111001'
0072D6 0C01           09363                         DT      B'00000001'
0072D8 0C01           09364                         DT      B'00000001'
0072DA 0CFF           09365                         DT      B'11111111'
                      09366 
Warning[205]: Found directive in column 1. (ORG)
007300                09367 ORG     0X7300
                      09368 
007300                09369 FONT06H_THREE
007300 0E00           09370         MOVLW   0
007302 6EFB           09371         MOVWF   PCLATU,0
007304 0E73           09372         MOVLW   73
007306 6EFA           09373         MOVWF   PCLATH,0
                      09374 
                      09375 
007308 C146 FFE8      09376                         MOVFF   BTCOUNT,WREG
00730C 90D8           09377                         BCF             STATUS,C
00730E 36E8           09378                         RLCF    WREG
                      09379 
                      09380                 
007310 26F9           09381                         ADDWF   PCL,1,0
007312 0CFF           09382                         DT      B'11111111'
007314 0C87           09383                         DT      B'10000111'
007316 0C03           09384                         DT      B'00000011'
007318 0C31           09385                         DT      B'00110001'
00731A 0C79           09386                         DT      B'01111001'
00731C 0CF9           09387                         DT      B'11111001'
00731E 0CF1           09388                         DT      B'11110001'
007320 0CC3           09389                         DT      B'11000011'
007322 0CC3           09390                         DT      B'11000011'
007324 0CF1           09391                         DT      B'11110001'
007326 0CF9           09392                         DT      B'11111001'
007328 0C79           09393                         DT      B'01111001'
MPASM  5.51               20191125_RTCGPU.ASM   4-30-2024  22:19:12         PAGE 183


LOC  OBJECT CODE     LINE SOURCE TEXT
  VALUE

00732A 0C31           09394                         DT      B'00110001'
00732C 0C03           09395                         DT      B'00000011'
00732E 0C87           09396                         DT      B'10000111'
007330 0CFF           09397                         DT      B'11111111'
                      09398 
007332                09399 FONT06H_FOUR
007332 0E00           09400         MOVLW   0
007334 6EFB           09401         MOVWF   PCLATU,0
007336 0E73           09402         MOVLW   73
007338 6EFA           09403         MOVWF   PCLATH,0
                      09404 
                      09405 
00733A C146 FFE8      09406                         MOVFF   BTCOUNT,WREG
00733E 90D8           09407                         BCF             STATUS,C
007340 36E8           09408                         RLCF    WREG
                      09409 
                      09410                 
007342 26F9           09411                         ADDWF   PCL,1,0
007344 0CFF           09412                         DT      B'11111111'
007346 0CFD           09413                         DT      B'11111101'
007348 0CF9           09414                         DT      B'11111001'
00734A 0CE9           09415                         DT      B'11101001'
00734C 0CC9           09416                         DT      B'11001001'
00734E 0CC9           09417                         DT      B'11001001'
007350 0C99           09418                         DT      B'10011001'
007352 0C39           09419                         DT      B'00111001'
007354 0C39           09420                         DT      B'00111001'
007356 0C01           09421                         DT      B'00000001'
007358 0C01           09422                         DT      B'00000001'
00735A 0CF9           09423                         DT      B'11111001'
00735C 0CF9           09424                         DT      B'11111001'
00735E 0CF9           09425                         DT      B'11111001'
007360 0CF9           09426                         DT      B'11111001'
007362 0CFF           09427                         DT      B'11111111'
                      09428 
007364                09429 FONT06H_FIVE
007364 0E00           09430         MOVLW   0
007366 6EFB           09431         MOVWF   PCLATU,0
007368 0E73           09432         MOVLW   73
00736A 6EFA           09433         MOVWF   PCLATH,0
                      09434 
                      09435 
00736C C146 FFE8      09436                         MOVFF   BTCOUNT,WREG
007370 90D8           09437                         BCF             STATUS,C
007372 36E8           09438                         RLCF    WREG
                      09439 
                      09440                 
007374 26F9           09441                         ADDWF   PCL,1,0
007376 0CFF           09442                         DT      B'11111111'
007378 0C01           09443                         DT      B'00000001'
00737A 0C01           09444                         DT      B'00000001'
00737C 0C39           09445                         DT      B'00111001'
00737E 0C3B           09446                         DT      B'00111011'
MPASM  5.51               20191125_RTCGPU.ASM   4-30-2024  22:19:12         PAGE 184


LOC  OBJECT CODE     LINE SOURCE TEXT
  VALUE

007380 0C3F           09447                         DT      B'00111111'
007382 0C07           09448                         DT      B'00000111'
007384 0C03           09449                         DT      B'00000011'
007386 0CF1           09450                         DT      B'11110001'
007388 0CF9           09451                         DT      B'11111001'
00738A 0CF9           09452                         DT      B'11111001'
00738C 0C79           09453                         DT      B'01111001'
00738E 0C31           09454                         DT      B'00110001'
007390 0C03           09455                         DT      B'00000011'
007392 0C87           09456                         DT      B'10000111'
007394 0CFF           09457                         DT      B'11111111'
                      09458 
007396                09459 FONT06H_SIX
007396 0E00           09460         MOVLW   0
007398 6EFB           09461         MOVWF   PCLATU,0
00739A 0E73           09462         MOVLW   73
00739C 6EFA           09463         MOVWF   PCLATH,0
                      09464 
                      09465 
00739E C146 FFE8      09466                         MOVFF   BTCOUNT,WREG
0073A2 90D8           09467                         BCF             STATUS,C
0073A4 36E8           09468                         RLCF    WREG
                      09469 
                      09470                 
0073A6 26F9           09471                         ADDWF   PCL,1,0
0073A8 0CFF           09472                         DT      B'11111111'
0073AA 0CC7           09473                         DT      B'11000111'
0073AC 0C83           09474                         DT      B'10000011'
0073AE 0C11           09475                         DT      B'00010001'
0073B0 0C39           09476                         DT      B'00111001'
0073B2 0C3F           09477                         DT      B'00111111'
0073B4 0C3F           09478                         DT      B'00111111'
0073B6 0C27           09479                         DT      B'00100111'
0073B8 0C03           09480                         DT      B'00000011'
0073BA 0C11           09481                         DT      B'00010001'
0073BC 0C39           09482                         DT      B'00111001'
0073BE 0C39           09483                         DT      B'00111001'
0073C0 0C11           09484                         DT      B'00010001'
0073C2 0C83           09485                         DT      B'10000011'
0073C4 0CC7           09486                         DT      B'11000111'
0073C6 0CFF           09487                         DT      B'11111111'
                      09488 
                      09489 
0073C8                09490 FONT06H_SEVEN
0073C8 0E00           09491         MOVLW   0
0073CA 6EFB           09492         MOVWF   PCLATU,0
0073CC 0E73           09493         MOVLW   73
0073CE 6EFA           09494         MOVWF   PCLATH,0
                      09495 
                      09496 
0073D0 C146 FFE8      09497                         MOVFF   BTCOUNT,WREG
0073D4 90D8           09498                         BCF             STATUS,C
0073D6 36E8           09499                         RLCF    WREG
MPASM  5.51               20191125_RTCGPU.ASM   4-30-2024  22:19:12         PAGE 185


LOC  OBJECT CODE     LINE SOURCE TEXT
  VALUE

                      09500 
                      09501                 
0073D8 26F9           09502                         ADDWF   PCL,1,0
0073DA 0CFF           09503                         DT      B'11111111'
0073DC 0C01           09504                         DT      B'00000001'
0073DE 0C01           09505                         DT      B'00000001'
0073E0 0C39           09506                         DT      B'00111001'
0073E2 0C79           09507                         DT      B'01111001'
0073E4 0CF9           09508                         DT      B'11111001'
0073E6 0CF9           09509                         DT      B'11111001'
0073E8 0CF3           09510                         DT      B'11110011'
0073EA 0CE7           09511                         DT      B'11100111'
0073EC 0CCF           09512                         DT      B'11001111'
0073EE 0CCF           09513                         DT      B'11001111'
0073F0 0CCF           09514                         DT      B'11001111'
0073F2 0CCF           09515                         DT      B'11001111'
0073F4 0CCF           09516                         DT      B'11001111'
0073F6 0CCF           09517                         DT      B'11001111'
0073F8 0CFF           09518                         DT      B'11111111'
                      09519 
                      09520 
                      09521 
                      09522 
Warning[205]: Found directive in column 1. (ORG)
007400                09523 ORG     0X7400
                      09524 
007400                09525 FONT06H_EIGHT
007400 0E00           09526         MOVLW   0
007402 6EFB           09527         MOVWF   PCLATU,0
007404 0E74           09528         MOVLW   74
007406 6EFA           09529         MOVWF   PCLATH,0
                      09530 
                      09531 
007408 C146 FFE8      09532                         MOVFF   BTCOUNT,WREG
00740C 90D8           09533                         BCF             STATUS,C
00740E 36E8           09534                         RLCF    WREG
                      09535 
                      09536                 
007410 26F9           09537                         ADDWF   PCL,1,0
007412 0CFF           09538                         DT      B'11111111'
007414 0CC7           09539                         DT      B'11000111'
007416 0C83           09540                         DT      B'10000011'
007418 0C11           09541                         DT      B'00010001'
00741A 0C39           09542                         DT      B'00111001'
00741C 0C39           09543                         DT      B'00111001'
00741E 0C93           09544                         DT      B'10010011'
007420 0CC7           09545                         DT      B'11000111'
007422 0C93           09546                         DT      B'10010011'
007424 0C39           09547                         DT      B'00111001'
007426 0C39           09548                         DT      B'00111001'
007428 0C39           09549                         DT      B'00111001'
00742A 0C11           09550                         DT      B'00010001'
00742C 0C83           09551                         DT      B'10000011'
MPASM  5.51               20191125_RTCGPU.ASM   4-30-2024  22:19:12         PAGE 186


LOC  OBJECT CODE     LINE SOURCE TEXT
  VALUE

00742E 0CC7           09552                         DT      B'11000111'
007430 0CFF           09553                         DT      B'11111111'
                      09554 
007432                09555 FONT06H_NINE
007432 0E00           09556         MOVLW   0
007434 6EFB           09557         MOVWF   PCLATU,0
007436 0E74           09558         MOVLW   74
007438 6EFA           09559         MOVWF   PCLATH,0
                      09560 
                      09561 
00743A C146 FFE8      09562                         MOVFF   BTCOUNT,WREG
00743E 90D8           09563                         BCF             STATUS,C
007440 36E8           09564                         RLCF    WREG
                      09565 
                      09566                 
007442 26F9           09567                         ADDWF   PCL,1,0
007444 0CFF           09568                         DT      B'11111111'
007446 0CC7           09569                         DT      B'11000111'
007448 0C83           09570                         DT      B'10000011'
00744A 0C11           09571                         DT      B'00010001'
00744C 0C39           09572                         DT      B'00111001'
00744E 0C39           09573                         DT      B'00111001'
007450 0C39           09574                         DT      B'00111001'
007452 0C11           09575                         DT      B'00010001'
007454 0C81           09576                         DT      B'10000001'
007456 0CC9           09577                         DT      B'11001001'
007458 0CF9           09578                         DT      B'11111001'
00745A 0C39           09579                         DT      B'00111001'
00745C 0C11           09580                         DT      B'00010001'
00745E 0C83           09581                         DT      B'10000011'
007460 0CC7           09582                         DT      B'11000111'
007462 0CFF           09583                         DT      B'11111111'
                      09584 
007464                09585 FONT06H_DASH
007464 0E00           09586         MOVLW   0
007466 6EFB           09587         MOVWF   PCLATU,0
007468 0E74           09588         MOVLW   74
00746A 6EFA           09589         MOVWF   PCLATH,0
                      09590 
                      09591 
00746C C146 FFE8      09592                         MOVFF   BTCOUNT,WREG
007470 90D8           09593                         BCF             STATUS,C
007472 36E8           09594                         RLCF    WREG
                      09595 
                      09596                 
007474 26F9           09597                         ADDWF   PCL,1,0
007476 0CFF           09598                         DT      B'11111111'
007478 0CFF           09599                         DT      B'11111111'
00747A 0CFF           09600                         DT      B'11111111'
00747C 0CFF           09601                         DT      B'11111111'
00747E 0CFF           09602                         DT      B'11111111'
007480 0CFF           09603                         DT      B'11111111'
007482 0CFF           09604                         DT      B'11111111'
MPASM  5.51               20191125_RTCGPU.ASM   4-30-2024  22:19:12         PAGE 187


LOC  OBJECT CODE     LINE SOURCE TEXT
  VALUE

007484 0C1F           09605                         DT      B'00011111';
007486 0C1F           09606                         DT      B'00011111';
007488 0CFF           09607                         DT      B'11111111'
00748A 0CFF           09608                         DT      B'11111111'
00748C 0CFF           09609                         DT      B'11111111'
00748E 0CFF           09610                         DT      B'11111111'
007490 0CFF           09611                         DT      B'11111111'
007492 0CFF           09612                         DT      B'11111111'
007494 0CFF           09613                         DT      B'11111111'
                      09614 
                      09615 
007496                09616 FONT06H_DOT
007496 0E00           09617         MOVLW   0
007498 6EFB           09618         MOVWF   PCLATU,0
00749A 0E74           09619         MOVLW   74
00749C 6EFA           09620         MOVWF   PCLATH,0
                      09621 
                      09622 
00749E C146 FFE8      09623                         MOVFF   BTCOUNT,WREG
0074A2 90D8           09624                         BCF             STATUS,C
0074A4 36E8           09625                         RLCF    WREG
                      09626 
                      09627                 
0074A6 26F9           09628                         ADDWF   PCL,1,0
0074A8 0CFF           09629                         DT      B'11111111'
0074AA 0CFF           09630                         DT      B'11111111'
0074AC 0CFF           09631                         DT      B'11111111'
0074AE 0CFF           09632                         DT      B'11111111'
0074B0 0CFF           09633                         DT      B'11111111'
0074B2 0CFF           09634                         DT      B'11111111'
0074B4 0C9F           09635                         DT      B'10011111'
0074B6 0C0F           09636                         DT      B'00001111';
0074B8 0C0F           09637                         DT      B'00001111';
0074BA 0C9F           09638                         DT      B'10011111'
0074BC 0CFF           09639                         DT      B'11111111'
0074BE 0CFF           09640                         DT      B'11111111'
0074C0 0CFF           09641                         DT      B'11111111'
0074C2 0CFF           09642                         DT      B'11111111'
0074C4 0CFF           09643                         DT      B'11111111'
0074C6 0CFF           09644                         DT      B'11111111'
                      09645 
                      09646 
                      09647 
                      09648 
Warning[205]: Found directive in column 1. (ORG)
008000                09649 ORG     0X8000
008000                09650 WIDTH_CHECK
                      09651 
008000 0E00           09652         MOVLW   0
008002 6EFB           09653         MOVWF   PCLATU,0
008004 0E80           09654         MOVLW   80
008006 6EFA           09655         MOVWF   PCLATH,0
                      09656 
MPASM  5.51               20191125_RTCGPU.ASM   4-30-2024  22:19:12         PAGE 188


LOC  OBJECT CODE     LINE SOURCE TEXT
  VALUE

                      09657 
                      09658 
                      09659 
008008 CFEF FFE8      09660                         MOVFF   INDF0,WREG
00800C 90D8           09661                         BCF             STATUS,C
00800E 36E8           09662                         RLCF    WREG
                      09663 
                      09664                 
008010 26F9           09665                         ADDWF   PCL,1,0
                      09666 
                      09667 
                      09668 ;=================== UPPERCASE CHARACTERS =====================
008012 0C15           09669                 DT      15      ;CODE   =       00              CHAR    =       A
008014 0C15           09670                 DT      15      ;CODE   =       01              CHAR    =       B
008016 0C15           09671                 DT      15      ;CODE   =       02              CHAR    =       C
008018 0C15           09672                 DT      15      ;CODE   =       03              CHAR    =       D
00801A 0C15           09673                 DT      15      ;CODE   =       04              CHAR    =       E
00801C 0C15           09674                 DT      15      ;CODE   =       05              CHAR    =       F
00801E 0C15           09675                 DT      15      ;CODE   =       06              CHAR    =       G
008020 0C15           09676                 DT      15      ;CODE   =       07              CHAR    =       H
008022 0C11           09677                 DT      11      ;CODE   =       08              CHAR    =       I
008024 0C15           09678                 DT      15      ;CODE   =       09              CHAR    =       J
008026 0C15           09679                 DT      15      ;CODE   =       0A              CHAR    =       K
008028 0C10           09680                 DT      10      ;CODE   =       0B              CHAR    =       L
00802A 0C15           09681                 DT      15      ;CODE   =       0C              CHAR    =       M
00802C 0C15           09682                 DT      15      ;CODE   =       0D              CHAR    =       N
00802E 0C15           09683                 DT      15      ;CODE   =       0E              CHAR    =       O
008030 0C15           09684                 DT      15      ;CODE   =       0F              CHAR    =       P
008032 0C15           09685                 DT      15      ;CODE   =       10              CHAR    =       Q
008034 0C15           09686                 DT      15      ;CODE   =       11              CHAR    =       R
008036 0C15           09687                 DT      15      ;CODE   =       12              CHAR    =       S
008038 0C14           09688                 DT      14      ;CODE   =       13              CHAR    =       T
00803A 0C15           09689                 DT      15      ;CODE   =       14              CHAR    =       U
00803C 0C15           09690                 DT      15      ;CODE   =       15              CHAR    =       V
00803E 0C15           09691                 DT      15      ;CODE   =       16              CHAR    =       W
008040 0C15           09692                 DT      15      ;CODE   =       17              CHAR    =       X
008042 0C15           09693                 DT      15      ;CODE   =       18              CHAR    =       Y
008044 0C15           09694                 DT      15      ;CODE   =       19              CHAR    =       Z
008046 0C0B           09695                 DT      0B      ;CODE   =       1A              CHAR    =       0
008048 0C09           09696                 DT      09      ;CODE   =       1B              CHAR    =       1
00804A 0C15           09697                 DT      15      ;CODE   =       1C              CHAR    =       2
00804C 0C15           09698                 DT      15      ;CODE   =       1D              CHAR    =       3
00804E 0C15           09699                 DT      15      ;CODE   =       1E              CHAR    =       4
008050 0C15           09700                 DT      15      ;CODE   =       1F              CHAR    =       5
008052 0C15           09701                 DT      15      ;CODE   =       20              CHAR    =       6
008054 0C15           09702                 DT      15      ;CODE   =       21              CHAR    =       7
008056 0C15           09703                 DT      15      ;CODE   =       22              CHAR    =       8
008058 0C15           09704                 DT      15      ;CODE   =       23              CHAR    =       9
00805A 0C15           09705                 DT      15      ;CODE   =       24              CHAR    =       ENYE
00805C 0C0D           09706                 DT      0D      ;CODE   =       25              CHAR    =       DASH
00805E 0C05           09707                 DT      05      ;CODE   =       26              CHAR    =       COLON 
008060 0C09           09708                 DT      09      ;CODE   =       27              CHAR    =       SEMICOLON
008062 0C09           09709                 DT      09      ;CODE   =       28              CHAR    =       COMMA
MPASM  5.51               20191125_RTCGPU.ASM   4-30-2024  22:19:12         PAGE 189


LOC  OBJECT CODE     LINE SOURCE TEXT
  VALUE

008064 0C09           09710                 DT      09      ;CODE   =       29              CHAR    =       DOT     
008066 0C13           09711                 DT      13      ;CODE   =       2A              CHAR    =       SPACE
                      09712 ;==============================================================
008068 0C15           09713                 DT      15      ;CODE   =       2B              CHAR    =       EMPTY
00806A 0C15           09714                 DT      15      ;CODE   =       2C              CHAR    =       EMPTY
00806C 0C15           09715                 DT      15      ;CODE   =       2D              CHAR    =       EMPTY
00806E 0C15           09716                 DT      15      ;CODE   =       2E              CHAR    =       EMPTY
008070 0C15           09717                 DT      15      ;CODE   =       2F              CHAR    =       EMPTY
                      09718 
                      09719 ;=================== LOWERCASE CHARACTERS =====================
008072 0C12           09720                 DT      12      ;CODE   =       30              CHAR    =       A
008074 0C12           09721                 DT      12      ;CODE   =       31              CHAR    =       B
008076 0C12           09722                 DT      12      ;CODE   =       32              CHAR    =       C
008078 0C12           09723                 DT      12      ;CODE   =       33              CHAR    =       D
00807A 0C12           09724                 DT      12      ;CODE   =       34              CHAR    =       E
00807C 0C0F           09725                 DT      0F      ;CODE   =       35              CHAR    =       F
00807E 0C12           09726                 DT      12      ;CODE   =       36              CHAR    =       G
008080 0C11           09727                 DT      11      ;CODE   =       37              CHAR    =       H
008082 0C05           09728                 DT      05      ;CODE   =       38              CHAR    =       I
008084 0C11           09729                 DT      11      ;CODE   =       39              CHAR    =       J
008086 0C0D           09730                 DT      0D      ;CODE   =       3A              CHAR    =       K
008088 0C05           09731                 DT      05      ;CODE   =       3B              CHAR    =       L
00808A 0C13           09732                 DT      13      ;CODE   =       3C              CHAR    =       M
00808C 0C12           09733                 DT      12      ;CODE   =       3D              CHAR    =       N
00808E 0C12           09734                 DT      12      ;CODE   =       3E              CHAR    =       O
008090 0C12           09735                 DT      12      ;CODE   =       3F              CHAR    =       P
008092 0C13           09736                 DT      13      ;CODE   =       40              CHAR    =       Q
008094 0C0E           09737                 DT      0E      ;CODE   =       41              CHAR    =       R
008096 0C0E           09738                 DT      0E      ;CODE   =       42              CHAR    =       S
008098 0C0F           09739                 DT      0F      ;CODE   =       43              CHAR    =       T
00809A 0C12           09740                 DT      12      ;CODE   =       44              CHAR    =       U
00809C 0C12           09741                 DT      12      ;CODE   =       45              CHAR    =       V
00809E 0C13           09742                 DT      13      ;CODE   =       46              CHAR    =       W
0080A0 0C12           09743                 DT      12      ;CODE   =       47              CHAR    =       X
0080A2 0C12           09744                 DT      12      ;CODE   =       48              CHAR    =       Y
0080A4 0C12           09745                 DT      12      ;CODE   =       49              CHAR    =       Z
0080A6 0C0B           09746                 DT      0B      ;CODE   =       4A              CHAR    =       0
0080A8 0C09           09747                 DT      09      ;CODE   =       4B              CHAR    =       1
0080AA 0C0C           09748                 DT      0C      ;CODE   =       4C              CHAR    =       2
0080AC 0C15           09749                 DT      15      ;CODE   =       4D              CHAR    =       3
0080AE 0C15           09750                 DT      15      ;CODE   =       4E              CHAR    =       4
0080B0 0C15           09751                 DT      15      ;CODE   =       4F              CHAR    =       5
0080B2 0C15           09752                 DT      15      ;CODE   =       50              CHAR    =       6
0080B4 0C15           09753                 DT      15      ;CODE   =       51              CHAR    =       7
0080B6 0C15           09754                 DT      15      ;CODE   =       52              CHAR    =       8
0080B8 0C15           09755                 DT      15      ;CODE   =       53              CHAR    =       9
0080BA 0C12           09756                 DT      12      ;CODE   =       54              CHAR    =       ENYE
0080BC 0C09           09757                 DT      09      ;CODE   =       55              CHAR    =       DASH
0080BE 0C05           09758                 DT      05      ;CODE   =       56              CHAR    =       COLON
0080C0 0C07           09759                 DT      07      ;CODE   =       57              CHAR    =       SEMICOLON
0080C2 0C07           09760                 DT      07      ;CODE   =       58              CHAR    =       COMMA
0080C4 0C07           09761                 DT      07      ;CODE   =       59              CHAR    =       DOT     
0080C6 0C10           09762                 DT      10      ;CODE   =       5A              CHAR    =       SPACE
MPASM  5.51               20191125_RTCGPU.ASM   4-30-2024  22:19:12         PAGE 190


LOC  OBJECT CODE     LINE SOURCE TEXT
  VALUE

                      09763 ;==============================================================
0080C8 0C12           09764                 DT      12      ;CODE   =       5B              CHAR    =       EMPTY
0080CA 0C12           09765                 DT      12      ;CODE   =       5C              CHAR    =       EMPTY
0080CC 0C12           09766                 DT      12      ;CODE   =       5D              CHAR    =       EMPTY
0080CE 0C12           09767                 DT      12      ;CODE   =       5E              CHAR    =       EMPTY
0080D0 0C12           09768                 DT      12      ;CODE   =       5F              CHAR    =       EMPTY
                      09769 ;==============================================================
0080D2 0C00           09770                 DT      00      ;CODE   =       60              SPACE   =       00
0080D4 0C01           09771                 DT      01      ;CODE   =       61              SPACE   =       01
0080D6 0C02           09772                 DT      02      ;CODE   =       62              SPACE   =       02
0080D8 0C03           09773                 DT      03      ;CODE   =       63              SPACE   =       03
0080DA 0C04           09774                 DT      04      ;CODE   =       64              SPACE   =       04
0080DC 0C05           09775                 DT      05      ;CODE   =       66              SPACE   =       05
0080DE 0C06           09776                 DT      06      ;CODE   =       65              SPACE   =       06
0080E0 0C07           09777                 DT      07      ;CODE   =       67              SPACE   =       07
0080E2 0C08           09778                 DT      08      ;CODE   =       68              SPACE   =       08
0080E4 0C09           09779                 DT      09      ;CODE   =       68              SPACE   =       09
0080E6 0C0A           09780                 DT      0A      ;CODE   =       68              SPACE   =       0A
0080E8 0C0B           09781                 DT      0B      ;CODE   =       68              SPACE   =       0B
0080EA 0C0C           09782                 DT      0C      ;CODE   =       68              SPACE   =       0C
0080EC 0C0D           09783                 DT      0D      ;CODE   =       68              SPACE   =       0D
0080EE 0C0E           09784                 DT      0E      ;CODE   =       68              SPACE   =       0E
0080F0 0C0F           09785                 DT      0F      ;CODE   =       68              SPACE   =       0F
                      09786 
                      09787 
                      09788 
                      09789 
                      09790 
                      09791 
                      09792 
                      09793 
Warning[205]: Found directive in column 1. (ORG)
009000                09794 ORG     0X9000
                      09795 
                      09796 
                      09797 ;=================== EEPROM DATA TO COMMAND MEMORY ====================
                      09798 ;EEPROM DATA READ MOVE TO COMMAND MEMORY
009000                09799 DATATRANS_EEPROM_TO_CMD
009000 0E00           09800                 MOVLW 0
009002 6EAA           09801                 MOVWF EEADRH            ; UPPER BITS OF DATA MEMORY ADDRESS TO WRITE
009004 0E00           09802                 MOVLW 0
009006 6EA9           09803                 MOVWF EEADR             ; LOWER BITS OF DATA MEMORY ADDRESS TO WRITE
                      09804 
009008 0E03           09805                 MOVLW   0X03
00900A 6EEA           09806                 MOVWF   FSR0H   ;COMMAND MEMORY
00900C 0E00           09807                 MOVLW   0X00
00900E 6EE9           09808                 MOVWF   FSR0L   ;COMMAND MEMORY
                      09809 
009010                09810 DTR_EECMD0
009010 9EA6           09811                 BCF     EECON1, EEPGD ; POINT TO DATA MEMORY
009012 9CA6           09812                 BCF     EECON1, CFGS ; ACCESS EEPROM
009014 80A6           09813                 BSF             EECON1, RD ; EEPROM READ
009016 CFA8 F16C      09814                 MOVFF   EEDATA,W_TEMP
MPASM  5.51               20191125_RTCGPU.ASM   4-30-2024  22:19:12         PAGE 191


LOC  OBJECT CODE     LINE SOURCE TEXT
  VALUE

                      09815 
00901A 0EFE           09816                 MOVLW   0XFE
00901C 636C           09817                 CPFSEQ  W_TEMP
00901E EF13 F048      09818                 GOTO    DTR_EECMD1
009022 EF1A F048      09819                 GOTO    DTR_EECMD_EXIT
                      09820 
009026                09821 DTR_EECMD1
009026 CFA8 FFEF      09822                 MOVFF   EEDATA,INDF0
00902A 2AE9           09823                 INCF    FSR0L
00902C 2AA9           09824                 INCF    EEADR
00902E EF08 F048      09825                 GOTO    DTR_EECMD0
009032 0000           09826                 NOP
009034                09827 DTR_EECMD_EXIT
009034 CFA8 FFEF      09828                 MOVFF   EEDATA,INDF0
                      09829 
Warning[203]: Found opcode in column 1. (RETURN)
009038 0012           09830 RETURN
                      09831 ;====================================================================
                      09832 
                      09833 
                      09834 
                      09835 ;======================= EEPROM READ DATA ==========================
00903A                09836 EEPROM_DATAREAD
Warning[203]: Found opcode in column 1. (RETURN)
00903A 0012           09837 RETURN
                      09838 ;====================================================================
                      09839 
                      09840 
                      09841 
                      09842 
                      09843 ;=================== COMMAND MEMORY TO EEPROM DATA ====================
                      09844 ;COMMAND DATA MOVE TO EEPROM DATA
00903C                09845 DATATRANS_CMD_TO_EEPROM
00903C 0E00           09846                 MOVLW 0
00903E 6EAA           09847                 MOVWF EEADRH            ; UPPER BITS OF DATA MEMORY ADDRESS TO WRITE
009040 0E00           09848                 MOVLW 0
009042 6EA9           09849                 MOVWF EEADR             ; LOWER BITS OF DATA MEMORY ADDRESS TO WRITE
                      09850 
009044 0E03           09851                 MOVLW   0X03
009046 6EEA           09852                 MOVWF   FSR0H   ;COMMAND MEMORY
009048 0E00           09853                 MOVLW   0X00
00904A 6EE9           09854                 MOVWF   FSR0L   ;COMMAND MEMORY
                      09855 
00904C                09856 DTR_CMDEE0
00904C CFEF F16C      09857                 MOVFF   INDF0,W_TEMP
                      09858 
                      09859 
009050 0EFF           09860                 MOVLW   .255
009052 636C           09861                 CPFSEQ  W_TEMP
009054 EF2D F048      09862                 GOTO    DTR_CMDEE1
009058 0012           09863                 RETURN
                      09864 
00905A                09865 DTR_CMDEE1
MPASM  5.51               20191125_RTCGPU.ASM   4-30-2024  22:19:12         PAGE 192


LOC  OBJECT CODE     LINE SOURCE TEXT
  VALUE

00905A CFEF FFA8      09866                 MOVFF   INDF0,EEDATA            ;CMD MEMORY
                      09867                                                                         ;ADDR= FSR0H,FSR0L
                      09868                                                                         ;MOVE TO EEPROM DATA
                      09869                                                                         ;ADDR= EEADRH,EEADR
00905E EC36 F048      09870                 CALL    EEPROM_DATAWRITE
009062 2AE9           09871                 INCF    FSR0L
009064 2AA9           09872                 INCF    EEADR
009066 EF26 F048      09873                 GOTO    DTR_CMDEE0
                      09874 
Warning[203]: Found opcode in column 1. (RETURN)
00906A 0012           09875 RETURN
                      09876 ;======================================================================
                      09877 
                      09878 ;======================= EEPROM WRITE DATA ============================
00906C                09879 EEPROM_DATAWRITE
                      09880 
00906C 9EA6           09881                 BCF     EECON1, 7               ;EPGD   ; POINT TO DATA MEMORY
00906E 9CA6           09882                 BCF     EECON1, 6               ;CFGS   ; ACCESS EEPROM
009070 84A6           09883                 BSF     EECON1, 2               ;WREN   ; ENABLE WRITES
                      09884 
009072 9EF2           09885                 BCF     INTCON, GIE     ; DISABLE INTERRUPTS
009074 0E55           09886                 MOVLW   55H ;
009076 6EA7           09887                 MOVWF   EECON2                  ; WRITE 55H
009078 0EAA           09888                 MOVLW   0AAH
00907A 6EA7           09889                 MOVWF   EECON2                  ; WRITE 0AAH
                      09890 
00907C 82A6           09891                 BSF     EECON1, 1;WR    ; SET WR BIT TO BEGIN WRITE
00907E 8EF2           09892                 BSF     INTCON, GIE     ; ENABLE INTERRUPTS
                      09893                                                                 ; USER CODE EXECUTION
009080 94A6           09894                 BCF     EECON1, 2;WREN  ; DISABLE WRITES ON WRITE COMPLETE (EEIF SET)
                      09895 
009082                09896 EEDWR0
009082 B2A6           09897                 BTFSC   EECON1, 1
009084 EF41 F048      09898                 GOTO    EEDWR0  
009088 0000           09899                 NOP
                      09900 
Warning[203]: Found opcode in column 1. (RETURN)
00908A 0012           09901 RETURN
                      09902 ;====================================================================
                      09903 
                      09904 
Warning[205]: Found directive in column 1. (END)
                      09905 END
MPASM  5.51               20191125_RTCGPU.ASM   4-30-2024  22:19:12         PAGE 193


SYMBOL TABLE
  LABEL                             VALUE 

A                                 00000000
ABDEN                             00000000
ABDOVF                            00000007
ACCESS                            00000000
ACKDT                             00000005
ACKEN                             00000004
ACKSTAT                           00000006
ACQT0                             00000003
ACQT1                             00000004
ACQT2                             00000005
ADCON0                            00000FC2
ADCON1                            00000FC1
ADCON2                            00000FC0
ADCS0                             00000000
ADCS1                             00000001
ADCS2                             00000002
ADDEN                             00000003
ADEN                              00000003
ADFM                              00000007
ADIE                              00000006
ADIF                              00000006
ADIP                              00000006
ADON                              00000000
ADRES                             00000FC3
ADRESH                            00000FC4
ADRESL                            00000FC3
AMPM                              00000192
AN10                              00000001
AN11                              00000004
AN12                              00000000
AN4                               00000005
AN5                               00000000
AN6                               00000001
AN7                               00000002
AN8                               00000002
AN9                               00000003
BANKED                            00000001
BAUDCON                           00000FB8
BAUDCTL                           00000FB8
BCLIE                             00000003
BCLIF                             00000003
BCLIP                             00000003
BF                                00000000
BGST                              00000005
BLINK                             00000198
BOR                               00000000
BRD0                              0000B0F4
BRD1                              0000B108
BRG16                             00000003
BRGH                              00000002
BRH0                              0000B0C2
BRH1                              0000B0D6
BRM0                              0000B090
MPASM  5.51               20191125_RTCGPU.ASM   4-30-2024  22:19:12         PAGE 194


SYMBOL TABLE
  LABEL                             VALUE 

BRM1                              0000B0A4
BRMO0                             0000B126
BRMO1                             0000B13A
BRS0                              0000B05E
BRS1                              0000B072
BR_DATE                           0000B0E2
BR_HOUR                           0000B0B0
BR_MIN                            0000B07E
BR_MON                            0000B114
BR_SAVEANDWRITE                   0000B146
BR_SEC                            0000B04C
BSR                               00000FE0
BSR_TEMP                          0000016E
BTCOUNT                           00000146
BUT0                              0000B022
BUT1                              0000B03A
BUT2                              0000B03C
BUTTON_ROUTINE                    0000B000
BUT_CONT                          0000B046
C                                 00000000
C1INV                             00000004
C1OUT                             00000006
C2INV                             00000005
C2OUT                             00000007
CCOUNT                            00000161
CCP1                              00000002
CCP1CON                           00000FBD
CCP1IE                            00000002
CCP1IF                            00000002
CCP1IP                            00000002
CCP1M0                            00000000
CCP1M1                            00000001
CCP1M2                            00000002
CCP1M3                            00000003
CCP1X                             00000005
CCP1Y                             00000004
CCP2CON                           00000FBA
CCP2IE                            00000000
CCP2IF                            00000000
CCP2IP                            00000000
CCP2M0                            00000000
CCP2M1                            00000001
CCP2M2                            00000002
CCP2M3                            00000003
CCP2X                             00000005
CCP2Y                             00000004
CCP2_PORTB                        00000003
CCP2_PORTC                        00000001
CCPR1                             00000FBE
CCPR1H                            00000FBF
CCPR1L                            00000FBE
CCPR2                             00000FBB
CCPR2H                            00000FBC
MPASM  5.51               20191125_RTCGPU.ASM   4-30-2024  22:19:12         PAGE 195


SYMBOL TABLE
  LABEL                             VALUE 

CCPR2L                            00000FBB
CFGS                              00000006
CFSRLOOP                          00000164
CHARFSRH                          00000168
CHARFSRL                          00000169
CHS0                              00000002
CHS1                              00000003
CHS2                              00000004
CHS3                              00000005
CIS                               00000003
CK                                00000006
CKE                               00000006
CKP                               00000004
CLK_OFF                           BCF     LATD,5,0
CLK_ON                            BSF     LATD,5,0
CLR0                              000003A2
CLR_RAM                           00000392
CM0                               00000000
CM1                               00000001
CM2                               00000002
CMCON                             00000FB4
CMD0                              0000034C
CMD64                             00000362
CMDD                              0000035C
CMDG127                           00000370
CMDG127C                          0000037C
CMD_MEMORY                        00000300
CMD_SUB                           000002EE
CMD_SUB0                          00000312
CMD_SUB1                          00000322
CMD_SUB2                          0000032E
CMIE                              00000006
CMIF                              00000006
CMIP                              00000006
COLOR                             00000147
COLORA                            0000015E
COLORM                            00000200
COLOR_FSRH                        0000015F
COLOR_FSRL                        00000160
COMMAND                           00000172
COUNT0                            00000142
COUNT1                            00000143
COUNT2                            00000144
CREN                              00000004
CS                                00000002
CSRBIT                            00000163
CSRC                              00000007
CSRHBYTE                          00000165
CURSORX                           0000014C
CURSORX_TEMP                      0000014E
CURSORX_TEST                      00000904
CURSORY                           0000014D
CVR0                              00000000
MPASM  5.51               20191125_RTCGPU.ASM   4-30-2024  22:19:12         PAGE 196


SYMBOL TABLE
  LABEL                             VALUE 

CVR1                              00000001
CVR2                              00000002
CVR3                              00000003
CVRCON                            00000FB5
CVREN                             00000007
CVROE                             00000006
CVRR                              00000005
CVRSS                             00000004
CX08                              0000090C
CX16                              0000091E
CX24                              00000934
CX32                              0000094A
CX40                              00000960
CX48                              00000976
CX56                              0000098C
CX64                              000009A0
CXGE16                            0000092C
CXGE24                            00000942
CXGE32                            00000958
CXGE40                            0000096E
CXGE48                            00000984
CXGE56                            0000099A
CXGE8                             00000916
D                                 00000005
DATAINRAM                         00000540
DATAREG                           000003C0
DATAREGSUB                        000003D0
DATATRANS_CMD_TO_EEPROM           0000903C
DATATRANS_EEPROM_TO_CMD           00009000
DATEN0                            0000B366
DATEN0_T_DEC                      0000B380
DATEN0_T_INC                      0000B378
DATET0                            0000B342
DATET0_T_DEC                      0000B35C
DATET0_T_INC                      0000B34E
DATET3                            0000B388
DATET3_DEC                        0000B3A4
DATET3_INC                        0000B39A
DATE_O                            00000191
DATE_O_CON                        0000B32E
DATE_T                            00000190
DC                                00000001
DC1B0                             00000004
DC1B1                             00000005
DC2B0                             00000004
DC2B1                             00000005
DDISP                             000000F6
DDRA                              TRISA
DDRB                              TRISB
DDRC                              TRISC
DDRD                              TRISD
DDRE                              TRISE
DELAYMS                           00000171
MPASM  5.51               20191125_RTCGPU.ASM   4-30-2024  22:19:12         PAGE 197


SYMBOL TABLE
  LABEL                             VALUE 

DELAYS                            00000173
DELAYUS                           00000170
DELAY_MS                          0000A334
DELAY_ONEMS                       0000A322
DELAY_ONESEC                      0000A342
DELAY_SEC                         0000A354
DELAY_US                          0000A310
DIR0                              00000558
DIR1                              00000572
DIR2A                             00000602
DIR2B                             0000062C
DIR2BA                            00000640
DIR2C                             00000672
DIR2CA                            00000686
DIR2_YELLOW                       000005A0
DIR3A                             00000604
DIR3B                             00000642
DIR3C                             00000688
DIR4A                             000006A2
DIR4B                             000006B8
DIR4C                             000006D0
DIR5                              000006D6
DIR6A                             00000708
DIR6B                             00000732
DIR6BA                            00000746
DIR6C                             00000778
DIR6CA                            0000078C
DIR7A                             0000070A
DIR7B                             00000748
DIR7C                             0000078E
DIRC                              0000054A
DIR_SUB                           000005D0
DIR_SUB0                          000005E2
DIR_SUB1                          000006E8
DISP                              000000F2
DISP0                             0000010A
DISPLAY                           00000102
DISPLAY_NOSET                     00000136
DISPLAY_SET                       0000013C
DISPLAY_SETT                      00000148
DISPL_DATE                        000001D0
DISPL_HOUR                        00000238
DISPL_MIN                         00000290
DISPL_MON                         00000190
DISPL_SEC                         000001FE
DISPS0                            00000150
DMP0                              000004D8
DMP04                             0000050A
DMP06                             00000536
DMP_FONT02                        0000048E
DMP_FONT02CONT                    0000049C
DMP_FONT04                        000004E2
DMP_FONT04CONT                    000004F6
MPASM  5.51               20191125_RTCGPU.ASM   4-30-2024  22:19:12         PAGE 198


SYMBOL TABLE
  LABEL                             VALUE 

DMP_FONT06                        00000514
DMP_FONT06CONT                    00000522
DOC_CONT                          0000B33A
DONE                              00000001
DR0                               000003D4
DR1                               000003EE
DR2                               00000402
DR3                               00000416
DR4                               0000042A
DR5                               0000043E
DRAM                              00000100
DTR_CMDEE0                        0000904C
DTR_CMDEE1                        0000905A
DTR_EECMD0                        00009010
DTR_EECMD1                        00009026
DTR_EECMD_EXIT                    00009034
DUMP                              00000454
D_A                               00000005
D_NOT_A                           00000005
ECCP1AS                           00000FB6
ECCPAS0                           00000004
ECCPAS1                           00000005
ECCPAS2                           00000006
ECCPASE                           00000007
EEADR                             00000FA9
EEADRH                            00000FAA
EECON1                            00000FA6
EECON2                            00000FA7
EEDATA                            00000FA8
EEDWR0                            00009082
EEIE                              00000004
EEIF                              00000004
EEIP                              00000004
EEPGD                             00000007
EEPROM_DATAREAD                   0000903A
EEPROM_DATAWRITE                  0000906C
ENDPOINT0                         0000016A
ENDPOINT1                         0000016B
EXAMPLE                           00000000
FAST                              00000001
FERR                              00000002
FONT                              0000014A
FONT02H                           00000C00
FONT02H_CAP_A                     00001000
FONT02H_CAP_B                     00001200
FONT02H_CAP_C                     00001400
FONT02H_CAP_COLON                 00005C00
FONT02H_CAP_COMMA                 00006000
FONT02H_CAP_D                     00001600
FONT02H_CAP_DASH                  00005A00
FONT02H_CAP_DOT                   00006200
FONT02H_CAP_E                     00001800
FONT02H_CAP_EIGHT                 00005400
MPASM  5.51               20191125_RTCGPU.ASM   4-30-2024  22:19:12         PAGE 199


SYMBOL TABLE
  LABEL                             VALUE 

FONT02H_CAP_ENYE                  00005800
FONT02H_CAP_F                     00001A00
FONT02H_CAP_FIVE                  00004E00
FONT02H_CAP_FOUR                  00004C00
FONT02H_CAP_G                     00001C00
FONT02H_CAP_H                     00001E00
FONT02H_CAP_I                     00002000
FONT02H_CAP_J                     00002200
FONT02H_CAP_K                     00002400
FONT02H_CAP_L                     00002600
FONT02H_CAP_M                     00002800
FONT02H_CAP_N                     00002A00
FONT02H_CAP_NINE                  00005600
FONT02H_CAP_O                     00002C00
FONT02H_CAP_ONE                   00004600
FONT02H_CAP_P                     00002E00
FONT02H_CAP_Q                     00003000
FONT02H_CAP_R                     00003200
FONT02H_CAP_S                     00003400
FONT02H_CAP_SEMICOLON             00005E00
FONT02H_CAP_SEVEN                 00005200
FONT02H_CAP_SIX                   00005000
FONT02H_CAP_SPACE                 00006400
FONT02H_CAP_T                     00003600
FONT02H_CAP_THREE                 00004A00
FONT02H_CAP_TWO                   00004800
FONT02H_CAP_U                     00003800
FONT02H_CAP_V                     00003A00
FONT02H_CAP_W                     00003C00
FONT02H_CAP_X                     00003E00
FONT02H_CAP_Y                     00004000
FONT02H_CAP_Z                     00004200
FONT02H_CAP_ZERO                  00004400
FONT02H_ISL4                      00000E24
FONT02H_LOWERCASE                 00000E00
FONT02H_LOWERCASE0                00000E3A
FONT02H_LOW_A                     00001072
FONT02H_LOW_B                     00001272
FONT02H_LOW_C                     00001472
FONT02H_LOW_COLON                 00005C72
FONT02H_LOW_COMMA                 00006072
FONT02H_LOW_D                     00001672
FONT02H_LOW_DASH                  00005A72
FONT02H_LOW_DOT                   00006272
FONT02H_LOW_E                     00001872
FONT02H_LOW_ENYE                  00005872
FONT02H_LOW_F                     00001A72
FONT02H_LOW_G                     00001C72
FONT02H_LOW_H                     00001E72
FONT02H_LOW_I                     00002072
FONT02H_LOW_J                     00002272
FONT02H_LOW_K                     00002472
FONT02H_LOW_L                     00002672
MPASM  5.51               20191125_RTCGPU.ASM   4-30-2024  22:19:12         PAGE 200


SYMBOL TABLE
  LABEL                             VALUE 

FONT02H_LOW_M                     00002872
FONT02H_LOW_N                     00002A72
FONT02H_LOW_O                     00002C72
FONT02H_LOW_P                     00002E72
FONT02H_LOW_Q                     00003072
FONT02H_LOW_R                     00003272
FONT02H_LOW_S                     00003472
FONT02H_LOW_SEMICOLON             00005E72
FONT02H_LOW_T                     00003672
FONT02H_LOW_U                     00003872
FONT02H_LOW_V                     00003A72
FONT02H_LOW_W                     00003C72
FONT02H_LOW_X                     00003E78
FONT02H_LOW_Y                     00004078
FONT02H_LOW_Z                     00004272
FONT02H_NUMH_IS4                  00000E2C
FONT02H_NUMH_IS5                  00000E34
FONT02L                           00000D00
FONT02L_CAP_A                     00001100
FONT02L_CAP_B                     00001300
FONT02L_CAP_C                     00001500
FONT02L_CAP_COLON                 00005D00
FONT02L_CAP_COMMA                 00006100
FONT02L_CAP_D                     00001700
FONT02L_CAP_DASH                  00005B00
FONT02L_CAP_DOT                   00006300
FONT02L_CAP_E                     00001900
FONT02L_CAP_EIGHT                 00005500
FONT02L_CAP_ENYE                  00005900
FONT02L_CAP_F                     00001B00
FONT02L_CAP_FIVE                  00004F00
FONT02L_CAP_FOUR                  00004D00
FONT02L_CAP_G                     00001D00
FONT02L_CAP_H                     00001F00
FONT02L_CAP_I                     00002100
FONT02L_CAP_J                     00002300
FONT02L_CAP_K                     00002500
FONT02L_CAP_L                     00002700
FONT02L_CAP_M                     00002900
FONT02L_CAP_N                     00002B00
FONT02L_CAP_NINE                  00005700
FONT02L_CAP_O                     00002D00
FONT02L_CAP_ONE                   00004700
FONT02L_CAP_P                     00002F00
FONT02L_CAP_Q                     00003100
FONT02L_CAP_R                     00003300
FONT02L_CAP_S                     00003572
FONT02L_CAP_SEMICOLON             00005F00
FONT02L_CAP_SEVEN                 00005300
FONT02L_CAP_SIX                   00005100
FONT02L_CAP_SPACE                 00006500
FONT02L_CAP_T                     00003700
FONT02L_CAP_THREE                 00004B00
MPASM  5.51               20191125_RTCGPU.ASM   4-30-2024  22:19:12         PAGE 201


SYMBOL TABLE
  LABEL                             VALUE 

FONT02L_CAP_TWO                   00004900
FONT02L_CAP_U                     00003900
FONT02L_CAP_V                     00003B00
FONT02L_CAP_W                     00003D00
FONT02L_CAP_X                     00003F00
FONT02L_CAP_Y                     00004100
FONT02L_CAP_Z                     00004300
FONT02L_CAP_ZERO                  00004500
FONT02L_ISL4                      00000F24
FONT02L_LOWERCASE                 00000F00
FONT02L_LOWERCASE0                00000F3A
FONT02L_LOW_A                     00001172
FONT02L_LOW_B                     00001372
FONT02L_LOW_C                     00001572
FONT02L_LOW_COLON                 00005D72
FONT02L_LOW_COMMA                 00006172
FONT02L_LOW_D                     00001772
FONT02L_LOW_DASH                  00005B72
FONT02L_LOW_DOT                   00006372
FONT02L_LOW_E                     00001972
FONT02L_LOW_ENYE                  00005972
FONT02L_LOW_F                     00001B72
FONT02L_LOW_G                     00001D72
FONT02L_LOW_H                     00001F72
FONT02L_LOW_I                     00002172
FONT02L_LOW_J                     00002372
FONT02L_LOW_K                     00002572
FONT02L_LOW_L                     00002772
FONT02L_LOW_M                     00002972
FONT02L_LOW_N                     00002B72
FONT02L_LOW_O                     00002D72
FONT02L_LOW_P                     00002F72
FONT02L_LOW_Q                     00003172
FONT02L_LOW_R                     00003372
FONT02L_LOW_S                     00003500
FONT02L_LOW_SEMICOLON             00005F72
FONT02L_LOW_T                     00003772
FONT02L_LOW_U                     00003972
FONT02L_LOW_V                     00003B72
FONT02L_LOW_W                     00003D72
FONT02L_LOW_X                     00003F72
FONT02L_LOW_Y                     00004172
FONT02L_LOW_Z                     00004372
FONT02L_NUMH_IS4                  00000F2C
FONT02L_NUMH_IS5                  00000F34
FONT04H                           00007000
FONT04H_EIGHT                     00007166
FONT04H_FIVE                      00007100
FONT04H_FOUR                      000070C6
FONT04H_NINE                      00007188
FONT04H_ONE                       00007060
FONT04H_SEVEN                     00007144
FONT04H_SIX                       00007122
MPASM  5.51               20191125_RTCGPU.ASM   4-30-2024  22:19:12         PAGE 202


SYMBOL TABLE
  LABEL                             VALUE 

FONT04H_THREE                     000070A4
FONT04H_TWO                       00007082
FONT04H_ZERO                      0000703E
FONT06H                           00007200
FONT06H_DASH                      00007464
FONT06H_DOT                       00007496
FONT06H_EIGHT                     00007400
FONT06H_FIVE                      00007364
FONT06H_FOUR                      00007332
FONT06H_NINE                      00007432
FONT06H_ONE                       00007278
FONT06H_SEVEN                     000073C8
FONT06H_SIX                       00007396
FONT06H_THREE                     00007300
FONT06H_TWO                       000072AA
FONT06H_ZERO                      00007246
FREE                              00000004
FSR0                              00000000
FSR0H                             00000FEA
FSR0L                             00000FE9
FSR1                              00000001
FSR1H                             00000FE2
FSR1L                             00000FE1
FSR2                              00000002
FSR2H                             00000FDA
FSR2L                             00000FD9
G0HI                              00000428
G0LO                              00000422
G0_0                              BCF     LATB,2,0
G0_1                              BSF     LATB,2,0
G1HI                              0000043C
G1LO                              00000436
G1_0                              BCF     LATB,3,0
G1_1                              BSF     LATB,3,0
GCEN                              00000007
GIE                               00000007
GIEH                              00000007
GIEL                              00000006
GIE_GIEH                          00000007
GO                                00000001
GO_DONE                           00000001
GO_NOT_DONE                       00000001
GRNHALF0                          00000153
GRNHALF1                          00000154
HBCD                              00000340
HBHX                              000007F4
HBHX240                           00000818
HBHX248                           00000836
HBLX                              000008AC
HBLX240                           000008D0
HBLX248                           000008EE
HIGHINT                           00000032
HLVDCON                           00000FD2
MPASM  5.51               20191125_RTCGPU.ASM   4-30-2024  22:19:12         PAGE 203


SYMBOL TABLE
  LABEL                             VALUE 

HLVDEN                            00000004
HLVDIE                            00000002
HLVDIF                            00000002
HLVDIN                            00000005
HLVDIP                            00000002
HLVDL0                            00000000
HLVDL1                            00000001
HLVDL2                            00000002
HLVDL3                            00000003
HOUR01_CONT                       0000B2D6
HOURT0                            0000B2BA
HOURT01                           0000B2C6
HOURT02                           0000B2E4
HOURT1                            0000B2EC
HOURT1_CLR                        0000B2FE
HOURT1_CONT                       0000B30A
HOURT1_SET                        0000B304
HOUR_O                            00000189
HOUR_O_CON                        0000B2B0
HOUR_O_DEC                        0000B324
HOUR_O_INC                        0000B31C
HOUR_T                            00000188
HTHPX                             000007DC
HTH_CXGT40                        000007A6
HTH_CXGT48                        000007B8
HTH_CXGT55                        000007CA
HTLPX                             00000894
HTL_CXGT40                        0000085E
HTL_CXGT48                        00000870
HTL_CXGT55                        00000882
HUB                               0000015D
HUBCHECKDUMP                      00000338
HUBH_EXIT                         000007E6
HUBL_EXIT                         0000089E
HUBTESTH                          00000794
HUBTESTL                          0000084C
I2CSDA_HI                         0000A208
I2CSDA_LO                         0000A202
I2C_CLK0                          BCF     LATC,1,0
I2C_CLK1                          BSF     LATC,1,0
I2C_CLKP                          0000A0E0
I2C_DAT0                          BCF     LATC,0,0
I2C_DAT1                          BSF     LATC,0,0
I2C_DATA0                         00000175
I2C_DATA0B0                       0000A234
I2C_DATA0B1                       0000A23A
I2C_DATAIN                        0000A1EC
I2C_DATAOUT                       0000A224
I2C_DATATOCLOCK                   0000A252
I2C_DI                            0000A1F8
I2C_DICONT                        0000A210
I2C_DO0                           0000A228
I2C_DO1                           0000A242
MPASM  5.51               20191125_RTCGPU.ASM   4-30-2024  22:19:12         PAGE 204


SYMBOL TABLE
  LABEL                             VALUE 

I2C_LOOP                          00000174
I2C_MACK                          0000A126
I2C_MNACK                         0000A110
I2C_READ                          0000A1B0
I2C_REG                           00000176
I2C_ROUTINE                       0000A000
I2C_SA0                           0000A0FA
I2C_SACK                          0000A0F2
I2C_SET_ROUTINE                   0000A062
I2C_START                         0000A0A8
I2C_STOP                          0000A0C4
I2C_WRADD                         0000A17A
I2C_WRITE                         0000A13E
IBF                               00000007
IBOV                              00000005
IDLEN                             00000007
INDF0                             00000FEF
INDF1                             00000FE7
INDF2                             00000FDF
INIT                              00000034
INT0                              00000000
INT0E                             00000004
INT0F                             00000001
INT0IE                            00000004
INT0IF                            00000001
INT1                              00000001
INT1E                             00000003
INT1F                             00000000
INT1IE                            00000003
INT1IF                            00000000
INT1IP                            00000006
INT1P                             00000006
INT2                              00000002
INT2E                             00000004
INT2F                             00000001
INT2IE                            00000004
INT2IF                            00000001
INT2IP                            00000007
INT2P                             00000007
INTCON                            00000FF2
INTCON2                           00000FF1
INTCON3                           00000FF0
INTEDG0                           00000006
INTEDG1                           00000005
INTEDG2                           00000004
INTSRC                            00000007
IOFS                              00000002
IPEN                              00000007
IPR1                              00000F9F
IPR2                              00000FA2
IRCF0                             00000004
IRCF1                             00000005
IRCF2                             00000006
MPASM  5.51               20191125_RTCGPU.ASM   4-30-2024  22:19:12         PAGE 205


SYMBOL TABLE
  LABEL                             VALUE 

IRVST                             00000005
IVRST                             00000005
KBI0                              00000004
KBI1                              00000005
KBI2                              00000006
KBI3                              00000007
LATA                              00000F89
LATA0                             00000000
LATA1                             00000001
LATA2                             00000002
LATA3                             00000003
LATA4                             00000004
LATA5                             00000005
LATA6                             00000006
LATA7                             00000007
LATB                              00000F8A
LATB0                             00000000
LATB1                             00000001
LATB2                             00000002
LATB3                             00000003
LATB4                             00000004
LATB5                             00000005
LATB6                             00000006
LATB7                             00000007
LATC                              00000F8B
LATC0                             00000000
LATC1                             00000001
LATC2                             00000002
LATC3                             00000003
LATC4                             00000004
LATC5                             00000005
LATC6                             00000006
LATC7                             00000007
LATD                              00000F8C
LATD0                             00000000
LATD1                             00000001
LATD2                             00000002
LATD3                             00000003
LATD4                             00000004
LATD5                             00000005
LATD6                             00000006
LATD7                             00000007
LATE                              00000F8D
LATE0                             00000000
LATE1                             00000001
LATE2                             00000002
LAT_OFF                           BCF     LATD,6,0
LAT_ON                            BSF     LATD,6,0
LOOP                              00000141
LVDCON                            00000FD2
LVDEN                             00000004
LVDIE                             00000002
LVDIF                             00000002
MPASM  5.51               20191125_RTCGPU.ASM   4-30-2024  22:19:12         PAGE 206


SYMBOL TABLE
  LABEL                             VALUE 

LVDIN                             00000005
LVDIP                             00000002
LVDL0                             00000000
LVDL1                             00000001
LVDL2                             00000002
LVDL3                             00000003
LVV0                              00000000
LVV1                              00000001
LVV2                              00000002
LVV3                              00000003
MAIN                              000000AC
MAN0                              000000B8
MAN1                              000000D0
MAN2                              000000D6
MAN3                              000000E4
MCLR                              00000003
MIN_O                             0000018B
MIN_O_CON                         0000B268
MIN_O_DEC                         0000B286
MIN_O_INC                         0000B27A
MIN_T                             0000018A
MIN_T_CON                         0000B292
MIN_T_DEC                         0000B2AA
MIN_T_INC                         0000B2A4
MON01_CONT                        0000B3D4
MONT0                             0000B3B8
MONT01                            0000B3C4
MONT02                            0000B3E2
MONT1                             0000B3EA
MON_O                             0000018F
MON_O_CON                         0000B3AE
MON_O_DEC                         0000B404
MON_O_INC                         0000B3FC
MON_T                             0000018E
MOVX_TEMPH                        00000166
MOVX_TEMPL                        00000167
MSEC                              0000A326
MSEC0                             0000A336
N                                 00000004
NOSKIPSEMICOLON                   00000272
NOT_A                             00000005
NOT_ADDRESS                       00000005
NOT_BOR                           00000000
NOT_CS                            00000002
NOT_DONE                          00000001
NOT_MCLR                          00000003
NOT_PD                            00000002
NOT_POR                           00000001
NOT_RBPU                          00000007
NOT_RD                            00000000
NOT_RI                            00000004
NOT_SS                            00000005
NOT_T1SYNC                        00000002
MPASM  5.51               20191125_RTCGPU.ASM   4-30-2024  22:19:12         PAGE 207


SYMBOL TABLE
  LABEL                             VALUE 

NOT_T3SYNC                        00000002
NOT_TO                            00000003
NOT_W                             00000002
NOT_WR                            00000001
NOT_WRITE                         00000002
NUMBER                            00000148
OBF                               00000006
OERR                              00000001
OE_OFF                            BSF     LATD,7,0
OE_ON                             BCF     LATD,7,0
OSCCON                            00000FD3
OSCFIE                            00000007
OSCFIF                            00000007
OSCFIP                            00000007
OSCTUNE                           00000F9B
OSTS                              00000003
OV                                00000003
P                                 00000004
P1B                               00000005
P1C                               00000006
P1D                               00000007
P1M0                              00000006
P1M1                              00000007
PC                                00000FF9
PCFG0                             00000000
PCFG1                             00000001
PCFG2                             00000002
PCFG3                             00000003
PCL                               00000FF9
PCLATH                            00000FFA
PCLATH_TEMP                       0000016F
PCLATU                            00000FFB
PD                                00000002
PDC0                              00000000
PDC1                              00000001
PDC2                              00000002
PDC3                              00000003
PDC4                              00000004
PDC5                              00000005
PDC6                              00000006
PEIE                              00000006
PEIE_GIEL                         00000006
PEN                               00000002
PGC                               00000006
PGD                               00000007
PGM                               00000005
PIE1                              00000F9D
PIE2                              00000FA0
PIR1                              00000F9E
PIR2                              00000FA1
PLLEN                             00000006
PLUSW0                            00000FEB
PLUSW1                            00000FE3
MPASM  5.51               20191125_RTCGPU.ASM   4-30-2024  22:19:12         PAGE 208


SYMBOL TABLE
  LABEL                             VALUE 

PLUSW2                            00000FDB
POINTER                           00000145
POR                               00000001
PORTA                             00000F80
PORTB                             00000F81
PORTC                             00000F82
PORTD                             00000F83
PORTE                             00000F84
POSTDEC0                          00000FED
POSTDEC1                          00000FE5
POSTDEC2                          00000FDD
POSTINC0                          00000FEE
POSTINC1                          00000FE6
POSTINC2                          00000FDE
PR2                               00000FCB
PREINC0                           00000FEC
PREINC1                           00000FE4
PREINC2                           00000FDC
PROD                              00000FF3
PRODH                             00000FF4
PRODL                             00000FF3
PRSEN                             00000007
PSA                               00000003
PSP0                              00000000
PSP1                              00000001
PSP2                              00000002
PSP3                              00000003
PSP4                              00000004
PSP5                              00000005
PSP6                              00000006
PSP7                              00000007
PSPIE                             00000007
PSPIF                             00000007
PSPIP                             00000007
PSPMODE                           00000004
PSSAC0                            00000002
PSSAC1                            00000003
PSSBD0                            00000000
PSSBD1                            00000001
PWM1CON                           00000FB7
R                                 00000002
R0HI                              00000400
R0LO                              000003FA
R0_0                              BCF     LATB,0,0
R0_1                              BSF     LATB,0,0
R1HI                              00000414
R1LO                              0000040E
R1_0                              BCF     LATB,1,0
R1_1                              BSF     LATB,1,0
RA0                               00000000
RA1                               00000001
RA2                               00000002
RA3                               00000003
MPASM  5.51               20191125_RTCGPU.ASM   4-30-2024  22:19:12         PAGE 209


SYMBOL TABLE
  LABEL                             VALUE 

RA4                               00000004
RA5                               00000005
RA6                               00000006
RA7                               00000007
RB0                               00000000
RB1                               00000001
RB2                               00000002
RB3                               00000003
RB4                               00000004
RB5                               00000005
RB6                               00000006
RB7                               00000007
RBIE                              00000003
RBIF                              00000000
RBIP                              00000000
RBPU                              00000007
RC0                               00000000
RC1                               00000001
RC2                               00000002
RC3                               00000003
RC4                               00000004
RC5                               00000005
RC6                               00000006
RC7                               00000007
RCEN                              00000003
RCIDL                             00000006
RCIE                              00000005
RCIF                              00000005
RCIP                              00000005
RCMT                              00000006
RCON                              00000FD0
RCREG                             00000FAE
RCSTA                             00000FAB
RD                                00000000
RD0                               00000000
RD1                               00000001
RD16                              00000007
RD2                               00000002
RD3                               00000003
RD4                               00000004
RD5                               00000005
RD6                               00000006
RD7                               00000007
RE0                               00000000
RE1                               00000001
RE2                               00000002
RE3                               00000003
REDHALF0                          00000151
REDHALF1                          00000152
RI                                00000004
ROW                               00000149
RSEN                              00000001
RX                                00000007
MPASM  5.51               20191125_RTCGPU.ASM   4-30-2024  22:19:12         PAGE 210


SYMBOL TABLE
  LABEL                             VALUE 

RX9                               00000006
RX9D                              00000000
RXCKP                             00000005
RXDTP                             00000005
R_NOT_W                           00000002
R_W                               00000002
S                                 00000003
SBOREN                            00000006
SCK                               00000003
SCKP                              00000004
SCL                               00000003
SCRLLOOP                          00000162
SCROLL_BIT                        00000150
SCS0                              00000000
SCS1                              00000001
SDA                               00000004
SDI                               00000004
SDO                               00000005
SEC                               00000172
SEC0                              0000A346
SEC1                              0000A356
SEC_O                             0000018D
SEC_O_CON                         0000B220
SEC_O_DEC                         0000B23E
SEC_O_INC                         0000B232
SEC_O_TEMP                        00000197
SEC_T                             0000018C
SEC_T_CON                         0000B24A
SEC_T_DEC                         0000B262
SEC_T_INC                         0000B25C
SEC_T_TEMP                        00000196
SEN                               00000000
SENDB                             00000003
SETDATE0                          0000B0E8
SETDATE1                          0000B0FE
SETHOUR0                          0000B0B6
SETHOUR1                          0000B0CC
SETMIN0                           0000B084
SETMIN1                           0000B09A
SETMON0                           0000B11A
SETMON1                           0000B130
SETSEC0                           0000B052
SETSEC1                           0000B068
SET_COUNTH                        00000195
SET_COUNTL                        00000194
SET_VAR                           00000193
SKIPSEMICOLON                     00000282
SKIP_DISPL_DATE                   000001F0
SKIP_DISPL_HOUR                   00000264
SKIP_DISPL_MIN                    000002B8
SKIP_DISPL_MON                    000001B2
SKIP_DISPL_SEC                    00000222
SMP                               00000007
MPASM  5.51               20191125_RTCGPU.ASM   4-30-2024  22:19:12         PAGE 211


SYMBOL TABLE
  LABEL                             VALUE 

SP0                               00000000
SP1                               00000001
SP2                               00000002
SP3                               00000003
SP4                               00000004
SPBRG                             00000FAF
SPBRGH                            00000FB0
SPEN                              00000007
SPI_DATAIN                        00000140
SREN                              00000005
SS                                00000005
SSPADD                            00000FC8
SSPBUF                            00000FC9
SSPCON1                           00000FC6
SSPCON2                           00000FC5
SSPEN                             00000005
SSPIE                             00000003
SSPIF                             00000003
SSPIP                             00000003
SSPM0                             00000000
SSPM1                             00000001
SSPM2                             00000002
SSPM3                             00000003
SSPOV                             00000006
SSPSTAT                           00000FC7
STATUS                            00000FD8
STATUS_TEMP                       0000016D
STKFUL                            00000007
STKOVF                            00000007
STKPTR                            00000FFC
STKPTR0                           00000000
STKPTR1                           00000001
STKPTR2                           00000002
STKPTR3                           00000003
STKPTR4                           00000004
STKUNF                            00000006
STPT                              0000014B
SWDTE                             00000000
SWDTEN                            00000000
SYNC                              00000004
T016BIT                           00000006
T08BIT                            00000006
T0CKI                             00000004
T0CON                             00000FD5
T0CS                              00000005
T0IE                              00000005
T0IF                              00000002
T0PS0                             00000000
T0PS1                             00000001
T0PS2                             00000002
T0SE                              00000004
T13CKI                            00000000
T1CKI                             00000000
MPASM  5.51               20191125_RTCGPU.ASM   4-30-2024  22:19:12         PAGE 212


SYMBOL TABLE
  LABEL                             VALUE 

T1CKPS0                           00000004
T1CKPS1                           00000005
T1CON                             00000FCD
T1OSCEN                           00000003
T1OSI                             00000001
T1OSO                             00000000
T1RUN                             00000006
T1SYNC                            00000002
T2CKPS0                           00000000
T2CKPS1                           00000001
T2CON                             00000FCA
T2OUTPS0                          00000003
T2OUTPS1                          00000004
T2OUTPS2                          00000005
T2OUTPS3                          00000006
T3CCP1                            00000003
T3CCP2                            00000006
T3CKPS0                           00000004
T3CKPS1                           00000005
T3CON                             00000FB1
T3SYNC                            00000002
TABLAT                            00000FF5
TBLPTR                            00000FF6
TBLPTRH                           00000FF7
TBLPTRL                           00000FF6
TBLPTRU                           00000FF8
TEMPRAM                           00000155
TMR0                              00000FD6
TMR0H                             00000FD7
TMR0IE                            00000005
TMR0IF                            00000002
TMR0IP                            00000002
TMR0L                             00000FD6
TMR0ON                            00000007
TMR1                              00000FCE
TMR1CS                            00000001
TMR1H                             00000FCF
TMR1IE                            00000000
TMR1IF                            00000000
TMR1IP                            00000000
TMR1L                             00000FCE
TMR1ON                            00000000
TMR2                              00000FCC
TMR2IE                            00000001
TMR2IF                            00000001
TMR2IP                            00000001
TMR2ON                            00000002
TMR3                              00000FB2
TMR3CS                            00000001
TMR3H                             00000FB3
TMR3IE                            00000001
TMR3IF                            00000001
TMR3IP                            00000001
MPASM  5.51               20191125_RTCGPU.ASM   4-30-2024  22:19:12         PAGE 213


SYMBOL TABLE
  LABEL                             VALUE 

TMR3L                             00000FB2
TMR3ON                            00000000
TO                                00000003
TOS                               00000FFD
TOSH                              00000FFE
TOSL                              00000FFD
TOSU                              00000FFF
TRISA                             00000F92
TRISA0                            00000000
TRISA1                            00000001
TRISA2                            00000002
TRISA3                            00000003
TRISA4                            00000004
TRISA5                            00000005
TRISA6                            00000006
TRISA7                            00000007
TRISB                             00000F93
TRISB0                            00000000
TRISB1                            00000001
TRISB2                            00000002
TRISB3                            00000003
TRISB4                            00000004
TRISB5                            00000005
TRISB6                            00000006
TRISB7                            00000007
TRISC                             00000F94
TRISC0                            00000000
TRISC1                            00000001
TRISC2                            00000002
TRISC3                            00000003
TRISC4                            00000004
TRISC5                            00000005
TRISC6                            00000006
TRISC7                            00000007
TRISD                             00000F95
TRISD0                            00000000
TRISD1                            00000001
TRISD2                            00000002
TRISD3                            00000003
TRISD4                            00000004
TRISD5                            00000005
TRISD6                            00000006
TRISD7                            00000007
TRISE                             00000F96
TRISE0                            00000000
TRISE1                            00000001
TRISE2                            00000002
TRMT                              00000001
TUN0                              00000000
TUN1                              00000001
TUN2                              00000002
TUN3                              00000003
TUN4                              00000004
MPASM  5.51               20191125_RTCGPU.ASM   4-30-2024  22:19:12         PAGE 214


SYMBOL TABLE
  LABEL                             VALUE 

TX                                00000006
TX9                               00000006
TX9D                              00000000
TXCKP                             00000004
TXEN                              00000005
TXIE                              00000004
TXIF                              00000004
TXIP                              00000004
TXREG                             00000FAD
TXSTA                             00000FAC
UA                                00000001
USEC                              0000A312
VCFG0                             00000004
VCFG1                             00000005
VDIRMAG                           00000007
VPP                               00000003
W                                 00000000
WCOL                              00000007
WDTCON                            00000FD1
WIDTH                             0000014F
WIDTH_CHECK                       00008000
WR                                00000001
WREG                              00000FE8
WREN                              00000002
WRERR                             00000003
WUE                               00000001
W_TEMP                            0000016C
Z                                 00000002
_BOREN_NOSLP_2L                   000000FD
_BOREN_OFF_2L                     000000F9
_BOREN_ON_2L                      000000FB
_BOREN_SBORDIS_2L                 000000FF
_BORV_0_2L                        000000E7
_BORV_1_2L                        000000EF
_BORV_2_2L                        000000F7
_BORV_3_2L                        000000FF
_CCP2MX_PORTBE_3H                 000000FE
_CCP2MX_PORTC_3H                  000000FF
_CONFIG1H                         00300001
_CONFIG2H                         00300003
_CONFIG2L                         00300002
_CONFIG3H                         00300005
_CONFIG4L                         00300006
_CONFIG5H                         00300009
_CONFIG5L                         00300008
_CONFIG6H                         0030000B
_CONFIG6L                         0030000A
_CONFIG7H                         0030000D
_CONFIG7L                         0030000C
_CP0_OFF_5L                       000000FF
_CP0_ON_5L                        000000FE
_CP1_OFF_5L                       000000FF
_CP1_ON_5L                        000000FD
MPASM  5.51               20191125_RTCGPU.ASM   4-30-2024  22:19:12         PAGE 215


SYMBOL TABLE
  LABEL                             VALUE 

_CP2_OFF_5L                       000000FF
_CP2_ON_5L                        000000FB
_CP3_OFF_5L                       000000FF
_CP3_ON_5L                        000000F7
_CPB_OFF_5H                       000000FF
_CPB_ON_5H                        000000BF
_CPD_OFF_5H                       000000FF
_CPD_ON_5H                        0000007F
_DEBUG_OFF_4L                     000000FF
_DEBUG_ON_4L                      0000007F
_DEVID1                           003FFFFE
_DEVID2                           003FFFFF
_EBTR0_OFF_7L                     000000FF
_EBTR0_ON_7L                      000000FE
_EBTR1_OFF_7L                     000000FF
_EBTR1_ON_7L                      000000FD
_EBTR2_OFF_7L                     000000FF
_EBTR2_ON_7L                      000000FB
_EBTR3_OFF_7L                     000000FF
_EBTR3_ON_7L                      000000F7
_EBTRB_OFF_7H                     000000FF
_EBTRB_ON_7H                      000000BF
_FCMEN_OFF_1H                     000000BF
_FCMEN_ON_1H                      000000FF
_IDLOC0                           00200000
_IDLOC1                           00200001
_IDLOC2                           00200002
_IDLOC3                           00200003
_IDLOC4                           00200004
_IDLOC5                           00200005
_IDLOC6                           00200006
_IDLOC7                           00200007
_IESO_OFF_1H                      0000007F
_IESO_ON_1H                       000000FF
_LPT1OSC_OFF_3H                   000000FB
_LPT1OSC_ON_3H                    000000FF
_LVP_OFF_4L                       000000FB
_LVP_ON_4L                        000000FF
_MCLRE_OFF_3H                     0000007F
_MCLRE_ON_3H                      000000FF
_OSC_ECIO6_1H                     000000F5
_OSC_EC_1H                        000000F4
_OSC_HSPLL_1H                     000000F6
_OSC_HS_1H                        000000F2
_OSC_INTIO67_1H                   000000F8
_OSC_INTIO7_1H                    000000F9
_OSC_LP_1H                        000000F0
_OSC_RCIO6_1H                     000000F7
_OSC_RC_1H                        000000F3
_OSC_XT_1H                        000000F1
_PBADEN_OFF_3H                    000000FD
_PBADEN_ON_3H                     000000FF
_PWRT_OFF_2L                      000000FF
MPASM  5.51               20191125_RTCGPU.ASM   4-30-2024  22:19:12         PAGE 216


SYMBOL TABLE
  LABEL                             VALUE 

_PWRT_ON_2L                       000000FE
_STVREN_OFF_4L                    000000FE
_STVREN_ON_4L                     000000FF
_WDTPS_1024_2H                    000000F5
_WDTPS_128_2H                     000000EF
_WDTPS_16384_2H                   000000FD
_WDTPS_16_2H                      000000E9
_WDTPS_1_2H                       000000E1
_WDTPS_2048_2H                    000000F7
_WDTPS_256_2H                     000000F1
_WDTPS_2_2H                       000000E3
_WDTPS_32768_2H                   000000FF
_WDTPS_32_2H                      000000EB
_WDTPS_4096_2H                    000000F9
_WDTPS_4_2H                       000000E5
_WDTPS_512_2H                     000000F3
_WDTPS_64_2H                      000000ED
_WDTPS_8192_2H                    000000FB
_WDTPS_8_2H                       000000E7
_WDT_OFF_2H                       000000FE
_WDT_ON_2H                        000000FF
_WRT0_OFF_6L                      000000FF
_WRT0_ON_6L                       000000FE
_WRT1_OFF_6L                      000000FF
_WRT1_ON_6L                       000000FD
_WRT2_OFF_6L                      000000FF
_WRT2_ON_6L                       000000FB
_WRT3_OFF_6L                      000000FF
_WRT3_ON_6L                       000000F7
_WRTB_OFF_6H                      000000FF
_WRTB_ON_6H                       000000BF
_WRTC_OFF_6H                      000000FF
_WRTC_ON_6H                       000000DF
_WRTD_OFF_6H                      000000FF
_WRTD_ON_6H                       0000007F
_XINST_OFF_4L                     000000BF
_XINST_ON_4L                      000000FF
__18F4620                         00000001
__DEBUG                           1


MEMORY USAGE MAP ('X' = Used,  '-' = Unused)

0000 : XXXX----XX------ --------XXXXXXXX XXXXXXXXXXXXXXXX XXXXXXXXXXXXXXXX
0040 : XXXXXXXXXXXXXXXX XXXXXXXXXXXXXXXX XXXXXXXXXXXXXXXX XXXXXXXXXXXXXXXX
0080 : XXXXXXXXXXXXXXXX XXXXXXXXXXXXXXXX XXXXXXXXXXXXXXXX XXXXXXXXXXXXXXXX
MPASM  5.51               20191125_RTCGPU.ASM   4-30-2024  22:19:12         PAGE 217


MEMORY USAGE MAP ('X' = Used,  '-' = Unused)


00C0 : XXXXXXXXXXXXXXXX XXXXXXXXXXXXXXXX XXXXXXXXXXXXXXXX XXXXXXXXXXXXXXXX
0100 : XXXXXXXXXXXXXXXX XXXXXXXXXXXXXXXX XXXXXXXXXXXXXXXX XXXXXXXXXXXXXXXX
0140 : XXXXXXXXXXXXXXXX XXXXXXXXXXXXXXXX XXXXXXXXXXXXXXXX XXXXXXXXXXXXXXXX
0180 : XXXXXXXXXXXXXXXX XXXXXXXXXXXXXXXX XXXXXXXXXXXXXXXX XXXXXXXXXXXXXXXX
01C0 : XXXXXXXXXXXXXXXX XXXXXXXXXXXXXXXX XXXXXXXXXXXXXXXX XXXXXXXXXXXXXXXX
0200 : XXXXXXXXXXXXXXXX XXXXXXXXXXXXXXXX XXXXXXXXXXXXXXXX XXXXXXXXXXXXXXXX
0240 : XXXXXXXXXXXXXXXX XXXXXXXXXXXXXXXX XXXXXXXXXXXXXXXX XXXXXXXXXXXXXXXX
0280 : XXXXXXXXXXXXXXXX XXXXXXXXXXXXXXXX XXXXXXXXXXXXXXXX XXXXXXXXXXXXXXXX
02C0 : XXXXXXXXXXXXXXXX XXXXXXXXXXXXXXXX XXXXXXXXXXXXXXXX XXXXXXXXXXXXXXXX
0300 : XXXXXXXXXXXXXXXX XXXXXXXXXXXXXXXX XXXXXXXXXXXXXXXX XXXXXXXXXXXXXXXX
0340 : XXXXXXXXXXXXXXXX XXXXXXXXXXXXXXXX XXXXXXXXXXXXXXXX XXXXXXXXXXXXXXXX
0380 : XXXXXXXXXXXXXXXX XXXXXXXXXXXXXXXX XXXXXXXXXXXXXXXX XXXXXXXXXXXXXXXX
03C0 : XXXXXXXXXXXXXXXX XXXXXXXXXXXXXXXX XXXXXXXXXXXXXXXX XXXXXXXXXXXXXXXX
0400 : XXXXXXXXXXXXXXXX XXXXXXXXXXXXXXXX XXXXXXXXXXXXXXXX XXXXXXXXXXXXXXXX
0440 : XXXXXXXXXXXXXXXX XXXXXXXXXXXXXXXX XXXXXXXXXXXXXXXX XXXXXXXXXXXXXXXX
0480 : XXXXXXXXXXXXXXXX XXXXXXXXXXXXXXXX XXXXXXXXXXXXXXXX XXXXXXXXXXXXXXXX
04C0 : XXXXXXXXXXXXXXXX XXXXXXXXXXXXXXXX XXXXXXXXXXXXXXXX XXXXXXXXXXXXXXXX
0500 : XXXXXXXXXXXXXXXX XXXXXXXXXXXXXXXX XXXXXXXXXXXXXXXX XXXXXXXXXXXXXXXX
0540 : XXXXXXXXXXXXXXXX XXXXXXXXXXXXXXXX XXXXXXXXXXXXXXXX XXXXXXXXXXXXXXXX
0580 : XXXXXXXXXXXXXXXX XXXXXXXXXXXXXXXX XXXXXXXXXXXXXXXX XXXXXXXXXXXXXXXX
05C0 : XXXXXXXXXXXXXXXX XXXXXXXXXXXXXXXX XXXXXXXXXXXXXXXX XXXXXXXXXXXXXXXX
0600 : XXXXXXXXXXXXXXXX XXXXXXXXXXXXXXXX XXXXXXXXXXXXXXXX XXXXXXXXXXXXXXXX
0640 : XXXXXXXXXXXXXXXX XXXXXXXXXXXXXXXX XXXXXXXXXXXXXXXX XXXXXXXXXXXXXXXX
0680 : XXXXXXXXXXXXXXXX XXXXXXXXXXXXXXXX XXXXXXXXXXXXXXXX XXXXXXXXXXXXXXXX
06C0 : XXXXXXXXXXXXXXXX XXXXXXXXXXXXXXXX XXXXXXXXXXXXXXXX XXXXXXXXXXXXXXXX
0700 : XXXXXXXXXXXXXXXX XXXXXXXXXXXXXXXX XXXXXXXXXXXXXXXX XXXXXXXXXXXXXXXX
0740 : XXXXXXXXXXXXXXXX XXXXXXXXXXXXXXXX XXXXXXXXXXXXXXXX XXXXXXXXXXXXXXXX
0780 : XXXXXXXXXXXXXXXX XXXXXXXXXXXXXXXX XXXXXXXXXXXXXXXX XXXXXXXXXXXXXXXX
07C0 : XXXXXXXXXXXXXXXX XXXXXXXXXXXXXXXX XXXXXXXXXXXXXXXX XXXXXXXXXXXXXXXX
0800 : XXXXXXXXXXXXXXXX XXXXXXXXXXXXXXXX XXXXXXXXXXXXXXXX XXXXXXXXXXXXXXXX
0840 : XXXXXXXXXXXXXXXX XXXXXXXXXXXXXXXX XXXXXXXXXXXXXXXX XXXXXXXXXXXXXXXX
0880 : XXXXXXXXXXXXXXXX XXXXXXXXXXXXXXXX XXXXXXXXXXXXXXXX XXXXXXXXXXXXXXXX
08C0 : XXXXXXXXXXXXXXXX XXXXXXXXXXXXXXXX XXXXXXXXXXXXXXXX XXXXXXXXXXXXXXXX
0900 : XXXXXXXXXXXXXXXX XXXXXXXXXXXXXXXX XXXXXXXXXXXXXXXX XXXXXXXXXXXXXXXX
0940 : XXXXXXXXXXXXXXXX XXXXXXXXXXXXXXXX XXXXXXXXXXXXXXXX XXXXXXXXXXXXXXXX
0980 : XXXXXXXXXXXXXXXX XXXXXXXXXXXXXXXX XXXXXXXXXXXXXXXX ----------------
0C00 : XXXXXXXXXXXXXXXX XXXXXXXXXXXXXXXX XXXXXXXXXXXXXXXX XXXXXXXXXXXXXXXX
0C40 : XXXXXXXXXXXXXXXX XXXXXXXXXXXXXXXX XXXXXXXXXXXXXXXX XXXXXXXXXXXXXXXX
0C80 : XXXXXXXXXXXXXXXX XXXXXXXXXXXXXXXX XXXXXXXXXXXXXXXX XXXXXXXXXXXXXXXX
0CC0 : XXXXXXXXXXXXXXXX XXXXXXXXXXXXXXXX XX-------------- ----------------
0D00 : XXXXXXXXXXXXXXXX XXXXXXXXXXXXXXXX XXXXXXXXXXXXXXXX XXXXXXXXXXXXXXXX
0D40 : XXXXXXXXXXXXXXXX XXXXXXXXXXXXXXXX XXXXXXXXXXXXXXXX XXXXXXXXXXXXXXXX
0D80 : XXXXXXXXXXXXXXXX XXXXXXXXXXXXXXXX XXXXXXXXXXXXXXXX XXXXXXXXXXXXXXXX
0DC0 : XXXXXXXXXXXXXXXX XXXXXXXXXXXXXXXX ---------------- ----------------
0E00 : XXXXXXXXXXXXXXXX XXXXXXXXXXXXXXXX XXXXXXXXXXXXXXXX XXXXXXXXXXXXXXXX
0E40 : XXXXXXXXXXXXXXXX XXXXXXXXXXXXXXXX XXXXXXXXXXXXXXXX XXXXXXXXXXXXXXXX
MPASM  5.51               20191125_RTCGPU.ASM   4-30-2024  22:19:12         PAGE 218


MEMORY USAGE MAP ('X' = Used,  '-' = Unused)


0E80 : XXXXXXXXXXXXXXXX XXXXXXXXXXXXXXXX XXXXXXXXXXXXXXXX XXXXXXXXXXXXXXXX
0EC0 : XXXXXXXXXXXXXXXX XXXXXXXXXXXXXXXX XXXXXXXXXXXXXXXX XX--------------
0F00 : XXXXXXXXXXXXXXXX XXXXXXXXXXXXXXXX XXXXXXXXXXXXXXXX XXXXXXXXXXXXXXXX
0F40 : XXXXXXXXXXXXXXXX XXXXXXXXXXXXXXXX XXXXXXXXXXXXXXXX XXXXXXXXXXXXXXXX
0F80 : XXXXXXXXXXXXXXXX XXXXXXXXXXXXXXXX XXXXXXXXXXXXXXXX XXXXXXXXXXXXXXXX
0FC0 : XXXXXXXXXXXXXXXX XXXXXXXXXXXXXXXX XXXXXXXXXXXXXXXX XX--------------
1000 : XXXXXXXXXXXXXXXX XXXXXXXXXXXXXXXX XXXXXXXXXXXXXXXX XXXXXXXXXXXXXXXX
1040 : XXXXXXXXXXXXXXXX XXXXXXXXXXXXXXXX XXXXXXXXXXXXXXXX XXXXXXXXXXXXXXXX
1080 : XXXXXXXXXXXXXXXX XXXXXXXXXXXXXXXX XXXXXXXXXXXXXXXX XXXXXXXXXXXXXXXX
10C0 : XXXXXXXXXXXXXXXX XXXXXXXXXXXXXXXX XXXX------------ ----------------
1100 : XXXXXXXXXXXXXXXX XXXXXXXXXXXXXXXX XXXXXXXXXXXXXXXX XXXXXXXXXXXXXXXX
1140 : XXXXXXXXXXXXXXXX XXXXXXXXXXXXXXXX XXXXXXXXXXXXXXXX XXXXXXXXXXXXXXXX
1180 : XXXXXXXXXXXXXXXX XXXXXXXXXXXXXXXX XXXXXXXXXXXXXXXX XXXXXXXXXXXXXXXX
11C0 : XXXXXXXXXXXXXXXX XXXXXXXXXXXXXXXX XXXX------------ ----------------
1200 : XXXXXXXXXXXXXXXX XXXXXXXXXXXXXXXX XXXXXXXXXXXXXXXX XXXXXXXXXXXXXXXX
1240 : XXXXXXXXXXXXXXXX XXXXXXXXXXXXXXXX XXXXXXXXXXXXXXXX XXXXXXXXXXXXXXXX
1280 : XXXXXXXXXXXXXXXX XXXXXXXXXXXXXXXX XXXXXXXXXXXXXXXX XXXXXXXXXXXXXXXX
12C0 : XXXXXXXXXXXXXXXX XXXXXXXXXXXXXXXX XXXX------------ ----------------
1300 : XXXXXXXXXXXXXXXX XXXXXXXXXXXXXXXX XXXXXXXXXXXXXXXX XXXXXXXXXXXXXXXX
1340 : XXXXXXXXXXXXXXXX XXXXXXXXXXXXXXXX XXXXXXXXXXXXXXXX XXXXXXXXXXXXXXXX
1380 : XXXXXXXXXXXXXXXX XXXXXXXXXXXXXXXX XXXXXXXXXXXXXXXX XXXXXXXXXXXXXXXX
13C0 : XXXXXXXXXXXXXXXX XXXXXXXXXXXXXXXX XXXX------------ ----------------
1400 : XXXXXXXXXXXXXXXX XXXXXXXXXXXXXXXX XXXXXXXXXXXXXXXX XXXXXXXXXXXXXXXX
1440 : XXXXXXXXXXXXXXXX XXXXXXXXXXXXXXXX XXXXXXXXXXXXXXXX XXXXXXXXXXXXXXXX
1480 : XXXXXXXXXXXXXXXX XXXXXXXXXXXXXXXX XXXXXXXXXXXXXXXX XXXXXXXXXXXXXXXX
14C0 : XXXXXXXXXXXXXXXX XXXXXXXXXXXXXXXX XXXX------------ ----------------
1500 : XXXXXXXXXXXXXXXX XXXXXXXXXXXXXXXX XXXXXXXXXXXXXXXX XXXXXXXXXXXXXXXX
1540 : XXXXXXXXXXXXXXXX XXXXXXXXXXXXXXXX XXXXXXXXXXXXXXXX XXXXXXXXXXXXXXXX
1580 : XXXXXXXXXXXXXXXX XXXXXXXXXXXXXXXX XXXXXXXXXXXXXXXX XXXXXXXXXXXXXXXX
15C0 : XXXXXXXXXXXXXXXX XXXXXXXXXXXXXXXX XXXX------------ ----------------
1600 : XXXXXXXXXXXXXXXX XXXXXXXXXXXXXXXX XXXXXXXXXXXXXXXX XXXXXXXXXXXXXXXX
1640 : XXXXXXXXXXXXXXXX XXXXXXXXXXXXXXXX XXXXXXXXXXXXXXXX XXXXXXXXXXXXXXXX
1680 : XXXXXXXXXXXXXXXX XXXXXXXXXXXXXXXX XXXXXXXXXXXXXXXX XXXXXXXXXXXXXXXX
16C0 : XXXXXXXXXXXXXXXX XXXXXXXXXXXXXXXX XXXX------------ ----------------
1700 : XXXXXXXXXXXXXXXX XXXXXXXXXXXXXXXX XXXXXXXXXXXXXXXX XXXXXXXXXXXXXXXX
1740 : XXXXXXXXXXXXXXXX XXXXXXXXXXXXXXXX XXXXXXXXXXXXXXXX XXXXXXXXXXXXXXXX
1780 : XXXXXXXXXXXXXXXX XXXXXXXXXXXXXXXX XXXXXXXXXXXXXXXX XXXXXXXXXXXXXXXX
17C0 : XXXXXXXXXXXXXXXX XXXXXXXXXXXXXXXX XXXX------------ ----------------
1800 : XXXXXXXXXXXXXXXX XXXXXXXXXXXXXXXX XXXXXXXXXXXXXXXX XXXXXXXXXXXXXXXX
1840 : XXXXXXXXXXXXXXXX XXXXXXXXXXXXXXXX XXXXXXXXXXXXXXXX XXXXXXXXXXXXXXXX
1880 : XXXXXXXXXXXXXXXX XXXXXXXXXXXXXXXX XXXXXXXXXXXXXXXX XXXXXXXXXXXXXXXX
18C0 : XXXXXXXXXXXXXXXX XXXXXXXXXXXXXXXX XXXX------------ ----------------
1900 : XXXXXXXXXXXXXXXX XXXXXXXXXXXXXXXX XXXXXXXXXXXXXXXX XXXXXXXXXXXXXXXX
1940 : XXXXXXXXXXXXXXXX XXXXXXXXXXXXXXXX XXXXXXXXXXXXXXXX XXXXXXXXXXXXXXXX
1980 : XXXXXXXXXXXXXXXX XXXXXXXXXXXXXXXX XXXXXXXXXXXXXXXX XXXXXXXXXXXXXXXX
19C0 : XXXXXXXXXXXXXXXX XXXXXXXXXXXXXXXX XXXX------------ ----------------
MPASM  5.51               20191125_RTCGPU.ASM   4-30-2024  22:19:12         PAGE 219


MEMORY USAGE MAP ('X' = Used,  '-' = Unused)


1A00 : XXXXXXXXXXXXXXXX XXXXXXXXXXXXXXXX XXXXXXXXXXXXXXXX XXXXXXXXXXXXXXXX
1A40 : XXXXXXXXXXXXXXXX XXXXXXXXXXXXXXXX XXXXXXXXXXXXXXXX XXXXXXXXXXXXXXXX
1A80 : XXXXXXXXXXXXXXXX XXXXXXXXXXXXXXXX XXXXXXXXXXXXXXXX XXXXXXXXXXXXXXXX
1AC0 : XXXXXXXXXXXXXXXX XXXXXXXXXXXXXXXX XXXX------------ ----------------
1B00 : XXXXXXXXXXXXXXXX XXXXXXXXXXXXXXXX XXXXXXXXXXXXXXXX XXXXXXXXXXXXXXXX
1B40 : XXXXXXXXXXXXXXXX XXXXXXXXXXXXXXXX XXXXXXXXXXXXXXXX XXXXXXXXXXXXXXXX
1B80 : XXXXXXXXXXXXXXXX XXXXXXXXXXXXXXXX XXXXXXXXXXXXXXXX XXXXXXXXXXXXXXXX
1BC0 : XXXXXXXXXXXXXXXX XXXXXXXXXXXXXXXX XXXX------------ ----------------
1C00 : XXXXXXXXXXXXXXXX XXXXXXXXXXXXXXXX XXXXXXXXXXXXXXXX XXXXXXXXXXXXXXXX
1C40 : XXXXXXXXXXXXXXXX XXXXXXXXXXXXXXXX XXXXXXXXXXXXXXXX XXXXXXXXXXXXXXXX
1C80 : XXXXXXXXXXXXXXXX XXXXXXXXXXXXXXXX XXXXXXXXXXXXXXXX XXXXXXXXXXXXXXXX
1CC0 : XXXXXXXXXXXXXXXX XXXXXXXXXXXXXXXX XXXX------------ ----------------
1D00 : XXXXXXXXXXXXXXXX XXXXXXXXXXXXXXXX XXXXXXXXXXXXXXXX XXXXXXXXXXXXXXXX
1D40 : XXXXXXXXXXXXXXXX XXXXXXXXXXXXXXXX XXXXXXXXXXXXXXXX XXXXXXXXXXXXXXXX
1D80 : XXXXXXXXXXXXXXXX XXXXXXXXXXXXXXXX XXXXXXXXXXXXXXXX XXXXXXXXXXXXXXXX
1DC0 : XXXXXXXXXXXXXXXX XXXXXXXXXXXXXXXX XXXX------------ ----------------
1E00 : XXXXXXXXXXXXXXXX XXXXXXXXXXXXXXXX XXXXXXXXXXXXXXXX XXXXXXXXXXXXXXXX
1E40 : XXXXXXXXXXXXXXXX XXXXXXXXXXXXXXXX XXXXXXXXXXXXXXXX XXXXXXXXXXXXXXXX
1E80 : XXXXXXXXXXXXXXXX XXXXXXXXXXXXXXXX XXXXXXXXXXXXXXXX XXXXXXXXXXXXXXXX
1EC0 : XXXXXXXXXXXXXXXX XXXXXXXXXXXXXXXX XXXX------------ ----------------
1F00 : XXXXXXXXXXXXXXXX XXXXXXXXXXXXXXXX XXXXXXXXXXXXXXXX XXXXXXXXXXXXXXXX
1F40 : XXXXXXXXXXXXXXXX XXXXXXXXXXXXXXXX XXXXXXXXXXXXXXXX XXXXXXXXXXXXXXXX
1F80 : XXXXXXXXXXXXXXXX XXXXXXXXXXXXXXXX XXXXXXXXXXXXXXXX XXXXXXXXXXXXXXXX
1FC0 : XXXXXXXXXXXXXXXX XXXXXXXXXXXXXXXX XXXX------------ ----------------
2000 : XXXXXXXXXXXXXXXX XXXXXXXXXXXXXXXX XXXXXXXXXXXXXXXX XXXXXXXXXXXXXXXX
2040 : XXXXXXXXXXXXXXXX XXXXXXXXXXXXXXXX XXXXXXXXXXXXXXXX XXXXXXXXXXXXXXXX
2080 : XXXXXXXXXXXXXXXX XXXXXXXXXXXXXXXX XXXXXXXXXXXXXXXX XXXXXXXXXXXXXXXX
20C0 : XXXXXXXXXXXXXXXX XXXXXXXXXXXXXXXX XXXX------------ ----------------
2100 : XXXXXXXXXXXXXXXX XXXXXXXXXXXXXXXX XXXXXXXXXXXXXXXX XXXXXXXXXXXXXXXX
2140 : XXXXXXXXXXXXXXXX XXXXXXXXXXXXXXXX XXXXXXXXXXXXXXXX XXXXXXXXXXXXXXXX
2180 : XXXXXXXXXXXXXXXX XXXXXXXXXXXXXXXX XXXXXXXXXXXXXXXX XXXXXXXXXXXXXXXX
21C0 : XXXXXXXXXXXXXXXX XXXXXXXXXXXXXXXX XXXX------------ ----------------
2200 : XXXXXXXXXXXXXXXX XXXXXXXXXXXXXXXX XXXXXXXXXXXXXXXX XXXXXXXXXXXXXXXX
2240 : XXXXXXXXXXXXXXXX XXXXXXXXXXXXXXXX XXXXXXXXXXXXXXXX XXXXXXXXXXXXXXXX
2280 : XXXXXXXXXXXXXXXX XXXXXXXXXXXXXXXX XXXXXXXXXXXXXXXX XXXXXXXXXXXXXXXX
22C0 : XXXXXXXXXXXXXXXX XXXXXXXXXXXXXXXX XXXX------------ ----------------
2300 : XXXXXXXXXXXXXXXX XXXXXXXXXXXXXXXX XXXXXXXXXXXXXXXX XXXXXXXXXXXXXXXX
2340 : XXXXXXXXXXXXXXXX XXXXXXXXXXXXXXXX XXXXXXXXXXXXXXXX XXXXXXXXXXXXXXXX
2380 : XXXXXXXXXXXXXXXX XXXXXXXXXXXXXXXX XXXXXXXXXXXXXXXX XXXXXXXXXXXXXXXX
23C0 : XXXXXXXXXXXXXXXX XXXXXXXXXXXXXXXX XXXX------------ ----------------
2400 : XXXXXXXXXXXXXXXX XXXXXXXXXXXXXXXX XXXXXXXXXXXXXXXX XXXXXXXXXXXXXXXX
2440 : XXXXXXXXXXXXXXXX XXXXXXXXXXXXXXXX XXXXXXXXXXXXXXXX XXXXXXXXXXXXXXXX
2480 : XXXXXXXXXXXXXXXX XXXXXXXXXXXXXXXX XXXXXXXXXXXXXXXX XXXXXXXXXXXXXXXX
24C0 : XXXXXXXXXXXXXXXX XXXXXXXXXXXXXXXX XXXX------------ ----------------
2500 : XXXXXXXXXXXXXXXX XXXXXXXXXXXXXXXX XXXXXXXXXXXXXXXX XXXXXXXXXXXXXXXX
2540 : XXXXXXXXXXXXXXXX XXXXXXXXXXXXXXXX XXXXXXXXXXXXXXXX XXXXXXXXXXXXXXXX
MPASM  5.51               20191125_RTCGPU.ASM   4-30-2024  22:19:12         PAGE 220


MEMORY USAGE MAP ('X' = Used,  '-' = Unused)


2580 : XXXXXXXXXXXXXXXX XXXXXXXXXXXXXXXX XXXXXXXXXXXXXXXX XXXXXXXXXXXXXXXX
25C0 : XXXXXXXXXXXXXXXX XXXXXXXXXXXXXXXX XXXX------------ ----------------
2600 : XXXXXXXXXXXXXXXX XXXXXXXXXXXXXXXX XXXXXXXXXXXXXXXX XXXXXXXXXXXXXXXX
2640 : XXXXXXXXXXXXXXXX XXXXXXXXXXXXXXXX XXXXXXXXXXXXXXXX XXXXXXXXXXXXXXXX
2680 : XXXXXXXXXXXXXXXX XXXXXXXXXXXXXXXX XXXXXXXXXXXXXXXX XXXXXXXXXXXXXXXX
26C0 : XXXXXXXXXXXXXXXX XXXXXXXXXXXXXXXX XXXX------------ ----------------
2700 : XXXXXXXXXXXXXXXX XXXXXXXXXXXXXXXX XXXXXXXXXXXXXXXX XXXXXXXXXXXXXXXX
2740 : XXXXXXXXXXXXXXXX XXXXXXXXXXXXXXXX XXXXXXXXXXXXXXXX XXXXXXXXXXXXXXXX
2780 : XXXXXXXXXXXXXXXX XXXXXXXXXXXXXXXX XXXXXXXXXXXXXXXX XXXXXXXXXXXXXXXX
27C0 : XXXXXXXXXXXXXXXX XXXXXXXXXXXXXXXX XXXX------------ ----------------
2800 : XXXXXXXXXXXXXXXX XXXXXXXXXXXXXXXX XXXXXXXXXXXXXXXX XXXXXXXXXXXXXXXX
2840 : XXXXXXXXXXXXXXXX XXXXXXXXXXXXXXXX XXXXXXXXXXXXXXXX XXXXXXXXXXXXXXXX
2880 : XXXXXXXXXXXXXXXX XXXXXXXXXXXXXXXX XXXXXXXXXXXXXXXX XXXXXXXXXXXXXXXX
28C0 : XXXXXXXXXXXXXXXX XXXXXXXXXXXXXXXX XXXX------------ ----------------
2900 : XXXXXXXXXXXXXXXX XXXXXXXXXXXXXXXX XXXXXXXXXXXXXXXX XXXXXXXXXXXXXXXX
2940 : XXXXXXXXXXXXXXXX XXXXXXXXXXXXXXXX XXXXXXXXXXXXXXXX XXXXXXXXXXXXXXXX
2980 : XXXXXXXXXXXXXXXX XXXXXXXXXXXXXXXX XXXXXXXXXXXXXXXX XXXXXXXXXXXXXXXX
29C0 : XXXXXXXXXXXXXXXX XXXXXXXXXXXXXXXX XXXX------------ ----------------
2A00 : XXXXXXXXXXXXXXXX XXXXXXXXXXXXXXXX XXXXXXXXXXXXXXXX XXXXXXXXXXXXXXXX
2A40 : XXXXXXXXXXXXXXXX XXXXXXXXXXXXXXXX XXXXXXXXXXXXXXXX XXXXXXXXXXXXXXXX
2A80 : XXXXXXXXXXXXXXXX XXXXXXXXXXXXXXXX XXXXXXXXXXXXXXXX XXXXXXXXXXXXXXXX
2AC0 : XXXXXXXXXXXXXXXX XXXXXXXXXXXXXXXX XXXX------------ ----------------
2B00 : XXXXXXXXXXXXXXXX XXXXXXXXXXXXXXXX XXXXXXXXXXXXXXXX XXXXXXXXXXXXXXXX
2B40 : XXXXXXXXXXXXXXXX XXXXXXXXXXXXXXXX XXXXXXXXXXXXXXXX XXXXXXXXXXXXXXXX
2B80 : XXXXXXXXXXXXXXXX XXXXXXXXXXXXXXXX XXXXXXXXXXXXXXXX XXXXXXXXXXXXXXXX
2BC0 : XXXXXXXXXXXXXXXX XXXXXXXXXXXXXXXX XXXX------------ ----------------
2C00 : XXXXXXXXXXXXXXXX XXXXXXXXXXXXXXXX XXXXXXXXXXXXXXXX XXXXXXXXXXXXXXXX
2C40 : XXXXXXXXXXXXXXXX XXXXXXXXXXXXXXXX XXXXXXXXXXXXXXXX XXXXXXXXXXXXXXXX
2C80 : XXXXXXXXXXXXXXXX XXXXXXXXXXXXXXXX XXXXXXXXXXXXXXXX XXXXXXXXXXXXXXXX
2CC0 : XXXXXXXXXXXXXXXX XXXXXXXXXXXXXXXX XXXX------------ ----------------
2D00 : XXXXXXXXXXXXXXXX XXXXXXXXXXXXXXXX XXXXXXXXXXXXXXXX XXXXXXXXXXXXXXXX
2D40 : XXXXXXXXXXXXXXXX XXXXXXXXXXXXXXXX XXXXXXXXXXXXXXXX XXXXXXXXXXXXXXXX
2D80 : XXXXXXXXXXXXXXXX XXXXXXXXXXXXXXXX XXXXXXXXXXXXXXXX XXXXXXXXXXXXXXXX
2DC0 : XXXXXXXXXXXXXXXX XXXXXXXXXXXXXXXX XXXX------------ ----------------
2E00 : XXXXXXXXXXXXXXXX XXXXXXXXXXXXXXXX XXXXXXXXXXXXXXXX XXXXXXXXXXXXXXXX
2E40 : XXXXXXXXXXXXXXXX XXXXXXXXXXXXXXXX XXXXXXXXXXXXXXXX XXXXXXXXXXXXXXXX
2E80 : XXXXXXXXXXXXXXXX XXXXXXXXXXXXXXXX XXXXXXXXXXXXXXXX XXXXXXXXXXXXXXXX
2EC0 : XXXXXXXXXXXXXXXX XXXXXXXXXXXXXXXX XXXX------------ ----------------
2F00 : XXXXXXXXXXXXXXXX XXXXXXXXXXXXXXXX XXXXXXXXXXXXXXXX XXXXXXXXXXXXXXXX
2F40 : XXXXXXXXXXXXXXXX XXXXXXXXXXXXXXXX XXXXXXXXXXXXXXXX XXXXXXXXXXXXXXXX
2F80 : XXXXXXXXXXXXXXXX XXXXXXXXXXXXXXXX XXXXXXXXXXXXXXXX XXXXXXXXXXXXXXXX
2FC0 : XXXXXXXXXXXXXXXX XXXXXXXXXXXXXXXX XXXX------------ ----------------
3000 : XXXXXXXXXXXXXXXX XXXXXXXXXXXXXXXX XXXXXXXXXXXXXXXX XXXXXXXXXXXXXXXX
3040 : XXXXXXXXXXXXXXXX XXXXXXXXXXXXXXXX XXXXXXXXXXXXXXXX XXXXXXXXXXXXXXXX
3080 : XXXXXXXXXXXXXXXX XXXXXXXXXXXXXXXX XXXXXXXXXXXXXXXX XXXXXXXXXXXXXXXX
30C0 : XXXXXXXXXXXXXXXX XXXXXXXXXXXXXXXX XXXX------------ ----------------
MPASM  5.51               20191125_RTCGPU.ASM   4-30-2024  22:19:12         PAGE 221


MEMORY USAGE MAP ('X' = Used,  '-' = Unused)


3100 : XXXXXXXXXXXXXXXX XXXXXXXXXXXXXXXX XXXXXXXXXXXXXXXX XXXXXXXXXXXXXXXX
3140 : XXXXXXXXXXXXXXXX XXXXXXXXXXXXXXXX XXXXXXXXXXXXXXXX XXXXXXXXXXXXXXXX
3180 : XXXXXXXXXXXXXXXX XXXXXXXXXXXXXXXX XXXXXXXXXXXXXXXX XXXXXXXXXXXXXXXX
31C0 : XXXXXXXXXXXXXXXX XXXXXXXXXXXXXXXX XXXX------------ ----------------
3200 : XXXXXXXXXXXXXXXX XXXXXXXXXXXXXXXX XXXXXXXXXXXXXXXX XXXXXXXXXXXXXXXX
3240 : XXXXXXXXXXXXXXXX XXXXXXXXXXXXXXXX XXXXXXXXXXXXXXXX XXXXXXXXXXXXXXXX
3280 : XXXXXXXXXXXXXXXX XXXXXXXXXXXXXXXX XXXXXXXXXXXXXXXX XXXXXXXXXXXXXXXX
32C0 : XXXXXXXXXXXXXXXX XXXXXXXXXXXXXXXX XXXX------------ ----------------
3300 : XXXXXXXXXXXXXXXX XXXXXXXXXXXXXXXX XXXXXXXXXXXXXXXX XXXXXXXXXXXXXXXX
3340 : XXXXXXXXXXXXXXXX XXXXXXXXXXXXXXXX XXXXXXXXXXXXXXXX XXXXXXXXXXXXXXXX
3380 : XXXXXXXXXXXXXXXX XXXXXXXXXXXXXXXX XXXXXXXXXXXXXXXX XXXXXXXXXXXXXXXX
33C0 : XXXXXXXXXXXXXXXX XXXXXXXXXXXXXXXX XXXX------------ ----------------
3400 : XXXXXXXXXXXXXXXX XXXXXXXXXXXXXXXX XXXXXXXXXXXXXXXX XXXXXXXXXXXXXXXX
3440 : XXXXXXXXXXXXXXXX XXXXXXXXXXXXXXXX XXXXXXXXXXXXXXXX XXXXXXXXXXXXXXXX
3480 : XXXXXXXXXXXXXXXX XXXXXXXXXXXXXXXX XXXXXXXXXXXXXXXX XXXXXXXXXXXXXXXX
34C0 : XXXXXXXXXXXXXXXX XXXXXXXXXXXXXXXX XXXX------------ ----------------
3500 : XXXXXXXXXXXXXXXX XXXXXXXXXXXXXXXX XXXXXXXXXXXXXXXX XXXXXXXXXXXXXXXX
3540 : XXXXXXXXXXXXXXXX XXXXXXXXXXXXXXXX XXXXXXXXXXXXXXXX XXXXXXXXXXXXXXXX
3580 : XXXXXXXXXXXXXXXX XXXXXXXXXXXXXXXX XXXXXXXXXXXXXXXX XXXXXXXXXXXXXXXX
35C0 : XXXXXXXXXXXXXXXX XXXXXXXXXXXXXXXX XXXX------------ ----------------
3600 : XXXXXXXXXXXXXXXX XXXXXXXXXXXXXXXX XXXXXXXXXXXXXXXX XXXXXXXXXXXXXXXX
3640 : XXXXXXXXXXXXXXXX XXXXXXXXXXXXXXXX XXXXXXXXXXXXXXXX XXXXXXXXXXXXXXXX
3680 : XXXXXXXXXXXXXXXX XXXXXXXXXXXXXXXX XXXXXXXXXXXXXXXX XXXXXXXXXXXXXXXX
36C0 : XXXXXXXXXXXXXXXX XXXXXXXXXXXXXXXX XXXX------------ ----------------
3700 : XXXXXXXXXXXXXXXX XXXXXXXXXXXXXXXX XXXXXXXXXXXXXXXX XXXXXXXXXXXXXXXX
3740 : XXXXXXXXXXXXXXXX XXXXXXXXXXXXXXXX XXXXXXXXXXXXXXXX XXXXXXXXXXXXXXXX
3780 : XXXXXXXXXXXXXXXX XXXXXXXXXXXXXXXX XXXXXXXXXXXXXXXX XXXXXXXXXXXXXXXX
37C0 : XXXXXXXXXXXXXXXX XXXXXXXXXXXXXXXX XXXX------------ ----------------
3800 : XXXXXXXXXXXXXXXX XXXXXXXXXXXXXXXX XXXXXXXXXXXXXXXX XXXXXXXXXXXXXXXX
3840 : XXXXXXXXXXXXXXXX XXXXXXXXXXXXXXXX XXXXXXXXXXXXXXXX XXXXXXXXXXXXXXXX
3880 : XXXXXXXXXXXXXXXX XXXXXXXXXXXXXXXX XXXXXXXXXXXXXXXX XXXXXXXXXXXXXXXX
38C0 : XXXXXXXXXXXXXXXX XXXXXXXXXXXXXXXX XXXX------------ ----------------
3900 : XXXXXXXXXXXXXXXX XXXXXXXXXXXXXXXX XXXXXXXXXXXXXXXX XXXXXXXXXXXXXXXX
3940 : XXXXXXXXXXXXXXXX XXXXXXXXXXXXXXXX XXXXXXXXXXXXXXXX XXXXXXXXXXXXXXXX
3980 : XXXXXXXXXXXXXXXX XXXXXXXXXXXXXXXX XXXXXXXXXXXXXXXX XXXXXXXXXXXXXXXX
39C0 : XXXXXXXXXXXXXXXX XXXXXXXXXXXXXXXX XXXX------------ ----------------
3A00 : XXXXXXXXXXXXXXXX XXXXXXXXXXXXXXXX XXXXXXXXXXXXXXXX XXXXXXXXXXXXXXXX
3A40 : XXXXXXXXXXXXXXXX XXXXXXXXXXXXXXXX XXXXXXXXXXXXXXXX XXXXXXXXXXXXXXXX
3A80 : XXXXXXXXXXXXXXXX XXXXXXXXXXXXXXXX XXXXXXXXXXXXXXXX XXXXXXXXXXXXXXXX
3AC0 : XXXXXXXXXXXXXXXX XXXXXXXXXXXXXXXX XXXX------------ ----------------
3B00 : XXXXXXXXXXXXXXXX XXXXXXXXXXXXXXXX XXXXXXXXXXXXXXXX XXXXXXXXXXXXXXXX
3B40 : XXXXXXXXXXXXXXXX XXXXXXXXXXXXXXXX XXXXXXXXXXXXXXXX XXXXXXXXXXXXXXXX
3B80 : XXXXXXXXXXXXXXXX XXXXXXXXXXXXXXXX XXXXXXXXXXXXXXXX XXXXXXXXXXXXXXXX
3BC0 : XXXXXXXXXXXXXXXX XXXXXXXXXXXXXXXX XXXX------------ ----------------
3C00 : XXXXXXXXXXXXXXXX XXXXXXXXXXXXXXXX XXXXXXXXXXXXXXXX XXXXXXXXXXXXXXXX
3C40 : XXXXXXXXXXXXXXXX XXXXXXXXXXXXXXXX XXXXXXXXXXXXXXXX XXXXXXXXXXXXXXXX
MPASM  5.51               20191125_RTCGPU.ASM   4-30-2024  22:19:12         PAGE 222


MEMORY USAGE MAP ('X' = Used,  '-' = Unused)


3C80 : XXXXXXXXXXXXXXXX XXXXXXXXXXXXXXXX XXXXXXXXXXXXXXXX XXXXXXXXXXXXXXXX
3CC0 : XXXXXXXXXXXXXXXX XXXXXXXXXXXXXXXX XXXX------------ ----------------
3D00 : XXXXXXXXXXXXXXXX XXXXXXXXXXXXXXXX XXXXXXXXXXXXXXXX XXXXXXXXXXXXXXXX
3D40 : XXXXXXXXXXXXXXXX XXXXXXXXXXXXXXXX XXXXXXXXXXXXXXXX XXXXXXXXXXXXXXXX
3D80 : XXXXXXXXXXXXXXXX XXXXXXXXXXXXXXXX XXXXXXXXXXXXXXXX XXXXXXXXXXXXXXXX
3DC0 : XXXXXXXXXXXXXXXX XXXXXXXXXXXXXXXX XXXX------------ ----------------
3E00 : XXXXXXXXXXXXXXXX XXXXXXXXXXXXXXXX XXXXXXXXXXXXXXXX XXXXXXXXXXXXXXXX
3E40 : XXXXXXXXXXXXXXXX XXXXXXXXXXXXXXXX XXXXXXXXXXXXXXXX XXXXXXXXXXXXXXXX
3E80 : XXXXXXXXXXXXXXXX XXXXXXXXXXXXXXXX XXXXXXXXXXXXXXXX XXXXXXXXXXXXXXXX
3EC0 : XXXXXXXXXXXXXXXX XXXXXXXXXXXXXXXX XXXXXXXXXX------ ----------------
3F00 : XXXXXXXXXXXXXXXX XXXXXXXXXXXXXXXX XXXXXXXXXXXXXXXX XXXXXXXXXXXXXXXX
3F40 : XXXXXXXXXXXXXXXX XXXXXXXXXXXXXXXX XXXXXXXXXXXXXXXX XXXXXXXXXXXXXXXX
3F80 : XXXXXXXXXXXXXXXX XXXXXXXXXXXXXXXX XXXXXXXXXXXXXXXX XXXXXXXXXXXXXXXX
3FC0 : XXXXXXXXXXXXXXXX XXXXXXXXXXXXXXXX XXXX------------ ----------------
4000 : XXXXXXXXXXXXXXXX XXXXXXXXXXXXXXXX XXXXXXXXXXXXXXXX XXXXXXXXXXXXXXXX
4040 : XXXXXXXXXXXXXXXX XXXXXXXXXXXXXXXX XXXXXXXXXXXXXXXX XXXXXXXXXXXXXXXX
4080 : XXXXXXXXXXXXXXXX XXXXXXXXXXXXXXXX XXXXXXXXXXXXXXXX XXXXXXXXXXXXXXXX
40C0 : XXXXXXXXXXXXXXXX XXXXXXXXXXXXXXXX XXXXXXXXXX------ ----------------
4100 : XXXXXXXXXXXXXXXX XXXXXXXXXXXXXXXX XXXXXXXXXXXXXXXX XXXXXXXXXXXXXXXX
4140 : XXXXXXXXXXXXXXXX XXXXXXXXXXXXXXXX XXXXXXXXXXXXXXXX XXXXXXXXXXXXXXXX
4180 : XXXXXXXXXXXXXXXX XXXXXXXXXXXXXXXX XXXXXXXXXXXXXXXX XXXXXXXXXXXXXXXX
41C0 : XXXXXXXXXXXXXXXX XXXXXXXXXXXXXXXX XXXX------------ ----------------
4200 : XXXXXXXXXXXXXXXX XXXXXXXXXXXXXXXX XXXXXXXXXXXXXXXX XXXXXXXXXXXXXXXX
4240 : XXXXXXXXXXXXXXXX XXXXXXXXXXXXXXXX XXXXXXXXXXXXXXXX XXXXXXXXXXXXXXXX
4280 : XXXXXXXXXXXXXXXX XXXXXXXXXXXXXXXX XXXXXXXXXXXXXXXX XXXXXXXXXXXXXXXX
42C0 : XXXXXXXXXXXXXXXX XXXXXXXXXXXXXXXX XXXX------------ ----------------
4300 : XXXXXXXXXXXXXXXX XXXXXXXXXXXXXXXX XXXXXXXXXXXXXXXX XXXXXXXXXXXXXXXX
4340 : XXXXXXXXXXXXXXXX XXXXXXXXXXXXXXXX XXXXXXXXXXXXXXXX XXXXXXXXXXXXXXXX
4380 : XXXXXXXXXXXXXXXX XXXXXXXXXXXXXXXX XXXXXXXXXXXXXXXX XXXXXXXXXXXXXXXX
43C0 : XXXXXXXXXXXXXXXX XXXXXXXXXXXXXXXX XXXX------------ ----------------
4400 : XXXXXXXXXXXXXXXX XXXXXXXXXXXXXXXX XXXXXXXXXXXXXXXX XXXXXXXXXXXXXXXX
4440 : XXXXXXXXXXXXXXXX XXXXXXXXXXXXXXXX XXXXXXXXXXXXXXXX XX--------------
4500 : XXXXXXXXXXXXXXXX XXXXXXXXXXXXXXXX XXXXXXXXXXXXXXXX XXXXXXXXXXXXXXXX
4540 : XXXXXXXXXXXXXXXX XXXXXXXXXXXXXXXX XXXXXXXXXXXXXXXX XX--------------
4600 : XXXXXXXXXXXXXXXX XXXXXXXXXXXXXXXX XXXXXXXXXXXXXXXX XXXXXXXXXXXXXXXX
4640 : XXXXXXXXXXXXXXXX XXXXXXXXXXXXXXXX XXXXXXXXXXXXXXXX XX--------------
4700 : XXXXXXXXXXXXXXXX XXXXXXXXXXXXXXXX XXXXXXXXXXXXXXXX XXXXXXXXXXXXXXXX
4740 : XXXXXXXXXXXXXXXX XXXXXXXXXXXXXXXX XXXXXXXXXXXXXXXX XX--------------
4800 : XXXXXXXXXXXXXXXX XXXXXXXXXXXXXXXX XXXXXXXXXXXXXXXX XXXXXXXXXXXXXXXX
4840 : XXXXXXXXXXXXXXXX XXXXXXXXXXXXXXXX XXXXXXXXXXXXXXXX XX--------------
4900 : XXXXXXXXXXXXXXXX XXXXXXXXXXXXXXXX XXXXXXXXXXXXXXXX XXXXXXXXXXXXXXXX
4940 : XXXXXXXXXXXXXXXX XXXXXXXXXXXXXXXX XXXXXXXXXXXXXXXX XX--------------
4A00 : XXXXXXXXXXXXXXXX XXXXXXXXXXXXXXXX XXXXXXXXXXXXXXXX XXXXXXXXXXXXXXXX
4A40 : XXXXXXXXXXXXXXXX XXXXXXXXXXXXXXXX XXXXXXXXXXXXXXXX XX--------------
4B00 : XXXXXXXXXXXXXXXX XXXXXXXXXXXXXXXX XXXXXXXXXXXXXXXX XXXXXXXXXXXXXXXX
4B40 : XXXXXXXXXXXXXXXX XXXXXXXXXXXXXXXX XXXXXXXXXXXXXXXX XX--------------
MPASM  5.51               20191125_RTCGPU.ASM   4-30-2024  22:19:12         PAGE 223


MEMORY USAGE MAP ('X' = Used,  '-' = Unused)


4C00 : XXXXXXXXXXXXXXXX XXXXXXXXXXXXXXXX XXXXXXXXXXXXXXXX XXXXXXXXXXXXXXXX
4C40 : XXXXXXXXXXXXXXXX XXXXXXXXXXXXXXXX XXXXXXXXXXXXXXXX XX--------------
4D00 : XXXXXXXXXXXXXXXX XXXXXXXXXXXXXXXX XXXXXXXXXXXXXXXX XXXXXXXXXXXXXXXX
4D40 : XXXXXXXXXXXXXXXX XXXXXXXXXXXXXXXX XXXXXXXXXXXXXXXX XX--------------
4E00 : XXXXXXXXXXXXXXXX XXXXXXXXXXXXXXXX XXXXXXXXXXXXXXXX XXXXXXXXXXXXXXXX
4E40 : XXXXXXXXXXXXXXXX XXXXXXXXXXXXXXXX XXXXXXXXXXXXXXXX XX--------------
4F00 : XXXXXXXXXXXXXXXX XXXXXXXXXXXXXXXX XXXXXXXXXXXXXXXX XXXXXXXXXXXXXXXX
4F40 : XXXXXXXXXXXXXXXX XXXXXXXXXXXXXXXX XXXXXXXXXXXXXXXX XX--------------
5000 : XXXXXXXXXXXXXXXX XXXXXXXXXXXXXXXX XXXXXXXXXXXXXXXX XXXXXXXXXXXXXXXX
5040 : XXXXXXXXXXXXXXXX XXXXXXXXXXXXXXXX XXXXXXXXXXXXXXXX XX--------------
5100 : XXXXXXXXXXXXXXXX XXXXXXXXXXXXXXXX XXXXXXXXXXXXXXXX XXXXXXXXXXXXXXXX
5140 : XXXXXXXXXXXXXXXX XXXXXXXXXXXXXXXX XXXXXXXXXXXXXXXX XX--------------
5200 : XXXXXXXXXXXXXXXX XXXXXXXXXXXXXXXX XXXXXXXXXXXXXXXX XXXXXXXXXXXXXXXX
5240 : XXXXXXXXXXXXXXXX XXXXXXXXXXXXXXXX XXXXXXXXXXXXXXXX XX--------------
5300 : XXXXXXXXXXXXXXXX XXXXXXXXXXXXXXXX XXXXXXXXXXXXXXXX XXXXXXXXXXXXXXXX
5340 : XXXXXXXXXXXXXXXX XXXXXXXXXXXXXXXX XXXXXXXXXXXXXXXX XX--------------
5400 : XXXXXXXXXXXXXXXX XXXXXXXXXXXXXXXX XXXXXXXXXXXXXXXX XXXXXXXXXXXXXXXX
5440 : XXXXXXXXXXXXXXXX XXXXXXXXXXXXXXXX XXXXXXXXXXXXXXXX XX--------------
5500 : XXXXXXXXXXXXXXXX XXXXXXXXXXXXXXXX XXXXXXXXXXXXXXXX XXXXXXXXXXXXXXXX
5540 : XXXXXXXXXXXXXXXX XXXXXXXXXXXXXXXX XXXXXXXXXXXXXXXX XX--------------
5600 : XXXXXXXXXXXXXXXX XXXXXXXXXXXXXXXX XXXXXXXXXXXXXXXX XXXXXXXXXXXXXXXX
5640 : XXXXXXXXXXXXXXXX XXXXXXXXXXXXXXXX XXXXXXXXXXXXXXXX XX--------------
5700 : XXXXXXXXXXXXXXXX XXXXXXXXXXXXXXXX XXXXXXXXXXXXXXXX XXXXXXXXXXXXXXXX
5740 : XXXXXXXXXXXXXXXX XXXXXXXXXXXXXXXX XXXXXXXXXXXXXXXX XX--------------
5800 : XXXXXXXXXXXXXXXX XXXXXXXXXXXXXXXX XXXXXXXXXXXXXXXX XXXXXXXXXXXXXXXX
5840 : XXXXXXXXXXXXXXXX XXXXXXXXXXXXXXXX XXXXXXXXXXXXXXXX XXXXXXXXXXXXXXXX
5880 : XXXXXXXXXXXXXXXX XXXXXXXXXXXXXXXX XXXXXXXXXXXXXXXX XXXXXXXXXXXXXXXX
58C0 : XXXXXXXXXXXXXXXX XXXXXXXXXXXXXXXX XXXX------------ ----------------
5900 : XXXXXXXXXXXXXXXX XXXXXXXXXXXXXXXX XXXXXXXXXXXXXXXX XXXXXXXXXXXXXXXX
5940 : XXXXXXXXXXXXXXXX XXXXXXXXXXXXXXXX XXXXXXXXXXXXXXXX XXXXXXXXXXXXXXXX
5980 : XXXXXXXXXXXXXXXX XXXXXXXXXXXXXXXX XXXXXXXXXXXXXXXX XXXXXXXXXXXXXXXX
59C0 : XXXXXXXXXXXXXXXX XXXXXXXXXXXXXXXX XXXX------------ ----------------
5A00 : XXXXXXXXXXXXXXXX XXXXXXXXXXXXXXXX XXXXXXXXXXXXXXXX XXXXXXXXXXXXXXXX
5A40 : XXXXXXXXXXXXXXXX XXXXXXXXXXXXXXXX XXXXXXXXXXXXXXXX XXXXXXXXXXXXXXXX
5A80 : XXXXXXXXXXXXXXXX XXXXXXXXXXXXXXXX XXXXXXXXXXXXXXXX XXXXXXXXXXXXXXXX
5AC0 : XXXXXXXXXXXXXXXX XXXXXXXXXXXXXXXX XXXX------------ ----------------
5B00 : XXXXXXXXXXXXXXXX XXXXXXXXXXXXXXXX XXXXXXXXXXXXXXXX XXXXXXXXXXXXXXXX
5B40 : XXXXXXXXXXXXXXXX XXXXXXXXXXXXXXXX XXXXXXXXXXXXXXXX XXXXXXXXXXXXXXXX
5B80 : XXXXXXXXXXXXXXXX XXXXXXXXXXXXXXXX XXXXXXXXXXXXXXXX XXXXXXXXXXXXXXXX
5BC0 : XXXXXXXXXXXXXXXX XXXXXXXXXXXXXXXX XXXX------------ ----------------
5C00 : XXXXXXXXXXXXXXXX XXXXXXXXXXXXXXXX XXXXXXXXXXXXXXXX XXXXXXXXXXXXXXXX
5C40 : XXXXXXXXXXXXXXXX XXXXXXXXXXXXXXXX XXXXXXXXXXXXXXXX XXXXXXXXXXXXXXXX
5C80 : XXXXXXXXXXXXXXXX XXXXXXXXXXXXXXXX XXXXXXXXXXXXXXXX XXXXXXXXXXXXXXXX
5CC0 : XXXXXXXXXXXXXXXX XXXXXXXXXXXXXXXX XXXX------------ ----------------
5D00 : XXXXXXXXXXXXXXXX XXXXXXXXXXXXXXXX XXXXXXXXXXXXXXXX XXXXXXXXXXXXXXXX
5D40 : XXXXXXXXXXXXXXXX XXXXXXXXXXXXXXXX XXXXXXXXXXXXXXXX XXXXXXXXXXXXXXXX
MPASM  5.51               20191125_RTCGPU.ASM   4-30-2024  22:19:12         PAGE 224


MEMORY USAGE MAP ('X' = Used,  '-' = Unused)


5D80 : XXXXXXXXXXXXXXXX XXXXXXXXXXXXXXXX XXXXXXXXXXXXXXXX XXXXXXXXXXXXXXXX
5DC0 : XXXXXXXXXXXXXXXX XXXXXXXXXXXXXXXX XXXX------------ ----------------
5E00 : XXXXXXXXXXXXXXXX XXXXXXXXXXXXXXXX XXXXXXXXXXXXXXXX XXXXXXXXXXXXXXXX
5E40 : XXXXXXXXXXXXXXXX XXXXXXXXXXXXXXXX XXXXXXXXXXXXXXXX XXXXXXXXXXXXXXXX
5E80 : XXXXXXXXXXXXXXXX XXXXXXXXXXXXXXXX XXXXXXXXXXXXXXXX XXXXXXXXXXXXXXXX
5EC0 : XXXXXXXXXXXXXXXX XXXXXXXXXXXXXXXX XXXX------------ ----------------
5F00 : XXXXXXXXXXXXXXXX XXXXXXXXXXXXXXXX XXXXXXXXXXXXXXXX XXXXXXXXXXXXXXXX
5F40 : XXXXXXXXXXXXXXXX XXXXXXXXXXXXXXXX XXXXXXXXXXXXXXXX XXXXXXXXXXXXXXXX
5F80 : XXXXXXXXXXXXXXXX XXXXXXXXXXXXXXXX XXXXXXXXXXXXXXXX XXXXXXXXXXXXXXXX
5FC0 : XXXXXXXXXXXXXXXX XXXXXXXXXXXXXXXX XXXX------------ ----------------
6000 : XXXXXXXXXXXXXXXX XXXXXXXXXXXXXXXX XXXXXXXXXXXXXXXX XXXXXXXXXXXXXXXX
6040 : XXXXXXXXXXXXXXXX XXXXXXXXXXXXXXXX XXXXXXXXXXXXXXXX XXXXXXXXXXXXXXXX
6080 : XXXXXXXXXXXXXXXX XXXXXXXXXXXXXXXX XXXXXXXXXXXXXXXX XXXXXXXXXXXXXXXX
60C0 : XXXXXXXXXXXXXXXX XXXXXXXXXXXXXXXX XXXX------------ ----------------
6100 : XXXXXXXXXXXXXXXX XXXXXXXXXXXXXXXX XXXXXXXXXXXXXXXX XXXXXXXXXXXXXXXX
6140 : XXXXXXXXXXXXXXXX XXXXXXXXXXXXXXXX XXXXXXXXXXXXXXXX XXXXXXXXXXXXXXXX
6180 : XXXXXXXXXXXXXXXX XXXXXXXXXXXXXXXX XXXXXXXXXXXXXXXX XXXXXXXXXXXXXXXX
61C0 : XXXXXXXXXXXXXXXX XXXXXXXXXXXXXXXX XXXX------------ ----------------
6200 : XXXXXXXXXXXXXXXX XXXXXXXXXXXXXXXX XXXXXXXXXXXXXXXX XXXXXXXXXXXXXXXX
6240 : XXXXXXXXXXXXXXXX XXXXXXXXXXXXXXXX XXXXXXXXXXXXXXXX XXXXXXXXXXXXXXXX
6280 : XXXXXXXXXXXXXXXX XXXXXXXXXXXXXXXX XXXXXXXXXXXXXXXX XXXXXXXXXXXXXXXX
62C0 : XXXXXXXXXXXXXXXX XXXXXXXXXXXXXXXX XXXX------------ ----------------
6300 : XXXXXXXXXXXXXXXX XXXXXXXXXXXXXXXX XXXXXXXXXXXXXXXX XXXXXXXXXXXXXXXX
6340 : XXXXXXXXXXXXXXXX XXXXXXXXXXXXXXXX XXXXXXXXXXXXXXXX XXXXXXXXXXXXXXXX
6380 : XXXXXXXXXXXXXXXX XXXXXXXXXXXXXXXX XXXXXXXXXXXXXXXX XXXXXXXXXXXXXXXX
63C0 : XXXXXXXXXXXXXXXX XXXXXXXXXXXXXXXX XXXX------------ ----------------
6400 : XXXXXXXXXXXXXXXX XXXXXXXXXXXXXXXX XXXXXXXXXXXXXXXX XXXXXXXXXXXXXXXX
6440 : XXXXXXXXXXXXXXXX XXXXXXXXXXXXXXXX XXXXXXXXXXXXXXXX XX--------------
6500 : XXXXXXXXXXXXXXXX XXXXXXXXXXXXXXXX XXXXXXXXXXXXXXXX XXXXXXXXXXXXXXXX
6540 : XXXXXXXXXXXXXXXX XXXXXXXXXXXXXXXX XXXXXXXXXXXXXXXX XX--------------
7000 : XXXXXXXXXXXXXXXX XXXXXXXXXXXXXXXX XXXXXXXXXXXXXXXX XXXXXXXXXXXXXXXX
7040 : XXXXXXXXXXXXXXXX XXXXXXXXXXXXXXXX XXXXXXXXXXXXXXXX XXXXXXXXXXXXXXXX
7080 : XXXXXXXXXXXXXXXX XXXXXXXXXXXXXXXX XXXXXXXXXXXXXXXX XXXXXXXXXXXXXXXX
70C0 : XXXXXXXXXXXXXXXX XXXXXXXXXXXXXXXX XXXXXXXX-------- ----------------
7100 : XXXXXXXXXXXXXXXX XXXXXXXXXXXXXXXX XXXXXXXXXXXXXXXX XXXXXXXXXXXXXXXX
7140 : XXXXXXXXXXXXXXXX XXXXXXXXXXXXXXXX XXXXXXXXXXXXXXXX XXXXXXXXXXXXXXXX
7180 : XXXXXXXXXXXXXXXX XXXXXXXXXXXXXXXX XXXXXXXXXX------ ----------------
7200 : XXXXXXXXXXXXXXXX XXXXXXXXXXXXXXXX XXXXXXXXXXXXXXXX XXXXXXXXXXXXXXXX
7240 : XXXXXXXXXXXXXXXX XXXXXXXXXXXXXXXX XXXXXXXXXXXXXXXX XXXXXXXXXXXXXXXX
7280 : XXXXXXXXXXXXXXXX XXXXXXXXXXXXXXXX XXXXXXXXXXXXXXXX XXXXXXXXXXXXXXXX
72C0 : XXXXXXXXXXXXXXXX XXXXXXXXXXXX---- ---------------- ----------------
7300 : XXXXXXXXXXXXXXXX XXXXXXXXXXXXXXXX XXXXXXXXXXXXXXXX XXXXXXXXXXXXXXXX
7340 : XXXXXXXXXXXXXXXX XXXXXXXXXXXXXXXX XXXXXXXXXXXXXXXX XXXXXXXXXXXXXXXX
7380 : XXXXXXXXXXXXXXXX XXXXXXXXXXXXXXXX XXXXXXXXXXXXXXXX XXXXXXXXXXXXXXXX
73C0 : XXXXXXXXXXXXXXXX XXXXXXXXXXXXXXXX XXXXXXXXXXXXXXXX XXXXXXXXXX------
7400 : XXXXXXXXXXXXXXXX XXXXXXXXXXXXXXXX XXXXXXXXXXXXXXXX XXXXXXXXXXXXXXXX
MPASM  5.51               20191125_RTCGPU.ASM   4-30-2024  22:19:12         PAGE 225


MEMORY USAGE MAP ('X' = Used,  '-' = Unused)


7440 : XXXXXXXXXXXXXXXX XXXXXXXXXXXXXXXX XXXXXXXXXXXXXXXX XXXXXXXXXXXXXXXX
7480 : XXXXXXXXXXXXXXXX XXXXXXXXXXXXXXXX XXXXXXXXXXXXXXXX XXXXXXXXXXXXXXXX
74C0 : XXXXXXXX-------- ---------------- ---------------- ----------------
8000 : XXXXXXXXXXXXXXXX XXXXXXXXXXXXXXXX XXXXXXXXXXXXXXXX XXXXXXXXXXXXXXXX
8040 : XXXXXXXXXXXXXXXX XXXXXXXXXXXXXXXX XXXXXXXXXXXXXXXX XXXXXXXXXXXXXXXX
8080 : XXXXXXXXXXXXXXXX XXXXXXXXXXXXXXXX XXXXXXXXXXXXXXXX XXXXXXXXXXXXXXXX
80C0 : XXXXXXXXXXXXXXXX XXXXXXXXXXXXXXXX XXXXXXXXXXXXXXXX XX--------------
9000 : XXXXXXXXXXXXXXXX XXXXXXXXXXXXXXXX XXXXXXXXXXXXXXXX XXXXXXXXXXXXXXXX
9040 : XXXXXXXXXXXXXXXX XXXXXXXXXXXXXXXX XXXXXXXXXXXXXXXX XXXXXXXXXXXXXXXX
9080 : XXXXXXXXXXXX---- ---------------- ---------------- ----------------
A000 : XXXXXXXXXXXXXXXX XXXXXXXXXXXXXXXX XXXXXXXXXXXXXXXX XXXXXXXXXXXXXXXX
A040 : XXXXXXXXXXXXXXXX XXXXXXXXXXXXXXXX XXXXXXXXXXXXXXXX XXXXXXXXXXXXXXXX
A080 : XXXXXXXXXXXXXXXX XXXXXXXXXXXXXXXX XXXXXXXXXXXXXXXX XXXXXXXXXXXXXXXX
A0C0 : XXXXXXXXXXXXXXXX XXXXXXXXXXXXXXXX XXXXXXXXXXXXXXXX XXXXXXXXXXXXXXXX
A100 : XXXXXXXXXXXXXXXX XXXXXXXXXXXXXXXX XXXXXXXXXXXXXXXX XXXXXXXXXXXXXXXX
A140 : XXXXXXXXXXXXXXXX XXXXXXXXXXXXXXXX XXXXXXXXXXXXXXXX XXXXXXXXXXXXXXXX
A180 : XXXXXXXXXXXXXXXX XXXXXXXXXXXXXXXX XXXXXXXXXXXXXXXX XXXXXXXXXXXXXXXX
A1C0 : XXXXXXXXXXXXXXXX XXXXXXXXXXXXXXXX XXXXXXXXXXXXXXXX XXXXXXXXXXXXXXXX
A200 : XXXXXXXXXXXXXXXX XXXXXXXXXXXXXXXX XXXXXXXXXXXXXXXX XXXXXXXXXXXXXXXX
A240 : XXXXXXXXXXXXXXXX XXXXXXXXXXXXXXXX XXXXXXXXXXXXXXXX XXXXXXXXXXXXXXXX
A280 : XXXXXXXXXXXXXXXX XXXXXXXXXXXXXXXX XXXXXXXXXXXXXXXX XXXXXXXXXXXXXXXX
A2C0 : XXXXXXXXXXXXXXXX XXXXXXXXXXXXXXXX XXXXXXXXXXXXXXXX XXXXXXXXXXXXXXXX
A300 : XXXXXXXXXXXXXXXX XXXXXXXXXXXXXXXX XXXXXXXXXXXXXXXX XXXXXXXXXXXXXXXX
A340 : XXXXXXXXXXXXXXXX XXXXXXXXXXXXXXXX XXXX------------ ----------------
B000 : XXXXXXXXXXXXXXXX XXXXXXXXXXXXXXXX XXXXXXXXXXXXXXXX XXXXXXXXXXXXXXXX
B040 : XXXXXXXXXXXXXXXX XXXXXXXXXXXXXXXX XXXXXXXXXXXXXXXX XXXXXXXXXXXXXXXX
B080 : XXXXXXXXXXXXXXXX XXXXXXXXXXXXXXXX XXXXXXXXXXXXXXXX XXXXXXXXXXXXXXXX
B0C0 : XXXXXXXXXXXXXXXX XXXXXXXXXXXXXXXX XXXXXXXXXXXXXXXX XXXXXXXXXXXXXXXX
B100 : XXXXXXXXXXXXXXXX XXXXXXXXXXXXXXXX XXXXXXXXXXXXXXXX XXXXXXXXXXXXXXXX
B140 : XXXXXXXXXXXXXXXX XXXXXXXXXXXXXXXX XXXXXXXXXXXXXXXX XXXXXXXXXXXXXXXX
B180 : XXXXXXXXXXXXXXXX XXXXXXXXXXXXXXXX XXXXXXXXXXXXXXXX XXXXXXXXXXXXXXXX
B1C0 : XXXXXXXXXXXXXXXX XXXXXXXXXXXXXXXX XXXXXXXXXXXXXXXX XXXXXXXXXXXXXXXX
B200 : XXXXXXXXXXXXXXXX XXXXXXXXXXXXXXXX XXXXXXXXXXXXXXXX XXXXXXXXXXXXXXXX
B240 : XXXXXXXXXXXXXXXX XXXXXXXXXXXXXXXX XXXXXXXXXXXXXXXX XXXXXXXXXXXXXXXX
B280 : XXXXXXXXXXXXXXXX XXXXXXXXXXXXXXXX XXXXXXXXXXXXXXXX XXXXXXXXXXXXXXXX
B2C0 : XXXXXXXXXXXXXXXX XXXXXXXXXXXXXXXX XXXXXXXXXXXXXXXX XXXXXXXXXXXXXXXX
B300 : XXXXXXXXXXXXXXXX XXXXXXXXXXXXXXXX XXXXXXXXXXXXXXXX XXXXXXXXXXXXXXXX
B340 : XXXXXXXXXXXXXXXX XXXXXXXXXXXXXXXX XXXXXXXXXXXXXXXX XXXXXXXXXXXXXXXX
B380 : XXXXXXXXXXXXXXXX XXXXXXXXXXXXXXXX XXXXXXXXXXXXXXXX XXXXXXXXXXXXXXXX
B3C0 : XXXXXXXXXXXXXXXX XXXXXXXXXXXXXXXX XXXXXXXXXXXXXXXX XXXXXXXXXXXXXXXX
B400 : XXXXXXXXXXXXXX-- ---------------- ---------------- ----------------
0000 : -XXX-XX-XXXXXX-- ---------------- ---------------- ----------------

All other memory blocks unused.

Program Memory Bytes Used: 23879
Program Memory Bytes Free: 41657


MPASM  5.51               20191125_RTCGPU.ASM   4-30-2024  22:19:12         PAGE 226





Errors   :     0
Warnings :   250 reported,     0 suppressed
Messages :     0 reported,     0 suppressed

