;/////////////////////////////////////////////////////////////////////////////////
;// Code Generator: BoostC Compiler - http://www.sourceboost.com
;// Version       : 6.95
;// License Type  : Full License
;// Limitations   : PIC12,PIC16 max code size:Unlimited, max RAM banks:Unlimited, Non commercial use only
;/////////////////////////////////////////////////////////////////////////////////

	ORG 0x00000000
0000  2883  	GOTO	_startup
	ORG 0x00000004
0004  00FF  	MOVWF Int1Context
0005  0E03  	SWAPF STATUS, W
0006  1283  	BCF STATUS, RP0
0007  1303  	BCF STATUS, RP1
0008  00B4  	MOVWF Int1BContext
0009  0E0A  	SWAPF PCLATH, W
000A  00B5  	MOVWF Int1BContext+D'1'
000B  0E04  	SWAPF FSR, W
000C  00B6  	MOVWF Int1BContext+D'2'
000D  118A  	BCF PCLATH,3
000E  120A  	BCF PCLATH,4
000F  28AB  	GOTO	interrupt
	ORG 0x00000010
0010        delay_ms_00000
0010        ; { delay_ms ; function begin
0010  08C2  	MOVF delay_ms_00000_arg_del, F
0011  1D03  	BTFSS STATUS,Z
0012  2814  	GOTO	label1
0013  0008  	RETURN
0014        label1
0014  30CC  	MOVLW 0xCC
0015        label2
0015  3EFF  	ADDLW 0xFF
0016  1D03  	BTFSS STATUS,Z
0017  2815  	GOTO	label2
0018  0000  	NOP
0019  0BC2  	DECFSZ delay_ms_00000_arg_del, F
001A  2814  	GOTO	label1
001B  0008  	RETURN
001C        ; } delay_ms function end

	ORG 0x0000001C
001C        FCD_RS2320_00048
001C        ; { FCD_RS2320_SendRS232Char ; function begin
001C  1683  	BSF STATUS, RP0
001D  1698  	BSF gbl_txsta,5
001E        label3
001E  1283  	BCF STATUS, RP0
001F  1E0C  	BTFSS gbl_pir1,4
0020  281E  	GOTO	label3
0021  0861  	MOVF FCD_RS2320_00048_arg_nChar, W
0022  0099  	MOVWF gbl_txreg
0023  0008  	RETURN
0024        ; } FCD_RS2320_SendRS232Char function end

	ORG 0x00000024
0024        FCD_RS2320_00049
0024        ; { FCD_RS2320_SendRS232String ; function begin
0024  01E0  	CLRF FCD_RS2320_00049_1_idx
0025        label4
0025  085F  	MOVF FCD_RS2320_00049_arg_MSZ_String, W
0026  0260  	SUBWF FCD_RS2320_00049_1_idx, W
0027  1803  	BTFSC STATUS,C
0028  0008  	RETURN
0029  1383  	BCF STATUS,IRP
002A  1843  	BTFSC FCD_RS2320_00049_arg_String+D'1',0
002B  1783  	BSF STATUS,IRP
002C  0842  	MOVF FCD_RS2320_00049_arg_String, W
002D  0760  	ADDWF FCD_RS2320_00049_1_idx, W
002E  0084  	MOVWF FSR
002F  0880  	MOVF INDF, F
0030  1903  	BTFSC STATUS,Z
0031  0008  	RETURN
0032  1383  	BCF STATUS,IRP
0033  1843  	BTFSC FCD_RS2320_00049_arg_String+D'1',0
0034  1783  	BSF STATUS,IRP
0035  0842  	MOVF FCD_RS2320_00049_arg_String, W
0036  0760  	ADDWF FCD_RS2320_00049_1_idx, W
0037  0084  	MOVWF FSR
0038  0800  	MOVF INDF, W
0039  00E1  	MOVWF FCD_RS2320_00048_arg_nChar
003A  01E2  	CLRF FCD_RS2320_00048_arg_nChar+D'1'
003B  201C  	CALL FCD_RS2320_00048
003C  0AE0  	INCF FCD_RS2320_00049_1_idx, F
003D  2825  	GOTO	label4
003E        ; } FCD_RS2320_SendRS232String function end

	ORG 0x0000003E
003E        main
003E        ; { main ; function begin
003E  1283  	BCF STATUS, RP0
003F  1703  	BSF STATUS, RP1
0040  019E  	CLRF gbl_ansel
0041  019F  	CLRF gbl_anselh
0042  3004  	MOVLW 0x04
0043  1683  	BSF STATUS, RP0
0044  1303  	BCF STATUS, RP1
0045  0098  	MOVWF gbl_txsta
0046  3014  	MOVLW 0x14
0047  0099  	MOVWF gbl_spbrg
0048  1283  	BCF STATUS, RP0
0049  0198  	CLRF gbl_rcsta
004A  1798  	BSF gbl_rcsta,7
004B  30C0  	MOVLW 0xC0
004C  1683  	BSF STATUS, RP0
004D  0081  	MOVWF gbl_option_reg
004E        label5
004E  3030  	MOVLW 0x30
004F  1283  	BCF STATUS, RP0
0050  00CB  	MOVWF CompTempVar2217+D'7'
0051  00D0  	MOVWF CompTempVar2217+D'12'
0052  3031  	MOVLW 0x31
0053  00CA  	MOVWF CompTempVar2217+D'6'
0054  00D2  	MOVWF CompTempVar2217+D'14'
0055  00D5  	MOVWF CompTempVar2217+D'17'
0056  00DB  	MOVWF CompTempVar2217+D'23'
0057  3032  	MOVLW 0x32
0058  00C8  	MOVWF CompTempVar2217+D'4'
0059  00D3  	MOVWF CompTempVar2217+D'15'
005A  00D8  	MOVWF CompTempVar2217+D'20'
005B  00DA  	MOVWF CompTempVar2217+D'22'
005C  3033  	MOVLW 0x33
005D  00C9  	MOVWF CompTempVar2217+D'5'
005E  00CD  	MOVWF CompTempVar2217+D'9'
005F  00D4  	MOVWF CompTempVar2217+D'16'
0060  00D6  	MOVWF CompTempVar2217+D'18'
0061  00D9  	MOVWF CompTempVar2217+D'21'
0062  3034  	MOVLW 0x34
0063  00D7  	MOVWF CompTempVar2217+D'19'
0064  3035  	MOVLW 0x35
0065  00C6  	MOVWF CompTempVar2217+D'2'
0066  00C7  	MOVWF CompTempVar2217+D'3'
0067  00D1  	MOVWF CompTempVar2217+D'13'
0068  3036  	MOVLW 0x36
0069  00CE  	MOVWF CompTempVar2217+D'10'
006A  3037  	MOVLW 0x37
006B  00CF  	MOVWF CompTempVar2217+D'11'
006C  3039  	MOVLW 0x39
006D  00CC  	MOVWF CompTempVar2217+D'8'
006E  3041  	MOVLW 0x41
006F  00C4  	MOVWF CompTempVar2217
0070  00C5  	MOVWF CompTempVar2217+D'1'
0071  00DC  	MOVWF CompTempVar2217+D'24'
0072  3042  	MOVLW 0x42
0073  00DD  	MOVWF CompTempVar2217+D'25'
0074  01DE  	CLRF CompTempVar2217+D'26'
0075  3000  	MOVLW HIGH(CompTempVar2217+D'0')
0076  00C3  	MOVWF FCD_RS2320_00049_arg_String+D'1'
0077  3044  	MOVLW LOW(CompTempVar2217+D'0')
0078  00C2  	MOVWF FCD_RS2320_00049_arg_String
0079  301A  	MOVLW 0x1A
007A  00DF  	MOVWF FCD_RS2320_00049_arg_MSZ_String
007B  2024  	CALL FCD_RS2320_00049
007C  30FF  	MOVLW 0xFF
007D  00C2  	MOVWF delay_ms_00000_arg_del
007E  2010  	CALL delay_ms_00000
007F  30F5  	MOVLW 0xF5
0080  00C2  	MOVWF delay_ms_00000_arg_del
0081  2010  	CALL delay_ms_00000
0082  284E  	GOTO	label5
0083        ; } main function end

	ORG 0x00000083
0083        _startup
0083  30D5  	MOVLW 0xD5
0084  1283  	BCF STATUS, RP0
0085  1303  	BCF STATUS, RP1
0086  00A0  	MOVWF gbl_16_LSR
0087  30C4  	MOVLW 0xC4
0088  00A1  	MOVWF gbl_16_LSR+D'1'
0089  30BB  	MOVLW 0xBB
008A  00A2  	MOVWF gbl_16_LSR+D'2'
008B  30DC  	MOVLW 0xDC
008C  00A3  	MOVWF gbl_16_LSR+D'3'
008D  01A4  	CLRF gbl_17_gbl_aSig
008E  01A5  	CLRF gbl_17_gbl_aSig+D'1'
008F  01A6  	CLRF gbl_17_gbl_aSig+D'2'
0090  01A7  	CLRF gbl_17_gbl_aSig+D'3'
0091  01A8  	CLRF gbl_17_gbl_bSig
0092  01A9  	CLRF gbl_17_gbl_bSig+D'1'
0093  01AA  	CLRF gbl_17_gbl_bSig+D'2'
0094  01AB  	CLRF gbl_17_gbl_bSig+D'3'
0095  01AC  	CLRF gbl_17_gbl_zSig
0096  01AD  	CLRF gbl_17_gbl_zSig+D'1'
0097  01AE  	CLRF gbl_17_gbl_zSig+D'2'
0098  01AF  	CLRF gbl_17_gbl_zSig+D'3'
0099  01BC  	CLRF gbl_17_gbl_aExp
009A  01BD  	CLRF gbl_17_gbl_bExp
009B  01B7  	CLRF gbl_17_gbl_zExp
009C  01B8  	CLRF gbl_17_gbl_zExp+D'1'
009D  01BE  	CLRF gbl_17_gbl_aSign
009E  01BF  	CLRF gbl_17_gbl_bSign
009F  01C0  	CLRF gbl_17_gbl_zSign
00A0  01C1  	CLRF gbl_17_gbl_zSigZero
00A1  01B0  	CLRF gbl_17_gbl_ret
00A2  01B1  	CLRF gbl_17_gbl_ret+D'1'
00A3  01B2  	CLRF gbl_17_gbl_ret+D'2'
00A4  01B3  	CLRF gbl_17_gbl_ret+D'3'
00A5  01BA  	CLRF gbl_float_rounding_mode
00A6  01BB  	CLRF gbl_float_exception_flags
00A7  01B9  	CLRF gbl_float_detect_tininess
00A8  118A  	BCF PCLATH,3
00A9  120A  	BCF PCLATH,4
00AA  283E  	GOTO	main
	ORG 0x000000AB
00AB        interrupt
00AB        ; { interrupt ; function begin
00AB  1283  	BCF STATUS, RP0
00AC  1303  	BCF STATUS, RP1
00AD  0E36  	SWAPF Int1BContext+D'2', W
00AE  0084  	MOVWF FSR
00AF  0E35  	SWAPF Int1BContext+D'1', W
00B0  008A  	MOVWF PCLATH
00B1  0E34  	SWAPF Int1BContext, W
00B2  0083  	MOVWF STATUS
00B3  0EFF  	SWAPF Int1Context, F
00B4  0E7F  	SWAPF Int1Context, W
00B5  0009  	RETFIE
00B6        ; } interrupt function end

	ORG 0x00002007
2007  30D2  	DW 0x30D2
