;/////////////////////////////////////////////////////////////////////////////////
;// Code Generator: BoostC Compiler - http://www.sourceboost.com
;// Version       : 6.95
;// License Type  : Full License
;// Limitations   : PIC12,PIC16 max code size:Unlimited, max RAM banks:Unlimited, Non commercial use only
;/////////////////////////////////////////////////////////////////////////////////

	ORG 0x00000000
0000  2A4E  	GOTO	_startup
	ORG 0x00000004
0004  00FF  	MOVWF Int1Context
0005  0E03  	SWAPF STATUS, W
0006  1283  	BCF STATUS, RP0
0007  1303  	BCF STATUS, RP1
0008  00CE  	MOVWF Int1BContext
0009  0E0A  	SWAPF PCLATH, W
000A  00CF  	MOVWF Int1BContext+D'1'
000B  0E04  	SWAPF FSR, W
000C  00D0  	MOVWF Int1BContext+D'2'
000D  118A  	BCF PCLATH,3
000E  120A  	BCF PCLATH,4
000F  2A76  	GOTO	interrupt
	ORG 0x00000010
0010        delay_us_00000
0010        ; { delay_us ; function begin
0010        label1
0010  0000  	NOP
0011  0000  	NOP
0012  0BE7  	DECFSZ delay_us_00000_arg_del, F
0013  2810  	GOTO	label1
0014  0008  	RETURN
0015        ; } delay_us function end

	ORG 0x00000015
0015        delay_10us_00000
0015        ; { delay_10us ; function begin
0015  08F3  	MOVF delay_10us_00000_arg_del, F
0016  1D03  	BTFSS STATUS,Z
0017  2819  	GOTO	label2
0018  0008  	RETURN
0019        label2
0019  3009  	MOVLW 0x09
001A        label3
001A  0000  	NOP
001B  3EFF  	ADDLW 0xFF
001C  1D03  	BTFSS STATUS,Z
001D  281A  	GOTO	label3
001E  0000  	NOP
001F  0000  	NOP
0020  0BF3  	DECFSZ delay_10us_00000_arg_del, F
0021  2819  	GOTO	label2
0022  0008  	RETURN
0023        ; } delay_10us function end

	ORG 0x00000023
0023        Wdt_msDela_00045
0023        ; { Wdt_msDelay ; function begin
0023  1283  	BCF STATUS, RP0
0024  1303  	BCF STATUS, RP1
0025  01E6  	CLRF Wdt_msDela_00045_1_i
0026        label4
0026  304B  	MOVLW 0x4B
0027  0266  	SUBWF Wdt_msDela_00045_1_i, W
0028  1803  	BTFSC STATUS,C
0029  0008  	RETURN
002A  0064  	CLRWDT
002B  300A  	MOVLW 0x0A
002C  00E7  	MOVWF delay_us_00000_arg_del
002D  2010  	CALL delay_us_00000
002E  0AE6  	INCF Wdt_msDela_00045_1_i, F
002F  2826  	GOTO	label4
0030        ; } Wdt_msDelay function end

	ORG 0x00000030
0030        Wdt_Delay__00047
0030        ; { Wdt_Delay_Ms ; function begin
0030  01E4  	CLRF Wdt_Delay__00047_1_i
0031  01E5  	CLRF Wdt_Delay__00047_1_i+D'1'
0032        label5
0032  0865  	MOVF Wdt_Delay__00047_1_i+D'1', W
0033  3A80  	XORLW 0x80
0034  00E6  	MOVWF CompTempVar2178
0035  0863  	MOVF Wdt_Delay__00047_arg_delay+D'1', W
0036  3A80  	XORLW 0x80
0037  0266  	SUBWF CompTempVar2178, W
0038  1D03  	BTFSS STATUS,Z
0039  283C  	GOTO	label6
003A  0862  	MOVF Wdt_Delay__00047_arg_delay, W
003B  0264  	SUBWF Wdt_Delay__00047_1_i, W
003C        label6
003C  1803  	BTFSC STATUS,C
003D  0008  	RETURN
003E  2023  	CALL Wdt_msDela_00045
003F  0AE4  	INCF Wdt_Delay__00047_1_i, F
0040  1903  	BTFSC STATUS,Z
0041  0AE5  	INCF Wdt_Delay__00047_1_i+D'1', F
0042  2832  	GOTO	label5
0043        ; } Wdt_Delay_Ms function end

	ORG 0x00000043
0043        FCD_LCDDis_00048
0043        ; { FCD_LCDDisplay0_RawSend ; function begin
0043  1283  	BCF STATUS, RP0
0044  1303  	BCF STATUS, RP1
0045  1287  	BCF gbl_portc,5
0046  1187  	BCF gbl_portc,3
0047  1207  	BCF gbl_portc,4
0048  1107  	BCF gbl_portc,2
0049  1007  	BCF gbl_portc,0
004A  1087  	BCF gbl_portc,1
004B  0E70  	SWAPF FCD_LCDDis_00048_arg_in, W
004C  390F  	ANDLW 0x0F
004D  00F2  	MOVWF FCD_LCDDis_00048_1_pt
004E  300F  	MOVLW 0x0F
004F  05F2  	ANDWF FCD_LCDDis_00048_1_pt, F
0050  1872  	BTFSC FCD_LCDDis_00048_1_pt,0
0051  1687  	BSF gbl_portc,5
0052  18F2  	BTFSC FCD_LCDDis_00048_1_pt,1
0053  1587  	BSF gbl_portc,3
0054  1972  	BTFSC FCD_LCDDis_00048_1_pt,2
0055  1607  	BSF gbl_portc,4
0056  19F2  	BTFSC FCD_LCDDis_00048_1_pt,3
0057  1507  	BSF gbl_portc,2
0058  08F1  	MOVF FCD_LCDDis_00048_arg_mask, F
0059  1D03  	BTFSS STATUS,Z
005A  1407  	BSF gbl_portc,0
005B  300A  	MOVLW 0x0A
005C  00F3  	MOVWF delay_10us_00000_arg_del
005D  2015  	CALL delay_10us_00000
005E  1487  	BSF gbl_portc,1
005F  300A  	MOVLW 0x0A
0060  00F3  	MOVWF delay_10us_00000_arg_del
0061  2015  	CALL delay_10us_00000
0062  1087  	BCF gbl_portc,1
0063  300F  	MOVLW 0x0F
0064  0570  	ANDWF FCD_LCDDis_00048_arg_in, W
0065  00F2  	MOVWF FCD_LCDDis_00048_1_pt
0066  300A  	MOVLW 0x0A
0067  00F3  	MOVWF delay_10us_00000_arg_del
0068  2015  	CALL delay_10us_00000
0069  1287  	BCF gbl_portc,5
006A  1187  	BCF gbl_portc,3
006B  1207  	BCF gbl_portc,4
006C  1107  	BCF gbl_portc,2
006D  1007  	BCF gbl_portc,0
006E  1087  	BCF gbl_portc,1
006F  1872  	BTFSC FCD_LCDDis_00048_1_pt,0
0070  1687  	BSF gbl_portc,5
0071  18F2  	BTFSC FCD_LCDDis_00048_1_pt,1
0072  1587  	BSF gbl_portc,3
0073  1972  	BTFSC FCD_LCDDis_00048_1_pt,2
0074  1607  	BSF gbl_portc,4
0075  19F2  	BTFSC FCD_LCDDis_00048_1_pt,3
0076  1507  	BSF gbl_portc,2
0077  08F1  	MOVF FCD_LCDDis_00048_arg_mask, F
0078  1D03  	BTFSS STATUS,Z
0079  1407  	BSF gbl_portc,0
007A  300A  	MOVLW 0x0A
007B  00F3  	MOVWF delay_10us_00000_arg_del
007C  2015  	CALL delay_10us_00000
007D  1487  	BSF gbl_portc,1
007E  300A  	MOVLW 0x0A
007F  00F3  	MOVWF delay_10us_00000_arg_del
0080  2015  	CALL delay_10us_00000
0081  1087  	BCF gbl_portc,1
0082  300A  	MOVLW 0x0A
0083  00F3  	MOVWF delay_10us_00000_arg_del
0084  2015  	CALL delay_10us_00000
0085  0008  	RETURN
0086        ; } FCD_LCDDisplay0_RawSend function end

	ORG 0x00000086
0086        FCD_RS2320_00056
0086        ; { FCD_RS2320_ReceiveRS232Char ; function begin
0086  01E7  	CLRF FCD_RS2320_00056_1_delay1
0087  01E8  	CLRF FCD_RS2320_00056_1_delay2
0088  01E9  	CLRF FCD_RS2320_00056_1_regcheck
0089  01EA  	CLRF FCD_RS2320_00056_1_dummy
008A  01EB  	CLRF FCD_RS2320_00056_1_retVal
008B  3002  	MOVLW 0x02
008C  00EC  	MOVWF FCD_RS2320_00056_1_retVal+D'1'
008D  01ED  	CLRF FCD_RS2320_00056_1_bWaitForever
008E  01EE  	CLRF FCD_RS2320_00056_1_rxStatus
008F  3008  	MOVLW 0x08
0090  00EF  	MOVWF FCD_RS2320_00056_1_count
0091  30FF  	MOVLW 0xFF
0092  00EB  	MOVWF FCD_RS2320_00056_1_retVal
0093  01EC  	CLRF FCD_RS2320_00056_1_retVal+D'1'
0094  30FF  	MOVLW 0xFF
0095  0665  	XORWF FCD_RS2320_00056_arg_nTimeout, W
0096  1903  	BTFSC STATUS,Z
0097  0866  	MOVF FCD_RS2320_00056_arg_nTimeout+D'1', W
0098  1D03  	BTFSS STATUS,Z
0099  289C  	GOTO	label7
009A  3001  	MOVLW 0x01
009B  00ED  	MOVWF FCD_RS2320_00056_1_bWaitForever
009C        label7
009C  1618  	BSF gbl_rcsta,4
009D        label8
009D  08EE  	MOVF FCD_RS2320_00056_1_rxStatus, F
009E  1D03  	BTFSS STATUS,Z
009F  28BF  	GOTO	label11
00A0  08ED  	MOVF FCD_RS2320_00056_1_bWaitForever, F
00A1  1D03  	BTFSS STATUS,Z
00A2  28B6  	GOTO	label10
00A3  08E5  	MOVF FCD_RS2320_00056_arg_nTimeout, F
00A4  1D03  	BTFSS STATUS,Z
00A5  28AC  	GOTO	label9
00A6  08E6  	MOVF FCD_RS2320_00056_arg_nTimeout+D'1', F
00A7  1D03  	BTFSS STATUS,Z
00A8  28AC  	GOTO	label9
00A9  3001  	MOVLW 0x01
00AA  00EE  	MOVWF FCD_RS2320_00056_1_rxStatus
00AB  28B6  	GOTO	label10
00AC        label9
00AC  0367  	DECF FCD_RS2320_00056_1_delay1, W
00AD  00E7  	MOVWF FCD_RS2320_00056_1_delay1
00AE  08E7  	MOVF FCD_RS2320_00056_1_delay1, F
00AF  1D03  	BTFSS STATUS,Z
00B0  28B6  	GOTO	label10
00B1  3001  	MOVLW 0x01
00B2  02E5  	SUBWF FCD_RS2320_00056_arg_nTimeout, F
00B3  08E6  	MOVF FCD_RS2320_00056_arg_nTimeout+D'1', F
00B4  1C03  	BTFSS STATUS,C
00B5  03E6  	DECF FCD_RS2320_00056_arg_nTimeout+D'1', F
00B6        label10
00B6  3020  	MOVLW 0x20
00B7  050C  	ANDWF gbl_pir1, W
00B8  00E9  	MOVWF FCD_RS2320_00056_1_regcheck
00B9  08E9  	MOVF FCD_RS2320_00056_1_regcheck, F
00BA  1903  	BTFSC STATUS,Z
00BB  289D  	GOTO	label8
00BC  3002  	MOVLW 0x02
00BD  00EE  	MOVWF FCD_RS2320_00056_1_rxStatus
00BE  289D  	GOTO	label8
00BF        label11
00BF  086E  	MOVF FCD_RS2320_00056_1_rxStatus, W
00C0  3A02  	XORLW 0x02
00C1  1D03  	BTFSS STATUS,Z
00C2  28D8  	GOTO	label14
00C3  3004  	MOVLW 0x04
00C4  0518  	ANDWF gbl_rcsta, W
00C5  00E9  	MOVWF FCD_RS2320_00056_1_regcheck
00C6  08E9  	MOVF FCD_RS2320_00056_1_regcheck, F
00C7  1903  	BTFSC STATUS,Z
00C8  28CC  	GOTO	label12
00C9  081A  	MOVF gbl_rcreg, W
00CA  00EA  	MOVWF FCD_RS2320_00056_1_dummy
00CB  28D8  	GOTO	label14
00CC        label12
00CC  3002  	MOVLW 0x02
00CD  0518  	ANDWF gbl_rcsta, W
00CE  00E9  	MOVWF FCD_RS2320_00056_1_regcheck
00CF  08E9  	MOVF FCD_RS2320_00056_1_regcheck, F
00D0  1903  	BTFSC STATUS,Z
00D1  28D5  	GOTO	label13
00D2  1218  	BCF gbl_rcsta,4
00D3  1618  	BSF gbl_rcsta,4
00D4  28D8  	GOTO	label14
00D5        label13
00D5  081A  	MOVF gbl_rcreg, W
00D6  00EB  	MOVWF FCD_RS2320_00056_1_retVal
00D7  01EC  	CLRF FCD_RS2320_00056_1_retVal+D'1'
00D8        label14
00D8  086B  	MOVF FCD_RS2320_00056_1_retVal, W
00D9  00F0  	MOVWF CompTempVarRet2238
00DA  086C  	MOVF FCD_RS2320_00056_1_retVal+D'1', W
00DB  00F1  	MOVWF CompTempVarRet2238+D'1'
00DC  0008  	RETURN
00DD        ; } FCD_RS2320_ReceiveRS232Char function end

	ORG 0x000000DD
00DD        FCD_LCDDis_0004D
00DD        ; { FCD_LCDDisplay0_Cursor ; function begin
00DD  08E1  	MOVF FCD_LCDDis_0004D_arg_y, F
00DE  1D03  	BTFSS STATUS,Z
00DF  28E3  	GOTO	label15
00E0  3080  	MOVLW 0x80
00E1  00E1  	MOVWF FCD_LCDDis_0004D_arg_y
00E2  28F2  	GOTO	label18
00E3        label15
00E3  0361  	DECF FCD_LCDDis_0004D_arg_y, W
00E4  1D03  	BTFSS STATUS,Z
00E5  28E9  	GOTO	label16
00E6  30C0  	MOVLW 0xC0
00E7  00E1  	MOVWF FCD_LCDDis_0004D_arg_y
00E8  28F2  	GOTO	label18
00E9        label16
00E9  0861  	MOVF FCD_LCDDis_0004D_arg_y, W
00EA  3A02  	XORLW 0x02
00EB  1D03  	BTFSS STATUS,Z
00EC  28F0  	GOTO	label17
00ED  3090  	MOVLW 0x90
00EE  00E1  	MOVWF FCD_LCDDis_0004D_arg_y
00EF  28F2  	GOTO	label18
00F0        label17
00F0  30D0  	MOVLW 0xD0
00F1  00E1  	MOVWF FCD_LCDDis_0004D_arg_y
00F2        label18
00F2  0860  	MOVF FCD_LCDDis_0004D_arg_x, W
00F3  0761  	ADDWF FCD_LCDDis_0004D_arg_y, W
00F4  00F0  	MOVWF FCD_LCDDis_00048_arg_in
00F5  01F1  	CLRF FCD_LCDDis_00048_arg_mask
00F6  2043  	CALL FCD_LCDDis_00048
00F7  3002  	MOVLW 0x02
00F8  00E2  	MOVWF Wdt_Delay__00047_arg_delay
00F9  01E3  	CLRF Wdt_Delay__00047_arg_delay+D'1'
00FA  2030  	CALL Wdt_Delay__00047
00FB  0008  	RETURN
00FC        ; } FCD_LCDDisplay0_Cursor function end

	ORG 0x000000FC
00FC        FCD_RS2320_00057
00FC        ; { FCD_RS2320_ReceiveRS232String ; function begin
00FC  0861  	MOVF FCD_RS2320_00057_arg_NumBytes, W
00FD  025F  	SUBWF FCD_RS2320_00057_arg_FCR_R_00058, W
00FE  1803  	BTFSC STATUS,C
00FF  2902  	GOTO	label19
0100  085F  	MOVF FCD_RS2320_00057_arg_FCR_R_00058, W
0101  00E1  	MOVWF FCD_RS2320_00057_arg_NumBytes
0102        label19
0102  01E2  	CLRF FCD_RS2320_00057_1_idx
0103        label20
0103  0861  	MOVF FCD_RS2320_00057_arg_NumBytes, W
0104  0262  	SUBWF FCD_RS2320_00057_1_idx, W
0105  1803  	BTFSC STATUS,C
0106  2924  	GOTO	label23
0107  0860  	MOVF FCD_RS2320_00057_arg_nTimeout, W
0108  00E5  	MOVWF FCD_RS2320_00056_arg_nTimeout
0109  01E6  	CLRF FCD_RS2320_00056_arg_nTimeout+D'1'
010A  2086  	CALL FCD_RS2320_00056
010B  0870  	MOVF CompTempVarRet2238, W
010C  00E3  	MOVWF FCD_RS2320_00057_1_in
010D  0871  	MOVF CompTempVarRet2238+D'1', W
010E  00E4  	MOVWF FCD_RS2320_00057_1_in+D'1'
010F  30FF  	MOVLW 0xFF
0110  0263  	SUBWF FCD_RS2320_00057_1_in, W
0111  0864  	MOVF FCD_RS2320_00057_1_in+D'1', W
0112  1803  	BTFSC STATUS,C
0113  2916  	GOTO	label21
0114  1903  	BTFSC STATUS,Z
0115  2918  	GOTO	label22
0116        label21
0116  1FE4  	BTFSS FCD_RS2320_00057_1_in+D'1',7
0117  2924  	GOTO	label23
0118        label22
0118  0863  	MOVF FCD_RS2320_00057_1_in, W
0119  00E5  	MOVWF CompTempVar2242
011A  1383  	BCF STATUS,IRP
011B  185E  	BTFSC FCD_RS2320_00057_arg_FCR_RETVAL+D'1',0
011C  1783  	BSF STATUS,IRP
011D  085D  	MOVF FCD_RS2320_00057_arg_FCR_RETVAL, W
011E  0762  	ADDWF FCD_RS2320_00057_1_idx, W
011F  0084  	MOVWF FSR
0120  0865  	MOVF CompTempVar2242, W
0121  0080  	MOVWF INDF
0122  0AE2  	INCF FCD_RS2320_00057_1_idx, F
0123  2903  	GOTO	label20
0124        label23
0124  085F  	MOVF FCD_RS2320_00057_arg_FCR_R_00058, W
0125  0262  	SUBWF FCD_RS2320_00057_1_idx, W
0126  1803  	BTFSC STATUS,C
0127  0008  	RETURN
0128  1383  	BCF STATUS,IRP
0129  185E  	BTFSC FCD_RS2320_00057_arg_FCR_RETVAL+D'1',0
012A  1783  	BSF STATUS,IRP
012B  085D  	MOVF FCD_RS2320_00057_arg_FCR_RETVAL, W
012C  0762  	ADDWF FCD_RS2320_00057_1_idx, W
012D  0084  	MOVWF FSR
012E  3000  	MOVLW 0x00
012F  0080  	MOVWF INDF
0130  0008  	RETURN
0131        ; } FCD_RS2320_ReceiveRS232String function end

	ORG 0x00000131
0131        FCD_LCDDis_00052
0131        ; { FCD_LCDDisplay0_ClearLine ; function begin
0131  3010  	MOVLW 0x10
0132  00DF  	MOVWF FCD_LCDDis_00052_1_rowcount
0133  01E0  	CLRF FCD_LCDDis_0004D_arg_x
0134  085D  	MOVF FCD_LCDDis_00052_arg_Line, W
0135  00E1  	MOVWF FCD_LCDDis_0004D_arg_y
0136  20DD  	CALL FCD_LCDDis_0004D
0137  01DE  	CLRF FCD_LCDDis_00052_1_count
0138        label24
0138  085F  	MOVF FCD_LCDDis_00052_1_rowcount, W
0139  025E  	SUBWF FCD_LCDDis_00052_1_count, W
013A  1803  	BTFSC STATUS,C
013B  2943  	GOTO	label25
013C  3020  	MOVLW 0x20
013D  00F0  	MOVWF FCD_LCDDis_00048_arg_in
013E  3010  	MOVLW 0x10
013F  00F1  	MOVWF FCD_LCDDis_00048_arg_mask
0140  2043  	CALL FCD_LCDDis_00048
0141  0ADE  	INCF FCD_LCDDis_00052_1_count, F
0142  2938  	GOTO	label24
0143        label25
0143  01E0  	CLRF FCD_LCDDis_0004D_arg_x
0144  085D  	MOVF FCD_LCDDis_00052_arg_Line, W
0145  00E1  	MOVWF FCD_LCDDis_0004D_arg_y
0146  20DD  	CALL FCD_LCDDis_0004D
0147  0008  	RETURN
0148        ; } FCD_LCDDisplay0_ClearLine function end

	ORG 0x00000148
0148        FCD_LCDDis_0004F
0148        ; { FCD_LCDDisplay0_PrintString ; function begin
0148  01EF  	CLRF FCD_LCDDis_0004F_1_idx
0149  01EF  	CLRF FCD_LCDDis_0004F_1_idx
014A        label26
014A  086E  	MOVF FCD_LCDDis_0004F_arg_MSZ_String, W
014B  026F  	SUBWF FCD_LCDDis_0004F_1_idx, W
014C  1803  	BTFSC STATUS,C
014D  0008  	RETURN
014E  1383  	BCF STATUS,IRP
014F  185E  	BTFSC FCD_LCDDis_0004F_arg_String+D'1',0
0150  1783  	BSF STATUS,IRP
0151  085D  	MOVF FCD_LCDDis_0004F_arg_String, W
0152  076F  	ADDWF FCD_LCDDis_0004F_1_idx, W
0153  0084  	MOVWF FSR
0154  0880  	MOVF INDF, F
0155  1903  	BTFSC STATUS,Z
0156  0008  	RETURN
0157  1383  	BCF STATUS,IRP
0158  185E  	BTFSC FCD_LCDDis_0004F_arg_String+D'1',0
0159  1783  	BSF STATUS,IRP
015A  085D  	MOVF FCD_LCDDis_0004F_arg_String, W
015B  076F  	ADDWF FCD_LCDDis_0004F_1_idx, W
015C  0084  	MOVWF FSR
015D  0800  	MOVF INDF, W
015E  00F0  	MOVWF FCD_LCDDis_00048_arg_in
015F  3010  	MOVLW 0x10
0160  00F1  	MOVWF FCD_LCDDis_00048_arg_mask
0161  2043  	CALL FCD_LCDDis_00048
0162  0AEF  	INCF FCD_LCDDis_0004F_1_idx, F
0163  294A  	GOTO	label26
0164        ; } FCD_LCDDisplay0_PrintString function end

	ORG 0x00000164
0164        FCD_LCDDis_0004A
0164        ; { FCD_LCDDisplay0_Clear ; function begin
0164  3001  	MOVLW 0x01
0165  00F0  	MOVWF FCD_LCDDis_00048_arg_in
0166  01F1  	CLRF FCD_LCDDis_00048_arg_mask
0167  2043  	CALL FCD_LCDDis_00048
0168  3002  	MOVLW 0x02
0169  00E2  	MOVWF Wdt_Delay__00047_arg_delay
016A  01E3  	CLRF Wdt_Delay__00047_arg_delay+D'1'
016B  2030  	CALL Wdt_Delay__00047
016C  3002  	MOVLW 0x02
016D  00F0  	MOVWF FCD_LCDDis_00048_arg_in
016E  01F1  	CLRF FCD_LCDDis_00048_arg_mask
016F  2043  	CALL FCD_LCDDis_00048
0170  3002  	MOVLW 0x02
0171  00E2  	MOVWF Wdt_Delay__00047_arg_delay
0172  01E3  	CLRF Wdt_Delay__00047_arg_delay+D'1'
0173  2030  	CALL Wdt_Delay__00047
0174  0008  	RETURN
0175        ; } FCD_LCDDisplay0_Clear function end

	ORG 0x00000175
0175        FCD_LCDDis_00049
0175        ; { FCD_LCDDisplay0_Start ; function begin
0175  1683  	BSF STATUS, RP0
0176  1303  	BCF STATUS, RP1
0177  1287  	BCF gbl_trisc,5
0178  1187  	BCF gbl_trisc,3
0179  1207  	BCF gbl_trisc,4
017A  1107  	BCF gbl_trisc,2
017B  1007  	BCF gbl_trisc,0
017C  1087  	BCF gbl_trisc,1
017D  300C  	MOVLW 0x0C
017E  1283  	BCF STATUS, RP0
017F  00E2  	MOVWF Wdt_Delay__00047_arg_delay
0180  01E3  	CLRF Wdt_Delay__00047_arg_delay+D'1'
0181  2030  	CALL Wdt_Delay__00047
0182  3033  	MOVLW 0x33
0183  00F0  	MOVWF FCD_LCDDis_00048_arg_in
0184  01F1  	CLRF FCD_LCDDis_00048_arg_mask
0185  2043  	CALL FCD_LCDDis_00048
0186  3002  	MOVLW 0x02
0187  00E2  	MOVWF Wdt_Delay__00047_arg_delay
0188  01E3  	CLRF Wdt_Delay__00047_arg_delay+D'1'
0189  2030  	CALL Wdt_Delay__00047
018A  3033  	MOVLW 0x33
018B  00F0  	MOVWF FCD_LCDDis_00048_arg_in
018C  01F1  	CLRF FCD_LCDDis_00048_arg_mask
018D  2043  	CALL FCD_LCDDis_00048
018E  3002  	MOVLW 0x02
018F  00E2  	MOVWF Wdt_Delay__00047_arg_delay
0190  01E3  	CLRF Wdt_Delay__00047_arg_delay+D'1'
0191  2030  	CALL Wdt_Delay__00047
0192  3032  	MOVLW 0x32
0193  00F0  	MOVWF FCD_LCDDis_00048_arg_in
0194  01F1  	CLRF FCD_LCDDis_00048_arg_mask
0195  2043  	CALL FCD_LCDDis_00048
0196  3002  	MOVLW 0x02
0197  00E2  	MOVWF Wdt_Delay__00047_arg_delay
0198  01E3  	CLRF Wdt_Delay__00047_arg_delay+D'1'
0199  2030  	CALL Wdt_Delay__00047
019A  302C  	MOVLW 0x2C
019B  00F0  	MOVWF FCD_LCDDis_00048_arg_in
019C  01F1  	CLRF FCD_LCDDis_00048_arg_mask
019D  2043  	CALL FCD_LCDDis_00048
019E  3002  	MOVLW 0x02
019F  00E2  	MOVWF Wdt_Delay__00047_arg_delay
01A0  01E3  	CLRF Wdt_Delay__00047_arg_delay+D'1'
01A1  2030  	CALL Wdt_Delay__00047
01A2  3006  	MOVLW 0x06
01A3  00F0  	MOVWF FCD_LCDDis_00048_arg_in
01A4  01F1  	CLRF FCD_LCDDis_00048_arg_mask
01A5  2043  	CALL FCD_LCDDis_00048
01A6  3002  	MOVLW 0x02
01A7  00E2  	MOVWF Wdt_Delay__00047_arg_delay
01A8  01E3  	CLRF Wdt_Delay__00047_arg_delay+D'1'
01A9  2030  	CALL Wdt_Delay__00047
01AA  300C  	MOVLW 0x0C
01AB  00F0  	MOVWF FCD_LCDDis_00048_arg_in
01AC  01F1  	CLRF FCD_LCDDis_00048_arg_mask
01AD  2043  	CALL FCD_LCDDis_00048
01AE  3002  	MOVLW 0x02
01AF  00E2  	MOVWF Wdt_Delay__00047_arg_delay
01B0  01E3  	CLRF Wdt_Delay__00047_arg_delay+D'1'
01B1  2030  	CALL Wdt_Delay__00047
01B2  3001  	MOVLW 0x01
01B3  00F0  	MOVWF FCD_LCDDis_00048_arg_in
01B4  01F1  	CLRF FCD_LCDDis_00048_arg_mask
01B5  2043  	CALL FCD_LCDDis_00048
01B6  3002  	MOVLW 0x02
01B7  00E2  	MOVWF Wdt_Delay__00047_arg_delay
01B8  01E3  	CLRF Wdt_Delay__00047_arg_delay+D'1'
01B9  2030  	CALL Wdt_Delay__00047
01BA  3002  	MOVLW 0x02
01BB  00F0  	MOVWF FCD_LCDDis_00048_arg_in
01BC  01F1  	CLRF FCD_LCDDis_00048_arg_mask
01BD  2043  	CALL FCD_LCDDis_00048
01BE  3002  	MOVLW 0x02
01BF  00E2  	MOVWF Wdt_Delay__00047_arg_delay
01C0  01E3  	CLRF Wdt_Delay__00047_arg_delay+D'1'
01C1  2030  	CALL Wdt_Delay__00047
01C2  0008  	RETURN
01C3        ; } FCD_LCDDisplay0_Start function end

	ORG 0x000001C3
01C3        main
01C3        ; { main ; function begin
01C3  1283  	BCF STATUS, RP0
01C4  1703  	BSF STATUS, RP1
01C5  019E  	CLRF gbl_ansel
01C6  019F  	CLRF gbl_anselh
01C7  3004  	MOVLW 0x04
01C8  1683  	BSF STATUS, RP0
01C9  1303  	BCF STATUS, RP1
01CA  0098  	MOVWF gbl_txsta
01CB  3081  	MOVLW 0x81
01CC  0099  	MOVWF gbl_spbrg
01CD  1283  	BCF STATUS, RP0
01CE  0198  	CLRF gbl_rcsta
01CF  1798  	BSF gbl_rcsta,7
01D0  30C0  	MOVLW 0xC0
01D1  1683  	BSF STATUS, RP0
01D2  0081  	MOVWF gbl_option_reg
01D3  2175  	CALL FCD_LCDDis_00049
01D4  2164  	CALL FCD_LCDDis_0004A
01D5        label27
01D5  3001  	MOVLW 0x01
01D6  00E0  	MOVWF FCD_LCDDis_0004D_arg_x
01D7  01E1  	CLRF FCD_LCDDis_0004D_arg_y
01D8  20DD  	CALL FCD_LCDDis_0004D
01D9  3020  	MOVLW 0x20
01DA  00E5  	MOVWF CompTempVar2246+D'6'
01DB  3041  	MOVLW 0x41
01DC  00E3  	MOVWF CompTempVar2246+D'4'
01DD  3045  	MOVLW 0x45
01DE  00E0  	MOVWF CompTempVar2246+D'1'
01DF  3049  	MOVLW 0x49
01E0  00E2  	MOVWF CompTempVar2246+D'3'
01E1  00E9  	MOVWF CompTempVar2246+D'10'
01E2  304C  	MOVLW 0x4C
01E3  00E4  	MOVWF CompTempVar2246+D'5'
01E4  304D  	MOVLW 0x4D
01E5  00E6  	MOVWF CompTempVar2246+D'7'
01E6  304E  	MOVLW 0x4E
01E7  00E8  	MOVWF CompTempVar2246+D'9'
01E8  304F  	MOVLW 0x4F
01E9  00E7  	MOVWF CompTempVar2246+D'8'
01EA  00EB  	MOVWF CompTempVar2246+D'12'
01EB  3052  	MOVLW 0x52
01EC  00E1  	MOVWF CompTempVar2246+D'2'
01ED  00EC  	MOVWF CompTempVar2246+D'13'
01EE  3053  	MOVLW 0x53
01EF  00DF  	MOVWF CompTempVar2246
01F0  3054  	MOVLW 0x54
01F1  00EA  	MOVWF CompTempVar2246+D'11'
01F2  01ED  	CLRF CompTempVar2246+D'14'
01F3  3000  	MOVLW HIGH(CompTempVar2246+D'0')
01F4  00DE  	MOVWF FCD_LCDDis_0004F_arg_String+D'1'
01F5  305F  	MOVLW LOW(CompTempVar2246+D'0')
01F6  00DD  	MOVWF FCD_LCDDis_0004F_arg_String
01F7  300E  	MOVLW 0x0E
01F8  00EE  	MOVWF FCD_LCDDis_0004F_arg_MSZ_String
01F9  2148  	CALL FCD_LCDDis_0004F
01FA  300A  	MOVLW 0x0A
01FB  00E5  	MOVWF FCD_RS2320_00056_arg_nTimeout
01FC  01E6  	CLRF FCD_RS2320_00056_arg_nTimeout+D'1'
01FD  2086  	CALL FCD_RS2320_00056
01FE  0870  	MOVF CompTempVarRet2238, W
01FF  00DC  	MOVWF gbl_FCV_DATBYTE
0200  085C  	MOVF gbl_FCV_DATBYTE, W
0201  3A41  	XORLW 0x41
0202  1D03  	BTFSS STATUS,Z
0203  2A47  	GOTO	label29
0204  300A  	MOVLW 0x0A
0205  00E5  	MOVWF FCD_RS2320_00056_arg_nTimeout
0206  01E6  	CLRF FCD_RS2320_00056_arg_nTimeout+D'1'
0207  2086  	CALL FCD_RS2320_00056
0208  0870  	MOVF CompTempVarRet2238, W
0209  00DC  	MOVWF gbl_FCV_DATBYTE
020A  085C  	MOVF gbl_FCV_DATBYTE, W
020B  3A41  	XORLW 0x41
020C  1D03  	BTFSS STATUS,Z
020D  2A47  	GOTO	label29
020E  300A  	MOVLW 0x0A
020F  00E5  	MOVWF FCD_RS2320_00056_arg_nTimeout
0210  01E6  	CLRF FCD_RS2320_00056_arg_nTimeout+D'1'
0211  2086  	CALL FCD_RS2320_00056
0212  0870  	MOVF CompTempVarRet2238, W
0213  00DC  	MOVWF gbl_FCV_DATBYTE
0214  085C  	MOVF gbl_FCV_DATBYTE, W
0215  3A35  	XORLW 0x35
0216  1D03  	BTFSS STATUS,Z
0217  2A47  	GOTO	label29
0218  300A  	MOVLW 0x0A
0219  00E5  	MOVWF FCD_RS2320_00056_arg_nTimeout
021A  01E6  	CLRF FCD_RS2320_00056_arg_nTimeout+D'1'
021B  2086  	CALL FCD_RS2320_00056
021C  0870  	MOVF CompTempVarRet2238, W
021D  00DC  	MOVWF gbl_FCV_DATBYTE
021E  085C  	MOVF gbl_FCV_DATBYTE, W
021F  3A35  	XORLW 0x35
0220  1D03  	BTFSS STATUS,Z
0221  2A47  	GOTO	label29
0222  3000  	MOVLW HIGH(gbl_FCV_DAT+D'0')
0223  00DE  	MOVWF FCD_RS2320_00057_arg_FCR_RETVAL+D'1'
0224  3020  	MOVLW LOW(gbl_FCV_DAT+D'0')
0225  00DD  	MOVWF FCD_RS2320_00057_arg_FCR_RETVAL
0226  301A  	MOVLW 0x1A
0227  00DF  	MOVWF FCD_RS2320_00057_arg_FCR_R_00058
0228  300A  	MOVLW 0x0A
0229  00E0  	MOVWF FCD_RS2320_00057_arg_nTimeout
022A  3018  	MOVLW 0x18
022B  00E1  	MOVWF FCD_RS2320_00057_arg_NumBytes
022C  20FC  	CALL FCD_RS2320_00057
022D  01E0  	CLRF FCD_LCDDis_0004D_arg_x
022E  3001  	MOVLW 0x01
022F  00E1  	MOVWF FCD_LCDDis_0004D_arg_y
0230  20DD  	CALL FCD_LCDDis_0004D
0231  3041  	MOVLW 0x41
0232  00DF  	MOVWF CompTempVar2249
0233  00E0  	MOVWF CompTempVar2249+D'1'
0234  3035  	MOVLW 0x35
0235  00E1  	MOVWF CompTempVar2249+D'2'
0236  00E2  	MOVWF CompTempVar2249+D'3'
0237  01E3  	CLRF CompTempVar2249+D'4'
0238  3000  	MOVLW HIGH(CompTempVar2249+D'0')
0239  00DE  	MOVWF FCD_LCDDis_0004F_arg_String+D'1'
023A  305F  	MOVLW LOW(CompTempVar2249+D'0')
023B  00DD  	MOVWF FCD_LCDDis_0004F_arg_String
023C  3004  	MOVLW 0x04
023D  00EE  	MOVWF FCD_LCDDis_0004F_arg_MSZ_String
023E  2148  	CALL FCD_LCDDis_0004F
023F  3000  	MOVLW HIGH(gbl_FCV_DAT+D'0')
0240  00DE  	MOVWF FCD_LCDDis_0004F_arg_String+D'1'
0241  3020  	MOVLW LOW(gbl_FCV_DAT+D'0')
0242  00DD  	MOVWF FCD_LCDDis_0004F_arg_String
0243  301A  	MOVLW 0x1A
0244  00EE  	MOVWF FCD_LCDDis_0004F_arg_MSZ_String
0245  2148  	CALL FCD_LCDDis_0004F
0246        label28
0246  2A46  	GOTO	label28
0247        label29
0247  3002  	MOVLW 0x02
0248  00DD  	MOVWF FCD_LCDDis_00052_arg_Line
0249  2131  	CALL FCD_LCDDis_00052
024A  3003  	MOVLW 0x03
024B  00DD  	MOVWF FCD_LCDDis_00052_arg_Line
024C  2131  	CALL FCD_LCDDis_00052
024D  29D5  	GOTO	label27
024E        ; } main function end

	ORG 0x0000024E
024E        _startup
024E  30D5  	MOVLW 0xD5
024F  1283  	BCF STATUS, RP0
0250  1303  	BCF STATUS, RP1
0251  00BA  	MOVWF gbl_16_LSR
0252  30C4  	MOVLW 0xC4
0253  00BB  	MOVWF gbl_16_LSR+D'1'
0254  30BB  	MOVLW 0xBB
0255  00BC  	MOVWF gbl_16_LSR+D'2'
0256  30DC  	MOVLW 0xDC
0257  00BD  	MOVWF gbl_16_LSR+D'3'
0258  01BE  	CLRF gbl_17_gbl_aSig
0259  01BF  	CLRF gbl_17_gbl_aSig+D'1'
025A  01C0  	CLRF gbl_17_gbl_aSig+D'2'
025B  01C1  	CLRF gbl_17_gbl_aSig+D'3'
025C  01C2  	CLRF gbl_17_gbl_bSig
025D  01C3  	CLRF gbl_17_gbl_bSig+D'1'
025E  01C4  	CLRF gbl_17_gbl_bSig+D'2'
025F  01C5  	CLRF gbl_17_gbl_bSig+D'3'
0260  01C6  	CLRF gbl_17_gbl_zSig
0261  01C7  	CLRF gbl_17_gbl_zSig+D'1'
0262  01C8  	CLRF gbl_17_gbl_zSig+D'2'
0263  01C9  	CLRF gbl_17_gbl_zSig+D'3'
0264  01D6  	CLRF gbl_17_gbl_aExp
0265  01D7  	CLRF gbl_17_gbl_bExp
0266  01D1  	CLRF gbl_17_gbl_zExp
0267  01D2  	CLRF gbl_17_gbl_zExp+D'1'
0268  01D8  	CLRF gbl_17_gbl_aSign
0269  01D9  	CLRF gbl_17_gbl_bSign
026A  01DA  	CLRF gbl_17_gbl_zSign
026B  01DB  	CLRF gbl_17_gbl_zSigZero
026C  01CA  	CLRF gbl_17_gbl_ret
026D  01CB  	CLRF gbl_17_gbl_ret+D'1'
026E  01CC  	CLRF gbl_17_gbl_ret+D'2'
026F  01CD  	CLRF gbl_17_gbl_ret+D'3'
0270  01D4  	CLRF gbl_float_rounding_mode
0271  01D5  	CLRF gbl_float_exception_flags
0272  01D3  	CLRF gbl_float_detect_tininess
0273  118A  	BCF PCLATH,3
0274  120A  	BCF PCLATH,4
0275  29C3  	GOTO	main
	ORG 0x00000276
0276        interrupt
0276        ; { interrupt ; function begin
0276  1283  	BCF STATUS, RP0
0277  1303  	BCF STATUS, RP1
0278  0E50  	SWAPF Int1BContext+D'2', W
0279  0084  	MOVWF FSR
027A  0E4F  	SWAPF Int1BContext+D'1', W
027B  008A  	MOVWF PCLATH
027C  0E4E  	SWAPF Int1BContext, W
027D  0083  	MOVWF STATUS
027E  0EFF  	SWAPF Int1Context, F
027F  0E7F  	SWAPF Int1Context, W
0280  0009  	RETFIE
0281        ; } interrupt function end

	ORG 0x00002007
2007  30F2  	DW 0x30F2
