MPASM  5.51                    2X4_P10_SB.ASM   4-22-2020  11:55:30         PAGE  1


LOC  OBJECT CODE     LINE SOURCE TEXT
  VALUE

                      00001 ;******************************************************************************
                      00002 ;                                                                             *
                      00003 ;    FILENAME:     2X4 P10 MODULE SCOREBOARD                                  *
                      00004 ;    DATE:         APRIL 8, 2020                                              *
                      00005 ;    FILE VERSION: V1.0                                                       *
                      00006 ;                                                                             *
                      00007 ;    AUTHOR:       KENNYNEUTRON                                               *
                      00008 ;    COMPANY:      GER-PER ENGINEERING                                        *
                      00009 ;                                                                             * 
                      00010 ;******************************************************************************
                      00011 ;                                                                             *
                      00012 ;    FILES REQUIRED: P18F4620.INC                                             *
                      00013 ;                                                                             *
                      00014 ;******************************************************************************
                      00015 
                      00016         LIST P=18F4620          ;DIRECTIVE TO DEFINE PROCESSOR
                      00017         #INCLUDE <P18F4620.INC> ;PROCESSOR SPECIFIC VARIABLE DEFINITIONS
                      00001         LIST
                      00002 
                      00003 ;==========================================================================
                      00004 ;  MPASM PIC18F4620 processor include
                      00005 ; 
                      00006 ;  (c) Copyright 1999-2013 Microchip Technology, All rights reserved
                      00007 ;==========================================================================
                      00008 
                      01439         LIST
                      00018         #INCLUDE <P10_FONT2.INC>
Warning[205]: Found directive in column 1. (ORG)
006000                00001 ORG 0X6000
006000                00002 FONT0_0
006000 0E00           00003                         MOVLW   0
006002 6EFB           00004                         MOVWF   PCLATU,0
006004 0E60           00005                         MOVLW   0X60
006006 6EFA           00006                         MOVWF   PCLATH,0
                      00007 
006008 C10A FFE8      00008                         MOVFF   BTCOUNT,WREG
00600C 90D8           00009                         BCF             STATUS,C
                      00010 
                      00011 
00600E 26F9           00012                         ADDWF   PCL,1,0
006010 0C8F           00013                         DT      B'10001111'
006012 0C77           00014                         DT      B'01110111'
006014 0C77           00015                         DT      B'01110111'
006016 0C77           00016                         DT      B'01110111'
006018 0C77           00017                         DT      B'01110111'
00601A 0C77           00018                         DT      B'01110111'
00601C 0C8F           00019                         DT      B'10001111'
00601E 0CFF           00020                         DT      B'11111111'
006020 0CFF           00021                         DT      B'11111111'
                      00022 
006022                00023 FONT1_0
006022 0E00           00024                         MOVLW   0
006024 6EFB           00025                         MOVWF   PCLATU,0
MPASM  5.51                    2X4_P10_SB.ASM   4-22-2020  11:55:30         PAGE  2


LOC  OBJECT CODE     LINE SOURCE TEXT
  VALUE

006026 0E60           00026                         MOVLW   0X60
006028 6EFA           00027                         MOVWF   PCLATH,0
                      00028 
00602A C10A FFE8      00029                         MOVFF   BTCOUNT,WREG
00602E 90D8           00030                         BCF             STATUS,C
                      00031 
                      00032 
006030 26F9           00033                         ADDWF   PCL,1,0
006032 0CFF           00034                         DT      B'11111111'
006034 0CC7           00035                         DT      B'11000111'
006036 0C83           00036                         DT      B'10000011'
006038 0C39           00037                         DT      B'00111001'
00603A 0C39           00038                         DT      B'00111001'
00603C 0C39           00039                         DT      B'00111001'
00603E 0C39           00040                         DT      B'00111001'     
006040 0C39           00041                         DT      B'00111001'
006042 0C39           00042                         DT      B'00111001'
006044 0C39           00043                         DT      B'00111001'
006046 0C39           00044                         DT      B'00111001'
006048 0C39           00045                         DT      B'00111001'
00604A 0C39           00046                         DT      B'00111001'
00604C 0C39           00047                         DT      B'00111001'
00604E 0C83           00048                         DT      B'10000011'
006050 0CC7           00049                         DT      B'11000111'
                      00050 
006052                00051 FONT2_0
006052 0E00           00052                         MOVLW   0
006054 6EFB           00053                         MOVWF   PCLATU,0
006056 0E60           00054                         MOVLW   0X60
006058 6EFA           00055                         MOVWF   PCLATH,0
                      00056 
00605A C10A FFE8      00057                         MOVFF   BTCOUNT,WREG
00605E 90D8           00058                         BCF             STATUS,C
006060 36E8           00059                         RLCF    WREG
                      00060 
                      00061                 
006062 26F9           00062                         ADDWF   PCL,1,0
006064 0CFF 0CFF      00063                         DT      B'11111111',B'11111111'
006068 0CC0 0CFF      00064                         DT      B'11000000',B'11111111'
00606C 0C80 0C7F      00065                         DT      B'10000000',B'01111111'
006070 0C1E 0C3F      00066                         DT      B'00011110',B'00111111'
006074 0C3F 0C3F      00067                         DT      B'00111111',B'00111111'
006078 0C3F 0C3F      00068                         DT      B'00111111',B'00111111'
00607C 0C3F 0C3F      00069                         DT      B'00111111',B'00111111'
006080 0C3F 0C3F      00070                         DT      B'00111111',B'00111111'
006084 0C3F 0C3F      00071                         DT      B'00111111',B'00111111'
006088 0C3F 0C3F      00072                         DT      B'00111111',B'00111111'
00608C 0C3F 0C3F      00073                         DT      B'00111111',B'00111111'
006090 0C3F 0C3F      00074                         DT      B'00111111',B'00111111'
006094 0C3F 0C3F      00075                         DT      B'00111111',B'00111111'
006098 0C1E 0C3F      00076                         DT      B'00011110',B'00111111'
00609C 0C80 0C7F      00077                         DT      B'10000000',B'01111111'
0060A0 0CC0 0CFF      00078                         DT      B'11000000',B'11111111'
MPASM  5.51                    2X4_P10_SB.ASM   4-22-2020  11:55:30         PAGE  3


LOC  OBJECT CODE     LINE SOURCE TEXT
  VALUE

                      00079 
                      00080 
                      00081 
                      00082 
                      00083 
Warning[205]: Found directive in column 1. (ORG)
006100                00084 ORG     0X6100
006100                00085 FONT0_1
006100 0E00           00086                         MOVLW   0
006102 6EFB           00087                         MOVWF   PCLATU,0
006104 0E61           00088                         MOVLW   0X61
006106 6EFA           00089                         MOVWF   PCLATH,0
                      00090 
006108 C10A FFE8      00091                         MOVFF   BTCOUNT,WREG
00610C 90D8           00092                         BCF             STATUS,C
                      00093 
                      00094 
00610E 26F9           00095                         ADDWF   PCL,1,0
006110 0CBF           00096                         DT      B'10111111'
006112 0C3F           00097                         DT      B'00111111'
006114 0CBF           00098                         DT      B'10111111'
006116 0CBF           00099                         DT      B'10111111'
006118 0CBF           00100                         DT      B'10111111'
00611A 0CBF           00101                         DT      B'10111111'
00611C 0C1F           00102                         DT      B'00011111'
00611E 0CFF           00103                         DT      B'11111111'
006120 0CFF           00104                         DT      B'11111111'
006122                00105 FONT1_1
006122 0E00           00106                         MOVLW   0
006124 6EFB           00107                         MOVWF   PCLATU,0
006126 0E61           00108                         MOVLW   0X61
006128 6EFA           00109                         MOVWF   PCLATH,0
                      00110 
00612A C10A FFE8      00111                         MOVFF   BTCOUNT,WREG
00612E 90D8           00112                         BCF             STATUS,C
                      00113 
                      00114 
006130 26F9           00115                         ADDWF   PCL,1,0
006132 0CFF           00116                         DT      B'11111111'
006134 0CCF           00117                         DT      B'11001111'
006136 0CCF           00118                         DT      B'11001111'
006138 0C8F           00119                         DT      B'10001111'
00613A 0C0F           00120                         DT      B'00001111'
00613C 0C4F           00121                         DT      B'01001111'
00613E 0CCF           00122                         DT      B'11001111'
006140 0CCF           00123                         DT      B'11001111'
006142 0CCF           00124                         DT      B'11001111'
006144 0CCF           00125                         DT      B'11001111'
006146 0CCF           00126                         DT      B'11001111'
006148 0CCF           00127                         DT      B'11001111'
00614A 0CCF           00128                         DT      B'11001111'
00614C 0CCF           00129                         DT      B'11001111'
00614E 0C03           00130                         DT      B'00000011'
MPASM  5.51                    2X4_P10_SB.ASM   4-22-2020  11:55:30         PAGE  4


LOC  OBJECT CODE     LINE SOURCE TEXT
  VALUE

006150 0C03           00131                         DT      B'00000011'
006152                00132 FONT2_1
006152 0E00           00133                         MOVLW   0
006154 6EFB           00134                         MOVWF   PCLATU,0
006156 0E61           00135                         MOVLW   0X61
006158 6EFA           00136                         MOVWF   PCLATH,0
                      00137 
00615A C10A FFE8      00138                         MOVFF   BTCOUNT,WREG
00615E 90D8           00139                         BCF             STATUS,C
006160 36E8           00140                         RLCF    WREG
                      00141 
                      00142                 
006162 26F9           00143                         ADDWF   PCL,1,0
006164 0CFF 0CFF      00144                         DT      B'11111111',B'11111111';BTC=00
006168 0CE7 0CFF      00145                         DT      B'11100111',B'11111111';BTC=01
00616C 0CE7 0CFF      00146                         DT      B'11100111',B'11111111';BTC=02
006170 0CC7 0CFF      00147                         DT      B'11000111',B'11111111';BTC=03
006174 0C87 0CFF      00148                         DT      B'10000111',B'11111111';BTC=04
006178 0C27 0CFF      00149                         DT      B'00100111',B'11111111';BTC=05
00617C 0CE7 0CFF      00150                         DT      B'11100111',B'11111111';BTC=06
006180 0CE7 0CFF      00151                         DT      B'11100111',B'11111111';BTC=07
006184 0CE7 0CFF      00152                         DT      B'11100111',B'11111111';BTC=08
006188 0CE7 0CFF      00153                         DT      B'11100111',B'11111111';BTC=09
00618C 0CE7 0CFF      00154                         DT      B'11100111',B'11111111';BTC=0A
006190 0CE7 0CFF      00155                         DT      B'11100111',B'11111111';BTC=0B
006194 0CE7 0CFF      00156                         DT      B'11100111',B'11111111';BTC=0C
006198 0CE7 0CFF      00157                         DT      B'11100111',B'11111111';BTC=0D
00619C 0C00 0CFF      00158                         DT      B'00000000',B'11111111';BTC=0E
0061A0 0C00 0CFF      00159                         DT      B'00000000',B'11111111';BTC=0F
                      00160 
                      00161 
                      00162 
                      00163 
Warning[205]: Found directive in column 1. (ORG)
006200                00164 ORG     0X6200
006200                00165 FONT0_2
006200 0E00           00166                         MOVLW   0
006202 6EFB           00167                         MOVWF   PCLATU,0
006204 0E62           00168                         MOVLW   0X62
006206 6EFA           00169                         MOVWF   PCLATH,0
                      00170 
006208 C10A FFE8      00171                         MOVFF   BTCOUNT,WREG
00620C 90D8           00172                         BCF             STATUS,C
                      00173 
                      00174 
00620E 26F9           00175                         ADDWF   PCL,1,0
006210 0C8F           00176                         DT      B'10001111'
006212 0C77           00177                         DT      B'01110111'
006214 0CF7           00178                         DT      B'11110111'
006216 0C8F           00179                         DT      B'10001111'
006218 0C7F           00180                         DT      B'01111111'
00621A 0C77           00181                         DT      B'01110111'
00621C 0C07           00182                         DT      B'00000111'
MPASM  5.51                    2X4_P10_SB.ASM   4-22-2020  11:55:30         PAGE  5


LOC  OBJECT CODE     LINE SOURCE TEXT
  VALUE

00621E 0CFF           00183                         DT      B'11111111'
006220 0CFF           00184                         DT      B'11111111'
006222                00185 FONT1_2
006222 0E00           00186                         MOVLW   0
006224 6EFB           00187                         MOVWF   PCLATU,0
006226 0E62           00188                         MOVLW   0X62
006228 6EFA           00189                         MOVWF   PCLATH,0
                      00190 
00622A C10A FFE8      00191                         MOVFF   BTCOUNT,WREG
00622E 90D8           00192                         BCF             STATUS,C
                      00193 
                      00194 
006230 26F9           00195                         ADDWF   PCL,1,0
006232 0CFF           00196                         DT      B'11111111'
006234 0CC3           00197                         DT      B'11000011'
006236 0C81           00198                         DT      B'10000001'
006238 0C39           00199                         DT      B'00111001'
00623A 0CF9           00200                         DT      B'11111001'
00623C 0CF9           00201                         DT      B'11111001'
00623E 0CF9           00202                         DT      B'11111001'
006240 0CF9           00203                         DT      B'11111001'
006242 0C81           00204                         DT      B'10000001'
006244 0C03           00205                         DT      B'00000011'
006246 0C3F           00206                         DT      B'00111111'
006248 0C3F           00207                         DT      B'00111111'
00624A 0C3F           00208                         DT      B'00111111'
00624C 0C39           00209                         DT      B'00111001'
00624E 0C01           00210                         DT      B'00000001'
006250 0C01           00211                         DT      B'00000001'
                      00212 
006252                00213 FONT2_2
006252 0E00           00214                         MOVLW   0
006254 6EFB           00215                         MOVWF   PCLATU,0
006256 0E62           00216                         MOVLW   0X62
006258 6EFA           00217                         MOVWF   PCLATH,0
                      00218 
00625A C10A FFE8      00219                         MOVFF   BTCOUNT,WREG
00625E 90D8           00220                         BCF             STATUS,C
006260 36E8           00221                         RLCF    WREG
                      00222 
                      00223                 
006262 26F9           00224                         ADDWF   PCL,1,0
006264 0CFF 0CFF      00225                         DT      B'11111111',B'11111111' ;BTC=0F
006268 0CC0 0CFF      00226                         DT      B'11000000',B'11111111' ;BTC=00
00626C 0C80 0C7F      00227                         DT      B'10000000',B'01111111' ;BTC=01
006270 0C3E 0C3F      00228                         DT      B'00111110',B'00111111' ;BTC=02
006274 0CFF 0C3F      00229                         DT      B'11111111',B'00111111' ;BTC=03
006278 0CFF 0C3F      00230                         DT      B'11111111',B'00111111' ;BTC=04
00627C 0CFF 0C3F      00231                         DT      B'11111111',B'00111111' ;BTC=05
006280 0CFE 0C3F      00232                         DT      B'11111110',B'00111111' ;BTC=06
006284 0CC0 0C7F      00233                         DT      B'11000000',B'01111111' ;BTC=07
006288 0C80 0CFF      00234                         DT      B'10000000',B'11111111' ;BTC=08
00628C 0C1F 0CFF      00235                         DT      B'00011111',B'11111111' ;BTC=09
MPASM  5.51                    2X4_P10_SB.ASM   4-22-2020  11:55:30         PAGE  6


LOC  OBJECT CODE     LINE SOURCE TEXT
  VALUE

006290 0C3F 0CFF      00236                         DT      B'00111111',B'11111111' ;BTC=0A
006294 0C3F 0CFF      00237                         DT      B'00111111',B'11111111' ;BTC=0B
006298 0C3F 0C3F      00238                         DT      B'00111111',B'00111111' ;BTC=0C
00629C 0C00 0C3F      00239                         DT      B'00000000',B'00111111' ;BTC=0D
0062A0 0C00 0C3F      00240                         DT      B'00000000',B'00111111' ;BTC=0E
                      00241 
                      00242 
                      00243 
Warning[205]: Found directive in column 1. (ORG)
006300                00244 ORG     0X6300
006300                00245 FONT0_3
006300 0E00           00246                         MOVLW   0
006302 6EFB           00247                         MOVWF   PCLATU,0
006304 0E63           00248                         MOVLW   0X63
006306 6EFA           00249                         MOVWF   PCLATH,0
                      00250 
006308 C10A FFE8      00251                         MOVFF   BTCOUNT,WREG
00630C 90D8           00252                         BCF             STATUS,C
                      00253 
                      00254 
00630E 26F9           00255                         ADDWF   PCL,1,0
006310 0C8F           00256                         DT      B'10001111'
006312 0C77           00257                         DT      B'01110111'
006314 0CF7           00258                         DT      B'11110111'
006316 0C8F           00259                         DT      B'10001111'
006318 0CF7           00260                         DT      B'11110111'
00631A 0C77           00261                         DT      B'01110111'
00631C 0C8F           00262                         DT      B'10001111'
00631E 0CFF           00263                         DT      B'11111111'
006320 0CFF           00264                         DT      B'11111111'
006322                00265 FONT1_3
006322 0E00           00266                         MOVLW   0
006324 6EFB           00267                         MOVWF   PCLATU,0
006326 0E63           00268                         MOVLW   0X63
006328 6EFA           00269                         MOVWF   PCLATH,0
                      00270 
00632A C10A FFE8      00271                         MOVFF   BTCOUNT,WREG
00632E 90D8           00272                         BCF             STATUS,C
                      00273 
                      00274 
006330 26F9           00275                         ADDWF   PCL,1,0
006332 0CFF           00276                         DT      B'11111111'
006334 0C03           00277                         DT      B'00000011'
006336 0C01           00278                         DT      B'00000001'
006338 0CF9           00279                         DT      B'11111001'
00633A 0CF9           00280                         DT      B'11111001'
00633C 0CF9           00281                         DT      B'11111001'
00633E 0CF9           00282                         DT      B'11111001'
006340 0C83           00283                         DT      B'10000011'
006342 0C83           00284                         DT      B'10000011'
006344 0CF9           00285                         DT      B'11111001'
006346 0CF9           00286                         DT      B'11111001'
006348 0CF9           00287                         DT      B'11111001'
MPASM  5.51                    2X4_P10_SB.ASM   4-22-2020  11:55:30         PAGE  7


LOC  OBJECT CODE     LINE SOURCE TEXT
  VALUE

00634A 0CF9           00288                         DT      B'11111001'
00634C 0CF9           00289                         DT      B'11111001'
00634E 0C01           00290                         DT      B'00000001'
006350 0C03           00291                         DT      B'00000011'
006352                00292 FONT2_3
006352 0E00           00293                         MOVLW   0
006354 6EFB           00294                         MOVWF   PCLATU,0
006356 0E63           00295                         MOVLW   0X63
006358 6EFA           00296                         MOVWF   PCLATH,0
                      00297 
00635A C10A FFE8      00298                         MOVFF   BTCOUNT,WREG
00635E 90D8           00299                         BCF             STATUS,C
006360 36E8           00300                         RLCF    WREG
                      00301 
                      00302                 
006362 26F9           00303                         ADDWF   PCL,1,0
006364 0CFF 0CFF      00304                         DT      B'11111111',B'11111111' ;BTC=0F
006368 0CC0 0CFF      00305                         DT      B'11000000',B'11111111' ;BTC=00
00636C 0C80 0C7F      00306                         DT      B'10000000',B'01111111' ;BTC=01
006370 0C1E 0C3F      00307                         DT      B'00011110',B'00111111' ;BTC=02
006374 0C3F 0C3F      00308                         DT      B'00111111',B'00111111' ;BTC=03
006378 0CFF 0C3F      00309                         DT      B'11111111',B'00111111' ;BTC=04
00637C 0CFF 0C3F      00310                         DT      B'11111111',B'00111111' ;BTC=05
006380 0CFE 0C3F      00311                         DT      B'11111110',B'00111111' ;BTC=06
006384 0CE0 0C7F      00312                         DT      B'11100000',B'01111111' ;BTC=07
006388 0CE0 0C7F      00313                         DT      B'11100000',B'01111111' ;BTC=08
00638C 0CFE 0C3F      00314                         DT      B'11111110',B'00111111' ;BTC=09
006390 0CFF 0C3F      00315                         DT      B'11111111',B'00111111' ;BTC=0A
006394 0C3F 0C3F      00316                         DT      B'00111111',B'00111111' ;BTC=0B
006398 0C1E 0C3F      00317                         DT      B'00011110',B'00111111' ;BTC=0C
00639C 0C80 0C7F      00318                         DT      B'10000000',B'01111111' ;BTC=0D
0063A0 0CC0 0CFF      00319                         DT      B'11000000',B'11111111' ;BTC=0E
                      00320 
                      00321 
                      00322 
                      00323 
                      00324 
Warning[205]: Found directive in column 1. (ORG)
006400                00325 ORG     0X6400
006400                00326 FONT0_4
006400 0E00           00327                         MOVLW   0
006402 6EFB           00328                         MOVWF   PCLATU,0
006404 0E64           00329                         MOVLW   0X64
006406 6EFA           00330                         MOVWF   PCLATH,0
                      00331 
006408 C10A FFE8      00332                         MOVFF   BTCOUNT,WREG
00640C 90D8           00333                         BCF             STATUS,C
                      00334 
                      00335 
00640E 26F9           00336                         ADDWF   PCL,1,0
006410 0CEF           00337                         DT      B'11101111'
006412 0CCF           00338                         DT      B'11001111'
006414 0CAF           00339                         DT      B'10101111'
MPASM  5.51                    2X4_P10_SB.ASM   4-22-2020  11:55:30         PAGE  8


LOC  OBJECT CODE     LINE SOURCE TEXT
  VALUE

006416 0C6F           00340                         DT      B'01101111'
006418 0C07           00341                         DT      B'00000111'
00641A 0CEF           00342                         DT      B'11101111'
00641C 0CEF           00343                         DT      B'11101111'
00641E 0CFF           00344                         DT      B'11111111'
006420 0CFF           00345                         DT      B'11111111'
006422                00346 FONT1_4
006422 0E00           00347                         MOVLW   0
006424 6EFB           00348                         MOVWF   PCLATU,0
006426 0E64           00349                         MOVLW   0X64
006428 6EFA           00350                         MOVWF   PCLATH,0
                      00351 
00642A C10A FFE8      00352                         MOVFF   BTCOUNT,WREG
00642E 90D8           00353                         BCF             STATUS,C
                      00354 
                      00355 
006430 26F9           00356                         ADDWF   PCL,1,0
006432 0CFF           00357                         DT      B'11111111'
006434 0CF9           00358                         DT      B'11111001'
006436 0CF9           00359                         DT      B'11111001'
006438 0CF9           00360                         DT      B'11111001'
00643A 0CF1           00361                         DT      B'11110001'
00643C 0CE1           00362                         DT      B'11100001'
00643E 0CC9           00363                         DT      B'11001001'
006440 0C99           00364                         DT      B'10011001'
006442 0C39           00365                         DT      B'00111001'
006444 0C39           00366                         DT      B'00111001'
006446 0C01           00367                         DT      B'00000001'
006448 0C01           00368                         DT      B'00000001'
00644A 0CF9           00369                         DT      B'11111001'
00644C 0CF9           00370                         DT      B'11111001'
00644E 0CF9           00371                         DT      B'11111001'
006450 0CF9           00372                         DT      B'11111001'
                      00373 
006452                00374 FONT2_4
006452 0E00           00375                         MOVLW   0
006454 6EFB           00376                         MOVWF   PCLATU,0
006456 0E64           00377                         MOVLW   0X64
006458 6EFA           00378                         MOVWF   PCLATH,0
                      00379 
00645A C10A FFE8      00380                         MOVFF   BTCOUNT,WREG
00645E 90D8           00381                         BCF             STATUS,C
006460 36E8           00382                         RLCF    WREG
                      00383 
                      00384                 
006462 26F9           00385                         ADDWF   PCL,1,0
006464 0CFF 0CFF      00386                         DT      B'11111111',B'11111111' ;BTC=0F
006468 0CFF 0CBF      00387                         DT      B'11111111',B'10111111' ;BTC=00
00646C 0CFD 0C3F      00388                         DT      B'11111101',B'00111111' ;BTC=01
006470 0CF9 0C3F      00389                         DT      B'11111001',B'00111111' ;BTC=02
006474 0CF9 0C3F      00390                         DT      B'11111001',B'00111111' ;BTC=03
006478 0CF3 0C3F      00391                         DT      B'11110011',B'00111111' ;BTC=04
00647C 0CE7 0C3F      00392                         DT      B'11100111',B'00111111' ;BTC=05
MPASM  5.51                    2X4_P10_SB.ASM   4-22-2020  11:55:30         PAGE  9


LOC  OBJECT CODE     LINE SOURCE TEXT
  VALUE

006480 0CCF 0C3F      00393                         DT      B'11001111',B'00111111' ;BTC=06
006484 0C9F 0C3F      00394                         DT      B'10011111',B'00111111' ;BTC=07
006488 0C3F 0C3F      00395                         DT      B'00111111',B'00111111' ;BTC=08
00648C 0C00 0C3F      00396                         DT      B'00000000',B'00111111' ;BTC=09
006490 0C00 0C3F      00397                         DT      B'00000000',B'00111111' ;BTC=0A
006494 0CFF 0C3F      00398                         DT      B'11111111',B'00111111' ;BTC=0B
006498 0CFF 0C3F      00399                         DT      B'11111111',B'00111111' ;BTC=0C
00649C 0CFF 0C3F      00400                         DT      B'11111111',B'00111111' ;BTC=0D
0064A0 0CFF 0C7F      00401                         DT      B'11111111',B'01111111' ;BTC=0E
                      00402 
                      00403 
                      00404 
Warning[205]: Found directive in column 1. (ORG)
006500                00405 ORG     0X6500
006500                00406 FONT0_5
006500 0E00           00407                         MOVLW   0
006502 6EFB           00408                         MOVWF   PCLATU,0
006504 0E65           00409                         MOVLW   0X65
006506 6EFA           00410                         MOVWF   PCLATH,0
                      00411 
006508 C10A FFE8      00412                         MOVFF   BTCOUNT,WREG
00650C 90D8           00413                         BCF             STATUS,C
                      00414 
                      00415 
00650E 26F9           00416                         ADDWF   PCL,1,0
006510 0C07           00417                         DT      B'00000111'     
006512 0C7F           00418                         DT      B'01111111'     
006514 0C7F           00419                         DT      B'01111111'     
006516 0C0F           00420                         DT      B'00001111'     
006518 0CF7           00421                         DT      B'11110111'     
00651A 0CF7           00422                         DT      B'11110111'     
00651C 0C0F           00423                         DT      B'00001111'     
00651E 0CFF           00424                         DT      B'11111111'     
006520 0CFF           00425                         DT      B'11111111'
006522                00426 FONT1_5
006522 0E00           00427                         MOVLW   0
006524 6EFB           00428                         MOVWF   PCLATU,0
006526 0E65           00429                         MOVLW   0X65
006528 6EFA           00430                         MOVWF   PCLATH,0
                      00431 
00652A C10A FFE8      00432                         MOVFF   BTCOUNT,WREG
00652E 90D8           00433                         BCF             STATUS,C
                      00434 
                      00435 
006530 26F9           00436                         ADDWF   PCL,1,0
006532 0CFF           00437                         DT      B'11111111'
006534 0C01           00438                         DT      B'00000001'
006536 0C01           00439                         DT      B'00000001'
006538 0C3F           00440                         DT      B'00111111'
00653A 0C3F           00441                         DT      B'00111111'
00653C 0C3F           00442                         DT      B'00111111'
00653E 0C3F           00443                         DT      B'00111111'
006540 0C03           00444                         DT      B'00000011'
MPASM  5.51                    2X4_P10_SB.ASM   4-22-2020  11:55:30         PAGE 10


LOC  OBJECT CODE     LINE SOURCE TEXT
  VALUE

006542 0C01           00445                         DT      B'00000001'
006544 0CF9           00446                         DT      B'11111001'
006546 0CF9           00447                         DT      B'11111001'
006548 0CF9           00448                         DT      B'11111001'
00654A 0CF9           00449                         DT      B'11111001'
00654C 0CF9           00450                         DT      B'11111001'
00654E 0C01           00451                         DT      B'00000001'
006550 0C03           00452                         DT      B'00000011'
                      00453 
006552                00454 FONT2_5
006552 0E00           00455                         MOVLW   0
006554 6EFB           00456                         MOVWF   PCLATU,0
006556 0E65           00457                         MOVLW   0X65
006558 6EFA           00458                         MOVWF   PCLATH,0
                      00459 
00655A C10A FFE8      00460                         MOVFF   BTCOUNT,WREG
00655E 90D8           00461                         BCF             STATUS,C
006560 36E8           00462                         RLCF    WREG
                      00463 
                      00464                 
006562 26F9           00465                         ADDWF   PCL,1,0
006564 0CFF 0CFF      00466                         DT      B'11111111',B'11111111' ;BTC=0F
006568 0C00 0C3F      00467                         DT      B'00000000',B'00111111' ;BTC=00
00656C 0C00 0C3F      00468                         DT      B'00000000',B'00111111' ;BTC=01
006570 0C3F 0C7F      00469                         DT      B'00111111',B'01111111' ;BTC=02
006574 0C3F 0CFF      00470                         DT      B'00111111',B'11111111' ;BTC=03
006578 0C3F 0CFF      00471                         DT      B'00111111',B'11111111' ;BTC=04
00657C 0C3F 0CFF      00472                         DT      B'00111111',B'11111111' ;BTC=05
006580 0C00 0CFF      00473                         DT      B'00000000',B'11111111' ;BTC=06
006584 0C00 0C7F      00474                         DT      B'00000000',B'01111111' ;BTC=07
006588 0CFE 0C3F      00475                         DT      B'11111110',B'00111111' ;BTC=08
00658C 0CFF 0C3F      00476                         DT      B'11111111',B'00111111' ;BTC=09
006590 0CFF 0C3F      00477                         DT      B'11111111',B'00111111' ;BTC=0A
006594 0C3F 0C3F      00478                         DT      B'00111111',B'00111111' ;BTC=0B
006598 0C1E 0C3F      00479                         DT      B'00011110',B'00111111' ;BTC=0C
00659C 0C80 0C7F      00480                         DT      B'10000000',B'01111111' ;BTC=0D
0065A0 0CC0 0CFF      00481                         DT      B'11000000',B'11111111' ;BTC=0E
                      00482 
                      00483 
Warning[205]: Found directive in column 1. (ORG)
006600                00484 ORG     0X6600
006600                00485 FONT0_6
006600 0E00           00486                         MOVLW   0
006602 6EFB           00487                         MOVWF   PCLATU,0
006604 0E66           00488                         MOVLW   0X66
006606 6EFA           00489                         MOVWF   PCLATH,0
                      00490 
006608 C10A FFE8      00491                         MOVFF   BTCOUNT,WREG
00660C 90D8           00492                         BCF             STATUS,C
                      00493 
                      00494 
00660E 26F9           00495                         ADDWF   PCL,1,0
006610 0C8F           00496                         DT      B'10001111'     
MPASM  5.51                    2X4_P10_SB.ASM   4-22-2020  11:55:30         PAGE 11


LOC  OBJECT CODE     LINE SOURCE TEXT
  VALUE

006612 0C77           00497                         DT      B'01110111'     
006614 0C7F           00498                         DT      B'01111111'     
006616 0C0F           00499                         DT      B'00001111'     
006618 0C77           00500                         DT      B'01110111'     
00661A 0C77           00501                         DT      B'01110111'     
00661C 0C8F           00502                         DT      B'10001111'     
00661E 0CFF           00503                         DT      B'11111111'     
006620 0CFF           00504                         DT      B'11111111'     
                      00505 
006622                00506 FONT1_6
006622 0E00           00507                         MOVLW   0
006624 6EFB           00508                         MOVWF   PCLATU,0
006626 0E66           00509                         MOVLW   0X66
006628 6EFA           00510                         MOVWF   PCLATH,0
                      00511 
00662A C10A FFE8      00512                         MOVFF   BTCOUNT,WREG
00662E 90D8           00513                         BCF             STATUS,C
                      00514 
                      00515 
006630 26F9           00516                         ADDWF   PCL,1,0
006632 0CFF           00517                         DT      B'11111111'
006634 0C83           00518                         DT      B'10000011'
006636 0C01           00519                         DT      B'00000001'
006638 0C39           00520                         DT      B'00111001'
00663A 0C3F           00521                         DT      B'00111111'
00663C 0C3F           00522                         DT      B'00111111'
00663E 0C3F           00523                         DT      B'00111111'
006640 0C3F           00524                         DT      B'00111111'
006642 0C03           00525                         DT      B'00000011'
006644 0C01           00526                         DT      B'00000001'
006646 0C39           00527                         DT      B'00111001'
006648 0C39           00528                         DT      B'00111001'
00664A 0C39           00529                         DT      B'00111001'
00664C 0C39           00530                         DT      B'00111001'
00664E 0C01           00531                         DT      B'00000001'
006650 0C83           00532                         DT      B'10000011'
                      00533 
006652                00534 FONT2_6
006652 0E00           00535                         MOVLW   0
006654 6EFB           00536                         MOVWF   PCLATU,0
006656 0E66           00537                         MOVLW   0X66
006658 6EFA           00538                         MOVWF   PCLATH,0
                      00539 
00665A C10A FFE8      00540                         MOVFF   BTCOUNT,WREG
00665E 90D8           00541                         BCF             STATUS,C
006660 36E8           00542                         RLCF    WREG
                      00543 
                      00544                 
006662 26F9           00545                         ADDWF   PCL,1,0
006664 0CFF 0CFF      00546                         DT      B'11111111',B'11111111' ;BTC=0F
006668 0CC0 0C7F      00547                         DT      B'11000000',B'01111111' ;BTC=00
00666C 0C80 0C3F      00548                         DT      B'10000000',B'00111111' ;BTC=01
006670 0C1E 0C3F      00549                         DT      B'00011110',B'00111111' ;BTC=02
MPASM  5.51                    2X4_P10_SB.ASM   4-22-2020  11:55:30         PAGE 12


LOC  OBJECT CODE     LINE SOURCE TEXT
  VALUE

006674 0C3F 0C3F      00550                         DT      B'00111111',B'00111111' ;BTC=03
006678 0C3F 0CFF      00551                         DT      B'00111111',B'11111111' ;BTC=04
00667C 0C1F 0CFF      00552                         DT      B'00011111',B'11111111' ;BTC=05
006680 0C00 0CFF      00553                         DT      B'00000000',B'11111111' ;BTC=06
006684 0C00 0C7F      00554                         DT      B'00000000',B'01111111' ;BTC=07
006688 0C1E 0C3F      00555                         DT      B'00011110',B'00111111' ;BTC=08
00668C 0C3F 0C3F      00556                         DT      B'00111111',B'00111111' ;BTC=09
006690 0C3F 0C3F      00557                         DT      B'00111111',B'00111111' ;BTC=0A
006694 0C3F 0C3F      00558                         DT      B'00111111',B'00111111' ;BTC=0B
006698 0C1E 0C3F      00559                         DT      B'00011110',B'00111111' ;BTC=0C
00669C 0C80 0C7F      00560                         DT      B'10000000',B'01111111' ;BTC=0D
0066A0 0CC0 0CFF      00561                         DT      B'11000000',B'11111111' ;BTC=0E
                      00562 
                      00563 
Warning[205]: Found directive in column 1. (ORG)
006700                00564 ORG     0X6700
006700                00565 FONT0_7
006700 0E00           00566                         MOVLW   0
006702 6EFB           00567                         MOVWF   PCLATU,0
006704 0E67           00568                         MOVLW   0X67
006706 6EFA           00569                         MOVWF   PCLATH,0
                      00570 
006708 C10A FFE8      00571                         MOVFF   BTCOUNT,WREG
00670C 90D8           00572                         BCF             STATUS,C
                      00573 
                      00574 
00670E 26F9           00575                         ADDWF   PCL,1,0
006710 0C07           00576                         DT      B'00000111'     
006712 0CF7           00577                         DT      B'11110111'     
006714 0CEF           00578                         DT      B'11101111'     
006716 0CDF           00579                         DT      B'11011111'     
006718 0CDF           00580                         DT      B'11011111'     
00671A 0CDF           00581                         DT      B'11011111'     
00671C 0CDF           00582                         DT      B'11011111'     
00671E 0CFF           00583                         DT      B'11111111'     
006720 0CFF           00584                         DT      B'11111111'     
006722                00585 FONT1_7
006722 0E00           00586                         MOVLW   0
006724 6EFB           00587                         MOVWF   PCLATU,0
006726 0E67           00588                         MOVLW   0X67
006728 6EFA           00589                         MOVWF   PCLATH,0
                      00590 
00672A C10A FFE8      00591                         MOVFF   BTCOUNT,WREG
00672E 90D8           00592                         BCF             STATUS,C
                      00593 
                      00594 
006730 26F9           00595                         ADDWF   PCL,1,0
006732 0CFF           00596                         DT      B'11111111'
006734 0C01           00597                         DT      B'00000001'
006736 0C01           00598                         DT      B'00000001'
006738 0CF9           00599                         DT      B'11111001'
00673A 0CF9           00600                         DT      B'11111001'
00673C 0CF9           00601                         DT      B'11111001'
MPASM  5.51                    2X4_P10_SB.ASM   4-22-2020  11:55:30         PAGE 13


LOC  OBJECT CODE     LINE SOURCE TEXT
  VALUE

00673E 0CF3           00602                         DT      B'11110011'
006740 0CE7           00603                         DT      B'11100111'
006742 0CE7           00604                         DT      B'11100111'
006744 0CE7           00605                         DT      B'11100111'
006746 0CE7           00606                         DT      B'11100111'
006748 0CE7           00607                         DT      B'11100111'
00674A 0CE7           00608                         DT      B'11100111'
00674C 0CE7           00609                         DT      B'11100111'
00674E 0CE7           00610                         DT      B'11100111'
006750 0CE7           00611                         DT      B'11100111'
                      00612 
                      00613 
006752                00614 FONT2_7
006752 0E00           00615                         MOVLW   0
006754 6EFB           00616                         MOVWF   PCLATU,0
006756 0E67           00617                         MOVLW   0X67
006758 6EFA           00618                         MOVWF   PCLATH,0
                      00619 
00675A C10A FFE8      00620                         MOVFF   BTCOUNT,WREG
00675E 90D8           00621                         BCF             STATUS,C
006760 36E8           00622                         RLCF    WREG
                      00623 
                      00624                 
006762 26F9           00625                         ADDWF   PCL,1,0
006764 0CFF 0CFF      00626                         DT      B'11111111',B'11111111' ;BTC=0F
006768 0C00 0C3F      00627                         DT      B'00000000',B'00111111' ;BTC=00
00676C 0C00 0C3F      00628                         DT      B'00000000',B'00111111' ;BTC=01
006770 0C3F 0C3F      00629                         DT      B'00111111',B'00111111' ;BTC=02
006774 0C3F 0C3F      00630                         DT      B'00111111',B'00111111' ;BTC=03
006778 0CFF 0C3F      00631                         DT      B'11111111',B'00111111' ;BTC=04
00677C 0CFE 0C3F      00632                         DT      B'11111110',B'00111111' ;BTC=05
006780 0CFC 0C7F      00633                         DT      B'11111100',B'01111111' ;BTC=06
006784 0CF8 0CFF      00634                         DT      B'11111000',B'11111111' ;BTC=07
006788 0CF1 0CFF      00635                         DT      B'11110001',B'11111111' ;BTC=08
00678C 0CE3 0CFF      00636                         DT      B'11100011',B'11111111' ;BTC=09
006790 0CE7 0CFF      00637                         DT      B'11100111',B'11111111' ;BTC=0A
006794 0CE7 0CFF      00638                         DT      B'11100111',B'11111111' ;BTC=0B
006798 0CE7 0CFF      00639                         DT      B'11100111',B'11111111' ;BTC=0C
00679C 0CE7 0CFF      00640                         DT      B'11100111',B'11111111' ;BTC=0D
0067A0 0CE7 0CFF      00641                         DT      B'11100111',B'11111111' ;BTC=0E
                      00642 
                      00643 
                      00644 
Warning[205]: Found directive in column 1. (ORG)
006800                00645 ORG     0X6800
006800                00646 FONT0_8
006800 0E00           00647                         MOVLW   0
006802 6EFB           00648                         MOVWF   PCLATU,0
006804 0E68           00649                         MOVLW   0X68
006806 6EFA           00650                         MOVWF   PCLATH,0
                      00651 
006808 C10A FFE8      00652                         MOVFF   BTCOUNT,WREG
00680C 90D8           00653                         BCF             STATUS,C
MPASM  5.51                    2X4_P10_SB.ASM   4-22-2020  11:55:30         PAGE 14


LOC  OBJECT CODE     LINE SOURCE TEXT
  VALUE

                      00654 
                      00655 
00680E 26F9           00656                         ADDWF   PCL,1,0
006810 0C8F           00657                         DT      B'10001111'     
006812 0C77           00658                         DT      B'01110111'     
006814 0C77           00659                         DT      B'01110111'     
006816 0C8F           00660                         DT      B'10001111'     
006818 0C77           00661                         DT      B'01110111'     
00681A 0C77           00662                         DT      B'01110111'     
00681C 0C8F           00663                         DT      B'10001111'     
00681E 0CFF           00664                         DT      B'11111111'     
006820 0CFF           00665                         DT      B'11111111'     
006822                00666 FONT1_8
006822 0E00           00667                         MOVLW   0
006824 6EFB           00668                         MOVWF   PCLATU,0
006826 0E68           00669                         MOVLW   0X68
006828 6EFA           00670                         MOVWF   PCLATH,0
                      00671 
00682A C10A FFE8      00672                         MOVFF   BTCOUNT,WREG
00682E 90D8           00673                         BCF             STATUS,C
                      00674 
                      00675 
006830 26F9           00676                         ADDWF   PCL,1,0
006832 0CFF           00677                         DT      B'11111111'
006834 0C83           00678                         DT      B'10000011'
006836 0C01           00679                         DT      B'00000001'
006838 0C39           00680                         DT      B'00111001'
00683A 0C39           00681                         DT      B'00111001'
00683C 0C39           00682                         DT      B'00111001'
00683E 0C39           00683                         DT      B'00111001'
006840 0C39           00684                         DT      B'00111001'
006842 0C83           00685                         DT      B'10000011'
006844 0C01           00686                         DT      B'00000001'
006846 0C39           00687                         DT      B'00111001'
006848 0C39           00688                         DT      B'00111001'
00684A 0C39           00689                         DT      B'00111001'
00684C 0C39           00690                         DT      B'00111001'
00684E 0C01           00691                         DT      B'00000001'
006850 0C83           00692                         DT      B'10000011'
                      00693 
006852                00694 FONT2_8
006852 0E00           00695                         MOVLW   0
006854 6EFB           00696                         MOVWF   PCLATU,0
006856 0E68           00697                         MOVLW   0X68
006858 6EFA           00698                         MOVWF   PCLATH,0
                      00699 
00685A C10A FFE8      00700                         MOVFF   BTCOUNT,WREG
00685E 90D8           00701                         BCF             STATUS,C
006860 36E8           00702                         RLCF    WREG
                      00703 
                      00704                 
006862 26F9           00705                         ADDWF   PCL,1,0
006864 0CFF 0CFF      00706                         DT      B'11111111',B'11111111' ;BTC=0F
MPASM  5.51                    2X4_P10_SB.ASM   4-22-2020  11:55:30         PAGE 15


LOC  OBJECT CODE     LINE SOURCE TEXT
  VALUE

006868 0CC0 0CFF      00707                         DT      B'11000000',B'11111111' ;BTC=00
00686C 0C80 0C7F      00708                         DT      B'10000000',B'01111111' ;BTC=01
006870 0C1E 0C3F      00709                         DT      B'00011110',B'00111111' ;BTC=02
006874 0C3F 0C3F      00710                         DT      B'00111111',B'00111111' ;BTC=03
006878 0C3F 0C3F      00711                         DT      B'00111111',B'00111111' ;BTC=04
00687C 0C1E 0C3F      00712                         DT      B'00011110',B'00111111' ;BTC=05
006880 0C80 0C7F      00713                         DT      B'10000000',B'01111111' ;BTC=06
006884 0C80 0C7F      00714                         DT      B'10000000',B'01111111' ;BTC=07
006888 0C1E 0C3F      00715                         DT      B'00011110',B'00111111' ;BTC=08
00688C 0C3F 0C3F      00716                         DT      B'00111111',B'00111111' ;BTC=09
006890 0C3F 0C3F      00717                         DT      B'00111111',B'00111111' ;BTC=0A
006894 0C3F 0C3F      00718                         DT      B'00111111',B'00111111' ;BTC=0B
006898 0C1E 0C3F      00719                         DT      B'00011110',B'00111111' ;BTC=0C
00689C 0C80 0C7F      00720                         DT      B'10000000',B'01111111' ;BTC=0D
0068A0 0CC0 0CFF      00721                         DT      B'11000000',B'11111111' ;BTC=0E
                      00722 
                      00723 
                      00724 
Warning[205]: Found directive in column 1. (ORG)
006900                00725 ORG     0X6900
006900                00726 FONT0_9
006900 0E00           00727                         MOVLW   0
006902 6EFB           00728                         MOVWF   PCLATU,0
006904 0E69           00729                         MOVLW   0X69
006906 6EFA           00730                         MOVWF   PCLATH,0
                      00731 
006908 C10A FFE8      00732                         MOVFF   BTCOUNT,WREG
00690C 90D8           00733                         BCF             STATUS,C
                      00734 
                      00735 
00690E 26F9           00736                         ADDWF   PCL,1,0
006910 0C8F           00737                         DT      B'10001111'     
006912 0C77           00738                         DT      B'01110111'     
006914 0C77           00739                         DT      B'01110111'     
006916 0C87           00740                         DT      B'10000111'     
006918 0CF7           00741                         DT      B'11110111'     
00691A 0C77           00742                         DT      B'01110111'     
00691C 0C8F           00743                         DT      B'10001111'     
00691E 0CFF           00744                         DT      B'11111111'     
006920 0CFF           00745                         DT      B'11111111'     
006922                00746 FONT1_9
006922 0E00           00747                         MOVLW   0
006924 6EFB           00748                         MOVWF   PCLATU,0
006926 0E69           00749                         MOVLW   0X69
006928 6EFA           00750                         MOVWF   PCLATH,0
                      00751 
00692A C10A FFE8      00752                         MOVFF   BTCOUNT,WREG
00692E 90D8           00753                         BCF             STATUS,C
                      00754 
                      00755 
006930 26F9           00756                         ADDWF   PCL,1,0
006932 0CFF           00757                         DT      B'11111111'
006934 0C83           00758                         DT      B'10000011'
MPASM  5.51                    2X4_P10_SB.ASM   4-22-2020  11:55:30         PAGE 16


LOC  OBJECT CODE     LINE SOURCE TEXT
  VALUE

006936 0C01           00759                         DT      B'00000001'
006938 0C39           00760                         DT      B'00111001'
00693A 0C39           00761                         DT      B'00111001'
00693C 0C39           00762                         DT      B'00111001'
00693E 0C39           00763                         DT      B'00111001'
006940 0C39           00764                         DT      B'00111001'
006942 0C01           00765                         DT      B'00000001'
006944 0C81           00766                         DT      B'10000001'
006946 0CF9           00767                         DT      B'11111001'
006948 0CF9           00768                         DT      B'11111001'
00694A 0CF9           00769                         DT      B'11111001'
00694C 0C39           00770                         DT      B'00111001'
00694E 0C01           00771                         DT      B'00000001'
006950 0C83           00772                         DT      B'10000011'
006952                00773 FONT2_9
006952 0E00           00774                         MOVLW   0
006954 6EFB           00775                         MOVWF   PCLATU,0
006956 0E69           00776                         MOVLW   0X69
006958 6EFA           00777                         MOVWF   PCLATH,0
                      00778 
00695A C10A FFE8      00779                         MOVFF   BTCOUNT,WREG
00695E 90D8           00780                         BCF             STATUS,C
006960 36E8           00781                         RLCF    WREG
                      00782 
                      00783                 
006962 26F9           00784                         ADDWF   PCL,1,0
006964 0CFF 0CFF      00785                         DT      B'11111111',B'11111111' ;BTC=0F
006968 0CC0 0CFF      00786                         DT      B'11000000',B'11111111' ;BTC=00
00696C 0C80 0C7F      00787                         DT      B'10000000',B'01111111' ;BTC=01
006970 0C1E 0C3F      00788                         DT      B'00011110',B'00111111' ;BTC=02
006974 0C3F 0C3F      00789                         DT      B'00111111',B'00111111' ;BTC=03
006978 0C3F 0C3F      00790                         DT      B'00111111',B'00111111' ;BTC=04
00697C 0C3F 0C3F      00791                         DT      B'00111111',B'00111111' ;BTC=05
006980 0C1E 0C3F      00792                         DT      B'00011110',B'00111111' ;BTC=06
006984 0C80 0C3F      00793                         DT      B'10000000',B'00111111' ;BTC=07
006988 0CC0 0C3F      00794                         DT      B'11000000',B'00111111' ;BTC=08
00698C 0CFE 0C3F      00795                         DT      B'11111110',B'00111111' ;BTC=09
006990 0CFF 0C3F      00796                         DT      B'11111111',B'00111111' ;BTC=0A
006994 0C3F 0C3F      00797                         DT      B'00111111',B'00111111' ;BTC=0B
006998 0C1E 0C3F      00798                         DT      B'00011110',B'00111111' ;BTC=0C
00699C 0C80 0C7F      00799                         DT      B'10000000',B'01111111' ;BTC=0D
0069A0 0CC0 0CFF      00800                         DT      B'11000000',B'11111111' ;BTC=0E
                      00801 
                      00802 
Warning[205]: Found directive in column 1. (ORG)
006A00                00803 ORG     0X6A00
006A00                00804 FONT1_A
006A00 0E00           00805                         MOVLW   0
006A02 6EFB           00806                         MOVWF   PCLATU,0
006A04 0E6A           00807                         MOVLW   0X6A
006A06 6EFA           00808                         MOVWF   PCLATH,0
                      00809 
006A08 C10A FFE8      00810                         MOVFF   BTCOUNT,WREG
MPASM  5.51                    2X4_P10_SB.ASM   4-22-2020  11:55:30         PAGE 17


LOC  OBJECT CODE     LINE SOURCE TEXT
  VALUE

006A0C 90D8           00811                         BCF             STATUS,C
                      00812 
                      00813 
006A0E 26F9           00814                         ADDWF   PCL,1,0
006A10 0CFF           00815                         DT      B'11111111'
006A12 0CFF           00816                         DT      B'11111111'
006A14 0CFF           00817                         DT      B'11111111'
006A16 0CFF           00818                         DT      B'11111111'
006A18 0CFF           00819                         DT      B'11111111'
006A1A 0CFF           00820                         DT      B'11111111'
006A1C 0CFF           00821                         DT      B'11111111'
006A1E 0CFF           00822                         DT      B'11111111'
006A20 0CFF           00823                         DT      B'11111111'
006A22 0CFF           00824                         DT      B'11111111'
006A24 0CFF           00825                         DT      B'11111111'
006A26 0CFF           00826                         DT      B'11111111'
006A28 0CFF           00827                         DT      B'11111111'
006A2A 0CFF           00828                         DT      B'11111111'
006A2C 0CFF           00829                         DT      B'11111111'
006A2E 0CFF           00830                         DT      B'11111111'
006A30                00831 FONT2_A
006A30 0E00           00832                         MOVLW   0
006A32 6EFB           00833                         MOVWF   PCLATU,0
006A34 0E6A           00834                         MOVLW   0X6A
006A36 6EFA           00835                         MOVWF   PCLATH,0
                      00836 
006A38 C10A FFE8      00837                         MOVFF   BTCOUNT,WREG
006A3C 90D8           00838                         BCF             STATUS,C
006A3E 36E8           00839                         RLCF    WREG
                      00840 
                      00841                 
006A40 26F9           00842                         ADDWF   PCL,1,0
006A42 0CFF 0CFF      00843                         DT      B'11111111',B'11111111' ;BTC=00
006A46 0CFF 0CFF      00844                         DT      B'11111111',B'11111111' ;BTC=01
006A4A 0CFF 0CFF      00845                         DT      B'11111111',B'11111111' ;BTC=02
006A4E 0CFF 0CFF      00846                         DT      B'11111111',B'11111111' ;BTC=03
006A52 0CFF 0CFF      00847                         DT      B'11111111',B'11111111' ;BTC=04
006A56 0CFF 0CFF      00848                         DT      B'11111111',B'11111111' ;BTC=05
006A5A 0CFF 0CFF      00849                         DT      B'11111111',B'11111111' ;BTC=06
006A5E 0CFF 0CFF      00850                         DT      B'11111111',B'11111111' ;BTC=07
006A62 0CFF 0CFF      00851                         DT      B'11111111',B'11111111' ;BTC=08
006A66 0CFF 0CFF      00852                         DT      B'11111111',B'11111111' ;BTC=09
006A6A 0CFF 0CFF      00853                         DT      B'11111111',B'11111111' ;BTC=0A
006A6E 0CFF 0CFF      00854                         DT      B'11111111',B'11111111' ;BTC=0B
006A72 0CFF 0CFF      00855                         DT      B'11111111',B'11111111' ;BTC=0C
006A76 0CFF 0CFF      00856                         DT      B'11111111',B'11111111' ;BTC=0D
006A7A 0CFF 0CFF      00857                         DT      B'11111111',B'11111111' ;BTC=0E
006A7E 0CFF 0CFF      00858                         DT      B'11111111',B'11111111' ;BTC=0F
                      00859 
                      00860 
Warning[205]: Found directive in column 1. (ORG)
006B00                00861 ORG     0X6B00
006B00                00862 FONT1_B
MPASM  5.51                    2X4_P10_SB.ASM   4-22-2020  11:55:30         PAGE 18


LOC  OBJECT CODE     LINE SOURCE TEXT
  VALUE

006B00 0E00           00863                         MOVLW   0
006B02 6EFB           00864                         MOVWF   PCLATU,0
006B04 0E6B           00865                         MOVLW   0X6B
006B06 6EFA           00866                         MOVWF   PCLATH,0
                      00867 
006B08 C10A FFE8      00868                         MOVFF   BTCOUNT,WREG
006B0C 90D8           00869                         BCF             STATUS,C
                      00870 
                      00871 
006B0E 26F9           00872                         ADDWF   PCL,1,0
006B10 0CFF           00873                         DT      B'11111111'     ;00
006B12 0CFF           00874                         DT      B'11111111'     ;01
006B14 0CFF           00875                         DT      B'11111111'     ;02
006B16 0C9F           00876                         DT      B'10011111'     ;03
006B18 0C9F           00877                         DT      B'10011111'     ;04
006B1A 0CFF           00878                         DT      B'11111111'     ;05
006B1C 0CFF           00879                         DT      B'11111111'     ;06
006B1E 0CFF           00880                         DT      B'11111111'     ;07
006B20 0CFF           00881                         DT      B'11111111'     ;08
006B22 0CFF           00882                         DT      B'11111111'     ;09
006B24 0CFF           00883                         DT      B'11111111'     ;0A
006B26 0C9F           00884                         DT      B'10011111'     ;0B
006B28 0C9F           00885                         DT      B'10011111'     ;0C
006B2A 0CFF           00886                         DT      B'11111111'     ;0D
006B2C 0CFF           00887                         DT      B'11111111'     ;0E
006B2E 0CFF           00888                         DT      B'11111111'     ;0F
                      00889 
                      00890 
006B30                00891 FONT2_B
006B30 0E00           00892                         MOVLW   0
006B32 6EFB           00893                         MOVWF   PCLATU,0
006B34 0E6B           00894                         MOVLW   0X6B
006B36 6EFA           00895                         MOVWF   PCLATH,0
                      00896 
006B38 C10A FFE8      00897                         MOVFF   BTCOUNT,WREG
006B3C 90D8           00898                         BCF             STATUS,C
006B3E 36E8           00899                         RLCF    WREG
                      00900 
                      00901                 
006B40 26F9           00902                         ADDWF   PCL,1,0
006B42 0CFF 0CFF      00903                         DT      B'11111111',B'11111111' ;BTC=00
006B46 0CFF 0CFF      00904                         DT      B'11111111',B'11111111' ;BTC=01
006B4A 0CE7 0CFF      00905                         DT      B'11100111',B'11111111' ;BTC=02
006B4E 0CC3 0CFF      00906                         DT      B'11000011',B'11111111' ;BTC=03
006B52 0CC3 0CFF      00907                         DT      B'11000011',B'11111111' ;BTC=04
006B56 0CE7 0CFF      00908                         DT      B'11100111',B'11111111' ;BTC=05
006B5A 0CFF 0CFF      00909                         DT      B'11111111',B'11111111' ;BTC=06
006B5E 0CFF 0CFF      00910                         DT      B'11111111',B'11111111' ;BTC=07
006B62 0CFF 0CFF      00911                         DT      B'11111111',B'11111111' ;BTC=08
006B66 0CFF 0CFF      00912                         DT      B'11111111',B'11111111' ;BTC=09
006B6A 0CFF 0CFF      00913                         DT      B'11111111',B'11111111' ;BTC=0A
006B6E 0CE7 0CFF      00914                         DT      B'11100111',B'11111111' ;BTC=0B
006B72 0CC3 0CFF      00915                         DT      B'11000011',B'11111111' ;BTC=0C
MPASM  5.51                    2X4_P10_SB.ASM   4-22-2020  11:55:30         PAGE 19


LOC  OBJECT CODE     LINE SOURCE TEXT
  VALUE

006B76 0CC3 0CFF      00916                         DT      B'11000011',B'11111111' ;BTC=0D
006B7A 0CE7 0CFF      00917                         DT      B'11100111',B'11111111' ;BTC=0E
006B7E 0CFF 0CFF      00918                         DT      B'11111111',B'11111111' ;BTC=0F
                      00919 
                      00920 
                      00921 
                      00922 
Warning[205]: Found directive in column 1. (ORG)
006C00                00923 ORG     0X6C00
006C00                00924 FONT1_C
006C00 0E00           00925                         MOVLW   0
006C02 6EFB           00926                         MOVWF   PCLATU,0
006C04 0E6C           00927                         MOVLW   0X6C
006C06 6EFA           00928                         MOVWF   PCLATH,0
                      00929 
006C08 C10A FFE8      00930                         MOVFF   BTCOUNT,WREG
006C0C 90D8           00931                         BCF             STATUS,C
                      00932 
                      00933 
006C0E 26F9           00934                         ADDWF   PCL,1,0
006C10 0CFF           00935                         DT      B'11111111'
006C12 0CFF           00936                         DT      B'11111111'
006C14 0CF8           00937                         DT      B'11111000'
006C16 0CF1           00938                         DT      B'11110001'
006C18 0CE3           00939                         DT      B'11100011'
006C1A 0CC7           00940                         DT      B'11000111'
006C1C 0C8F           00941                         DT      B'10001111'
006C1E 0C1F           00942                         DT      B'00011111'
006C20 0C1F           00943                         DT      B'00011111'
006C22 0C8F           00944                         DT      B'10001111'
006C24 0CC7           00945                         DT      B'11000111'
006C26 0CE3           00946                         DT      B'11100011'
006C28 0CF1           00947                         DT      B'11110001'
006C2A 0CF8           00948                         DT      B'11111000'
006C2C 0CFF           00949                         DT      B'11111111'
006C2E 0CFF           00950                         DT      B'11111111'
                      00951 
Warning[205]: Found directive in column 1. (ORG)
006D00                00952 ORG     0X6D00
006D00                00953 FONT1_D
006D00 0E00           00954                         MOVLW   0
006D02 6EFB           00955                         MOVWF   PCLATU,0
006D04 0E6D           00956                         MOVLW   0X6D
006D06 6EFA           00957                         MOVWF   PCLATH,0
                      00958 
006D08 C10A FFE8      00959                         MOVFF   BTCOUNT,WREG
006D0C 90D8           00960                         BCF             STATUS,C
                      00961 
                      00962 
006D0E 26F9           00963                         ADDWF   PCL,1,0
006D10 0CFF           00964                         DT      B'11111111'
006D12 0CFF           00965                         DT      B'11111111'
006D14 0C1F           00966                         DT      B'00011111'
MPASM  5.51                    2X4_P10_SB.ASM   4-22-2020  11:55:30         PAGE 20


LOC  OBJECT CODE     LINE SOURCE TEXT
  VALUE

006D16 0C8F           00967                         DT      B'10001111'
006D18 0CC7           00968                         DT      B'11000111'
006D1A 0CE3           00969                         DT      B'11100011'
006D1C 0CF1           00970                         DT      B'11110001'
006D1E 0CF8           00971                         DT      B'11111000'
006D20 0CF8           00972                         DT      B'11111000'
006D22 0CF1           00973                         DT      B'11110001'
006D24 0CE3           00974                         DT      B'11100011'
006D26 0CC7           00975                         DT      B'11000111'
006D28 0C8F           00976                         DT      B'10001111'
006D2A 0C1F           00977                         DT      B'00011111'
006D2C 0CFF           00978                         DT      B'11111111'
006D2E 0CFF           00979                         DT      B'11111111'
                      00980 
                      00981 
                      00982 
Warning[205]: Found directive in column 1. (ORG)
007000                00983 ORG     0X7000
007000                00984 FONT0_A
007000 0E00           00985                         MOVLW   0
007002 6EFB           00986                         MOVWF   PCLATU,0
007004 0E70           00987                         MOVLW   0X70
007006 6EFA           00988                         MOVWF   PCLATH,0
                      00989 
007008 C10A FFE8      00990                         MOVFF   BTCOUNT,WREG
00700C 90D8           00991                         BCF             STATUS,C
                      00992 
                      00993 
00700E 26F9           00994                         ADDWF   PCL,1,0
007010 0CFF           00995                         DT      B'11111111'     ;00
007012 0CFF           00996                         DT      B'11111111'     ;01
007014 0C7F           00997                         DT      B'01111111'     ;02
007016 0CFF           00998                         DT      B'11111111'     ;03
007018 0CFF           00999                         DT      B'11111111'     ;04
00701A 0C7F           01000                         DT      B'01111111'     ;05
00701C 0CFF           01001                         DT      B'11111111'     ;06
00701E 0CFF           01002                         DT      B'11111111'     ;07
                      01003 
007020                01004 FONT0_B
007020 0E00           01005                         MOVLW   0
007022 6EFB           01006                         MOVWF   PCLATU,0
007024 0E70           01007                         MOVLW   0X70
007026 6EFA           01008                         MOVWF   PCLATH,0
                      01009 
007028 C10A FFE8      01010                         MOVFF   BTCOUNT,WREG
00702C 90D8           01011                         BCF             STATUS,C
                      01012 
                      01013 
00702E 26F9           01014                         ADDWF   PCL,1,0
007030 0CDF           01015                         DT      B'11011111'     ;00
007032 0CAF           01016                         DT      B'10101111'     ;01
007034 0C77           01017                         DT      B'01110111'     ;02
007036 0C07           01018                         DT      B'00000111'     ;03
MPASM  5.51                    2X4_P10_SB.ASM   4-22-2020  11:55:30         PAGE 21


LOC  OBJECT CODE     LINE SOURCE TEXT
  VALUE

007038 0C77           01019                         DT      B'01110111'     ;04
00703A 0C77           01020                         DT      B'01110111'     ;05     
00703C 0C77           01021                         DT      B'01110111'     ;06
00703E 0CFF           01022                         DT      B'11111111'     ;07
                      01023 
007040                01024 FONT0_C
007040 0E00           01025                         MOVLW   0
007042 6EFB           01026                         MOVWF   PCLATU,0
007044 0E70           01027                         MOVLW   0X70
007046 6EFA           01028                         MOVWF   PCLATH,0
                      01029 
007048 C10A FFE8      01030                         MOVFF   BTCOUNT,WREG
00704C 90D8           01031                         BCF             STATUS,C
                      01032 
                      01033 
00704E 26F9           01034                         ADDWF   PCL,1,0
007050 0CDF           01035                         DT      B'11011111'     ;00
007052 0CAF           01036                         DT      B'10101111'     ;01
007054 0C77           01037                         DT      B'01110111'     ;02
007056 0C07           01038                         DT      B'00000111'     ;03
007058 0C77           01039                         DT      B'01110111'     ;04
00705A 0C77           01040                         DT      B'01110111'     ;05     
00705C 0C77           01041                         DT      B'01110111'     ;06
00705E 0CFF           01042                         DT      B'11111111'     ;07
                      01043 
007060                01044 FONT0_D
007060 0E00           01045                         MOVLW   0
007062 6EFB           01046                         MOVWF   PCLATU,0
007064 0E70           01047                         MOVLW   0X70
007066 6EFA           01048                         MOVWF   PCLATH,0
                      01049 
007068 C10A FFE8      01050                         MOVFF   BTCOUNT,WREG
00706C 90D8           01051                         BCF             STATUS,C
                      01052 
                      01053 
00706E 26F9           01054                         ADDWF   PCL,1,0
007070 0CDF           01055                         DT      B'11011111'     ;00
007072 0CAF           01056                         DT      B'10101111'     ;01
007074 0C77           01057                         DT      B'01110111'     ;02
007076 0C07           01058                         DT      B'00000111'     ;03
007078 0C77           01059                         DT      B'01110111'     ;04
00707A 0C77           01060                         DT      B'01110111'     ;05     
00707C 0C77           01061                         DT      B'01110111'     ;06
00707E 0CFF           01062                         DT      B'11111111'     ;07
                      01063 
                      01064 
007080                01065 FONT0_E
007080 0E00           01066                         MOVLW   0
007082 6EFB           01067                         MOVWF   PCLATU,0
007084 0E70           01068                         MOVLW   0X70
007086 6EFA           01069                         MOVWF   PCLATH,0
                      01070 
007088 C10A FFE8      01071                         MOVFF   BTCOUNT,WREG
MPASM  5.51                    2X4_P10_SB.ASM   4-22-2020  11:55:30         PAGE 22


LOC  OBJECT CODE     LINE SOURCE TEXT
  VALUE

00708C 90D8           01072                         BCF             STATUS,C
                      01073 
                      01074 
00708E 26F9           01075                         ADDWF   PCL,1,0
007090 0CDF           01076                         DT      B'11011111'     ;00
007092 0CAF           01077                         DT      B'10101111'     ;01
007094 0C77           01078                         DT      B'01110111'     ;02
007096 0C07           01079                         DT      B'00000111'     ;03
007098 0C77           01080                         DT      B'01110111'     ;04
00709A 0C77           01081                         DT      B'01110111'     ;05     
00709C 0C77           01082                         DT      B'01110111'     ;06
00709E 0CFF           01083                         DT      B'11111111'     ;07
                      01084 
                      01085 
0070A0                01086 FONT0_F
0070A0 0E00           01087                         MOVLW   0
0070A2 6EFB           01088                         MOVWF   PCLATU,0
0070A4 0E70           01089                         MOVLW   0X70
0070A6 6EFA           01090                         MOVWF   PCLATH,0
                      01091 
0070A8 C10A FFE8      01092                         MOVFF   BTCOUNT,WREG
0070AC 90D8           01093                         BCF             STATUS,C
                      01094 
0070AE 26F9           01095                         ADDWF   PCL,1,0
0070B0 0CDF           01096                         DT      B'11011111'     ;00
0070B2 0CAF           01097                         DT      B'10101111'     ;01
0070B4 0C77           01098                         DT      B'01110111'     ;02
0070B6 0C07           01099                         DT      B'00000111'     ;03
0070B8 0C77           01100                         DT      B'01110111'     ;04
0070BA 0C77           01101                         DT      B'01110111'     ;05     
0070BC 0C77           01102                         DT      B'01110111'     ;06
0070BE 0CFF           01103                         DT      B'11111111'     ;07
                      01104 
                      01105 
Warning[205]: Found directive in column 1. (ORG)
007100                01106 ORG     0X7100
007100                01107 FONT0_10
007100 0E00           01108                         MOVLW   0
007102 6EFB           01109                         MOVWF   PCLATU,0
007104 0E71           01110                         MOVLW   0X71
007106 6EFA           01111                         MOVWF   PCLATH,0
                      01112 
007108 C10A FFE8      01113                         MOVFF   BTCOUNT,WREG
00710C 90D8           01114                         BCF             STATUS,C
                      01115 
                      01116 
00710E 26F9           01117                         ADDWF   PCL,1,0
007110 0C8F           01118                         DT      B'10001111'     ;00
007112 0C77           01119                         DT      B'01110111'     ;01
007114 0C77           01120                         DT      B'01110111'     ;02
007116 0C07           01121                         DT      B'00000111'     ;03
007118 0C77           01122                         DT      B'01110111'     ;04
00711A 0C77           01123                         DT      B'01110111'     ;05
MPASM  5.51                    2X4_P10_SB.ASM   4-22-2020  11:55:30         PAGE 23


LOC  OBJECT CODE     LINE SOURCE TEXT
  VALUE

00711C 0C77           01124                         DT      B'01110111'     ;06
00711E 0CFF           01125                         DT      B'11111111'     ;07
                      01126 
007120                01127 FONT0_11
007120 0E00           01128                         MOVLW   0
007122 6EFB           01129                         MOVWF   PCLATU,0
007124 0E71           01130                         MOVLW   0X71
007126 6EFA           01131                         MOVWF   PCLATH,0
                      01132 
007128 C10A FFE8      01133                         MOVFF   BTCOUNT,WREG
00712C 90D8           01134                         BCF             STATUS,C
                      01135 
                      01136 
00712E 26F9           01137                         ADDWF   PCL,1,0
007130 0C0F           01138                         DT      B'00001111'     ;00
007132 0C77           01139                         DT      B'01110111'     ;01
007134 0C77           01140                         DT      B'01110111'     ;02
007136 0C0F           01141                         DT      B'00001111'     ;03
007138 0C77           01142                         DT      B'01110111'     ;04
00713A 0C77           01143                         DT      B'01110111'     ;05
00713C 0C0F           01144                         DT      B'00001111'     ;06
00713E 0CFF           01145                         DT      B'11111111'     ;07
                      01146 
007140                01147 FONT0_12
007140 0E00           01148                         MOVLW   0
007142 6EFB           01149                         MOVWF   PCLATU,0
007144 0E71           01150                         MOVLW   0X71
007146 6EFA           01151                         MOVWF   PCLATH,0
                      01152 
007148 C10A FFE8      01153                         MOVFF   BTCOUNT,WREG
00714C 90D8           01154                         BCF             STATUS,C
                      01155 
                      01156 
00714E 26F9           01157                         ADDWF   PCL,1,0
007150 0C8F           01158                         DT      B'10001111'     ;00
007152 0C77           01159                         DT      B'01110111'     ;01
007154 0C7F           01160                         DT      B'01111111'     ;02
007156 0C7F           01161                         DT      B'01111111'     ;03
007158 0C7F           01162                         DT      B'01111111'     ;04
00715A 0C77           01163                         DT      B'01110111'     ;05
00715C 0C8F           01164                         DT      B'10001111'     ;06
00715E 0CFF           01165                         DT      B'11111111'     ;07
                      01166 
007160                01167 FONT0_13
007160 0E00           01168                         MOVLW   0
007162 6EFB           01169                         MOVWF   PCLATU,0
007164 0E71           01170                         MOVLW   0X71
007166 6EFA           01171                         MOVWF   PCLATH,0
                      01172 
007168 C10A FFE8      01173                         MOVFF   BTCOUNT,WREG
00716C 90D8           01174                         BCF             STATUS,C
                      01175 
                      01176 
MPASM  5.51                    2X4_P10_SB.ASM   4-22-2020  11:55:30         PAGE 24


LOC  OBJECT CODE     LINE SOURCE TEXT
  VALUE

00716E 26F9           01177                         ADDWF   PCL,1,0
007170 0C0F           01178                         DT      B'00001111'     ;00
007172 0C77           01179                         DT      B'01110111'     ;01
007174 0C77           01180                         DT      B'01110111'     ;02
007176 0C77           01181                         DT      B'01110111'     ;03
007178 0C77           01182                         DT      B'01110111'     ;04
00717A 0C77           01183                         DT      B'01110111'     ;05
00717C 0C0F           01184                         DT      B'00001111'     ;06
00717E 0CFF           01185                         DT      B'11111111'     ;07
                      01186 
007180                01187 FONT0_14
007180 0E00           01188                         MOVLW   0
007182 6EFB           01189                         MOVWF   PCLATU,0
007184 0E71           01190                         MOVLW   0X71
007186 6EFA           01191                         MOVWF   PCLATH,0
                      01192 
007188 C10A FFE8      01193                         MOVFF   BTCOUNT,WREG
00718C 90D8           01194                         BCF             STATUS,C
                      01195 
00718E 26F9           01196                         ADDWF   PCL,1,0
007190 0C07           01197                         DT      B'00000111'     ;00
007192 0C7F           01198                         DT      B'01111111'     ;01
007194 0C7F           01199                         DT      B'01111111'     ;02
007196 0C0F           01200                         DT      B'00001111'     ;03
007198 0C7F           01201                         DT      B'01111111'     ;04
00719A 0C7F           01202                         DT      B'01111111'     ;05
00719C 0C07           01203                         DT      B'00000111'     ;06
00719E 0CFF           01204                         DT      B'11111111'     ;07
                      01205 
0071A0                01206 FONT0_15
0071A0 0E00           01207                         MOVLW   0
0071A2 6EFB           01208                         MOVWF   PCLATU,0
0071A4 0E71           01209                         MOVLW   0X71
0071A6 6EFA           01210                         MOVWF   PCLATH,0
                      01211 
0071A8 C10A FFE8      01212                         MOVFF   BTCOUNT,WREG
0071AC 90D8           01213                         BCF             STATUS,C
                      01214 
0071AE 26F9           01215                         ADDWF   PCL,1,0
0071B0 0C07           01216                         DT      B'00000111'     ;00
0071B2 0C7F           01217                         DT      B'01111111'     ;01
0071B4 0C7F           01218                         DT      B'01111111'     ;02
0071B6 0C0F           01219                         DT      B'00001111'     ;03
0071B8 0C7F           01220                         DT      B'01111111'     ;04
0071BA 0C7F           01221                         DT      B'01111111'     ;05
0071BC 0C7F           01222                         DT      B'01111111'     ;06
0071BE 0CFF           01223                         DT      B'11111111'     ;07
                      01224 
                      01225 
0071C0                01226 FONT0_16
0071C0 0E00           01227                         MOVLW   0
0071C2 6EFB           01228                         MOVWF   PCLATU,0
0071C4 0E71           01229                         MOVLW   0X71
MPASM  5.51                    2X4_P10_SB.ASM   4-22-2020  11:55:30         PAGE 25


LOC  OBJECT CODE     LINE SOURCE TEXT
  VALUE

0071C6 6EFA           01230                         MOVWF   PCLATH,0
                      01231 
0071C8 C10A FFE8      01232                         MOVFF   BTCOUNT,WREG
0071CC 90D8           01233                         BCF             STATUS,C
                      01234 
0071CE 26F9           01235                         ADDWF   PCL,1,0
0071D0 0C8F           01236                         DT      B'10001111'     ;00
0071D2 0C77           01237                         DT      B'01110111'     ;01
0071D4 0C7F           01238                         DT      B'01111111'     ;02
0071D6 0C47           01239                         DT      B'01000111'     ;03
0071D8 0C77           01240                         DT      B'01110111'     ;04
0071DA 0C77           01241                         DT      B'01110111'     ;05
0071DC 0C8F           01242                         DT      B'10001111'     ;06
0071DE 0CFF           01243                         DT      B'11111111'     ;07
                      01244 
                      01245 
0071E0                01246 FONT0_17
0071E0 0E00           01247                         MOVLW   0
0071E2 6EFB           01248                         MOVWF   PCLATU,0
0071E4 0E71           01249                         MOVLW   0X71
0071E6 6EFA           01250                         MOVWF   PCLATH,0
                      01251 
0071E8 C10A FFE8      01252                         MOVFF   BTCOUNT,WREG
0071EC 90D8           01253                         BCF             STATUS,C
                      01254 
0071EE 26F9           01255                         ADDWF   PCL,1,0
0071F0 0C77           01256                         DT      B'01110111'     ;00
0071F2 0C77           01257                         DT      B'01110111'     ;01
0071F4 0C77           01258                         DT      B'01110111'     ;02
0071F6 0C07           01259                         DT      B'00000111'     ;03
0071F8 0C77           01260                         DT      B'01110111'     ;04
0071FA 0C77           01261                         DT      B'01110111'     ;05
0071FC 0C77           01262                         DT      B'01110111'     ;06
0071FE 0CFF           01263                         DT      B'11111111'     ;07
                      01264 
Warning[205]: Found directive in column 1. (ORG)
007200                01265 ORG     0X7200
007200                01266 FONT0_18
007200 0E00           01267                         MOVLW   0
007202 6EFB           01268                         MOVWF   PCLATU,0
007204 0E72           01269                         MOVLW   0X72
007206 6EFA           01270                         MOVWF   PCLATH,0
                      01271 
007208 C10A FFE8      01272                         MOVFF   BTCOUNT,WREG
00720C 90D8           01273                         BCF             STATUS,C
                      01274 
00720E 26F9           01275                         ADDWF   PCL,1,0
007210 0C07           01276                         DT      B'00000111'     ;00
007212 0CDF           01277                         DT      B'11011111'     ;01
007214 0CDF           01278                         DT      B'11011111'     ;02
007216 0CDF           01279                         DT      B'11011111'     ;03
007218 0CDF           01280                         DT      B'11011111'     ;04
00721A 0CDF           01281                         DT      B'11011111'     ;05
MPASM  5.51                    2X4_P10_SB.ASM   4-22-2020  11:55:30         PAGE 26


LOC  OBJECT CODE     LINE SOURCE TEXT
  VALUE

00721C 0C07           01282                         DT      B'00000111'     ;06
00721E 0CFF           01283                         DT      B'11111111'     ;07
                      01284 
007220                01285 FONT0_19
007220 0E00           01286                         MOVLW   0
007222 6EFB           01287                         MOVWF   PCLATU,0
007224 0E72           01288                         MOVLW   0X72
007226 6EFA           01289                         MOVWF   PCLATH,0
                      01290 
007228 C10A FFE8      01291                         MOVFF   BTCOUNT,WREG
00722C 90D8           01292                         BCF             STATUS,C
                      01293 
00722E 26F9           01294                         ADDWF   PCL,1,0
007230 0C87           01295                         DT      B'10000111'     ;00
007232 0CF7           01296                         DT      B'11110111'     ;01
007234 0CF7           01297                         DT      B'11110111'     ;02
007236 0CF7           01298                         DT      B'11110111'     ;03
007238 0CF7           01299                         DT      B'11110111'     ;04
00723A 0C77           01300                         DT      B'01110111'     ;05
00723C 0C8F           01301                         DT      B'10001111'     ;06
00723E 0CFF           01302                         DT      B'11111111'     ;07
                      01303 
                      01304 
007240                01305 FONT0_1A
007240 0E00           01306                         MOVLW   0
007242 6EFB           01307                         MOVWF   PCLATU,0
007244 0E72           01308                         MOVLW   0X72
007246 6EFA           01309                         MOVWF   PCLATH,0
                      01310 
007248 C10A FFE8      01311                         MOVFF   BTCOUNT,WREG
00724C 90D8           01312                         BCF             STATUS,C
                      01313 
00724E 26F9           01314                         ADDWF   PCL,1,0
007250 0C77           01315                         DT      B'01110111'     ;00
007252 0C77           01316                         DT      B'01110111'     ;01
007254 0C6F           01317                         DT      B'01101111'     ;02
007256 0C1F           01318                         DT      B'00011111'     ;03
007258 0C6F           01319                         DT      B'01101111'     ;04
00725A 0C77           01320                         DT      B'01110111'     ;05
00725C 0C77           01321                         DT      B'01110111'     ;06
00725E 0CFF           01322                         DT      B'11111111'     ;07
                      01323 
007260                01324 FONT0_1B
007260 0E00           01325                         MOVLW   0
007262 6EFB           01326                         MOVWF   PCLATU,0
007264 0E72           01327                         MOVLW   0X72
007266 6EFA           01328                         MOVWF   PCLATH,0
                      01329 
007268 C10A FFE8      01330                         MOVFF   BTCOUNT,WREG
00726C 90D8           01331                         BCF             STATUS,C
                      01332 
00726E 26F9           01333                         ADDWF   PCL,1,0
007270 0C7F           01334                         DT      B'01111111'     ;00
MPASM  5.51                    2X4_P10_SB.ASM   4-22-2020  11:55:30         PAGE 27


LOC  OBJECT CODE     LINE SOURCE TEXT
  VALUE

007272 0C7F           01335                         DT      B'01111111'     ;01
007274 0C7F           01336                         DT      B'01111111'     ;02
007276 0C7F           01337                         DT      B'01111111'     ;03
007278 0C7F           01338                         DT      B'01111111'     ;04
00727A 0C7F           01339                         DT      B'01111111'     ;05
00727C 0C07           01340                         DT      B'00000111'     ;06
00727E 0CFF           01341                         DT      B'11111111'     ;07
                      01342 
                      01343 
007280                01344 FONT0_1C
007280 0E00           01345                         MOVLW   0
007282 6EFB           01346                         MOVWF   PCLATU,0
007284 0E72           01347                         MOVLW   0X72
007286 6EFA           01348                         MOVWF   PCLATH,0
                      01349 
007288 C10A FFE8      01350                         MOVFF   BTCOUNT,WREG
00728C 90D8           01351                         BCF             STATUS,C
                      01352 
00728E 26F9           01353                         ADDWF   PCL,1,0
007290 0C77           01354                         DT      B'01110111'     ;00
007292 0C27           01355                         DT      B'00100111'     ;01
007294 0C57           01356                         DT      B'01010111'     ;02
007296 0C77           01357                         DT      B'01110111'     ;03
007298 0C77           01358                         DT      B'01110111'     ;04
00729A 0C77           01359                         DT      B'01110111'     ;05
00729C 0C77           01360                         DT      B'01110111'     ;06
00729E 0CFF           01361                         DT      B'11111111'     ;07
                      01362 
0072A0                01363 FONT0_1D
0072A0 0E00           01364                         MOVLW   0
0072A2 6EFB           01365                         MOVWF   PCLATU,0
0072A4 0E72           01366                         MOVLW   0X72
0072A6 6EFA           01367                         MOVWF   PCLATH,0
                      01368 
0072A8 C10A FFE8      01369                         MOVFF   BTCOUNT,WREG
0072AC 90D8           01370                         BCF             STATUS,C
                      01371 
0072AE 26F9           01372                         ADDWF   PCL,1,0
0072B0 0C77           01373                         DT      B'01110111'     ;00
0072B2 0C77           01374                         DT      B'01110111'     ;01
0072B4 0C37           01375                         DT      B'00110111'     ;02
0072B6 0C57           01376                         DT      B'01010111'     ;03
0072B8 0C67           01377                         DT      B'01100111'     ;04
0072BA 0C77           01378                         DT      B'01110111'     ;05
0072BC 0C77           01379                         DT      B'01110111'     ;06
0072BE 0CFF           01380                         DT      B'11111111'     ;07
                      01381 
                      01382 
0072C0                01383 FONT0_1E
0072C0 0E00           01384                         MOVLW   0
0072C2 6EFB           01385                         MOVWF   PCLATU,0
0072C4 0E72           01386                         MOVLW   0X72
0072C6 6EFA           01387                         MOVWF   PCLATH,0
MPASM  5.51                    2X4_P10_SB.ASM   4-22-2020  11:55:30         PAGE 28


LOC  OBJECT CODE     LINE SOURCE TEXT
  VALUE

                      01388 
0072C8 C10A FFE8      01389                         MOVFF   BTCOUNT,WREG
0072CC 90D8           01390                         BCF             STATUS,C
                      01391 
0072CE 26F9           01392                         ADDWF   PCL,1,0
0072D0 0C8F           01393                         DT      B'10001111'     ;00
0072D2 0C77           01394                         DT      B'01110111'     ;01
0072D4 0C77           01395                         DT      B'01110111'     ;02
0072D6 0C77           01396                         DT      B'01110111'     ;03
0072D8 0C77           01397                         DT      B'01110111'     ;04
0072DA 0C77           01398                         DT      B'01110111'     ;05
0072DC 0C8F           01399                         DT      B'10001111'     ;06
0072DE 0CFF           01400                         DT      B'11111111'     ;07
                      01401 
                      01402 
0072E0                01403 FONT0_1F
0072E0 0E00           01404                         MOVLW   0
0072E2 6EFB           01405                         MOVWF   PCLATU,0
0072E4 0E72           01406                         MOVLW   0X72
0072E6 6EFA           01407                         MOVWF   PCLATH,0
                      01408 
0072E8 C10A FFE8      01409                         MOVFF   BTCOUNT,WREG
0072EC 90D8           01410                         BCF             STATUS,C
                      01411 
0072EE 26F9           01412                         ADDWF   PCL,1,0
0072F0 0C0F           01413                         DT      B'00001111'     ;00
0072F2 0C77           01414                         DT      B'01110111'     ;01
0072F4 0C77           01415                         DT      B'01110111'     ;02
0072F6 0C0F           01416                         DT      B'00001111'     ;03
0072F8 0C7F           01417                         DT      B'01111111'     ;04
0072FA 0C7F           01418                         DT      B'01111111'     ;05
0072FC 0C7F           01419                         DT      B'01111111'     ;06
0072FE 0CFF           01420                         DT      B'11111111'     ;07
                      01421 
                      01422 
Warning[205]: Found directive in column 1. (ORG)
007300                01423 ORG     0X7300
007300                01424 FONT0_20
007300 0E00           01425                         MOVLW   0
007302 6EFB           01426                         MOVWF   PCLATU,0
007304 0E73           01427                         MOVLW   0X73
007306 6EFA           01428                         MOVWF   PCLATH,0
                      01429 
007308 C10A FFE8      01430                         MOVFF   BTCOUNT,WREG
00730C 90D8           01431                         BCF             STATUS,C
                      01432 
00730E 26F9           01433                         ADDWF   PCL,1,0
007310 0C8F           01434                         DT      B'10001111'     ;00
007312 0C77           01435                         DT      B'01110111'     ;01
007314 0C77           01436                         DT      B'01110111'     ;02
007316 0C77           01437                         DT      B'01110111'     ;03
007318 0C77           01438                         DT      B'01110111'     ;04
00731A 0C8F           01439                         DT      B'10001111'     ;05
MPASM  5.51                    2X4_P10_SB.ASM   4-22-2020  11:55:30         PAGE 29


LOC  OBJECT CODE     LINE SOURCE TEXT
  VALUE

00731C 0CF7           01440                         DT      B'11110111'     ;06
00731E 0CFF           01441                         DT      B'11111111'     ;07
                      01442 
                      01443 
007320                01444 FONT0_21
007320 0E00           01445                         MOVLW   0
007322 6EFB           01446                         MOVWF   PCLATU,0
007324 0E73           01447                         MOVLW   0X73
007326 6EFA           01448                         MOVWF   PCLATH,0
                      01449 
007328 C10A FFE8      01450                         MOVFF   BTCOUNT,WREG
00732C 90D8           01451                         BCF             STATUS,C
                      01452 
00732E 26F9           01453                         ADDWF   PCL,1,0
007330 0C0F           01454                         DT      B'00001111'     ;00
007332 0C77           01455                         DT      B'01110111'     ;01
007334 0C77           01456                         DT      B'01110111'     ;02
007336 0C0F           01457                         DT      B'00001111'     ;03
007338 0C77           01458                         DT      B'01110111'     ;04
00733A 0C77           01459                         DT      B'01110111'     ;05
00733C 0C77           01460                         DT      B'01110111'     ;06
00733E 0CFF           01461                         DT      B'11111111'     ;07
                      01462 
                      01463 
007340                01464 FONT0_22
007340 0E00           01465                         MOVLW   0
007342 6EFB           01466                         MOVWF   PCLATU,0
007344 0E73           01467                         MOVLW   0X73
007346 6EFA           01468                         MOVWF   PCLATH,0
                      01469 
007348 C10A FFE8      01470                         MOVFF   BTCOUNT,WREG
00734C 90D8           01471                         BCF             STATUS,C
                      01472 
00734E 26F9           01473                         ADDWF   PCL,1,0
007350 0C8F           01474                         DT      B'10001111'     ;00
007352 0C77           01475                         DT      B'01110111'     ;01
007354 0C7F           01476                         DT      B'01111111'     ;02
007356 0C8F           01477                         DT      B'10001111'     ;03
007358 0CF7           01478                         DT      B'11110111'     ;04
00735A 0C77           01479                         DT      B'01110111'     ;05
00735C 0C8F           01480                         DT      B'10001111'     ;06
00735E 0CFF           01481                         DT      B'11111111'     ;07
                      01482 
                      01483 
007360                01484 FONT0_23
007360 0E00           01485                         MOVLW   0
007362 6EFB           01486                         MOVWF   PCLATU,0
007364 0E73           01487                         MOVLW   0X73
007366 6EFA           01488                         MOVWF   PCLATH,0
                      01489 
007368 C10A FFE8      01490                         MOVFF   BTCOUNT,WREG
00736C 90D8           01491                         BCF             STATUS,C
                      01492 
MPASM  5.51                    2X4_P10_SB.ASM   4-22-2020  11:55:30         PAGE 30


LOC  OBJECT CODE     LINE SOURCE TEXT
  VALUE

00736E 26F9           01493                         ADDWF   PCL,1,0
007370 0C07           01494                         DT      B'00000111'     ;00
007372 0CDF           01495                         DT      B'11011111'     ;01
007374 0CDF           01496                         DT      B'11011111'     ;02
007376 0CDF           01497                         DT      B'11011111'     ;03
007378 0CDF           01498                         DT      B'11011111'     ;04
00737A 0CDF           01499                         DT      B'11011111'     ;05
00737C 0CDF           01500                         DT      B'11011111'     ;06
00737E 0CFF           01501                         DT      B'11111111'     ;07
                      01502 
007380                01503 FONT0_24
007380 0E00           01504                         MOVLW   0
007382 6EFB           01505                         MOVWF   PCLATU,0
007384 0E73           01506                         MOVLW   0X73
007386 6EFA           01507                         MOVWF   PCLATH,0
                      01508 
007388 C10A FFE8      01509                         MOVFF   BTCOUNT,WREG
00738C 90D8           01510                         BCF             STATUS,C
                      01511 
00738E 26F9           01512                         ADDWF   PCL,1,0
007390 0C77           01513                         DT      B'01110111'     ;00
007392 0C77           01514                         DT      B'01110111'     ;01
007394 0C77           01515                         DT      B'01110111'     ;02
007396 0C77           01516                         DT      B'01110111'     ;03
007398 0C77           01517                         DT      B'01110111'     ;04
00739A 0C77           01518                         DT      B'01110111'     ;05
00739C 0C8F           01519                         DT      B'10001111'     ;06
00739E 0CFF           01520                         DT      B'11111111'     ;07
                      01521 
                      01522 
                      01523 
0073A0                01524 FONT0_25
0073A0 0E00           01525                         MOVLW   0
0073A2 6EFB           01526                         MOVWF   PCLATU,0
0073A4 0E73           01527                         MOVLW   0X73
0073A6 6EFA           01528                         MOVWF   PCLATH,0
                      01529 
0073A8 C10A FFE8      01530                         MOVFF   BTCOUNT,WREG
0073AC 90D8           01531                         BCF             STATUS,C
                      01532 
0073AE 26F9           01533                         ADDWF   PCL,1,0
0073B0 0C77           01534                         DT      B'01110111'     ;00
0073B2 0C77           01535                         DT      B'01110111'     ;01
0073B4 0C77           01536                         DT      B'01110111'     ;02
0073B6 0C77           01537                         DT      B'01110111'     ;03
0073B8 0C77           01538                         DT      B'01110111'     ;04
0073BA 0CAF           01539                         DT      B'10101111'     ;05
0073BC 0CDF           01540                         DT      B'11011111'     ;06
0073BE 0CFF           01541                         DT      B'11111111'     ;07
                      01542 
0073C0                01543 FONT0_26
0073C0 0E00           01544                         MOVLW   0
0073C2 6EFB           01545                         MOVWF   PCLATU,0
MPASM  5.51                    2X4_P10_SB.ASM   4-22-2020  11:55:30         PAGE 31


LOC  OBJECT CODE     LINE SOURCE TEXT
  VALUE

0073C4 0E73           01546                         MOVLW   0X73
0073C6 6EFA           01547                         MOVWF   PCLATH,0
                      01548 
0073C8 C10A FFE8      01549                         MOVFF   BTCOUNT,WREG
0073CC 90D8           01550                         BCF             STATUS,C
                      01551 
0073CE 26F9           01552                         ADDWF   PCL,1,0
0073D0 0C77           01553                         DT      B'01110111'     ;00
0073D2 0C77           01554                         DT      B'01110111'     ;01
0073D4 0C77           01555                         DT      B'01110111'     ;02
0073D6 0C77           01556                         DT      B'01110111'     ;03
0073D8 0C57           01557                         DT      B'01010111'     ;04
0073DA 0C27           01558                         DT      B'00100111'     ;05
0073DC 0C77           01559                         DT      B'01110111'     ;06
0073DE 0CFF           01560                         DT      B'11111111'     ;07
                      01561 
                      01562 
0073E0                01563 FONT0_27
0073E0 0E00           01564                         MOVLW   0
0073E2 6EFB           01565                         MOVWF   PCLATU,0
0073E4 0E73           01566                         MOVLW   0X73
0073E6 6EFA           01567                         MOVWF   PCLATH,0
                      01568 
0073E8 C10A FFE8      01569                         MOVFF   BTCOUNT,WREG
0073EC 90D8           01570                         BCF             STATUS,C
                      01571 
0073EE 26F9           01572                         ADDWF   PCL,1,0
0073F0 0C77           01573                         DT      B'01110111'     ;00
0073F2 0C77           01574                         DT      B'01110111'     ;01
0073F4 0CAF           01575                         DT      B'10101111'     ;02
0073F6 0CDF           01576                         DT      B'11011111'     ;03
0073F8 0CAF           01577                         DT      B'10101111'     ;04
0073FA 0C77           01578                         DT      B'01110111'     ;05
0073FC 0C77           01579                         DT      B'01110111'     ;06
0073FE 0CFF           01580                         DT      B'11111111'     ;07
                      01581 
                      01582 
                      01583 
                      01584 
Warning[205]: Found directive in column 1. (ORG)
007400                01585 ORG     0X7400
007400                01586 FONT0_28
007400 0E00           01587                         MOVLW   0
007402 6EFB           01588                         MOVWF   PCLATU,0
007404 0E74           01589                         MOVLW   0X74
007406 6EFA           01590                         MOVWF   PCLATH,0
                      01591 
007408 C10A FFE8      01592                         MOVFF   BTCOUNT,WREG
00740C 90D8           01593                         BCF             STATUS,C
                      01594 
00740E 26F9           01595                         ADDWF   PCL,1,0
007410 0C77           01596                         DT      B'01110111'     ;00
007412 0C77           01597                         DT      B'01110111'     ;01
MPASM  5.51                    2X4_P10_SB.ASM   4-22-2020  11:55:30         PAGE 32


LOC  OBJECT CODE     LINE SOURCE TEXT
  VALUE

007414 0CAF           01598                         DT      B'10101111'     ;02
007416 0CDF           01599                         DT      B'11011111'     ;03
007418 0CDF           01600                         DT      B'11011111'     ;04
00741A 0CDF           01601                         DT      B'11011111'     ;05
00741C 0CDF           01602                         DT      B'11011111'     ;06
00741E 0CFF           01603                         DT      B'11111111'     ;07
                      01604 
007420                01605 FONT0_29
007420 0E00           01606                         MOVLW   0
007422 6EFB           01607                         MOVWF   PCLATU,0
007424 0E74           01608                         MOVLW   0X74
007426 6EFA           01609                         MOVWF   PCLATH,0
                      01610 
007428 C10A FFE8      01611                         MOVFF   BTCOUNT,WREG
00742C 90D8           01612                         BCF             STATUS,C
                      01613 
00742E 26F9           01614                         ADDWF   PCL,1,0
007430 0C07           01615                         DT      B'00000111'     ;00
007432 0CF7           01616                         DT      B'11110111'     ;01
007434 0CEF           01617                         DT      B'11101111'     ;02
007436 0CDF           01618                         DT      B'11011111'     ;03
007438 0CBF           01619                         DT      B'10111111'     ;04
00743A 0C7F           01620                         DT      B'01111111'     ;05
00743C 0C07           01621                         DT      B'00000111'     ;06
00743E 0CFF           01622                         DT      B'11111111'     ;07
                      00019         #INCLUDE <CLRRAMS&DELAY.INC>
                      00001 
Warning[205]: Found directive in column 1. (ORG)
00FD00                00002 ORG 0XFD00
                      00003 ;==========     DELAY USEC =========
00FD00                00004 DELAY_US
                      00005 
00FD00 6F00           00006         MOVWF   DELAYUS
                      00007 
00FD02                00008 USEC
                      00009 
00FD02 0000           00010         NOP
00FD04 0000           00011         NOP
00FD06 0000           00012         NOP
00FD08 0000           00013         NOP
Warning[203]: Found opcode in column 1. (DECFSZ)
00FD0A 2F00           00014 DECFSZ  DELAYUS,F
                      00015 
Warning[203]: Found opcode in column 1. (GOTO)
00FD0C EF81 F07E      00016 GOTO    USEC
                      00017 
Warning[203]: Found opcode in column 1. (RETURN)
00FD10 0012           00018 RETURN
                      00019 ;=================================
                      00020 
                      00021 
                      00022 
                      00023 ;=========== DELAY ONE MS ========
MPASM  5.51                    2X4_P10_SB.ASM   4-22-2020  11:55:30         PAGE 33


LOC  OBJECT CODE     LINE SOURCE TEXT
  VALUE

00FD12                00024 DELAY_ONEMS
                      00025 
00FD12 0E05           00026         MOVLW   .5
00FD14 6F05           00027         MOVWF   LOOP
                      00028 
00FD16                00029 MSEC
00FD16 0EC8           00030         MOVLW   .200
00FD18 EC80 F07E      00031         CALL    DELAY_US
00FD1C 2F05           00032         DECFSZ  LOOP,F
00FD1E EF8B F07E      00033         GOTO    MSEC
                      00034 
Warning[203]: Found opcode in column 1. (RETURN)
00FD22 0012           00035 RETURN
                      00036 ;==================================
                      00037 
                      00038 
                      00039 ;=========== DELAY MS   ==========
00FD24                00040 DELAY_MS
                      00041         
00FD24 6F01           00042         MOVWF   DELAYMS
00FD26                00043 MSEC0
00FD26 EC89 F07E      00044         CALL    DELAY_ONEMS
00FD2A 2F01           00045         DECFSZ  DELAYMS,F
00FD2C EF93 F07E      00046         GOTO    MSEC0
Warning[203]: Found opcode in column 1. (RETURN)
00FD30 0012           00047 RETURN
                      00048 ;=================================
                      00049 
                      00050 ;=========== DELAY      ONE     SECOND ===
00FD32                00051 DELAY_ONESEC
                      00052 
00FD32 0E05           00053         MOVLW   .5
00FD34 6F03           00054         MOVWF   SEC
00FD36                00055 SEC0
00FD36 0EC8           00056         MOVLW   .200
00FD38 EC92 F07E      00057         CALL    DELAY_MS
00FD3C 2F03           00058         DECFSZ  SEC,F
00FD3E EF9B F07E      00059         GOTO    SEC0
Warning[203]: Found opcode in column 1. (RETURN)
00FD42 0012           00060 RETURN
                      00061 ;=================================
                      00062 
                      00063 ;==========     DELAY SEC ============
00FD44                00064 DELAY_SEC
                      00065 
00FD44 6F04           00066         MOVWF   DELAYS
00FD46                00067 SEC1
00FD46 EC99 F07E      00068         CALL    DELAY_ONESEC
00FD4A 2F04           00069         DECFSZ  DELAYS,F
00FD4C EFA3 F07E      00070         GOTO    SEC1
Warning[203]: Found opcode in column 1. (RETURN)
00FD50 0012           00071 RETURN
                      00072 ;=================================
MPASM  5.51                    2X4_P10_SB.ASM   4-22-2020  11:55:30         PAGE 34


LOC  OBJECT CODE     LINE SOURCE TEXT
  VALUE

                      00073 
                      00074 
                      00075 ;=====================  CLEAR   DRAM0           ===================
00FD52                00076 CLR_DRAM0
00FD52 0101           00077         MOVLB           0X01    ;BANK2
00FD54 0EFF           00078         MOVLW           0XFF
00FD56 6F0B           00079         MOVWF           POINTER
                      00080 
00FD58 0E02           00081         MOVLW           0X02
00FD5A 6EEA           00082         MOVWF           FSR0H,0
                      00083 
00FD5C 0E00           00084         MOVLW           0X00
00FD5E 6EE9           00085         MOVWF           FSR0L,0  
                      00086 
00FD60 0EFF           00087         MOVLW           0XFF
                      00088 
00FD62                00089 CLR_DRAM0A
00FD62 6EEF           00090         MOVWF           INDF0
                      00091 
00FD64 2AE9           00092         INCF            FSR0L
00FD66 2F0B           00093         DECFSZ          POINTER, F
00FD68 EFB1 F07E      00094         GOTO            CLR_DRAM0A
00FD6C 6EEF           00095         MOVWF           INDF0
                      00096         
Warning[203]: Found opcode in column 1. (RETURN)
00FD6E 0012           00097 RETURN
                      00098 ;==============================================================
                      00099 
                      00100 
                      00101 ;=====================  CLEAR   DRAM1           ===================
00FD70                00102 CLR_DRAM1
00FD70 0101           00103         MOVLB           0X01    ;BANK2
00FD72 0EFF           00104         MOVLW           0XFF
00FD74 6F0B           00105         MOVWF           POINTER
                      00106 
00FD76 0E03           00107         MOVLW           0X03
00FD78 6EEA           00108         MOVWF           FSR0H,0
                      00109 
00FD7A 0E00           00110         MOVLW           0X00
00FD7C 6EE9           00111         MOVWF           FSR0L,0  
                      00112 
00FD7E 0EFF           00113         MOVLW           0XFF
                      00114 
00FD80                00115 CLR_DRAM1A
00FD80 6EEF           00116         MOVWF           INDF0
                      00117 
00FD82 2AE9           00118         INCF            FSR0L
00FD84 2F0B           00119         DECFSZ          POINTER, F
00FD86 EFC0 F07E      00120         GOTO            CLR_DRAM1A
00FD8A 6EEF           00121         MOVWF           INDF0
                      00122         
Warning[203]: Found opcode in column 1. (RETURN)
00FD8C 0012           00123 RETURN
MPASM  5.51                    2X4_P10_SB.ASM   4-22-2020  11:55:30         PAGE 35


LOC  OBJECT CODE     LINE SOURCE TEXT
  VALUE

                      00124 ;==============================================================
                      00125 
                      00126 ;=======================        CLEAR   TEMP    RAM             ===========
00FD8E                00127 CLR_TEMPRAM
00FD8E 0101           00128         MOVLB           0X01    ;BANK2
00FD90 0E3F           00129         MOVLW           0X3F
00FD92 6F0B           00130         MOVWF           POINTER
                      00131 
00FD94 0E01           00132         MOVLW           0X01
00FD96 6EEA           00133         MOVWF           FSR0H,0
                      00134 
00FD98 0E20           00135         MOVLW           0X20
00FD9A 6EE9           00136         MOVWF           FSR0L,0  
                      00137 
00FD9C 0EFF           00138         MOVLW           0XFF
                      00139 
00FD9E                00140 CLR_TRAM0
00FD9E 6EEF           00141         MOVWF           INDF0
                      00142 
00FDA0 2AE9           00143         INCF            FSR0L
00FDA2 2F0B           00144         DECFSZ          POINTER, F
00FDA4 EFCF F07E      00145         GOTO            CLR_TRAM0
00FDA8 6EEF           00146         MOVWF           INDF0
                      00147         
00FDAA 0012           00148         RETURN
                      00149 ;==============================================================
                      00150 
                      00151 ;=============  CLEAR   TEMPRAM CURRENTLY SCANNED       ===========
00FDAC                00152 CLR_TEMPRAMSCAN
00FDAC 0101           00153         MOVLB           0X01    ;BANK2
00FDAE 0E04           00154         MOVLW           0X04
00FDB0 6F0B           00155         MOVWF           POINTER
                      00156 
00FDB2 0E01           00157         MOVLW           0X01
00FDB4 6EEA           00158         MOVWF           FSR0H,0
                      00159 
00FDB6 0E20           00160         MOVLW           0X20
00FDB8 6EE9           00161         MOVWF           FSR0L,0  
                      00162 
00FDBA C10D FFE8      00163         MOVFF           LINESCAN,WREG
00FDBE 26E9           00164         ADDWF           FSR0L
                      00165 
                      00166 
                      00167 
                      00168 
00FDC0                00169 CLR_TRAMS0
00FDC0 0EFF           00170         MOVLW           0XFF
00FDC2 6EEF           00171         MOVWF           INDF0
00FDC4 2AE9           00172         INCF            FSR0L
                      00173 
                      00174 
00FDC6 6EEF           00175         MOVWF           INDF0
00FDC8 2AE9           00176         INCF            FSR0L
MPASM  5.51                    2X4_P10_SB.ASM   4-22-2020  11:55:30         PAGE 36


LOC  OBJECT CODE     LINE SOURCE TEXT
  VALUE

                      00177 
00FDCA 6EEF           00178         MOVWF           INDF0
00FDCC 2AE9           00179         INCF            FSR0L
                      00180 
00FDCE 6EEF           00181         MOVWF           INDF0
                      00182 
00FDD0 0E0D           00183         MOVLW           0X0D
00FDD2 26E9           00184         ADDWF           FSR0L
                      00185 
00FDD4 2F0B           00186         DECFSZ          POINTER, F
00FDD6 EFE0 F07E      00187         GOTO            CLR_TRAMS0
00FDDA 6EEF           00188         MOVWF           INDF0
                      00189         
00FDDC 0012           00190         RETURN
                      00191 ;==============================================================
                      00192 
Warning[205]: Found directive in column 1. (ORG)
00FE00                00193 ORG 0XFE00
                      00194 ;==========     CLEAR   DRAM0 CURRENTLY SCANNED ===================
00FE00                00195 CLR_DRAM0SCAN
00FE00 0101           00196         MOVLB           0X01    ;BANK2
                      00197 
                      00198 
00FE02 0E02           00199         MOVLW           0X02
00FE04 6EEA           00200         MOVWF           FSR0H,0
                      00201 
00FE06 0E08           00202         MOVLW           0X08 
00FE08 6F1B           00203         MOVWF           COUNT2
                      00204 
                      00205 
                      00206 
                      00207 
00FE0A 0E00           00208         MOVLW   0
00FE0C 6EFB           00209         MOVWF   PCLATU,0
00FE0E 0EFE           00210         MOVLW   0XFE
00FE10 6EFA           00211         MOVWF   PCLATH,0
                      00212 
                      00213 
00FE12 C10D FFE8      00214         MOVFF           LINESCAN,WREG
                      00215         
00FE16 26F9           00216         ADDWF   PCL
00FE18 EF20 F07F      00217         GOTO    CD0S11
00FE1C EF14 F07F      00218         GOTO    CD0S00
00FE20 EF18 F07F      00219         GOTO    CD0S10
00FE24 EF1C F07F      00220         GOTO    CD0S01
                      00221 
00FE28                00222 CD0S00
00FE28 0E18           00223         MOVLW           0X18
00FE2A 6EE9           00224         MOVWF           FSR0L,0
00FE2C EF25 F07F      00225         GOTO            CLR_DRAM0SCAN1
                      00226 
00FE30                00227 CD0S10
00FE30 0E10           00228         MOVLW           0X10
MPASM  5.51                    2X4_P10_SB.ASM   4-22-2020  11:55:30         PAGE 37


LOC  OBJECT CODE     LINE SOURCE TEXT
  VALUE

00FE32 6EE9           00229         MOVWF           FSR0L,0
00FE34 EF25 F07F      00230         GOTO            CLR_DRAM0SCAN1
                      00231 
00FE38                00232 CD0S01
00FE38 0E08           00233         MOVLW           0X08
00FE3A 6EE9           00234         MOVWF           FSR0L,0
00FE3C EF25 F07F      00235         GOTO            CLR_DRAM0SCAN1
00FE40                00236 CD0S11
00FE40 0E00           00237         MOVLW           0X00
00FE42 6EE9           00238         MOVWF           FSR0L,0
00FE44 EF25 F07F      00239         GOTO            CLR_DRAM0SCAN1
Warning[203]: Found opcode in column 1. (NOP)
00FE48 0000           00240 NOP
                      00241         
00FE4A                00242 CLR_DRAM0SCAN1
                      00243 
00FE4A 0E08           00244         MOVLW           0X08
00FE4C 6F0B           00245         MOVWF           POINTER
                      00246 
                      00247 
                      00248 
00FE4E                00249 CLR_DRAM0SCAN2
00FE4E 0EFF           00250         MOVLW           0XFF
00FE50 6EEF           00251         MOVWF           INDF0
                      00252 
00FE52 2AE9           00253         INCF            FSR0L
00FE54 2F0B           00254         DECFSZ          POINTER,F
00FE56 EF27 F07F      00255         GOTO            CLR_DRAM0SCAN2
                      00256         
00FE5A 0E18           00257         MOVLW           0X18
00FE5C 26E9           00258         ADDWF           FSR0L
00FE5E 2F1B           00259         DECFSZ          COUNT2,F
00FE60 EF25 F07F      00260         GOTO            CLR_DRAM0SCAN1
                      00261         
Warning[203]: Found opcode in column 1. (RETURN)
00FE64 0012           00262 RETURN
                      00263 ;==============================================================
                      00264 
                      00265 
Warning[205]: Found directive in column 1. (ORG)
00FF00                00266 ORG 0XFF00
                      00267 ;==========     CLEAR   DRAM1 CURRENTLY SCANNED ===================
00FF00                00268 CLR_DRAM1SCAN
00FF00 0101           00269         MOVLB           0X01    ;BANK2
                      00270 
                      00271 
00FF02 0E03           00272         MOVLW           0X03
00FF04 6EEA           00273         MOVWF           FSR0H,0
                      00274 
00FF06 0E08           00275         MOVLW           0X08 
00FF08 6F1B           00276         MOVWF           COUNT2
                      00277 
                      00278 
MPASM  5.51                    2X4_P10_SB.ASM   4-22-2020  11:55:30         PAGE 38


LOC  OBJECT CODE     LINE SOURCE TEXT
  VALUE

                      00279 
                      00280 
00FF0A 0E00           00281         MOVLW   0
00FF0C 6EFB           00282         MOVWF   PCLATU,0
00FF0E 0EFF           00283         MOVLW   0XFF
00FF10 6EFA           00284         MOVWF   PCLATH,0
                      00285 
                      00286 
00FF12 C10D FFE8      00287         MOVFF           LINESCAN,WREG
                      00288         
00FF16 26F9           00289         ADDWF   PCL
00FF18 EFA0 F07F      00290         GOTO    CD1S11
00FF1C EF94 F07F      00291         GOTO    CD1S00
00FF20 EF98 F07F      00292         GOTO    CD1S10
00FF24 EF9C F07F      00293         GOTO    CD1S01
                      00294 
00FF28                00295 CD1S00
00FF28 0E18           00296         MOVLW           0X18
00FF2A 6EE9           00297         MOVWF           FSR0L,0
00FF2C EFA5 F07F      00298         GOTO            CLR_DRAM1SCAN1
                      00299 
00FF30                00300 CD1S10
00FF30 0E10           00301         MOVLW           0X10
00FF32 6EE9           00302         MOVWF           FSR0L,0
00FF34 EFA5 F07F      00303         GOTO            CLR_DRAM1SCAN1
                      00304 
00FF38                00305 CD1S01
00FF38 0E08           00306         MOVLW           0X08
00FF3A 6EE9           00307         MOVWF           FSR0L,0
00FF3C EFA5 F07F      00308         GOTO            CLR_DRAM1SCAN1
00FF40                00309 CD1S11
00FF40 0E00           00310         MOVLW           0X00
00FF42 6EE9           00311         MOVWF           FSR0L,0
00FF44 EFA5 F07F      00312         GOTO            CLR_DRAM1SCAN1
Warning[203]: Found opcode in column 1. (NOP)
00FF48 0000           00313 NOP
                      00314         
00FF4A                00315 CLR_DRAM1SCAN1
                      00316 
00FF4A 0E08           00317         MOVLW           0X08
00FF4C 6F0B           00318         MOVWF           POINTER
                      00319 
                      00320 
                      00321 
00FF4E                00322 CLR_DRAM1SCAN2
00FF4E 0EFF           00323         MOVLW           0XFF
00FF50 6EEF           00324         MOVWF           INDF0
                      00325 
00FF52 2AE9           00326         INCF            FSR0L
00FF54 2F0B           00327         DECFSZ          POINTER,F
00FF56 EFA7 F07F      00328         GOTO            CLR_DRAM1SCAN2
                      00329         
00FF5A 0E18           00330         MOVLW           0X18
MPASM  5.51                    2X4_P10_SB.ASM   4-22-2020  11:55:30         PAGE 39


LOC  OBJECT CODE     LINE SOURCE TEXT
  VALUE

00FF5C 26E9           00331         ADDWF           FSR0L
00FF5E 2F1B           00332         DECFSZ          COUNT2,F
00FF60 EFA5 F07F      00333         GOTO            CLR_DRAM1SCAN1
                      00334         
Warning[203]: Found opcode in column 1. (RETURN)
00FF64 0012           00335 RETURN
                      00336 ;==============================================================
                      00020 
                      00021 ;******************************************************************************
                      00022 ;CONFIGURATION BITS
                      00023 ;MICROCHIP HAS CHANGED THE FORMAT FOR DEFINING THE CONFIGURATION BITS, PLEASE 
                      00024 ;SEE THE .INC FILE FOR FUTHER DETAILS ON NOTATION.  BELOW ARE A FEW EXAMPLES.
                      00025 
                      00026 
                      00027 ;CONFIG
                      00028 
                      00029 
                      00030 
Warning[205]: Found directive in column 1. (CONFIG)
06 1A 1E 01 80 00 40 000031 CONFIG  OSC             =       HSPLL   ;OSCILLATOR
       F E0 0F 40 
Warning[205]: Found directive in column 1. (CONFIG)
                      00032 CONFIG  FCMEN   =       OFF             ;FAIL-SAFE CLOCK MONITOR
Warning[205]: Found directive in column 1. (CONFIG)
                      00033 CONFIG  IESO    =       OFF             ;INTERNAL/EXTERNAL SWITCH-OVER
Warning[205]: Found directive in column 1. (CONFIG)
                      00034 CONFIG  PWRT    =       ON              ;POWER-UP TIMER
Warning[205]: Found directive in column 1. (CONFIG)
                      00035 CONFIG  BOREN   =       ON              ;BROWN OUT RESET ENABLE
Warning[205]: Found directive in column 1. (CONFIG)
                      00036 CONFIG  PBADEN  =       OFF     ;PORTB A/D ENABLE
Warning[205]: Found directive in column 1. (CONFIG)
                      00037 CONFIG  LPT1OSC =       OFF             ;LOW-POWER TIMER1 OSCILLATOR
Warning[205]: Found directive in column 1. (CONFIG)
                      00038 CONFIG  MCLRE   =       OFF             ;MEMORY CLEAR EXTERNAL
Warning[205]: Found directive in column 1. (CONFIG)
                      00039 CONFIG  STVREN  =       OFF             ;STACK FULL/UNDERFLOW RESET ENABLE
Warning[205]: Found directive in column 1. (CONFIG)
                      00040 CONFIG  LVP     =       OFF             ;SINGLE SUPPLY ICSP
Warning[205]: Found directive in column 1. (CONFIG)
                      00041 CONFIG  XINST   =       OFF             ;EXTENDED INSTRUCTION SET
Warning[205]: Found directive in column 1. (CONFIG)
                      00042 CONFIG  DEBUG   =       OFF             ;BACKGROUND DEBUGGERS
Warning[205]: Found directive in column 1. (CONFIG)
                      00043 CONFIG  CP0     =       ON              ;CODE PROTECT
Warning[205]: Found directive in column 1. (CONFIG)
                      00044 CONFIG  CP1             =       ON
Warning[205]: Found directive in column 1. (CONFIG)
                      00045 CONFIG  CP2             =       ON
Warning[205]: Found directive in column 1. (CONFIG)
                      00046 CONFIG  CP3             =       ON
Warning[205]: Found directive in column 1. (CONFIG)
                      00047 CONFIG  CPD             =       ON
MPASM  5.51                    2X4_P10_SB.ASM   4-22-2020  11:55:30         PAGE 40


LOC  OBJECT CODE     LINE SOURCE TEXT
  VALUE

00FF66                00048 CPB_ON_5H
00FF66                00049 CPD_ON_5H
00FF66                00050 EBTR0_ON_7L
00FF66                00051 EBTR1_ON_7L
00FF66                00052 EBTR2_ON_7L
00FF66                00053 EBTR3_ON_7L
                      00054 
Warning[205]: Found directive in column 1. (CONFIG)
                      00055 CONFIG  WDT     =       OFF             ;WATCHDOG TIMER
                      00056 ;CONFIG WDTPS   =       4       ;WATCHDOG TIMER POSTSCALER 1:1= 4MSECONDS
                      00057 ;******************************************************************************
                      00058 ;VARIABLE DEFINITIONS
                      00059 ; THESE VARIABLES ARE ONLY NEEDED IF LOW PRIORITY INTERRUPTS ARE USED. 
                      00060 ; MORE VARIABLES MAY BE NEEDED TO STORE OTHER SPECIAL FUNCTION REGISTERS USED
                      00061 ; IN THE INTERRUPT ROUTINES.
                      00062 
                      00063 
                      00064 
                      00065                 #DEFINE         OE_ON           BSF     LATD,7,0
                      00066                 #DEFINE         OE_OFF          BCF     LATD,7,0
                      00067 
                      00068                 #DEFINE         A_1                     BSF     LATD,2,0
                      00069                 #DEFINE         A_0                     BCF     LATD,2,0
                      00070 
                      00071                 #DEFINE         B_1                     BSF     LATD,3,0
                      00072                 #DEFINE         B_0                     BCF LATD,3,0
                      00073 
                      00074 ;==================== MODULE 0 - MODULE 1  ================
                      00075 
                      00076                 #DEFINE         DAT0_1          BSF     LATC,0,0
                      00077                 #DEFINE         DAT0_0          BCF     LATC,0,0
                      00078 
                      00079                 #DEFINE         LAT0_ON         BSF     LATC,5,0
                      00080                 #DEFINE         LAT0_OFF        BCF     LATC,5,0
                      00081 
                      00082                 #DEFINE         CLK0_ON         BSF     LATC,4,0
                      00083                 #DEFINE         CLK0_OFF        BCF     LATC,4,0
                      00084 
                      00085 ;==================== MODULE 2 - MODULE 3  ================
                      00086 
                      00087                 #DEFINE         DAT1_1          BSF     LATD,6,0
                      00088                 #DEFINE         DAT1_0          BCF     LATD,6,0
                      00089 
                      00090                 #DEFINE         LAT1_ON         BSF     LATD,5,0
                      00091                 #DEFINE         LAT1_OFF        BCF     LATD,5,0
                      00092 
                      00093                 #DEFINE         CLK1_ON         BSF     LATD,4,0
                      00094                 #DEFINE         CLK1_OFF        BCF     LATD,4,0
                      00095 
                      00096 ;==================== MODULE 4 - MODULE 5  ================
                      00097 
                      00098                 #DEFINE         DAT2_1          BSF     LATB,2,0
                      00099                 #DEFINE         DAT2_0          BCF     LATB,2,0
MPASM  5.51                    2X4_P10_SB.ASM   4-22-2020  11:55:30         PAGE 41


LOC  OBJECT CODE     LINE SOURCE TEXT
  VALUE

                      00100 
                      00101                 #DEFINE         LAT2_ON         BSF     LATB,1,0
                      00102                 #DEFINE         LAT2_OFF        BCF     LATB,1,0
                      00103 
                      00104                 #DEFINE         CLK2_ON         BSF     LATB,0,0
                      00105                 #DEFINE         CLK2_OFF        BCF     LATB,0,0
                      00106 
                      00107 
                      00108 ;==================== MODULE 4 - MODULE 5  ================
                      00109 
                      00110                 #DEFINE         DAT3_1          BSF     LATB,5,0
                      00111                 #DEFINE         DAT3_0          BCF     LATB,5,0
                      00112 
                      00113                 #DEFINE         LAT3_ON         BSF     LATB,4,0
                      00114                 #DEFINE         LAT3_OFF        BCF     LATB,4,0
                      00115 
                      00116                 #DEFINE         CLK3_ON         BSF     LATB,3,0
                      00117                 #DEFINE         CLK3_OFF        BCF     LATB,3,0
                      00118 
                      00119 
                      00120 
                      00121 
                      00122 
                      00123 
                      00124 
                      00125                 CBLOCK  0X000
  00000000            00126                 EXAMPLE         ;EXAMPLE OF A VARIABLE IN ACCESS RAM
                      00127                 ENDC
                      00128 
                      00129                 CBLOCK  0X100
Warning[210]: Extra ","
  00000100            00130                         DELAYUS, DELAYMS,  SPI_DATAIN, SEC,DELAYS,      ;DELAY VARIABLES
                      00131                         ;=======================================================
  00000105            00132                         LOOP,DREGCOUNT,BYTECOUNT,TRAMCOUNT,TRAM_SHIFT
  0000010A            00133                         BTCOUNT,POINTER,DATAHOLD,LINESCAN
  0000010E            00134                         CHAR,FONT,RAM_STPT,RAM_STPTH,REG_STPT
                      00135 
  00000113            00136                         CURSORX,CURSORY,CURSORY_TEMP,CURSORX_TEMP
  00000117            00137                         WIDTH,HEIGHT
                      00138 
  00000119            00139                         COUNT0,COUNT1,COUNT2,WREG_TEMP
                      00140                 ENDC
                      00141 
                      00142 
                      00143                 CBLOCK  0X120
  00000120            00144                         TEMPRAM:.64     
                      00145 
                      00146 
                      00147                 ENDC
                      00148 
                      00149                 CBLOCK  0X16C
  0000016C            00150                 W_TEMP  ;VARIABLE USED FOR CONTEXT SAVING 
  0000016D            00151                 STATUS_TEMP     ;VARIABLE USED FOR CONTEXT SAVING
MPASM  5.51                    2X4_P10_SB.ASM   4-22-2020  11:55:30         PAGE 42


LOC  OBJECT CODE     LINE SOURCE TEXT
  VALUE

  0000016E            00152                 BSR_TEMP        ;VARIABLE USED FOR CONTEXT SAVING
  0000016F            00153                 PCLATH_TEMP
                      00154                 ENDC
                      00155 
                      00156                 CBLOCK  0X180
  00000180            00157                         GPU_REG:.52
  000001B4            00158                         GPR_LOOP,GPREG_TEMP,GP_COUNTER
  000001B7            00159                         GPSTARTBIT,HEADERBIT,FOOTERBIT
  000001BA            00160                         LOGO_LOOP0,LOGO_LOOP1,LOGO_DELAY
                      00161                 ENDC
                      00162 
                      00163 ;               CBLOCK  0X1C0
                      00164 ;                       HEADER0,HEADER1                         ;HEADERS
                      00165 ;                       SC_TENS,SC_ONES,SC_MSEC         ;SHOTCLOCK
                      00166 ;                       GTM_TENS,GTM_ONES                       ;GAME TIME MINUTES
                      00167 ;                       GTS_TENS,GTS_ONES,GT_MSEC       ;GAME TIME SECONDS
                      00168 ;                       POS                                                     ;BALL POSSESION
                      00169 ;                       PERIOD
                      00170 ;                       HS_H,HS_T,HS_O                          ;HOME SCORE
                      00171 ;                       GS_H,GS_T,GS_O                          ;GUEST SCORE
                      00172 ;                       FOUL_H,FOUL_G                           ;FOULS
                      00173 ;                       TO_H,TO_G                                       ;TIME-OUTS
                      00174 ;                       FOOTER
                      00175 ;                       RS_REC
                      00176 ;                       TXREG_T ;TXREG TEMP
                      00177 ;
                      00178 ;                       ;W_TEMP ;VARIABLE USED FOR CONTEXT SAVING 
                      00179 ;               ENDC
                      00180 
                      00181                 CBLOCK  0X200
  00000200            00182                         DRAM0: 0XFE
                      00183                 ENDC
                      00184 
                      00185                 CBLOCK  0X300
  00000300            00186                         DRAM1: 0XFE
                      00187                 ENDC
                      00188 
                      00189                 CBLOCK  0X1C0
  000001C0            00190                         SB_REG: .24
                      00191                 ENDC
                      00192 
                      00193 
                      00194 
                      00195 ;******************************************************************************
                      00196 ;EEPROM DATA
                      00197 ; DATA TO BE PROGRAMMED INTO THE DATA EEPROM IS DEFINED HERE
                      00198 
F00000                00199                 ORG     0XF00000
                      00200 
F00000 4554 5453 4420 00201                 DE      "TEST DATA",0,1,2,3,4,5
       5441 0041 0201 
       0403 0005 
                      00202 
MPASM  5.51                    2X4_P10_SB.ASM   4-22-2020  11:55:30         PAGE 43


LOC  OBJECT CODE     LINE SOURCE TEXT
  VALUE

                      00203 ;******************************************************************************
                      00204 ;RESET VECTOR
                      00205 ; THIS CODE WILL START EXECUTING WHEN A RESET OCCURS.
                      00206 
000000                00207                 ORG     0X0000
                      00208 
000000 EF19 F000      00209                                 GOTO    INIT            ;GO TO INITIALIZATION
                      00210 
                      00211 ;******************************************************************************
                      00212 ;HIGH PRIORITY INTERRUPT VECTOR
                      00213 ; THIS CODE WILL START EXECUTING WHEN A HIGH PRIORITY INTERRUPT OCCURS OR
                      00214 ; WHEN ANY INTERRUPT OCCURS IF INTERRUPT PRIORITIES ARE NOT ENABLED.
                      00215 
000008                00216                 ORG     0X0008
                      00217 
000008 ECF6 F01A      00218                 CALL    INTERRUPT               ;GO TO HIGH PRIORITY INTERRUPT ROUTINE
00000C 0010           00219                 RETFIE
                      00220 ;******************************************************************************
                      00221 ;LOW PRIORITY INTERRUPT VECTOR AND ROUTINE
                      00222 ; THIS CODE WILL START EXECUTING WHEN A LOW PRIORITY INTERRUPT OCCURS.
                      00223 ; THIS CODE CAN BE REMOVED IF LOW PRIORITY INTERRUPTS ARE NOT USED.
                      00224 
000018                00225                 ORG     0X0018
                      00226 
                      00227 ;               GOTO    INTERRUPT
000018 0010           00228                 RETFIE
00001A CFD8 F16D      00229                 MOVFF   STATUS,STATUS_TEMP      ;SAVE STATUS REGISTER
00001E CFE8 F16C      00230                 MOVFF   WREG,W_TEMP             ;SAVE WORKING REGISTER
000022 CFE0 F16E      00231                 MOVFF   BSR,BSR_TEMP            ;SAVE BSR REGISTER
                      00232 
                      00233 ;       *** LOW PRIORITY INTERRUPT CODE GOES HERE ***
                      00234 
                      00235 
000026 C16E FFE0      00236                 MOVFF   BSR_TEMP,BSR            ;RESTORE BSR REGISTER
00002A C16C FFE8      00237                 MOVFF   W_TEMP,WREG                     ;RESTORE WORKING REGISTER
00002E C16D FFD8      00238                 MOVFF   STATUS_TEMP,STATUS      ;RESTORE STATUS REGISTER
                      00239 
                      00240 
                      00241 
                      00242 
                      00243 ;$$$$$$$$$$$$$$$$$$$$$$$$       INITIALIZE              $$$$$$$$$$$$$$$$$$$$$$$$$$$$$$$$$
000032                00244 INIT
                      00245 ;========================= INITIALIZE PORTA =================================
Warning[203]: Found opcode in column 1. (CLRF)
000032 6A80           00246 CLRF PORTA              ; INITIALIZE PORTA BY
                      00247                                 ; CLEARING OUTPUT
                      00248                                 ; DATA LATCHES
Warning[203]: Found opcode in column 1. (CLRF)
000034 6A89           00249 CLRF LATA               ; ALTERNATE METHOD
                      00250                                 ; TO CLEAR OUTPUT
                      00251                                 ; DATA LATCHES
Warning[203]: Found opcode in column 1. (MOVLW)
000036 0E07           00252 MOVLW 07H               ; CONFIGURE A/D
MPASM  5.51                    2X4_P10_SB.ASM   4-22-2020  11:55:30         PAGE 44


LOC  OBJECT CODE     LINE SOURCE TEXT
  VALUE

Warning[203]: Found opcode in column 1. (MOVWF)
000038 6EC1           00253 MOVWF ADCON1    ; FOR DIGITAL INPUTS
Warning[203]: Found opcode in column 1. (MOVWF)
00003A 6E07           00254 MOVWF 07H               ; CONFIGURE COMPARATORS
Warning[203]: Found opcode in column 1. (MOVWF)
00003C 6EB4           00255 MOVWF CMCON     ; FOR DIGITAL INPUT
Warning[203]: Found opcode in column 1. (MOVLW)
00003E 0ECF           00256 MOVLW 0CFH              ; VALUE USED TO
                      00257                                 ; INITIALIZE DATA
                      00258                                 ; DIRECTION
Warning[203]: Found opcode in column 1. (MOVWF)
000040 6E92           00259 MOVWF TRISA     ; SET RA<7:6,3:0> AS INPUTS
                      00260                                 ; RA<5:4> AS OUTPUTS
                      00261 ;============================================================================
                      00262 
                      00263 
                      00264 ;========================= INITIALIZE PORTB =================================
Warning[203]: Found opcode in column 1. (CLRF)
000042 6A81           00265 CLRF PORTB              ; INITIALIZE PORTB BY
                      00266                                 ; CLEARING OUTPUT
                      00267                                 ; DATA LATCHES
Warning[203]: Found opcode in column 1. (CLRF)
000044 6A8A           00268 CLRF LATB               ; ALTERNATE METHOD
                      00269                                 ; TO CLEAR OUTPUT
                      00270                                 ; DATA LATCHES
Warning[203]: Found opcode in column 1. (MOVLW)
000046 0E0F           00271 MOVLW 0FH               ; SET RB<4:0> AS
Warning[203]: Found opcode in column 1. (MOVWF)
000048 6EC1           00272 MOVWF ADCON1    ; DIGITAL I/O PINS
                      00273                                 ; (REQUIRED IF CONFIG BIT
                      00274                                 ; PBADEN IS SET)
Warning[203]: Found opcode in column 1. (MOVLW)
00004A 0E00           00275 MOVLW 0                 ; VALUE USED TO
                      00276                                 ; INITIALIZE DATA
                      00277                                 ; DIRECTION
Warning[203]: Found opcode in column 1. (MOVWF)
00004C 6E93           00278 MOVWF TRISB     ; SET RB<3:0> AS INPUTS
                      00279                                 ; RB<7:0> AS INPUTS
                      00280 ;============================================================================
                      00281 
                      00282 
                      00283 
                      00284 ;========================= INITIALIZE PORTD =================================
Warning[203]: Found opcode in column 1. (CLRF)
00004E 6A83           00285 CLRF    PORTD           ; INITIALIZE PORTD BY
                      00286                                 ; CLEARING OUTPUT
                      00287                                 ; DATA LATCHES
Warning[203]: Found opcode in column 1. (CLRF)
000050 6A8C           00288 CLRF    LATD            ; ALTERNATE METHOD
                      00289                                 ; TO CLEAR OUTPUT
                      00290                                 ; DATA LATCHES
Warning[203]: Found opcode in column 1. (MOVLW)
000052 0E00           00291 MOVLW   0               ; VALUE USED TO
MPASM  5.51                    2X4_P10_SB.ASM   4-22-2020  11:55:30         PAGE 45


LOC  OBJECT CODE     LINE SOURCE TEXT
  VALUE

                      00292                                 ; INITIALIZE DATA
                      00293                                 ; DIRECTION
Warning[203]: Found opcode in column 1. (MOVWF)
000054 6E95           00294 MOVWF   TRISD   ; SET RD<3:0> AS INPUTS
                      00295                                 ; RD<5:4> AS OUTPUTS
                      00296                                 ; RD<7:6> AS INPUTS
                      00297 ;============================================================================
                      00298 
                      00299 ;========================= INITIALIZE PORTE =================================
Warning[203]: Found opcode in column 1. (CLRF)
000056 6A84           00300 CLRF PORTE              ; INITIALIZE PORTE BY
                      00301                                 ; CLEARING OUTPUT
                      00302                                 ; DATA LATCHES
Warning[203]: Found opcode in column 1. (CLRF)
000058 6A8D           00303 CLRF LATE               ; ALTERNATE METHOD
                      00304                                 ; TO CLEAR OUTPUT
                      00305                                 ; DATA LATCHES
Warning[203]: Found opcode in column 1. (MOVLW)
00005A 0E0A           00306 MOVLW 0AH               ; CONFIGURE A/D
Warning[203]: Found opcode in column 1. (MOVWF)
00005C 6EC1           00307 MOVWF ADCON1    ; FOR DIGITAL INPUTS
Warning[203]: Found opcode in column 1. (MOVLW)
00005E 0E07           00308 MOVLW 0X07              ; VALUE USED TO
                      00309                                 ; INITIALIZE DATA
                      00310                                 ; DIRECTION
Warning[203]: Found opcode in column 1. (MOVWF)
000060 6E96           00311 MOVWF TRISE,0   ; SET RE<0> AS INPUTS
                      00312                                 ; RE<1> AS OUTPUTS
                      00313                                 ; RE<2> AS INPUTS
                      00314 ;============================================================================
                      00315 
                      00316 
                      00317 ;========================= INITIALIZE PORTC =================================
Warning[203]: Found opcode in column 1. (CLRF)
000062 6A82           00318 CLRF    PORTC
Warning[203]: Found opcode in column 1. (CLRF)
000064 6A8B           00319 CLRF    LATC
Warning[203]: Found opcode in column 1. (MOVLW)
000066 0E80           00320 MOVLW   0X80
Warning[203]: Found opcode in column 1. (MOVWF)
000068 6E94           00321 MOVWF   TRISC
                      00322 
Warning[203]: Found opcode in column 1. (MOVLB)
00006A 010F           00323 MOVLB   0X0F
                      00324 
                      00325         ;---CONFIGURE GENERAL INTERRUPTS
00006C 0EC0           00326         MOVLW B'11000000' ;DISABLE ALL INTERRUPTS EXCEPT PERIPHERAL
00006E 6EF2           00327         MOVWF INTCON ;INTERRUPT CONTROL REGISTERE
                      00328 
                      00329 
                      00330         ;---CONFIGURE PERIPHERAL INTERRUPTS
000070 0E20           00331         MOVLW B'00100000' ;DISABLE ALL PERIPHERAL INTERRUPTS EXCEPT RECEIVER
000072 6E9D           00332         MOVWF PIE1 ;PERIPHERAL INTERRUPT ENABLE/DISABLE
MPASM  5.51                    2X4_P10_SB.ASM   4-22-2020  11:55:30         PAGE 46


LOC  OBJECT CODE     LINE SOURCE TEXT
  VALUE

000074 0E00           00333         MOVLW   0
000076 6EA0           00334         MOVWF   PIE2
000078 6E9F           00335         MOVWF   IPR1
00007A 6EA2           00336         MOVWF   IPR2
                      00337 
                      00338 
                      00339 
                      00340 
                      00341 
                      00342         ;---CONFIGURE SPBRG FOR DESIRED BAUD RATE
00007C 0E05           00343         MOVLW   0X05
00007E 6EB0           00344         MOVWF   SPBRGH
000080 0EF5           00345         MOVLW   .245
000082 6EAF           00346         MOVWF   SPBRG
                      00347 
000084 86B8           00348         BSF             BAUDCON,3
                      00349 
                      00350 
000086 0E24           00351         MOVLW B'00100100' ;CONFIGURE TXSTA AS :
000088 6EAC           00352         MOVWF TXSTA ;
                      00353 
                      00354 
00008A 0E80           00355         MOVLW B'10000000' ;ENABLE SERIAL PORT
00008C 6EAB           00356         MOVWF RCSTA ;RECEIVE STATUS REG
                      00357 
                      00358 
00008E 88AB           00359         BSF RCSTA,4 ;ENABLE USART RECEIVE
                      00360 ;============================================================================ 
                      00361 
Warning[203]: Found opcode in column 1. (MOVLB)
000090 0101           00362 MOVLB 0X01
                      00363 
Warning[203]: Found opcode in column 1. (BCF)
000092 9A8B           00364 LAT0_OFF
Warning[203]: Found opcode in column 1. (BCF)
000094 988B           00365 CLK0_OFF
Warning[203]: Found opcode in column 1. (BCF)
000096 908B           00366 DAT0_0
                      00367 
Warning[203]: Found opcode in column 1. (BCF)
000098 9E8C           00368 OE_OFF
                      00369 
                      00370 
Warning[203]: Found opcode in column 1. (CALL)
00009A ECA9 F07E      00371 CALL    CLR_DRAM0
Warning[203]: Found opcode in column 1. (CALL)
00009E ECB8 F07E      00372 CALL    CLR_DRAM1
Warning[203]: Found opcode in column 1. (CALL)
0000A2 ECC7 F07E      00373 CALL    CLR_TEMPRAM
Warning[203]: Found opcode in column 1. (CALL)
0000A6 EC99 F07E      00374 CALL    DELAY_ONESEC
Warning[203]: Found opcode in column 1. (CALL)
0000AA EC5B F000      00375 CALL    CLR_SBREG
MPASM  5.51                    2X4_P10_SB.ASM   4-22-2020  11:55:30         PAGE 47


LOC  OBJECT CODE     LINE SOURCE TEXT
  VALUE

                      00376 ;#######################        MAIN PROGRAM  ###########################
0000AE                00377 MAIN:
                      00378 
Warning[203]: Found opcode in column 1. (CALL)
0000AE EC00 F008      00379 CALL    DISPLAY
                      00380 
Warning[203]: Found opcode in column 1. (GOTO)
0000B2 EF57 F000      00381 GOTO    MAIN
                      00382 
                      00383 ;####################################################################
                      00384 
                      00385 ;=====================  CLEAR   DRAM0           ===================
0000B6                00386 CLR_SBREG
0000B6 0101           00387         MOVLB           0X01    ;BANK2
0000B8 0E18           00388         MOVLW           .24
0000BA 6F0B           00389         MOVWF           POINTER
                      00390 
0000BC 0E01           00391         MOVLW           0X01
0000BE 6EEA           00392         MOVWF           FSR0H,0
                      00393 
0000C0 0EC0           00394         MOVLW           0XC0
0000C2 6EE9           00395         MOVWF           FSR0L,0  
                      00396 
0000C4 0E00           00397         MOVLW           0X00
                      00398 
0000C6                00399 CLR_SBREG0
0000C6 6EEF           00400         MOVWF           INDF0
                      00401 
0000C8 2AE9           00402         INCF            FSR0L
0000CA 2F0B           00403         DECFSZ          POINTER, F
0000CC EF63 F000      00404         GOTO            CLR_SBREG0
0000D0 6EEF           00405         MOVWF           INDF0
                      00406         
Warning[203]: Found opcode in column 1. (RETURN)
0000D2 0012           00407 RETURN
                      00408 ;==============================================================
                      00409 
                      00410 
                      00411 
Warning[205]: Found directive in column 1. (ORG)
001000                00412 ORG     0X1000
                      00413 ;=======================        DISPLAY ===========================
001000                00414 DISPLAY:
                      00415 
001000 0E00           00416         MOVLW   0X00
001002 6F0D           00417         MOVWF   LINESCAN
                      00418 ;CALL   CLR_DRAM0
                      00419 ;CALL   CLR_DRAM1
Warning[203]: Found opcode in column 1. (CALL)
001004 EC00 F07F      00420 CALL    CLR_DRAM0SCAN
Warning[203]: Found opcode in column 1. (CALL)
001008 EC80 F07F      00421 CALL    CLR_DRAM1SCAN
Warning[203]: Found opcode in column 1. (CALL)
MPASM  5.51                    2X4_P10_SB.ASM   4-22-2020  11:55:30         PAGE 48


LOC  OBJECT CODE     LINE SOURCE TEXT
  VALUE

00100C ECB3 F019      00422 CALL    COMMAND
                      00423 
                      00424 
                      00425 
001010 0E98           00426         MOVLW   0X98
001012 6F12           00427         MOVWF   REG_STPT
001014 EC00 F078      00428         CALL    DATAREG0
001018 0E98           00429         MOVLW   0X98
00101A 6F12           00430         MOVWF   REG_STPT
00101C EC19 F078      00431         CALL    DATAREG1
                      00432 
                      00433 
001020 9E8C           00434         OE_OFF
001022 0E05           00435         MOVLW   .5
001024 EC80 F07E      00436         CALL    DELAY_US
001028 8A8B           00437         LAT0_ON
00102A 9A8B           00438         LAT0_OFF
00102C 8A8C           00439         LAT1_ON
00102E 9A8C           00440         LAT1_OFF
001030 828A           00441         LAT2_ON
001032 928A           00442         LAT2_OFF
001034 888A           00443         LAT3_ON
001036 988A           00444         LAT3_OFF
                      00445 
001038 948C           00446         A_0
00103A 968C           00447         B_0
                      00448 ;CALL   CLR_DRAM0
                      00449 ;CALL   CLR_DRAM1
00103C 8E8C           00450         OE_ON
00103E 0000           00451         NOP
001040 0000           00452         NOP
001042 0000           00453         NOP
001044 0000           00454         NOP
                      00455 
                      00456 
001046 0E04           00457         MOVLW   0X04
001048 6F0D           00458         MOVWF   LINESCAN
                      00459 ;CALL   CLR_DRAM0
                      00460 ;CALL   CLR_DRAM1
Warning[203]: Found opcode in column 1. (CALL)
00104A EC00 F07F      00461 CALL    CLR_DRAM0SCAN
Warning[203]: Found opcode in column 1. (CALL)
00104E EC80 F07F      00462 CALL    CLR_DRAM1SCAN
Warning[203]: Found opcode in column 1. (CALL)
001052 ECB3 F019      00463 CALL    COMMAND
                      00464 
001056 0E90           00465         MOVLW   0X90
001058 6F12           00466         MOVWF   REG_STPT
00105A EC00 F078      00467         CALL    DATAREG0
00105E 0E90           00468         MOVLW   0X90
001060 6F12           00469         MOVWF   REG_STPT
001062 EC19 F078      00470         CALL    DATAREG1
                      00471 
MPASM  5.51                    2X4_P10_SB.ASM   4-22-2020  11:55:30         PAGE 49


LOC  OBJECT CODE     LINE SOURCE TEXT
  VALUE

001066 9E8C           00472         OE_OFF
001068 0E05           00473         MOVLW   .5
00106A EC80 F07E      00474         CALL    DELAY_US
00106E 8A8B           00475         LAT0_ON
001070 9A8B           00476         LAT0_OFF
001072 8A8C           00477         LAT1_ON
001074 9A8C           00478         LAT1_OFF
001076 828A           00479         LAT2_ON
001078 928A           00480         LAT2_OFF
00107A 888A           00481         LAT3_ON
00107C 988A           00482         LAT3_OFF
                      00483 
00107E 848C           00484         A_1
001080 968C           00485         B_0
001082 8E8C           00486         OE_ON
001084 0000           00487         NOP
001086 0000           00488         NOP
001088 0000           00489         NOP
00108A 0000           00490         NOP
                      00491 
                      00492 
00108C 0E08           00493         MOVLW   0X08
00108E 6F0D           00494         MOVWF   LINESCAN
                      00495 ;CALL   CLR_DRAM0
                      00496 ;CALL   CLR_DRAM1
Warning[203]: Found opcode in column 1. (CALL)
001090 EC00 F07F      00497 CALL    CLR_DRAM0SCAN
Warning[203]: Found opcode in column 1. (CALL)
001094 EC80 F07F      00498 CALL    CLR_DRAM1SCAN
Warning[203]: Found opcode in column 1. (CALL)
001098 ECB3 F019      00499 CALL    COMMAND
                      00500 
00109C 0E88           00501         MOVLW   0X88
00109E 6F12           00502         MOVWF   REG_STPT
0010A0 EC00 F078      00503         CALL    DATAREG0
0010A4 0E88           00504         MOVLW   0X88
0010A6 6F12           00505         MOVWF   REG_STPT
0010A8 EC19 F078      00506         CALL    DATAREG1
                      00507 
0010AC 9E8C           00508         OE_OFF
0010AE 0E05           00509         MOVLW   .5
0010B0 EC80 F07E      00510         CALL    DELAY_US
0010B4 8A8B           00511         LAT0_ON
0010B6 9A8B           00512         LAT0_OFF
0010B8 8A8C           00513         LAT1_ON
0010BA 9A8C           00514         LAT1_OFF
0010BC 828A           00515         LAT2_ON
0010BE 928A           00516         LAT2_OFF
0010C0 888A           00517         LAT3_ON
0010C2 988A           00518         LAT3_OFF
                      00519 
0010C4 948C           00520         A_0
0010C6 868C           00521         B_1
MPASM  5.51                    2X4_P10_SB.ASM   4-22-2020  11:55:30         PAGE 50


LOC  OBJECT CODE     LINE SOURCE TEXT
  VALUE

0010C8 8E8C           00522         OE_ON
0010CA 0000           00523         NOP
0010CC 0000           00524         NOP
0010CE 0000           00525         NOP
0010D0 0000           00526         NOP
                      00527 
                      00528 
                      00529 
0010D2 0E0C           00530         MOVLW   0X0C
0010D4 6F0D           00531         MOVWF   LINESCAN
                      00532 ;CALL   CLR_DRAM0
                      00533 ;CALL   CLR_DRAM1
Warning[203]: Found opcode in column 1. (CALL)
0010D6 EC00 F07F      00534 CALL    CLR_DRAM0SCAN
Warning[203]: Found opcode in column 1. (CALL)
0010DA EC80 F07F      00535 CALL    CLR_DRAM1SCAN
Warning[203]: Found opcode in column 1. (CALL)
0010DE ECB3 F019      00536 CALL    COMMAND
                      00537 
0010E2 0E80           00538         MOVLW   0X80
0010E4 6F12           00539         MOVWF   REG_STPT
0010E6 EC00 F078      00540         CALL    DATAREG0
                      00541 
0010EA 0E80           00542         MOVLW   0X80
0010EC 6F12           00543         MOVWF   REG_STPT
0010EE EC19 F078      00544         CALL    DATAREG1
                      00545 
0010F2 9E8C           00546         OE_OFF
0010F4 0E05           00547         MOVLW   .5
0010F6 EC80 F07E      00548         CALL    DELAY_US
0010FA 8A8B           00549         LAT0_ON
0010FC 9A8B           00550         LAT0_OFF
0010FE 8A8C           00551         LAT1_ON
001100 9A8C           00552         LAT1_OFF
001102 828A           00553         LAT2_ON
001104 928A           00554         LAT2_OFF
001106 888A           00555         LAT3_ON
001108 988A           00556         LAT3_OFF
                      00557 
00110A 848C           00558         A_1
00110C 868C           00559         B_1
00110E 8E8C           00560         OE_ON
                      00561 
                      00562 
                      00563 
Warning[203]: Found opcode in column 1. (RETURN)
001110 0012           00564 RETURN
                      00565 ;============================================================== 
                      00566 
                      00567 
                      00568 
                      00569 
                      00570 
MPASM  5.51                    2X4_P10_SB.ASM   4-22-2020  11:55:30         PAGE 51


LOC  OBJECT CODE     LINE SOURCE TEXT
  VALUE

                      00571 
                      00572 
                      00573 
                      00574 
                      00575 
                      00576 
                      00577 
                      00578 
                      00579 
                      00580 
Warning[205]: Found directive in column 1. (ORG)
002000                00581 ORG 0X2000
                      00582 ;=======================        DUMP DATA       ===================
002000                00583 DUMPDATA:
002000 0E00           00584                         MOVLW   0
002002 6EFB           00585                         MOVWF   PCLATU,0
002004 0E20           00586                         MOVLW   0X20
002006 6EFA           00587                         MOVWF   PCLATH,0
                      00588 
                      00589 
002008 C10F FFE8      00590         MOVFF   FONT,WREG
                      00591 
                      00592 
                      00593 
                      00594 
00200C 90D8           00595         BCF             STATUS,C
00200E 34E8           00596         RLCF    WREG,0
002010 90D8           00597         BCF             STATUS,C
002012 34E8           00598         RLCF    WREG,0
002014 26F9           00599         ADDWF   PCL
                      00600 
002016 EF16 F010      00601         GOTO    DMP_FONT00
00201A EF37 F010      00602         GOTO    DMP_FONT01
00201E EF58 F010      00603         GOTO    DMP_FONT02
002022 EF14 F010      00604         GOTO    DMP_FONT03
                      00605 
                      00606 ;DMP_FONT00:
002026 0000           00607         NOP
                      00608 
                      00609 ;DMP_FONT01:
                      00610 ;       NOP
                      00611 
                      00612 ;DMP_FONT02:
                      00613 ;       NOP
                      00614 
002028                00615 DMP_FONT03:
002028 0000           00616         NOP
                      00617                                         
                      00618 
                      00619 
Warning[203]: Found opcode in column 1. (RETURN)
00202A 0012           00620 RETURN
                      00621 ;==========================================================
MPASM  5.51                    2X4_P10_SB.ASM   4-22-2020  11:55:30         PAGE 52


LOC  OBJECT CODE     LINE SOURCE TEXT
  VALUE

                      00622 
                      00623 
                      00624 ;==========     DUMP FONT 0X00===========
00202C                00625 DMP_FONT00
00202C 0E01           00626         MOVLW           0X01
00202E 6EE2           00627         MOVWF           FSR1H,0
                      00628 
002030 0E40           00629         MOVLW           0X40
002032 6EE1           00630         MOVWF           FSR1L,0
                      00631 
002034 C10D FFE8      00632         MOVFF           LINESCAN,WREG
002038 26E1           00633         ADDWF           FSR1L
                      00634 
00203A C10D F10A      00635         MOVFF           LINESCAN,BTCOUNT
00203E 90D8           00636         BCF                     STATUS,C
002040 330A           00637         RRCF            BTCOUNT
                      00638 
002042 0E02           00639         MOVLW           .2
002044 6F08           00640         MOVWF           TRAMCOUNT
                      00641 
002046                00642 DMP_F00
                      00643 
                      00644 
002046 EC00 F016      00645         CALL    DUMP_FONT00
                      00646 
00204A CFE8 FFE7      00647         MOVFF   WREG,INDF1
                      00648 
00204E 0E10           00649         MOVLW   0X10
002050 26E1           00650         ADDWF   FSR1L
                      00651 
002052 0E08           00652         MOVLW   0X08
002054 270A           00653         ADDWF   BTCOUNT
                      00654         
                      00655         
                      00656 
002056 2F08           00657         DECFSZ  TRAMCOUNT,F
002058 EF23 F010      00658         GOTO    DMP_F00
                      00659         
00205C EC2F F018      00660         CALL    ADJ_CURSORX
002060 EC9F F019      00661         CALL    ADJ_CURSORY
002064 EC00 F018      00662         CALL    MOV_TEMPRAM2DRAM
002068 ECD6 F07E      00663         CALL    CLR_TEMPRAMSCAN
Warning[203]: Found opcode in column 1. (RETURN)
00206C 0012           00664 RETURN
                      00665 ;=====================================
                      00666 
                      00667 ;==========     DUMP FONT 0X01===========
00206E                00668 DMP_FONT01
                      00669 
00206E 0E01           00670         MOVLW           0X01
002070 6EE2           00671         MOVWF           FSR1H,0
                      00672 
002072 0E20           00673         MOVLW           0X20
MPASM  5.51                    2X4_P10_SB.ASM   4-22-2020  11:55:30         PAGE 53


LOC  OBJECT CODE     LINE SOURCE TEXT
  VALUE

002074 6EE1           00674         MOVWF           FSR1L,0
                      00675 
002076 C10D FFE8      00676         MOVFF           LINESCAN,WREG
00207A 26E1           00677         ADDWF           FSR1L
                      00678 
00207C C10D F10A      00679         MOVFF           LINESCAN,BTCOUNT
002080 90D8           00680         BCF                     STATUS,C
002082 330A           00681         RRCF            BTCOUNT
                      00682 
002084 0E04           00683         MOVLW           .4
002086 6F08           00684         MOVWF           TRAMCOUNT
                      00685 
                      00686 
                      00687 
002088                00688 DMP_F10
                      00689 
                      00690 
002088 EC80 F016      00691         CALL    DUMP_FONT01
                      00692 
00208C CFE8 FFE7      00693         MOVFF   WREG,INDF1
                      00694 
002090 0E10           00695         MOVLW   0X10
002092 26E1           00696         ADDWF   FSR1L
                      00697 
002094 0E08           00698         MOVLW   0X08
002096 270A           00699         ADDWF   BTCOUNT
                      00700         
                      00701 
                      00702 
002098 2F08           00703         DECFSZ  TRAMCOUNT,F
00209A EF44 F010      00704         GOTO    DMP_F10
                      00705         
00209E EC2F F018      00706         CALL    ADJ_CURSORX
0020A2 EC9F F019      00707         CALL    ADJ_CURSORY
0020A6 EC00 F018      00708         CALL    MOV_TEMPRAM2DRAM
0020AA ECD6 F07E      00709         CALL    CLR_TEMPRAMSCAN
Warning[203]: Found opcode in column 1. (RETURN)
0020AE 0012           00710 RETURN
                      00711 ;=====================================
                      00712 
                      00713 
                      00714 
                      00715 ;==========     DUMP FONT 0X02===========
0020B0                00716 DMP_FONT02
                      00717 
0020B0 0E01           00718         MOVLW           0X01
0020B2 6EE2           00719         MOVWF           FSR1H,0
                      00720 
0020B4 0E20           00721         MOVLW           0X20
0020B6 6EE1           00722         MOVWF           FSR1L,0
                      00723 
                      00724 
0020B8 C10D FFE8      00725         MOVFF           LINESCAN,WREG
MPASM  5.51                    2X4_P10_SB.ASM   4-22-2020  11:55:30         PAGE 54


LOC  OBJECT CODE     LINE SOURCE TEXT
  VALUE

0020BC 26E1           00726         ADDWF           FSR1L
                      00727 
0020BE C10D F10A      00728         MOVFF           LINESCAN,BTCOUNT
0020C2 90D8           00729         BCF                     STATUS,C
0020C4 330A           00730         RRCF            BTCOUNT
                      00731 
0020C6 0E04           00732         MOVLW           .4
0020C8 6F08           00733         MOVWF           TRAMCOUNT
                      00734 
0020CA                00735 DMP_F20
                      00736 
                      00737 
0020CA EC00 F017      00738         CALL    DUMP_FONT02
                      00739 
0020CE CFE8 FFE7      00740         MOVFF   WREG,INDF1
                      00741 
0020D2 2AE1           00742         INCF    FSR1L
0020D4 2B0A           00743         INCF    BTCOUNT
                      00744 
0020D6 EC00 F017      00745         CALL    DUMP_FONT02
                      00746 
0020DA CFE8 FFE7      00747         MOVFF   WREG,INDF1
                      00748 
0020DE 0E0F           00749         MOVLW   0X0F
0020E0 26E1           00750         ADDWF   FSR1L
                      00751         
0020E2 0E07           00752         MOVLW   0X07
0020E4 270A           00753         ADDWF   BTCOUNT
                      00754         
                      00755 
                      00756 
0020E6 2F08           00757         DECFSZ  TRAMCOUNT,F
0020E8 EF65 F010      00758         GOTO    DMP_F20
                      00759         
0020EC EC2F F018      00760         CALL    ADJ_CURSORX
0020F0 EC9F F019      00761         CALL    ADJ_CURSORY
0020F4 EC00 F018      00762         CALL    MOV_TEMPRAM2DRAM
0020F8 ECD6 F07E      00763         CALL    CLR_TEMPRAMSCAN
                      00764 
                      00765 
Warning[203]: Found opcode in column 1. (RETURN)
0020FC 0012           00766 RETURN
                      00767 ;=====================================
                      00768 
                      00769 
                      00770 
                      00771 
Warning[205]: Found directive in column 1. (ORG)
002C00                00772 ORG 0X2C00
002C00                00773 DUMP_FONT00
                      00774 
002C00 0E00           00775         MOVLW   0
002C02 6EFB           00776         MOVWF   PCLATU,0
MPASM  5.51                    2X4_P10_SB.ASM   4-22-2020  11:55:30         PAGE 55


LOC  OBJECT CODE     LINE SOURCE TEXT
  VALUE

002C04 0E2C           00777         MOVLW   0X2C
002C06 6EFA           00778         MOVWF   PCLATH,0
                      00779 
                      00780 
002C08 C10E F16C      00781         MOVFF   CHAR,W_TEMP
002C0C 0E00           00782         MOVLW   0X00
002C0E 636C           00783         CPFSEQ  W_TEMP
002C10 EF0C F016      00784         GOTO    DMPF0_0         ;IF CHAR!=0
002C14 EF12 F016      00785         GOTO    DMPF0_1         ;IF CHAR=0
                      00786 
                      00787 
002C18                00788 DMPF0_0
                      00789 
002C18 C10E FFE8      00790         MOVFF   CHAR,WREG
                      00791 
                      00792 
                      00793 
                      00794 
002C1C 90D8           00795         BCF             STATUS,C
002C1E 34E8           00796         RLCF    WREG,0
002C20 90D8           00797         BCF             STATUS,C
002C22 34E8           00798         RLCF    WREG,0
                      00799 
                      00800 
                      00801 
                      00802 
002C24                00803 DMPF0_1
                      00804 
                      00805 
002C24 26F9           00806         ADDWF   PCL
002C26 EF00 F030      00807         GOTO    FONT0_0         ;CHAR= 0X00                     "0"
                      00808 
002C2A EF80 F030      00809         GOTO    FONT0_1         ;CHAR= 0X01                     "1"
                      00810 
002C2E EF00 F031      00811         GOTO    FONT0_2         ;CHAR= 0X02                     "2"
                      00812 
002C32 EF80 F031      00813         GOTO    FONT0_3         ;CHAR= 0X03                     "3"
                      00814 
002C36 EF00 F032      00815         GOTO    FONT0_4         ;CHAR= 0X04                     "4"
                      00816 
002C3A EF80 F032      00817         GOTO    FONT0_5         ;CHAR= 0X05                     "5"
                      00818 
002C3E EF00 F033      00819         GOTO    FONT0_6         ;CHAR= 0X06                     "6"
                      00820 
002C42 EF80 F033      00821         GOTO    FONT0_7         ;CHAR= 0X07                     "7"             
                      00822 
002C46 EF00 F034      00823         GOTO    FONT0_8         ;CHAR= 0X08                     "8"
                      00824 
002C4A EF80 F034      00825         GOTO    FONT0_9         ;CHAR= 0X09                     "9"
                      00826         
002C4E EF00 F038      00827         GOTO    FONT0_A         ;CHAR= 0X0A                     ":"
                      00828 
002C52 EF10 F038      00829         GOTO    FONT0_B         ;CHAR= 0X0B                     "A"
MPASM  5.51                    2X4_P10_SB.ASM   4-22-2020  11:55:30         PAGE 56


LOC  OBJECT CODE     LINE SOURCE TEXT
  VALUE

                      00830 
002C56 EF20 F038      00831         GOTO    FONT0_C         ;CHAR= 0X0C                     "A"
                      00832 
002C5A EF30 F038      00833         GOTO    FONT0_D         ;CHAR= 0X0D                     "A"
                      00834 
002C5E EF40 F038      00835         GOTO    FONT0_E         ;CHAR= 0X0E                     "A"
                      00836 
002C62 EF50 F038      00837         GOTO    FONT0_F         ;CHAR= 0X0F                     "A"
                      00838 
002C66 EF80 F038      00839         GOTO    FONT0_10        ;CHAR= 0X10                     "A"
                      00840 
002C6A EF90 F038      00841         GOTO    FONT0_11        ;CHAR= 0X11                     "B"
                      00842         
002C6E EFA0 F038      00843         GOTO    FONT0_12        ;CHAR= 0X12                     "C"
                      00844         
002C72 EFB0 F038      00845         GOTO    FONT0_13        ;CHAR= 0X13                     "D"
                      00846 
002C76 EFC0 F038      00847         GOTO    FONT0_14        ;CHAR= 0X14                     "E"
                      00848 
002C7A EFD0 F038      00849         GOTO    FONT0_15        ;CHAR= 0X15                     "F"
                      00850 
002C7E EFE0 F038      00851         GOTO    FONT0_16        ;CHAR= 0X16                     "G"
                      00852 
002C82 EFF0 F038      00853         GOTO    FONT0_17        ;CHAR= 0X17                     "H"
                      00854 
002C86 EF00 F039      00855         GOTO    FONT0_18        ;CHAR= 0X18                     "I"
                      00856 
002C8A EF10 F039      00857         GOTO    FONT0_19        ;CHAR= 0X19                     "J"
                      00858 
002C8E EF20 F039      00859         GOTO    FONT0_1A        ;CHAR= 0X1A                     "K"
                      00860 
002C92 EF30 F039      00861         GOTO    FONT0_1B        ;CHAR= 0X1B                     "L"
                      00862 
002C96 EF40 F039      00863         GOTO    FONT0_1C        ;CHAR= 0X1C                     "M"
                      00864 
002C9A EF50 F039      00865         GOTO    FONT0_1D        ;CHAR= 0X1D                     "N"
                      00866 
002C9E EF60 F039      00867         GOTO    FONT0_1E        ;CHAR= 0X1E                     "O"
                      00868 
002CA2 EF70 F039      00869         GOTO    FONT0_1F        ;CHAR= 0X14                     "P"
                      00870 
002CA6 EF80 F039      00871         GOTO    FONT0_20        ;CHAR= 0X1F                     "Q"
                      00872 
002CAA EF90 F039      00873         GOTO    FONT0_21        ;CHAR= 0X14                     "R"
                      00874 
002CAE EFA0 F039      00875         GOTO    FONT0_22        ;CHAR= 0X14                     "S"
                      00876 
002CB2 EFB0 F039      00877         GOTO    FONT0_23        ;CHAR= 0X14                     "T"
                      00878 
002CB6 EFC0 F039      00879         GOTO    FONT0_24        ;CHAR= 0X14                     "U"
                      00880 
002CBA EFD0 F039      00881         GOTO    FONT0_25        ;CHAR= 0X14                     "V"
                      00882 
MPASM  5.51                    2X4_P10_SB.ASM   4-22-2020  11:55:30         PAGE 57


LOC  OBJECT CODE     LINE SOURCE TEXT
  VALUE

002CBE EFE0 F039      00883         GOTO    FONT0_26        ;CHAR= 0X14                     "W"
                      00884 
002CC2 EFF0 F039      00885         GOTO    FONT0_27        ;CHAR= 0X14                     "X"
                      00886 
002CC6 EF00 F03A      00887         GOTO    FONT0_28        ;CHAR= 0X14                     "Y"
                      00888 
002CCA EF10 F03A      00889         GOTO    FONT0_29        ;CHAR= 0X14                     "Z"
                      00890 
                      00891 
Warning[203]: Found opcode in column 1. (RETURN)
002CCE 0012           00892 RETURN
                      00893 
                      00894 ;==========================================================
                      00895 
                      00896 
                      00897 
                      00898 
Warning[205]: Found directive in column 1. (ORG)
002D00                00899 ORG 0X2D00
002D00                00900 DUMP_FONT01
                      00901 
002D00 0E00           00902         MOVLW   0
002D02 6EFB           00903         MOVWF   PCLATU,0
002D04 0E2D           00904         MOVLW   0X2D
002D06 6EFA           00905         MOVWF   PCLATH,0
                      00906 
                      00907 
002D08 C10E F16C      00908         MOVFF   CHAR,W_TEMP
002D0C 0E00           00909         MOVLW   0X00
002D0E 636C           00910         CPFSEQ  W_TEMP
002D10 EF8C F016      00911         GOTO    DMPF1_0         ;IF CHAR!=0
002D14 EF92 F016      00912         GOTO    DMPF1_1         ;IF CHAR=0
                      00913 
                      00914 
002D18                00915 DMPF1_0
                      00916 
002D18 C10E FFE8      00917         MOVFF   CHAR,WREG
                      00918 
                      00919 
                      00920 
                      00921 
002D1C 90D8           00922         BCF             STATUS,C
002D1E 34E8           00923         RLCF    WREG,0
002D20 90D8           00924         BCF             STATUS,C
002D22 34E8           00925         RLCF    WREG,0
                      00926 
                      00927 
                      00928 
                      00929 
002D24                00930 DMPF1_1
                      00931 
                      00932 
002D24 26F9           00933         ADDWF   PCL
MPASM  5.51                    2X4_P10_SB.ASM   4-22-2020  11:55:30         PAGE 58


LOC  OBJECT CODE     LINE SOURCE TEXT
  VALUE

002D26 EF11 F030      00934         GOTO    FONT1_0         ;CHAR= 0X00                     "0"
                      00935 
002D2A EF91 F030      00936         GOTO    FONT1_1         ;CHAR= 0X01                     "1"
                      00937 
002D2E EF11 F031      00938         GOTO    FONT1_2         ;CHAR= 0X02                     "2"
                      00939 
002D32 EF91 F031      00940         GOTO    FONT1_3         ;CHAR= 0X03                     "3"
                      00941 
002D36 EF11 F032      00942         GOTO    FONT1_4         ;CHAR= 0X04                     "4"
                      00943 
002D3A EF91 F032      00944         GOTO    FONT1_5         ;CHAR= 0X05                     "5"
                      00945 
002D3E EF11 F033      00946         GOTO    FONT1_6         ;CHAR= 0X06                     "6"
                      00947 
002D42 EF91 F033      00948         GOTO    FONT1_7         ;CHAR= 0X07                     "7"             
                      00949 
002D46 EF11 F034      00950         GOTO    FONT1_8         ;CHAR= 0X08                     "8"
                      00951 
002D4A EF91 F034      00952         GOTO    FONT1_9         ;CHAR= 0X09                     "9"
                      00953         
002D4E EF00 F035      00954         GOTO    FONT1_A         ;CHAR= 0X0A                     "BLANK"
                      00955 
002D52 EF80 F035      00956         GOTO    FONT1_B         ;CHAR= 0X0B                     ":"
                      00957 
002D56 EF00 F036      00958         GOTO    FONT1_C         ;CHAR= 0X0C                     "<"
                      00959 
002D5A EF80 F036      00960         GOTO    FONT1_D         ;CHAR= 0X0D                     ">"
                      00961 
                      00962 ;==========================================================
                      00963 
                      00964 
                      00965 
Warning[205]: Found directive in column 1. (ORG)
002E00                00966 ORG 0X2E00
002E00                00967 DUMP_FONT02
                      00968 
002E00 0E00           00969         MOVLW   0
002E02 6EFB           00970         MOVWF   PCLATU,0
002E04 0E2E           00971         MOVLW   0X2E
002E06 6EFA           00972         MOVWF   PCLATH,0
                      00973 
                      00974 
002E08 C10E F16C      00975         MOVFF   CHAR,W_TEMP
002E0C 0E00           00976         MOVLW   0X00
002E0E 636C           00977         CPFSEQ  W_TEMP
002E10 EF0C F017      00978         GOTO    DMPF2_0         ;IF CHAR!=0
002E14 EF12 F017      00979         GOTO    DMPF2_1         ;IF CHAR=0
                      00980 
                      00981 
002E18                00982 DMPF2_0
                      00983 
002E18 C10E FFE8      00984         MOVFF   CHAR,WREG
                      00985 
MPASM  5.51                    2X4_P10_SB.ASM   4-22-2020  11:55:30         PAGE 59


LOC  OBJECT CODE     LINE SOURCE TEXT
  VALUE

                      00986 
                      00987 
                      00988 
002E1C 90D8           00989         BCF             STATUS,C
002E1E 34E8           00990         RLCF    WREG,0
002E20 90D8           00991         BCF             STATUS,C
002E22 34E8           00992         RLCF    WREG,0
                      00993 
                      00994 
                      00995 
                      00996 
002E24                00997 DMPF2_1
                      00998 
                      00999 
002E24 26F9           01000         ADDWF   PCL
002E26 EF29 F030      01001         GOTO    FONT2_0         ;CHAR= 0X00                     "0"
                      01002 
002E2A EFA9 F030      01003         GOTO    FONT2_1         ;CHAR= 0X01                     "1"
                      01004 
002E2E EF29 F031      01005         GOTO    FONT2_2         ;CHAR= 0X02                     "2"
                      01006 
002E32 EFA9 F031      01007         GOTO    FONT2_3         ;CHAR= 0X03                     "3"
                      01008 
002E36 EF29 F032      01009         GOTO    FONT2_4         ;CHAR= 0X04                     "4"
                      01010 
002E3A EFA9 F032      01011         GOTO    FONT2_5         ;CHAR= 0X05                     "5"
                      01012 
002E3E EF29 F033      01013         GOTO    FONT2_6         ;CHAR= 0X06                     "6"
                      01014 
002E42 EFA9 F033      01015         GOTO    FONT2_7         ;CHAR= 0X07                     "7"             
                      01016 
002E46 EF29 F034      01017         GOTO    FONT2_8         ;CHAR= 0X08                     "8"
                      01018 
002E4A EFA9 F034      01019         GOTO    FONT2_9         ;CHAR= 0X09                     "9"
                      01020         
002E4E EF18 F035      01021         GOTO    FONT2_A         ;CHAR= 0X0A                     "BLANK"
                      01022 
002E52 EF98 F035      01023         GOTO    FONT2_B         ;CHAR= 0X0B                     ":"
                      01024 ;
                      01025 ;       GOTO    FONT2_C         ;CHAR= 0X0C                     "<"
                      01026 ;
                      01027 ;       GOTO    FONT2_D         ;CHAR= 0X0D                     ">"
                      01028 ;
                      01029 
                      01030 
                      01031 ;==========================================================
                      01032 
                      01033 
                      01034 
                      01035 
Warning[205]: Found directive in column 1. (ORG)
003000                01036 ORG 0X3000
                      01037 ;===================    TEMPRAM TO DRAM         ===============
MPASM  5.51                    2X4_P10_SB.ASM   4-22-2020  11:55:30         PAGE 60


LOC  OBJECT CODE     LINE SOURCE TEXT
  VALUE

003000                01038 MOV_TEMPRAM2DRAM
003000 0E20           01039         MOVLW   .32
003002 6F0B           01040         MOVWF   POINTER
                      01041 
                      01042 
                      01043         ;CURSOR X AND Y CHECK   FOR RAM_STPT (STARTING POINT OF RAM)
                      01044 
003004 0E01           01045         MOVLW   0X01            ;TEMP_RAM
003006 6EE2           01046         MOVWF   FSR1H
                      01047         
003008 0E5C           01048         MOVLW   0X5C
00300A 6EE1           01049         MOVWF   FSR1L
                      01050 
00300C 0E02           01051         MOVLW   0X02            ;DATA_RAM
00300E 6EEA           01052         MOVWF   FSR0H
                      01053 
003010 B111           01054         BTFSC   RAM_STPTH,0
003012 2AEA           01055         INCF    FSR0H
                      01056 
003014 C110 FFE9      01057         MOVFF   RAM_STPT,FSR0L
                      01058         
003018 0E10           01059         MOVLW   .16
00301A 6F08           01060         MOVWF   TRAMCOUNT
                      01061 
00301C                01062 MOV_TR2DR0
00301C CFE7 FFE8      01063         MOVFF   INDF1,WREG
003020 16EF           01064         ANDWF   INDF0
003022 2AE1           01065         INCF    FSR1L
003024 2AE9           01066         INCF    FSR0L
003026 CFE7 FFE8      01067         MOVFF   INDF1,WREG
00302A 16EF           01068         ANDWF   INDF0
                      01069 
00302C 2AE1           01070         INCF    FSR1L
00302E 2AE9           01071         INCF    FSR0L
003030 CFE7 FFE8      01072         MOVFF   INDF1,WREG
003034 16EF           01073         ANDWF   INDF0
                      01074 
003036 2AE1           01075         INCF    FSR1L
003038 2AE9           01076         INCF    FSR0L
00303A CFE7 FFE8      01077         MOVFF   INDF1,WREG
00303E 16EF           01078         ANDWF   INDF0
                      01079         
003040 0E07           01080         MOVLW   0X07
003042 5EE1           01081         SUBWF   FSR1L
                      01082 
003044 0E03           01083         MOVLW   0X03
003046 5EE9           01084         SUBWF   FSR0L
                      01085         
003048 0E08           01086         MOVLW   0X08
00304A 26E9           01087         ADDWF   FSR0L
                      01088 
00304C A0D8           01089         BTFSS   STATUS,C
00304E EF2A F018      01090         GOTO    MOV_TR2DR1
MPASM  5.51                    2X4_P10_SB.ASM   4-22-2020  11:55:30         PAGE 61


LOC  OBJECT CODE     LINE SOURCE TEXT
  VALUE

                      01091 
003052 2AEA           01092         INCF    FSR0H
                      01093 
                      01094 
003054                01095 MOV_TR2DR1
003054 2F08           01096         DECFSZ  TRAMCOUNT,F
003056 EF0E F018      01097         GOTO    MOV_TR2DR0
                      01098         
                      01099         
                      01100 
                      01101 
00305A 6B11           01102         CLRF    RAM_STPTH
                      01103 
                      01104 
Warning[203]: Found opcode in column 1. (RETURN)
00305C 0012           01105 RETURN
                      01106 ;==========================================================
                      01107 
                      01108 
                      01109 ;===================    CURSOR X ADJUST ===================
00305E                01110 ADJ_CURSORX
00305E C113 F16C      01111         MOVFF   CURSORX,W_TEMP
003062 0E08           01112         MOVLW   .8
003064 656C           01113         CPFSGT  W_TEMP
003066 EF37 F018      01114         GOTO    CSRX_LTEQ8
00306A EF3E F018      01115         GOTO    CSRX_GTEQ8
                      01116 
00306E                01117 CSRX_LTEQ8
00306E 0E00           01118         MOVLW   0X00
003070 6F10           01119         MOVWF   RAM_STPT
                      01120 
003072 C113 F109      01121         MOVFF   CURSORX,TRAM_SHIFT
003076 EC00 F019      01122         CALL    TRAMSHIFT
                      01123 
00307A 0012           01124         RETURN
                      01125 
                      01126 
                      01127 
00307C                01128 CSRX_GTEQ8
00307C C113 F16C      01129         MOVFF   CURSORX,W_TEMP
003080 0E10           01130         MOVLW   .16
003082 656C           01131         CPFSGT  W_TEMP
003084 EF46 F018      01132         GOTO    CSRX_LTEQ16
003088 EF4F F018      01133         GOTO    CSRX_GTEQ16
                      01134 
00308C                01135 CSRX_LTEQ16
00308C 0E01           01136         MOVLW   0X01
00308E 6F10           01137         MOVWF   RAM_STPT
                      01138 
003090 C113 F109      01139         MOVFF   CURSORX,TRAM_SHIFT
003094 0E08           01140         MOVLW   .8
003096 5F09           01141         SUBWF   TRAM_SHIFT
003098 EC00 F019      01142         CALL    TRAMSHIFT
MPASM  5.51                    2X4_P10_SB.ASM   4-22-2020  11:55:30         PAGE 62


LOC  OBJECT CODE     LINE SOURCE TEXT
  VALUE

                      01143 
00309C 0012           01144         RETURN
                      01145 
00309E                01146 CSRX_GTEQ16
00309E C113 F16C      01147         MOVFF   CURSORX,W_TEMP
0030A2 0E18           01148         MOVLW   .24
0030A4 656C           01149         CPFSGT  W_TEMP
0030A6 EF57 F018      01150         GOTO    CSRX_LTEQ24
0030AA EF60 F018      01151         GOTO    CSRX_GTEQ24
                      01152 
0030AE                01153 CSRX_LTEQ24
0030AE 0E02           01154         MOVLW   0X02
0030B0 6F10           01155         MOVWF   RAM_STPT
                      01156 
0030B2 C113 F109      01157         MOVFF   CURSORX,TRAM_SHIFT
0030B6 0E10           01158         MOVLW   .16
0030B8 5F09           01159         SUBWF   TRAM_SHIFT
0030BA EC00 F019      01160         CALL    TRAMSHIFT
                      01161 
0030BE 0012           01162         RETURN  
0030C0                01163 CSRX_GTEQ24
0030C0 C113 F16C      01164         MOVFF   CURSORX,W_TEMP
0030C4 0E20           01165         MOVLW   .32
0030C6 656C           01166         CPFSGT  W_TEMP
0030C8 EF68 F018      01167         GOTO    CSRX_LTEQ32
0030CC EF71 F018      01168         GOTO    CSRX_GTEQ32
                      01169 
0030D0                01170 CSRX_LTEQ32
0030D0 0E03           01171         MOVLW   0X03
0030D2 6F10           01172         MOVWF   RAM_STPT
                      01173 
0030D4 C113 F109      01174         MOVFF   CURSORX,TRAM_SHIFT
0030D8 0E18           01175         MOVLW   .24
0030DA 5F09           01176         SUBWF   TRAM_SHIFT
0030DC EC00 F019      01177         CALL    TRAMSHIFT
                      01178 
0030E0 0012           01179         RETURN  
0030E2                01180 CSRX_GTEQ32
0030E2 C113 F16C      01181         MOVFF   CURSORX,W_TEMP
0030E6 0E28           01182         MOVLW   .40
0030E8 656C           01183         CPFSGT  W_TEMP
0030EA EF79 F018      01184         GOTO    CSRX_LTEQ40
0030EE EF82 F018      01185         GOTO    CSRX_GTEQ40
                      01186 
0030F2                01187 CSRX_LTEQ40
0030F2 0E04           01188         MOVLW   0X04
0030F4 6F10           01189         MOVWF   RAM_STPT
                      01190 
0030F6 C113 F109      01191         MOVFF   CURSORX,TRAM_SHIFT
0030FA 0E20           01192         MOVLW   .32
0030FC 5F09           01193         SUBWF   TRAM_SHIFT
0030FE EC00 F019      01194         CALL    TRAMSHIFT
                      01195 
MPASM  5.51                    2X4_P10_SB.ASM   4-22-2020  11:55:30         PAGE 63


LOC  OBJECT CODE     LINE SOURCE TEXT
  VALUE

003102 0012           01196         RETURN  
003104                01197 CSRX_GTEQ40
003104 C113 F16C      01198         MOVFF   CURSORX,W_TEMP
003108 0E30           01199         MOVLW   .48
00310A 656C           01200         CPFSGT  W_TEMP
00310C EF8A F018      01201         GOTO    CSRX_LTEQ48
003110 EF93 F018      01202         GOTO    CSRX_GTEQ48
                      01203 
003114                01204 CSRX_LTEQ48
003114 0E05           01205         MOVLW   0X05
003116 6F10           01206         MOVWF   RAM_STPT
                      01207 
003118 C113 F109      01208         MOVFF   CURSORX,TRAM_SHIFT
00311C 0E28           01209         MOVLW   .40
00311E 5F09           01210         SUBWF   TRAM_SHIFT
003120 EC00 F019      01211         CALL    TRAMSHIFT
                      01212 
003124 0012           01213         RETURN  
003126                01214 CSRX_GTEQ48
003126 C113 F16C      01215         MOVFF   CURSORX,W_TEMP
00312A 0E38           01216         MOVLW   .56
00312C 656C           01217         CPFSGT  W_TEMP
00312E EF9B F018      01218         GOTO    CSRX_LTEQ56
003132 EFA4 F018      01219         GOTO    CSRX_GTEQ56
                      01220 
003136                01221 CSRX_LTEQ56
003136 0E06           01222         MOVLW   0X06
003138 6F10           01223         MOVWF   RAM_STPT
                      01224 
00313A C113 F109      01225         MOVFF   CURSORX,TRAM_SHIFT
00313E 0E30           01226         MOVLW   .48
003140 5F09           01227         SUBWF   TRAM_SHIFT
003142 EC00 F019      01228         CALL    TRAMSHIFT
                      01229 
003146 0012           01230         RETURN  
003148                01231 CSRX_GTEQ56
003148 0E07           01232         MOVLW   0X07
00314A 6F10           01233         MOVWF   RAM_STPT
                      01234 
00314C C113 F109      01235         MOVFF   CURSORX,TRAM_SHIFT
003150 0E38           01236         MOVLW   .56
003152 5F09           01237         SUBWF   TRAM_SHIFT
003154 EC00 F019      01238         CALL    TRAMSHIFT
                      01239 
003158 0012           01240         RETURN
                      01241 
                      01242 
                      01243 
Warning[203]: Found opcode in column 1. (RETURN)
00315A 0012           01244 RETURN
                      01245  
                      01246 
Warning[205]: Found directive in column 1. (ORG)
MPASM  5.51                    2X4_P10_SB.ASM   4-22-2020  11:55:30         PAGE 64


LOC  OBJECT CODE     LINE SOURCE TEXT
  VALUE

003200                01247 ORG 0X3200
003200                01248 TRAMSHIFT
                      01249 
003200 0E00           01250         MOVLW   0
003202 6EFB           01251         MOVWF   PCLATU,0
003204 0E32           01252         MOVLW   0X32
003206 6EFA           01253         MOVWF   PCLATH,0
                      01254 
                      01255 
003208 C10D FFE8      01256         MOVFF   LINESCAN,WREG
00320C 90D8           01257         BCF             STATUS,C
00320E 32E8           01258         RRCF    WREG
003210 90D8           01259         BCF             STATUS,C
003212 32E8           01260         RRCF    WREG
                      01261 
                      01262 
                      01263 
003214 90D8           01264         BCF             STATUS,C
003216 34E8           01265         RLCF    WREG,0
003218 90D8           01266         BCF             STATUS,C
00321A 34E8           01267         RLCF    WREG,0
00321C 26F9           01268         ADDWF   PCL
                      01269 
00321E EF17 F019      01270         GOTO    TRS0
003222 EF39 F019      01271         GOTO    TRS1
003226 EF5B F019      01272         GOTO    TRS2
00322A EF7D F019      01273         GOTO    TRS3
                      01274 
                      01275 
                      01276 
00322E                01277 TRS0
                      01278 
00322E 80D8           01279                 BSF             STATUS,C
003230 3320           01280                 RRCF    TEMPRAM+00
003232 3321           01281                 RRCF    TEMPRAM+01
003234 3322           01282                 RRCF    TEMPRAM+02
003236 3323           01283                 RRCF    TEMPRAM+03
                      01284 
003238 80D8           01285                 BSF             STATUS,C
00323A 3330           01286                 RRCF    TEMPRAM+10
00323C 3331           01287                 RRCF    TEMPRAM+11
00323E 3332           01288                 RRCF    TEMPRAM+12
003240 3333           01289                 RRCF    TEMPRAM+13
                      01290 
003242 80D8           01291                 BSF             STATUS,C
003244 3340           01292                 RRCF    TEMPRAM+20
003246 3341           01293                 RRCF    TEMPRAM+21
003248 3342           01294                 RRCF    TEMPRAM+22
00324A 3343           01295                 RRCF    TEMPRAM+23
                      01296 
00324C 80D8           01297                 BSF             STATUS,C
00324E 3350           01298                 RRCF    TEMPRAM+30
003250 3351           01299                 RRCF    TEMPRAM+31
MPASM  5.51                    2X4_P10_SB.ASM   4-22-2020  11:55:30         PAGE 65


LOC  OBJECT CODE     LINE SOURCE TEXT
  VALUE

003252 3352           01300                 RRCF    TEMPRAM+32
003254 3353           01301                 RRCF    TEMPRAM+33
                      01302 
                      01303 
003256 80D8           01304                 BSF             STATUS,C
003258 3360           01305                 RRCF    TEMPRAM+40
00325A 3361           01306                 RRCF    TEMPRAM+41
00325C 3362           01307                 RRCF    TEMPRAM+42
00325E 3363           01308                 RRCF    TEMPRAM+43
                      01309 
003260 80D8           01310                 BSF             STATUS,C
003262 3370           01311                 RRCF    TEMPRAM+50
003264 3371           01312                 RRCF    TEMPRAM+51
003266 3372           01313                 RRCF    TEMPRAM+52
003268 3373           01314                 RRCF    TEMPRAM+53
00326A 2F09           01315         DECFSZ  TRAM_SHIFT,F
00326C EF17 F019      01316         GOTO    TRS0
                      01317 
Warning[203]: Found opcode in column 1. (RETURN)
003270 0012           01318 RETURN
                      01319 
003272                01320 TRS1
003272 80D8           01321                 BSF             STATUS,C
003274 3324           01322                 RRCF    TEMPRAM+04
003276 3325           01323                 RRCF    TEMPRAM+05
003278 3326           01324                 RRCF    TEMPRAM+06
00327A 3327           01325                 RRCF    TEMPRAM+07
                      01326 
00327C 80D8           01327                 BSF             STATUS,C
00327E 3334           01328                 RRCF    TEMPRAM+14
003280 3335           01329                 RRCF    TEMPRAM+15
003282 3336           01330                 RRCF    TEMPRAM+16
003284 3337           01331                 RRCF    TEMPRAM+17
                      01332 
003286 80D8           01333                 BSF             STATUS,C
003288 3344           01334                 RRCF    TEMPRAM+24
00328A 3345           01335                 RRCF    TEMPRAM+25
00328C 3346           01336                 RRCF    TEMPRAM+26
00328E 3347           01337                 RRCF    TEMPRAM+27
                      01338 
003290 80D8           01339                 BSF             STATUS,C
003292 3354           01340                 RRCF    TEMPRAM+34
003294 3355           01341                 RRCF    TEMPRAM+35
003296 3356           01342                 RRCF    TEMPRAM+36
003298 3357           01343                 RRCF    TEMPRAM+37
                      01344 
00329A 80D8           01345                 BSF             STATUS,C
00329C 3364           01346                 RRCF    TEMPRAM+44
00329E 3365           01347                 RRCF    TEMPRAM+45
0032A0 3366           01348                 RRCF    TEMPRAM+46
0032A2 3367           01349                 RRCF    TEMPRAM+47
                      01350 
0032A4 80D8           01351                 BSF             STATUS,C
MPASM  5.51                    2X4_P10_SB.ASM   4-22-2020  11:55:30         PAGE 66


LOC  OBJECT CODE     LINE SOURCE TEXT
  VALUE

0032A6 3374           01352                 RRCF    TEMPRAM+54
0032A8 3375           01353                 RRCF    TEMPRAM+55
0032AA 3376           01354                 RRCF    TEMPRAM+56
0032AC 3377           01355                 RRCF    TEMPRAM+57
                      01356 
                      01357 
                      01358 
0032AE 2F09           01359         DECFSZ  TRAM_SHIFT,F
0032B0 EF39 F019      01360         GOTO    TRS1
Warning[203]: Found opcode in column 1. (RETURN)
0032B4 0012           01361 RETURN
                      01362 
0032B6                01363 TRS2
0032B6 80D8           01364                 BSF             STATUS,C
0032B8 3328           01365                 RRCF    TEMPRAM+08
0032BA 3329           01366                 RRCF    TEMPRAM+09
0032BC 332A           01367                 RRCF    TEMPRAM+0A
0032BE 332B           01368                 RRCF    TEMPRAM+0B      
                      01369 
0032C0 80D8           01370                 BSF             STATUS,C
0032C2 3338           01371                 RRCF    TEMPRAM+18
0032C4 3339           01372                 RRCF    TEMPRAM+19
0032C6 333A           01373                 RRCF    TEMPRAM+1A
0032C8 333B           01374                 RRCF    TEMPRAM+1B
                      01375 
0032CA 80D8           01376                 BSF             STATUS,C
0032CC 3348           01377                 RRCF    TEMPRAM+28
0032CE 3349           01378                 RRCF    TEMPRAM+29
0032D0 334A           01379                 RRCF    TEMPRAM+2A
0032D2 334B           01380                 RRCF    TEMPRAM+2B
                      01381 
0032D4 80D8           01382                 BSF             STATUS,C
0032D6 3358           01383                 RRCF    TEMPRAM+38
0032D8 3359           01384                 RRCF    TEMPRAM+39
0032DA 335A           01385                 RRCF    TEMPRAM+3A
0032DC 335B           01386                 RRCF    TEMPRAM+3B
                      01387 
0032DE 80D8           01388                 BSF             STATUS,C
0032E0 3368           01389                 RRCF    TEMPRAM+48
0032E2 3369           01390                 RRCF    TEMPRAM+49
0032E4 336A           01391                 RRCF    TEMPRAM+4A
0032E6 336B           01392                 RRCF    TEMPRAM+4B
                      01393 
0032E8 80D8           01394                 BSF             STATUS,C
0032EA 3378           01395                 RRCF    TEMPRAM+58
0032EC 3379           01396                 RRCF    TEMPRAM+59
0032EE 337A           01397                 RRCF    TEMPRAM+5A
0032F0 337B           01398                 RRCF    TEMPRAM+5B
0032F2 2F09           01399         DECFSZ  TRAM_SHIFT,F
0032F4 EF5B F019      01400         GOTO    TRS2
Warning[203]: Found opcode in column 1. (RETURN)
0032F8 0012           01401 RETURN
                      01402 
MPASM  5.51                    2X4_P10_SB.ASM   4-22-2020  11:55:30         PAGE 67


LOC  OBJECT CODE     LINE SOURCE TEXT
  VALUE

0032FA                01403 TRS3
0032FA 80D8           01404                 BSF             STATUS,C
0032FC 332C           01405                 RRCF    TEMPRAM+0C
0032FE 332D           01406                 RRCF    TEMPRAM+0D
003300 332E           01407                 RRCF    TEMPRAM+0E
003302 332F           01408                 RRCF    TEMPRAM+0F
                      01409 
003304 80D8           01410                 BSF             STATUS,C
003306 333C           01411                 RRCF    TEMPRAM+1C
003308 333D           01412                 RRCF    TEMPRAM+1D
00330A 333E           01413                 RRCF    TEMPRAM+1E
00330C 333F           01414                 RRCF    TEMPRAM+1F
                      01415 
00330E 80D8           01416                 BSF             STATUS,C
003310 334C           01417                 RRCF    TEMPRAM+2C
003312 334D           01418                 RRCF    TEMPRAM+2D
003314 334E           01419                 RRCF    TEMPRAM+2E
003316 334F           01420                 RRCF    TEMPRAM+2F
                      01421 
003318 80D8           01422                 BSF             STATUS,C
00331A 335C           01423                 RRCF    TEMPRAM+3C
00331C 335D           01424                 RRCF    TEMPRAM+3D
00331E 335E           01425                 RRCF    TEMPRAM+3E
003320 335F           01426                 RRCF    TEMPRAM+3F
                      01427 
003322 80D8           01428                 BSF             STATUS,C
003324 336C           01429                 RRCF    TEMPRAM+4C
003326 336D           01430                 RRCF    TEMPRAM+4D
003328 336E           01431                 RRCF    TEMPRAM+4E
00332A 336F           01432                 RRCF    TEMPRAM+4F
                      01433 
00332C 80D8           01434                 BSF             STATUS,C
00332E 337C           01435                 RRCF    TEMPRAM+5C
003330 337D           01436                 RRCF    TEMPRAM+5D
003332 337E           01437                 RRCF    TEMPRAM+5E
003334 337F           01438                 RRCF    TEMPRAM+5F
                      01439 
003336 2F09           01440         DECFSZ  TRAM_SHIFT,F
003338 EF7D F019      01441         GOTO    TRS3
Warning[203]: Found opcode in column 1. (RETURN)
00333C 0012           01442 RETURN
                      01443 
                      01444 ;======================================================
                      01445 
                      01446 
                      01447 ;===================    CURSOR Y ADJUST         ===============
00333E                01448 ADJ_CURSORY
00333E C114 F16C      01449         MOVFF   CURSORY,W_TEMP
003342 0E00           01450         MOVLW   0
003344 636C           01451         CPFSEQ  W_TEMP
003346 EFA6 F019      01452         GOTO    CSRY_NEQ0_ST
00334A 0012           01453         RETURN
                      01454 
MPASM  5.51                    2X4_P10_SB.ASM   4-22-2020  11:55:30         PAGE 68


LOC  OBJECT CODE     LINE SOURCE TEXT
  VALUE

00334C                01455 CSRY_NEQ0_ST
00334C C114 F105      01456         MOVFF   CURSORY,LOOP
003350                01457 CSRY_NEQ0
003350 0E08           01458         MOVLW   0X08
003352 2710           01459         ADDWF   RAM_STPT
                      01460 
003354 A0D8           01461         BTFSS   STATUS,C
003356 EFAF F019      01462         GOTO    CSRY_NEQ1
                      01463 
00335A 0E01           01464         MOVLW   1
00335C 6F11           01465         MOVWF   RAM_STPTH
                      01466 
00335E                01467 CSRY_NEQ1
00335E 2F05           01468         DECFSZ  LOOP,F
003360 EFA8 F019      01469         GOTO    CSRY_NEQ0
                      01470 
                      01471 
                      01472         
                      01473 
Warning[203]: Found opcode in column 1. (RETURN)
003364 0012           01474 RETURN
                      01475 ;==========================================================
                      01476 
                      01477 
                      01478 
                      01479 
                      01480 
                      01481 ;=======================        COMMANDS        ===================
003366                01482 COMMAND: 
                      01483         
                      01484 ;====== TIME ==========
                      01485 
003366 ECCB F01A      01486         CALL    TRNSDATA_CPU2GPU
                      01487 
00336A 0E02           01488         MOVLW   0X02
00336C 6F0F           01489         MOVWF   FONT
                      01490 
00336E C1C5 F10E      01491         MOVFF   SB_REG+05,CHAR          ;GT-MINUTE_TENS
003372 0E01           01492         MOVLW   .1
003374 6F13           01493         MOVWF   CURSORX
003376 0E29           01494         MOVLW   .41
003378 6F14           01495         MOVWF   CURSORY
00337A EC00 F010      01496         CALL    DUMPDATA
                      01497 
                      01498 
                      01499 
00337E C1C6 F10E      01500         MOVFF   SB_REG+06,CHAR          ;GT-MINUTE_ONES
003382 0E0B           01501         MOVLW   .11
003384 6F13           01502         MOVWF   CURSORX
003386 EC00 F010      01503         CALL    DUMPDATA
                      01504 
00338A 0E0B           01505         MOVLW   0X0B                            ;GT-COLON
00338C 6F0E           01506         MOVWF   CHAR
MPASM  5.51                    2X4_P10_SB.ASM   4-22-2020  11:55:30         PAGE 69


LOC  OBJECT CODE     LINE SOURCE TEXT
  VALUE

00338E 0E15           01507         MOVLW   .21
003390 6F13           01508         MOVWF   CURSORX
003392 EC00 F010      01509         CALL    DUMPDATA
                      01510 
                      01511 
003396 C1C7 F10E      01512         MOVFF   SB_REG+07,CHAR          ;GT-SECOND_TENS
00339A 0E1D           01513         MOVLW   .29
00339C 6F13           01514         MOVWF   CURSORX
00339E EC00 F010      01515         CALL    DUMPDATA
                      01516         
                      01517 
0033A2 C1C8 F10E      01518         MOVFF   SB_REG+08,CHAR          ;GT-SECOND_ONES
0033A6 0E29           01519         MOVLW   .41
0033A8 6F13           01520         MOVWF   CURSORX
0033AA EC00 F010      01521         CALL    DUMPDATA
                      01522 
0033AE 0E00           01523         MOVLW   0X00
0033B0 6F0F           01524         MOVWF   FONT
0033B2 C1C9 F10E      01525         MOVFF   SB_REG+09,CHAR          ;GT-MSEC
0033B6 0E35           01526         MOVLW   .53
0033B8 6F13           01527         MOVWF   CURSORX
0033BA 0E30           01528         MOVLW   .48
0033BC 6F14           01529         MOVWF   CURSORY
0033BE EC00 F010      01530         CALL    DUMPDATA
                      01531 
                      01532 
0033C2 6B6C           01533         CLRF    W_TEMP
0033C4 C1C2 F16C      01534         MOVFF   SB_REG+02,W_TEMP
                      01535 
                      01536 
0033C8 0E0A           01537         MOVLW   0X0A
0033CA 636C           01538         CPFSEQ  W_TEMP
0033CC EFEA F019      01539         GOTO    SC_GTE_DEC10
0033D0 EFFE F019      01540         GOTO    SC_LT_DEC10
                      01541 
                      01542 
                      01543 
                      01544 
                      01545 
                      01546 
                      01547 ;==== SHOTCLOCK ====
0033D4                01548 SC_GTE_DEC10
0033D4 ECCB F01A      01549         CALL    TRNSDATA_CPU2GPU
                      01550 
0033D8 0E02           01551         MOVLW   0X02
0033DA 6F0F           01552         MOVWF   FONT
                      01553 
0033DC C1C2 F10E      01554         MOVFF   SB_REG+02,CHAR          ;SC_TENS
0033E0 0E15           01555         MOVLW   .21
0033E2 6F13           01556         MOVWF   CURSORX
0033E4 0E19           01557         MOVLW   .25
0033E6 6F14           01558         MOVWF   CURSORY
0033E8 EC00 F010      01559         CALL    DUMPDATA
MPASM  5.51                    2X4_P10_SB.ASM   4-22-2020  11:55:30         PAGE 70


LOC  OBJECT CODE     LINE SOURCE TEXT
  VALUE

                      01560 
                      01561 
0033EC C1C3 F10E      01562         MOVFF   SB_REG+03,CHAR          ;SC_ONES
0033F0 0E21           01563         MOVLW   .33
0033F2 6F13           01564         MOVWF   CURSORX
0033F4 EC00 F010      01565         CALL    DUMPDATA
0033F8 EF14 F01A      01566         GOTO    CMD_SCORE
                      01567 
0033FC                01568 SC_LT_DEC10
                      01569 
0033FC 0E02           01570         MOVLW   0X02
0033FE 6F0F           01571         MOVWF   FONT
                      01572 
003400 C1C3 F10E      01573         MOVFF   SB_REG+03,CHAR          ;SC_ONES
003404 0E17           01574         MOVLW   .23
003406 6F13           01575         MOVWF   CURSORX
003408 0E19           01576         MOVLW   .25
00340A 6F14           01577         MOVWF   CURSORY
00340C EC00 F010      01578         CALL    DUMPDATA
                      01579 
                      01580 
003410 0E00           01581         MOVLW   0X00
003412 6F0F           01582         MOVWF   FONT
003414 C1C4 F10E      01583         MOVFF   SB_REG+04,CHAR          ;SC-MSEC
003418 0E23           01584         MOVLW   .35
00341A 6F13           01585         MOVWF   CURSORX
00341C 0E20           01586         MOVLW   .32
00341E 6F14           01587         MOVWF   CURSORY
003420 EC00 F010      01588         CALL    DUMPDATA
003424 EF14 F01A      01589         GOTO    CMD_SCORE
                      01590 
                      01591 
                      01592 ;==== HOME SCORE ====
003428                01593 CMD_SCORE:
003428 ECCB F01A      01594         CALL    TRNSDATA_CPU2GPU
                      01595 
                      01596 
00342C 0E01           01597         MOVLW   0X01
00342E 6F0F           01598         MOVWF   FONT
                      01599 
003430 C1CC F10E      01600         MOVFF   SB_REG+0C,CHAR          ;HS_HUNDREDS
003434 0E01           01601         MOVLW   .1
003436 6F13           01602         MOVWF   CURSORX
003438 0E00           01603         MOVLW   0
00343A 6F14           01604         MOVWF   CURSORY
00343C EC00 F010      01605         CALL    DUMPDATA
                      01606 
                      01607 
                      01608 
003440 C1CD F10E      01609         MOVFF   SB_REG+0D,CHAR          ;HS_TENS
003444 0E08           01610         MOVLW   .8
003446 6F13           01611         MOVWF   CURSORX
003448 EC00 F010      01612         CALL    DUMPDATA
MPASM  5.51                    2X4_P10_SB.ASM   4-22-2020  11:55:30         PAGE 71


LOC  OBJECT CODE     LINE SOURCE TEXT
  VALUE

                      01613 
                      01614 
00344C C1CE F10E      01615         MOVFF   SB_REG+0E,CHAR          ;HS_ONES
003450 0E10           01616         MOVLW   .16
003452 6F13           01617         MOVWF   CURSORX
003454 EC00 F010      01618         CALL    DUMPDATA
                      01619 
                      01620 ;==== GUEST SCORE ====
003458 ECCB F01A      01621         CALL    TRNSDATA_CPU2GPU
                      01622 
00345C C1CF F10E      01623         MOVFF   SB_REG+0F,CHAR          ;GS_HUNDREDS
003460 0E29           01624         MOVLW   .41
003462 6F13           01625         MOVWF   CURSORX
003464 EC00 F010      01626         CALL    DUMPDATA
                      01627 
                      01628 
003468 C1D0 F10E      01629         MOVFF   SB_REG+10,CHAR          ;GS_TENS
00346C 0E30           01630         MOVLW   .48
00346E 6F13           01631         MOVWF   CURSORX
003470 EC00 F010      01632         CALL    DUMPDATA
                      01633 
                      01634 
003474 C1D1 F10E      01635         MOVFF   SB_REG+11,CHAR          ;GS_ONES
003478 0E38           01636         MOVLW   .56
00347A 6F13           01637         MOVWF   CURSORX
00347C EC00 F010      01638         CALL    DUMPDATA
                      01639 
                      01640 
                      01641 ;       MOVLW   0X0C                            ;POSESSION
                      01642 ;       MOVWF   CHAR
                      01643 ;       MOVLW   .28
                      01644 ;       MOVWF   CURSORX
                      01645 ;       CALL    DUMPDATA
                      01646 ;
                      01647 
                      01648 
003480 B3CA           01649         BTFSC   SB_REG+0A,1
003482 EF45 F01A      01650         GOTO    SHOW_HPOS
003486 EF4D F01A      01651         GOTO    SKIP_HPOS
                      01652 
                      01653 
00348A                01654 SHOW_HPOS
00348A 0E0C           01655         MOVLW   0X0C
00348C 6F0E           01656         MOVWF   CHAR
00348E 0E1C           01657         MOVLW   .28             ;<
003490 6F13           01658         MOVWF   CURSORX
003492 EC00 F010      01659         CALL    DUMPDATA
003496 EF59 F01A      01660         GOTO    POS_END
00349A                01661 SKIP_HPOS
00349A B5CA           01662         BTFSC   SB_REG+0A,2
00349C EF52 F01A      01663         GOTO    SHOW_GPOS
0034A0 EF58 F01A      01664         GOTO    SKIP_GPOS       
                      01665 
MPASM  5.51                    2X4_P10_SB.ASM   4-22-2020  11:55:30         PAGE 72


LOC  OBJECT CODE     LINE SOURCE TEXT
  VALUE

                      01666 
0034A4                01667 SHOW_GPOS
0034A4 0E0D           01668         MOVLW   0X0D            ;>
0034A6 6F0E           01669         MOVWF   CHAR
0034A8 0E1C           01670         MOVLW   .28
0034AA 6F13           01671         MOVWF   CURSORX
0034AC EC00 F010      01672         CALL    DUMPDATA
0034B0                01673 SKIP_GPOS
0034B0 0000           01674         NOP
                      01675 
0034B2                01676 POS_END
Warning[203]: Found opcode in column 1. (NOP)
0034B2 0000           01677 NOP
                      01678 
                      01679 
                      01680 ;==== HOME text ====
                      01681 
0034B4 0E00           01682         MOVLW   0X00
0034B6 6F0F           01683         MOVWF   FONT
                      01684 
0034B8 0E12           01685         MOVLW   0X12
0034BA 6F0E           01686         MOVWF   CHAR
0034BC 0E01           01687         MOVLW   .1
0034BE 6F13           01688         MOVWF   CURSORX
0034C0 0E0F           01689         MOVLW   .15
0034C2 6F14           01690         MOVWF   CURSORY
0034C4 EC00 F010      01691         CALL    DUMPDATA
                      01692 
0034C8 0E1B           01693         MOVLW   0X1B
0034CA 6F0E           01694         MOVWF   CHAR
0034CC 0E07           01695         MOVLW   .7
0034CE 6F13           01696         MOVWF   CURSORX
0034D0 EC00 F010      01697         CALL    DUMPDATA
                      01698 
0034D4 0E14           01699         MOVLW   0X14
0034D6 6F0E           01700         MOVWF   CHAR
0034D8 0E0D           01701         MOVLW   .13
0034DA 6F13           01702         MOVWF   CURSORX
0034DC EC00 F010      01703         CALL    DUMPDATA
                      01704 
                      01705 ;       MOVLW   0X23
                      01706 ;       MOVWF   CHAR
                      01707 ;       MOVLW   .19
                      01708 ;       MOVWF   CURSORX
                      01709 ;       CALL    DUMPDATA
                      01710 
                      01711 ;==== GUEST text ====
                      01712 
0034E0 0E16           01713         MOVLW   0X16
0034E2 6F0E           01714         MOVWF   CHAR
0034E4 0E29           01715         MOVLW   .41
0034E6 6F13           01716         MOVWF   CURSORX
0034E8 0E0F           01717         MOVLW   .15
MPASM  5.51                    2X4_P10_SB.ASM   4-22-2020  11:55:30         PAGE 73


LOC  OBJECT CODE     LINE SOURCE TEXT
  VALUE

0034EA 6F14           01718         MOVWF   CURSORY
0034EC EC00 F010      01719         CALL    DUMPDATA
                      01720 
0034F0 0E22           01721         MOVLW   0X22
0034F2 6F0E           01722         MOVWF   CHAR
0034F4 0E2F           01723         MOVLW   .47
0034F6 6F13           01724         MOVWF   CURSORX
0034F8 EC00 F010      01725         CALL    DUMPDATA
                      01726 
0034FC 0E26           01727         MOVLW   0X26
0034FE 6F0E           01728         MOVWF   CHAR
003500 0E35           01729         MOVLW   .53
003502 6F13           01730         MOVWF   CURSORX
003504 EC00 F010      01731         CALL    DUMPDATA
                      01732 
                      01733 ;       MOVLW   0X27
                      01734 ;       MOVWF   CHAR
                      01735 ;       MOVLW   .59
                      01736 ;       MOVWF   CURSORX
                      01737 ;       CALL    DUMPDATA
                      01738 ;
                      01739 
                      01740 ;==== TOP text ====
                      01741 
003508 0E16           01742         MOVLW   0X16
00350A 6F0E           01743         MOVWF   CHAR
00350C 0E04           01744         MOVLW   .4
00350E 6F13           01745         MOVWF   CURSORX
003510 0E38           01746         MOVLW   .56
003512 6F14           01747         MOVWF   CURSORY
003514 EC00 F010      01748         CALL    DUMPDATA
                      01749 
003518 0E10           01750         MOVLW   0X10
00351A 6F0E           01751         MOVWF   CHAR
00351C 0E0A           01752         MOVLW   .10
00351E 6F13           01753         MOVWF   CURSORX
003520 EC00 F010      01754         CALL    DUMPDATA
                      01755 
                      01756 
003524 0E1C           01757         MOVLW   0X1C
003526 6F0E           01758         MOVWF   CHAR
003528 0E10           01759         MOVLW   .16
00352A 6F13           01760         MOVWF   CURSORX
00352C EC00 F010      01761         CALL    DUMPDATA
                      01762 
003530 0E14           01763         MOVLW   0X14
003532 6F0E           01764         MOVWF   CHAR
003534 0E16           01765         MOVLW   .22
003536 6F13           01766         MOVWF   CURSORX
003538 EC00 F010      01767         CALL    DUMPDATA
                      01768 
00353C 0E01           01769         MOVLW   0X01
00353E 6F0E           01770         MOVWF   CHAR
MPASM  5.51                    2X4_P10_SB.ASM   4-22-2020  11:55:30         PAGE 74


LOC  OBJECT CODE     LINE SOURCE TEXT
  VALUE

003540 0E1C           01771         MOVLW   .28
003542 6F13           01772         MOVWF   CURSORX
003544 EC00 F010      01773         CALL    DUMPDATA
                      01774 
                      01775 
                      01776 
                      01777 
003548 0E1F           01778         MOVLW   0X1F
00354A 6F0E           01779         MOVWF   CHAR
00354C 0E33           01780         MOVLW   .51
00354E 6F13           01781         MOVWF   CURSORX
003550 EC00 F010      01782         CALL    DUMPDATA
                      01783 
                      01784 
003554 C1CB F10E      01785         MOVFF   SB_REG+0B,CHAR          ;PERIOD
003558 0E39           01786         MOVLW   .57
00355A 6F13           01787         MOVWF   CURSORX
00355C EC00 F010      01788         CALL    DUMPDATA
                      01789 
                      01790 
                      01791 ;==== FOUL text ====
                      01792 
003560 0E15           01793         MOVLW   0X15
003562 6F0E           01794         MOVWF   CHAR
003564 0E01           01795         MOVLW   .1
003566 6F13           01796         MOVWF   CURSORX
003568 0E1C           01797         MOVLW   .28
00356A 6F14           01798         MOVWF   CURSORY
00356C EC00 F010      01799         CALL    DUMPDATA
                      01800 
                      01801 
003570 C1D2 F10E      01802         MOVFF   SB_REG+12,CHAR          ;FOUL_HOME
003574 0E09           01803         MOVLW   .9
003576 6F13           01804         MOVWF   CURSORX
003578 EC00 F010      01805         CALL    DUMPDATA
                      01806 
                      01807 
00357C 0E15           01808         MOVLW   0X15
00357E 6F0E           01809         MOVWF   CHAR
003580 0E32           01810         MOVLW   .50
003582 6F13           01811         MOVWF   CURSORX
003584 EC00 F010      01812         CALL    DUMPDATA
                      01813 
                      01814 
003588 C1D3 F10E      01815         MOVFF   SB_REG+13,CHAR          ;FOUL_GUEST
00358C 0E39           01816         MOVLW   .57
00358E 6F13           01817         MOVWF   CURSORX
003590 EC00 F010      01818         CALL    DUMPDATA
                      01819 
                      01820 ;==== TO text ====
                      01821 
                      01822 ;       MOVLW   0X23
                      01823 ;       MOVWF   CHAR
MPASM  5.51                    2X4_P10_SB.ASM   4-22-2020  11:55:30         PAGE 75


LOC  OBJECT CODE     LINE SOURCE TEXT
  VALUE

                      01824 ;       MOVLW   .1
                      01825 ;       MOVWF   CURSORX
                      01826 ;       MOVLW   .24
                      01827 ;       MOVWF   CURSORY
                      01828 ;       CALL    DUMPDATA
                      01829 ;
                      01830 ;       MOVFF   SB_REG+14,CHAR          ;TIME-OUT_HOME
                      01831 ;       MOVLW   .9
                      01832 ;       MOVWF   CURSORX
                      01833 ;       CALL    DUMPDATA
                      01834 ;
                      01835 ;
                      01836 ;       MOVLW   0X23
                      01837 ;       MOVWF   CHAR
                      01838 ;       MOVLW   .50
                      01839 ;       MOVWF   CURSORX
                      01840 ;       CALL    DUMPDATA
                      01841 ;
                      01842 ;
                      01843 ;       MOVFF   SB_REG+15,CHAR          ;TIME-OUT_GUEST
                      01844 ;       MOVLW   .57
                      01845 ;       MOVWF   CURSORX
                      01846 ;       CALL    DUMPDATA
                      01847 ;
                      01848 
                      01849 
Warning[203]: Found opcode in column 1. (RETURN)
003594 0012           01850 RETURN
                      01851 ;==========================================================
                      01852 
                      01853 
                      01854 
                      01855 
                      01856 ;******************************************************************************
                      01857 ;END OF PROGRAM
                      01858 
003596                01859 TRNSDATA_CPU2GPU:
003596 B1B8           01860         BTFSC   HEADERBIT,0
003598 EFF4 F01A      01861         GOTO    END_TRD
                      01862 
00359C 9EF2           01863         BCF             INTCON,7
00359E C180 F16C      01864         MOVFF   GPU_REG+00,W_TEMP
0035A2 0EAA           01865         MOVLW   0XAA
0035A4 636C           01866         CPFSEQ  W_TEMP
0035A6 EFF4 F01A      01867         GOTO    END_TRD
                      01868 
0035AA C181 F16C      01869         MOVFF   GPU_REG+01,W_TEMP
0035AE 0E55           01870         MOVLW   0X55
0035B0 636C           01871         CPFSEQ  W_TEMP
0035B2 EFF4 F01A      01872         GOTO    END_TRD
                      01873 
0035B6 C196 F16C      01874         MOVFF   GPU_REG+16,W_TEMP
0035BA 0EAB           01875         MOVLW   0XAB
MPASM  5.51                    2X4_P10_SB.ASM   4-22-2020  11:55:30         PAGE 76


LOC  OBJECT CODE     LINE SOURCE TEXT
  VALUE

0035BC 636C           01876         CPFSEQ  W_TEMP
0035BE EFF4 F01A      01877         GOTO    END_TRD
                      01878 
0035C2 0E14           01879         MOVLW   .20
0035C4 6FB4           01880         MOVWF   GPR_LOOP
                      01881 
0035C6 0E01           01882         MOVLW   0X01
0035C8 6EEA           01883         MOVWF   FSR0H,0
                      01884 
0035CA 0EC2           01885         MOVLW   0XC2
0035CC 6EE9           01886         MOVWF   FSR0L,0  
                      01887 
                      01888 
0035CE 0E01           01889         MOVLW   0X01
0035D0 6EE2           01890         MOVWF   FSR1H
                      01891         
0035D2 0E82           01892         MOVLW   0X82
0035D4 6EE1           01893         MOVWF   FSR1L
                      01894 
                      01895 
0035D6                01896 TDCG0
0035D6 CFE7 FFEF      01897         MOVFF   INDF1,INDF0
0035DA 0E0F           01898         MOVLW   0X0F
0035DC 16EF           01899         ANDWF   INDF0
                      01900 
0035DE 2AE9           01901         INCF    FSR0L
0035E0 2AE1           01902         INCF    FSR1L
0035E2 2FB4           01903         DECFSZ  GPR_LOOP,F
0035E4 EFEB F01A      01904         GOTO    TDCG0
                      01905 
0035E8                01906 END_TRD 
                      01907 
Warning[203]: Found opcode in column 1. (BSF)
0035E8 8EF2           01908 BSF             INTCON,7
                      01909         
Warning[203]: Found opcode in column 1. (RETURN)
0035EA 0012           01910 RETURN  
                      01911 
                      01912 
0035EC                01913 INTERRUPT:
                      01914 ;================== INIT INT ==============================
                      01915 ;INITIALIZE     INTERRUPT
0035EC CFD8 F16D      01916                 MOVFF   STATUS,STATUS_TEMP      ;SAVE STATUS REGISTER
0035F0 CFE8 F11C      01917                 MOVFF   WREG,WREG_TEMP          ;SAVE WORKING REGISTER
0035F4 CFE0 F16E      01918                 MOVFF   BSR,BSR_TEMP            ;SAVE BSR REGISTER
                      01919 ;==========================================================
                      01920         
                      01921 
0035F8 9EF2           01922         BCF             INTCON,7
0035FA AA9E           01923         BTFSS   PIR1,5
0035FC EF24 F01B      01924         GOTO    END_INT
                      01925 
003600 2AD9           01926         INCF    FSR2L
MPASM  5.51                    2X4_P10_SB.ASM   4-22-2020  11:55:30         PAGE 77


LOC  OBJECT CODE     LINE SOURCE TEXT
  VALUE

                      01927 
003602 B1B8           01928         BTFSC   HEADERBIT,0
003604 EF14 F01B      01929         GOTO    BUS_STARTED
                      01930 
003608 CFAE F1B5      01931         MOVFF   RCREG,GPREG_TEMP
00360C 9A9E           01932         BCF             PIR1,5
                      01933         
00360E 0EAA           01934         MOVLW   0XAA    ;HEADER
003610 63B5           01935         CPFSEQ  GPREG_TEMP
003612 EF24 F01B      01936         GOTO    END_INT
                      01937 
                      01938         
                      01939 
003616 81B8           01940         BSF             HEADERBIT,0
                      01941 
003618 0E01           01942         MOVLW   0X01            ;TEMP_RAM
00361A 6EDA           01943         MOVWF   FSR2H
                      01944         
00361C 0E80           01945         MOVLW   0X80
00361E 6ED9           01946         MOVWF   FSR2L
                      01947 
003620 C1B5 FFDF      01948         MOVFF   GPREG_TEMP,INDF2
003624 EF24 F01B      01949         GOTO    END_INT
                      01950 
003628                01951 BUS_STARTED
003628 CFAE F1B5      01952         MOVFF   RCREG,GPREG_TEMP
00362C 9A9E           01953         BCF             PIR1,5
                      01954 
                      01955         
00362E 0EAB           01956         MOVLW   0XAB
003630 63B5           01957         CPFSEQ  GPREG_TEMP
003632 EF22 F01B      01958         GOTO    BUS_IN
                      01959 
003636 0EAB           01960         MOVLW   0XAB
003638 CFE8 FFDF      01961         MOVFF   WREG,INDF2
00363C 81B9           01962         BSF             FOOTERBIT,0
00363E 91B8           01963         BCF             HEADERBIT,0
                      01964 
                      01965 
003640 EF24 F01B      01966         GOTO    END_INT
                      01967 
003644                01968 BUS_IN
003644 C1B5 FFDF      01969         MOVFF   GPREG_TEMP,INDF2
                      01970 
                      01971 
003648                01972 END_INT
003648 8EF2           01973         BSF             INTCON,7
                      01974 
                      01975 
                      01976 ;================== PRERET INT ============================
                      01977 ;PREPARE TO RETURN
00364A C16D FFD8      01978         MOVFF   STATUS_TEMP,STATUS      ;RESTORE STATUS REGISTER
00364E C11C FFE8      01979         MOVFF   WREG_TEMP,WREG          ;RESTORE WORKING REGISTER
MPASM  5.51                    2X4_P10_SB.ASM   4-22-2020  11:55:30         PAGE 78


LOC  OBJECT CODE     LINE SOURCE TEXT
  VALUE

003652 C16E FFE0      01980         MOVFF   BSR_TEMP,BSR            ;RESTORE BSR REGISTER
003656 CFE0 F16E      01981         MOVFF   BSR,BSR_TEMP            ;SAVE BSR REGISTER
                      01982 ;==========================================================
                      01983 
Warning[203]: Found opcode in column 1. (RETFIE)
00365A 0010           01984 RETFIE
                      01985 
                      01986 
                      01987 
Warning[205]: Found directive in column 1. (ORG)
00F000                01988 ORG 0XF000
                      01989 ;@@@@@@@@@@@@@@@@@@@@@@@@@@@@   REGISTER DATA   @@@@@@@@@@@@@@@@@@@@@
00F000                01990 DATAREG0:
00F000 0E02           01991         MOVLW   0X02
00F002 6EEA           01992         MOVWF   FSR0H,0
                      01993 
                      01994 
00F004 C112 FFE9      01995         MOVFF   REG_STPT,FSR0L
                      01996         
00F008 EC58 F078      01997         CALL    DATAREG_J1      ;P10 MODULE 03
                      01998 
00F00C 0E04           01999         MOVLW   0X04
00F00E 2712           02000         ADDWF   REG_STPT
                      02001 
00F010 C112 FFE9      02002         MOVFF   REG_STPT,FSR0L
                      02003         
00F014 EC58 F078      02004         CALL    DATAREG_J1      ;P10 MODULE 02
                      02005 
                      02006 
00F018 0E84           02007         MOVLW   0X84
00F01A 5F12           02008         SUBWF   REG_STPT
                      02009 
00F01C C112 FFE9      02010         MOVFF   REG_STPT,FSR0L
                      02011         
00F020 EC32 F078      02012         CALL    DATAREG_J0              ;P10 MODULE 01
                      02013 
00F024 0E04           02014         MOVLW   0X04
00F026 2712           02015         ADDWF   REG_STPT
                      02016 
00F028 C112 FFE9      02017         MOVFF   REG_STPT,FSR0L
                      02018         
00F02C EC32 F078      02019         CALL    DATAREG_J0      ;P10 MODULE 00
                      02020 
Warning[203]: Found opcode in column 1. (RETURN)
00F030 0012           02021 RETURN
                      02022 
                      02023 
00F032                02024 DATAREG1:
00F032 0E03           02025         MOVLW   0X03
00F034 6EEA           02026         MOVWF   FSR0H,0
                      02027 
                      02028 
00F036 C112 FFE9      02029         MOVFF   REG_STPT,FSR0L
MPASM  5.51                    2X4_P10_SB.ASM   4-22-2020  11:55:30         PAGE 79


LOC  OBJECT CODE     LINE SOURCE TEXT
  VALUE

                      02030         
00F03A ECA4 F078      02031         CALL    DATAREG_J3      ;P10 MODULE 07
                      02032 
00F03E 0E04           02033         MOVLW   0X04
00F040 2712           02034         ADDWF   REG_STPT
                      02035 
00F042 C112 FFE9      02036         MOVFF   REG_STPT,FSR0L
                      02037         
00F046 ECA4 F078      02038         CALL    DATAREG_J3      ;P10 MODULE 06
                      02039 
00F04A 0E84           02040         MOVLW   0X84
00F04C 5F12           02041         SUBWF   REG_STPT
                      02042 
00F04E C112 FFE9      02043         MOVFF   REG_STPT,FSR0L
                      02044         
00F052 EC7E F078      02045         CALL    DATAREG_J2              ;P10 MODULE 01
                      02046 
00F056 0E04           02047         MOVLW   0X04
00F058 2712           02048         ADDWF   REG_STPT
                      02049 
00F05A C112 FFE9      02050         MOVFF   REG_STPT,FSR0L
                      02051         
00F05E EC7E F078      02052         CALL    DATAREG_J2      ;P10 MODULE 00
                      02053 
                      02054 
                      02055 
Warning[203]: Found opcode in column 1. (RETURN)
00F062 0012           02056 RETURN
                      02057 
                      02058 ;****************************************************
00F064                02059 DATAREG_J0 ;MODULE0-MODULE1
                      02060 ;****************************************************
                      02061 
00F064 0E04           02062         MOVLW   0X04
00F066 6F19           02063         MOVWF   COUNT0
                      02064 
00F068                02065 DTRJ0_ST1
                      02066 
00F068 0E04           02067         MOVLW   0X04
00F06A 6F06           02068         MOVWF   DREGCOUNT
                      02069 
00F06C                02070 DTRJ00
00F06C 0E08           02071         MOVLW   0X08
00F06E 6F07           02072         MOVWF   BYTECOUNT
                      02073 
00F070 CFEF F10C      02074         MOVFF   INDF0,DATAHOLD
00F074                02075 DTRJ01
00F074 370C           02076         RLCF    DATAHOLD
                      02077         
00F076 A0D8           02078         BTFSS   STATUS,C
00F078 EF40 F078      02079         GOTO    DTRJ01_BIT0
00F07C EF43 F078      02080         GOTO    DTRJ01_BIT1
                      02081 
MPASM  5.51                    2X4_P10_SB.ASM   4-22-2020  11:55:30         PAGE 80


LOC  OBJECT CODE     LINE SOURCE TEXT
  VALUE

00F080                02082 DTRJ01_BIT0
00F080 908B           02083         DAT0_0
00F082 EF47 F078      02084         GOTO    DTRJ02
                      02085 
00F086                02086 DTRJ01_BIT1
00F086 808B           02087         DAT0_1
00F088 EF47 F078      02088         GOTO    DTRJ02
Warning[203]: Found opcode in column 1. (NOP)
00F08C 0000           02089 NOP
00F08E                02090 DTRJ02
00F08E 888B           02091         CLK0_ON
00F090 988B           02092         CLK0_OFF
00F092 2F07           02093         DECFSZ  BYTECOUNT,F
00F094 EF3A F078      02094         GOTO    DTRJ01
                      02095 
00F098 0E20           02096         MOVLW   0X20
00F09A 26E9           02097         ADDWF   FSR0L
                      02098         
00F09C 2F06           02099         DECFSZ  DREGCOUNT,F
00F09E EF36 F078      02100         GOTO    DTRJ00
                      02101 
00F0A2 0E80           02102         MOVLW   0X80
00F0A4 26E9           02103         ADDWF   FSR0L
00F0A6 2AE9           02104         INCF    FSR0L
                      02105 
00F0A8 2F19           02106         DECFSZ  COUNT0,F
00F0AA EF34 F078      02107         GOTO    DTRJ0_ST1
                      02108 
Warning[203]: Found opcode in column 1. (RETURN)
00F0AE 0012           02109 RETURN
                      02110 ;****************************************************
                      02111 
                      02112 
                      02113 
                      02114 
                      02115 ;****************************************************
00F0B0                02116 DATAREG_J1 ;MODULE2-MODULE3
                      02117 ;****************************************************
                      02118 
00F0B0 0E04           02119         MOVLW   0X04
00F0B2 6F19           02120         MOVWF   COUNT0
                      02121 
00F0B4                02122 DTRJ1_ST1
                      02123 
00F0B4 0E04           02124         MOVLW   0X04
00F0B6 6F06           02125         MOVWF   DREGCOUNT
                      02126 
00F0B8                02127 DTRJ10
00F0B8 0E08           02128         MOVLW   0X08
00F0BA 6F07           02129         MOVWF   BYTECOUNT
                      02130 
00F0BC CFEF F10C      02131         MOVFF   INDF0,DATAHOLD
00F0C0                02132 DTRJ11
MPASM  5.51                    2X4_P10_SB.ASM   4-22-2020  11:55:30         PAGE 81


LOC  OBJECT CODE     LINE SOURCE TEXT
  VALUE

00F0C0 370C           02133         RLCF    DATAHOLD
                      02134         
00F0C2 A0D8           02135         BTFSS   STATUS,C
00F0C4 EF66 F078      02136         GOTO    DTRJ11_BIT0
00F0C8 EF69 F078      02137         GOTO    DTRJ11_BIT1
                      02138 
00F0CC                02139 DTRJ11_BIT0
00F0CC 9C8C           02140         DAT1_0
00F0CE EF6D F078      02141         GOTO    DTRJ12
                      02142 
00F0D2                02143 DTRJ11_BIT1
00F0D2 8C8C           02144         DAT1_1
00F0D4 EF6D F078      02145         GOTO    DTRJ12
Warning[203]: Found opcode in column 1. (NOP)
00F0D8 0000           02146 NOP
00F0DA                02147 DTRJ12
00F0DA 888C           02148         CLK1_ON
00F0DC 988C           02149         CLK1_OFF
00F0DE 2F07           02150         DECFSZ  BYTECOUNT,F
00F0E0 EF60 F078      02151         GOTO    DTRJ11
                      02152 
00F0E4 0E20           02153         MOVLW   0X20
00F0E6 26E9           02154         ADDWF   FSR0L
                      02155         
00F0E8 2F06           02156         DECFSZ  DREGCOUNT,F
00F0EA EF5C F078      02157         GOTO    DTRJ10
                      02158 
00F0EE 0E80           02159         MOVLW   0X80
00F0F0 26E9           02160         ADDWF   FSR0L
00F0F2 2AE9           02161         INCF    FSR0L
                      02162 
00F0F4 2F19           02163         DECFSZ  COUNT0,F
00F0F6 EF5A F078      02164         GOTO    DTRJ1_ST1
                      02165 
Warning[203]: Found opcode in column 1. (RETURN)
00F0FA 0012           02166 RETURN
                      02167 ;****************************************************
                      02168 
                      02169 ;****************************************************
00F0FC                02170 DATAREG_J2 ;MODULE4-MODULE5
                      02171 ;****************************************************
                      02172 
00F0FC 0E04           02173         MOVLW   0X04
00F0FE 6F19           02174         MOVWF   COUNT0
                      02175 
00F100                02176 DTRJ2_ST1
                      02177 
00F100 0E04           02178         MOVLW   0X04
00F102 6F06           02179         MOVWF   DREGCOUNT
                      02180 
00F104                02181 DTRJ20
00F104 0E08           02182         MOVLW   0X08
00F106 6F07           02183         MOVWF   BYTECOUNT
MPASM  5.51                    2X4_P10_SB.ASM   4-22-2020  11:55:30         PAGE 82


LOC  OBJECT CODE     LINE SOURCE TEXT
  VALUE

                      02184 
00F108 CFEF F10C      02185         MOVFF   INDF0,DATAHOLD
00F10C                02186 DTRJ21
00F10C 370C           02187         RLCF    DATAHOLD
                      02188         
00F10E A0D8           02189         BTFSS   STATUS,C
00F110 EF8C F078      02190         GOTO    DTRJ21_BIT0
00F114 EF8F F078      02191         GOTO    DTRJ21_BIT1
                      02192 
00F118                02193 DTRJ21_BIT0
00F118 948A           02194         DAT2_0
00F11A EF93 F078      02195         GOTO    DTRJ22
                      02196 
00F11E                02197 DTRJ21_BIT1
00F11E 848A           02198         DAT2_1
00F120 EF93 F078      02199         GOTO    DTRJ22
Warning[203]: Found opcode in column 1. (NOP)
00F124 0000           02200 NOP
00F126                02201 DTRJ22
00F126 808A           02202         CLK2_ON
00F128 908A           02203         CLK2_OFF
00F12A 2F07           02204         DECFSZ  BYTECOUNT,F
00F12C EF86 F078      02205         GOTO    DTRJ21
                      02206 
00F130 0E20           02207         MOVLW   0X20
00F132 26E9           02208         ADDWF   FSR0L
                      02209         
00F134 2F06           02210         DECFSZ  DREGCOUNT,F
00F136 EF82 F078      02211         GOTO    DTRJ20
                      02212 
00F13A 0E80           02213         MOVLW   0X80
00F13C 26E9           02214         ADDWF   FSR0L
00F13E 2AE9           02215         INCF    FSR0L
                      02216 
00F140 2F19           02217         DECFSZ  COUNT0,F
00F142 EF80 F078      02218         GOTO    DTRJ2_ST1
                      02219 
Warning[203]: Found opcode in column 1. (RETURN)
00F146 0012           02220 RETURN
                      02221 ;****************************************************
                      02222 
                      02223 
                      02224 ;****************************************************
00F148                02225 DATAREG_J3 ;MODULE6-MODULE7
                      02226 ;****************************************************
                      02227 
00F148 0E04           02228         MOVLW   0X04
00F14A 6F19           02229         MOVWF   COUNT0
                      02230 
00F14C                02231 DTRJ3_ST1
                      02232 
00F14C 0E04           02233         MOVLW   0X04
00F14E 6F06           02234         MOVWF   DREGCOUNT
MPASM  5.51                    2X4_P10_SB.ASM   4-22-2020  11:55:30         PAGE 83


LOC  OBJECT CODE     LINE SOURCE TEXT
  VALUE

                      02235  
00F150                02236 DTRJ30
00F150 0E08           02237         MOVLW   0X08
00F152 6F07           02238         MOVWF   BYTECOUNT
                      02239 
00F154 CFEF F10C      02240         MOVFF   INDF0,DATAHOLD
00F158                02241 DTRJ31
00F158 370C           02242         RLCF    DATAHOLD
                      02243         
00F15A A0D8           02244         BTFSS   STATUS,C
00F15C EFB2 F078      02245         GOTO    DTRJ31_BIT0
00F160 EFB5 F078      02246         GOTO    DTRJ31_BIT1
                      02247 
00F164                02248 DTRJ31_BIT0
00F164 9A8A           02249         DAT3_0
00F166 EFB9 F078      02250         GOTO    DTRJ32
                      02251 
00F16A                02252 DTRJ31_BIT1
00F16A 8A8A           02253         DAT3_1
00F16C EFB9 F078      02254         GOTO    DTRJ32
Warning[203]: Found opcode in column 1. (NOP)
00F170 0000           02255 NOP
00F172                02256 DTRJ32
00F172 868A           02257         CLK3_ON
00F174 968A           02258         CLK3_OFF
00F176 2F07           02259         DECFSZ  BYTECOUNT,F
00F178 EFAC F078      02260         GOTO    DTRJ31
                      02261 
00F17C 0E20           02262         MOVLW   0X20
00F17E 26E9           02263         ADDWF   FSR0L
                      02264         
00F180 2F06           02265         DECFSZ  DREGCOUNT,F
00F182 EFA8 F078      02266         GOTO    DTRJ30
                      02267 
00F186 0E80           02268         MOVLW   0X80
00F188 26E9           02269         ADDWF   FSR0L
00F18A 2AE9           02270         INCF    FSR0L
                      02271 
00F18C 2F19           02272         DECFSZ  COUNT0,F
00F18E EFA6 F078      02273         GOTO    DTRJ3_ST1
                      02274 
Warning[203]: Found opcode in column 1. (RETURN)
00F192 0012           02275 RETURN
                      02276 ;****************************************************
                      02277 
                      02278 
                      02279 ;@@@@@@@@@@@@@@@@@@@@@@@@@@@@@@@@@@@@@@@@@@@@@@@@@@@@@@@@@@@@@@@@@@@@
                      02280 
                      02281 
                      02282 
                      02283 
                      02284 
                      02285 
MPASM  5.51                    2X4_P10_SB.ASM   4-22-2020  11:55:30         PAGE 84


LOC  OBJECT CODE     LINE SOURCE TEXT
  VALUE

                      02286 
Warning[205]: Found directive in column 1. (END)
                      02287 END
MPASM  5.51                    2X4_P10_SB.ASM   4-22-2020  11:55:30         PAGE 85


SYMBOL TABLE
  LABEL                             VALUE 

A                                 00000000
ABDEN                             00000000
ABDOVF                            00000007
ACCESS                            00000000
ACKDT                             00000005
ACKEN                             00000004
ACKSTAT                           00000006
ACQT0                             00000003
ACQT1                             00000004
ACQT2                             00000005
ADCON0                            00000FC2
ADCON1                            00000FC1
ADCON2                            00000FC0
ADCS0                             00000000
ADCS1                             00000001
ADCS2                             00000002
ADDEN                             00000003
ADEN                              00000003
ADFM                              00000007
ADIE                              00000006
ADIF                              00000006
ADIP                              00000006
ADJ_CURSORX                       0000305E
ADJ_CURSORY                       0000333E
ADON                              00000000
ADRES                             00000FC3
ADRESH                            00000FC4
ADRESL                            00000FC3
AN10                              00000001
AN11                              00000004
AN12                              00000000
AN4                               00000005
AN5                               00000000
AN6                               00000001
AN7                               00000002
AN8                               00000002
AN9                               00000003
A_0                               BCF     LATD,2,0
A_1                               BSF     LATD,2,0
BANKED                            00000001
BAUDCON                           00000FB8
BAUDCTL                           00000FB8
BCLIE                             00000003
BCLIF                             00000003
BCLIP                             00000003
BF                                00000000
BGST                              00000005
BOR                               00000000
BRG16                             00000003
BRGH                              00000002
BSR                               00000FE0
BSR_TEMP                          0000016E
BTCOUNT                           0000010A
MPASM  5.51                    2X4_P10_SB.ASM   4-22-2020  11:55:30         PAGE 86


SYMBOL TABLE
  LABEL                             VALUE 

BUS_IN                            00003644
BUS_STARTED                       00003628
BYTECOUNT                         00000107
B_0                               BCF LATD,3,0
B_1                               BSF     LATD,3,0
C                                 00000000
C1INV                             00000004
C1OUT                             00000006
C2INV                             00000005
C2OUT                             00000007
CCP1                              00000002
CCP1CON                           00000FBD
CCP1IE                            00000002
CCP1IF                            00000002
CCP1IP                            00000002
CCP1M0                            00000000
CCP1M1                            00000001
CCP1M2                            00000002
CCP1M3                            00000003
CCP1X                             00000005
CCP1Y                             00000004
CCP2CON                           00000FBA
CCP2IE                            00000000
CCP2IF                            00000000
CCP2IP                            00000000
CCP2M0                            00000000
CCP2M1                            00000001
CCP2M2                            00000002
CCP2M3                            00000003
CCP2X                             00000005
CCP2Y                             00000004
CCP2_PORTB                        00000003
CCP2_PORTC                        00000001
CCPR1                             00000FBE
CCPR1H                            00000FBF
CCPR1L                            00000FBE
CCPR2                             00000FBB
CCPR2H                            00000FBC
CCPR2L                            00000FBB
CD0S00                            0000FE28
CD0S01                            0000FE38
CD0S10                            0000FE30
CD0S11                            0000FE40
CD1S00                            0000FF28
CD1S01                            0000FF38
CD1S10                            0000FF30
CD1S11                            0000FF40
CFGS                              00000006
CHAR                              0000010E
CHS0                              00000002
CHS1                              00000003
CHS2                              00000004
CHS3                              00000005
MPASM  5.51                    2X4_P10_SB.ASM   4-22-2020  11:55:30         PAGE 87


SYMBOL TABLE
  LABEL                             VALUE 

CIS                               00000003
CK                                00000006
CKE                               00000006
CKP                               00000004
CLK0_OFF                          BCF     LATC,4,0
CLK0_ON                           BSF     LATC,4,0
CLK1_OFF                          BCF     LATD,4,0
CLK1_ON                           BSF     LATD,4,0
CLK2_OFF                          BCF     LATB,0,0
CLK2_ON                           BSF     LATB,0,0
CLK3_OFF                          BCF     LATB,3,0
CLK3_ON                           BSF     LATB,3,0
CLR_DRAM0                         0000FD52
CLR_DRAM0A                        0000FD62
CLR_DRAM0SCAN                     0000FE00
CLR_DRAM0SCAN1                    0000FE4A
CLR_DRAM0SCAN2                    0000FE4E
CLR_DRAM1                         0000FD70
CLR_DRAM1A                        0000FD80
CLR_DRAM1SCAN                     0000FF00
CLR_DRAM1SCAN1                    0000FF4A
CLR_DRAM1SCAN2                    0000FF4E
CLR_SBREG                         000000B6
CLR_SBREG0                        000000C6
CLR_TEMPRAM                       0000FD8E
CLR_TEMPRAMSCAN                   0000FDAC
CLR_TRAM0                         0000FD9E
CLR_TRAMS0                        0000FDC0
CM0                               00000000
CM1                               00000001
CM2                               00000002
CMCON                             00000FB4
CMD_SCORE                         00003428
CMIE                              00000006
CMIF                              00000006
CMIP                              00000006
COMMAND                           00003366
COUNT0                            00000119
COUNT1                            0000011A
COUNT2                            0000011B
CPB_ON_5H                         0000FF66
CPD_ON_5H                         0000FF66
CREN                              00000004
CS                                00000002
CSRC                              00000007
CSRX_GTEQ16                       0000309E
CSRX_GTEQ24                       000030C0
CSRX_GTEQ32                       000030E2
CSRX_GTEQ40                       00003104
CSRX_GTEQ48                       00003126
CSRX_GTEQ56                       00003148
CSRX_GTEQ8                        0000307C
CSRX_LTEQ16                       0000308C
MPASM  5.51                    2X4_P10_SB.ASM   4-22-2020  11:55:30         PAGE 88


SYMBOL TABLE
  LABEL                             VALUE 

CSRX_LTEQ24                       000030AE
CSRX_LTEQ32                       000030D0
CSRX_LTEQ40                       000030F2
CSRX_LTEQ48                       00003114
CSRX_LTEQ56                       00003136
CSRX_LTEQ8                        0000306E
CSRY_NEQ0                         00003350
CSRY_NEQ0_ST                      0000334C
CSRY_NEQ1                         0000335E
CURSORX                           00000113
CURSORX_TEMP                      00000116
CURSORY                           00000114
CURSORY_TEMP                      00000115
CVR0                              00000000
CVR1                              00000001
CVR2                              00000002
CVR3                              00000003
CVRCON                            00000FB5
CVREN                             00000007
CVROE                             00000006
CVRR                              00000005
CVRSS                             00000004
D                                 00000005
DAT0_0                            BCF     LATC,0,0
DAT0_1                            BSF     LATC,0,0
DAT1_0                            BCF     LATD,6,0
DAT1_1                            BSF     LATD,6,0
DAT2_0                            BCF     LATB,2,0
DAT2_1                            BSF     LATB,2,0
DAT3_0                            BCF     LATB,5,0
DAT3_1                            BSF     LATB,5,0
DATAHOLD                          0000010C
DATAREG0                          0000F000
DATAREG1                          0000F032
DATAREG_J0                        0000F064
DATAREG_J1                        0000F0B0
DATAREG_J2                        0000F0FC
DATAREG_J3                        0000F148
DC                                00000001
DC1B0                             00000004
DC1B1                             00000005
DC2B0                             00000004
DC2B1                             00000005
DDRA                              TRISA
DDRB                              TRISB
DDRC                              TRISC
DDRD                              TRISD
DDRE                              TRISE
DELAYMS                           00000101
DELAYS                            00000104
DELAYUS                           00000100
DELAY_MS                          0000FD24
DELAY_ONEMS                       0000FD12
MPASM  5.51                    2X4_P10_SB.ASM   4-22-2020  11:55:30         PAGE 89


SYMBOL TABLE
  LABEL                             VALUE 

DELAY_ONESEC                      0000FD32
DELAY_SEC                         0000FD44
DELAY_US                          0000FD00
DISPLAY                           00001000
DMPF0_0                           00002C18
DMPF0_1                           00002C24
DMPF1_0                           00002D18
DMPF1_1                           00002D24
DMPF2_0                           00002E18
DMPF2_1                           00002E24
DMP_F00                           00002046
DMP_F10                           00002088
DMP_F20                           000020CA
DMP_FONT00                        0000202C
DMP_FONT01                        0000206E
DMP_FONT02                        000020B0
DMP_FONT03                        00002028
DONE                              00000001
DRAM0                             00000200
DRAM1                             00000300
DREGCOUNT                         00000106
DTRJ00                            0000F06C
DTRJ01                            0000F074
DTRJ01_BIT0                       0000F080
DTRJ01_BIT1                       0000F086
DTRJ02                            0000F08E
DTRJ0_ST1                         0000F068
DTRJ10                            0000F0B8
DTRJ11                            0000F0C0
DTRJ11_BIT0                       0000F0CC
DTRJ11_BIT1                       0000F0D2
DTRJ12                            0000F0DA
DTRJ1_ST1                         0000F0B4
DTRJ20                            0000F104
DTRJ21                            0000F10C
DTRJ21_BIT0                       0000F118
DTRJ21_BIT1                       0000F11E
DTRJ22                            0000F126
DTRJ2_ST1                         0000F100
DTRJ30                            0000F150
DTRJ31                            0000F158
DTRJ31_BIT0                       0000F164
DTRJ31_BIT1                       0000F16A
DTRJ32                            0000F172
DTRJ3_ST1                         0000F14C
DUMPDATA                          00002000
DUMP_FONT00                       00002C00
DUMP_FONT01                       00002D00
DUMP_FONT02                       00002E00
D_A                               00000005
D_NOT_A                           00000005
EBTR0_ON_7L                       0000FF66
EBTR1_ON_7L                       0000FF66
MPASM  5.51                    2X4_P10_SB.ASM   4-22-2020  11:55:30         PAGE 90


SYMBOL TABLE
  LABEL                             VALUE 

EBTR2_ON_7L                       0000FF66
EBTR3_ON_7L                       0000FF66
ECCP1AS                           00000FB6
ECCPAS0                           00000004
ECCPAS1                           00000005
ECCPAS2                           00000006
ECCPASE                           00000007
EEADR                             00000FA9
EEADRH                            00000FAA
EECON1                            00000FA6
EECON2                            00000FA7
EEDATA                            00000FA8
EEIE                              00000004
EEIF                              00000004
EEIP                              00000004
EEPGD                             00000007
END_INT                           00003648
END_TRD                           000035E8
EXAMPLE                           00000000
FAST                              00000001
FERR                              00000002
FONT                              0000010F
FONT0_0                           00006000
FONT0_1                           00006100
FONT0_10                          00007100
FONT0_11                          00007120
FONT0_12                          00007140
FONT0_13                          00007160
FONT0_14                          00007180
FONT0_15                          000071A0
FONT0_16                          000071C0
FONT0_17                          000071E0
FONT0_18                          00007200
FONT0_19                          00007220
FONT0_1A                          00007240
FONT0_1B                          00007260
FONT0_1C                          00007280
FONT0_1D                          000072A0
FONT0_1E                          000072C0
FONT0_1F                          000072E0
FONT0_2                           00006200
FONT0_20                          00007300
FONT0_21                          00007320
FONT0_22                          00007340
FONT0_23                          00007360
FONT0_24                          00007380
FONT0_25                          000073A0
FONT0_26                          000073C0
FONT0_27                          000073E0
FONT0_28                          00007400
FONT0_29                          00007420
FONT0_3                           00006300
FONT0_4                           00006400
MPASM  5.51                    2X4_P10_SB.ASM   4-22-2020  11:55:30         PAGE 91


SYMBOL TABLE
  LABEL                             VALUE 

FONT0_5                           00006500
FONT0_6                           00006600
FONT0_7                           00006700
FONT0_8                           00006800
FONT0_9                           00006900
FONT0_A                           00007000
FONT0_B                           00007020
FONT0_C                           00007040
FONT0_D                           00007060
FONT0_E                           00007080
FONT0_F                           000070A0
FONT1_0                           00006022
FONT1_1                           00006122
FONT1_2                           00006222
FONT1_3                           00006322
FONT1_4                           00006422
FONT1_5                           00006522
FONT1_6                           00006622
FONT1_7                           00006722
FONT1_8                           00006822
FONT1_9                           00006922
FONT1_A                           00006A00
FONT1_B                           00006B00
FONT1_C                           00006C00
FONT1_D                           00006D00
FONT2_0                           00006052
FONT2_1                           00006152
FONT2_2                           00006252
FONT2_3                           00006352
FONT2_4                           00006452
FONT2_5                           00006552
FONT2_6                           00006652
FONT2_7                           00006752
FONT2_8                           00006852
FONT2_9                           00006952
FONT2_A                           00006A30
FONT2_B                           00006B30
FOOTERBIT                         000001B9
FREE                              00000004
FSR0                              00000000
FSR0H                             00000FEA
FSR0L                             00000FE9
FSR1                              00000001
FSR1H                             00000FE2
FSR1L                             00000FE1
FSR2                              00000002
FSR2H                             00000FDA
FSR2L                             00000FD9
GCEN                              00000007
GIE                               00000007
GIEH                              00000007
GIEL                              00000006
GIE_GIEH                          00000007
MPASM  5.51                    2X4_P10_SB.ASM   4-22-2020  11:55:30         PAGE 92


SYMBOL TABLE
  LABEL                             VALUE 

GO                                00000001
GO_DONE                           00000001
GO_NOT_DONE                       00000001
GPREG_TEMP                        000001B5
GPR_LOOP                          000001B4
GPSTARTBIT                        000001B7
GPU_REG                           00000180
GP_COUNTER                        000001B6
HEADERBIT                         000001B8
HEIGHT                            00000118
HLVDCON                           00000FD2
HLVDEN                            00000004
HLVDIE                            00000002
HLVDIF                            00000002
HLVDIN                            00000005
HLVDIP                            00000002
HLVDL0                            00000000
HLVDL1                            00000001
HLVDL2                            00000002
HLVDL3                            00000003
IBF                               00000007
IBOV                              00000005
IDLEN                             00000007
INDF0                             00000FEF
INDF1                             00000FE7
INDF2                             00000FDF
INIT                              00000032
INT0                              00000000
INT0E                             00000004
INT0F                             00000001
INT0IE                            00000004
INT0IF                            00000001
INT1                              00000001
INT1E                             00000003
INT1F                             00000000
INT1IE                            00000003
INT1IF                            00000000
INT1IP                            00000006
INT1P                             00000006
INT2                              00000002
INT2E                             00000004
INT2F                             00000001
INT2IE                            00000004
INT2IF                            00000001
INT2IP                            00000007
INT2P                             00000007
INTCON                            00000FF2
INTCON2                           00000FF1
INTCON3                           00000FF0
INTEDG0                           00000006
INTEDG1                           00000005
INTEDG2                           00000004
INTERRUPT                         000035EC
MPASM  5.51                    2X4_P10_SB.ASM   4-22-2020  11:55:30         PAGE 93


SYMBOL TABLE
  LABEL                             VALUE 

INTSRC                            00000007
IOFS                              00000002
IPEN                              00000007
IPR1                              00000F9F
IPR2                              00000FA2
IRCF0                             00000004
IRCF1                             00000005
IRCF2                             00000006
IRVST                             00000005
IVRST                             00000005
KBI0                              00000004
KBI1                              00000005
KBI2                              00000006
KBI3                              00000007
LAT0_OFF                          BCF     LATC,5,0
LAT0_ON                           BSF     LATC,5,0
LAT1_OFF                          BCF     LATD,5,0
LAT1_ON                           BSF     LATD,5,0
LAT2_OFF                          BCF     LATB,1,0
LAT2_ON                           BSF     LATB,1,0
LAT3_OFF                          BCF     LATB,4,0
LAT3_ON                           BSF     LATB,4,0
LATA                              00000F89
LATA0                             00000000
LATA1                             00000001
LATA2                             00000002
LATA3                             00000003
LATA4                             00000004
LATA5                             00000005
LATA6                             00000006
LATA7                             00000007
LATB                              00000F8A
LATB0                             00000000
LATB1                             00000001
LATB2                             00000002
LATB3                             00000003
LATB4                             00000004
LATB5                             00000005
LATB6                             00000006
LATB7                             00000007
LATC                              00000F8B
LATC0                             00000000
LATC1                             00000001
LATC2                             00000002
LATC3                             00000003
LATC4                             00000004
LATC5                             00000005
LATC6                             00000006
LATC7                             00000007
LATD                              00000F8C
LATD0                             00000000
LATD1                             00000001
LATD2                             00000002
MPASM  5.51                    2X4_P10_SB.ASM   4-22-2020  11:55:30         PAGE 94


SYMBOL TABLE
  LABEL                             VALUE 

LATD3                             00000003
LATD4                             00000004
LATD5                             00000005
LATD6                             00000006
LATD7                             00000007
LATE                              00000F8D
LATE0                             00000000
LATE1                             00000001
LATE2                             00000002
LINESCAN                          0000010D
LOGO_DELAY                        000001BC
LOGO_LOOP0                        000001BA
LOGO_LOOP1                        000001BB
LOOP                              00000105
LVDCON                            00000FD2
LVDEN                             00000004
LVDIE                             00000002
LVDIF                             00000002
LVDIN                             00000005
LVDIP                             00000002
LVDL0                             00000000
LVDL1                             00000001
LVDL2                             00000002
LVDL3                             00000003
LVV0                              00000000
LVV1                              00000001
LVV2                              00000002
LVV3                              00000003
MAIN                              000000AE
MCLR                              00000003
MOV_TEMPRAM2DRAM                  00003000
MOV_TR2DR0                        0000301C
MOV_TR2DR1                        00003054
MSEC                              0000FD16
MSEC0                             0000FD26
N                                 00000004
NOT_A                             00000005
NOT_ADDRESS                       00000005
NOT_BOR                           00000000
NOT_CS                            00000002
NOT_DONE                          00000001
NOT_MCLR                          00000003
NOT_PD                            00000002
NOT_POR                           00000001
NOT_RBPU                          00000007
NOT_RD                            00000000
NOT_RI                            00000004
NOT_SS                            00000005
NOT_T1SYNC                        00000002
NOT_T3SYNC                        00000002
NOT_TO                            00000003
NOT_W                             00000002
NOT_WR                            00000001
MPASM  5.51                    2X4_P10_SB.ASM   4-22-2020  11:55:30         PAGE 95


SYMBOL TABLE
  LABEL                             VALUE 

NOT_WRITE                         00000002
OBF                               00000006
OERR                              00000001
OE_OFF                            BCF     LATD,7,0
OE_ON                             BSF     LATD,7,0
OSCCON                            00000FD3
OSCFIE                            00000007
OSCFIF                            00000007
OSCFIP                            00000007
OSCTUNE                           00000F9B
OSTS                              00000003
OV                                00000003
P                                 00000004
P1B                               00000005
P1C                               00000006
P1D                               00000007
P1M0                              00000006
P1M1                              00000007
PC                                00000FF9
PCFG0                             00000000
PCFG1                             00000001
PCFG2                             00000002
PCFG3                             00000003
PCL                               00000FF9
PCLATH                            00000FFA
PCLATH_TEMP                       0000016F
PCLATU                            00000FFB
PD                                00000002
PDC0                              00000000
PDC1                              00000001
PDC2                              00000002
PDC3                              00000003
PDC4                              00000004
PDC5                              00000005
PDC6                              00000006
PEIE                              00000006
PEIE_GIEL                         00000006
PEN                               00000002
PGC                               00000006
PGD                               00000007
PGM                               00000005
PIE1                              00000F9D
PIE2                              00000FA0
PIR1                              00000F9E
PIR2                              00000FA1
PLLEN                             00000006
PLUSW0                            00000FEB
PLUSW1                            00000FE3
PLUSW2                            00000FDB
POINTER                           0000010B
POR                               00000001
PORTA                             00000F80
PORTB                             00000F81
MPASM  5.51                    2X4_P10_SB.ASM   4-22-2020  11:55:30         PAGE 96


SYMBOL TABLE
  LABEL                             VALUE 

PORTC                             00000F82
PORTD                             00000F83
PORTE                             00000F84
POSTDEC0                          00000FED
POSTDEC1                          00000FE5
POSTDEC2                          00000FDD
POSTINC0                          00000FEE
POSTINC1                          00000FE6
POSTINC2                          00000FDE
POS_END                           000034B2
PR2                               00000FCB
PREINC0                           00000FEC
PREINC1                           00000FE4
PREINC2                           00000FDC
PROD                              00000FF3
PRODH                             00000FF4
PRODL                             00000FF3
PRSEN                             00000007
PSA                               00000003
PSP0                              00000000
PSP1                              00000001
PSP2                              00000002
PSP3                              00000003
PSP4                              00000004
PSP5                              00000005
PSP6                              00000006
PSP7                              00000007
PSPIE                             00000007
PSPIF                             00000007
PSPIP                             00000007
PSPMODE                           00000004
PSSAC0                            00000002
PSSAC1                            00000003
PSSBD0                            00000000
PSSBD1                            00000001
PWM1CON                           00000FB7
R                                 00000002
RA0                               00000000
RA1                               00000001
RA2                               00000002
RA3                               00000003
RA4                               00000004
RA5                               00000005
RA6                               00000006
RA7                               00000007
RAM_STPT                          00000110
RAM_STPTH                         00000111
RB0                               00000000
RB1                               00000001
RB2                               00000002
RB3                               00000003
RB4                               00000004
RB5                               00000005
MPASM  5.51                    2X4_P10_SB.ASM   4-22-2020  11:55:30         PAGE 97


SYMBOL TABLE
  LABEL                             VALUE 

RB6                               00000006
RB7                               00000007
RBIE                              00000003
RBIF                              00000000
RBIP                              00000000
RBPU                              00000007
RC0                               00000000
RC1                               00000001
RC2                               00000002
RC3                               00000003
RC4                               00000004
RC5                               00000005
RC6                               00000006
RC7                               00000007
RCEN                              00000003
RCIDL                             00000006
RCIE                              00000005
RCIF                              00000005
RCIP                              00000005
RCMT                              00000006
RCON                              00000FD0
RCREG                             00000FAE
RCSTA                             00000FAB
RD                                00000000
RD0                               00000000
RD1                               00000001
RD16                              00000007
RD2                               00000002
RD3                               00000003
RD4                               00000004
RD5                               00000005
RD6                               00000006
RD7                               00000007
RE0                               00000000
RE1                               00000001
RE2                               00000002
RE3                               00000003
REG_STPT                          00000112
RI                                00000004
RSEN                              00000001
RX                                00000007
RX9                               00000006
RX9D                              00000000
RXCKP                             00000005
RXDTP                             00000005
R_NOT_W                           00000002
R_W                               00000002
S                                 00000003
SBOREN                            00000006
SB_REG                            000001C0
SCK                               00000003
SCKP                              00000004
SCL                               00000003
MPASM  5.51                    2X4_P10_SB.ASM   4-22-2020  11:55:30         PAGE 98


SYMBOL TABLE
  LABEL                             VALUE 

SCS0                              00000000
SCS1                              00000001
SC_GTE_DEC10                      000033D4
SC_LT_DEC10                       000033FC
SDA                               00000004
SDI                               00000004
SDO                               00000005
SEC                               00000103
SEC0                              0000FD36
SEC1                              0000FD46
SEN                               00000000
SENDB                             00000003
SHOW_GPOS                         000034A4
SHOW_HPOS                         0000348A
SKIP_GPOS                         000034B0
SKIP_HPOS                         0000349A
SMP                               00000007
SP0                               00000000
SP1                               00000001
SP2                               00000002
SP3                               00000003
SP4                               00000004
SPBRG                             00000FAF
SPBRGH                            00000FB0
SPEN                              00000007
SPI_DATAIN                        00000102
SREN                              00000005
SS                                00000005
SSPADD                            00000FC8
SSPBUF                            00000FC9
SSPCON1                           00000FC6
SSPCON2                           00000FC5
SSPEN                             00000005
SSPIE                             00000003
SSPIF                             00000003
SSPIP                             00000003
SSPM0                             00000000
SSPM1                             00000001
SSPM2                             00000002
SSPM3                             00000003
SSPOV                             00000006
SSPSTAT                           00000FC7
STATUS                            00000FD8
STATUS_TEMP                       0000016D
STKFUL                            00000007
STKOVF                            00000007
STKPTR                            00000FFC
STKPTR0                           00000000
STKPTR1                           00000001
STKPTR2                           00000002
STKPTR3                           00000003
STKPTR4                           00000004
STKUNF                            00000006
MPASM  5.51                    2X4_P10_SB.ASM   4-22-2020  11:55:30         PAGE 99


SYMBOL TABLE
  LABEL                             VALUE 

SWDTE                             00000000
SWDTEN                            00000000
SYNC                              00000004
T016BIT                           00000006
T08BIT                            00000006
T0CKI                             00000004
T0CON                             00000FD5
T0CS                              00000005
T0IE                              00000005
T0IF                              00000002
T0PS0                             00000000
T0PS1                             00000001
T0PS2                             00000002
T0SE                              00000004
T13CKI                            00000000
T1CKI                             00000000
T1CKPS0                           00000004
T1CKPS1                           00000005
T1CON                             00000FCD
T1OSCEN                           00000003
T1OSI                             00000001
T1OSO                             00000000
T1RUN                             00000006
T1SYNC                            00000002
T2CKPS0                           00000000
T2CKPS1                           00000001
T2CON                             00000FCA
T2OUTPS0                          00000003
T2OUTPS1                          00000004
T2OUTPS2                          00000005
T2OUTPS3                          00000006
T3CCP1                            00000003
T3CCP2                            00000006
T3CKPS0                           00000004
T3CKPS1                           00000005
T3CON                             00000FB1
T3SYNC                            00000002
TABLAT                            00000FF5
TBLPTR                            00000FF6
TBLPTRH                           00000FF7
TBLPTRL                           00000FF6
TBLPTRU                           00000FF8
TDCG0                             000035D6
TEMPRAM                           00000120
TMR0                              00000FD6
TMR0H                             00000FD7
TMR0IE                            00000005
TMR0IF                            00000002
TMR0IP                            00000002
TMR0L                             00000FD6
TMR0ON                            00000007
TMR1                              00000FCE
TMR1CS                            00000001
MPASM  5.51                    2X4_P10_SB.ASM   4-22-2020  11:55:30         PAGE 100


SYMBOL TABLE
  LABEL                             VALUE 

TMR1H                             00000FCF
TMR1IE                            00000000
TMR1IF                            00000000
TMR1IP                            00000000
TMR1L                             00000FCE
TMR1ON                            00000000
TMR2                              00000FCC
TMR2IE                            00000001
TMR2IF                            00000001
TMR2IP                            00000001
TMR2ON                            00000002
TMR3                              00000FB2
TMR3CS                            00000001
TMR3H                             00000FB3
TMR3IE                            00000001
TMR3IF                            00000001
TMR3IP                            00000001
TMR3L                             00000FB2
TMR3ON                            00000000
TO                                00000003
TOS                               00000FFD
TOSH                              00000FFE
TOSL                              00000FFD
TOSU                              00000FFF
TRAMCOUNT                         00000108
TRAMSHIFT                         00003200
TRAM_SHIFT                        00000109
TRISA                             00000F92
TRISA0                            00000000
TRISA1                            00000001
TRISA2                            00000002
TRISA3                            00000003
TRISA4                            00000004
TRISA5                            00000005
TRISA6                            00000006
TRISA7                            00000007
TRISB                             00000F93
TRISB0                            00000000
TRISB1                            00000001
TRISB2                            00000002
TRISB3                            00000003
TRISB4                            00000004
TRISB5                            00000005
TRISB6                            00000006
TRISB7                            00000007
TRISC                             00000F94
TRISC0                            00000000
TRISC1                            00000001
TRISC2                            00000002
TRISC3                            00000003
TRISC4                            00000004
TRISC5                            00000005
TRISC6                            00000006
MPASM  5.51                    2X4_P10_SB.ASM   4-22-2020  11:55:30         PAGE 101


SYMBOL TABLE
  LABEL                             VALUE 

TRISC7                            00000007
TRISD                             00000F95
TRISD0                            00000000
TRISD1                            00000001
TRISD2                            00000002
TRISD3                            00000003
TRISD4                            00000004
TRISD5                            00000005
TRISD6                            00000006
TRISD7                            00000007
TRISE                             00000F96
TRISE0                            00000000
TRISE1                            00000001
TRISE2                            00000002
TRMT                              00000001
TRNSDATA_CPU2GPU                  00003596
TRS0                              0000322E
TRS1                              00003272
TRS2                              000032B6
TRS3                              000032FA
TUN0                              00000000
TUN1                              00000001
TUN2                              00000002
TUN3                              00000003
TUN4                              00000004
TX                                00000006
TX9                               00000006
TX9D                              00000000
TXCKP                             00000004
TXEN                              00000005
TXIE                              00000004
TXIF                              00000004
TXIP                              00000004
TXREG                             00000FAD
TXSTA                             00000FAC
UA                                00000001
USEC                              0000FD02
VCFG0                             00000004
VCFG1                             00000005
VDIRMAG                           00000007
VPP                               00000003
W                                 00000000
WCOL                              00000007
WDTCON                            00000FD1
WIDTH                             00000117
WR                                00000001
WREG                              00000FE8
WREG_TEMP                         0000011C
WREN                              00000002
WRERR                             00000003
WUE                               00000001
W_TEMP                            0000016C
Z                                 00000002
MPASM  5.51                    2X4_P10_SB.ASM   4-22-2020  11:55:30         PAGE 102


SYMBOL TABLE
  LABEL                             VALUE 

_BOREN_NOSLP_2L                   000000FD
_BOREN_OFF_2L                     000000F9
_BOREN_ON_2L                      000000FB
_BOREN_SBORDIS_2L                 000000FF
_BORV_0_2L                        000000E7
_BORV_1_2L                        000000EF
_BORV_2_2L                        000000F7
_BORV_3_2L                        000000FF
_CCP2MX_PORTBE_3H                 000000FE
_CCP2MX_PORTC_3H                  000000FF
_CONFIG1H                         00300001
_CONFIG2H                         00300003
_CONFIG2L                         00300002
_CONFIG3H                         00300005
_CONFIG4L                         00300006
_CONFIG5H                         00300009
_CONFIG5L                         00300008
_CONFIG6H                         0030000B
_CONFIG6L                         0030000A
_CONFIG7H                         0030000D
_CONFIG7L                         0030000C
_CP0_OFF_5L                       000000FF
_CP0_ON_5L                        000000FE
_CP1_OFF_5L                       000000FF
_CP1_ON_5L                        000000FD
_CP2_OFF_5L                       000000FF
_CP2_ON_5L                        000000FB
_CP3_OFF_5L                       000000FF
_CP3_ON_5L                        000000F7
_CPB_OFF_5H                       000000FF
_CPB_ON_5H                        000000BF
_CPD_OFF_5H                       000000FF
_CPD_ON_5H                        0000007F
_DEBUG_OFF_4L                     000000FF
_DEBUG_ON_4L                      0000007F
_DEVID1                           003FFFFE
_DEVID2                           003FFFFF
_EBTR0_OFF_7L                     000000FF
_EBTR0_ON_7L                      000000FE
_EBTR1_OFF_7L                     000000FF
_EBTR1_ON_7L                      000000FD
_EBTR2_OFF_7L                     000000FF
_EBTR2_ON_7L                      000000FB
_EBTR3_OFF_7L                     000000FF
_EBTR3_ON_7L                      000000F7
_EBTRB_OFF_7H                     000000FF
_EBTRB_ON_7H                      000000BF
_FCMEN_OFF_1H                     000000BF
_FCMEN_ON_1H                      000000FF
_IDLOC0                           00200000
_IDLOC1                           00200001
_IDLOC2                           00200002
_IDLOC3                           00200003
MPASM  5.51                    2X4_P10_SB.ASM   4-22-2020  11:55:30         PAGE 103


SYMBOL TABLE
  LABEL                             VALUE 

_IDLOC4                           00200004
_IDLOC5                           00200005
_IDLOC6                           00200006
_IDLOC7                           00200007
_IESO_OFF_1H                      0000007F
_IESO_ON_1H                       000000FF
_LPT1OSC_OFF_3H                   000000FB
_LPT1OSC_ON_3H                    000000FF
_LVP_OFF_4L                       000000FB
_LVP_ON_4L                        000000FF
_MCLRE_OFF_3H                     0000007F
_MCLRE_ON_3H                      000000FF
_OSC_ECIO6_1H                     000000F5
_OSC_EC_1H                        000000F4
_OSC_HSPLL_1H                     000000F6
_OSC_HS_1H                        000000F2
_OSC_INTIO67_1H                   000000F8
_OSC_INTIO7_1H                    000000F9
_OSC_LP_1H                        000000F0
_OSC_RCIO6_1H                     000000F7
_OSC_RC_1H                        000000F3
_OSC_XT_1H                        000000F1
_PBADEN_OFF_3H                    000000FD
_PBADEN_ON_3H                     000000FF
_PWRT_OFF_2L                      000000FF
_PWRT_ON_2L                       000000FE
_STVREN_OFF_4L                    000000FE
_STVREN_ON_4L                     000000FF
_WDTPS_1024_2H                    000000F5
_WDTPS_128_2H                     000000EF
_WDTPS_16384_2H                   000000FD
_WDTPS_16_2H                      000000E9
_WDTPS_1_2H                       000000E1
_WDTPS_2048_2H                    000000F7
_WDTPS_256_2H                     000000F1
_WDTPS_2_2H                       000000E3
_WDTPS_32768_2H                   000000FF
_WDTPS_32_2H                      000000EB
_WDTPS_4096_2H                    000000F9
_WDTPS_4_2H                       000000E5
_WDTPS_512_2H                     000000F3
_WDTPS_64_2H                      000000ED
_WDTPS_8192_2H                    000000FB
_WDTPS_8_2H                       000000E7
_WDT_OFF_2H                       000000FE
_WDT_ON_2H                        000000FF
_WRT0_OFF_6L                      000000FF
_WRT0_ON_6L                       000000FE
_WRT1_OFF_6L                      000000FF
_WRT1_ON_6L                       000000FD
_WRT2_OFF_6L                      000000FF
_WRT2_ON_6L                       000000FB
_WRT3_OFF_6L                      000000FF
MPASM  5.51                    2X4_P10_SB.ASM   4-22-2020  11:55:30         PAGE 104


SYMBOL TABLE
  LABEL                             VALUE 

_WRT3_ON_6L                       000000F7
_WRTB_OFF_6H                      000000FF
_WRTB_ON_6H                       000000BF
_WRTC_OFF_6H                      000000FF
_WRTC_ON_6H                       000000DF
_WRTD_OFF_6H                      000000FF
_WRTD_ON_6H                       0000007F
_XINST_OFF_4L                     000000BF
_XINST_ON_4L                      000000FF
__18F4620                         00000001
__DEBUG                           1


MEMORY USAGE MAP ('X' = Used,  '-' = Unused)

0000 : XXXX----XXXXXX-- --------XXXXXXXX XXXXXXXXXXXXXXXX XXXXXXXXXXXXXXXX
0040 : XXXXXXXXXXXXXXXX XXXXXXXXXXXXXXXX XXXXXXXXXXXXXXXX XXXXXXXXXXXXXXXX
0080 : XXXXXXXXXXXXXXXX XXXXXXXXXXXXXXXX XXXXXXXXXXXXXXXX XXXXXXXXXXXXXXXX
00C0 : XXXXXXXXXXXXXXXX XXXX------------ ---------------- ----------------
1000 : XXXXXXXXXXXXXXXX XXXXXXXXXXXXXXXX XXXXXXXXXXXXXXXX XXXXXXXXXXXXXXXX
1040 : XXXXXXXXXXXXXXXX XXXXXXXXXXXXXXXX XXXXXXXXXXXXXXXX XXXXXXXXXXXXXXXX
1080 : XXXXXXXXXXXXXXXX XXXXXXXXXXXXXXXX XXXXXXXXXXXXXXXX XXXXXXXXXXXXXXXX
10C0 : XXXXXXXXXXXXXXXX XXXXXXXXXXXXXXXX XXXXXXXXXXXXXXXX XXXXXXXXXXXXXXXX
1100 : XXXXXXXXXXXXXXXX XX-------------- ---------------- ----------------
2000 : XXXXXXXXXXXXXXXX XXXXXXXXXXXXXXXX XXXXXXXXXXXXXXXX XXXXXXXXXXXXXXXX
2040 : XXXXXXXXXXXXXXXX XXXXXXXXXXXXXXXX XXXXXXXXXXXXXXXX XXXXXXXXXXXXXXXX
2080 : XXXXXXXXXXXXXXXX XXXXXXXXXXXXXXXX XXXXXXXXXXXXXXXX XXXXXXXXXXXXXXXX
20C0 : XXXXXXXXXXXXXXXX XXXXXXXXXXXXXXXX XXXXXXXXXXXXXXXX XXXXXXXXXXXXXX--
2C00 : XXXXXXXXXXXXXXXX XXXXXXXXXXXXXXXX XXXXXXXXXXXXXXXX XXXXXXXXXXXXXXXX
2C40 : XXXXXXXXXXXXXXXX XXXXXXXXXXXXXXXX XXXXXXXXXXXXXXXX XXXXXXXXXXXXXXXX
2C80 : XXXXXXXXXXXXXXXX XXXXXXXXXXXXXXXX XXXXXXXXXXXXXXXX XXXXXXXXXXXXXXXX
2CC0 : XXXXXXXXXXXXXXXX ---------------- ---------------- ----------------
2D00 : XXXXXXXXXXXXXXXX XXXXXXXXXXXXXXXX XXXXXXXXXXXXXXXX XXXXXXXXXXXXXXXX
2D40 : XXXXXXXXXXXXXXXX XXXXXXXXXXXXXX-- ---------------- ----------------
2E00 : XXXXXXXXXXXXXXXX XXXXXXXXXXXXXXXX XXXXXXXXXXXXXXXX XXXXXXXXXXXXXXXX
2E40 : XXXXXXXXXXXXXXXX XXXXXX---------- ---------------- ----------------
3000 : XXXXXXXXXXXXXXXX XXXXXXXXXXXXXXXX XXXXXXXXXXXXXXXX XXXXXXXXXXXXXXXX
3040 : XXXXXXXXXXXXXXXX XXXXXXXXXXXXXXXX XXXXXXXXXXXXXXXX XXXXXXXXXXXXXXXX
3080 : XXXXXXXXXXXXXXXX XXXXXXXXXXXXXXXX XXXXXXXXXXXXXXXX XXXXXXXXXXXXXXXX
30C0 : XXXXXXXXXXXXXXXX XXXXXXXXXXXXXXXX XXXXXXXXXXXXXXXX XXXXXXXXXXXXXXXX
3100 : XXXXXXXXXXXXXXXX XXXXXXXXXXXXXXXX XXXXXXXXXXXXXXXX XXXXXXXXXXXXXXXX
3140 : XXXXXXXXXXXXXXXX XXXXXXXXXXXX---- ---------------- ----------------
3200 : XXXXXXXXXXXXXXXX XXXXXXXXXXXXXXXX XXXXXXXXXXXXXXXX XXXXXXXXXXXXXXXX
3240 : XXXXXXXXXXXXXXXX XXXXXXXXXXXXXXXX XXXXXXXXXXXXXXXX XXXXXXXXXXXXXXXX
3280 : XXXXXXXXXXXXXXXX XXXXXXXXXXXXXXXX XXXXXXXXXXXXXXXX XXXXXXXXXXXXXXXX
32C0 : XXXXXXXXXXXXXXXX XXXXXXXXXXXXXXXX XXXXXXXXXXXXXXXX XXXXXXXXXXXXXXXX
MPASM  5.51                    2X4_P10_SB.ASM   4-22-2020  11:55:30         PAGE 105


MEMORY USAGE MAP ('X' = Used,  '-' = Unused)


3300 : XXXXXXXXXXXXXXXX XXXXXXXXXXXXXXXX XXXXXXXXXXXXXXXX XXXXXXXXXXXXXXXX
3340 : XXXXXXXXXXXXXXXX XXXXXXXXXXXXXXXX XXXXXXXXXXXXXXXX XXXXXXXXXXXXXXXX
3380 : XXXXXXXXXXXXXXXX XXXXXXXXXXXXXXXX XXXXXXXXXXXXXXXX XXXXXXXXXXXXXXXX
33C0 : XXXXXXXXXXXXXXXX XXXXXXXXXXXXXXXX XXXXXXXXXXXXXXXX XXXXXXXXXXXXXXXX
3400 : XXXXXXXXXXXXXXXX XXXXXXXXXXXXXXXX XXXXXXXXXXXXXXXX XXXXXXXXXXXXXXXX
3440 : XXXXXXXXXXXXXXXX XXXXXXXXXXXXXXXX XXXXXXXXXXXXXXXX XXXXXXXXXXXXXXXX
3480 : XXXXXXXXXXXXXXXX XXXXXXXXXXXXXXXX XXXXXXXXXXXXXXXX XXXXXXXXXXXXXXXX
34C0 : XXXXXXXXXXXXXXXX XXXXXXXXXXXXXXXX XXXXXXXXXXXXXXXX XXXXXXXXXXXXXXXX
3500 : XXXXXXXXXXXXXXXX XXXXXXXXXXXXXXXX XXXXXXXXXXXXXXXX XXXXXXXXXXXXXXXX
3540 : XXXXXXXXXXXXXXXX XXXXXXXXXXXXXXXX XXXXXXXXXXXXXXXX XXXXXXXXXXXXXXXX
3580 : XXXXXXXXXXXXXXXX XXXXXXXXXXXXXXXX XXXXXXXXXXXXXXXX XXXXXXXXXXXXXXXX
35C0 : XXXXXXXXXXXXXXXX XXXXXXXXXXXXXXXX XXXXXXXXXXXXXXXX XXXXXXXXXXXXXXXX
3600 : XXXXXXXXXXXXXXXX XXXXXXXXXXXXXXXX XXXXXXXXXXXXXXXX XXXXXXXXXXXXXXXX
3640 : XXXXXXXXXXXXXXXX XXXXXXXXXXXX---- ---------------- ----------------
6000 : XXXXXXXXXXXXXXXX XXXXXXXXXXXXXXXX XXXXXXXXXXXXXXXX XXXXXXXXXXXXXXXX
6040 : XXXXXXXXXXXXXXXX XXXXXXXXXXXXXXXX XXXXXXXXXXXXXXXX XXXXXXXXXXXXXXXX
6080 : XXXXXXXXXXXXXXXX XXXXXXXXXXXXXXXX XXXX------------ ----------------
6100 : XXXXXXXXXXXXXXXX XXXXXXXXXXXXXXXX XXXXXXXXXXXXXXXX XXXXXXXXXXXXXXXX
6140 : XXXXXXXXXXXXXXXX XXXXXXXXXXXXXXXX XXXXXXXXXXXXXXXX XXXXXXXXXXXXXXXX
6180 : XXXXXXXXXXXXXXXX XXXXXXXXXXXXXXXX XXXX------------ ----------------
6200 : XXXXXXXXXXXXXXXX XXXXXXXXXXXXXXXX XXXXXXXXXXXXXXXX XXXXXXXXXXXXXXXX
6240 : XXXXXXXXXXXXXXXX XXXXXXXXXXXXXXXX XXXXXXXXXXXXXXXX XXXXXXXXXXXXXXXX
6280 : XXXXXXXXXXXXXXXX XXXXXXXXXXXXXXXX XXXX------------ ----------------
6300 : XXXXXXXXXXXXXXXX XXXXXXXXXXXXXXXX XXXXXXXXXXXXXXXX XXXXXXXXXXXXXXXX
6340 : XXXXXXXXXXXXXXXX XXXXXXXXXXXXXXXX XXXXXXXXXXXXXXXX XXXXXXXXXXXXXXXX
6380 : XXXXXXXXXXXXXXXX XXXXXXXXXXXXXXXX XXXX------------ ----------------
6400 : XXXXXXXXXXXXXXXX XXXXXXXXXXXXXXXX XXXXXXXXXXXXXXXX XXXXXXXXXXXXXXXX
6440 : XXXXXXXXXXXXXXXX XXXXXXXXXXXXXXXX XXXXXXXXXXXXXXXX XXXXXXXXXXXXXXXX
6480 : XXXXXXXXXXXXXXXX XXXXXXXXXXXXXXXX XXXX------------ ----------------
6500 : XXXXXXXXXXXXXXXX XXXXXXXXXXXXXXXX XXXXXXXXXXXXXXXX XXXXXXXXXXXXXXXX
6540 : XXXXXXXXXXXXXXXX XXXXXXXXXXXXXXXX XXXXXXXXXXXXXXXX XXXXXXXXXXXXXXXX
6580 : XXXXXXXXXXXXXXXX XXXXXXXXXXXXXXXX XXXX------------ ----------------
6600 : XXXXXXXXXXXXXXXX XXXXXXXXXXXXXXXX XXXXXXXXXXXXXXXX XXXXXXXXXXXXXXXX
6640 : XXXXXXXXXXXXXXXX XXXXXXXXXXXXXXXX XXXXXXXXXXXXXXXX XXXXXXXXXXXXXXXX
6680 : XXXXXXXXXXXXXXXX XXXXXXXXXXXXXXXX XXXX------------ ----------------
6700 : XXXXXXXXXXXXXXXX XXXXXXXXXXXXXXXX XXXXXXXXXXXXXXXX XXXXXXXXXXXXXXXX
6740 : XXXXXXXXXXXXXXXX XXXXXXXXXXXXXXXX XXXXXXXXXXXXXXXX XXXXXXXXXXXXXXXX
6780 : XXXXXXXXXXXXXXXX XXXXXXXXXXXXXXXX XXXX------------ ----------------
6800 : XXXXXXXXXXXXXXXX XXXXXXXXXXXXXXXX XXXXXXXXXXXXXXXX XXXXXXXXXXXXXXXX
6840 : XXXXXXXXXXXXXXXX XXXXXXXXXXXXXXXX XXXXXXXXXXXXXXXX XXXXXXXXXXXXXXXX
6880 : XXXXXXXXXXXXXXXX XXXXXXXXXXXXXXXX XXXX------------ ----------------
6900 : XXXXXXXXXXXXXXXX XXXXXXXXXXXXXXXX XXXXXXXXXXXXXXXX XXXXXXXXXXXXXXXX
6940 : XXXXXXXXXXXXXXXX XXXXXXXXXXXXXXXX XXXXXXXXXXXXXXXX XXXXXXXXXXXXXXXX
6980 : XXXXXXXXXXXXXXXX XXXXXXXXXXXXXXXX XXXX------------ ----------------
6A00 : XXXXXXXXXXXXXXXX XXXXXXXXXXXXXXXX XXXXXXXXXXXXXXXX XXXXXXXXXXXXXXXX
6A40 : XXXXXXXXXXXXXXXX XXXXXXXXXXXXXXXX XXXXXXXXXXXXXXXX XXXXXXXXXXXXXXXX
MPASM  5.51                    2X4_P10_SB.ASM   4-22-2020  11:55:30         PAGE 106


MEMORY USAGE MAP ('X' = Used,  '-' = Unused)


6A80 : XX-------------- ---------------- ---------------- ----------------
6B00 : XXXXXXXXXXXXXXXX XXXXXXXXXXXXXXXX XXXXXXXXXXXXXXXX XXXXXXXXXXXXXXXX
6B40 : XXXXXXXXXXXXXXXX XXXXXXXXXXXXXXXX XXXXXXXXXXXXXXXX XXXXXXXXXXXXXXXX
6B80 : XX-------------- ---------------- ---------------- ----------------
6C00 : XXXXXXXXXXXXXXXX XXXXXXXXXXXXXXXX XXXXXXXXXXXXXXXX ----------------
6D00 : XXXXXXXXXXXXXXXX XXXXXXXXXXXXXXXX XXXXXXXXXXXXXXXX ----------------
7000 : XXXXXXXXXXXXXXXX XXXXXXXXXXXXXXXX XXXXXXXXXXXXXXXX XXXXXXXXXXXXXXXX
7040 : XXXXXXXXXXXXXXXX XXXXXXXXXXXXXXXX XXXXXXXXXXXXXXXX XXXXXXXXXXXXXXXX
7080 : XXXXXXXXXXXXXXXX XXXXXXXXXXXXXXXX XXXXXXXXXXXXXXXX XXXXXXXXXXXXXXXX
7100 : XXXXXXXXXXXXXXXX XXXXXXXXXXXXXXXX XXXXXXXXXXXXXXXX XXXXXXXXXXXXXXXX
7140 : XXXXXXXXXXXXXXXX XXXXXXXXXXXXXXXX XXXXXXXXXXXXXXXX XXXXXXXXXXXXXXXX
7180 : XXXXXXXXXXXXXXXX XXXXXXXXXXXXXXXX XXXXXXXXXXXXXXXX XXXXXXXXXXXXXXXX
71C0 : XXXXXXXXXXXXXXXX XXXXXXXXXXXXXXXX XXXXXXXXXXXXXXXX XXXXXXXXXXXXXXXX
7200 : XXXXXXXXXXXXXXXX XXXXXXXXXXXXXXXX XXXXXXXXXXXXXXXX XXXXXXXXXXXXXXXX
7240 : XXXXXXXXXXXXXXXX XXXXXXXXXXXXXXXX XXXXXXXXXXXXXXXX XXXXXXXXXXXXXXXX
7280 : XXXXXXXXXXXXXXXX XXXXXXXXXXXXXXXX XXXXXXXXXXXXXXXX XXXXXXXXXXXXXXXX
72C0 : XXXXXXXXXXXXXXXX XXXXXXXXXXXXXXXX XXXXXXXXXXXXXXXX XXXXXXXXXXXXXXXX
7300 : XXXXXXXXXXXXXXXX XXXXXXXXXXXXXXXX XXXXXXXXXXXXXXXX XXXXXXXXXXXXXXXX
7340 : XXXXXXXXXXXXXXXX XXXXXXXXXXXXXXXX XXXXXXXXXXXXXXXX XXXXXXXXXXXXXXXX
7380 : XXXXXXXXXXXXXXXX XXXXXXXXXXXXXXXX XXXXXXXXXXXXXXXX XXXXXXXXXXXXXXXX
73C0 : XXXXXXXXXXXXXXXX XXXXXXXXXXXXXXXX XXXXXXXXXXXXXXXX XXXXXXXXXXXXXXXX
7400 : XXXXXXXXXXXXXXXX XXXXXXXXXXXXXXXX XXXXXXXXXXXXXXXX XXXXXXXXXXXXXXXX
F000 : XXXXXXXXXXXXXXXX XXXXXXXXXXXXXXXX XXXXXXXXXXXXXXXX XXXXXXXXXXXXXXXX
F040 : XXXXXXXXXXXXXXXX XXXXXXXXXXXXXXXX XXXXXXXXXXXXXXXX XXXXXXXXXXXXXXXX
F080 : XXXXXXXXXXXXXXXX XXXXXXXXXXXXXXXX XXXXXXXXXXXXXXXX XXXXXXXXXXXXXXXX
F0C0 : XXXXXXXXXXXXXXXX XXXXXXXXXXXXXXXX XXXXXXXXXXXXXXXX XXXXXXXXXXXXXXXX
F100 : XXXXXXXXXXXXXXXX XXXXXXXXXXXXXXXX XXXXXXXXXXXXXXXX XXXXXXXXXXXXXXXX
F140 : XXXXXXXXXXXXXXXX XXXXXXXXXXXXXXXX XXXXXXXXXXXXXXXX XXXXXXXXXXXXXXXX
F180 : XXXXXXXXXXXXXXXX XXXX------------ ---------------- ----------------
FD00 : XXXXXXXXXXXXXXXX XXXXXXXXXXXXXXXX XXXXXXXXXXXXXXXX XXXXXXXXXXXXXXXX
FD40 : XXXXXXXXXXXXXXXX XXXXXXXXXXXXXXXX XXXXXXXXXXXXXXXX XXXXXXXXXXXXXXXX
FD80 : XXXXXXXXXXXXXXXX XXXXXXXXXXXXXXXX XXXXXXXXXXXXXXXX XXXXXXXXXXXXXXXX
FDC0 : XXXXXXXXXXXXXXXX XXXXXXXXXXXXXX-- ---------------- ----------------
FE00 : XXXXXXXXXXXXXXXX XXXXXXXXXXXXXXXX XXXXXXXXXXXXXXXX XXXXXXXXXXXXXXXX
FE40 : XXXXXXXXXXXXXXXX XXXXXXXXXXXXXXXX XXXXXX---------- ----------------
FF00 : XXXXXXXXXXXXXXXX XXXXXXXXXXXXXXXX XXXXXXXXXXXXXXXX XXXXXXXXXXXXXXXX
FF40 : XXXXXXXXXXXXXXXX XXXXXXXXXXXXXXXX XXXXXX---------- ----------------
0000 : -XXX-XX-XXXXXX-- ---------------- ---------------- ----------------
0000 : XXXXXXXXXXXXXXXX ---------------- ---------------- ----------------

All other memory blocks unused.

Program Memory Bytes Used:  6455
Program Memory Bytes Free: 59081


Errors   :     0
Warnings :   145 reported,     0 suppressed
Messages :     0 reported,     0 suppressed

