;/////////////////////////////////////////////////////////////////////////////////
;// Code Generator: BoostC Compiler - http://www.sourceboost.com
;// Version       : 7.03
;// License Type  : Pro License
;// Limitations   : PIC12,PIC16 max code size:Unlimited, max RAM banks:Unlimited
;/////////////////////////////////////////////////////////////////////////////////

	ORG 0x00000000
0000  158A  	BSF PCLATH,3
0001  2AC7  	GOTO	_startup
	ORG 0x00000004
0004  00FF  	MOVWF Int1Context
0005  0E03  	SWAPF STATUS, W
0006  1283  	BCF STATUS, RP0
0007  1303  	BCF STATUS, RP1
0008  00D9  	MOVWF Int1BContext
0009  0E0A  	SWAPF PCLATH, W
000A  00DA  	MOVWF Int1BContext+D'1'
000B  0E04  	SWAPF FSR, W
000C  00DB  	MOVWF Int1BContext+D'2'
000D  158A  	BSF PCLATH,3
000E  120A  	BCF PCLATH,4
000F  2B04  	GOTO	interrupt
	ORG 0x00000010
0010        delay_us_00000
0010        ; { delay_us ; function begin
0010        label1
0010  0000  	NOP
0011  0000  	NOP
0012  0BFC  	DECFSZ delay_us_00000_arg_del, F
0013  2810  	GOTO	label1
0014  0008  	RETURN
0015        ; } delay_us function end

	ORG 0x00000015
0015        delay_ms_00000
0015        ; { delay_ms ; function begin
0015  08A3  	MOVF delay_ms_00000_arg_del, F
0016  1D03  	BTFSS STATUS,Z
0017  2819  	GOTO	label2
0018  0008  	RETURN
0019        label2
0019  30F9  	MOVLW 0xF9
001A        label3
001A  0000  	NOP
001B  0000  	NOP
001C  0000  	NOP
001D  0000  	NOP
001E  0000  	NOP
001F  0000  	NOP
0020  0000  	NOP
0021  0000  	NOP
0022  0000  	NOP
0023  0000  	NOP
0024  0000  	NOP
0025  0000  	NOP
0026  0000  	NOP
0027  0000  	NOP
0028  0000  	NOP
0029  0000  	NOP
002A  3EFF  	ADDLW 0xFF
002B  1D03  	BTFSS STATUS,Z
002C  281A  	GOTO	label3
002D  0000  	NOP
002E  0000  	NOP
002F  0000  	NOP
0030  0000  	NOP
0031  0000  	NOP
0032  0000  	NOP
0033  0000  	NOP
0034  0000  	NOP
0035  0000  	NOP
0036  0000  	NOP
0037  0000  	NOP
0038  0000  	NOP
0039  0000  	NOP
003A  0000  	NOP
003B  0000  	NOP
003C  0000  	NOP
003D  0000  	NOP
003E  0BA3  	DECFSZ delay_ms_00000_arg_del, F
003F  2819  	GOTO	label2
0040  0008  	RETURN
0041        ; } delay_ms function end

	ORG 0x00000041
0041        delay_10us_00000
0041        ; { delay_10us ; function begin
0041  08B6  	MOVF delay_10us_00000_arg_del, F
0042  1D03  	BTFSS STATUS,Z
0043  2845  	GOTO	label4
0044  0008  	RETURN
0045        label4
0045  3009  	MOVLW 0x09
0046        label5
0046  0000  	NOP
0047  3EFF  	ADDLW 0xFF
0048  1D03  	BTFSS STATUS,Z
0049  2846  	GOTO	label5
004A  0000  	NOP
004B  0000  	NOP
004C  0BB6  	DECFSZ delay_10us_00000_arg_del, F
004D  2845  	GOTO	label4
004E  0008  	RETURN
004F        ; } delay_10us function end

	ORG 0x0000004F
004F        delay_s_00000
004F        ; { delay_s ; function begin
004F        label6
004F  30FA  	MOVLW 0xFA
0050  1683  	BSF STATUS, RP0
0051  00A3  	MOVWF delay_ms_00000_arg_del
0052  2015  	CALL delay_ms_00000
0053  30FA  	MOVLW 0xFA
0054  00A3  	MOVWF delay_ms_00000_arg_del
0055  2015  	CALL delay_ms_00000
0056  30FA  	MOVLW 0xFA
0057  00A3  	MOVWF delay_ms_00000_arg_del
0058  2015  	CALL delay_ms_00000
0059  30FA  	MOVLW 0xFA
005A  00A3  	MOVWF delay_ms_00000_arg_del
005B  2015  	CALL delay_ms_00000
005C  1283  	BCF STATUS, RP0
005D  0BFB  	DECFSZ delay_s_00000_arg_del, F
005E  284F  	GOTO	label6
005F  0008  	RETURN
0060        ; } delay_s function end

	ORG 0x00000060
0060        FC_CAL_SPI_0006F
0060        ; { FC_CAL_SPI_Master_Byte_1 ; function begin
0060  01FE  	CLRF FC_CAL_SPI_0006F_1_retVal
0061  087D  	MOVF FC_CAL_SPI_0006F_arg_DataOut, W
0062  0093  	MOVWF gbl_sspbuf
0063        label7
0063  1683  	BSF STATUS, RP0
0064  1C14  	BTFSS gbl_sspstat,0
0065  2863  	GOTO	label7
0066  1283  	BCF STATUS, RP0
0067  0813  	MOVF gbl_sspbuf, W
0068  00FE  	MOVWF FC_CAL_SPI_0006F_1_retVal
0069  087E  	MOVF FC_CAL_SPI_0006F_1_retVal, W
006A  1683  	BSF STATUS, RP0
006B  00A0  	MOVWF CompTempVarRet2327
006C  0008  	RETURN
006D        ; } FC_CAL_SPI_Master_Byte_1 function end

	ORG 0x0000006D
006D        FCD_SPI_Le_00052
006D        ; { FCD_SPI_Legacy0_SPI_Send_Char ; function begin
006D  087C  	MOVF FCD_SPI_Le_00052_arg_Char, W
006E  00FD  	MOVWF FC_CAL_SPI_0006F_arg_DataOut
006F  2060  	CALL FC_CAL_SPI_0006F
0070  0008  	RETURN
0071        ; } FCD_SPI_Legacy0_SPI_Send_Char function end

	ORG 0x00000071
0071        __div_16_1_00003
0071        ; { __div_16_16 ; function begin
0071  01A7  	CLRF __div_16_1_00003_1_r
0072  01A8  	CLRF __div_16_1_00003_1_r+D'1'
0073  01AA  	CLRF CompTempVarRet214
0074  01AB  	CLRF CompTempVarRet214+D'1'
0075  01A9  	CLRF __div_16_1_00003_1_i
0076        label8
0076  1A29  	BTFSC __div_16_1_00003_1_i,4
0077  0008  	RETURN
0078  1003  	BCF STATUS,C
0079  0DAA  	RLF CompTempVarRet214, F
007A  0DAB  	RLF CompTempVarRet214+D'1', F
007B  0DA1  	RLF __div_16_1_00003_arg_a, F
007C  0DA2  	RLF __div_16_1_00003_arg_a+D'1', F
007D  0DA7  	RLF __div_16_1_00003_1_r, F
007E  0DA8  	RLF __div_16_1_00003_1_r+D'1', F
007F  0824  	MOVF __div_16_1_00003_arg_b+D'1', W
0080  0228  	SUBWF __div_16_1_00003_1_r+D'1', W
0081  1D03  	BTFSS STATUS,Z
0082  2885  	GOTO	label9
0083  0823  	MOVF __div_16_1_00003_arg_b, W
0084  0227  	SUBWF __div_16_1_00003_1_r, W
0085        label9
0085  1C03  	BTFSS STATUS,C
0086  288E  	GOTO	label10
0087  0823  	MOVF __div_16_1_00003_arg_b, W
0088  02A7  	SUBWF __div_16_1_00003_1_r, F
0089  0824  	MOVF __div_16_1_00003_arg_b+D'1', W
008A  1C03  	BTFSS STATUS,C
008B  03A8  	DECF __div_16_1_00003_1_r+D'1', F
008C  02A8  	SUBWF __div_16_1_00003_1_r+D'1', F
008D  142A  	BSF CompTempVarRet214,0
008E        label10
008E  0AA9  	INCF __div_16_1_00003_1_i, F
008F  2876  	GOTO	label8
0090        ; } __div_16_16 function end

	ORG 0x00000090
0090        Wdt_Delay__0003E
0090        ; { Wdt_Delay_Ms ; function begin
0090  01A2  	CLRF Wdt_Delay__0003E_1_i
0091        label11
0091  0821  	MOVF Wdt_Delay__0003E_arg_delay, W
0092  0222  	SUBWF Wdt_Delay__0003E_1_i, W
0093  1803  	BTFSC STATUS,C
0094  0008  	RETURN
0095  0064  	CLRWDT
0096  3001  	MOVLW 0x01
0097  00A3  	MOVWF delay_ms_00000_arg_del
0098  2015  	CALL delay_ms_00000
0099  0AA2  	INCF Wdt_Delay__0003E_1_i, F
009A  2891  	GOTO	label11
009B        ; } Wdt_Delay_Ms function end

	ORG 0x0000009B
009B        FCM_spi_da_00051
009B        ; { FCM_spi_data_write ; function begin
009B  30FB  	MOVLW 0xFB
009C  1683  	BSF STATUS, RP0
009D  1303  	BCF STATUS, RP1
009E  0507  	ANDWF gbl_trisc, W
009F  0087  	MOVWF gbl_trisc
00A0  30FB  	MOVLW 0xFB
00A1  1283  	BCF STATUS, RP0
00A2  0507  	ANDWF gbl_portc, W
00A3  0087  	MOVWF gbl_portc
00A4  3005  	MOVLW 0x05
00A5  00FC  	MOVWF delay_us_00000_arg_del
00A6  2010  	CALL delay_us_00000
00A7  3020  	MOVLW 0x20
00A8  076E  	ADDWF gbl_FCV_REG_TO_WRITE, W
00A9  00EE  	MOVWF gbl_FCV_REG_TO_WRITE
00AA  086E  	MOVF gbl_FCV_REG_TO_WRITE, W
00AB  00FC  	MOVWF FCD_SPI_Le_00052_arg_Char
00AC  206D  	CALL FCD_SPI_Le_00052
00AD  1283  	BCF STATUS, RP0
00AE  086C  	MOVF gbl_FCV_SPI_WRT_DATA, W
00AF  00FC  	MOVWF FCD_SPI_Le_00052_arg_Char
00B0  206D  	CALL FCD_SPI_Le_00052
00B1  30FB  	MOVLW 0xFB
00B2  0507  	ANDWF gbl_trisc, W
00B3  0087  	MOVWF gbl_trisc
00B4  30FB  	MOVLW 0xFB
00B5  1283  	BCF STATUS, RP0
00B6  0507  	ANDWF gbl_portc, W
00B7  00FB  	MOVWF CompTempVar2188
00B8  3004  	MOVLW 0x04
00B9  047B  	IORWF CompTempVar2188, W
00BA  0087  	MOVWF gbl_portc
00BB  3005  	MOVLW 0x05
00BC  00FC  	MOVWF delay_us_00000_arg_del
00BD  2010  	CALL delay_us_00000
00BE  0008  	RETURN
00BF        ; } FCM_spi_data_write function end

	ORG 0x000000BF
00BF        FCD_SPI_Le_00054
00BF        ; { FCD_SPI_Legacy0_SPI_Get_Char ; function begin
00BF  1283  	BCF STATUS, RP0
00C0  1303  	BCF STATUS, RP1
00C1  01FC  	CLRF FCD_SPI_Le_00054_1_retVal
00C2  30FF  	MOVLW 0xFF
00C3  00FD  	MOVWF FC_CAL_SPI_0006F_arg_DataOut
00C4  2060  	CALL FC_CAL_SPI_0006F
00C5  0820  	MOVF CompTempVarRet2327, W
00C6  1283  	BCF STATUS, RP0
00C7  00FC  	MOVWF FCD_SPI_Le_00054_1_retVal
00C8  087C  	MOVF FCD_SPI_Le_00054_1_retVal, W
00C9  00FD  	MOVWF CompTempVarRet2190
00CA  0008  	RETURN
00CB        ; } FCD_SPI_Legacy0_SPI_Get_Char function end

	ORG 0x000000CB
00CB        FCD_LCDDis_00066
00CB        ; { FCD_LCDDisplay0_RawSend ; function begin
00CB  1283  	BCF STATUS, RP0
00CC  1106  	BCF gbl_portb,2
00CD  1186  	BCF gbl_portb,3
00CE  1206  	BCF gbl_portb,4
00CF  1286  	BCF gbl_portb,5
00D0  1006  	BCF gbl_portb,0
00D1  1086  	BCF gbl_portb,1
00D2  1683  	BSF STATUS, RP0
00D3  0E33  	SWAPF FCD_LCDDis_00066_arg_in, W
00D4  390F  	ANDLW 0x0F
00D5  00B5  	MOVWF FCD_LCDDis_00066_1_pt
00D6  300F  	MOVLW 0x0F
00D7  05B5  	ANDWF FCD_LCDDis_00066_1_pt, F
00D8  1C35  	BTFSS FCD_LCDDis_00066_1_pt,0
00D9  28DC  	GOTO	label12
00DA  1283  	BCF STATUS, RP0
00DB  1506  	BSF gbl_portb,2
00DC        label12
00DC  1683  	BSF STATUS, RP0
00DD  1CB5  	BTFSS FCD_LCDDis_00066_1_pt,1
00DE  28E1  	GOTO	label13
00DF  1283  	BCF STATUS, RP0
00E0  1586  	BSF gbl_portb,3
00E1        label13
00E1  1683  	BSF STATUS, RP0
00E2  1D35  	BTFSS FCD_LCDDis_00066_1_pt,2
00E3  28E6  	GOTO	label14
00E4  1283  	BCF STATUS, RP0
00E5  1606  	BSF gbl_portb,4
00E6        label14
00E6  1683  	BSF STATUS, RP0
00E7  1DB5  	BTFSS FCD_LCDDis_00066_1_pt,3
00E8  28EB  	GOTO	label15
00E9  1283  	BCF STATUS, RP0
00EA  1686  	BSF gbl_portb,5
00EB        label15
00EB  1683  	BSF STATUS, RP0
00EC  08B4  	MOVF FCD_LCDDis_00066_arg_mask, F
00ED  1903  	BTFSC STATUS,Z
00EE  28F1  	GOTO	label16
00EF  1283  	BCF STATUS, RP0
00F0  1406  	BSF gbl_portb,0
00F1        label16
00F1  300A  	MOVLW 0x0A
00F2  1683  	BSF STATUS, RP0
00F3  00B6  	MOVWF delay_10us_00000_arg_del
00F4  2041  	CALL delay_10us_00000
00F5  1283  	BCF STATUS, RP0
00F6  1486  	BSF gbl_portb,1
00F7  300A  	MOVLW 0x0A
00F8  1683  	BSF STATUS, RP0
00F9  00B6  	MOVWF delay_10us_00000_arg_del
00FA  2041  	CALL delay_10us_00000
00FB  1283  	BCF STATUS, RP0
00FC  1086  	BCF gbl_portb,1
00FD  300F  	MOVLW 0x0F
00FE  1683  	BSF STATUS, RP0
00FF  0533  	ANDWF FCD_LCDDis_00066_arg_in, W
0100  00B5  	MOVWF FCD_LCDDis_00066_1_pt
0101  300A  	MOVLW 0x0A
0102  00B6  	MOVWF delay_10us_00000_arg_del
0103  2041  	CALL delay_10us_00000
0104  1283  	BCF STATUS, RP0
0105  1106  	BCF gbl_portb,2
0106  1186  	BCF gbl_portb,3
0107  1206  	BCF gbl_portb,4
0108  1286  	BCF gbl_portb,5
0109  1006  	BCF gbl_portb,0
010A  1086  	BCF gbl_portb,1
010B  1683  	BSF STATUS, RP0
010C  1C35  	BTFSS FCD_LCDDis_00066_1_pt,0
010D  2910  	GOTO	label17
010E  1283  	BCF STATUS, RP0
010F  1506  	BSF gbl_portb,2
0110        label17
0110  1683  	BSF STATUS, RP0
0111  1CB5  	BTFSS FCD_LCDDis_00066_1_pt,1
0112  2915  	GOTO	label18
0113  1283  	BCF STATUS, RP0
0114  1586  	BSF gbl_portb,3
0115        label18
0115  1683  	BSF STATUS, RP0
0116  1D35  	BTFSS FCD_LCDDis_00066_1_pt,2
0117  291A  	GOTO	label19
0118  1283  	BCF STATUS, RP0
0119  1606  	BSF gbl_portb,4
011A        label19
011A  1683  	BSF STATUS, RP0
011B  1DB5  	BTFSS FCD_LCDDis_00066_1_pt,3
011C  291F  	GOTO	label20
011D  1283  	BCF STATUS, RP0
011E  1686  	BSF gbl_portb,5
011F        label20
011F  1683  	BSF STATUS, RP0
0120  08B4  	MOVF FCD_LCDDis_00066_arg_mask, F
0121  1903  	BTFSC STATUS,Z
0122  2925  	GOTO	label21
0123  1283  	BCF STATUS, RP0
0124  1406  	BSF gbl_portb,0
0125        label21
0125  300A  	MOVLW 0x0A
0126  1683  	BSF STATUS, RP0
0127  00B6  	MOVWF delay_10us_00000_arg_del
0128  2041  	CALL delay_10us_00000
0129  1283  	BCF STATUS, RP0
012A  1486  	BSF gbl_portb,1
012B  300A  	MOVLW 0x0A
012C  1683  	BSF STATUS, RP0
012D  00B6  	MOVWF delay_10us_00000_arg_del
012E  2041  	CALL delay_10us_00000
012F  1283  	BCF STATUS, RP0
0130  1086  	BCF gbl_portb,1
0131  300A  	MOVLW 0x0A
0132  1683  	BSF STATUS, RP0
0133  00B6  	MOVWF delay_10us_00000_arg_del
0134  2041  	CALL delay_10us_00000
0135  0008  	RETURN
0136        ; } FCD_LCDDisplay0_RawSend function end

	ORG 0x00000136
0136        FCM_spi_da_00053
0136        ; { FCM_spi_data_read ; function begin
0136  30FB  	MOVLW 0xFB
0137  1683  	BSF STATUS, RP0
0138  1303  	BCF STATUS, RP1
0139  0507  	ANDWF gbl_trisc, W
013A  0087  	MOVWF gbl_trisc
013B  30FB  	MOVLW 0xFB
013C  1283  	BCF STATUS, RP0
013D  0507  	ANDWF gbl_portc, W
013E  0087  	MOVWF gbl_portc
013F  3005  	MOVLW 0x05
0140  00FC  	MOVWF delay_us_00000_arg_del
0141  2010  	CALL delay_us_00000
0142  0877  	MOVF gbl_FCV_REG_TO_READ, W
0143  00FC  	MOVWF FCD_SPI_Le_00052_arg_Char
0144  206D  	CALL FCD_SPI_Le_00052
0145  20BF  	CALL FCD_SPI_Le_00054
0146  087D  	MOVF CompTempVarRet2190, W
0147  00F5  	MOVWF gbl_FCV_SPI_RCV_DATA
0148  30FB  	MOVLW 0xFB
0149  1683  	BSF STATUS, RP0
014A  0507  	ANDWF gbl_trisc, W
014B  0087  	MOVWF gbl_trisc
014C  30FB  	MOVLW 0xFB
014D  1283  	BCF STATUS, RP0
014E  0507  	ANDWF gbl_portc, W
014F  00FB  	MOVWF CompTempVar2189
0150  3004  	MOVLW 0x04
0151  047B  	IORWF CompTempVar2189, W
0152  0087  	MOVWF gbl_portc
0153  3005  	MOVLW 0x05
0154  00FC  	MOVWF delay_us_00000_arg_del
0155  2010  	CALL delay_us_00000
0156  0008  	RETURN
0157        ; } FCM_spi_data_read function end

	ORG 0x00000157
0157        FCM_setup__00064
0157        ; { FCM_setup_nrf_address ; function begin
0157  300A  	MOVLW 0x0A
0158  1283  	BCF STATUS, RP0
0159  1303  	BCF STATUS, RP1
015A  00EE  	MOVWF gbl_FCV_REG_TO_WRITE
015B  30FB  	MOVLW 0xFB
015C  1683  	BSF STATUS, RP0
015D  0507  	ANDWF gbl_trisc, W
015E  0087  	MOVWF gbl_trisc
015F  30FB  	MOVLW 0xFB
0160  1283  	BCF STATUS, RP0
0161  0507  	ANDWF gbl_portc, W
0162  0087  	MOVWF gbl_portc
0163  3005  	MOVLW 0x05
0164  00FC  	MOVWF delay_us_00000_arg_del
0165  2010  	CALL delay_us_00000
0166  3020  	MOVLW 0x20
0167  076E  	ADDWF gbl_FCV_REG_TO_WRITE, W
0168  00EE  	MOVWF gbl_FCV_REG_TO_WRITE
0169  086E  	MOVF gbl_FCV_REG_TO_WRITE, W
016A  00FC  	MOVWF FCD_SPI_Le_00052_arg_Char
016B  206D  	CALL FCD_SPI_Le_00052
016C  1283  	BCF STATUS, RP0
016D  0840  	MOVF gbl_FCV_NRF_ADDRESS, W
016E  00FC  	MOVWF FCD_SPI_Le_00052_arg_Char
016F  206D  	CALL FCD_SPI_Le_00052
0170  1283  	BCF STATUS, RP0
0171  0841  	MOVF gbl_FCV_NRF_ADDRESS+D'1', W
0172  00FC  	MOVWF FCD_SPI_Le_00052_arg_Char
0173  206D  	CALL FCD_SPI_Le_00052
0174  1283  	BCF STATUS, RP0
0175  0842  	MOVF gbl_FCV_NRF_ADDRESS+D'2', W
0176  00FC  	MOVWF FCD_SPI_Le_00052_arg_Char
0177  206D  	CALL FCD_SPI_Le_00052
0178  1283  	BCF STATUS, RP0
0179  0843  	MOVF gbl_FCV_NRF_ADDRESS+D'3', W
017A  00FC  	MOVWF FCD_SPI_Le_00052_arg_Char
017B  206D  	CALL FCD_SPI_Le_00052
017C  1283  	BCF STATUS, RP0
017D  0844  	MOVF gbl_FCV_NRF_ADDRESS+D'4', W
017E  00FC  	MOVWF FCD_SPI_Le_00052_arg_Char
017F  206D  	CALL FCD_SPI_Le_00052
0180  30FB  	MOVLW 0xFB
0181  0507  	ANDWF gbl_trisc, W
0182  0087  	MOVWF gbl_trisc
0183  30FB  	MOVLW 0xFB
0184  1283  	BCF STATUS, RP0
0185  0507  	ANDWF gbl_portc, W
0186  00FB  	MOVWF CompTempVar2310
0187  3004  	MOVLW 0x04
0188  047B  	IORWF CompTempVar2310, W
0189  0087  	MOVWF gbl_portc
018A  3005  	MOVLW 0x05
018B  00FC  	MOVWF delay_us_00000_arg_del
018C  2010  	CALL delay_us_00000
018D  3010  	MOVLW 0x10
018E  00EE  	MOVWF gbl_FCV_REG_TO_WRITE
018F  30FB  	MOVLW 0xFB
0190  1683  	BSF STATUS, RP0
0191  0507  	ANDWF gbl_trisc, W
0192  0087  	MOVWF gbl_trisc
0193  30FB  	MOVLW 0xFB
0194  1283  	BCF STATUS, RP0
0195  0507  	ANDWF gbl_portc, W
0196  0087  	MOVWF gbl_portc
0197  3005  	MOVLW 0x05
0198  00FC  	MOVWF delay_us_00000_arg_del
0199  2010  	CALL delay_us_00000
019A  3020  	MOVLW 0x20
019B  076E  	ADDWF gbl_FCV_REG_TO_WRITE, W
019C  00EE  	MOVWF gbl_FCV_REG_TO_WRITE
019D  086E  	MOVF gbl_FCV_REG_TO_WRITE, W
019E  00FC  	MOVWF FCD_SPI_Le_00052_arg_Char
019F  206D  	CALL FCD_SPI_Le_00052
01A0  1283  	BCF STATUS, RP0
01A1  0840  	MOVF gbl_FCV_NRF_ADDRESS, W
01A2  00FC  	MOVWF FCD_SPI_Le_00052_arg_Char
01A3  206D  	CALL FCD_SPI_Le_00052
01A4  1283  	BCF STATUS, RP0
01A5  0841  	MOVF gbl_FCV_NRF_ADDRESS+D'1', W
01A6  00FC  	MOVWF FCD_SPI_Le_00052_arg_Char
01A7  206D  	CALL FCD_SPI_Le_00052
01A8  1283  	BCF STATUS, RP0
01A9  0842  	MOVF gbl_FCV_NRF_ADDRESS+D'2', W
01AA  00FC  	MOVWF FCD_SPI_Le_00052_arg_Char
01AB  206D  	CALL FCD_SPI_Le_00052
01AC  1283  	BCF STATUS, RP0
01AD  0843  	MOVF gbl_FCV_NRF_ADDRESS+D'3', W
01AE  00FC  	MOVWF FCD_SPI_Le_00052_arg_Char
01AF  206D  	CALL FCD_SPI_Le_00052
01B0  1283  	BCF STATUS, RP0
01B1  0844  	MOVF gbl_FCV_NRF_ADDRESS+D'4', W
01B2  00FC  	MOVWF FCD_SPI_Le_00052_arg_Char
01B3  206D  	CALL FCD_SPI_Le_00052
01B4  30FB  	MOVLW 0xFB
01B5  0507  	ANDWF gbl_trisc, W
01B6  0087  	MOVWF gbl_trisc
01B7  30FB  	MOVLW 0xFB
01B8  1283  	BCF STATUS, RP0
01B9  0507  	ANDWF gbl_portc, W
01BA  00FB  	MOVWF CompTempVar2321
01BB  3004  	MOVLW 0x04
01BC  047B  	IORWF CompTempVar2321, W
01BD  0087  	MOVWF gbl_portc
01BE  3005  	MOVLW 0x05
01BF  00FC  	MOVWF delay_us_00000_arg_del
01C0  2010  	CALL delay_us_00000
01C1  0008  	RETURN
01C2        ; } FCM_setup_nrf_address function end

	ORG 0x000001C2
01C2        FCM_nrf_fl_00063
01C2        ; { FCM_nrf_flush_fifo ; function begin
01C2  30FB  	MOVLW 0xFB
01C3  1683  	BSF STATUS, RP0
01C4  1303  	BCF STATUS, RP1
01C5  0507  	ANDWF gbl_trisc, W
01C6  0087  	MOVWF gbl_trisc
01C7  30FB  	MOVLW 0xFB
01C8  1283  	BCF STATUS, RP0
01C9  0507  	ANDWF gbl_portc, W
01CA  0087  	MOVWF gbl_portc
01CB  3005  	MOVLW 0x05
01CC  00FC  	MOVWF delay_us_00000_arg_del
01CD  2010  	CALL delay_us_00000
01CE  30E1  	MOVLW 0xE1
01CF  00FC  	MOVWF FCD_SPI_Le_00052_arg_Char
01D0  206D  	CALL FCD_SPI_Le_00052
01D1  30FB  	MOVLW 0xFB
01D2  0507  	ANDWF gbl_trisc, W
01D3  0087  	MOVWF gbl_trisc
01D4  30FB  	MOVLW 0xFB
01D5  1283  	BCF STATUS, RP0
01D6  0507  	ANDWF gbl_portc, W
01D7  00FB  	MOVWF CompTempVar2298
01D8  3004  	MOVLW 0x04
01D9  047B  	IORWF CompTempVar2298, W
01DA  0087  	MOVWF gbl_portc
01DB  3005  	MOVLW 0x05
01DC  00FC  	MOVWF delay_us_00000_arg_del
01DD  2010  	CALL delay_us_00000
01DE  30FB  	MOVLW 0xFB
01DF  1683  	BSF STATUS, RP0
01E0  0507  	ANDWF gbl_trisc, W
01E1  0087  	MOVWF gbl_trisc
01E2  30FB  	MOVLW 0xFB
01E3  1283  	BCF STATUS, RP0
01E4  0507  	ANDWF gbl_portc, W
01E5  0087  	MOVWF gbl_portc
01E6  3005  	MOVLW 0x05
01E7  00FC  	MOVWF delay_us_00000_arg_del
01E8  2010  	CALL delay_us_00000
01E9  30E2  	MOVLW 0xE2
01EA  00FC  	MOVWF FCD_SPI_Le_00052_arg_Char
01EB  206D  	CALL FCD_SPI_Le_00052
01EC  30FB  	MOVLW 0xFB
01ED  0507  	ANDWF gbl_trisc, W
01EE  0087  	MOVWF gbl_trisc
01EF  30FB  	MOVLW 0xFB
01F0  1283  	BCF STATUS, RP0
01F1  0507  	ANDWF gbl_portc, W
01F2  00FB  	MOVWF CompTempVar2299
01F3  3004  	MOVLW 0x04
01F4  047B  	IORWF CompTempVar2299, W
01F5  0087  	MOVWF gbl_portc
01F6  3005  	MOVLW 0x05
01F7  00FC  	MOVWF delay_us_00000_arg_del
01F8  2010  	CALL delay_us_00000
01F9  0008  	RETURN
01FA        ; } FCM_nrf_flush_fifo function end

	ORG 0x000001FA
01FA        FCM_nrf_cl_00065
01FA        ; { FCM_nrf_clr_status ; function begin
01FA  3007  	MOVLW 0x07
01FB  1283  	BCF STATUS, RP0
01FC  1303  	BCF STATUS, RP1
01FD  00EE  	MOVWF gbl_FCV_REG_TO_WRITE
01FE  30FF  	MOVLW 0xFF
01FF  00EC  	MOVWF gbl_FCV_SPI_WRT_DATA
0200  209B  	CALL FCM_spi_da_00051
0201  0008  	RETURN
0202        ; } FCM_nrf_clr_status function end

	ORG 0x00000202
0202        FCD_LCDDis_0005C
0202        ; { FCD_LCDDisplay0_PrintNumber ; function begin
0202  1FFC  	BTFSS FCD_LCDDis_0005C_arg_Number+D'1',7
0203  2A17  	GOTO	label22
0204  302D  	MOVLW 0x2D
0205  1683  	BSF STATUS, RP0
0206  00B3  	MOVWF FCD_LCDDis_00066_arg_in
0207  3010  	MOVLW 0x10
0208  00B4  	MOVWF FCD_LCDDis_00066_arg_mask
0209  20CB  	CALL FCD_LCDDis_00066
020A  1283  	BCF STATUS, RP0
020B  087B  	MOVF FCD_LCDDis_0005C_arg_Number, W
020C  3C00  	SUBLW 0x00
020D  1683  	BSF STATUS, RP0
020E  00A1  	MOVWF CompTempVar2220
020F  1283  	BCF STATUS, RP0
0210  09FC  	COMF FCD_LCDDis_0005C_arg_Number+D'1', F
0211  1803  	BTFSC STATUS,C
0212  0AFC  	INCF FCD_LCDDis_0005C_arg_Number+D'1', F
0213  1683  	BSF STATUS, RP0
0214  0821  	MOVF CompTempVar2220, W
0215  1283  	BCF STATUS, RP0
0216  00FB  	MOVWF FCD_LCDDis_0005C_arg_Number
0217        label22
0217  087B  	MOVF FCD_LCDDis_0005C_arg_Number, W
0218  00FD  	MOVWF FCD_LCDDis_0005C_1_tmp_int
0219  087C  	MOVF FCD_LCDDis_0005C_arg_Number+D'1', W
021A  00FE  	MOVWF FCD_LCDDis_0005C_1_tmp_int+D'1'
021B  3027  	MOVLW 0x27
021C  027C  	SUBWF FCD_LCDDis_0005C_arg_Number+D'1', W
021D  1D03  	BTFSS STATUS,Z
021E  2A21  	GOTO	label23
021F  3010  	MOVLW 0x10
0220  027B  	SUBWF FCD_LCDDis_0005C_arg_Number, W
0221        label23
0221  1C03  	BTFSS STATUS,C
0222  2A59  	GOTO	label27
0223  1BFC  	BTFSC FCD_LCDDis_0005C_arg_Number+D'1',7
0224  2A59  	GOTO	label27
0225  1683  	BSF STATUS, RP0
0226  01A5  	CLRF CompTempVar2223
0227  1283  	BCF STATUS, RP0
0228  087D  	MOVF FCD_LCDDis_0005C_1_tmp_int, W
0229  1683  	BSF STATUS, RP0
022A  00A1  	MOVWF __div_16_1_00003_arg_a
022B  1283  	BCF STATUS, RP0
022C  087E  	MOVF FCD_LCDDis_0005C_1_tmp_int+D'1', W
022D  1683  	BSF STATUS, RP0
022E  00A2  	MOVWF __div_16_1_00003_arg_a+D'1'
022F  1283  	BCF STATUS, RP0
0230  1FFE  	BTFSS FCD_LCDDis_0005C_1_tmp_int+D'1',7
0231  2A39  	GOTO	label24
0232  1683  	BSF STATUS, RP0
0233  09A1  	COMF __div_16_1_00003_arg_a, F
0234  09A2  	COMF __div_16_1_00003_arg_a+D'1', F
0235  0AA1  	INCF __div_16_1_00003_arg_a, F
0236  1903  	BTFSC STATUS,Z
0237  0AA2  	INCF __div_16_1_00003_arg_a+D'1', F
0238  0AA5  	INCF CompTempVar2223, F
0239        label24
0239  3010  	MOVLW 0x10
023A  1683  	BSF STATUS, RP0
023B  00A3  	MOVWF __div_16_1_00003_arg_b
023C  3027  	MOVLW 0x27
023D  00A4  	MOVWF __div_16_1_00003_arg_b+D'1'
023E  2071  	CALL __div_16_1_00003
023F  082A  	MOVF CompTempVarRet214, W
0240  00A0  	MOVWF FCD_LCDDis_0005C_1_tmp_byte
0241  1C25  	BTFSS CompTempVar2223,0
0242  2A45  	GOTO	label25
0243  09A0  	COMF FCD_LCDDis_0005C_1_tmp_byte, F
0244  0AA0  	INCF FCD_LCDDis_0005C_1_tmp_byte, F
0245        label25
0245  0820  	MOVF FCD_LCDDis_0005C_1_tmp_byte, W
0246  3E30  	ADDLW 0x30
0247  00B3  	MOVWF FCD_LCDDis_00066_arg_in
0248  3010  	MOVLW 0x10
0249  00B4  	MOVWF FCD_LCDDis_00066_arg_mask
024A  20CB  	CALL FCD_LCDDis_00066
024B        label26
024B  0820  	MOVF FCD_LCDDis_0005C_1_tmp_byte, W
024C  3C00  	SUBLW 0x00
024D  1803  	BTFSC STATUS,C
024E  2A59  	GOTO	label27
024F  3010  	MOVLW 0x10
0250  1283  	BCF STATUS, RP0
0251  02FD  	SUBWF FCD_LCDDis_0005C_1_tmp_int, F
0252  3027  	MOVLW 0x27
0253  1C03  	BTFSS STATUS,C
0254  3028  	MOVLW 0x28
0255  02FE  	SUBWF FCD_LCDDis_0005C_1_tmp_int+D'1', F
0256  1683  	BSF STATUS, RP0
0257  03A0  	DECF FCD_LCDDis_0005C_1_tmp_byte, F
0258  2A4B  	GOTO	label26
0259        label27
0259  3003  	MOVLW 0x03
025A  1283  	BCF STATUS, RP0
025B  027C  	SUBWF FCD_LCDDis_0005C_arg_Number+D'1', W
025C  1D03  	BTFSS STATUS,Z
025D  2A60  	GOTO	label28
025E  30E8  	MOVLW 0xE8
025F  027B  	SUBWF FCD_LCDDis_0005C_arg_Number, W
0260        label28
0260  1C03  	BTFSS STATUS,C
0261  2A9A  	GOTO	label32
0262  1BFC  	BTFSC FCD_LCDDis_0005C_arg_Number+D'1',7
0263  2A9A  	GOTO	label32
0264  1683  	BSF STATUS, RP0
0265  01A6  	CLRF CompTempVar2227
0266  1283  	BCF STATUS, RP0
0267  087D  	MOVF FCD_LCDDis_0005C_1_tmp_int, W
0268  1683  	BSF STATUS, RP0
0269  00A1  	MOVWF __div_16_1_00003_arg_a
026A  1283  	BCF STATUS, RP0
026B  087E  	MOVF FCD_LCDDis_0005C_1_tmp_int+D'1', W
026C  1683  	BSF STATUS, RP0
026D  00A2  	MOVWF __div_16_1_00003_arg_a+D'1'
026E  1283  	BCF STATUS, RP0
026F  1FFE  	BTFSS FCD_LCDDis_0005C_1_tmp_int+D'1',7
0270  2A78  	GOTO	label29
0271  1683  	BSF STATUS, RP0
0272  09A1  	COMF __div_16_1_00003_arg_a, F
0273  09A2  	COMF __div_16_1_00003_arg_a+D'1', F
0274  0AA1  	INCF __div_16_1_00003_arg_a, F
0275  1903  	BTFSC STATUS,Z
0276  0AA2  	INCF __div_16_1_00003_arg_a+D'1', F
0277  0AA6  	INCF CompTempVar2227, F
0278        label29
0278  30E8  	MOVLW 0xE8
0279  1683  	BSF STATUS, RP0
027A  00A3  	MOVWF __div_16_1_00003_arg_b
027B  3003  	MOVLW 0x03
027C  00A4  	MOVWF __div_16_1_00003_arg_b+D'1'
027D  2071  	CALL __div_16_1_00003
027E  082A  	MOVF CompTempVarRet214, W
027F  00A5  	MOVWF CompTempVar2226
0280  1C26  	BTFSS CompTempVar2227,0
0281  2A84  	GOTO	label30
0282  09A5  	COMF CompTempVar2226, F
0283  0AA5  	INCF CompTempVar2226, F
0284        label30
0284  0825  	MOVF CompTempVar2226, W
0285  00A0  	MOVWF FCD_LCDDis_0005C_1_tmp_byte
0286  0820  	MOVF FCD_LCDDis_0005C_1_tmp_byte, W
0287  3E30  	ADDLW 0x30
0288  00B3  	MOVWF FCD_LCDDis_00066_arg_in
0289  3010  	MOVLW 0x10
028A  00B4  	MOVWF FCD_LCDDis_00066_arg_mask
028B  20CB  	CALL FCD_LCDDis_00066
028C        label31
028C  0820  	MOVF FCD_LCDDis_0005C_1_tmp_byte, W
028D  3C00  	SUBLW 0x00
028E  1803  	BTFSC STATUS,C
028F  2A9A  	GOTO	label32
0290  30E8  	MOVLW 0xE8
0291  1283  	BCF STATUS, RP0
0292  02FD  	SUBWF FCD_LCDDis_0005C_1_tmp_int, F
0293  3003  	MOVLW 0x03
0294  1C03  	BTFSS STATUS,C
0295  3004  	MOVLW 0x04
0296  02FE  	SUBWF FCD_LCDDis_0005C_1_tmp_int+D'1', F
0297  1683  	BSF STATUS, RP0
0298  03A0  	DECF FCD_LCDDis_0005C_1_tmp_byte, F
0299  2A8C  	GOTO	label31
029A        label32
029A  1283  	BCF STATUS, RP0
029B  087C  	MOVF FCD_LCDDis_0005C_arg_Number+D'1', W
029C  3A80  	XORLW 0x80
029D  1683  	BSF STATUS, RP0
029E  00A1  	MOVWF CompTempVar2230
029F  3080  	MOVLW 0x80
02A0  0221  	SUBWF CompTempVar2230, W
02A1  1D03  	BTFSS STATUS,Z
02A2  2AA6  	GOTO	label33
02A3  3064  	MOVLW 0x64
02A4  1283  	BCF STATUS, RP0
02A5  027B  	SUBWF FCD_LCDDis_0005C_arg_Number, W
02A6        label33
02A6  1C03  	BTFSS STATUS,C
02A7  2ADC  	GOTO	label37
02A8  1683  	BSF STATUS, RP0
02A9  01A6  	CLRF CompTempVar2232
02AA  1283  	BCF STATUS, RP0
02AB  087D  	MOVF FCD_LCDDis_0005C_1_tmp_int, W
02AC  1683  	BSF STATUS, RP0
02AD  00A1  	MOVWF __div_16_1_00003_arg_a
02AE  1283  	BCF STATUS, RP0
02AF  087E  	MOVF FCD_LCDDis_0005C_1_tmp_int+D'1', W
02B0  1683  	BSF STATUS, RP0
02B1  00A2  	MOVWF __div_16_1_00003_arg_a+D'1'
02B2  1283  	BCF STATUS, RP0
02B3  1FFE  	BTFSS FCD_LCDDis_0005C_1_tmp_int+D'1',7
02B4  2ABC  	GOTO	label34
02B5  1683  	BSF STATUS, RP0
02B6  09A1  	COMF __div_16_1_00003_arg_a, F
02B7  09A2  	COMF __div_16_1_00003_arg_a+D'1', F
02B8  0AA1  	INCF __div_16_1_00003_arg_a, F
02B9  1903  	BTFSC STATUS,Z
02BA  0AA2  	INCF __div_16_1_00003_arg_a+D'1', F
02BB  0AA6  	INCF CompTempVar2232, F
02BC        label34
02BC  3064  	MOVLW 0x64
02BD  1683  	BSF STATUS, RP0
02BE  00A3  	MOVWF __div_16_1_00003_arg_b
02BF  01A4  	CLRF __div_16_1_00003_arg_b+D'1'
02C0  2071  	CALL __div_16_1_00003
02C1  082A  	MOVF CompTempVarRet214, W
02C2  00A5  	MOVWF CompTempVar2231
02C3  1C26  	BTFSS CompTempVar2232,0
02C4  2AC7  	GOTO	label35
02C5  09A5  	COMF CompTempVar2231, F
02C6  0AA5  	INCF CompTempVar2231, F
02C7        label35
02C7  0825  	MOVF CompTempVar2231, W
02C8  00A0  	MOVWF FCD_LCDDis_0005C_1_tmp_byte
02C9  0820  	MOVF FCD_LCDDis_0005C_1_tmp_byte, W
02CA  3E30  	ADDLW 0x30
02CB  00B3  	MOVWF FCD_LCDDis_00066_arg_in
02CC  3010  	MOVLW 0x10
02CD  00B4  	MOVWF FCD_LCDDis_00066_arg_mask
02CE  20CB  	CALL FCD_LCDDis_00066
02CF        label36
02CF  0820  	MOVF FCD_LCDDis_0005C_1_tmp_byte, W
02D0  3C00  	SUBLW 0x00
02D1  1803  	BTFSC STATUS,C
02D2  2ADC  	GOTO	label37
02D3  3064  	MOVLW 0x64
02D4  1283  	BCF STATUS, RP0
02D5  02FD  	SUBWF FCD_LCDDis_0005C_1_tmp_int, F
02D6  08FE  	MOVF FCD_LCDDis_0005C_1_tmp_int+D'1', F
02D7  1C03  	BTFSS STATUS,C
02D8  03FE  	DECF FCD_LCDDis_0005C_1_tmp_int+D'1', F
02D9  1683  	BSF STATUS, RP0
02DA  03A0  	DECF FCD_LCDDis_0005C_1_tmp_byte, F
02DB  2ACF  	GOTO	label36
02DC        label37
02DC  1283  	BCF STATUS, RP0
02DD  087C  	MOVF FCD_LCDDis_0005C_arg_Number+D'1', W
02DE  3A80  	XORLW 0x80
02DF  1683  	BSF STATUS, RP0
02E0  00A1  	MOVWF CompTempVar2235
02E1  3080  	MOVLW 0x80
02E2  0221  	SUBWF CompTempVar2235, W
02E3  1D03  	BTFSS STATUS,Z
02E4  2AE8  	GOTO	label38
02E5  300A  	MOVLW 0x0A
02E6  1283  	BCF STATUS, RP0
02E7  027B  	SUBWF FCD_LCDDis_0005C_arg_Number, W
02E8        label38
02E8  1C03  	BTFSS STATUS,C
02E9  2B1E  	GOTO	label42
02EA  1683  	BSF STATUS, RP0
02EB  01A6  	CLRF CompTempVar2237
02EC  1283  	BCF STATUS, RP0
02ED  087D  	MOVF FCD_LCDDis_0005C_1_tmp_int, W
02EE  1683  	BSF STATUS, RP0
02EF  00A1  	MOVWF __div_16_1_00003_arg_a
02F0  1283  	BCF STATUS, RP0
02F1  087E  	MOVF FCD_LCDDis_0005C_1_tmp_int+D'1', W
02F2  1683  	BSF STATUS, RP0
02F3  00A2  	MOVWF __div_16_1_00003_arg_a+D'1'
02F4  1283  	BCF STATUS, RP0
02F5  1FFE  	BTFSS FCD_LCDDis_0005C_1_tmp_int+D'1',7
02F6  2AFE  	GOTO	label39
02F7  1683  	BSF STATUS, RP0
02F8  09A1  	COMF __div_16_1_00003_arg_a, F
02F9  09A2  	COMF __div_16_1_00003_arg_a+D'1', F
02FA  0AA1  	INCF __div_16_1_00003_arg_a, F
02FB  1903  	BTFSC STATUS,Z
02FC  0AA2  	INCF __div_16_1_00003_arg_a+D'1', F
02FD  0AA6  	INCF CompTempVar2237, F
02FE        label39
02FE  300A  	MOVLW 0x0A
02FF  1683  	BSF STATUS, RP0
0300  00A3  	MOVWF __div_16_1_00003_arg_b
0301  01A4  	CLRF __div_16_1_00003_arg_b+D'1'
0302  2071  	CALL __div_16_1_00003
0303  082A  	MOVF CompTempVarRet214, W
0304  00A5  	MOVWF CompTempVar2236
0305  1C26  	BTFSS CompTempVar2237,0
0306  2B09  	GOTO	label40
0307  09A5  	COMF CompTempVar2236, F
0308  0AA5  	INCF CompTempVar2236, F
0309        label40
0309  0825  	MOVF CompTempVar2236, W
030A  00A0  	MOVWF FCD_LCDDis_0005C_1_tmp_byte
030B  0820  	MOVF FCD_LCDDis_0005C_1_tmp_byte, W
030C  3E30  	ADDLW 0x30
030D  00B3  	MOVWF FCD_LCDDis_00066_arg_in
030E  3010  	MOVLW 0x10
030F  00B4  	MOVWF FCD_LCDDis_00066_arg_mask
0310  20CB  	CALL FCD_LCDDis_00066
0311        label41
0311  0820  	MOVF FCD_LCDDis_0005C_1_tmp_byte, W
0312  3C00  	SUBLW 0x00
0313  1803  	BTFSC STATUS,C
0314  2B1E  	GOTO	label42
0315  300A  	MOVLW 0x0A
0316  1283  	BCF STATUS, RP0
0317  02FD  	SUBWF FCD_LCDDis_0005C_1_tmp_int, F
0318  08FE  	MOVF FCD_LCDDis_0005C_1_tmp_int+D'1', F
0319  1C03  	BTFSS STATUS,C
031A  03FE  	DECF FCD_LCDDis_0005C_1_tmp_int+D'1', F
031B  1683  	BSF STATUS, RP0
031C  03A0  	DECF FCD_LCDDis_0005C_1_tmp_byte, F
031D  2B11  	GOTO	label41
031E        label42
031E  1283  	BCF STATUS, RP0
031F  087D  	MOVF FCD_LCDDis_0005C_1_tmp_int, W
0320  3E30  	ADDLW 0x30
0321  1683  	BSF STATUS, RP0
0322  00B3  	MOVWF FCD_LCDDis_00066_arg_in
0323  3010  	MOVLW 0x10
0324  00B4  	MOVWF FCD_LCDDis_00066_arg_mask
0325  20CB  	CALL FCD_LCDDis_00066
0326  0008  	RETURN
0327        ; } FCD_LCDDisplay0_PrintNumber function end

	ORG 0x00000327
0327        FCD_LCDDis_0005A
0327        ; { FCD_LCDDisplay0_PrintString ; function begin
0327  01B2  	CLRF FCD_LCDDis_0005A_1_idx
0328  01B2  	CLRF FCD_LCDDis_0005A_1_idx
0329        label43
0329  0831  	MOVF FCD_LCDDis_0005A_arg_MSZ_String, W
032A  0232  	SUBWF FCD_LCDDis_0005A_1_idx, W
032B  1803  	BTFSC STATUS,C
032C  0008  	RETURN
032D  1383  	BCF STATUS,IRP
032E  1283  	BCF STATUS, RP0
032F  187C  	BTFSC FCD_LCDDis_0005A_arg_String+D'1',0
0330  1783  	BSF STATUS,IRP
0331  087B  	MOVF FCD_LCDDis_0005A_arg_String, W
0332  1683  	BSF STATUS, RP0
0333  0732  	ADDWF FCD_LCDDis_0005A_1_idx, W
0334  0084  	MOVWF FSR
0335  0880  	MOVF INDF, F
0336  1903  	BTFSC STATUS,Z
0337  0008  	RETURN
0338  1383  	BCF STATUS,IRP
0339  1283  	BCF STATUS, RP0
033A  187C  	BTFSC FCD_LCDDis_0005A_arg_String+D'1',0
033B  1783  	BSF STATUS,IRP
033C  087B  	MOVF FCD_LCDDis_0005A_arg_String, W
033D  1683  	BSF STATUS, RP0
033E  0732  	ADDWF FCD_LCDDis_0005A_1_idx, W
033F  0084  	MOVWF FSR
0340  0800  	MOVF INDF, W
0341  00B3  	MOVWF FCD_LCDDis_00066_arg_in
0342  3010  	MOVLW 0x10
0343  00B4  	MOVWF FCD_LCDDis_00066_arg_mask
0344  20CB  	CALL FCD_LCDDis_00066
0345  0AB2  	INCF FCD_LCDDis_0005A_1_idx, F
0346  2B29  	GOTO	label43
0347        ; } FCD_LCDDisplay0_PrintString function end

	ORG 0x00000347
0347        FCD_LCDDis_00059
0347        ; { FCD_LCDDisplay0_Cursor ; function begin
0347  08A0  	MOVF FCD_LCDDis_00059_arg_y, F
0348  1D03  	BTFSS STATUS,Z
0349  2B4D  	GOTO	label44
034A  3080  	MOVLW 0x80
034B  00A0  	MOVWF FCD_LCDDis_00059_arg_y
034C  2B5C  	GOTO	label47
034D        label44
034D  0320  	DECF FCD_LCDDis_00059_arg_y, W
034E  1D03  	BTFSS STATUS,Z
034F  2B53  	GOTO	label45
0350  30C0  	MOVLW 0xC0
0351  00A0  	MOVWF FCD_LCDDis_00059_arg_y
0352  2B5C  	GOTO	label47
0353        label45
0353  0820  	MOVF FCD_LCDDis_00059_arg_y, W
0354  3A02  	XORLW 0x02
0355  1D03  	BTFSS STATUS,Z
0356  2B5A  	GOTO	label46
0357  3090  	MOVLW 0x90
0358  00A0  	MOVWF FCD_LCDDis_00059_arg_y
0359  2B5C  	GOTO	label47
035A        label46
035A  30D0  	MOVLW 0xD0
035B  00A0  	MOVWF FCD_LCDDis_00059_arg_y
035C        label47
035C  1283  	BCF STATUS, RP0
035D  087E  	MOVF FCD_LCDDis_00059_arg_x, W
035E  1683  	BSF STATUS, RP0
035F  0720  	ADDWF FCD_LCDDis_00059_arg_y, W
0360  00B3  	MOVWF FCD_LCDDis_00066_arg_in
0361  01B4  	CLRF FCD_LCDDis_00066_arg_mask
0362  20CB  	CALL FCD_LCDDis_00066
0363  3002  	MOVLW 0x02
0364  00A1  	MOVWF Wdt_Delay__0003E_arg_delay
0365  2090  	CALL Wdt_Delay__0003E
0366  0008  	RETURN
0367        ; } FCD_LCDDisplay0_Cursor function end

	ORG 0x00000367
0367        FC_CAL_SPI_0006D
0367        ; { FC_CAL_SPI_Master_Init_1 ; function begin
0367  1683  	BSF STATUS, RP0
0368  1303  	BCF STATUS, RP1
0369  1287  	BCF gbl_trisc,5
036A  1283  	BCF STATUS, RP0
036B  1687  	BSF gbl_portc,5
036C  1683  	BSF STATUS, RP0
036D  1607  	BSF gbl_trisc,4
036E  1187  	BCF gbl_trisc,3
036F  1283  	BCF STATUS, RP0
0370  1187  	BCF gbl_portc,3
0371  3001  	MOVLW 0x01
0372  0094  	MOVWF gbl_sspcon
0373  1214  	BCF gbl_sspcon,4
0374  1683  	BSF STATUS, RP0
0375  1714  	BSF gbl_sspstat,6
0376  1794  	BSF gbl_sspstat,7
0377  1283  	BCF STATUS, RP0
0378  1694  	BSF gbl_sspcon,5
0379  0008  	RETURN
037A        ; } FC_CAL_SPI_Master_Init_1 function end

	ORG 0x0000037A
037A        FCM_read_p_00061
037A        ; { FCM_read_payload ; function begin
037A  30FB  	MOVLW 0xFB
037B  1683  	BSF STATUS, RP0
037C  1303  	BCF STATUS, RP1
037D  0507  	ANDWF gbl_trisc, W
037E  0087  	MOVWF gbl_trisc
037F  30FB  	MOVLW 0xFB
0380  1283  	BCF STATUS, RP0
0381  0507  	ANDWF gbl_portc, W
0382  0087  	MOVWF gbl_portc
0383  3005  	MOVLW 0x05
0384  00FC  	MOVWF delay_us_00000_arg_del
0385  2010  	CALL delay_us_00000
0386  3061  	MOVLW 0x61
0387  00FC  	MOVWF FCD_SPI_Le_00052_arg_Char
0388  206D  	CALL FCD_SPI_Le_00052
0389  1283  	BCF STATUS, RP0
038A  0871  	MOVF gbl_FCV_PAYLOAD_SIZE, W
038B  00F4  	MOVWF gbl_FCV_LOOP_COUNT
038C  01EB  	CLRF gbl_FCV_ARRAY_SUB
038D        label48
038D  01FB  	CLRF CompTempVar2295
038E  0AFB  	INCF CompTempVar2295, F
038F  08F4  	MOVF gbl_FCV_LOOP_COUNT, F
0390  1D03  	BTFSS STATUS,Z
0391  107B  	BCF CompTempVar2295,0
0392  08FB  	MOVF CompTempVar2295, F
0393  1D03  	BTFSS STATUS,Z
0394  2BA2  	GOTO	label49
0395  20BF  	CALL FCD_SPI_Le_00054
0396  1383  	BCF	STATUS,IRP
0397  3020  	MOVLW LOW(gbl_FCV_PAYLOAD+D'0')
0398  0084  	MOVWF FSR
0399  086B  	MOVF gbl_FCV_ARRAY_SUB, W
039A  0784  	ADDWF FSR, F
039B  087D  	MOVF CompTempVarRet2190, W
039C  0080  	MOVWF INDF
039D  0374  	DECF gbl_FCV_LOOP_COUNT, W
039E  00F4  	MOVWF gbl_FCV_LOOP_COUNT
039F  0A6B  	INCF gbl_FCV_ARRAY_SUB, W
03A0  00EB  	MOVWF gbl_FCV_ARRAY_SUB
03A1  2B8D  	GOTO	label48
03A2        label49
03A2  30FB  	MOVLW 0xFB
03A3  1683  	BSF STATUS, RP0
03A4  0507  	ANDWF gbl_trisc, W
03A5  0087  	MOVWF gbl_trisc
03A6  30FB  	MOVLW 0xFB
03A7  1283  	BCF STATUS, RP0
03A8  0507  	ANDWF gbl_portc, W
03A9  00FC  	MOVWF CompTempVar2297
03AA  3004  	MOVLW 0x04
03AB  047C  	IORWF CompTempVar2297, W
03AC  0087  	MOVWF gbl_portc
03AD  3005  	MOVLW 0x05
03AE  00FC  	MOVWF delay_us_00000_arg_del
03AF  2010  	CALL delay_us_00000
03B0  0008  	RETURN
03B1        ; } FCM_read_payload function end

	ORG 0x000003B1
03B1        FCM_read_a_0005F
03B1        ; { FCM_read_addr ; function begin
03B1  3010  	MOVLW 0x10
03B2  1283  	BCF STATUS, RP0
03B3  1303  	BCF STATUS, RP1
03B4  00F7  	MOVWF gbl_FCV_REG_TO_READ
03B5  30FB  	MOVLW 0xFB
03B6  1683  	BSF STATUS, RP0
03B7  0507  	ANDWF gbl_trisc, W
03B8  0087  	MOVWF gbl_trisc
03B9  30FB  	MOVLW 0xFB
03BA  1283  	BCF STATUS, RP0
03BB  0507  	ANDWF gbl_portc, W
03BC  0087  	MOVWF gbl_portc
03BD  3005  	MOVLW 0x05
03BE  00FC  	MOVWF delay_us_00000_arg_del
03BF  2010  	CALL delay_us_00000
03C0  0877  	MOVF gbl_FCV_REG_TO_READ, W
03C1  00FC  	MOVWF FCD_SPI_Le_00052_arg_Char
03C2  206D  	CALL FCD_SPI_Le_00052
03C3  20BF  	CALL FCD_SPI_Le_00054
03C4  087D  	MOVF CompTempVarRet2190, W
03C5  00C0  	MOVWF gbl_FCV_NRF_ADDRESS
03C6  20BF  	CALL FCD_SPI_Le_00054
03C7  087D  	MOVF CompTempVarRet2190, W
03C8  00C1  	MOVWF gbl_FCV_NRF_ADDRESS+D'1'
03C9  20BF  	CALL FCD_SPI_Le_00054
03CA  087D  	MOVF CompTempVarRet2190, W
03CB  00C2  	MOVWF gbl_FCV_NRF_ADDRESS+D'2'
03CC  20BF  	CALL FCD_SPI_Le_00054
03CD  087D  	MOVF CompTempVarRet2190, W
03CE  00C3  	MOVWF gbl_FCV_NRF_ADDRESS+D'3'
03CF  20BF  	CALL FCD_SPI_Le_00054
03D0  087D  	MOVF CompTempVarRet2190, W
03D1  00C4  	MOVWF gbl_FCV_NRF_ADDRESS+D'4'
03D2  30FB  	MOVLW 0xFB
03D3  1683  	BSF STATUS, RP0
03D4  0507  	ANDWF gbl_trisc, W
03D5  0087  	MOVWF gbl_trisc
03D6  30FB  	MOVLW 0xFB
03D7  1283  	BCF STATUS, RP0
03D8  0507  	ANDWF gbl_portc, W
03D9  00FB  	MOVWF CompTempVar2293
03DA  3004  	MOVLW 0x04
03DB  047B  	IORWF CompTempVar2293, W
03DC  0087  	MOVWF gbl_portc
03DD  3005  	MOVLW 0x05
03DE  00FC  	MOVWF delay_us_00000_arg_del
03DF  2010  	CALL delay_us_00000
03E0  0008  	RETURN
03E1        ; } FCM_read_addr function end

	ORG 0x000003E1
03E1        FCM_rcv_in_0005E
03E1        ; { FCM_rcv_init ; function begin
03E1  1283  	BCF STATUS, RP0
03E2  1303  	BCF STATUS, RP1
03E3  01EE  	CLRF gbl_FCV_REG_TO_WRITE
03E4  300F  	MOVLW 0x0F
03E5  00EC  	MOVWF gbl_FCV_SPI_WRT_DATA
03E6  209B  	CALL FCM_spi_da_00051
03E7  3001  	MOVLW 0x01
03E8  00EE  	MOVWF gbl_FCV_REG_TO_WRITE
03E9  303F  	MOVLW 0x3F
03EA  00EC  	MOVWF gbl_FCV_SPI_WRT_DATA
03EB  209B  	CALL FCM_spi_da_00051
03EC  3002  	MOVLW 0x02
03ED  00EE  	MOVWF gbl_FCV_REG_TO_WRITE
03EE  3003  	MOVLW 0x03
03EF  00EC  	MOVWF gbl_FCV_SPI_WRT_DATA
03F0  209B  	CALL FCM_spi_da_00051
03F1  3003  	MOVLW 0x03
03F2  00EE  	MOVWF gbl_FCV_REG_TO_WRITE
03F3  00EC  	MOVWF gbl_FCV_SPI_WRT_DATA
03F4  209B  	CALL FCM_spi_da_00051
03F5  3004  	MOVLW 0x04
03F6  00EE  	MOVWF gbl_FCV_REG_TO_WRITE
03F7  305F  	MOVLW 0x5F
03F8  00EC  	MOVWF gbl_FCV_SPI_WRT_DATA
03F9  209B  	CALL FCM_spi_da_00051
03FA  3005  	MOVLW 0x05
03FB  00EE  	MOVWF gbl_FCV_REG_TO_WRITE
03FC  304C  	MOVLW 0x4C
03FD  00EC  	MOVWF gbl_FCV_SPI_WRT_DATA
03FE  209B  	CALL FCM_spi_da_00051
03FF  3006  	MOVLW 0x06
0400  00EE  	MOVWF gbl_FCV_REG_TO_WRITE
0401  3027  	MOVLW 0x27
0402  00EC  	MOVWF gbl_FCV_SPI_WRT_DATA
0403  209B  	CALL FCM_spi_da_00051
0404  3011  	MOVLW 0x11
0405  00EE  	MOVWF gbl_FCV_REG_TO_WRITE
0406  0871  	MOVF gbl_FCV_PAYLOAD_SIZE, W
0407  00EC  	MOVWF gbl_FCV_SPI_WRT_DATA
0408  209B  	CALL FCM_spi_da_00051
0409  2157  	CALL FCM_setup__00064
040A  21FA  	CALL FCM_nrf_cl_00065
040B  21C2  	CALL FCM_nrf_fl_00063
040C  0008  	RETURN
040D        ; } FCM_rcv_init function end

	ORG 0x0000040D
040D        FCM_displa_0005B
040D        ; { FCM_display_test ; function begin
040D  1283  	BCF STATUS, RP0
040E  1303  	BCF STATUS, RP1
040F  01FE  	CLRF FCD_LCDDis_00059_arg_x
0410  3001  	MOVLW 0x01
0411  1683  	BSF STATUS, RP0
0412  00A0  	MOVWF FCD_LCDDis_00059_arg_y
0413  2347  	CALL FCD_LCDDis_00059
0414  1283  	BCF STATUS, RP0
0415  086D  	MOVF gbl_FCV_NRF_REG00, W
0416  00FB  	MOVWF FCD_LCDDis_0005C_arg_Number
0417  01FC  	CLRF FCD_LCDDis_0005C_arg_Number+D'1'
0418  2202  	CALL FCD_LCDDis_0005C
0419  3004  	MOVLW 0x04
041A  1283  	BCF STATUS, RP0
041B  00FE  	MOVWF FCD_LCDDis_00059_arg_x
041C  3001  	MOVLW 0x01
041D  1683  	BSF STATUS, RP0
041E  00A0  	MOVWF FCD_LCDDis_00059_arg_y
041F  2347  	CALL FCD_LCDDis_00059
0420  1283  	BCF STATUS, RP0
0421  086F  	MOVF gbl_FCV_NRF_REG01, W
0422  00FB  	MOVWF FCD_LCDDis_0005C_arg_Number
0423  01FC  	CLRF FCD_LCDDis_0005C_arg_Number+D'1'
0424  2202  	CALL FCD_LCDDis_0005C
0425  3008  	MOVLW 0x08
0426  1283  	BCF STATUS, RP0
0427  00FE  	MOVWF FCD_LCDDis_00059_arg_x
0428  3001  	MOVLW 0x01
0429  1683  	BSF STATUS, RP0
042A  00A0  	MOVWF FCD_LCDDis_00059_arg_y
042B  2347  	CALL FCD_LCDDis_00059
042C  1283  	BCF STATUS, RP0
042D  0870  	MOVF gbl_FCV_NRF_REG02, W
042E  00FB  	MOVWF FCD_LCDDis_0005C_arg_Number
042F  01FC  	CLRF FCD_LCDDis_0005C_arg_Number+D'1'
0430  2202  	CALL FCD_LCDDis_0005C
0431  1283  	BCF STATUS, RP0
0432  01FE  	CLRF FCD_LCDDis_00059_arg_x
0433  3002  	MOVLW 0x02
0434  1683  	BSF STATUS, RP0
0435  00A0  	MOVWF FCD_LCDDis_00059_arg_y
0436  2347  	CALL FCD_LCDDis_00059
0437  1283  	BCF STATUS, RP0
0438  0872  	MOVF gbl_FCV_NRF_REG03, W
0439  00FB  	MOVWF FCD_LCDDis_0005C_arg_Number
043A  01FC  	CLRF FCD_LCDDis_0005C_arg_Number+D'1'
043B  2202  	CALL FCD_LCDDis_0005C
043C  3004  	MOVLW 0x04
043D  1283  	BCF STATUS, RP0
043E  00FE  	MOVWF FCD_LCDDis_00059_arg_x
043F  3002  	MOVLW 0x02
0440  1683  	BSF STATUS, RP0
0441  00A0  	MOVWF FCD_LCDDis_00059_arg_y
0442  2347  	CALL FCD_LCDDis_00059
0443  1283  	BCF STATUS, RP0
0444  0876  	MOVF gbl_FCV_NRF_REG04, W
0445  00FB  	MOVWF FCD_LCDDis_0005C_arg_Number
0446  01FC  	CLRF FCD_LCDDis_0005C_arg_Number+D'1'
0447  2202  	CALL FCD_LCDDis_0005C
0448  3008  	MOVLW 0x08
0449  1283  	BCF STATUS, RP0
044A  00FE  	MOVWF FCD_LCDDis_00059_arg_x
044B  3002  	MOVLW 0x02
044C  1683  	BSF STATUS, RP0
044D  00A0  	MOVWF FCD_LCDDis_00059_arg_y
044E  2347  	CALL FCD_LCDDis_00059
044F  1283  	BCF STATUS, RP0
0450  0878  	MOVF gbl_FCV_NRF_REG05, W
0451  00FB  	MOVWF FCD_LCDDis_0005C_arg_Number
0452  01FC  	CLRF FCD_LCDDis_0005C_arg_Number+D'1'
0453  2202  	CALL FCD_LCDDis_0005C
0454  1283  	BCF STATUS, RP0
0455  01FE  	CLRF FCD_LCDDis_00059_arg_x
0456  3003  	MOVLW 0x03
0457  1683  	BSF STATUS, RP0
0458  00A0  	MOVWF FCD_LCDDis_00059_arg_y
0459  2347  	CALL FCD_LCDDis_00059
045A  1283  	BCF STATUS, RP0
045B  0869  	MOVF gbl_FCV_NRF_REG06, W
045C  00FB  	MOVWF FCD_LCDDis_0005C_arg_Number
045D  01FC  	CLRF FCD_LCDDis_0005C_arg_Number+D'1'
045E  2202  	CALL FCD_LCDDis_0005C
045F  1283  	BCF STATUS, RP0
0460  01DF  	CLRF gbl_FCV_FUNCTION_TEST_VAR+D'1'
0461  086F  	MOVF gbl_FCV_NRF_REG01, W
0462  076D  	ADDWF gbl_FCV_NRF_REG00, W
0463  00DE  	MOVWF gbl_FCV_FUNCTION_TEST_VAR
0464  1803  	BTFSC STATUS,C
0465  0ADF  	INCF gbl_FCV_FUNCTION_TEST_VAR+D'1', F
0466  0870  	MOVF gbl_FCV_NRF_REG02, W
0467  07DE  	ADDWF gbl_FCV_FUNCTION_TEST_VAR, F
0468  1803  	BTFSC STATUS,C
0469  0ADF  	INCF gbl_FCV_FUNCTION_TEST_VAR+D'1', F
046A  0872  	MOVF gbl_FCV_NRF_REG03, W
046B  07DE  	ADDWF gbl_FCV_FUNCTION_TEST_VAR, F
046C  1803  	BTFSC STATUS,C
046D  0ADF  	INCF gbl_FCV_FUNCTION_TEST_VAR+D'1', F
046E  0876  	MOVF gbl_FCV_NRF_REG04, W
046F  07DE  	ADDWF gbl_FCV_FUNCTION_TEST_VAR, F
0470  1803  	BTFSC STATUS,C
0471  0ADF  	INCF gbl_FCV_FUNCTION_TEST_VAR+D'1', F
0472  0878  	MOVF gbl_FCV_NRF_REG05, W
0473  07DE  	ADDWF gbl_FCV_FUNCTION_TEST_VAR, F
0474  1803  	BTFSC STATUS,C
0475  0ADF  	INCF gbl_FCV_FUNCTION_TEST_VAR+D'1', F
0476  0869  	MOVF gbl_FCV_NRF_REG06, W
0477  07DE  	ADDWF gbl_FCV_FUNCTION_TEST_VAR, F
0478  1803  	BTFSC STATUS,C
0479  0ADF  	INCF gbl_FCV_FUNCTION_TEST_VAR+D'1', F
047A  3004  	MOVLW 0x04
047B  00FE  	MOVWF FCD_LCDDis_00059_arg_x
047C  3003  	MOVLW 0x03
047D  1683  	BSF STATUS, RP0
047E  00A0  	MOVWF FCD_LCDDis_00059_arg_y
047F  2347  	CALL FCD_LCDDis_00059
0480  3061  	MOVLW 0x61
0481  1283  	BCF STATUS, RP0
0482  065E  	XORWF gbl_FCV_FUNCTION_TEST_VAR, W
0483  1903  	BTFSC STATUS,Z
0484  085F  	MOVF gbl_FCV_FUNCTION_TEST_VAR+D'1', W
0485  1D03  	BTFSS STATUS,Z
0486  2CAC  	GOTO	label50
0487  3050  	MOVLW 0x50
0488  1683  	BSF STATUS, RP0
0489  00A0  	MOVWF CompTempVar2214
048A  3041  	MOVLW 0x41
048B  00A1  	MOVWF CompTempVar2214+D'1'
048C  3053  	MOVLW 0x53
048D  00A2  	MOVWF CompTempVar2214+D'2'
048E  00A3  	MOVWF CompTempVar2214+D'3'
048F  3045  	MOVLW 0x45
0490  00A4  	MOVWF CompTempVar2214+D'4'
0491  3044  	MOVLW 0x44
0492  00A5  	MOVWF CompTempVar2214+D'5'
0493  3021  	MOVLW 0x21
0494  00A6  	MOVWF CompTempVar2214+D'6'
0495  00A7  	MOVWF CompTempVar2214+D'7'
0496  00A8  	MOVWF CompTempVar2214+D'8'
0497  01A9  	CLRF CompTempVar2214+D'9'
0498  3000  	MOVLW HIGH(CompTempVar2214+D'0')
0499  1283  	BCF STATUS, RP0
049A  00FC  	MOVWF FCD_LCDDis_0005A_arg_String+D'1'
049B  30A0  	MOVLW LOW(CompTempVar2214+D'0')
049C  00FB  	MOVWF FCD_LCDDis_0005A_arg_String
049D  3009  	MOVLW 0x09
049E  1683  	BSF STATUS, RP0
049F  00B1  	MOVWF FCD_LCDDis_0005A_arg_MSZ_String
04A0  2327  	CALL FCD_LCDDis_0005A
04A1  30DF  	MOVLW 0xDF
04A2  0505  	ANDWF gbl_trisa, W
04A3  0085  	MOVWF gbl_trisa
04A4  30DF  	MOVLW 0xDF
04A5  1283  	BCF STATUS, RP0
04A6  0505  	ANDWF gbl_porta, W
04A7  00FB  	MOVWF CompTempVar2216
04A8  3020  	MOVLW 0x20
04A9  047B  	IORWF CompTempVar2216, W
04AA  0085  	MOVWF gbl_porta
04AB  0008  	RETURN
04AC        label50
04AC  3046  	MOVLW 0x46
04AD  1683  	BSF STATUS, RP0
04AE  00A0  	MOVWF CompTempVar2217
04AF  3041  	MOVLW 0x41
04B0  00A1  	MOVWF CompTempVar2217+D'1'
04B1  3049  	MOVLW 0x49
04B2  00A2  	MOVWF CompTempVar2217+D'2'
04B3  304C  	MOVLW 0x4C
04B4  00A3  	MOVWF CompTempVar2217+D'3'
04B5  3045  	MOVLW 0x45
04B6  00A4  	MOVWF CompTempVar2217+D'4'
04B7  3044  	MOVLW 0x44
04B8  00A5  	MOVWF CompTempVar2217+D'5'
04B9  3021  	MOVLW 0x21
04BA  00A6  	MOVWF CompTempVar2217+D'6'
04BB  00A7  	MOVWF CompTempVar2217+D'7'
04BC  00A8  	MOVWF CompTempVar2217+D'8'
04BD  01A9  	CLRF CompTempVar2217+D'9'
04BE  3000  	MOVLW HIGH(CompTempVar2217+D'0')
04BF  1283  	BCF STATUS, RP0
04C0  00FC  	MOVWF FCD_LCDDis_0005A_arg_String+D'1'
04C1  30A0  	MOVLW LOW(CompTempVar2217+D'0')
04C2  00FB  	MOVWF FCD_LCDDis_0005A_arg_String
04C3  3009  	MOVLW 0x09
04C4  1683  	BSF STATUS, RP0
04C5  00B1  	MOVWF FCD_LCDDis_0005A_arg_MSZ_String
04C6  2327  	CALL FCD_LCDDis_0005A
04C7  30FE  	MOVLW 0xFE
04C8  0507  	ANDWF gbl_trisc, W
04C9  0087  	MOVWF gbl_trisc
04CA  30FE  	MOVLW 0xFE
04CB  1283  	BCF STATUS, RP0
04CC  0507  	ANDWF gbl_portc, W
04CD  00FB  	MOVWF CompTempVar2219
04CE  3001  	MOVLW 0x01
04CF  047B  	IORWF CompTempVar2219, W
04D0  0087  	MOVWF gbl_portc
04D1  0008  	RETURN
04D2        ; } FCM_display_test function end

	ORG 0x000004D2
04D2        FCM_check__00060
04D2        ; { FCM_check_fifo_status ; function begin
04D2  3017  	MOVLW 0x17
04D3  1283  	BCF STATUS, RP0
04D4  1303  	BCF STATUS, RP1
04D5  00F7  	MOVWF gbl_FCV_REG_TO_READ
04D6  2136  	CALL FCM_spi_da_00053
04D7  0875  	MOVF gbl_FCV_SPI_RCV_DATA, W
04D8  00F3  	MOVWF gbl_FCV_FIFO_STATUS_REG
04D9  0008  	RETURN
04DA        ; } FCM_check_fifo_status function end

	ORG 0x000004DA
04DA        FCD_LCDDis_00062
04DA        ; { FCD_LCDDisplay0_ClearLine ; function begin
04DA  3010  	MOVLW 0x10
04DB  00FD  	MOVWF FCD_LCDDis_00062_1_rowcount
04DC  01FE  	CLRF FCD_LCDDis_00059_arg_x
04DD  087B  	MOVF FCD_LCDDis_00062_arg_Line, W
04DE  1683  	BSF STATUS, RP0
04DF  00A0  	MOVWF FCD_LCDDis_00059_arg_y
04E0  2347  	CALL FCD_LCDDis_00059
04E1  1283  	BCF STATUS, RP0
04E2  01FC  	CLRF FCD_LCDDis_00062_1_count
04E3        label51
04E3  087D  	MOVF FCD_LCDDis_00062_1_rowcount, W
04E4  027C  	SUBWF FCD_LCDDis_00062_1_count, W
04E5  1803  	BTFSC STATUS,C
04E6  2CF0  	GOTO	label52
04E7  3020  	MOVLW 0x20
04E8  1683  	BSF STATUS, RP0
04E9  00B3  	MOVWF FCD_LCDDis_00066_arg_in
04EA  3010  	MOVLW 0x10
04EB  00B4  	MOVWF FCD_LCDDis_00066_arg_mask
04EC  20CB  	CALL FCD_LCDDis_00066
04ED  1283  	BCF STATUS, RP0
04EE  0AFC  	INCF FCD_LCDDis_00062_1_count, F
04EF  2CE3  	GOTO	label51
04F0        label52
04F0  01FE  	CLRF FCD_LCDDis_00059_arg_x
04F1  087B  	MOVF FCD_LCDDis_00062_arg_Line, W
04F2  1683  	BSF STATUS, RP0
04F3  00A0  	MOVWF FCD_LCDDis_00059_arg_y
04F4  2347  	CALL FCD_LCDDis_00059
04F5  0008  	RETURN
04F6        ; } FCD_LCDDisplay0_ClearLine function end

	ORG 0x000004F6
04F6        FCD_LCDDis_00058
04F6        ; { FCD_LCDDisplay0_Clear ; function begin
04F6  3001  	MOVLW 0x01
04F7  1683  	BSF STATUS, RP0
04F8  1303  	BCF STATUS, RP1
04F9  00B3  	MOVWF FCD_LCDDis_00066_arg_in
04FA  01B4  	CLRF FCD_LCDDis_00066_arg_mask
04FB  20CB  	CALL FCD_LCDDis_00066
04FC  3002  	MOVLW 0x02
04FD  00A1  	MOVWF Wdt_Delay__0003E_arg_delay
04FE  2090  	CALL Wdt_Delay__0003E
04FF  3002  	MOVLW 0x02
0500  00B3  	MOVWF FCD_LCDDis_00066_arg_in
0501  01B4  	CLRF FCD_LCDDis_00066_arg_mask
0502  20CB  	CALL FCD_LCDDis_00066
0503  3002  	MOVLW 0x02
0504  00A1  	MOVWF Wdt_Delay__0003E_arg_delay
0505  2090  	CALL Wdt_Delay__0003E
0506  0008  	RETURN
0507        ; } FCD_LCDDisplay0_Clear function end

	ORG 0x00000507
0507        FCM_rcv_ma_0005D
0507        ; { FCM_rcv_macro ; function begin
0507  23E1  	CALL FCM_rcv_in_0005E
0508  23B1  	CALL FCM_read_a_0005F
0509  3006  	MOVLW 0x06
050A  00FE  	MOVWF FCD_LCDDis_00059_arg_x
050B  3001  	MOVLW 0x01
050C  1683  	BSF STATUS, RP0
050D  00A0  	MOVWF FCD_LCDDis_00059_arg_y
050E  2347  	CALL FCD_LCDDis_00059
050F  3000  	MOVLW HIGH(gbl_FCV_NRF_ADDRESS+D'0')
0510  1283  	BCF STATUS, RP0
0511  00FC  	MOVWF FCD_LCDDis_0005A_arg_String+D'1'
0512  3040  	MOVLW LOW(gbl_FCV_NRF_ADDRESS+D'0')
0513  00FB  	MOVWF FCD_LCDDis_0005A_arg_String
0514  3005  	MOVLW 0x05
0515  1683  	BSF STATUS, RP0
0516  00B1  	MOVWF FCD_LCDDis_0005A_arg_MSZ_String
0517  2327  	CALL FCD_LCDDis_0005A
0518  1283  	BCF STATUS, RP0
0519  10EA  	BCF gbl_FCV_START_FLAG,1
051A        label53
051A  24D2  	CALL FCM_check__00060
051B  0873  	MOVF gbl_FCV_FIFO_STATUS_REG, W
051C  3A12  	XORLW 0x12
051D  158A  	BSF PCLATH,3
051E  1D03  	BTFSS STATUS,Z
051F  2816  	GOTO	label71
0520  30DF  	MOVLW 0xDF
0521  1683  	BSF STATUS, RP0
0522  0505  	ANDWF gbl_trisa, W
0523  0085  	MOVWF gbl_trisa
0524  30DF  	MOVLW 0xDF
0525  1283  	BCF STATUS, RP0
0526  0505  	ANDWF gbl_porta, W
0527  00FB  	MOVWF CompTempVar2243
0528  3020  	MOVLW 0x20
0529  047B  	IORWF CompTempVar2243, W
052A  0085  	MOVWF gbl_porta
052B  118A  	BCF PCLATH,3
052C  237A  	CALL FCM_read_p_00061
052D  3002  	MOVLW 0x02
052E  00FB  	MOVWF FCD_LCDDis_00062_arg_Line
052F  24DA  	CALL FCD_LCDDis_00062
0530  3003  	MOVLW 0x03
0531  1283  	BCF STATUS, RP0
0532  00FB  	MOVWF FCD_LCDDis_00062_arg_Line
0533  24DA  	CALL FCD_LCDDis_00062
0534  1283  	BCF STATUS, RP0
0535  0820  	MOVF gbl_FCV_PAYLOAD, W
0536  3A61  	XORLW 0x61
0537  1903  	BTFSC STATUS,Z
0538  2D4C  	GOTO	label54
0539  3A03  	XORLW 0x03
053A  1903  	BTFSC STATUS,Z
053B  2D6D  	GOTO	label55
053C  3A01  	XORLW 0x01
053D  1903  	BTFSC STATUS,Z
053E  2D8F  	GOTO	label56
053F  3A07  	XORLW 0x07
0540  1903  	BTFSC STATUS,Z
0541  2DB1  	GOTO	label57
0542  3A01  	XORLW 0x01
0543  1903  	BTFSC STATUS,Z
0544  2DE8  	GOTO	label59
0545  3A03  	XORLW 0x03
0546  1903  	BTFSC STATUS,Z
0547  2E0C  	GOTO	label60
0548  3A01  	XORLW 0x01
0549  1903  	BTFSC STATUS,Z
054A  2E2F  	GOTO	label61
054B  2E49  	GOTO	label62
054C        label54
054C  01FE  	CLRF FCD_LCDDis_00059_arg_x
054D  3003  	MOVLW 0x03
054E  1683  	BSF STATUS, RP0
054F  00A0  	MOVWF FCD_LCDDis_00059_arg_y
0550  2347  	CALL FCD_LCDDis_00059
0551  3045  	MOVLW 0x45
0552  00A3  	MOVWF CompTempVar2244+D'3'
0553  3046  	MOVLW 0x46
0554  00A5  	MOVWF CompTempVar2244+D'5'
0555  3048  	MOVLW 0x48
0556  00A0  	MOVWF CompTempVar2244
0557  304C  	MOVLW 0x4C
0558  00A8  	MOVWF CompTempVar2244+D'8'
0559  304D  	MOVLW 0x4D
055A  00A2  	MOVWF CompTempVar2244+D'2'
055B  304F  	MOVLW 0x4F
055C  00A1  	MOVWF CompTempVar2244+D'1'
055D  00A6  	MOVWF CompTempVar2244+D'6'
055E  3055  	MOVLW 0x55
055F  00A7  	MOVWF CompTempVar2244+D'7'
0560  305F  	MOVLW 0x5F
0561  00A4  	MOVWF CompTempVar2244+D'4'
0562  01A9  	CLRF CompTempVar2244+D'9'
0563  3000  	MOVLW HIGH(CompTempVar2244+D'0')
0564  1283  	BCF STATUS, RP0
0565  00FC  	MOVWF FCD_LCDDis_0005A_arg_String+D'1'
0566  30A0  	MOVLW LOW(CompTempVar2244+D'0')
0567  00FB  	MOVWF FCD_LCDDis_0005A_arg_String
0568  3009  	MOVLW 0x09
0569  1683  	BSF STATUS, RP0
056A  00B1  	MOVWF FCD_LCDDis_0005A_arg_MSZ_String
056B  2327  	CALL FCD_LCDDis_0005A
056C  2E49  	GOTO	label62
056D        label55
056D  01FE  	CLRF FCD_LCDDis_00059_arg_x
056E  3003  	MOVLW 0x03
056F  1683  	BSF STATUS, RP0
0570  00A0  	MOVWF FCD_LCDDis_00059_arg_y
0571  2347  	CALL FCD_LCDDis_00059
0572  3043  	MOVLW 0x43
0573  00A6  	MOVWF CompTempVar2246+D'6'
0574  3045  	MOVLW 0x45
0575  00A3  	MOVWF CompTempVar2246+D'3'
0576  00A9  	MOVWF CompTempVar2246+D'9'
0577  3048  	MOVLW 0x48
0578  00A0  	MOVWF CompTempVar2246
0579  304D  	MOVLW 0x4D
057A  00A2  	MOVWF CompTempVar2246+D'2'
057B  304F  	MOVLW 0x4F
057C  00A1  	MOVWF CompTempVar2246+D'1'
057D  00A7  	MOVWF CompTempVar2246+D'7'
057E  3052  	MOVLW 0x52
057F  00A8  	MOVWF CompTempVar2246+D'8'
0580  3053  	MOVLW 0x53
0581  00A5  	MOVWF CompTempVar2246+D'5'
0582  305F  	MOVLW 0x5F
0583  00A4  	MOVWF CompTempVar2246+D'4'
0584  01AA  	CLRF CompTempVar2246+D'10'
0585  3000  	MOVLW HIGH(CompTempVar2246+D'0')
0586  1283  	BCF STATUS, RP0
0587  00FC  	MOVWF FCD_LCDDis_0005A_arg_String+D'1'
0588  30A0  	MOVLW LOW(CompTempVar2246+D'0')
0589  00FB  	MOVWF FCD_LCDDis_0005A_arg_String
058A  300A  	MOVLW 0x0A
058B  1683  	BSF STATUS, RP0
058C  00B1  	MOVWF FCD_LCDDis_0005A_arg_MSZ_String
058D  2327  	CALL FCD_LCDDis_0005A
058E  2E49  	GOTO	label62
058F        label56
058F  01FE  	CLRF FCD_LCDDis_00059_arg_x
0590  3003  	MOVLW 0x03
0591  1683  	BSF STATUS, RP0
0592  00A0  	MOVWF FCD_LCDDis_00059_arg_y
0593  2347  	CALL FCD_LCDDis_00059
0594  3032  	MOVLW 0x32
0595  00A6  	MOVWF CompTempVar2248+D'6'
0596  3034  	MOVLW 0x34
0597  00A7  	MOVWF CompTempVar2248+D'7'
0598  3043  	MOVLW 0x43
0599  00A9  	MOVWF CompTempVar2248+D'9'
059A  3045  	MOVLW 0x45
059B  00A1  	MOVWF CompTempVar2248+D'1'
059C  00A3  	MOVWF CompTempVar2248+D'3'
059D  3052  	MOVLW 0x52
059E  00A0  	MOVWF CompTempVar2248
059F  3053  	MOVLW 0x53
05A0  00A2  	MOVWF CompTempVar2248+D'2'
05A1  00A8  	MOVWF CompTempVar2248+D'8'
05A2  3054  	MOVLW 0x54
05A3  00A4  	MOVWF CompTempVar2248+D'4'
05A4  305F  	MOVLW 0x5F
05A5  00A5  	MOVWF CompTempVar2248+D'5'
05A6  01AA  	CLRF CompTempVar2248+D'10'
05A7  3000  	MOVLW HIGH(CompTempVar2248+D'0')
05A8  1283  	BCF STATUS, RP0
05A9  00FC  	MOVWF FCD_LCDDis_0005A_arg_String+D'1'
05AA  30A0  	MOVLW LOW(CompTempVar2248+D'0')
05AB  00FB  	MOVWF FCD_LCDDis_0005A_arg_String
05AC  300A  	MOVLW 0x0A
05AD  1683  	BSF STATUS, RP0
05AE  00B1  	MOVWF FCD_LCDDis_0005A_arg_MSZ_String
05AF  2327  	CALL FCD_LCDDis_0005A
05B0  2E49  	GOTO	label62
05B1        label57
05B1  18EA  	BTFSC gbl_FCV_START_FLAG,1
05B2  2DCE  	GOTO	label58
05B3  01FE  	CLRF FCD_LCDDis_00059_arg_x
05B4  3003  	MOVLW 0x03
05B5  1683  	BSF STATUS, RP0
05B6  00A0  	MOVWF FCD_LCDDis_00059_arg_y
05B7  2347  	CALL FCD_LCDDis_00059
05B8  3041  	MOVLW 0x41
05B9  00A2  	MOVWF CompTempVar2250+D'2'
05BA  3052  	MOVLW 0x52
05BB  00A3  	MOVWF CompTempVar2250+D'3'
05BC  3053  	MOVLW 0x53
05BD  00A0  	MOVWF CompTempVar2250
05BE  3054  	MOVLW 0x54
05BF  00A1  	MOVWF CompTempVar2250+D'1'
05C0  00A4  	MOVWF CompTempVar2250+D'4'
05C1  01A5  	CLRF CompTempVar2250+D'5'
05C2  3000  	MOVLW HIGH(CompTempVar2250+D'0')
05C3  1283  	BCF STATUS, RP0
05C4  00FC  	MOVWF FCD_LCDDis_0005A_arg_String+D'1'
05C5  30A0  	MOVLW LOW(CompTempVar2250+D'0')
05C6  00FB  	MOVWF FCD_LCDDis_0005A_arg_String
05C7  3005  	MOVLW 0x05
05C8  1683  	BSF STATUS, RP0
05C9  00B1  	MOVWF FCD_LCDDis_0005A_arg_MSZ_String
05CA  2327  	CALL FCD_LCDDis_0005A
05CB  1283  	BCF STATUS, RP0
05CC  14EA  	BSF gbl_FCV_START_FLAG,1
05CD  2E49  	GOTO	label62
05CE        label58
05CE  01FE  	CLRF FCD_LCDDis_00059_arg_x
05CF  3003  	MOVLW 0x03
05D0  1683  	BSF STATUS, RP0
05D1  00A0  	MOVWF FCD_LCDDis_00059_arg_y
05D2  2347  	CALL FCD_LCDDis_00059
05D3  3053  	MOVLW 0x53
05D4  00A0  	MOVWF CompTempVar2252
05D5  3054  	MOVLW 0x54
05D6  00A1  	MOVWF CompTempVar2252+D'1'
05D7  304F  	MOVLW 0x4F
05D8  00A2  	MOVWF CompTempVar2252+D'2'
05D9  3050  	MOVLW 0x50
05DA  00A3  	MOVWF CompTempVar2252+D'3'
05DB  01A4  	CLRF CompTempVar2252+D'4'
05DC  3000  	MOVLW HIGH(CompTempVar2252+D'0')
05DD  1283  	BCF STATUS, RP0
05DE  00FC  	MOVWF FCD_LCDDis_0005A_arg_String+D'1'
05DF  30A0  	MOVLW LOW(CompTempVar2252+D'0')
05E0  00FB  	MOVWF FCD_LCDDis_0005A_arg_String
05E1  3004  	MOVLW 0x04
05E2  1683  	BSF STATUS, RP0
05E3  00B1  	MOVWF FCD_LCDDis_0005A_arg_MSZ_String
05E4  2327  	CALL FCD_LCDDis_0005A
05E5  1283  	BCF STATUS, RP0
05E6  10EA  	BCF gbl_FCV_START_FLAG,1
05E7  2E49  	GOTO	label62
05E8        label59
05E8  01FE  	CLRF FCD_LCDDis_00059_arg_x
05E9  3003  	MOVLW 0x03
05EA  1683  	BSF STATUS, RP0
05EB  00A0  	MOVWF FCD_LCDDis_00059_arg_y
05EC  2347  	CALL FCD_LCDDis_00059
05ED  3043  	MOVLW 0x43
05EE  00A7  	MOVWF CompTempVar2254+D'7'
05EF  3045  	MOVLW 0x45
05F0  00A2  	MOVWF CompTempVar2254+D'2'
05F1  00AA  	MOVWF CompTempVar2254+D'10'
05F2  3047  	MOVLW 0x47
05F3  00A0  	MOVWF CompTempVar2254
05F4  304F  	MOVLW 0x4F
05F5  00A8  	MOVWF CompTempVar2254+D'8'
05F6  3052  	MOVLW 0x52
05F7  00A9  	MOVWF CompTempVar2254+D'9'
05F8  3053  	MOVLW 0x53
05F9  00A3  	MOVWF CompTempVar2254+D'3'
05FA  00A6  	MOVWF CompTempVar2254+D'6'
05FB  3054  	MOVLW 0x54
05FC  00A4  	MOVWF CompTempVar2254+D'4'
05FD  3055  	MOVLW 0x55
05FE  00A1  	MOVWF CompTempVar2254+D'1'
05FF  305F  	MOVLW 0x5F
0600  00A5  	MOVWF CompTempVar2254+D'5'
0601  01AB  	CLRF CompTempVar2254+D'11'
0602  3000  	MOVLW HIGH(CompTempVar2254+D'0')
0603  1283  	BCF STATUS, RP0
0604  00FC  	MOVWF FCD_LCDDis_0005A_arg_String+D'1'
0605  30A0  	MOVLW LOW(CompTempVar2254+D'0')
0606  00FB  	MOVWF FCD_LCDDis_0005A_arg_String
0607  300B  	MOVLW 0x0B
0608  1683  	BSF STATUS, RP0
0609  00B1  	MOVWF FCD_LCDDis_0005A_arg_MSZ_String
060A  2327  	CALL FCD_LCDDis_0005A
060B  2E49  	GOTO	label62
060C        label60
060C  01FE  	CLRF FCD_LCDDis_00059_arg_x
060D  3003  	MOVLW 0x03
060E  1683  	BSF STATUS, RP0
060F  00A0  	MOVWF FCD_LCDDis_00059_arg_y
0610  2347  	CALL FCD_LCDDis_00059
0611  3045  	MOVLW 0x45
0612  00A2  	MOVWF CompTempVar2256+D'2'
0613  3046  	MOVLW 0x46
0614  00A6  	MOVWF CompTempVar2256+D'6'
0615  3047  	MOVLW 0x47
0616  00A0  	MOVWF CompTempVar2256
0617  304C  	MOVLW 0x4C
0618  00A9  	MOVWF CompTempVar2256+D'9'
0619  304F  	MOVLW 0x4F
061A  00A7  	MOVWF CompTempVar2256+D'7'
061B  3053  	MOVLW 0x53
061C  00A3  	MOVWF CompTempVar2256+D'3'
061D  3054  	MOVLW 0x54
061E  00A4  	MOVWF CompTempVar2256+D'4'
061F  3055  	MOVLW 0x55
0620  00A1  	MOVWF CompTempVar2256+D'1'
0621  00A8  	MOVWF CompTempVar2256+D'8'
0622  305F  	MOVLW 0x5F
0623  00A5  	MOVWF CompTempVar2256+D'5'
0624  01AA  	CLRF CompTempVar2256+D'10'
0625  3000  	MOVLW HIGH(CompTempVar2256+D'0')
0626  1283  	BCF STATUS, RP0
0627  00FC  	MOVWF FCD_LCDDis_0005A_arg_String+D'1'
0628  30A0  	MOVLW LOW(CompTempVar2256+D'0')
0629  00FB  	MOVWF FCD_LCDDis_0005A_arg_String
062A  300A  	MOVLW 0x0A
062B  1683  	BSF STATUS, RP0
062C  00B1  	MOVWF FCD_LCDDis_0005A_arg_MSZ_String
062D  2327  	CALL FCD_LCDDis_0005A
062E  2E49  	GOTO	label62
062F        label61
062F  01FE  	CLRF FCD_LCDDis_00059_arg_x
0630  3003  	MOVLW 0x03
0631  1683  	BSF STATUS, RP0
0632  00A0  	MOVWF FCD_LCDDis_00059_arg_y
0633  2347  	CALL FCD_LCDDis_00059
0634  3042  	MOVLW 0x42
0635  00A0  	MOVWF CompTempVar2258
0636  3055  	MOVLW 0x55
0637  00A1  	MOVWF CompTempVar2258+D'1'
0638  305A  	MOVLW 0x5A
0639  00A2  	MOVWF CompTempVar2258+D'2'
063A  00A3  	MOVWF CompTempVar2258+D'3'
063B  3045  	MOVLW 0x45
063C  00A4  	MOVWF CompTempVar2258+D'4'
063D  3052  	MOVLW 0x52
063E  00A5  	MOVWF CompTempVar2258+D'5'
063F  01A6  	CLRF CompTempVar2258+D'6'
0640  3000  	MOVLW HIGH(CompTempVar2258+D'0')
0641  1283  	BCF STATUS, RP0
0642  00FC  	MOVWF FCD_LCDDis_0005A_arg_String+D'1'
0643  30A0  	MOVLW LOW(CompTempVar2258+D'0')
0644  00FB  	MOVWF FCD_LCDDis_0005A_arg_String
0645  3006  	MOVLW 0x06
0646  1683  	BSF STATUS, RP0
0647  00B1  	MOVWF FCD_LCDDis_0005A_arg_MSZ_String
0648  2327  	CALL FCD_LCDDis_0005A
0649        label62
0649  1283  	BCF STATUS, RP0
064A  0820  	MOVF gbl_FCV_PAYLOAD, W
064B  3A41  	XORLW 0x41
064C  1903  	BTFSC STATUS,Z
064D  2E62  	GOTO	label63
064E  3A03  	XORLW 0x03
064F  1903  	BTFSC STATUS,Z
0650  2EA0  	GOTO	label64
0651  3A01  	XORLW 0x01
0652  1903  	BTFSC STATUS,Z
0653  2EDF  	GOTO	label65
0654  3A07  	XORLW 0x07
0655  1903  	BTFSC STATUS,Z
0656  2F1E  	GOTO	label66
0657  3A01  	XORLW 0x01
0658  1903  	BTFSC STATUS,Z
0659  2F5C  	GOTO	label67
065A  3A03  	XORLW 0x03
065B  1903  	BTFSC STATUS,Z
065C  2F9D  	GOTO	label68
065D  3A01  	XORLW 0x01
065E  1903  	BTFSC STATUS,Z
065F  2FDD  	GOTO	label69
0660  158A  	BSF PCLATH,3
0661  2813  	GOTO	label70
0662        label63
0662  01FE  	CLRF FCD_LCDDis_00059_arg_x
0663  3002  	MOVLW 0x02
0664  1683  	BSF STATUS, RP0
0665  00A0  	MOVWF FCD_LCDDis_00059_arg_y
0666  2347  	CALL FCD_LCDDis_00059
0667  3053  	MOVLW 0x53
0668  00A0  	MOVWF CompTempVar2260
0669  3048  	MOVLW 0x48
066A  00A1  	MOVWF CompTempVar2260+D'1'
066B  3049  	MOVLW 0x49
066C  00A2  	MOVWF CompTempVar2260+D'2'
066D  3046  	MOVLW 0x46
066E  00A3  	MOVWF CompTempVar2260+D'3'
066F  3054  	MOVLW 0x54
0670  00A4  	MOVWF CompTempVar2260+D'4'
0671  302B  	MOVLW 0x2B
0672  00A5  	MOVWF CompTempVar2260+D'5'
0673  01A6  	CLRF CompTempVar2260+D'6'
0674  3000  	MOVLW HIGH(CompTempVar2260+D'0')
0675  1283  	BCF STATUS, RP0
0676  00FC  	MOVWF FCD_LCDDis_0005A_arg_String+D'1'
0677  30A0  	MOVLW LOW(CompTempVar2260+D'0')
0678  00FB  	MOVWF FCD_LCDDis_0005A_arg_String
0679  3006  	MOVLW 0x06
067A  1683  	BSF STATUS, RP0
067B  00B1  	MOVWF FCD_LCDDis_0005A_arg_MSZ_String
067C  2327  	CALL FCD_LCDDis_0005A
067D  1283  	BCF STATUS, RP0
067E  01FE  	CLRF FCD_LCDDis_00059_arg_x
067F  3003  	MOVLW 0x03
0680  1683  	BSF STATUS, RP0
0681  00A0  	MOVWF FCD_LCDDis_00059_arg_y
0682  2347  	CALL FCD_LCDDis_00059
0683  3045  	MOVLW 0x45
0684  00A3  	MOVWF CompTempVar2262+D'3'
0685  3046  	MOVLW 0x46
0686  00A5  	MOVWF CompTempVar2262+D'5'
0687  3048  	MOVLW 0x48
0688  00A0  	MOVWF CompTempVar2262
0689  304C  	MOVLW 0x4C
068A  00A8  	MOVWF CompTempVar2262+D'8'
068B  304D  	MOVLW 0x4D
068C  00A2  	MOVWF CompTempVar2262+D'2'
068D  304F  	MOVLW 0x4F
068E  00A1  	MOVWF CompTempVar2262+D'1'
068F  00A6  	MOVWF CompTempVar2262+D'6'
0690  3055  	MOVLW 0x55
0691  00A7  	MOVWF CompTempVar2262+D'7'
0692  305F  	MOVLW 0x5F
0693  00A4  	MOVWF CompTempVar2262+D'4'
0694  01A9  	CLRF CompTempVar2262+D'9'
0695  3000  	MOVLW HIGH(CompTempVar2262+D'0')
0696  1283  	BCF STATUS, RP0
0697  00FC  	MOVWF FCD_LCDDis_0005A_arg_String+D'1'
0698  30A0  	MOVLW LOW(CompTempVar2262+D'0')
0699  00FB  	MOVWF FCD_LCDDis_0005A_arg_String
069A  3009  	MOVLW 0x09
069B  1683  	BSF STATUS, RP0
069C  00B1  	MOVWF FCD_LCDDis_0005A_arg_MSZ_String
069D  2327  	CALL FCD_LCDDis_0005A
069E  158A  	BSF PCLATH,3
069F  2813  	GOTO	label70
06A0        label64
06A0  01FE  	CLRF FCD_LCDDis_00059_arg_x
06A1  3002  	MOVLW 0x02
06A2  1683  	BSF STATUS, RP0
06A3  00A0  	MOVWF FCD_LCDDis_00059_arg_y
06A4  2347  	CALL FCD_LCDDis_00059
06A5  3053  	MOVLW 0x53
06A6  00A0  	MOVWF CompTempVar2264
06A7  3048  	MOVLW 0x48
06A8  00A1  	MOVWF CompTempVar2264+D'1'
06A9  3049  	MOVLW 0x49
06AA  00A2  	MOVWF CompTempVar2264+D'2'
06AB  3046  	MOVLW 0x46
06AC  00A3  	MOVWF CompTempVar2264+D'3'
06AD  3054  	MOVLW 0x54
06AE  00A4  	MOVWF CompTempVar2264+D'4'
06AF  302B  	MOVLW 0x2B
06B0  00A5  	MOVWF CompTempVar2264+D'5'
06B1  01A6  	CLRF CompTempVar2264+D'6'
06B2  3000  	MOVLW HIGH(CompTempVar2264+D'0')
06B3  1283  	BCF STATUS, RP0
06B4  00FC  	MOVWF FCD_LCDDis_0005A_arg_String+D'1'
06B5  30A0  	MOVLW LOW(CompTempVar2264+D'0')
06B6  00FB  	MOVWF FCD_LCDDis_0005A_arg_String
06B7  3006  	MOVLW 0x06
06B8  1683  	BSF STATUS, RP0
06B9  00B1  	MOVWF FCD_LCDDis_0005A_arg_MSZ_String
06BA  2327  	CALL FCD_LCDDis_0005A
06BB  1283  	BCF STATUS, RP0
06BC  01FE  	CLRF FCD_LCDDis_00059_arg_x
06BD  3003  	MOVLW 0x03
06BE  1683  	BSF STATUS, RP0
06BF  00A0  	MOVWF FCD_LCDDis_00059_arg_y
06C0  2347  	CALL FCD_LCDDis_00059
06C1  3043  	MOVLW 0x43
06C2  00A6  	MOVWF CompTempVar2266+D'6'
06C3  3045  	MOVLW 0x45
06C4  00A3  	MOVWF CompTempVar2266+D'3'
06C5  00A9  	MOVWF CompTempVar2266+D'9'
06C6  3048  	MOVLW 0x48
06C7  00A0  	MOVWF CompTempVar2266
06C8  304D  	MOVLW 0x4D
06C9  00A2  	MOVWF CompTempVar2266+D'2'
06CA  304F  	MOVLW 0x4F
06CB  00A1  	MOVWF CompTempVar2266+D'1'
06CC  00A7  	MOVWF CompTempVar2266+D'7'
06CD  3052  	MOVLW 0x52
06CE  00A8  	MOVWF CompTempVar2266+D'8'
06CF  3053  	MOVLW 0x53
06D0  00A5  	MOVWF CompTempVar2266+D'5'
06D1  305F  	MOVLW 0x5F
06D2  00A4  	MOVWF CompTempVar2266+D'4'
06D3  01AA  	CLRF CompTempVar2266+D'10'
06D4  3000  	MOVLW HIGH(CompTempVar2266+D'0')
06D5  1283  	BCF STATUS, RP0
06D6  00FC  	MOVWF FCD_LCDDis_0005A_arg_String+D'1'
06D7  30A0  	MOVLW LOW(CompTempVar2266+D'0')
06D8  00FB  	MOVWF FCD_LCDDis_0005A_arg_String
06D9  300A  	MOVLW 0x0A
06DA  1683  	BSF STATUS, RP0
06DB  00B1  	MOVWF FCD_LCDDis_0005A_arg_MSZ_String
06DC  2327  	CALL FCD_LCDDis_0005A
06DD  158A  	BSF PCLATH,3
06DE  2813  	GOTO	label70
06DF        label65
06DF  01FE  	CLRF FCD_LCDDis_00059_arg_x
06E0  3002  	MOVLW 0x02
06E1  1683  	BSF STATUS, RP0
06E2  00A0  	MOVWF FCD_LCDDis_00059_arg_y
06E3  2347  	CALL FCD_LCDDis_00059
06E4  3053  	MOVLW 0x53
06E5  00A0  	MOVWF CompTempVar2268
06E6  3048  	MOVLW 0x48
06E7  00A1  	MOVWF CompTempVar2268+D'1'
06E8  3049  	MOVLW 0x49
06E9  00A2  	MOVWF CompTempVar2268+D'2'
06EA  3046  	MOVLW 0x46
06EB  00A3  	MOVWF CompTempVar2268+D'3'
06EC  3054  	MOVLW 0x54
06ED  00A4  	MOVWF CompTempVar2268+D'4'
06EE  302B  	MOVLW 0x2B
06EF  00A5  	MOVWF CompTempVar2268+D'5'
06F0  01A6  	CLRF CompTempVar2268+D'6'
06F1  3000  	MOVLW HIGH(CompTempVar2268+D'0')
06F2  1283  	BCF STATUS, RP0
06F3  00FC  	MOVWF FCD_LCDDis_0005A_arg_String+D'1'
06F4  30A0  	MOVLW LOW(CompTempVar2268+D'0')
06F5  00FB  	MOVWF FCD_LCDDis_0005A_arg_String
06F6  3006  	MOVLW 0x06
06F7  1683  	BSF STATUS, RP0
06F8  00B1  	MOVWF FCD_LCDDis_0005A_arg_MSZ_String
06F9  2327  	CALL FCD_LCDDis_0005A
06FA  1283  	BCF STATUS, RP0
06FB  01FE  	CLRF FCD_LCDDis_00059_arg_x
06FC  3003  	MOVLW 0x03
06FD  1683  	BSF STATUS, RP0
06FE  00A0  	MOVWF FCD_LCDDis_00059_arg_y
06FF  2347  	CALL FCD_LCDDis_00059
0700  3032  	MOVLW 0x32
0701  00A6  	MOVWF CompTempVar2270+D'6'
0702  3034  	MOVLW 0x34
0703  00A7  	MOVWF CompTempVar2270+D'7'
0704  3043  	MOVLW 0x43
0705  00A9  	MOVWF CompTempVar2270+D'9'
0706  3045  	MOVLW 0x45
0707  00A1  	MOVWF CompTempVar2270+D'1'
0708  00A3  	MOVWF CompTempVar2270+D'3'
0709  3052  	MOVLW 0x52
070A  00A0  	MOVWF CompTempVar2270
070B  3053  	MOVLW 0x53
070C  00A2  	MOVWF CompTempVar2270+D'2'
070D  00A8  	MOVWF CompTempVar2270+D'8'
070E  3054  	MOVLW 0x54
070F  00A4  	MOVWF CompTempVar2270+D'4'
0710  305F  	MOVLW 0x5F
0711  00A5  	MOVWF CompTempVar2270+D'5'
0712  01AA  	CLRF CompTempVar2270+D'10'
0713  3000  	MOVLW HIGH(CompTempVar2270+D'0')
0714  1283  	BCF STATUS, RP0
0715  00FC  	MOVWF FCD_LCDDis_0005A_arg_String+D'1'
0716  30A0  	MOVLW LOW(CompTempVar2270+D'0')
0717  00FB  	MOVWF FCD_LCDDis_0005A_arg_String
0718  300A  	MOVLW 0x0A
0719  1683  	BSF STATUS, RP0
071A  00B1  	MOVWF FCD_LCDDis_0005A_arg_MSZ_String
071B  2327  	CALL FCD_LCDDis_0005A
071C  158A  	BSF PCLATH,3
071D  2813  	GOTO	label70
071E        label66
071E  01FE  	CLRF FCD_LCDDis_00059_arg_x
071F  3002  	MOVLW 0x02
0720  1683  	BSF STATUS, RP0
0721  00A0  	MOVWF FCD_LCDDis_00059_arg_y
0722  2347  	CALL FCD_LCDDis_00059
0723  3053  	MOVLW 0x53
0724  00A0  	MOVWF CompTempVar2272
0725  3048  	MOVLW 0x48
0726  00A1  	MOVWF CompTempVar2272+D'1'
0727  3049  	MOVLW 0x49
0728  00A2  	MOVWF CompTempVar2272+D'2'
0729  3046  	MOVLW 0x46
072A  00A3  	MOVWF CompTempVar2272+D'3'
072B  3054  	MOVLW 0x54
072C  00A4  	MOVWF CompTempVar2272+D'4'
072D  302B  	MOVLW 0x2B
072E  00A5  	MOVWF CompTempVar2272+D'5'
072F  01A6  	CLRF CompTempVar2272+D'6'
0730  3000  	MOVLW HIGH(CompTempVar2272+D'0')
0731  1283  	BCF STATUS, RP0
0732  00FC  	MOVWF FCD_LCDDis_0005A_arg_String+D'1'
0733  30A0  	MOVLW LOW(CompTempVar2272+D'0')
0734  00FB  	MOVWF FCD_LCDDis_0005A_arg_String
0735  3006  	MOVLW 0x06
0736  1683  	BSF STATUS, RP0
0737  00B1  	MOVWF FCD_LCDDis_0005A_arg_MSZ_String
0738  2327  	CALL FCD_LCDDis_0005A
0739  1283  	BCF STATUS, RP0
073A  01FE  	CLRF FCD_LCDDis_00059_arg_x
073B  3003  	MOVLW 0x03
073C  1683  	BSF STATUS, RP0
073D  00A0  	MOVWF FCD_LCDDis_00059_arg_y
073E  2347  	CALL FCD_LCDDis_00059
073F  302F  	MOVLW 0x2F
0740  00A5  	MOVWF CompTempVar2274+D'5'
0741  3041  	MOVLW 0x41
0742  00A2  	MOVWF CompTempVar2274+D'2'
0743  304F  	MOVLW 0x4F
0744  00A8  	MOVWF CompTempVar2274+D'8'
0745  3050  	MOVLW 0x50
0746  00A9  	MOVWF CompTempVar2274+D'9'
0747  3052  	MOVLW 0x52
0748  00A3  	MOVWF CompTempVar2274+D'3'
0749  3053  	MOVLW 0x53
074A  00A0  	MOVWF CompTempVar2274
074B  00A6  	MOVWF CompTempVar2274+D'6'
074C  3054  	MOVLW 0x54
074D  00A1  	MOVWF CompTempVar2274+D'1'
074E  00A4  	MOVWF CompTempVar2274+D'4'
074F  00A7  	MOVWF CompTempVar2274+D'7'
0750  01AA  	CLRF CompTempVar2274+D'10'
0751  3000  	MOVLW HIGH(CompTempVar2274+D'0')
0752  1283  	BCF STATUS, RP0
0753  00FC  	MOVWF FCD_LCDDis_0005A_arg_String+D'1'
0754  30A0  	MOVLW LOW(CompTempVar2274+D'0')
0755  00FB  	MOVWF FCD_LCDDis_0005A_arg_String
0756  300A  	MOVLW 0x0A
0757  1683  	BSF STATUS, RP0
0758  00B1  	MOVWF FCD_LCDDis_0005A_arg_MSZ_String
0759  2327  	CALL FCD_LCDDis_0005A
075A  158A  	BSF PCLATH,3
075B  2813  	GOTO	label70
075C        label67
075C  01FE  	CLRF FCD_LCDDis_00059_arg_x
075D  3002  	MOVLW 0x02
075E  1683  	BSF STATUS, RP0
075F  00A0  	MOVWF FCD_LCDDis_00059_arg_y
0760  2347  	CALL FCD_LCDDis_00059
0761  3053  	MOVLW 0x53
0762  00A0  	MOVWF CompTempVar2276
0763  3048  	MOVLW 0x48
0764  00A1  	MOVWF CompTempVar2276+D'1'
0765  3049  	MOVLW 0x49
0766  00A2  	MOVWF CompTempVar2276+D'2'
0767  3046  	MOVLW 0x46
0768  00A3  	MOVWF CompTempVar2276+D'3'
0769  3054  	MOVLW 0x54
076A  00A4  	MOVWF CompTempVar2276+D'4'
076B  302B  	MOVLW 0x2B
076C  00A5  	MOVWF CompTempVar2276+D'5'
076D  01A6  	CLRF CompTempVar2276+D'6'
076E  3000  	MOVLW HIGH(CompTempVar2276+D'0')
076F  1283  	BCF STATUS, RP0
0770  00FC  	MOVWF FCD_LCDDis_0005A_arg_String+D'1'
0771  30A0  	MOVLW LOW(CompTempVar2276+D'0')
0772  00FB  	MOVWF FCD_LCDDis_0005A_arg_String
0773  3006  	MOVLW 0x06
0774  1683  	BSF STATUS, RP0
0775  00B1  	MOVWF FCD_LCDDis_0005A_arg_MSZ_String
0776  2327  	CALL FCD_LCDDis_0005A
0777  1283  	BCF STATUS, RP0
0778  01FE  	CLRF FCD_LCDDis_00059_arg_x
0779  3003  	MOVLW 0x03
077A  1683  	BSF STATUS, RP0
077B  00A0  	MOVWF FCD_LCDDis_00059_arg_y
077C  2347  	CALL FCD_LCDDis_00059
077D  3043  	MOVLW 0x43
077E  00A7  	MOVWF CompTempVar2278+D'7'
077F  3045  	MOVLW 0x45
0780  00A2  	MOVWF CompTempVar2278+D'2'
0781  00AA  	MOVWF CompTempVar2278+D'10'
0782  3047  	MOVLW 0x47
0783  00A0  	MOVWF CompTempVar2278
0784  304F  	MOVLW 0x4F
0785  00A8  	MOVWF CompTempVar2278+D'8'
0786  3052  	MOVLW 0x52
0787  00A9  	MOVWF CompTempVar2278+D'9'
0788  3053  	MOVLW 0x53
0789  00A3  	MOVWF CompTempVar2278+D'3'
078A  00A6  	MOVWF CompTempVar2278+D'6'
078B  3054  	MOVLW 0x54
078C  00A4  	MOVWF CompTempVar2278+D'4'
078D  3055  	MOVLW 0x55
078E  00A1  	MOVWF CompTempVar2278+D'1'
078F  305F  	MOVLW 0x5F
0790  00A5  	MOVWF CompTempVar2278+D'5'
0791  01AB  	CLRF CompTempVar2278+D'11'
0792  3000  	MOVLW HIGH(CompTempVar2278+D'0')
0793  1283  	BCF STATUS, RP0
0794  00FC  	MOVWF FCD_LCDDis_0005A_arg_String+D'1'
0795  30A0  	MOVLW LOW(CompTempVar2278+D'0')
0796  00FB  	MOVWF FCD_LCDDis_0005A_arg_String
0797  300B  	MOVLW 0x0B
0798  1683  	BSF STATUS, RP0
0799  00B1  	MOVWF FCD_LCDDis_0005A_arg_MSZ_String
079A  2327  	CALL FCD_LCDDis_0005A
079B  158A  	BSF PCLATH,3
079C  2813  	GOTO	label70
079D        label68
079D  01FE  	CLRF FCD_LCDDis_00059_arg_x
079E  3002  	MOVLW 0x02
079F  1683  	BSF STATUS, RP0
07A0  00A0  	MOVWF FCD_LCDDis_00059_arg_y
07A1  2347  	CALL FCD_LCDDis_00059
07A2  3053  	MOVLW 0x53
07A3  00A0  	MOVWF CompTempVar2280
07A4  3048  	MOVLW 0x48
07A5  00A1  	MOVWF CompTempVar2280+D'1'
07A6  3049  	MOVLW 0x49
07A7  00A2  	MOVWF CompTempVar2280+D'2'
07A8  3046  	MOVLW 0x46
07A9  00A3  	MOVWF CompTempVar2280+D'3'
07AA  3054  	MOVLW 0x54
07AB  00A4  	MOVWF CompTempVar2280+D'4'
07AC  302B  	MOVLW 0x2B
07AD  00A5  	MOVWF CompTempVar2280+D'5'
07AE  01A6  	CLRF CompTempVar2280+D'6'
07AF  3000  	MOVLW HIGH(CompTempVar2280+D'0')
07B0  1283  	BCF STATUS, RP0
07B1  00FC  	MOVWF FCD_LCDDis_0005A_arg_String+D'1'
07B2  30A0  	MOVLW LOW(CompTempVar2280+D'0')
07B3  00FB  	MOVWF FCD_LCDDis_0005A_arg_String
07B4  3006  	MOVLW 0x06
07B5  1683  	BSF STATUS, RP0
07B6  00B1  	MOVWF FCD_LCDDis_0005A_arg_MSZ_String
07B7  2327  	CALL FCD_LCDDis_0005A
07B8  1283  	BCF STATUS, RP0
07B9  01FE  	CLRF FCD_LCDDis_00059_arg_x
07BA  3003  	MOVLW 0x03
07BB  1683  	BSF STATUS, RP0
07BC  00A0  	MOVWF FCD_LCDDis_00059_arg_y
07BD  2347  	CALL FCD_LCDDis_00059
07BE  3045  	MOVLW 0x45
07BF  00A2  	MOVWF CompTempVar2282+D'2'
07C0  3046  	MOVLW 0x46
07C1  00A6  	MOVWF CompTempVar2282+D'6'
07C2  3047  	MOVLW 0x47
07C3  00A0  	MOVWF CompTempVar2282
07C4  304C  	MOVLW 0x4C
07C5  00A9  	MOVWF CompTempVar2282+D'9'
07C6  304F  	MOVLW 0x4F
07C7  00A7  	MOVWF CompTempVar2282+D'7'
07C8  3053  	MOVLW 0x53
07C9  00A3  	MOVWF CompTempVar2282+D'3'
07CA  3054  	MOVLW 0x54
07CB  00A4  	MOVWF CompTempVar2282+D'4'
07CC  3055  	MOVLW 0x55
07CD  00A1  	MOVWF CompTempVar2282+D'1'
07CE  00A8  	MOVWF CompTempVar2282+D'8'
07CF  305F  	MOVLW 0x5F
07D0  00A5  	MOVWF CompTempVar2282+D'5'
07D1  01AA  	CLRF CompTempVar2282+D'10'
07D2  3000  	MOVLW HIGH(CompTempVar2282+D'0')
07D3  1283  	BCF STATUS, RP0
07D4  00FC  	MOVWF FCD_LCDDis_0005A_arg_String+D'1'
07D5  30A0  	MOVLW LOW(CompTempVar2282+D'0')
07D6  00FB  	MOVWF FCD_LCDDis_0005A_arg_String
07D7  300A  	MOVLW 0x0A
07D8  1683  	BSF STATUS, RP0
07D9  00B1  	MOVWF FCD_LCDDis_0005A_arg_MSZ_String
07DA  2327  	CALL FCD_LCDDis_0005A
07DB  158A  	BSF PCLATH,3
07DC  2813  	GOTO	label70
07DD        label69
07DD  01FE  	CLRF FCD_LCDDis_00059_arg_x
07DE  3002  	MOVLW 0x02
07DF  1683  	BSF STATUS, RP0
07E0  00A0  	MOVWF FCD_LCDDis_00059_arg_y
07E1  2347  	CALL FCD_LCDDis_00059
07E2  3053  	MOVLW 0x53
07E3  00A0  	MOVWF CompTempVar2284
07E4  3048  	MOVLW 0x48
07E5  00A1  	MOVWF CompTempVar2284+D'1'
07E6  3049  	MOVLW 0x49
07E7  00A2  	MOVWF CompTempVar2284+D'2'
07E8  3046  	MOVLW 0x46
07E9  00A3  	MOVWF CompTempVar2284+D'3'
07EA  3054  	MOVLW 0x54
07EB  00A4  	MOVWF CompTempVar2284+D'4'
07EC  302B  	MOVLW 0x2B
07ED  00A5  	MOVWF CompTempVar2284+D'5'
07EE  01A6  	CLRF CompTempVar2284+D'6'
07EF  3000  	MOVLW HIGH(CompTempVar2284+D'0')
07F0  1283  	BCF STATUS, RP0
07F1  00FC  	MOVWF FCD_LCDDis_0005A_arg_String+D'1'
07F2  30A0  	MOVLW LOW(CompTempVar2284+D'0')
07F3  00FB  	MOVWF FCD_LCDDis_0005A_arg_String
07F4  3006  	MOVLW 0x06
07F5  1683  	BSF STATUS, RP0
07F6  00B1  	MOVWF FCD_LCDDis_0005A_arg_MSZ_String
07F7  2327  	CALL FCD_LCDDis_0005A
07F8  1283  	BCF STATUS, RP0
07F9  01FE  	CLRF FCD_LCDDis_00059_arg_x
07FA  3003  	MOVLW 0x03
07FB  1683  	BSF STATUS, RP0
07FC  00A0  	MOVWF FCD_LCDDis_00059_arg_y
07FD  2347  	CALL FCD_LCDDis_00059
07FE  3042  	MOVLW 0x42
07FF  00A0  	MOVWF CompTempVar2286
0800  3055  	MOVLW 0x55
0801  00A1  	MOVWF CompTempVar2286+D'1'
0802  305A  	MOVLW 0x5A
0803  00A2  	MOVWF CompTempVar2286+D'2'
0804  00A3  	MOVWF CompTempVar2286+D'3'
0805  3045  	MOVLW 0x45
0806  00A4  	MOVWF CompTempVar2286+D'4'
0807  3052  	MOVLW 0x52
0808  00A5  	MOVWF CompTempVar2286+D'5'
0809  01A6  	CLRF CompTempVar2286+D'6'
080A  3000  	MOVLW HIGH(CompTempVar2286+D'0')
080B  1283  	BCF STATUS, RP0
080C  00FC  	MOVWF FCD_LCDDis_0005A_arg_String+D'1'
080D  30A0  	MOVLW LOW(CompTempVar2286+D'0')
080E  00FB  	MOVWF FCD_LCDDis_0005A_arg_String
080F  3006  	MOVLW 0x06
0810  1683  	BSF STATUS, RP0
0811  00B1  	MOVWF FCD_LCDDis_0005A_arg_MSZ_String
0812  2327  	CALL FCD_LCDDis_0005A
0813        label70
0813  118A  	BCF PCLATH,3
0814  21C2  	CALL FCM_nrf_fl_00063
0815  2D1A  	GOTO	label53
0816        label71
0816  30DF  	MOVLW 0xDF
0817  1683  	BSF STATUS, RP0
0818  0505  	ANDWF gbl_trisa, W
0819  0085  	MOVWF gbl_trisa
081A  30DF  	MOVLW 0xDF
081B  1283  	BCF STATUS, RP0
081C  0505  	ANDWF gbl_porta, W
081D  0085  	MOVWF gbl_porta
081E  118A  	BCF PCLATH,3
081F  2D1A  	GOTO	label53
0820        ; } FCM_rcv_macro function end

	ORG 0x00000820
0820        FCM_nrf_FU_00057
0820        ; { FCM_nrf_FUNCTION_test ; function begin
0820  1283  	BCF STATUS, RP0
0821  1303  	BCF STATUS, RP1
0822  01F7  	CLRF gbl_FCV_REG_TO_READ
0823  118A  	BCF PCLATH,3
0824  2136  	CALL FCM_spi_da_00053
0825  0875  	MOVF gbl_FCV_SPI_RCV_DATA, W
0826  00ED  	MOVWF gbl_FCV_NRF_REG00
0827  3001  	MOVLW 0x01
0828  00F7  	MOVWF gbl_FCV_REG_TO_READ
0829  2136  	CALL FCM_spi_da_00053
082A  0875  	MOVF gbl_FCV_SPI_RCV_DATA, W
082B  00EF  	MOVWF gbl_FCV_NRF_REG01
082C  3002  	MOVLW 0x02
082D  00F7  	MOVWF gbl_FCV_REG_TO_READ
082E  2136  	CALL FCM_spi_da_00053
082F  0875  	MOVF gbl_FCV_SPI_RCV_DATA, W
0830  00F0  	MOVWF gbl_FCV_NRF_REG02
0831  3003  	MOVLW 0x03
0832  00F7  	MOVWF gbl_FCV_REG_TO_READ
0833  2136  	CALL FCM_spi_da_00053
0834  0875  	MOVF gbl_FCV_SPI_RCV_DATA, W
0835  00F2  	MOVWF gbl_FCV_NRF_REG03
0836  3004  	MOVLW 0x04
0837  00F7  	MOVWF gbl_FCV_REG_TO_READ
0838  2136  	CALL FCM_spi_da_00053
0839  0875  	MOVF gbl_FCV_SPI_RCV_DATA, W
083A  00F6  	MOVWF gbl_FCV_NRF_REG04
083B  3005  	MOVLW 0x05
083C  00F7  	MOVWF gbl_FCV_REG_TO_READ
083D  2136  	CALL FCM_spi_da_00053
083E  0875  	MOVF gbl_FCV_SPI_RCV_DATA, W
083F  00F8  	MOVWF gbl_FCV_NRF_REG05
0840  3006  	MOVLW 0x06
0841  00F7  	MOVWF gbl_FCV_REG_TO_READ
0842  2136  	CALL FCM_spi_da_00053
0843  0875  	MOVF gbl_FCV_SPI_RCV_DATA, W
0844  00E9  	MOVWF gbl_FCV_NRF_REG06
0845  24F6  	CALL FCD_LCDDis_00058
0846  1283  	BCF STATUS, RP0
0847  01FE  	CLRF FCD_LCDDis_00059_arg_x
0848  1683  	BSF STATUS, RP0
0849  01A0  	CLRF FCD_LCDDis_00059_arg_y
084A  2347  	CALL FCD_LCDDis_00059
084B  3020  	MOVLW 0x20
084C  00A6  	MOVWF CompTempVar2191+D'6'
084D  3044  	MOVLW 0x44
084E  00A2  	MOVWF CompTempVar2191+D'2'
084F  3045  	MOVLW 0x45
0850  00A5  	MOVWF CompTempVar2191+D'5'
0851  00A8  	MOVWF CompTempVar2191+D'8'
0852  3047  	MOVLW 0x47
0853  00AD  	MOVWF CompTempVar2191+D'13'
0854  3049  	MOVLW 0x49
0855  00AB  	MOVWF CompTempVar2191+D'11'
0856  304C  	MOVLW 0x4C
0857  00A4  	MOVWF CompTempVar2191+D'4'
0858  304D  	MOVLW 0x4D
0859  00A0  	MOVWF CompTempVar2191
085A  304E  	MOVLW 0x4E
085B  00AC  	MOVWF CompTempVar2191+D'12'
085C  304F  	MOVLW 0x4F
085D  00A1  	MOVWF CompTempVar2191+D'1'
085E  3053  	MOVLW 0x53
085F  00A9  	MOVWF CompTempVar2191+D'9'
0860  3054  	MOVLW 0x54
0861  00A7  	MOVWF CompTempVar2191+D'7'
0862  00AA  	MOVWF CompTempVar2191+D'10'
0863  3055  	MOVLW 0x55
0864  00A3  	MOVWF CompTempVar2191+D'3'
0865  01AE  	CLRF CompTempVar2191+D'14'
0866  3000  	MOVLW HIGH(CompTempVar2191+D'0')
0867  1283  	BCF STATUS, RP0
0868  00FC  	MOVWF FCD_LCDDis_0005A_arg_String+D'1'
0869  30A0  	MOVLW LOW(CompTempVar2191+D'0')
086A  00FB  	MOVWF FCD_LCDDis_0005A_arg_String
086B  300E  	MOVLW 0x0E
086C  1683  	BSF STATUS, RP0
086D  00B1  	MOVWF FCD_LCDDis_0005A_arg_MSZ_String
086E  2327  	CALL FCD_LCDDis_0005A
086F  1283  	BCF STATUS, RP0
0870  01FE  	CLRF FCD_LCDDis_00059_arg_x
0871  3001  	MOVLW 0x01
0872  1683  	BSF STATUS, RP0
0873  00A0  	MOVWF FCD_LCDDis_00059_arg_y
0874  2347  	CALL FCD_LCDDis_00059
0875  1283  	BCF STATUS, RP0
0876  01F9  	CLRF gbl_FCLV_LOOP1
0877        label72
0877  3005  	MOVLW 0x05
0878  0279  	SUBWF gbl_FCLV_LOOP1, W
0879  158A  	BSF PCLATH,3
087A  1803  	BTFSC STATUS,C
087B  28B0  	GOTO	label75
087C  302E  	MOVLW 0x2E
087D  00FD  	MOVWF CompTempVar2193
087E  01FE  	CLRF CompTempVar2193+D'1'
087F  3000  	MOVLW HIGH(CompTempVar2193+D'0')
0880  00FC  	MOVWF FCD_LCDDis_0005A_arg_String+D'1'
0881  307D  	MOVLW LOW(CompTempVar2193+D'0')
0882  00FB  	MOVWF FCD_LCDDis_0005A_arg_String
0883  3001  	MOVLW 0x01
0884  1683  	BSF STATUS, RP0
0885  00B1  	MOVWF FCD_LCDDis_0005A_arg_MSZ_String
0886  118A  	BCF PCLATH,3
0887  2327  	CALL FCD_LCDDis_0005A
0888  1283  	BCF STATUS, RP0
0889  01FA  	CLRF gbl_FCLV_LOOP2
088A        label73
088A  3005  	MOVLW 0x05
088B  027A  	SUBWF gbl_FCLV_LOOP2, W
088C  158A  	BSF PCLATH,3
088D  1803  	BTFSC STATUS,C
088E  28AE  	GOTO	label74
088F  30FE  	MOVLW 0xFE
0890  1683  	BSF STATUS, RP0
0891  0507  	ANDWF gbl_trisc, W
0892  0087  	MOVWF gbl_trisc
0893  30FE  	MOVLW 0xFE
0894  1283  	BCF STATUS, RP0
0895  0507  	ANDWF gbl_portc, W
0896  0087  	MOVWF gbl_portc
0897  3064  	MOVLW 0x64
0898  1683  	BSF STATUS, RP0
0899  00A3  	MOVWF delay_ms_00000_arg_del
089A  118A  	BCF PCLATH,3
089B  2015  	CALL delay_ms_00000
089C  30FE  	MOVLW 0xFE
089D  0507  	ANDWF gbl_trisc, W
089E  0087  	MOVWF gbl_trisc
089F  30FE  	MOVLW 0xFE
08A0  1283  	BCF STATUS, RP0
08A1  0507  	ANDWF gbl_portc, W
08A2  00FB  	MOVWF CompTempVar2195
08A3  3001  	MOVLW 0x01
08A4  047B  	IORWF CompTempVar2195, W
08A5  0087  	MOVWF gbl_portc
08A6  3064  	MOVLW 0x64
08A7  1683  	BSF STATUS, RP0
08A8  00A3  	MOVWF delay_ms_00000_arg_del
08A9  2015  	CALL delay_ms_00000
08AA  1283  	BCF STATUS, RP0
08AB  0AFA  	INCF gbl_FCLV_LOOP2, F
08AC  158A  	BSF PCLATH,3
08AD  288A  	GOTO	label73
08AE        label74
08AE  0AF9  	INCF gbl_FCLV_LOOP1, F
08AF  2877  	GOTO	label72
08B0        label75
08B0  30FE  	MOVLW 0xFE
08B1  1683  	BSF STATUS, RP0
08B2  0507  	ANDWF gbl_trisc, W
08B3  0087  	MOVWF gbl_trisc
08B4  30FE  	MOVLW 0xFE
08B5  1283  	BCF STATUS, RP0
08B6  0507  	ANDWF gbl_portc, W
08B7  0087  	MOVWF gbl_portc
08B8  118A  	BCF PCLATH,3
08B9  24F6  	CALL FCD_LCDDis_00058
08BA  1283  	BCF STATUS, RP0
08BB  01FE  	CLRF FCD_LCDDis_00059_arg_x
08BC  1683  	BSF STATUS, RP0
08BD  01A0  	CLRF FCD_LCDDis_00059_arg_y
08BE  2347  	CALL FCD_LCDDis_00059
08BF  3020  	MOVLW 0x20
08C0  00A7  	MOVWF CompTempVar2196+D'7'
08C1  00AA  	MOVWF CompTempVar2196+D'10'
08C2  3021  	MOVLW 0x21
08C3  00AF  	MOVWF CompTempVar2196+D'15'
08C4  3044  	MOVLW 0x44
08C5  00AB  	MOVWF CompTempVar2196+D'11'
08C6  3045  	MOVLW 0x45
08C7  00A1  	MOVWF CompTempVar2196+D'1'
08C8  00AE  	MOVWF CompTempVar2196+D'14'
08C9  3047  	MOVLW 0x47
08CA  00A6  	MOVWF CompTempVar2196+D'6'
08CB  3049  	MOVLW 0x49
08CC  00A4  	MOVWF CompTempVar2196+D'4'
08CD  00A8  	MOVWF CompTempVar2196+D'8'
08CE  304E  	MOVLW 0x4E
08CF  00A5  	MOVWF CompTempVar2196+D'5'
08D0  00AD  	MOVWF CompTempVar2196+D'13'
08D1  304F  	MOVLW 0x4F
08D2  00AC  	MOVWF CompTempVar2196+D'12'
08D3  3053  	MOVLW 0x53
08D4  00A2  	MOVWF CompTempVar2196+D'2'
08D5  00A9  	MOVWF CompTempVar2196+D'9'
08D6  3054  	MOVLW 0x54
08D7  00A0  	MOVWF CompTempVar2196
08D8  00A3  	MOVWF CompTempVar2196+D'3'
08D9  01B0  	CLRF CompTempVar2196+D'16'
08DA  3000  	MOVLW HIGH(CompTempVar2196+D'0')
08DB  1283  	BCF STATUS, RP0
08DC  00FC  	MOVWF FCD_LCDDis_0005A_arg_String+D'1'
08DD  30A0  	MOVLW LOW(CompTempVar2196+D'0')
08DE  00FB  	MOVWF FCD_LCDDis_0005A_arg_String
08DF  3010  	MOVLW 0x10
08E0  1683  	BSF STATUS, RP0
08E1  00B1  	MOVWF FCD_LCDDis_0005A_arg_MSZ_String
08E2  2327  	CALL FCD_LCDDis_0005A
08E3  240D  	CALL FCM_displa_0005B
08E4  0008  	RETURN
08E5        ; } FCM_nrf_FUNCTION_test function end

	ORG 0x000008E5
08E5        FCI_SCOPY_00000
08E5        ; { FCI_SCOPY ; function begin
08E5  1683  	BSF STATUS, RP0
08E6  01A8  	CLRF FCI_SCOPY_00000_1_len
08E7        label76
08E7  1283  	BCF STATUS, RP0
08E8  087D  	MOVF FCI_SCOPY_00000_arg_iSrc_len, W
08E9  1683  	BSF STATUS, RP0
08EA  0228  	SUBWF FCI_SCOPY_00000_1_len, W
08EB  1803  	BTFSC STATUS,C
08EC  2915  	GOTO	label77
08ED  1283  	BCF STATUS, RP0
08EE  087E  	MOVF FCI_SCOPY_00000_arg_iDst_len, W
08EF  1683  	BSF STATUS, RP0
08F0  0228  	SUBWF FCI_SCOPY_00000_1_len, W
08F1  1803  	BTFSC STATUS,C
08F2  2915  	GOTO	label77
08F3  1383  	BCF STATUS,IRP
08F4  1283  	BCF STATUS, RP0
08F5  187C  	BTFSC FCI_SCOPY_00000_arg_sSrc+D'1',0
08F6  1783  	BSF STATUS,IRP
08F7  087B  	MOVF FCI_SCOPY_00000_arg_sSrc, W
08F8  1683  	BSF STATUS, RP0
08F9  0728  	ADDWF FCI_SCOPY_00000_1_len, W
08FA  0084  	MOVWF FSR
08FB  0880  	MOVF INDF, F
08FC  1903  	BTFSC STATUS,Z
08FD  2915  	GOTO	label77
08FE  1383  	BCF STATUS,IRP
08FF  1283  	BCF STATUS, RP0
0900  187C  	BTFSC FCI_SCOPY_00000_arg_sSrc+D'1',0
0901  1783  	BSF STATUS,IRP
0902  087B  	MOVF FCI_SCOPY_00000_arg_sSrc, W
0903  0084  	MOVWF FSR
0904  1683  	BSF STATUS, RP0
0905  0828  	MOVF FCI_SCOPY_00000_1_len, W
0906  00A9  	MOVWF CompTempVar2156
0907  0829  	MOVF CompTempVar2156, W
0908  0784  	ADDWF FSR, F
0909  0800  	MOVF INDF, W
090A  00AA  	MOVWF CompTempVar2157
090B  1383  	BCF STATUS,IRP
090C  1827  	BTFSC FCI_SCOPY_00000_arg_sDst+D'1',0
090D  1783  	BSF STATUS,IRP
090E  0826  	MOVF FCI_SCOPY_00000_arg_sDst, W
090F  0728  	ADDWF FCI_SCOPY_00000_1_len, W
0910  0084  	MOVWF FSR
0911  082A  	MOVF CompTempVar2157, W
0912  0080  	MOVWF INDF
0913  0AA8  	INCF FCI_SCOPY_00000_1_len, F
0914  28E7  	GOTO	label76
0915        label77
0915  1283  	BCF STATUS, RP0
0916  087E  	MOVF FCI_SCOPY_00000_arg_iDst_len, W
0917  1683  	BSF STATUS, RP0
0918  0228  	SUBWF FCI_SCOPY_00000_1_len, W
0919  1803  	BTFSC STATUS,C
091A  0008  	RETURN
091B  1383  	BCF STATUS,IRP
091C  1827  	BTFSC FCI_SCOPY_00000_arg_sDst+D'1',0
091D  1783  	BSF STATUS,IRP
091E  0826  	MOVF FCI_SCOPY_00000_arg_sDst, W
091F  0728  	ADDWF FCI_SCOPY_00000_1_len, W
0920  0084  	MOVWF FSR
0921  3000  	MOVLW 0x00
0922  0080  	MOVWF INDF
0923  0008  	RETURN
0924        ; } FCI_SCOPY function end

	ORG 0x00000924
0924        FCD_SPI_Le_00070
0924        ; { FCD_SPI_Legacy0_SPI_Init ; function begin
0924  1683  	BSF STATUS, RP0
0925  1303  	BCF STATUS, RP1
0926  1005  	BCF gbl_trisa,0
0927  1283  	BCF STATUS, RP0
0928  1405  	BSF gbl_porta,0
0929  1683  	BSF STATUS, RP0
092A  1005  	BCF gbl_trisa,0
092B  1283  	BCF STATUS, RP0
092C  1405  	BSF gbl_porta,0
092D  118A  	BCF PCLATH,3
092E  2367  	CALL FC_CAL_SPI_0006D
092F  0008  	RETURN
0930        ; } FCD_SPI_Legacy0_SPI_Init function end

	ORG 0x00000930
0930        FCD_LCDDis_00067
0930        ; { FCD_LCDDisplay0_Start ; function begin
0930  1683  	BSF STATUS, RP0
0931  1303  	BCF STATUS, RP1
0932  1106  	BCF gbl_trisb,2
0933  1283  	BCF STATUS, RP0
0934  1106  	BCF gbl_portb,2
0935  1683  	BSF STATUS, RP0
0936  1186  	BCF gbl_trisb,3
0937  1283  	BCF STATUS, RP0
0938  1186  	BCF gbl_portb,3
0939  1683  	BSF STATUS, RP0
093A  1206  	BCF gbl_trisb,4
093B  1283  	BCF STATUS, RP0
093C  1206  	BCF gbl_portb,4
093D  1683  	BSF STATUS, RP0
093E  1286  	BCF gbl_trisb,5
093F  1283  	BCF STATUS, RP0
0940  1286  	BCF gbl_portb,5
0941  1683  	BSF STATUS, RP0
0942  1006  	BCF gbl_trisb,0
0943  1283  	BCF STATUS, RP0
0944  1006  	BCF gbl_portb,0
0945  1683  	BSF STATUS, RP0
0946  1086  	BCF gbl_trisb,1
0947  1283  	BCF STATUS, RP0
0948  1086  	BCF gbl_portb,1
0949  300C  	MOVLW 0x0C
094A  1683  	BSF STATUS, RP0
094B  00A1  	MOVWF Wdt_Delay__0003E_arg_delay
094C  118A  	BCF PCLATH,3
094D  2090  	CALL Wdt_Delay__0003E
094E  3033  	MOVLW 0x33
094F  00B3  	MOVWF FCD_LCDDis_00066_arg_in
0950  01B4  	CLRF FCD_LCDDis_00066_arg_mask
0951  20CB  	CALL FCD_LCDDis_00066
0952  3002  	MOVLW 0x02
0953  00A1  	MOVWF Wdt_Delay__0003E_arg_delay
0954  2090  	CALL Wdt_Delay__0003E
0955  3033  	MOVLW 0x33
0956  00B3  	MOVWF FCD_LCDDis_00066_arg_in
0957  01B4  	CLRF FCD_LCDDis_00066_arg_mask
0958  20CB  	CALL FCD_LCDDis_00066
0959  3002  	MOVLW 0x02
095A  00A1  	MOVWF Wdt_Delay__0003E_arg_delay
095B  2090  	CALL Wdt_Delay__0003E
095C  3032  	MOVLW 0x32
095D  00B3  	MOVWF FCD_LCDDis_00066_arg_in
095E  01B4  	CLRF FCD_LCDDis_00066_arg_mask
095F  20CB  	CALL FCD_LCDDis_00066
0960  3002  	MOVLW 0x02
0961  00A1  	MOVWF Wdt_Delay__0003E_arg_delay
0962  2090  	CALL Wdt_Delay__0003E
0963  302C  	MOVLW 0x2C
0964  00B3  	MOVWF FCD_LCDDis_00066_arg_in
0965  01B4  	CLRF FCD_LCDDis_00066_arg_mask
0966  20CB  	CALL FCD_LCDDis_00066
0967  3002  	MOVLW 0x02
0968  00A1  	MOVWF Wdt_Delay__0003E_arg_delay
0969  2090  	CALL Wdt_Delay__0003E
096A  3006  	MOVLW 0x06
096B  00B3  	MOVWF FCD_LCDDis_00066_arg_in
096C  01B4  	CLRF FCD_LCDDis_00066_arg_mask
096D  20CB  	CALL FCD_LCDDis_00066
096E  3002  	MOVLW 0x02
096F  00A1  	MOVWF Wdt_Delay__0003E_arg_delay
0970  2090  	CALL Wdt_Delay__0003E
0971  300C  	MOVLW 0x0C
0972  00B3  	MOVWF FCD_LCDDis_00066_arg_in
0973  01B4  	CLRF FCD_LCDDis_00066_arg_mask
0974  20CB  	CALL FCD_LCDDis_00066
0975  3002  	MOVLW 0x02
0976  00A1  	MOVWF Wdt_Delay__0003E_arg_delay
0977  2090  	CALL Wdt_Delay__0003E
0978  3001  	MOVLW 0x01
0979  00B3  	MOVWF FCD_LCDDis_00066_arg_in
097A  01B4  	CLRF FCD_LCDDis_00066_arg_mask
097B  20CB  	CALL FCD_LCDDis_00066
097C  3002  	MOVLW 0x02
097D  00A1  	MOVWF Wdt_Delay__0003E_arg_delay
097E  2090  	CALL Wdt_Delay__0003E
097F  3002  	MOVLW 0x02
0980  00B3  	MOVWF FCD_LCDDis_00066_arg_in
0981  01B4  	CLRF FCD_LCDDis_00066_arg_mask
0982  20CB  	CALL FCD_LCDDis_00066
0983  3002  	MOVLW 0x02
0984  00A1  	MOVWF Wdt_Delay__0003E_arg_delay
0985  2090  	CALL Wdt_Delay__0003E
0986  0008  	RETURN
0987        ; } FCD_LCDDisplay0_Start function end

	ORG 0x00000987
0987        main
0987        ; { main ; function begin
0987  3007  	MOVLW 0x07
0988  1683  	BSF STATUS, RP0
0989  1303  	BCF STATUS, RP1
098A  009F  	MOVWF gbl_adcon1
098B  30C0  	MOVLW 0xC0
098C  0081  	MOVWF gbl_option_reg
098D  30FD  	MOVLW 0xFD
098E  0507  	ANDWF gbl_trisc, W
098F  0087  	MOVWF gbl_trisc
0990  30FD  	MOVLW 0xFD
0991  1283  	BCF STATUS, RP0
0992  0507  	ANDWF gbl_portc, W
0993  0087  	MOVWF gbl_portc
0994  30FB  	MOVLW 0xFB
0995  1683  	BSF STATUS, RP0
0996  0507  	ANDWF gbl_trisc, W
0997  0087  	MOVWF gbl_trisc
0998  30FB  	MOVLW 0xFB
0999  1283  	BCF STATUS, RP0
099A  0507  	ANDWF gbl_portc, W
099B  00FB  	MOVWF CompTempVar2339
099C  3004  	MOVLW 0x04
099D  047B  	IORWF CompTempVar2339, W
099E  0087  	MOVWF gbl_portc
099F  2130  	CALL FCD_LCDDis_00067
09A0  24F6  	CALL FCD_LCDDis_00058
09A1  158A  	BSF PCLATH,3
09A2  2124  	CALL FCD_SPI_Le_00070
09A3  3047  	MOVLW 0x47
09A4  1683  	BSF STATUS, RP0
09A5  00A0  	MOVWF CompTempVar2340
09A6  3042  	MOVLW 0x42
09A7  00A1  	MOVWF CompTempVar2340+D'1'
09A8  3050  	MOVLW 0x50
09A9  00A2  	MOVWF CompTempVar2340+D'2'
09AA  3030  	MOVLW 0x30
09AB  00A3  	MOVWF CompTempVar2340+D'3'
09AC  00A4  	MOVWF CompTempVar2340+D'4'
09AD  01A5  	CLRF CompTempVar2340+D'5'
09AE  3000  	MOVLW HIGH(CompTempVar2340+D'0')
09AF  1283  	BCF STATUS, RP0
09B0  00FC  	MOVWF FCI_SCOPY_00000_arg_sSrc+D'1'
09B1  30A0  	MOVLW LOW(CompTempVar2340+D'0')
09B2  00FB  	MOVWF FCI_SCOPY_00000_arg_sSrc
09B3  3005  	MOVLW 0x05
09B4  00FD  	MOVWF FCI_SCOPY_00000_arg_iSrc_len
09B5  3000  	MOVLW HIGH(gbl_FCV_NRF_ADDRESS+D'0')
09B6  1683  	BSF STATUS, RP0
09B7  00A7  	MOVWF FCI_SCOPY_00000_arg_sDst+D'1'
09B8  3040  	MOVLW LOW(gbl_FCV_NRF_ADDRESS+D'0')
09B9  00A6  	MOVWF FCI_SCOPY_00000_arg_sDst
09BA  3005  	MOVLW 0x05
09BB  1283  	BCF STATUS, RP0
09BC  00FE  	MOVWF FCI_SCOPY_00000_arg_iDst_len
09BD  158A  	BSF PCLATH,3
09BE  20E5  	CALL FCI_SCOPY_00000
09BF  3001  	MOVLW 0x01
09C0  1283  	BCF STATUS, RP0
09C1  00F1  	MOVWF gbl_FCV_PAYLOAD_SIZE
09C2  30FD  	MOVLW 0xFD
09C3  1683  	BSF STATUS, RP0
09C4  0507  	ANDWF gbl_trisc, W
09C5  0087  	MOVWF gbl_trisc
09C6  30FD  	MOVLW 0xFD
09C7  1283  	BCF STATUS, RP0
09C8  0507  	ANDWF gbl_portc, W
09C9  00FB  	MOVWF CompTempVar2343
09CA  3002  	MOVLW 0x02
09CB  047B  	IORWF CompTempVar2343, W
09CC  0087  	MOVWF gbl_portc
09CD  01FE  	CLRF FCD_LCDDis_00059_arg_x
09CE  1683  	BSF STATUS, RP0
09CF  01A0  	CLRF FCD_LCDDis_00059_arg_y
09D0  118A  	BCF PCLATH,3
09D1  2347  	CALL FCD_LCDDis_00059
09D2  302D  	MOVLW 0x2D
09D3  00A3  	MOVWF CompTempVar2344+D'3'
09D4  3045  	MOVLW 0x45
09D5  00A1  	MOVWF CompTempVar2344+D'1'
09D6  00A5  	MOVWF CompTempVar2344+D'5'
09D7  3047  	MOVLW 0x47
09D8  00A0  	MOVWF CompTempVar2344
09D9  3050  	MOVLW 0x50
09DA  00A4  	MOVWF CompTempVar2344+D'4'
09DB  3052  	MOVLW 0x52
09DC  00A2  	MOVWF CompTempVar2344+D'2'
09DD  00A6  	MOVWF CompTempVar2344+D'6'
09DE  01A7  	CLRF CompTempVar2344+D'7'
09DF  3000  	MOVLW HIGH(CompTempVar2344+D'0')
09E0  1283  	BCF STATUS, RP0
09E1  00FC  	MOVWF FCD_LCDDis_0005A_arg_String+D'1'
09E2  30A0  	MOVLW LOW(CompTempVar2344+D'0')
09E3  00FB  	MOVWF FCD_LCDDis_0005A_arg_String
09E4  3007  	MOVLW 0x07
09E5  1683  	BSF STATUS, RP0
09E6  00B1  	MOVWF FCD_LCDDis_0005A_arg_MSZ_String
09E7  2327  	CALL FCD_LCDDis_0005A
09E8  1283  	BCF STATUS, RP0
09E9  01FE  	CLRF FCD_LCDDis_00059_arg_x
09EA  3001  	MOVLW 0x01
09EB  1683  	BSF STATUS, RP0
09EC  00A0  	MOVWF FCD_LCDDis_00059_arg_y
09ED  2347  	CALL FCD_LCDDis_00059
09EE  3045  	MOVLW 0x45
09EF  00A0  	MOVWF CompTempVar2346
09F0  00A5  	MOVWF CompTempVar2346+D'5'
09F1  00A6  	MOVWF CompTempVar2346+D'6'
09F2  3047  	MOVLW 0x47
09F3  00A2  	MOVWF CompTempVar2346+D'2'
09F4  00AA  	MOVWF CompTempVar2346+D'10'
09F5  3049  	MOVLW 0x49
09F6  00A3  	MOVWF CompTempVar2346+D'3'
09F7  00A8  	MOVWF CompTempVar2346+D'8'
09F8  304E  	MOVLW 0x4E
09F9  00A1  	MOVWF CompTempVar2346+D'1'
09FA  00A4  	MOVWF CompTempVar2346+D'4'
09FB  00A9  	MOVWF CompTempVar2346+D'9'
09FC  3052  	MOVLW 0x52
09FD  00A7  	MOVWF CompTempVar2346+D'7'
09FE  01AB  	CLRF CompTempVar2346+D'11'
09FF  3000  	MOVLW HIGH(CompTempVar2346+D'0')
0A00  1283  	BCF STATUS, RP0
0A01  00FC  	MOVWF FCD_LCDDis_0005A_arg_String+D'1'
0A02  30A0  	MOVLW LOW(CompTempVar2346+D'0')
0A03  00FB  	MOVWF FCD_LCDDis_0005A_arg_String
0A04  300B  	MOVLW 0x0B
0A05  1683  	BSF STATUS, RP0
0A06  00B1  	MOVWF FCD_LCDDis_0005A_arg_MSZ_String
0A07  2327  	CALL FCD_LCDDis_0005A
0A08  1283  	BCF STATUS, RP0
0A09  01FE  	CLRF FCD_LCDDis_00059_arg_x
0A0A  3003  	MOVLW 0x03
0A0B  1683  	BSF STATUS, RP0
0A0C  00A0  	MOVWF FCD_LCDDis_00059_arg_y
0A0D  2347  	CALL FCD_LCDDis_00059
0A0E  3020  	MOVLW 0x20
0A0F  00A3  	MOVWF CompTempVar2348+D'3'
0A10  3045  	MOVLW 0x45
0A11  00A5  	MOVWF CompTempVar2348+D'5'
0A12  00A8  	MOVWF CompTempVar2348+D'8'
0A13  3046  	MOVLW 0x46
0A14  00A2  	MOVWF CompTempVar2348+D'2'
0A15  304E  	MOVLW 0x4E
0A16  00A0  	MOVWF CompTempVar2348
0A17  3052  	MOVLW 0x52
0A18  00A1  	MOVWF CompTempVar2348+D'1'
0A19  00A9  	MOVWF CompTempVar2348+D'9'
0A1A  3053  	MOVLW 0x53
0A1B  00A6  	MOVWF CompTempVar2348+D'6'
0A1C  3054  	MOVLW 0x54
0A1D  00A4  	MOVWF CompTempVar2348+D'4'
0A1E  00A7  	MOVWF CompTempVar2348+D'7'
0A1F  01AA  	CLRF CompTempVar2348+D'10'
0A20  3000  	MOVLW HIGH(CompTempVar2348+D'0')
0A21  1283  	BCF STATUS, RP0
0A22  00FC  	MOVWF FCD_LCDDis_0005A_arg_String+D'1'
0A23  30A0  	MOVLW LOW(CompTempVar2348+D'0')
0A24  00FB  	MOVWF FCD_LCDDis_0005A_arg_String
0A25  300A  	MOVLW 0x0A
0A26  1683  	BSF STATUS, RP0
0A27  00B1  	MOVWF FCD_LCDDis_0005A_arg_MSZ_String
0A28  2327  	CALL FCD_LCDDis_0005A
0A29  3002  	MOVLW 0x02
0A2A  1283  	BCF STATUS, RP0
0A2B  00FB  	MOVWF delay_s_00000_arg_del
0A2C  204F  	CALL delay_s_00000
0A2D  3001  	MOVLW 0x01
0A2E  1683  	BSF STATUS, RP0
0A2F  0405  	IORWF gbl_trisa, W
0A30  0085  	MOVWF gbl_trisa
0A31  3001  	MOVLW 0x01
0A32  1283  	BCF STATUS, RP0
0A33  0505  	ANDWF gbl_porta, W
0A34  00FB  	MOVWF CompTempVar2350
0A35  01FC  	CLRF CompTempVar2351
0A36  037B  	DECF CompTempVar2350, W
0A37  1903  	BTFSC STATUS,Z
0A38  0AFC  	INCF CompTempVar2351, F
0A39  106A  	BCF gbl_FCV_SW_TEST,0
0A3A  087C  	MOVF CompTempVar2351, W
0A3B  1D03  	BTFSS STATUS,Z
0A3C  146A  	BSF gbl_FCV_SW_TEST,0
0A3D  158A  	BSF PCLATH,3
0A3E  186A  	BTFSC gbl_FCV_SW_TEST,0
0A3F  2A43  	GOTO	label79
0A40  2020  	CALL FCM_nrf_FU_00057
0A41        label78
0A41  158A  	BSF PCLATH,3
0A42  2A41  	GOTO	label78
0A43        label79
0A43  3008  	MOVLW 0x08
0A44  1683  	BSF STATUS, RP0
0A45  0405  	IORWF gbl_trisa, W
0A46  0085  	MOVWF gbl_trisa
0A47  3008  	MOVLW 0x08
0A48  1283  	BCF STATUS, RP0
0A49  0505  	ANDWF gbl_porta, W
0A4A  00FB  	MOVWF CompTempVar2352
0A4B  01FC  	CLRF CompTempVar2353
0A4C  3008  	MOVLW 0x08
0A4D  027B  	SUBWF CompTempVar2352, W
0A4E  1903  	BTFSC STATUS,Z
0A4F  0AFC  	INCF CompTempVar2353, F
0A50  116A  	BCF gbl_FCV_SW_RXTX,2
0A51  087C  	MOVF CompTempVar2353, W
0A52  1D03  	BTFSS STATUS,Z
0A53  156A  	BSF gbl_FCV_SW_RXTX,2
0A54  196A  	BTFSC gbl_FCV_SW_RXTX,2
0A55  2A99  	GOTO	label80
0A56  118A  	BCF PCLATH,3
0A57  24F6  	CALL FCD_LCDDis_00058
0A58  1283  	BCF STATUS, RP0
0A59  01FE  	CLRF FCD_LCDDis_00059_arg_x
0A5A  1683  	BSF STATUS, RP0
0A5B  01A0  	CLRF FCD_LCDDis_00059_arg_y
0A5C  2347  	CALL FCD_LCDDis_00059
0A5D  3020  	MOVLW 0x20
0A5E  00A8  	MOVWF CompTempVar2354+D'8'
0A5F  3043  	MOVLW 0x43
0A60  00A2  	MOVWF CompTempVar2354+D'2'
0A61  3044  	MOVLW 0x44
0A62  00AB  	MOVWF CompTempVar2354+D'11'
0A63  3045  	MOVLW 0x45
0A64  00A1  	MOVWF CompTempVar2354+D'1'
0A65  00A4  	MOVWF CompTempVar2354+D'4'
0A66  00A6  	MOVWF CompTempVar2354+D'6'
0A67  00AC  	MOVWF CompTempVar2354+D'12'
0A68  3049  	MOVLW 0x49
0A69  00A3  	MOVWF CompTempVar2354+D'3'
0A6A  304D  	MOVLW 0x4D
0A6B  00A9  	MOVWF CompTempVar2354+D'9'
0A6C  304F  	MOVLW 0x4F
0A6D  00AA  	MOVWF CompTempVar2354+D'10'
0A6E  3052  	MOVLW 0x52
0A6F  00A0  	MOVWF CompTempVar2354
0A70  00A7  	MOVWF CompTempVar2354+D'7'
0A71  3056  	MOVLW 0x56
0A72  00A5  	MOVWF CompTempVar2354+D'5'
0A73  01AD  	CLRF CompTempVar2354+D'13'
0A74  3000  	MOVLW HIGH(CompTempVar2354+D'0')
0A75  1283  	BCF STATUS, RP0
0A76  00FC  	MOVWF FCD_LCDDis_0005A_arg_String+D'1'
0A77  30A0  	MOVLW LOW(CompTempVar2354+D'0')
0A78  00FB  	MOVWF FCD_LCDDis_0005A_arg_String
0A79  300D  	MOVLW 0x0D
0A7A  1683  	BSF STATUS, RP0
0A7B  00B1  	MOVWF FCD_LCDDis_0005A_arg_MSZ_String
0A7C  2327  	CALL FCD_LCDDis_0005A
0A7D  1283  	BCF STATUS, RP0
0A7E  01FE  	CLRF FCD_LCDDis_00059_arg_x
0A7F  3001  	MOVLW 0x01
0A80  1683  	BSF STATUS, RP0
0A81  00A0  	MOVWF FCD_LCDDis_00059_arg_y
0A82  2347  	CALL FCD_LCDDis_00059
0A83  3041  	MOVLW 0x41
0A84  00A0  	MOVWF CompTempVar2356
0A85  3044  	MOVLW 0x44
0A86  00A1  	MOVWF CompTempVar2356+D'1'
0A87  00A2  	MOVWF CompTempVar2356+D'2'
0A88  3052  	MOVLW 0x52
0A89  00A3  	MOVWF CompTempVar2356+D'3'
0A8A  303D  	MOVLW 0x3D
0A8B  00A4  	MOVWF CompTempVar2356+D'4'
0A8C  01A5  	CLRF CompTempVar2356+D'5'
0A8D  3000  	MOVLW HIGH(CompTempVar2356+D'0')
0A8E  1283  	BCF STATUS, RP0
0A8F  00FC  	MOVWF FCD_LCDDis_0005A_arg_String+D'1'
0A90  30A0  	MOVLW LOW(CompTempVar2356+D'0')
0A91  00FB  	MOVWF FCD_LCDDis_0005A_arg_String
0A92  3005  	MOVLW 0x05
0A93  1683  	BSF STATUS, RP0
0A94  00B1  	MOVWF FCD_LCDDis_0005A_arg_MSZ_String
0A95  2327  	CALL FCD_LCDDis_0005A
0A96  2507  	CALL FCM_rcv_ma_0005D
0A97  158A  	BSF PCLATH,3
0A98  2AC5  	GOTO	label81
0A99        label80
0A99  118A  	BCF PCLATH,3
0A9A  24F6  	CALL FCD_LCDDis_00058
0A9B  1283  	BCF STATUS, RP0
0A9C  01FE  	CLRF FCD_LCDDis_00059_arg_x
0A9D  1683  	BSF STATUS, RP0
0A9E  01A0  	CLRF FCD_LCDDis_00059_arg_y
0A9F  2347  	CALL FCD_LCDDis_00059
0AA0  3020  	MOVLW 0x20
0AA1  00AB  	MOVWF CompTempVar2358+D'11'
0AA2  3041  	MOVLW 0x41
0AA3  00A2  	MOVWF CompTempVar2358+D'2'
0AA4  3044  	MOVLW 0x44
0AA5  00AE  	MOVWF CompTempVar2358+D'14'
0AA6  3045  	MOVLW 0x45
0AA7  00A9  	MOVWF CompTempVar2358+D'9'
0AA8  00AF  	MOVWF CompTempVar2358+D'15'
0AA9  3049  	MOVLW 0x49
0AAA  00A6  	MOVWF CompTempVar2358+D'6'
0AAB  304D  	MOVLW 0x4D
0AAC  00A5  	MOVWF CompTempVar2358+D'5'
0AAD  00AC  	MOVWF CompTempVar2358+D'12'
0AAE  304E  	MOVLW 0x4E
0AAF  00A3  	MOVWF CompTempVar2358+D'3'
0AB0  304F  	MOVLW 0x4F
0AB1  00AD  	MOVWF CompTempVar2358+D'13'
0AB2  3052  	MOVLW 0x52
0AB3  00A1  	MOVWF CompTempVar2358+D'1'
0AB4  00AA  	MOVWF CompTempVar2358+D'10'
0AB5  3053  	MOVLW 0x53
0AB6  00A4  	MOVWF CompTempVar2358+D'4'
0AB7  3054  	MOVLW 0x54
0AB8  00A0  	MOVWF CompTempVar2358
0AB9  00A7  	MOVWF CompTempVar2358+D'7'
0ABA  00A8  	MOVWF CompTempVar2358+D'8'
0ABB  01B0  	CLRF CompTempVar2358+D'16'
0ABC  3000  	MOVLW HIGH(CompTempVar2358+D'0')
0ABD  1283  	BCF STATUS, RP0
0ABE  00FC  	MOVWF FCD_LCDDis_0005A_arg_String+D'1'
0ABF  30A0  	MOVLW LOW(CompTempVar2358+D'0')
0AC0  00FB  	MOVWF FCD_LCDDis_0005A_arg_String
0AC1  3010  	MOVLW 0x10
0AC2  1683  	BSF STATUS, RP0
0AC3  00B1  	MOVWF FCD_LCDDis_0005A_arg_MSZ_String
0AC4  2327  	CALL FCD_LCDDis_0005A
0AC5        label81
0AC5  158A  	BSF PCLATH,3
0AC6  2AC5  	GOTO	label81
0AC7        ; } main function end

	ORG 0x00000AC7
0AC7        _startup
0AC7  30D5  	MOVLW 0xD5
0AC8  1283  	BCF STATUS, RP0
0AC9  1303  	BCF STATUS, RP1
0ACA  00C5  	MOVWF gbl_14_LSR
0ACB  30C4  	MOVLW 0xC4
0ACC  00C6  	MOVWF gbl_14_LSR+D'1'
0ACD  30BB  	MOVLW 0xBB
0ACE  00C7  	MOVWF gbl_14_LSR+D'2'
0ACF  30DC  	MOVLW 0xDC
0AD0  00C8  	MOVWF gbl_14_LSR+D'3'
0AD1  01C9  	CLRF gbl_15_gbl_aSig
0AD2  01CA  	CLRF gbl_15_gbl_aSig+D'1'
0AD3  01CB  	CLRF gbl_15_gbl_aSig+D'2'
0AD4  01CC  	CLRF gbl_15_gbl_aSig+D'3'
0AD5  01CD  	CLRF gbl_15_gbl_bSig
0AD6  01CE  	CLRF gbl_15_gbl_bSig+D'1'
0AD7  01CF  	CLRF gbl_15_gbl_bSig+D'2'
0AD8  01D0  	CLRF gbl_15_gbl_bSig+D'3'
0AD9  01D1  	CLRF gbl_15_gbl_zSig
0ADA  01D2  	CLRF gbl_15_gbl_zSig+D'1'
0ADB  01D3  	CLRF gbl_15_gbl_zSig+D'2'
0ADC  01D4  	CLRF gbl_15_gbl_zSig+D'3'
0ADD  01E3  	CLRF gbl_15_gbl_aExp
0ADE  01E4  	CLRF gbl_15_gbl_bExp
0ADF  01DC  	CLRF gbl_15_gbl_zExp
0AE0  01DD  	CLRF gbl_15_gbl_zExp+D'1'
0AE1  01E5  	CLRF gbl_15_gbl_aSign
0AE2  01E6  	CLRF gbl_15_gbl_bSign
0AE3  01E7  	CLRF gbl_15_gbl_zSign
0AE4  01E8  	CLRF gbl_15_gbl_zSigZero
0AE5  01D5  	CLRF gbl_15_gbl_ret
0AE6  01D6  	CLRF gbl_15_gbl_ret+D'1'
0AE7  01D7  	CLRF gbl_15_gbl_ret+D'2'
0AE8  01D8  	CLRF gbl_15_gbl_ret+D'3'
0AE9  01E1  	CLRF gbl_float_rounding_mode
0AEA  01E2  	CLRF gbl_float_exception_flags
0AEB  01E0  	CLRF gbl_float_detect_tininess
0AEC  106A  	BCF gbl_FCV_SW_TEST,0
0AED  01EB  	CLRF gbl_FCV_ARRAY_SUB
0AEE  10EA  	BCF gbl_FCV_START_FLAG,1
0AEF  01DE  	CLRF gbl_FCV_FUNCTION_TEST_VAR
0AF0  01DF  	CLRF gbl_FCV_FUNCTION_TEST_VAR+D'1'
0AF1  3020  	MOVLW 0x20
0AF2  00C0  	MOVWF gbl_FCV_NRF_ADDRESS
0AF3  01C1  	CLRF gbl_FCV_NRF_ADDRESS+D'1'
0AF4  01EC  	CLRF gbl_FCV_SPI_WRT_DATA
0AF5  116A  	BCF gbl_FCV_SW_RXTX,2
0AF6  01ED  	CLRF gbl_FCV_NRF_REG00
0AF7  01EE  	CLRF gbl_FCV_REG_TO_WRITE
0AF8  01EF  	CLRF gbl_FCV_NRF_REG01
0AF9  01F1  	CLRF gbl_FCV_PAYLOAD_SIZE
0AFA  01F2  	CLRF gbl_FCV_NRF_REG03
0AFB  01F3  	CLRF gbl_FCV_FIFO_STATUS_REG
0AFC  01F4  	CLRF gbl_FCV_LOOP_COUNT
0AFD  01F5  	CLRF gbl_FCV_SPI_RCV_DATA
0AFE  01F6  	CLRF gbl_FCV_NRF_REG04
0AFF  01F7  	CLRF gbl_FCV_REG_TO_READ
0B00  01F8  	CLRF gbl_FCV_NRF_REG05
0B01  158A  	BSF PCLATH,3
0B02  120A  	BCF PCLATH,4
0B03  2987  	GOTO	main
	ORG 0x00000B04
0B04        interrupt
0B04        ; { interrupt ; function begin
0B04  1283  	BCF STATUS, RP0
0B05  1303  	BCF STATUS, RP1
0B06  0E5B  	SWAPF Int1BContext+D'2', W
0B07  0084  	MOVWF FSR
0B08  0E5A  	SWAPF Int1BContext+D'1', W
0B09  008A  	MOVWF PCLATH
0B0A  0E59  	SWAPF Int1BContext, W
0B0B  0083  	MOVWF STATUS
0B0C  0EFF  	SWAPF Int1Context, F
0B0D  0E7F  	SWAPF Int1Context, W
0B0E  0009  	RETFIE
0B0F        ; } interrupt function end

	ORG 0x00002007
2007  3F3A  	DW 0x3F3A
