;/////////////////////////////////////////////////////////////////////////////////
;// Code Generator: BoostC Compiler - http://www.sourceboost.com
;// Version       : 7.03
;// License Type  : Pro License
;// Limitations   : PIC12,PIC16 max code size:Unlimited, max RAM banks:Unlimited
;/////////////////////////////////////////////////////////////////////////////////

	ORG 0x00000000
0000  2AF2  	GOTO	_startup
	ORG 0x00000004
0004  00FF  	MOVWF Int1Context
0005  0E03  	SWAPF STATUS, W
0006  1283  	BCF STATUS, RP0
0007  1303  	BCF STATUS, RP1
0008  00B4  	MOVWF Int1BContext
0009  0E0A  	SWAPF PCLATH, W
000A  00B5  	MOVWF Int1BContext+D'1'
000B  0E04  	SWAPF FSR, W
000C  00B6  	MOVWF Int1BContext+D'2'
000D  118A  	BCF PCLATH,3
000E  120A  	BCF PCLATH,4
000F  2B1F  	GOTO	interrupt
	ORG 0x00000010
0010        delay_ms_00000
0010        ; { delay_ms ; function begin
0010  08C9  	MOVF delay_ms_00000_arg_del, F
0011  1D03  	BTFSS STATUS,Z
0012  2814  	GOTO	label1
0013  0008  	RETURN
0014        label1
0014  30F9  	MOVLW 0xF9
0015        label2
0015  0000  	NOP
0016  0000  	NOP
0017  0000  	NOP
0018  0000  	NOP
0019  0000  	NOP
001A  0000  	NOP
001B  0000  	NOP
001C  0000  	NOP
001D  0000  	NOP
001E  0000  	NOP
001F  0000  	NOP
0020  0000  	NOP
0021  0000  	NOP
0022  0000  	NOP
0023  0000  	NOP
0024  0000  	NOP
0025  3EFF  	ADDLW 0xFF
0026  1D03  	BTFSS STATUS,Z
0027  2815  	GOTO	label2
0028  0000  	NOP
0029  0000  	NOP
002A  0000  	NOP
002B  0000  	NOP
002C  0000  	NOP
002D  0000  	NOP
002E  0000  	NOP
002F  0000  	NOP
0030  0000  	NOP
0031  0000  	NOP
0032  0000  	NOP
0033  0000  	NOP
0034  0000  	NOP
0035  0000  	NOP
0036  0000  	NOP
0037  0000  	NOP
0038  0000  	NOP
0039  0BC9  	DECFSZ delay_ms_00000_arg_del, F
003A  2814  	GOTO	label1
003B  0008  	RETURN
003C        ; } delay_ms function end

	ORG 0x0000003C
003C        delay_10us_00000
003C        ; { delay_10us ; function begin
003C  08CE  	MOVF delay_10us_00000_arg_del, F
003D  1D03  	BTFSS STATUS,Z
003E  2840  	GOTO	label3
003F  0008  	RETURN
0040        label3
0040  3009  	MOVLW 0x09
0041        label4
0041  0000  	NOP
0042  3EFF  	ADDLW 0xFF
0043  1D03  	BTFSS STATUS,Z
0044  2841  	GOTO	label4
0045  0000  	NOP
0046  0000  	NOP
0047  0BCE  	DECFSZ delay_10us_00000_arg_del, F
0048  2840  	GOTO	label3
0049  0008  	RETURN
004A        ; } delay_10us function end

	ORG 0x0000004A
004A        delay_s_00000
004A        ; { delay_s ; function begin
004A        label5
004A  30FA  	MOVLW 0xFA
004B  00C9  	MOVWF delay_ms_00000_arg_del
004C  2010  	CALL delay_ms_00000
004D  30FA  	MOVLW 0xFA
004E  00C9  	MOVWF delay_ms_00000_arg_del
004F  2010  	CALL delay_ms_00000
0050  30FA  	MOVLW 0xFA
0051  00C9  	MOVWF delay_ms_00000_arg_del
0052  2010  	CALL delay_ms_00000
0053  30FA  	MOVLW 0xFA
0054  00C9  	MOVWF delay_ms_00000_arg_del
0055  2010  	CALL delay_ms_00000
0056  0BC5  	DECFSZ delay_s_00000_arg_del, F
0057  284A  	GOTO	label5
0058  0008  	RETURN
0059        ; } delay_s function end

	ORG 0x00000059
0059        __div_16_1_00003
0059        ; { __div_16_16 ; function begin
0059  01D0  	CLRF __div_16_1_00003_1_r
005A  01D1  	CLRF __div_16_1_00003_1_r+D'1'
005B  01D3  	CLRF CompTempVarRet214
005C  01D4  	CLRF CompTempVarRet214+D'1'
005D  01D2  	CLRF __div_16_1_00003_1_i
005E        label6
005E  1A52  	BTFSC __div_16_1_00003_1_i,4
005F  0008  	RETURN
0060  1003  	BCF STATUS,C
0061  0DD3  	RLF CompTempVarRet214, F
0062  0DD4  	RLF CompTempVarRet214+D'1', F
0063  0DCA  	RLF __div_16_1_00003_arg_a, F
0064  0DCB  	RLF __div_16_1_00003_arg_a+D'1', F
0065  0DD0  	RLF __div_16_1_00003_1_r, F
0066  0DD1  	RLF __div_16_1_00003_1_r+D'1', F
0067  084D  	MOVF __div_16_1_00003_arg_b+D'1', W
0068  0251  	SUBWF __div_16_1_00003_1_r+D'1', W
0069  1D03  	BTFSS STATUS,Z
006A  286D  	GOTO	label7
006B  084C  	MOVF __div_16_1_00003_arg_b, W
006C  0250  	SUBWF __div_16_1_00003_1_r, W
006D        label7
006D  1C03  	BTFSS STATUS,C
006E  2876  	GOTO	label8
006F  084C  	MOVF __div_16_1_00003_arg_b, W
0070  02D0  	SUBWF __div_16_1_00003_1_r, F
0071  084D  	MOVF __div_16_1_00003_arg_b+D'1', W
0072  1C03  	BTFSS STATUS,C
0073  03D1  	DECF __div_16_1_00003_1_r+D'1', F
0074  02D1  	SUBWF __div_16_1_00003_1_r+D'1', F
0075  1453  	BSF CompTempVarRet214,0
0076        label8
0076  0AD2  	INCF __div_16_1_00003_1_i, F
0077  285E  	GOTO	label6
0078        ; } __div_16_16 function end

	ORG 0x00000078
0078        Wdt_Delay__0003E
0078        ; { Wdt_Delay_Ms ; function begin
0078  01C8  	CLRF Wdt_Delay__0003E_1_i
0079        label9
0079  0847  	MOVF Wdt_Delay__0003E_arg_delay, W
007A  0248  	SUBWF Wdt_Delay__0003E_1_i, W
007B  1803  	BTFSC STATUS,C
007C  0008  	RETURN
007D  0064  	CLRWDT
007E  3001  	MOVLW 0x01
007F  00C9  	MOVWF delay_ms_00000_arg_del
0080  2010  	CALL delay_ms_00000
0081  0AC8  	INCF Wdt_Delay__0003E_1_i, F
0082  2879  	GOTO	label9
0083        ; } Wdt_Delay_Ms function end

	ORG 0x00000083
0083        FCD_LCDDis_00051
0083        ; { FCD_LCDDisplay0_RawSend ; function begin
0083  1106  	BCF gbl_portb,2
0084  1186  	BCF gbl_portb,3
0085  1206  	BCF gbl_portb,4
0086  1286  	BCF gbl_portb,5
0087  1006  	BCF gbl_portb,0
0088  1086  	BCF gbl_portb,1
0089  0E4B  	SWAPF FCD_LCDDis_00051_arg_in, W
008A  390F  	ANDLW 0x0F
008B  00CD  	MOVWF FCD_LCDDis_00051_1_pt
008C  300F  	MOVLW 0x0F
008D  05CD  	ANDWF FCD_LCDDis_00051_1_pt, F
008E  184D  	BTFSC FCD_LCDDis_00051_1_pt,0
008F  1506  	BSF gbl_portb,2
0090  18CD  	BTFSC FCD_LCDDis_00051_1_pt,1
0091  1586  	BSF gbl_portb,3
0092  194D  	BTFSC FCD_LCDDis_00051_1_pt,2
0093  1606  	BSF gbl_portb,4
0094  19CD  	BTFSC FCD_LCDDis_00051_1_pt,3
0095  1686  	BSF gbl_portb,5
0096  08CC  	MOVF FCD_LCDDis_00051_arg_mask, F
0097  1D03  	BTFSS STATUS,Z
0098  1406  	BSF gbl_portb,0
0099  300A  	MOVLW 0x0A
009A  00CE  	MOVWF delay_10us_00000_arg_del
009B  203C  	CALL delay_10us_00000
009C  1486  	BSF gbl_portb,1
009D  300A  	MOVLW 0x0A
009E  00CE  	MOVWF delay_10us_00000_arg_del
009F  203C  	CALL delay_10us_00000
00A0  1086  	BCF gbl_portb,1
00A1  300F  	MOVLW 0x0F
00A2  054B  	ANDWF FCD_LCDDis_00051_arg_in, W
00A3  00CD  	MOVWF FCD_LCDDis_00051_1_pt
00A4  300A  	MOVLW 0x0A
00A5  00CE  	MOVWF delay_10us_00000_arg_del
00A6  203C  	CALL delay_10us_00000
00A7  1106  	BCF gbl_portb,2
00A8  1186  	BCF gbl_portb,3
00A9  1206  	BCF gbl_portb,4
00AA  1286  	BCF gbl_portb,5
00AB  1006  	BCF gbl_portb,0
00AC  1086  	BCF gbl_portb,1
00AD  184D  	BTFSC FCD_LCDDis_00051_1_pt,0
00AE  1506  	BSF gbl_portb,2
00AF  18CD  	BTFSC FCD_LCDDis_00051_1_pt,1
00B0  1586  	BSF gbl_portb,3
00B1  194D  	BTFSC FCD_LCDDis_00051_1_pt,2
00B2  1606  	BSF gbl_portb,4
00B3  19CD  	BTFSC FCD_LCDDis_00051_1_pt,3
00B4  1686  	BSF gbl_portb,5
00B5  08CC  	MOVF FCD_LCDDis_00051_arg_mask, F
00B6  1D03  	BTFSS STATUS,Z
00B7  1406  	BSF gbl_portb,0
00B8  300A  	MOVLW 0x0A
00B9  00CE  	MOVWF delay_10us_00000_arg_del
00BA  203C  	CALL delay_10us_00000
00BB  1486  	BSF gbl_portb,1
00BC  300A  	MOVLW 0x0A
00BD  00CE  	MOVWF delay_10us_00000_arg_del
00BE  203C  	CALL delay_10us_00000
00BF  1086  	BCF gbl_portb,1
00C0  300A  	MOVLW 0x0A
00C1  00CE  	MOVWF delay_10us_00000_arg_del
00C2  203C  	CALL delay_10us_00000
00C3  0008  	RETURN
00C4        ; } FCD_LCDDisplay0_RawSend function end

	ORG 0x000000C4
00C4        FCD_LCDDis_00058
00C4        ; { FCD_LCDDisplay0_PrintString ; function begin
00C4  01CA  	CLRF FCD_LCDDis_00058_1_idx
00C5  01CA  	CLRF FCD_LCDDis_00058_1_idx
00C6        label10
00C6  0849  	MOVF FCD_LCDDis_00058_arg_MSZ_String, W
00C7  024A  	SUBWF FCD_LCDDis_00058_1_idx, W
00C8  1803  	BTFSC STATUS,C
00C9  0008  	RETURN
00CA  1383  	BCF STATUS,IRP
00CB  1846  	BTFSC FCD_LCDDis_00058_arg_String+D'1',0
00CC  1783  	BSF STATUS,IRP
00CD  0845  	MOVF FCD_LCDDis_00058_arg_String, W
00CE  074A  	ADDWF FCD_LCDDis_00058_1_idx, W
00CF  0084  	MOVWF FSR
00D0  0880  	MOVF INDF, F
00D1  1903  	BTFSC STATUS,Z
00D2  0008  	RETURN
00D3  1383  	BCF STATUS,IRP
00D4  1846  	BTFSC FCD_LCDDis_00058_arg_String+D'1',0
00D5  1783  	BSF STATUS,IRP
00D6  0845  	MOVF FCD_LCDDis_00058_arg_String, W
00D7  074A  	ADDWF FCD_LCDDis_00058_1_idx, W
00D8  0084  	MOVWF FSR
00D9  0800  	MOVF INDF, W
00DA  00CB  	MOVWF FCD_LCDDis_00051_arg_in
00DB  3010  	MOVLW 0x10
00DC  00CC  	MOVWF FCD_LCDDis_00051_arg_mask
00DD  2083  	CALL FCD_LCDDis_00051
00DE  0ACA  	INCF FCD_LCDDis_00058_1_idx, F
00DF  28C6  	GOTO	label10
00E0        ; } FCD_LCDDisplay0_PrintString function end

	ORG 0x000000E0
00E0        FCD_LCDDis_00057
00E0        ; { FCD_LCDDisplay0_PrintNumber ; function begin
00E0  1FC6  	BTFSS FCD_LCDDis_00057_arg_Number+D'1',7
00E1  28EF  	GOTO	label11
00E2  302D  	MOVLW 0x2D
00E3  00CB  	MOVWF FCD_LCDDis_00051_arg_in
00E4  3010  	MOVLW 0x10
00E5  00CC  	MOVWF FCD_LCDDis_00051_arg_mask
00E6  2083  	CALL FCD_LCDDis_00051
00E7  0845  	MOVF FCD_LCDDis_00057_arg_Number, W
00E8  3C00  	SUBLW 0x00
00E9  00CA  	MOVWF CompTempVar2189
00EA  09C6  	COMF FCD_LCDDis_00057_arg_Number+D'1', F
00EB  1803  	BTFSC STATUS,C
00EC  0AC6  	INCF FCD_LCDDis_00057_arg_Number+D'1', F
00ED  084A  	MOVF CompTempVar2189, W
00EE  00C5  	MOVWF FCD_LCDDis_00057_arg_Number
00EF        label11
00EF  0845  	MOVF FCD_LCDDis_00057_arg_Number, W
00F0  00C7  	MOVWF FCD_LCDDis_00057_1_tmp_int
00F1  0846  	MOVF FCD_LCDDis_00057_arg_Number+D'1', W
00F2  00C8  	MOVWF FCD_LCDDis_00057_1_tmp_int+D'1'
00F3  3027  	MOVLW 0x27
00F4  0246  	SUBWF FCD_LCDDis_00057_arg_Number+D'1', W
00F5  1D03  	BTFSS STATUS,Z
00F6  28F9  	GOTO	label12
00F7  3010  	MOVLW 0x10
00F8  0245  	SUBWF FCD_LCDDis_00057_arg_Number, W
00F9        label12
00F9  1C03  	BTFSS STATUS,C
00FA  2927  	GOTO	label16
00FB  1BC6  	BTFSC FCD_LCDDis_00057_arg_Number+D'1',7
00FC  2927  	GOTO	label16
00FD  01CE  	CLRF CompTempVar2192
00FE  0847  	MOVF FCD_LCDDis_00057_1_tmp_int, W
00FF  00CA  	MOVWF __div_16_1_00003_arg_a
0100  0848  	MOVF FCD_LCDDis_00057_1_tmp_int+D'1', W
0101  00CB  	MOVWF __div_16_1_00003_arg_a+D'1'
0102  1FC8  	BTFSS FCD_LCDDis_00057_1_tmp_int+D'1',7
0103  290A  	GOTO	label13
0104  09CA  	COMF __div_16_1_00003_arg_a, F
0105  09CB  	COMF __div_16_1_00003_arg_a+D'1', F
0106  0ACA  	INCF __div_16_1_00003_arg_a, F
0107  1903  	BTFSC STATUS,Z
0108  0ACB  	INCF __div_16_1_00003_arg_a+D'1', F
0109  0ACE  	INCF CompTempVar2192, F
010A        label13
010A  3010  	MOVLW 0x10
010B  00CC  	MOVWF __div_16_1_00003_arg_b
010C  3027  	MOVLW 0x27
010D  00CD  	MOVWF __div_16_1_00003_arg_b+D'1'
010E  2059  	CALL __div_16_1_00003
010F  0853  	MOVF CompTempVarRet214, W
0110  00C9  	MOVWF FCD_LCDDis_00057_1_tmp_byte
0111  1C4E  	BTFSS CompTempVar2192,0
0112  2915  	GOTO	label14
0113  09C9  	COMF FCD_LCDDis_00057_1_tmp_byte, F
0114  0AC9  	INCF FCD_LCDDis_00057_1_tmp_byte, F
0115        label14
0115  0849  	MOVF FCD_LCDDis_00057_1_tmp_byte, W
0116  3E30  	ADDLW 0x30
0117  00CB  	MOVWF FCD_LCDDis_00051_arg_in
0118  3010  	MOVLW 0x10
0119  00CC  	MOVWF FCD_LCDDis_00051_arg_mask
011A  2083  	CALL FCD_LCDDis_00051
011B        label15
011B  0849  	MOVF FCD_LCDDis_00057_1_tmp_byte, W
011C  3C00  	SUBLW 0x00
011D  1803  	BTFSC STATUS,C
011E  2927  	GOTO	label16
011F  3010  	MOVLW 0x10
0120  02C7  	SUBWF FCD_LCDDis_00057_1_tmp_int, F
0121  3027  	MOVLW 0x27
0122  1C03  	BTFSS STATUS,C
0123  3028  	MOVLW 0x28
0124  02C8  	SUBWF FCD_LCDDis_00057_1_tmp_int+D'1', F
0125  03C9  	DECF FCD_LCDDis_00057_1_tmp_byte, F
0126  291B  	GOTO	label15
0127        label16
0127  3003  	MOVLW 0x03
0128  0246  	SUBWF FCD_LCDDis_00057_arg_Number+D'1', W
0129  1D03  	BTFSS STATUS,Z
012A  292D  	GOTO	label17
012B  30E8  	MOVLW 0xE8
012C  0245  	SUBWF FCD_LCDDis_00057_arg_Number, W
012D        label17
012D  1C03  	BTFSS STATUS,C
012E  295D  	GOTO	label21
012F  1BC6  	BTFSC FCD_LCDDis_00057_arg_Number+D'1',7
0130  295D  	GOTO	label21
0131  01CF  	CLRF CompTempVar2196
0132  0847  	MOVF FCD_LCDDis_00057_1_tmp_int, W
0133  00CA  	MOVWF __div_16_1_00003_arg_a
0134  0848  	MOVF FCD_LCDDis_00057_1_tmp_int+D'1', W
0135  00CB  	MOVWF __div_16_1_00003_arg_a+D'1'
0136  1FC8  	BTFSS FCD_LCDDis_00057_1_tmp_int+D'1',7
0137  293E  	GOTO	label18
0138  09CA  	COMF __div_16_1_00003_arg_a, F
0139  09CB  	COMF __div_16_1_00003_arg_a+D'1', F
013A  0ACA  	INCF __div_16_1_00003_arg_a, F
013B  1903  	BTFSC STATUS,Z
013C  0ACB  	INCF __div_16_1_00003_arg_a+D'1', F
013D  0ACF  	INCF CompTempVar2196, F
013E        label18
013E  30E8  	MOVLW 0xE8
013F  00CC  	MOVWF __div_16_1_00003_arg_b
0140  3003  	MOVLW 0x03
0141  00CD  	MOVWF __div_16_1_00003_arg_b+D'1'
0142  2059  	CALL __div_16_1_00003
0143  0853  	MOVF CompTempVarRet214, W
0144  00CE  	MOVWF CompTempVar2195
0145  1C4F  	BTFSS CompTempVar2196,0
0146  2949  	GOTO	label19
0147  09CE  	COMF CompTempVar2195, F
0148  0ACE  	INCF CompTempVar2195, F
0149        label19
0149  084E  	MOVF CompTempVar2195, W
014A  00C9  	MOVWF FCD_LCDDis_00057_1_tmp_byte
014B  0849  	MOVF FCD_LCDDis_00057_1_tmp_byte, W
014C  3E30  	ADDLW 0x30
014D  00CB  	MOVWF FCD_LCDDis_00051_arg_in
014E  3010  	MOVLW 0x10
014F  00CC  	MOVWF FCD_LCDDis_00051_arg_mask
0150  2083  	CALL FCD_LCDDis_00051
0151        label20
0151  0849  	MOVF FCD_LCDDis_00057_1_tmp_byte, W
0152  3C00  	SUBLW 0x00
0153  1803  	BTFSC STATUS,C
0154  295D  	GOTO	label21
0155  30E8  	MOVLW 0xE8
0156  02C7  	SUBWF FCD_LCDDis_00057_1_tmp_int, F
0157  3003  	MOVLW 0x03
0158  1C03  	BTFSS STATUS,C
0159  3004  	MOVLW 0x04
015A  02C8  	SUBWF FCD_LCDDis_00057_1_tmp_int+D'1', F
015B  03C9  	DECF FCD_LCDDis_00057_1_tmp_byte, F
015C  2951  	GOTO	label20
015D        label21
015D  0846  	MOVF FCD_LCDDis_00057_arg_Number+D'1', W
015E  3A80  	XORLW 0x80
015F  00CA  	MOVWF CompTempVar2199
0160  3080  	MOVLW 0x80
0161  024A  	SUBWF CompTempVar2199, W
0162  1D03  	BTFSS STATUS,Z
0163  2966  	GOTO	label22
0164  3064  	MOVLW 0x64
0165  0245  	SUBWF FCD_LCDDis_00057_arg_Number, W
0166        label22
0166  1C03  	BTFSS STATUS,C
0167  2992  	GOTO	label26
0168  01CF  	CLRF CompTempVar2201
0169  0847  	MOVF FCD_LCDDis_00057_1_tmp_int, W
016A  00CA  	MOVWF __div_16_1_00003_arg_a
016B  0848  	MOVF FCD_LCDDis_00057_1_tmp_int+D'1', W
016C  00CB  	MOVWF __div_16_1_00003_arg_a+D'1'
016D  1FC8  	BTFSS FCD_LCDDis_00057_1_tmp_int+D'1',7
016E  2975  	GOTO	label23
016F  09CA  	COMF __div_16_1_00003_arg_a, F
0170  09CB  	COMF __div_16_1_00003_arg_a+D'1', F
0171  0ACA  	INCF __div_16_1_00003_arg_a, F
0172  1903  	BTFSC STATUS,Z
0173  0ACB  	INCF __div_16_1_00003_arg_a+D'1', F
0174  0ACF  	INCF CompTempVar2201, F
0175        label23
0175  3064  	MOVLW 0x64
0176  00CC  	MOVWF __div_16_1_00003_arg_b
0177  01CD  	CLRF __div_16_1_00003_arg_b+D'1'
0178  2059  	CALL __div_16_1_00003
0179  0853  	MOVF CompTempVarRet214, W
017A  00CE  	MOVWF CompTempVar2200
017B  1C4F  	BTFSS CompTempVar2201,0
017C  297F  	GOTO	label24
017D  09CE  	COMF CompTempVar2200, F
017E  0ACE  	INCF CompTempVar2200, F
017F        label24
017F  084E  	MOVF CompTempVar2200, W
0180  00C9  	MOVWF FCD_LCDDis_00057_1_tmp_byte
0181  0849  	MOVF FCD_LCDDis_00057_1_tmp_byte, W
0182  3E30  	ADDLW 0x30
0183  00CB  	MOVWF FCD_LCDDis_00051_arg_in
0184  3010  	MOVLW 0x10
0185  00CC  	MOVWF FCD_LCDDis_00051_arg_mask
0186  2083  	CALL FCD_LCDDis_00051
0187        label25
0187  0849  	MOVF FCD_LCDDis_00057_1_tmp_byte, W
0188  3C00  	SUBLW 0x00
0189  1803  	BTFSC STATUS,C
018A  2992  	GOTO	label26
018B  3064  	MOVLW 0x64
018C  02C7  	SUBWF FCD_LCDDis_00057_1_tmp_int, F
018D  08C8  	MOVF FCD_LCDDis_00057_1_tmp_int+D'1', F
018E  1C03  	BTFSS STATUS,C
018F  03C8  	DECF FCD_LCDDis_00057_1_tmp_int+D'1', F
0190  03C9  	DECF FCD_LCDDis_00057_1_tmp_byte, F
0191  2987  	GOTO	label25
0192        label26
0192  0846  	MOVF FCD_LCDDis_00057_arg_Number+D'1', W
0193  3A80  	XORLW 0x80
0194  00CA  	MOVWF CompTempVar2204
0195  3080  	MOVLW 0x80
0196  024A  	SUBWF CompTempVar2204, W
0197  1D03  	BTFSS STATUS,Z
0198  299B  	GOTO	label27
0199  300A  	MOVLW 0x0A
019A  0245  	SUBWF FCD_LCDDis_00057_arg_Number, W
019B        label27
019B  1C03  	BTFSS STATUS,C
019C  29C7  	GOTO	label31
019D  01CF  	CLRF CompTempVar2206
019E  0847  	MOVF FCD_LCDDis_00057_1_tmp_int, W
019F  00CA  	MOVWF __div_16_1_00003_arg_a
01A0  0848  	MOVF FCD_LCDDis_00057_1_tmp_int+D'1', W
01A1  00CB  	MOVWF __div_16_1_00003_arg_a+D'1'
01A2  1FC8  	BTFSS FCD_LCDDis_00057_1_tmp_int+D'1',7
01A3  29AA  	GOTO	label28
01A4  09CA  	COMF __div_16_1_00003_arg_a, F
01A5  09CB  	COMF __div_16_1_00003_arg_a+D'1', F
01A6  0ACA  	INCF __div_16_1_00003_arg_a, F
01A7  1903  	BTFSC STATUS,Z
01A8  0ACB  	INCF __div_16_1_00003_arg_a+D'1', F
01A9  0ACF  	INCF CompTempVar2206, F
01AA        label28
01AA  300A  	MOVLW 0x0A
01AB  00CC  	MOVWF __div_16_1_00003_arg_b
01AC  01CD  	CLRF __div_16_1_00003_arg_b+D'1'
01AD  2059  	CALL __div_16_1_00003
01AE  0853  	MOVF CompTempVarRet214, W
01AF  00CE  	MOVWF CompTempVar2205
01B0  1C4F  	BTFSS CompTempVar2206,0
01B1  29B4  	GOTO	label29
01B2  09CE  	COMF CompTempVar2205, F
01B3  0ACE  	INCF CompTempVar2205, F
01B4        label29
01B4  084E  	MOVF CompTempVar2205, W
01B5  00C9  	MOVWF FCD_LCDDis_00057_1_tmp_byte
01B6  0849  	MOVF FCD_LCDDis_00057_1_tmp_byte, W
01B7  3E30  	ADDLW 0x30
01B8  00CB  	MOVWF FCD_LCDDis_00051_arg_in
01B9  3010  	MOVLW 0x10
01BA  00CC  	MOVWF FCD_LCDDis_00051_arg_mask
01BB  2083  	CALL FCD_LCDDis_00051
01BC        label30
01BC  0849  	MOVF FCD_LCDDis_00057_1_tmp_byte, W
01BD  3C00  	SUBLW 0x00
01BE  1803  	BTFSC STATUS,C
01BF  29C7  	GOTO	label31
01C0  300A  	MOVLW 0x0A
01C1  02C7  	SUBWF FCD_LCDDis_00057_1_tmp_int, F
01C2  08C8  	MOVF FCD_LCDDis_00057_1_tmp_int+D'1', F
01C3  1C03  	BTFSS STATUS,C
01C4  03C8  	DECF FCD_LCDDis_00057_1_tmp_int+D'1', F
01C5  03C9  	DECF FCD_LCDDis_00057_1_tmp_byte, F
01C6  29BC  	GOTO	label30
01C7        label31
01C7  0847  	MOVF FCD_LCDDis_00057_1_tmp_int, W
01C8  3E30  	ADDLW 0x30
01C9  00CB  	MOVWF FCD_LCDDis_00051_arg_in
01CA  3010  	MOVLW 0x10
01CB  00CC  	MOVWF FCD_LCDDis_00051_arg_mask
01CC  2083  	CALL FCD_LCDDis_00051
01CD  0008  	RETURN
01CE        ; } FCD_LCDDisplay0_PrintNumber function end

	ORG 0x000001CE
01CE        FCD_LCDDis_00056
01CE        ; { FCD_LCDDisplay0_Cursor ; function begin
01CE  08C6  	MOVF FCD_LCDDis_00056_arg_y, F
01CF  1D03  	BTFSS STATUS,Z
01D0  29D4  	GOTO	label32
01D1  3080  	MOVLW 0x80
01D2  00C6  	MOVWF FCD_LCDDis_00056_arg_y
01D3  29E3  	GOTO	label35
01D4        label32
01D4  0346  	DECF FCD_LCDDis_00056_arg_y, W
01D5  1D03  	BTFSS STATUS,Z
01D6  29DA  	GOTO	label33
01D7  30C0  	MOVLW 0xC0
01D8  00C6  	MOVWF FCD_LCDDis_00056_arg_y
01D9  29E3  	GOTO	label35
01DA        label33
01DA  0846  	MOVF FCD_LCDDis_00056_arg_y, W
01DB  3A02  	XORLW 0x02
01DC  1D03  	BTFSS STATUS,Z
01DD  29E1  	GOTO	label34
01DE  3090  	MOVLW 0x90
01DF  00C6  	MOVWF FCD_LCDDis_00056_arg_y
01E0  29E3  	GOTO	label35
01E1        label34
01E1  30D0  	MOVLW 0xD0
01E2  00C6  	MOVWF FCD_LCDDis_00056_arg_y
01E3        label35
01E3  0845  	MOVF FCD_LCDDis_00056_arg_x, W
01E4  0746  	ADDWF FCD_LCDDis_00056_arg_y, W
01E5  00CB  	MOVWF FCD_LCDDis_00051_arg_in
01E6  01CC  	CLRF FCD_LCDDis_00051_arg_mask
01E7  2083  	CALL FCD_LCDDis_00051
01E8  3002  	MOVLW 0x02
01E9  00C7  	MOVWF Wdt_Delay__0003E_arg_delay
01EA  2078  	CALL Wdt_Delay__0003E
01EB  0008  	RETURN
01EC        ; } FCD_LCDDisplay0_Cursor function end

	ORG 0x000001EC
01EC        FCD_LCDDis_00053
01EC        ; { FCD_LCDDisplay0_Clear ; function begin
01EC  3001  	MOVLW 0x01
01ED  1283  	BCF STATUS, RP0
01EE  1303  	BCF STATUS, RP1
01EF  00CB  	MOVWF FCD_LCDDis_00051_arg_in
01F0  01CC  	CLRF FCD_LCDDis_00051_arg_mask
01F1  2083  	CALL FCD_LCDDis_00051
01F2  3002  	MOVLW 0x02
01F3  00C7  	MOVWF Wdt_Delay__0003E_arg_delay
01F4  2078  	CALL Wdt_Delay__0003E
01F5  3002  	MOVLW 0x02
01F6  00CB  	MOVWF FCD_LCDDis_00051_arg_in
01F7  01CC  	CLRF FCD_LCDDis_00051_arg_mask
01F8  2083  	CALL FCD_LCDDis_00051
01F9  3002  	MOVLW 0x02
01FA  00C7  	MOVWF Wdt_Delay__0003E_arg_delay
01FB  2078  	CALL Wdt_Delay__0003E
01FC  0008  	RETURN
01FD        ; } FCD_LCDDisplay0_Clear function end

	ORG 0x000001FD
01FD        FCD_LCDDis_00052
01FD        ; { FCD_LCDDisplay0_Start ; function begin
01FD  1683  	BSF STATUS, RP0
01FE  1303  	BCF STATUS, RP1
01FF  1106  	BCF gbl_trisb,2
0200  1283  	BCF STATUS, RP0
0201  1106  	BCF gbl_portb,2
0202  1683  	BSF STATUS, RP0
0203  1186  	BCF gbl_trisb,3
0204  1283  	BCF STATUS, RP0
0205  1186  	BCF gbl_portb,3
0206  1683  	BSF STATUS, RP0
0207  1206  	BCF gbl_trisb,4
0208  1283  	BCF STATUS, RP0
0209  1206  	BCF gbl_portb,4
020A  1683  	BSF STATUS, RP0
020B  1286  	BCF gbl_trisb,5
020C  1283  	BCF STATUS, RP0
020D  1286  	BCF gbl_portb,5
020E  1683  	BSF STATUS, RP0
020F  1006  	BCF gbl_trisb,0
0210  1283  	BCF STATUS, RP0
0211  1006  	BCF gbl_portb,0
0212  1683  	BSF STATUS, RP0
0213  1086  	BCF gbl_trisb,1
0214  1283  	BCF STATUS, RP0
0215  1086  	BCF gbl_portb,1
0216  300C  	MOVLW 0x0C
0217  00C7  	MOVWF Wdt_Delay__0003E_arg_delay
0218  2078  	CALL Wdt_Delay__0003E
0219  3033  	MOVLW 0x33
021A  00CB  	MOVWF FCD_LCDDis_00051_arg_in
021B  01CC  	CLRF FCD_LCDDis_00051_arg_mask
021C  2083  	CALL FCD_LCDDis_00051
021D  3002  	MOVLW 0x02
021E  00C7  	MOVWF Wdt_Delay__0003E_arg_delay
021F  2078  	CALL Wdt_Delay__0003E
0220  3033  	MOVLW 0x33
0221  00CB  	MOVWF FCD_LCDDis_00051_arg_in
0222  01CC  	CLRF FCD_LCDDis_00051_arg_mask
0223  2083  	CALL FCD_LCDDis_00051
0224  3002  	MOVLW 0x02
0225  00C7  	MOVWF Wdt_Delay__0003E_arg_delay
0226  2078  	CALL Wdt_Delay__0003E
0227  3032  	MOVLW 0x32
0228  00CB  	MOVWF FCD_LCDDis_00051_arg_in
0229  01CC  	CLRF FCD_LCDDis_00051_arg_mask
022A  2083  	CALL FCD_LCDDis_00051
022B  3002  	MOVLW 0x02
022C  00C7  	MOVWF Wdt_Delay__0003E_arg_delay
022D  2078  	CALL Wdt_Delay__0003E
022E  302C  	MOVLW 0x2C
022F  00CB  	MOVWF FCD_LCDDis_00051_arg_in
0230  01CC  	CLRF FCD_LCDDis_00051_arg_mask
0231  2083  	CALL FCD_LCDDis_00051
0232  3002  	MOVLW 0x02
0233  00C7  	MOVWF Wdt_Delay__0003E_arg_delay
0234  2078  	CALL Wdt_Delay__0003E
0235  3006  	MOVLW 0x06
0236  00CB  	MOVWF FCD_LCDDis_00051_arg_in
0237  01CC  	CLRF FCD_LCDDis_00051_arg_mask
0238  2083  	CALL FCD_LCDDis_00051
0239  3002  	MOVLW 0x02
023A  00C7  	MOVWF Wdt_Delay__0003E_arg_delay
023B  2078  	CALL Wdt_Delay__0003E
023C  300C  	MOVLW 0x0C
023D  00CB  	MOVWF FCD_LCDDis_00051_arg_in
023E  01CC  	CLRF FCD_LCDDis_00051_arg_mask
023F  2083  	CALL FCD_LCDDis_00051
0240  3002  	MOVLW 0x02
0241  00C7  	MOVWF Wdt_Delay__0003E_arg_delay
0242  2078  	CALL Wdt_Delay__0003E
0243  3001  	MOVLW 0x01
0244  00CB  	MOVWF FCD_LCDDis_00051_arg_in
0245  01CC  	CLRF FCD_LCDDis_00051_arg_mask
0246  2083  	CALL FCD_LCDDis_00051
0247  3002  	MOVLW 0x02
0248  00C7  	MOVWF Wdt_Delay__0003E_arg_delay
0249  2078  	CALL Wdt_Delay__0003E
024A  3002  	MOVLW 0x02
024B  00CB  	MOVWF FCD_LCDDis_00051_arg_in
024C  01CC  	CLRF FCD_LCDDis_00051_arg_mask
024D  2083  	CALL FCD_LCDDis_00051
024E  3002  	MOVLW 0x02
024F  00C7  	MOVWF Wdt_Delay__0003E_arg_delay
0250  2078  	CALL Wdt_Delay__0003E
0251  0008  	RETURN
0252        ; } FCD_LCDDisplay0_Start function end

	ORG 0x00000252
0252        main
0252        ; { main ; function begin
0252  3007  	MOVLW 0x07
0253  1683  	BSF STATUS, RP0
0254  1303  	BCF STATUS, RP1
0255  009F  	MOVWF gbl_adcon1
0256  30C0  	MOVLW 0xC0
0257  0081  	MOVWF gbl_option_reg
0258  21FD  	CALL FCD_LCDDis_00052
0259  21EC  	CALL FCD_LCDDis_00053
025A  01C5  	CLRF FCD_LCDDis_00056_arg_x
025B  01C6  	CLRF FCD_LCDDis_00056_arg_y
025C  21CE  	CALL FCD_LCDDis_00056
025D  3053  	MOVLW 0x53
025E  00C7  	MOVWF CompTempVar2217
025F  01C8  	CLRF CompTempVar2217+D'1'
0260  3000  	MOVLW HIGH(CompTempVar2217+D'0')
0261  00C6  	MOVWF FCD_LCDDis_00058_arg_String+D'1'
0262  3047  	MOVLW LOW(CompTempVar2217+D'0')
0263  00C5  	MOVWF FCD_LCDDis_00058_arg_String
0264  3001  	MOVLW 0x01
0265  00C9  	MOVWF FCD_LCDDis_00058_arg_MSZ_String
0266  20C4  	CALL FCD_LCDDis_00058
0267  3001  	MOVLW 0x01
0268  00C5  	MOVWF delay_s_00000_arg_del
0269  204A  	CALL delay_s_00000
026A        label36
026A  18C3  	BTFSC gbl_FCV_CSN_BIT,1
026B  2A7D  	GOTO	label37
026C  3001  	MOVLW 0x01
026D  1683  	BSF STATUS, RP0
026E  0407  	IORWF gbl_trisc, W
026F  0087  	MOVWF gbl_trisc
0270  3001  	MOVLW 0x01
0271  1283  	BCF STATUS, RP0
0272  0507  	ANDWF gbl_portc, W
0273  00C5  	MOVWF CompTempVar2219
0274  01C6  	CLRF CompTempVar2220
0275  0345  	DECF CompTempVar2219, W
0276  1903  	BTFSC STATUS,Z
0277  0AC6  	INCF CompTempVar2220, F
0278  10C3  	BCF gbl_FCV_CSN_BIT,1
0279  0846  	MOVF CompTempVar2220, W
027A  1D03  	BTFSS STATUS,Z
027B  14C3  	BSF gbl_FCV_CSN_BIT,1
027C  2A6A  	GOTO	label36
027D        label37
027D  01C4  	CLRF gbl_FCV_COUNTER
027E        label38
027E  3001  	MOVLW 0x01
027F  1683  	BSF STATUS, RP0
0280  0407  	IORWF gbl_trisc, W
0281  0087  	MOVWF gbl_trisc
0282  3001  	MOVLW 0x01
0283  1283  	BCF STATUS, RP0
0284  0507  	ANDWF gbl_portc, W
0285  00C5  	MOVWF CompTempVar2221
0286  01C6  	CLRF CompTempVar2222
0287  0345  	DECF CompTempVar2221, W
0288  1903  	BTFSC STATUS,Z
0289  0AC6  	INCF CompTempVar2222, F
028A  10C3  	BCF gbl_FCV_CSN_BIT,1
028B  0846  	MOVF CompTempVar2222, W
028C  1D03  	BTFSS STATUS,Z
028D  14C3  	BSF gbl_FCV_CSN_BIT,1
028E  18C3  	BTFSC gbl_FCV_CSN_BIT,1
028F  2A7E  	GOTO	label38
0290        label39
0290  3002  	MOVLW 0x02
0291  1683  	BSF STATUS, RP0
0292  0407  	IORWF gbl_trisc, W
0293  0087  	MOVWF gbl_trisc
0294  3002  	MOVLW 0x02
0295  1283  	BCF STATUS, RP0
0296  0507  	ANDWF gbl_portc, W
0297  00C5  	MOVWF CompTempVar2223
0298  01C6  	CLRF CompTempVar2224
0299  3002  	MOVLW 0x02
029A  0245  	SUBWF CompTempVar2223, W
029B  1903  	BTFSC STATUS,Z
029C  0AC6  	INCF CompTempVar2224, F
029D  1143  	BCF gbl_FCV_CLK_BIT,2
029E  0846  	MOVF CompTempVar2224, W
029F  1D03  	BTFSS STATUS,Z
02A0  1543  	BSF gbl_FCV_CLK_BIT,2
02A1  1D43  	BTFSS gbl_FCV_CLK_BIT,2
02A2  2A90  	GOTO	label39
02A3  3004  	MOVLW 0x04
02A4  1683  	BSF STATUS, RP0
02A5  0407  	IORWF gbl_trisc, W
02A6  0087  	MOVWF gbl_trisc
02A7  3004  	MOVLW 0x04
02A8  1283  	BCF STATUS, RP0
02A9  0507  	ANDWF gbl_portc, W
02AA  00C5  	MOVWF CompTempVar2225
02AB  01C6  	CLRF CompTempVar2226
02AC  3004  	MOVLW 0x04
02AD  0245  	SUBWF CompTempVar2225, W
02AE  1903  	BTFSC STATUS,Z
02AF  0AC6  	INCF CompTempVar2226, F
02B0  1043  	BCF gbl_FCV_MOSI_BIT,0
02B1  0846  	MOVF CompTempVar2226, W
02B2  1D03  	BTFSS STATUS,Z
02B3  1443  	BSF gbl_FCV_MOSI_BIT,0
02B4  01C5  	CLRF CompTempVar2227
02B5  1C42  	BTFSS gbl_FCV_MOSI_DATA,0
02B6  2ABA  	GOTO	label40
02B7  1C43  	BTFSS gbl_FCV_MOSI_BIT,0
02B8  2ABA  	GOTO	label40
02B9  0AC5  	INCF CompTempVar2227, F
02BA        label40
02BA  0845  	MOVF CompTempVar2227, W
02BB  00C2  	MOVWF gbl_FCV_MOSI_DATA
02BC  08C2  	MOVF gbl_FCV_MOSI_DATA, F
02BD  1003  	BCF STATUS,C
02BE  0DC2  	RLF gbl_FCV_MOSI_DATA, F
02BF  0A44  	INCF gbl_FCV_COUNTER, W
02C0  00C4  	MOVWF gbl_FCV_COUNTER
02C1        label41
02C1  3002  	MOVLW 0x02
02C2  1683  	BSF STATUS, RP0
02C3  0407  	IORWF gbl_trisc, W
02C4  0087  	MOVWF gbl_trisc
02C5  3002  	MOVLW 0x02
02C6  1283  	BCF STATUS, RP0
02C7  0507  	ANDWF gbl_portc, W
02C8  00C5  	MOVWF CompTempVar2229
02C9  01C6  	CLRF CompTempVar2230
02CA  3002  	MOVLW 0x02
02CB  0245  	SUBWF CompTempVar2229, W
02CC  1903  	BTFSC STATUS,Z
02CD  0AC6  	INCF CompTempVar2230, F
02CE  1143  	BCF gbl_FCV_CLK_BIT,2
02CF  0846  	MOVF CompTempVar2230, W
02D0  1D03  	BTFSS STATUS,Z
02D1  1543  	BSF gbl_FCV_CLK_BIT,2
02D2  1943  	BTFSC gbl_FCV_CLK_BIT,2
02D3  2AC1  	GOTO	label41
02D4  0844  	MOVF gbl_FCV_COUNTER, W
02D5  3A08  	XORLW 0x08
02D6  1D03  	BTFSS STATUS,Z
02D7  2A90  	GOTO	label39
02D8  01C5  	CLRF FCD_LCDDis_00056_arg_x
02D9  01C6  	CLRF FCD_LCDDis_00056_arg_y
02DA  21CE  	CALL FCD_LCDDis_00056
02DB  0842  	MOVF gbl_FCV_MOSI_DATA, W
02DC  00C5  	MOVWF FCD_LCDDis_00057_arg_Number
02DD  01C6  	CLRF FCD_LCDDis_00057_arg_Number+D'1'
02DE  20E0  	CALL FCD_LCDDis_00057
02DF        label42
02DF  18C3  	BTFSC gbl_FCV_CSN_BIT,1
02E0  2A7D  	GOTO	label37
02E1  3001  	MOVLW 0x01
02E2  1683  	BSF STATUS, RP0
02E3  0407  	IORWF gbl_trisc, W
02E4  0087  	MOVWF gbl_trisc
02E5  3001  	MOVLW 0x01
02E6  1283  	BCF STATUS, RP0
02E7  0507  	ANDWF gbl_portc, W
02E8  00C5  	MOVWF CompTempVar2231
02E9  01C6  	CLRF CompTempVar2232
02EA  0345  	DECF CompTempVar2231, W
02EB  1903  	BTFSC STATUS,Z
02EC  0AC6  	INCF CompTempVar2232, F
02ED  10C3  	BCF gbl_FCV_CSN_BIT,1
02EE  0846  	MOVF CompTempVar2232, W
02EF  1D03  	BTFSS STATUS,Z
02F0  14C3  	BSF gbl_FCV_CSN_BIT,1
02F1  2ADF  	GOTO	label42
02F2        ; } main function end

	ORG 0x000002F2
02F2        _startup
02F2  30D5  	MOVLW 0xD5
02F3  1283  	BCF STATUS, RP0
02F4  1303  	BCF STATUS, RP1
02F5  00A0  	MOVWF gbl_14_LSR
02F6  30C4  	MOVLW 0xC4
02F7  00A1  	MOVWF gbl_14_LSR+D'1'
02F8  30BB  	MOVLW 0xBB
02F9  00A2  	MOVWF gbl_14_LSR+D'2'
02FA  30DC  	MOVLW 0xDC
02FB  00A3  	MOVWF gbl_14_LSR+D'3'
02FC  01A4  	CLRF gbl_15_gbl_aSig
02FD  01A5  	CLRF gbl_15_gbl_aSig+D'1'
02FE  01A6  	CLRF gbl_15_gbl_aSig+D'2'
02FF  01A7  	CLRF gbl_15_gbl_aSig+D'3'
0300  01A8  	CLRF gbl_15_gbl_bSig
0301  01A9  	CLRF gbl_15_gbl_bSig+D'1'
0302  01AA  	CLRF gbl_15_gbl_bSig+D'2'
0303  01AB  	CLRF gbl_15_gbl_bSig+D'3'
0304  01AC  	CLRF gbl_15_gbl_zSig
0305  01AD  	CLRF gbl_15_gbl_zSig+D'1'
0306  01AE  	CLRF gbl_15_gbl_zSig+D'2'
0307  01AF  	CLRF gbl_15_gbl_zSig+D'3'
0308  01BC  	CLRF gbl_15_gbl_aExp
0309  01BD  	CLRF gbl_15_gbl_bExp
030A  01B7  	CLRF gbl_15_gbl_zExp
030B  01B8  	CLRF gbl_15_gbl_zExp+D'1'
030C  01BE  	CLRF gbl_15_gbl_aSign
030D  01BF  	CLRF gbl_15_gbl_bSign
030E  01C0  	CLRF gbl_15_gbl_zSign
030F  01C1  	CLRF gbl_15_gbl_zSigZero
0310  01B0  	CLRF gbl_15_gbl_ret
0311  01B1  	CLRF gbl_15_gbl_ret+D'1'
0312  01B2  	CLRF gbl_15_gbl_ret+D'2'
0313  01B3  	CLRF gbl_15_gbl_ret+D'3'
0314  01BA  	CLRF gbl_float_rounding_mode
0315  01BB  	CLRF gbl_float_exception_flags
0316  01B9  	CLRF gbl_float_detect_tininess
0317  30FF  	MOVLW 0xFF
0318  00C2  	MOVWF gbl_FCV_MOSI_DATA
0319  1043  	BCF gbl_FCV_MOSI_BIT,0
031A  14C3  	BSF gbl_FCV_CSN_BIT,1
031B  1143  	BCF gbl_FCV_CLK_BIT,2
031C  118A  	BCF PCLATH,3
031D  120A  	BCF PCLATH,4
031E  2A52  	GOTO	main
	ORG 0x0000031F
031F        interrupt
031F        ; { interrupt ; function begin
031F  1283  	BCF STATUS, RP0
0320  1303  	BCF STATUS, RP1
0321  0E36  	SWAPF Int1BContext+D'2', W
0322  0084  	MOVWF FSR
0323  0E35  	SWAPF Int1BContext+D'1', W
0324  008A  	MOVWF PCLATH
0325  0E34  	SWAPF Int1BContext, W
0326  0083  	MOVWF STATUS
0327  0EFF  	SWAPF Int1Context, F
0328  0E7F  	SWAPF Int1Context, W
0329  0009  	RETFIE
032A        ; } interrupt function end

	ORG 0x00002007
2007  3F3A  	DW 0x3F3A
