;/////////////////////////////////////////////////////////////////////////////////
;// Code Generator: BoostC Compiler - http://www.sourceboost.com
;// Version       : 7.03
;// License Type  : Pro License
;// Limitations   : PIC12,PIC16 max code size:Unlimited, max RAM banks:Unlimited
;/////////////////////////////////////////////////////////////////////////////////

	ORG 0x00000000
0000  2C38  	GOTO	_startup
	ORG 0x00000004
0004  00FF  	MOVWF Int1Context
0005  0E03  	SWAPF STATUS, W
0006  1283  	BCF STATUS, RP0
0007  1303  	BCF STATUS, RP1
0008  00B4  	MOVWF Int1BContext
0009  0E0A  	SWAPF PCLATH, W
000A  00B5  	MOVWF Int1BContext+D'1'
000B  0E04  	SWAPF FSR, W
000C  00B6  	MOVWF Int1BContext+D'2'
000D  118A  	BCF PCLATH,3
000E  120A  	BCF PCLATH,4
000F  2C88  	GOTO	interrupt
	ORG 0x00000010
0010        delay_ms_00000
0010        ; { delay_ms ; function begin
0010  08EB  	MOVF delay_ms_00000_arg_del, F
0011  1D03  	BTFSS STATUS,Z
0012  2814  	GOTO	label1
0013  0008  	RETURN
0014        label1
0014  30F9  	MOVLW 0xF9
0015        label2
0015  0000  	NOP
0016  0000  	NOP
0017  0000  	NOP
0018  0000  	NOP
0019  0000  	NOP
001A  0000  	NOP
001B  0000  	NOP
001C  0000  	NOP
001D  0000  	NOP
001E  0000  	NOP
001F  0000  	NOP
0020  0000  	NOP
0021  0000  	NOP
0022  0000  	NOP
0023  0000  	NOP
0024  0000  	NOP
0025  3EFF  	ADDLW 0xFF
0026  1D03  	BTFSS STATUS,Z
0027  2815  	GOTO	label2
0028  0000  	NOP
0029  0000  	NOP
002A  0000  	NOP
002B  0000  	NOP
002C  0000  	NOP
002D  0000  	NOP
002E  0000  	NOP
002F  0000  	NOP
0030  0000  	NOP
0031  0000  	NOP
0032  0000  	NOP
0033  0000  	NOP
0034  0000  	NOP
0035  0000  	NOP
0036  0000  	NOP
0037  0000  	NOP
0038  0000  	NOP
0039  0BEB  	DECFSZ delay_ms_00000_arg_del, F
003A  2814  	GOTO	label1
003B  0008  	RETURN
003C        ; } delay_ms function end

	ORG 0x0000003C
003C        delay_10us_00000
003C        ; { delay_10us ; function begin
003C  08EF  	MOVF delay_10us_00000_arg_del, F
003D  1D03  	BTFSS STATUS,Z
003E  2840  	GOTO	label3
003F  0008  	RETURN
0040        label3
0040  3009  	MOVLW 0x09
0041        label4
0041  0000  	NOP
0042  3EFF  	ADDLW 0xFF
0043  1D03  	BTFSS STATUS,Z
0044  2841  	GOTO	label4
0045  0000  	NOP
0046  0000  	NOP
0047  0BEF  	DECFSZ delay_10us_00000_arg_del, F
0048  2840  	GOTO	label3
0049  0008  	RETURN
004A        ; } delay_10us function end

	ORG 0x0000004A
004A        delay_us_00000
004A        ; { delay_us ; function begin
004A        label5
004A  0000  	NOP
004B  0000  	NOP
004C  0BE7  	DECFSZ delay_us_00000_arg_del, F
004D  284A  	GOTO	label5
004E  0008  	RETURN
004F        ; } delay_us function end

	ORG 0x0000004F
004F        delay_s_00000
004F        ; { delay_s ; function begin
004F        label6
004F  30FA  	MOVLW 0xFA
0050  00EB  	MOVWF delay_ms_00000_arg_del
0051  2010  	CALL delay_ms_00000
0052  30FA  	MOVLW 0xFA
0053  00EB  	MOVWF delay_ms_00000_arg_del
0054  2010  	CALL delay_ms_00000
0055  30FA  	MOVLW 0xFA
0056  00EB  	MOVWF delay_ms_00000_arg_del
0057  2010  	CALL delay_ms_00000
0058  30FA  	MOVLW 0xFA
0059  00EB  	MOVWF delay_ms_00000_arg_del
005A  2010  	CALL delay_ms_00000
005B  0BE7  	DECFSZ delay_s_00000_arg_del, F
005C  284F  	GOTO	label6
005D  0008  	RETURN
005E        ; } delay_s function end

	ORG 0x0000005E
005E        FC_CAL_SPI_0006B
005E        ; { FC_CAL_SPI_Master_Byte_1 ; function begin
005E  01E9  	CLRF FC_CAL_SPI_0006B_1_retVal
005F  0868  	MOVF FC_CAL_SPI_0006B_arg_DataOut, W
0060  0093  	MOVWF gbl_sspbuf
0061        label7
0061  1683  	BSF STATUS, RP0
0062  1C14  	BTFSS gbl_sspstat,0
0063  2861  	GOTO	label7
0064  1283  	BCF STATUS, RP0
0065  0813  	MOVF gbl_sspbuf, W
0066  00E9  	MOVWF FC_CAL_SPI_0006B_1_retVal
0067  0869  	MOVF FC_CAL_SPI_0006B_1_retVal, W
0068  00EA  	MOVWF CompTempVarRet2222
0069  0008  	RETURN
006A        ; } FC_CAL_SPI_Master_Byte_1 function end

	ORG 0x0000006A
006A        __div_16_1_00003
006A        ; { __div_16_16 ; function begin
006A  01F2  	CLRF __div_16_1_00003_1_r
006B  01F3  	CLRF __div_16_1_00003_1_r+D'1'
006C  01F5  	CLRF CompTempVarRet214
006D  01F6  	CLRF CompTempVarRet214+D'1'
006E  01F4  	CLRF __div_16_1_00003_1_i
006F        label8
006F  1A74  	BTFSC __div_16_1_00003_1_i,4
0070  0008  	RETURN
0071  1003  	BCF STATUS,C
0072  0DF5  	RLF CompTempVarRet214, F
0073  0DF6  	RLF CompTempVarRet214+D'1', F
0074  0DEC  	RLF __div_16_1_00003_arg_a, F
0075  0DED  	RLF __div_16_1_00003_arg_a+D'1', F
0076  0DF2  	RLF __div_16_1_00003_1_r, F
0077  0DF3  	RLF __div_16_1_00003_1_r+D'1', F
0078  086F  	MOVF __div_16_1_00003_arg_b+D'1', W
0079  0273  	SUBWF __div_16_1_00003_1_r+D'1', W
007A  1D03  	BTFSS STATUS,Z
007B  287E  	GOTO	label9
007C  086E  	MOVF __div_16_1_00003_arg_b, W
007D  0272  	SUBWF __div_16_1_00003_1_r, W
007E        label9
007E  1C03  	BTFSS STATUS,C
007F  2887  	GOTO	label10
0080  086E  	MOVF __div_16_1_00003_arg_b, W
0081  02F2  	SUBWF __div_16_1_00003_1_r, F
0082  086F  	MOVF __div_16_1_00003_arg_b+D'1', W
0083  1C03  	BTFSS STATUS,C
0084  03F3  	DECF __div_16_1_00003_1_r+D'1', F
0085  02F3  	SUBWF __div_16_1_00003_1_r+D'1', F
0086  1475  	BSF CompTempVarRet214,0
0087        label10
0087  0AF4  	INCF __div_16_1_00003_1_i, F
0088  286F  	GOTO	label8
0089        ; } __div_16_16 function end

	ORG 0x00000089
0089        Wdt_Delay__0003E
0089        ; { Wdt_Delay_Ms ; function begin
0089  01EA  	CLRF Wdt_Delay__0003E_1_i
008A        label11
008A  0869  	MOVF Wdt_Delay__0003E_arg_delay, W
008B  026A  	SUBWF Wdt_Delay__0003E_1_i, W
008C  1803  	BTFSC STATUS,C
008D  0008  	RETURN
008E  0064  	CLRWDT
008F  3001  	MOVLW 0x01
0090  00EB  	MOVWF delay_ms_00000_arg_del
0091  2010  	CALL delay_ms_00000
0092  0AEA  	INCF Wdt_Delay__0003E_1_i, F
0093  288A  	GOTO	label11
0094        ; } Wdt_Delay_Ms function end

	ORG 0x00000094
0094        FCD_SPI_Le_00054
0094        ; { FCD_SPI_Legacy0_SPI_Get_Char ; function begin
0094  1283  	BCF STATUS, RP0
0095  1303  	BCF STATUS, RP1
0096  01E7  	CLRF FCD_SPI_Le_00054_1_retVal
0097  30FF  	MOVLW 0xFF
0098  00E8  	MOVWF FC_CAL_SPI_0006B_arg_DataOut
0099  205E  	CALL FC_CAL_SPI_0006B
009A  086A  	MOVF CompTempVarRet2222, W
009B  00E7  	MOVWF FCD_SPI_Le_00054_1_retVal
009C  0867  	MOVF FCD_SPI_Le_00054_1_retVal, W
009D  00E8  	MOVWF CompTempVarRet2189
009E  0008  	RETURN
009F        ; } FCD_SPI_Legacy0_SPI_Get_Char function end

	ORG 0x0000009F
009F        FCD_SPI_Le_00053
009F        ; { FCD_SPI_Legacy0_SPI_Send_Char ; function begin
009F  0867  	MOVF FCD_SPI_Le_00053_arg_Char, W
00A0  00E8  	MOVWF FC_CAL_SPI_0006B_arg_DataOut
00A1  205E  	CALL FC_CAL_SPI_0006B
00A2  0008  	RETURN
00A3        ; } FCD_SPI_Legacy0_SPI_Send_Char function end

	ORG 0x000000A3
00A3        FCD_LCDDis_0005F
00A3        ; { FCD_LCDDisplay0_RawSend ; function begin
00A3  1106  	BCF gbl_portb,2
00A4  1186  	BCF gbl_portb,3
00A5  1206  	BCF gbl_portb,4
00A6  1286  	BCF gbl_portb,5
00A7  1006  	BCF gbl_portb,0
00A8  1086  	BCF gbl_portb,1
00A9  0E6C  	SWAPF FCD_LCDDis_0005F_arg_in, W
00AA  390F  	ANDLW 0x0F
00AB  00EE  	MOVWF FCD_LCDDis_0005F_1_pt
00AC  300F  	MOVLW 0x0F
00AD  05EE  	ANDWF FCD_LCDDis_0005F_1_pt, F
00AE  186E  	BTFSC FCD_LCDDis_0005F_1_pt,0
00AF  1506  	BSF gbl_portb,2
00B0  18EE  	BTFSC FCD_LCDDis_0005F_1_pt,1
00B1  1586  	BSF gbl_portb,3
00B2  196E  	BTFSC FCD_LCDDis_0005F_1_pt,2
00B3  1606  	BSF gbl_portb,4
00B4  19EE  	BTFSC FCD_LCDDis_0005F_1_pt,3
00B5  1686  	BSF gbl_portb,5
00B6  08ED  	MOVF FCD_LCDDis_0005F_arg_mask, F
00B7  1D03  	BTFSS STATUS,Z
00B8  1406  	BSF gbl_portb,0
00B9  300A  	MOVLW 0x0A
00BA  00EF  	MOVWF delay_10us_00000_arg_del
00BB  203C  	CALL delay_10us_00000
00BC  1486  	BSF gbl_portb,1
00BD  300A  	MOVLW 0x0A
00BE  00EF  	MOVWF delay_10us_00000_arg_del
00BF  203C  	CALL delay_10us_00000
00C0  1086  	BCF gbl_portb,1
00C1  300F  	MOVLW 0x0F
00C2  056C  	ANDWF FCD_LCDDis_0005F_arg_in, W
00C3  00EE  	MOVWF FCD_LCDDis_0005F_1_pt
00C4  300A  	MOVLW 0x0A
00C5  00EF  	MOVWF delay_10us_00000_arg_del
00C6  203C  	CALL delay_10us_00000
00C7  1106  	BCF gbl_portb,2
00C8  1186  	BCF gbl_portb,3
00C9  1206  	BCF gbl_portb,4
00CA  1286  	BCF gbl_portb,5
00CB  1006  	BCF gbl_portb,0
00CC  1086  	BCF gbl_portb,1
00CD  186E  	BTFSC FCD_LCDDis_0005F_1_pt,0
00CE  1506  	BSF gbl_portb,2
00CF  18EE  	BTFSC FCD_LCDDis_0005F_1_pt,1
00D0  1586  	BSF gbl_portb,3
00D1  196E  	BTFSC FCD_LCDDis_0005F_1_pt,2
00D2  1606  	BSF gbl_portb,4
00D3  19EE  	BTFSC FCD_LCDDis_0005F_1_pt,3
00D4  1686  	BSF gbl_portb,5
00D5  08ED  	MOVF FCD_LCDDis_0005F_arg_mask, F
00D6  1D03  	BTFSS STATUS,Z
00D7  1406  	BSF gbl_portb,0
00D8  300A  	MOVLW 0x0A
00D9  00EF  	MOVWF delay_10us_00000_arg_del
00DA  203C  	CALL delay_10us_00000
00DB  1486  	BSF gbl_portb,1
00DC  300A  	MOVLW 0x0A
00DD  00EF  	MOVWF delay_10us_00000_arg_del
00DE  203C  	CALL delay_10us_00000
00DF  1086  	BCF gbl_portb,1
00E0  300A  	MOVLW 0x0A
00E1  00EF  	MOVWF delay_10us_00000_arg_del
00E2  203C  	CALL delay_10us_00000
00E3  0008  	RETURN
00E4        ; } FCD_LCDDisplay0_RawSend function end

	ORG 0x000000E4
00E4        FC_CAL_SPI_00069
00E4        ; { FC_CAL_SPI_Master_Init_1 ; function begin
00E4  1683  	BSF STATUS, RP0
00E5  1303  	BCF STATUS, RP1
00E6  1287  	BCF gbl_trisc,5
00E7  1283  	BCF STATUS, RP0
00E8  1687  	BSF gbl_portc,5
00E9  1683  	BSF STATUS, RP0
00EA  1607  	BSF gbl_trisc,4
00EB  1187  	BCF gbl_trisc,3
00EC  1283  	BCF STATUS, RP0
00ED  1187  	BCF gbl_portc,3
00EE  3002  	MOVLW 0x02
00EF  0094  	MOVWF gbl_sspcon
00F0  1214  	BCF gbl_sspcon,4
00F1  1683  	BSF STATUS, RP0
00F2  1714  	BSF gbl_sspstat,6
00F3  1794  	BSF gbl_sspstat,7
00F4  1283  	BCF STATUS, RP0
00F5  1694  	BSF gbl_sspcon,5
00F6  0008  	RETURN
00F7        ; } FC_CAL_SPI_Master_Init_1 function end

	ORG 0x000000F7
00F7        FCM_cmd_re_0005B
00F7        ; { FCM_cmd_read_tx_addr ; function begin
00F7  3010  	MOVLW 0x10
00F8  1283  	BCF STATUS, RP0
00F9  1303  	BCF STATUS, RP1
00FA  00CD  	MOVWF gbl_FCV_SPI_DATA0
00FB  30FB  	MOVLW 0xFB
00FC  1683  	BSF STATUS, RP0
00FD  0507  	ANDWF gbl_trisc, W
00FE  0087  	MOVWF gbl_trisc
00FF  30FB  	MOVLW 0xFB
0100  1283  	BCF STATUS, RP0
0101  0507  	ANDWF gbl_portc, W
0102  0087  	MOVWF gbl_portc
0103  3005  	MOVLW 0x05
0104  00E7  	MOVWF delay_us_00000_arg_del
0105  204A  	CALL delay_us_00000
0106  084D  	MOVF gbl_FCV_SPI_DATA0, W
0107  00E7  	MOVWF FCD_SPI_Le_00053_arg_Char
0108  209F  	CALL FCD_SPI_Le_00053
0109  2094  	CALL FCD_SPI_Le_00054
010A  0868  	MOVF CompTempVarRet2189, W
010B  00CF  	MOVWF gbl_FCV_SPI_DATA1
010C  084F  	MOVF gbl_FCV_SPI_DATA1, W
010D  00E6  	MOVWF gbl_FCV_REG10_TX_ADDR_BYTE0
010E  2094  	CALL FCD_SPI_Le_00054
010F  0868  	MOVF CompTempVarRet2189, W
0110  00CF  	MOVWF gbl_FCV_SPI_DATA1
0111  084F  	MOVF gbl_FCV_SPI_DATA1, W
0112  00C4  	MOVWF gbl_FCV_REG10_TX_ADDR_BYTE1
0113  2094  	CALL FCD_SPI_Le_00054
0114  0868  	MOVF CompTempVarRet2189, W
0115  00CF  	MOVWF gbl_FCV_SPI_DATA1
0116  084F  	MOVF gbl_FCV_SPI_DATA1, W
0117  00C8  	MOVWF gbl_FCV_REG10_TX_ADDR_BYTE2
0118  2094  	CALL FCD_SPI_Le_00054
0119  0868  	MOVF CompTempVarRet2189, W
011A  00CF  	MOVWF gbl_FCV_SPI_DATA1
011B  084F  	MOVF gbl_FCV_SPI_DATA1, W
011C  00C9  	MOVWF gbl_FCV_REG10_TX_ADDR_BYTE3
011D  2094  	CALL FCD_SPI_Le_00054
011E  0868  	MOVF CompTempVarRet2189, W
011F  00CF  	MOVWF gbl_FCV_SPI_DATA1
0120  084F  	MOVF gbl_FCV_SPI_DATA1, W
0121  00CC  	MOVWF gbl_FCV_REG10_TX_ADDR_BYTE4
0122  30FB  	MOVLW 0xFB
0123  1683  	BSF STATUS, RP0
0124  0507  	ANDWF gbl_trisc, W
0125  0087  	MOVWF gbl_trisc
0126  30FB  	MOVLW 0xFB
0127  1283  	BCF STATUS, RP0
0128  0507  	ANDWF gbl_portc, W
0129  00E7  	MOVWF CompTempVar2211
012A  3004  	MOVLW 0x04
012B  0467  	IORWF CompTempVar2211, W
012C  0087  	MOVWF gbl_portc
012D  3005  	MOVLW 0x05
012E  00E7  	MOVWF delay_us_00000_arg_del
012F  204A  	CALL delay_us_00000
0130  0008  	RETURN
0131        ; } FCM_cmd_read_tx_addr function end

	ORG 0x00000131
0131        FCM_cmd_re_0005A
0131        ; { FCM_cmd_read_rx_addr ; function begin
0131  300A  	MOVLW 0x0A
0132  1283  	BCF STATUS, RP0
0133  1303  	BCF STATUS, RP1
0134  00CD  	MOVWF gbl_FCV_SPI_DATA0
0135  30FB  	MOVLW 0xFB
0136  1683  	BSF STATUS, RP0
0137  0507  	ANDWF gbl_trisc, W
0138  0087  	MOVWF gbl_trisc
0139  30FB  	MOVLW 0xFB
013A  1283  	BCF STATUS, RP0
013B  0507  	ANDWF gbl_portc, W
013C  0087  	MOVWF gbl_portc
013D  3005  	MOVLW 0x05
013E  00E7  	MOVWF delay_us_00000_arg_del
013F  204A  	CALL delay_us_00000
0140  084D  	MOVF gbl_FCV_SPI_DATA0, W
0141  00E7  	MOVWF FCD_SPI_Le_00053_arg_Char
0142  209F  	CALL FCD_SPI_Le_00053
0143  2094  	CALL FCD_SPI_Le_00054
0144  0868  	MOVF CompTempVarRet2189, W
0145  00CF  	MOVWF gbl_FCV_SPI_DATA1
0146  084F  	MOVF gbl_FCV_SPI_DATA1, W
0147  00D2  	MOVWF gbl_FCV_REG0A_RX_ADDR_P0_BYTE0
0148  2094  	CALL FCD_SPI_Le_00054
0149  0868  	MOVF CompTempVarRet2189, W
014A  00CF  	MOVWF gbl_FCV_SPI_DATA1
014B  084F  	MOVF gbl_FCV_SPI_DATA1, W
014C  00D5  	MOVWF gbl_FCV_REG0A_RX_ADDR_P0_BYTE1
014D  2094  	CALL FCD_SPI_Le_00054
014E  0868  	MOVF CompTempVarRet2189, W
014F  00CF  	MOVWF gbl_FCV_SPI_DATA1
0150  084F  	MOVF gbl_FCV_SPI_DATA1, W
0151  00D8  	MOVWF gbl_FCV_REG0A_RX_ADDR_P0_BYTE2
0152  2094  	CALL FCD_SPI_Le_00054
0153  0868  	MOVF CompTempVarRet2189, W
0154  00CF  	MOVWF gbl_FCV_SPI_DATA1
0155  084F  	MOVF gbl_FCV_SPI_DATA1, W
0156  00DB  	MOVWF gbl_FCV_REG0A_RX_ADDR_P0_BYTE3
0157  2094  	CALL FCD_SPI_Le_00054
0158  0868  	MOVF CompTempVarRet2189, W
0159  00CF  	MOVWF gbl_FCV_SPI_DATA1
015A  084F  	MOVF gbl_FCV_SPI_DATA1, W
015B  00DE  	MOVWF gbl_FCV_REG0A_RX_ADDR_P0_BYTE4
015C  30FB  	MOVLW 0xFB
015D  1683  	BSF STATUS, RP0
015E  0507  	ANDWF gbl_trisc, W
015F  0087  	MOVWF gbl_trisc
0160  30FB  	MOVLW 0xFB
0161  1283  	BCF STATUS, RP0
0162  0507  	ANDWF gbl_portc, W
0163  00E7  	MOVWF CompTempVar2210
0164  3004  	MOVLW 0x04
0165  0467  	IORWF CompTempVar2210, W
0166  0087  	MOVWF gbl_portc
0167  3005  	MOVLW 0x05
0168  00E7  	MOVWF delay_us_00000_arg_del
0169  204A  	CALL delay_us_00000
016A  0008  	RETURN
016B        ; } FCM_cmd_read_rx_addr function end

	ORG 0x0000016B
016B        FCM_cmd_re_00052
016B        ; { FCM_cmd_read_reg ; function begin
016B  30FB  	MOVLW 0xFB
016C  1683  	BSF STATUS, RP0
016D  1303  	BCF STATUS, RP1
016E  0507  	ANDWF gbl_trisc, W
016F  0087  	MOVWF gbl_trisc
0170  30FB  	MOVLW 0xFB
0171  1283  	BCF STATUS, RP0
0172  0507  	ANDWF gbl_portc, W
0173  0087  	MOVWF gbl_portc
0174  3005  	MOVLW 0x05
0175  00E7  	MOVWF delay_us_00000_arg_del
0176  204A  	CALL delay_us_00000
0177  084D  	MOVF gbl_FCV_SPI_DATA0, W
0178  00E7  	MOVWF FCD_SPI_Le_00053_arg_Char
0179  209F  	CALL FCD_SPI_Le_00053
017A  2094  	CALL FCD_SPI_Le_00054
017B  0868  	MOVF CompTempVarRet2189, W
017C  00CF  	MOVWF gbl_FCV_SPI_DATA1
017D  30FB  	MOVLW 0xFB
017E  1683  	BSF STATUS, RP0
017F  0507  	ANDWF gbl_trisc, W
0180  0087  	MOVWF gbl_trisc
0181  30FB  	MOVLW 0xFB
0182  1283  	BCF STATUS, RP0
0183  0507  	ANDWF gbl_portc, W
0184  00E7  	MOVWF CompTempVar2188
0185  3004  	MOVLW 0x04
0186  0467  	IORWF CompTempVar2188, W
0187  0087  	MOVWF gbl_portc
0188  3005  	MOVLW 0x05
0189  00E7  	MOVWF delay_us_00000_arg_del
018A  204A  	CALL delay_us_00000
018B  0008  	RETURN
018C        ; } FCM_cmd_read_reg function end

	ORG 0x0000018C
018C        FCD_LCDDis_00057
018C        ; { FCD_LCDDisplay0_PrintNumber ; function begin
018C  1FE8  	BTFSS FCD_LCDDis_00057_arg_Number+D'1',7
018D  299B  	GOTO	label12
018E  302D  	MOVLW 0x2D
018F  00EC  	MOVWF FCD_LCDDis_0005F_arg_in
0190  3010  	MOVLW 0x10
0191  00ED  	MOVWF FCD_LCDDis_0005F_arg_mask
0192  20A3  	CALL FCD_LCDDis_0005F
0193  0867  	MOVF FCD_LCDDis_00057_arg_Number, W
0194  3C00  	SUBLW 0x00
0195  00EC  	MOVWF CompTempVar2190
0196  09E8  	COMF FCD_LCDDis_00057_arg_Number+D'1', F
0197  1803  	BTFSC STATUS,C
0198  0AE8  	INCF FCD_LCDDis_00057_arg_Number+D'1', F
0199  086C  	MOVF CompTempVar2190, W
019A  00E7  	MOVWF FCD_LCDDis_00057_arg_Number
019B        label12
019B  0867  	MOVF FCD_LCDDis_00057_arg_Number, W
019C  00E9  	MOVWF FCD_LCDDis_00057_1_tmp_int
019D  0868  	MOVF FCD_LCDDis_00057_arg_Number+D'1', W
019E  00EA  	MOVWF FCD_LCDDis_00057_1_tmp_int+D'1'
019F  3027  	MOVLW 0x27
01A0  0268  	SUBWF FCD_LCDDis_00057_arg_Number+D'1', W
01A1  1D03  	BTFSS STATUS,Z
01A2  29A5  	GOTO	label13
01A3  3010  	MOVLW 0x10
01A4  0267  	SUBWF FCD_LCDDis_00057_arg_Number, W
01A5        label13
01A5  1C03  	BTFSS STATUS,C
01A6  29D3  	GOTO	label17
01A7  1BE8  	BTFSC FCD_LCDDis_00057_arg_Number+D'1',7
01A8  29D3  	GOTO	label17
01A9  01F0  	CLRF CompTempVar2193
01AA  0869  	MOVF FCD_LCDDis_00057_1_tmp_int, W
01AB  00EC  	MOVWF __div_16_1_00003_arg_a
01AC  086A  	MOVF FCD_LCDDis_00057_1_tmp_int+D'1', W
01AD  00ED  	MOVWF __div_16_1_00003_arg_a+D'1'
01AE  1FEA  	BTFSS FCD_LCDDis_00057_1_tmp_int+D'1',7
01AF  29B6  	GOTO	label14
01B0  09EC  	COMF __div_16_1_00003_arg_a, F
01B1  09ED  	COMF __div_16_1_00003_arg_a+D'1', F
01B2  0AEC  	INCF __div_16_1_00003_arg_a, F
01B3  1903  	BTFSC STATUS,Z
01B4  0AED  	INCF __div_16_1_00003_arg_a+D'1', F
01B5  0AF0  	INCF CompTempVar2193, F
01B6        label14
01B6  3010  	MOVLW 0x10
01B7  00EE  	MOVWF __div_16_1_00003_arg_b
01B8  3027  	MOVLW 0x27
01B9  00EF  	MOVWF __div_16_1_00003_arg_b+D'1'
01BA  206A  	CALL __div_16_1_00003
01BB  0875  	MOVF CompTempVarRet214, W
01BC  00EB  	MOVWF FCD_LCDDis_00057_1_tmp_byte
01BD  1C70  	BTFSS CompTempVar2193,0
01BE  29C1  	GOTO	label15
01BF  09EB  	COMF FCD_LCDDis_00057_1_tmp_byte, F
01C0  0AEB  	INCF FCD_LCDDis_00057_1_tmp_byte, F
01C1        label15
01C1  086B  	MOVF FCD_LCDDis_00057_1_tmp_byte, W
01C2  3E30  	ADDLW 0x30
01C3  00EC  	MOVWF FCD_LCDDis_0005F_arg_in
01C4  3010  	MOVLW 0x10
01C5  00ED  	MOVWF FCD_LCDDis_0005F_arg_mask
01C6  20A3  	CALL FCD_LCDDis_0005F
01C7        label16
01C7  086B  	MOVF FCD_LCDDis_00057_1_tmp_byte, W
01C8  3C00  	SUBLW 0x00
01C9  1803  	BTFSC STATUS,C
01CA  29D3  	GOTO	label17
01CB  3010  	MOVLW 0x10
01CC  02E9  	SUBWF FCD_LCDDis_00057_1_tmp_int, F
01CD  3027  	MOVLW 0x27
01CE  1C03  	BTFSS STATUS,C
01CF  3028  	MOVLW 0x28
01D0  02EA  	SUBWF FCD_LCDDis_00057_1_tmp_int+D'1', F
01D1  03EB  	DECF FCD_LCDDis_00057_1_tmp_byte, F
01D2  29C7  	GOTO	label16
01D3        label17
01D3  3003  	MOVLW 0x03
01D4  0268  	SUBWF FCD_LCDDis_00057_arg_Number+D'1', W
01D5  1D03  	BTFSS STATUS,Z
01D6  29D9  	GOTO	label18
01D7  30E8  	MOVLW 0xE8
01D8  0267  	SUBWF FCD_LCDDis_00057_arg_Number, W
01D9        label18
01D9  1C03  	BTFSS STATUS,C
01DA  2A09  	GOTO	label22
01DB  1BE8  	BTFSC FCD_LCDDis_00057_arg_Number+D'1',7
01DC  2A09  	GOTO	label22
01DD  01F1  	CLRF CompTempVar2197
01DE  0869  	MOVF FCD_LCDDis_00057_1_tmp_int, W
01DF  00EC  	MOVWF __div_16_1_00003_arg_a
01E0  086A  	MOVF FCD_LCDDis_00057_1_tmp_int+D'1', W
01E1  00ED  	MOVWF __div_16_1_00003_arg_a+D'1'
01E2  1FEA  	BTFSS FCD_LCDDis_00057_1_tmp_int+D'1',7
01E3  29EA  	GOTO	label19
01E4  09EC  	COMF __div_16_1_00003_arg_a, F
01E5  09ED  	COMF __div_16_1_00003_arg_a+D'1', F
01E6  0AEC  	INCF __div_16_1_00003_arg_a, F
01E7  1903  	BTFSC STATUS,Z
01E8  0AED  	INCF __div_16_1_00003_arg_a+D'1', F
01E9  0AF1  	INCF CompTempVar2197, F
01EA        label19
01EA  30E8  	MOVLW 0xE8
01EB  00EE  	MOVWF __div_16_1_00003_arg_b
01EC  3003  	MOVLW 0x03
01ED  00EF  	MOVWF __div_16_1_00003_arg_b+D'1'
01EE  206A  	CALL __div_16_1_00003
01EF  0875  	MOVF CompTempVarRet214, W
01F0  00F0  	MOVWF CompTempVar2196
01F1  1C71  	BTFSS CompTempVar2197,0
01F2  29F5  	GOTO	label20
01F3  09F0  	COMF CompTempVar2196, F
01F4  0AF0  	INCF CompTempVar2196, F
01F5        label20
01F5  0870  	MOVF CompTempVar2196, W
01F6  00EB  	MOVWF FCD_LCDDis_00057_1_tmp_byte
01F7  086B  	MOVF FCD_LCDDis_00057_1_tmp_byte, W
01F8  3E30  	ADDLW 0x30
01F9  00EC  	MOVWF FCD_LCDDis_0005F_arg_in
01FA  3010  	MOVLW 0x10
01FB  00ED  	MOVWF FCD_LCDDis_0005F_arg_mask
01FC  20A3  	CALL FCD_LCDDis_0005F
01FD        label21
01FD  086B  	MOVF FCD_LCDDis_00057_1_tmp_byte, W
01FE  3C00  	SUBLW 0x00
01FF  1803  	BTFSC STATUS,C
0200  2A09  	GOTO	label22
0201  30E8  	MOVLW 0xE8
0202  02E9  	SUBWF FCD_LCDDis_00057_1_tmp_int, F
0203  3003  	MOVLW 0x03
0204  1C03  	BTFSS STATUS,C
0205  3004  	MOVLW 0x04
0206  02EA  	SUBWF FCD_LCDDis_00057_1_tmp_int+D'1', F
0207  03EB  	DECF FCD_LCDDis_00057_1_tmp_byte, F
0208  29FD  	GOTO	label21
0209        label22
0209  0868  	MOVF FCD_LCDDis_00057_arg_Number+D'1', W
020A  3A80  	XORLW 0x80
020B  00EC  	MOVWF CompTempVar2200
020C  3080  	MOVLW 0x80
020D  026C  	SUBWF CompTempVar2200, W
020E  1D03  	BTFSS STATUS,Z
020F  2A12  	GOTO	label23
0210  3064  	MOVLW 0x64
0211  0267  	SUBWF FCD_LCDDis_00057_arg_Number, W
0212        label23
0212  1C03  	BTFSS STATUS,C
0213  2A3E  	GOTO	label27
0214  01F1  	CLRF CompTempVar2202
0215  0869  	MOVF FCD_LCDDis_00057_1_tmp_int, W
0216  00EC  	MOVWF __div_16_1_00003_arg_a
0217  086A  	MOVF FCD_LCDDis_00057_1_tmp_int+D'1', W
0218  00ED  	MOVWF __div_16_1_00003_arg_a+D'1'
0219  1FEA  	BTFSS FCD_LCDDis_00057_1_tmp_int+D'1',7
021A  2A21  	GOTO	label24
021B  09EC  	COMF __div_16_1_00003_arg_a, F
021C  09ED  	COMF __div_16_1_00003_arg_a+D'1', F
021D  0AEC  	INCF __div_16_1_00003_arg_a, F
021E  1903  	BTFSC STATUS,Z
021F  0AED  	INCF __div_16_1_00003_arg_a+D'1', F
0220  0AF1  	INCF CompTempVar2202, F
0221        label24
0221  3064  	MOVLW 0x64
0222  00EE  	MOVWF __div_16_1_00003_arg_b
0223  01EF  	CLRF __div_16_1_00003_arg_b+D'1'
0224  206A  	CALL __div_16_1_00003
0225  0875  	MOVF CompTempVarRet214, W
0226  00F0  	MOVWF CompTempVar2201
0227  1C71  	BTFSS CompTempVar2202,0
0228  2A2B  	GOTO	label25
0229  09F0  	COMF CompTempVar2201, F
022A  0AF0  	INCF CompTempVar2201, F
022B        label25
022B  0870  	MOVF CompTempVar2201, W
022C  00EB  	MOVWF FCD_LCDDis_00057_1_tmp_byte
022D  086B  	MOVF FCD_LCDDis_00057_1_tmp_byte, W
022E  3E30  	ADDLW 0x30
022F  00EC  	MOVWF FCD_LCDDis_0005F_arg_in
0230  3010  	MOVLW 0x10
0231  00ED  	MOVWF FCD_LCDDis_0005F_arg_mask
0232  20A3  	CALL FCD_LCDDis_0005F
0233        label26
0233  086B  	MOVF FCD_LCDDis_00057_1_tmp_byte, W
0234  3C00  	SUBLW 0x00
0235  1803  	BTFSC STATUS,C
0236  2A3E  	GOTO	label27
0237  3064  	MOVLW 0x64
0238  02E9  	SUBWF FCD_LCDDis_00057_1_tmp_int, F
0239  08EA  	MOVF FCD_LCDDis_00057_1_tmp_int+D'1', F
023A  1C03  	BTFSS STATUS,C
023B  03EA  	DECF FCD_LCDDis_00057_1_tmp_int+D'1', F
023C  03EB  	DECF FCD_LCDDis_00057_1_tmp_byte, F
023D  2A33  	GOTO	label26
023E        label27
023E  0868  	MOVF FCD_LCDDis_00057_arg_Number+D'1', W
023F  3A80  	XORLW 0x80
0240  00EC  	MOVWF CompTempVar2205
0241  3080  	MOVLW 0x80
0242  026C  	SUBWF CompTempVar2205, W
0243  1D03  	BTFSS STATUS,Z
0244  2A47  	GOTO	label28
0245  300A  	MOVLW 0x0A
0246  0267  	SUBWF FCD_LCDDis_00057_arg_Number, W
0247        label28
0247  1C03  	BTFSS STATUS,C
0248  2A73  	GOTO	label32
0249  01F1  	CLRF CompTempVar2207
024A  0869  	MOVF FCD_LCDDis_00057_1_tmp_int, W
024B  00EC  	MOVWF __div_16_1_00003_arg_a
024C  086A  	MOVF FCD_LCDDis_00057_1_tmp_int+D'1', W
024D  00ED  	MOVWF __div_16_1_00003_arg_a+D'1'
024E  1FEA  	BTFSS FCD_LCDDis_00057_1_tmp_int+D'1',7
024F  2A56  	GOTO	label29
0250  09EC  	COMF __div_16_1_00003_arg_a, F
0251  09ED  	COMF __div_16_1_00003_arg_a+D'1', F
0252  0AEC  	INCF __div_16_1_00003_arg_a, F
0253  1903  	BTFSC STATUS,Z
0254  0AED  	INCF __div_16_1_00003_arg_a+D'1', F
0255  0AF1  	INCF CompTempVar2207, F
0256        label29
0256  300A  	MOVLW 0x0A
0257  00EE  	MOVWF __div_16_1_00003_arg_b
0258  01EF  	CLRF __div_16_1_00003_arg_b+D'1'
0259  206A  	CALL __div_16_1_00003
025A  0875  	MOVF CompTempVarRet214, W
025B  00F0  	MOVWF CompTempVar2206
025C  1C71  	BTFSS CompTempVar2207,0
025D  2A60  	GOTO	label30
025E  09F0  	COMF CompTempVar2206, F
025F  0AF0  	INCF CompTempVar2206, F
0260        label30
0260  0870  	MOVF CompTempVar2206, W
0261  00EB  	MOVWF FCD_LCDDis_00057_1_tmp_byte
0262  086B  	MOVF FCD_LCDDis_00057_1_tmp_byte, W
0263  3E30  	ADDLW 0x30
0264  00EC  	MOVWF FCD_LCDDis_0005F_arg_in
0265  3010  	MOVLW 0x10
0266  00ED  	MOVWF FCD_LCDDis_0005F_arg_mask
0267  20A3  	CALL FCD_LCDDis_0005F
0268        label31
0268  086B  	MOVF FCD_LCDDis_00057_1_tmp_byte, W
0269  3C00  	SUBLW 0x00
026A  1803  	BTFSC STATUS,C
026B  2A73  	GOTO	label32
026C  300A  	MOVLW 0x0A
026D  02E9  	SUBWF FCD_LCDDis_00057_1_tmp_int, F
026E  08EA  	MOVF FCD_LCDDis_00057_1_tmp_int+D'1', F
026F  1C03  	BTFSS STATUS,C
0270  03EA  	DECF FCD_LCDDis_00057_1_tmp_int+D'1', F
0271  03EB  	DECF FCD_LCDDis_00057_1_tmp_byte, F
0272  2A68  	GOTO	label31
0273        label32
0273  0869  	MOVF FCD_LCDDis_00057_1_tmp_int, W
0274  3E30  	ADDLW 0x30
0275  00EC  	MOVWF FCD_LCDDis_0005F_arg_in
0276  3010  	MOVLW 0x10
0277  00ED  	MOVWF FCD_LCDDis_0005F_arg_mask
0278  20A3  	CALL FCD_LCDDis_0005F
0279  0008  	RETURN
027A        ; } FCD_LCDDisplay0_PrintNumber function end

	ORG 0x0000027A
027A        FCD_LCDDis_00056
027A        ; { FCD_LCDDisplay0_Cursor ; function begin
027A  08E8  	MOVF FCD_LCDDis_00056_arg_y, F
027B  1D03  	BTFSS STATUS,Z
027C  2A80  	GOTO	label33
027D  3080  	MOVLW 0x80
027E  00E8  	MOVWF FCD_LCDDis_00056_arg_y
027F  2A8F  	GOTO	label36
0280        label33
0280  0368  	DECF FCD_LCDDis_00056_arg_y, W
0281  1D03  	BTFSS STATUS,Z
0282  2A86  	GOTO	label34
0283  30C0  	MOVLW 0xC0
0284  00E8  	MOVWF FCD_LCDDis_00056_arg_y
0285  2A8F  	GOTO	label36
0286        label34
0286  0868  	MOVF FCD_LCDDis_00056_arg_y, W
0287  3A02  	XORLW 0x02
0288  1D03  	BTFSS STATUS,Z
0289  2A8D  	GOTO	label35
028A  3090  	MOVLW 0x90
028B  00E8  	MOVWF FCD_LCDDis_00056_arg_y
028C  2A8F  	GOTO	label36
028D        label35
028D  30D0  	MOVLW 0xD0
028E  00E8  	MOVWF FCD_LCDDis_00056_arg_y
028F        label36
028F  0867  	MOVF FCD_LCDDis_00056_arg_x, W
0290  0768  	ADDWF FCD_LCDDis_00056_arg_y, W
0291  00EC  	MOVWF FCD_LCDDis_0005F_arg_in
0292  01ED  	CLRF FCD_LCDDis_0005F_arg_mask
0293  20A3  	CALL FCD_LCDDis_0005F
0294  3002  	MOVLW 0x02
0295  00E9  	MOVWF Wdt_Delay__0003E_arg_delay
0296  2089  	CALL Wdt_Delay__0003E
0297  0008  	RETURN
0298        ; } FCD_LCDDisplay0_Cursor function end

	ORG 0x00000298
0298        FCM_spi_nr_00051
0298        ; { FCM_spi_nrf_reg_read ; function begin
0298  1283  	BCF STATUS, RP0
0299  1303  	BCF STATUS, RP1
029A  01CD  	CLRF gbl_FCV_SPI_DATA0
029B  216B  	CALL FCM_cmd_re_00052
029C  084F  	MOVF gbl_FCV_SPI_DATA1, W
029D  00C3  	MOVWF gbl_FCV_REG00_CONFIG
029E  3001  	MOVLW 0x01
029F  00CD  	MOVWF gbl_FCV_SPI_DATA0
02A0  216B  	CALL FCM_cmd_re_00052
02A1  084F  	MOVF gbl_FCV_SPI_DATA1, W
02A2  00DA  	MOVWF gbl_FCV_REG01_ENAA
02A3  3002  	MOVLW 0x02
02A4  00CD  	MOVWF gbl_FCV_SPI_DATA0
02A5  216B  	CALL FCM_cmd_re_00052
02A6  084F  	MOVF gbl_FCV_SPI_DATA1, W
02A7  00D7  	MOVWF gbl_FCV_REG02_EN_RXADDR
02A8  3003  	MOVLW 0x03
02A9  00CD  	MOVWF gbl_FCV_SPI_DATA0
02AA  216B  	CALL FCM_cmd_re_00052
02AB  084F  	MOVF gbl_FCV_SPI_DATA1, W
02AC  00DD  	MOVWF gbl_FCV_REG03_SETUP_AW
02AD  3004  	MOVLW 0x04
02AE  00CD  	MOVWF gbl_FCV_SPI_DATA0
02AF  216B  	CALL FCM_cmd_re_00052
02B0  084F  	MOVF gbl_FCV_SPI_DATA1, W
02B1  00E5  	MOVWF gbl_FCV_REG04_SETUP_RETR
02B2  3005  	MOVLW 0x05
02B3  00CD  	MOVWF gbl_FCV_SPI_DATA0
02B4  216B  	CALL FCM_cmd_re_00052
02B5  084F  	MOVF gbl_FCV_SPI_DATA1, W
02B6  00D4  	MOVWF gbl_FCV_REG05_RF_CH
02B7  3006  	MOVLW 0x06
02B8  00CD  	MOVWF gbl_FCV_SPI_DATA0
02B9  216B  	CALL FCM_cmd_re_00052
02BA  084F  	MOVF gbl_FCV_SPI_DATA1, W
02BB  00E4  	MOVWF gbl_FCV_REG06_RF_SETUP
02BC  3007  	MOVLW 0x07
02BD  00CD  	MOVWF gbl_FCV_SPI_DATA0
02BE  216B  	CALL FCM_cmd_re_00052
02BF  084F  	MOVF gbl_FCV_SPI_DATA1, W
02C0  00D3  	MOVWF gbl_FCV_REG07_STATUS
02C1  0008  	RETURN
02C2        ; } FCM_spi_nrf_reg_read function end

	ORG 0x000002C2
02C2        FCM_lcd_li_0005C
02C2        ; { FCM_lcd_line3 ; function begin
02C2  20F7  	CALL FCM_cmd_re_0005B
02C3  01E0  	CLRF gbl_FCV_CURSORX
02C4  0860  	MOVF gbl_FCV_CURSORX, W
02C5  00E7  	MOVWF FCD_LCDDis_00056_arg_x
02C6  3003  	MOVLW 0x03
02C7  00E8  	MOVWF FCD_LCDDis_00056_arg_y
02C8  227A  	CALL FCD_LCDDis_00056
02C9  0866  	MOVF gbl_FCV_REG10_TX_ADDR_BYTE0, W
02CA  00E7  	MOVWF FCD_LCDDis_00057_arg_Number
02CB  01E8  	CLRF FCD_LCDDis_00057_arg_Number+D'1'
02CC  218C  	CALL FCD_LCDDis_00057
02CD  3003  	MOVLW 0x03
02CE  0760  	ADDWF gbl_FCV_CURSORX, W
02CF  00E0  	MOVWF gbl_FCV_CURSORX
02D0  0860  	MOVF gbl_FCV_CURSORX, W
02D1  00E7  	MOVWF FCD_LCDDis_00056_arg_x
02D2  3003  	MOVLW 0x03
02D3  00E8  	MOVWF FCD_LCDDis_00056_arg_y
02D4  227A  	CALL FCD_LCDDis_00056
02D5  0844  	MOVF gbl_FCV_REG10_TX_ADDR_BYTE1, W
02D6  00E7  	MOVWF FCD_LCDDis_00057_arg_Number
02D7  01E8  	CLRF FCD_LCDDis_00057_arg_Number+D'1'
02D8  218C  	CALL FCD_LCDDis_00057
02D9  3003  	MOVLW 0x03
02DA  0760  	ADDWF gbl_FCV_CURSORX, W
02DB  00E0  	MOVWF gbl_FCV_CURSORX
02DC  0860  	MOVF gbl_FCV_CURSORX, W
02DD  00E7  	MOVWF FCD_LCDDis_00056_arg_x
02DE  3003  	MOVLW 0x03
02DF  00E8  	MOVWF FCD_LCDDis_00056_arg_y
02E0  227A  	CALL FCD_LCDDis_00056
02E1  0848  	MOVF gbl_FCV_REG10_TX_ADDR_BYTE2, W
02E2  00E7  	MOVWF FCD_LCDDis_00057_arg_Number
02E3  01E8  	CLRF FCD_LCDDis_00057_arg_Number+D'1'
02E4  218C  	CALL FCD_LCDDis_00057
02E5  3003  	MOVLW 0x03
02E6  0760  	ADDWF gbl_FCV_CURSORX, W
02E7  00E0  	MOVWF gbl_FCV_CURSORX
02E8  0860  	MOVF gbl_FCV_CURSORX, W
02E9  00E7  	MOVWF FCD_LCDDis_00056_arg_x
02EA  3003  	MOVLW 0x03
02EB  00E8  	MOVWF FCD_LCDDis_00056_arg_y
02EC  227A  	CALL FCD_LCDDis_00056
02ED  0849  	MOVF gbl_FCV_REG10_TX_ADDR_BYTE3, W
02EE  00E7  	MOVWF FCD_LCDDis_00057_arg_Number
02EF  01E8  	CLRF FCD_LCDDis_00057_arg_Number+D'1'
02F0  218C  	CALL FCD_LCDDis_00057
02F1  3003  	MOVLW 0x03
02F2  0760  	ADDWF gbl_FCV_CURSORX, W
02F3  00E0  	MOVWF gbl_FCV_CURSORX
02F4  0860  	MOVF gbl_FCV_CURSORX, W
02F5  00E7  	MOVWF FCD_LCDDis_00056_arg_x
02F6  3003  	MOVLW 0x03
02F7  00E8  	MOVWF FCD_LCDDis_00056_arg_y
02F8  227A  	CALL FCD_LCDDis_00056
02F9  084C  	MOVF gbl_FCV_REG10_TX_ADDR_BYTE4, W
02FA  00E7  	MOVWF FCD_LCDDis_00057_arg_Number
02FB  01E8  	CLRF FCD_LCDDis_00057_arg_Number+D'1'
02FC  218C  	CALL FCD_LCDDis_00057
02FD  3003  	MOVLW 0x03
02FE  0760  	ADDWF gbl_FCV_CURSORX, W
02FF  00E0  	MOVWF gbl_FCV_CURSORX
0300  0008  	RETURN
0301        ; } FCM_lcd_line3 function end

	ORG 0x00000301
0301        FCM_lcd_li_00059
0301        ; { FCM_lcd_line2 ; function begin
0301  2131  	CALL FCM_cmd_re_0005A
0302  01E0  	CLRF gbl_FCV_CURSORX
0303  0860  	MOVF gbl_FCV_CURSORX, W
0304  00E7  	MOVWF FCD_LCDDis_00056_arg_x
0305  3002  	MOVLW 0x02
0306  00E8  	MOVWF FCD_LCDDis_00056_arg_y
0307  227A  	CALL FCD_LCDDis_00056
0308  0852  	MOVF gbl_FCV_REG0A_RX_ADDR_P0_BYTE0, W
0309  00E7  	MOVWF FCD_LCDDis_00057_arg_Number
030A  01E8  	CLRF FCD_LCDDis_00057_arg_Number+D'1'
030B  218C  	CALL FCD_LCDDis_00057
030C  3003  	MOVLW 0x03
030D  0760  	ADDWF gbl_FCV_CURSORX, W
030E  00E0  	MOVWF gbl_FCV_CURSORX
030F  0860  	MOVF gbl_FCV_CURSORX, W
0310  00E7  	MOVWF FCD_LCDDis_00056_arg_x
0311  3002  	MOVLW 0x02
0312  00E8  	MOVWF FCD_LCDDis_00056_arg_y
0313  227A  	CALL FCD_LCDDis_00056
0314  0855  	MOVF gbl_FCV_REG0A_RX_ADDR_P0_BYTE1, W
0315  00E7  	MOVWF FCD_LCDDis_00057_arg_Number
0316  01E8  	CLRF FCD_LCDDis_00057_arg_Number+D'1'
0317  218C  	CALL FCD_LCDDis_00057
0318  3003  	MOVLW 0x03
0319  0760  	ADDWF gbl_FCV_CURSORX, W
031A  00E0  	MOVWF gbl_FCV_CURSORX
031B  0860  	MOVF gbl_FCV_CURSORX, W
031C  00E7  	MOVWF FCD_LCDDis_00056_arg_x
031D  3002  	MOVLW 0x02
031E  00E8  	MOVWF FCD_LCDDis_00056_arg_y
031F  227A  	CALL FCD_LCDDis_00056
0320  0858  	MOVF gbl_FCV_REG0A_RX_ADDR_P0_BYTE2, W
0321  00E7  	MOVWF FCD_LCDDis_00057_arg_Number
0322  01E8  	CLRF FCD_LCDDis_00057_arg_Number+D'1'
0323  218C  	CALL FCD_LCDDis_00057
0324  3003  	MOVLW 0x03
0325  0760  	ADDWF gbl_FCV_CURSORX, W
0326  00E0  	MOVWF gbl_FCV_CURSORX
0327  0860  	MOVF gbl_FCV_CURSORX, W
0328  00E7  	MOVWF FCD_LCDDis_00056_arg_x
0329  3002  	MOVLW 0x02
032A  00E8  	MOVWF FCD_LCDDis_00056_arg_y
032B  227A  	CALL FCD_LCDDis_00056
032C  085B  	MOVF gbl_FCV_REG0A_RX_ADDR_P0_BYTE3, W
032D  00E7  	MOVWF FCD_LCDDis_00057_arg_Number
032E  01E8  	CLRF FCD_LCDDis_00057_arg_Number+D'1'
032F  218C  	CALL FCD_LCDDis_00057
0330  3003  	MOVLW 0x03
0331  0760  	ADDWF gbl_FCV_CURSORX, W
0332  00E0  	MOVWF gbl_FCV_CURSORX
0333  0860  	MOVF gbl_FCV_CURSORX, W
0334  00E7  	MOVWF FCD_LCDDis_00056_arg_x
0335  3002  	MOVLW 0x02
0336  00E8  	MOVWF FCD_LCDDis_00056_arg_y
0337  227A  	CALL FCD_LCDDis_00056
0338  085E  	MOVF gbl_FCV_REG0A_RX_ADDR_P0_BYTE4, W
0339  00E7  	MOVWF FCD_LCDDis_00057_arg_Number
033A  01E8  	CLRF FCD_LCDDis_00057_arg_Number+D'1'
033B  218C  	CALL FCD_LCDDis_00057
033C  3003  	MOVLW 0x03
033D  0760  	ADDWF gbl_FCV_CURSORX, W
033E  00E0  	MOVWF gbl_FCV_CURSORX
033F  0008  	RETURN
0340        ; } FCM_lcd_line2 function end

	ORG 0x00000340
0340        FCM_lcd_li_00058
0340        ; { FCM_lcd_line1 ; function begin
0340  1283  	BCF STATUS, RP0
0341  1303  	BCF STATUS, RP1
0342  01E0  	CLRF gbl_FCV_CURSORX
0343  0860  	MOVF gbl_FCV_CURSORX, W
0344  00E7  	MOVWF FCD_LCDDis_00056_arg_x
0345  3001  	MOVLW 0x01
0346  00E8  	MOVWF FCD_LCDDis_00056_arg_y
0347  227A  	CALL FCD_LCDDis_00056
0348  0865  	MOVF gbl_FCV_REG04_SETUP_RETR, W
0349  00E7  	MOVWF FCD_LCDDis_00057_arg_Number
034A  01E8  	CLRF FCD_LCDDis_00057_arg_Number+D'1'
034B  218C  	CALL FCD_LCDDis_00057
034C  3004  	MOVLW 0x04
034D  0760  	ADDWF gbl_FCV_CURSORX, W
034E  00E0  	MOVWF gbl_FCV_CURSORX
034F  0860  	MOVF gbl_FCV_CURSORX, W
0350  00E7  	MOVWF FCD_LCDDis_00056_arg_x
0351  3001  	MOVLW 0x01
0352  00E8  	MOVWF FCD_LCDDis_00056_arg_y
0353  227A  	CALL FCD_LCDDis_00056
0354  0854  	MOVF gbl_FCV_REG05_RF_CH, W
0355  00E7  	MOVWF FCD_LCDDis_00057_arg_Number
0356  01E8  	CLRF FCD_LCDDis_00057_arg_Number+D'1'
0357  218C  	CALL FCD_LCDDis_00057
0358  3004  	MOVLW 0x04
0359  0760  	ADDWF gbl_FCV_CURSORX, W
035A  00E0  	MOVWF gbl_FCV_CURSORX
035B  0860  	MOVF gbl_FCV_CURSORX, W
035C  00E7  	MOVWF FCD_LCDDis_00056_arg_x
035D  3001  	MOVLW 0x01
035E  00E8  	MOVWF FCD_LCDDis_00056_arg_y
035F  227A  	CALL FCD_LCDDis_00056
0360  0864  	MOVF gbl_FCV_REG06_RF_SETUP, W
0361  00E7  	MOVWF FCD_LCDDis_00057_arg_Number
0362  01E8  	CLRF FCD_LCDDis_00057_arg_Number+D'1'
0363  218C  	CALL FCD_LCDDis_00057
0364  3004  	MOVLW 0x04
0365  0760  	ADDWF gbl_FCV_CURSORX, W
0366  00E0  	MOVWF gbl_FCV_CURSORX
0367  0860  	MOVF gbl_FCV_CURSORX, W
0368  00E7  	MOVWF FCD_LCDDis_00056_arg_x
0369  3001  	MOVLW 0x01
036A  00E8  	MOVWF FCD_LCDDis_00056_arg_y
036B  227A  	CALL FCD_LCDDis_00056
036C  0853  	MOVF gbl_FCV_REG07_STATUS, W
036D  00E7  	MOVWF FCD_LCDDis_00057_arg_Number
036E  01E8  	CLRF FCD_LCDDis_00057_arg_Number+D'1'
036F  218C  	CALL FCD_LCDDis_00057
0370  3004  	MOVLW 0x04
0371  0760  	ADDWF gbl_FCV_CURSORX, W
0372  00E0  	MOVWF gbl_FCV_CURSORX
0373  0008  	RETURN
0374        ; } FCM_lcd_line1 function end

	ORG 0x00000374
0374        FCM_lcd_li_00055
0374        ; { FCM_lcd_line0 ; function begin
0374  1283  	BCF STATUS, RP0
0375  1303  	BCF STATUS, RP1
0376  01E0  	CLRF gbl_FCV_CURSORX
0377  0860  	MOVF gbl_FCV_CURSORX, W
0378  00E7  	MOVWF FCD_LCDDis_00056_arg_x
0379  01E8  	CLRF FCD_LCDDis_00056_arg_y
037A  227A  	CALL FCD_LCDDis_00056
037B  0843  	MOVF gbl_FCV_REG00_CONFIG, W
037C  00E7  	MOVWF FCD_LCDDis_00057_arg_Number
037D  01E8  	CLRF FCD_LCDDis_00057_arg_Number+D'1'
037E  218C  	CALL FCD_LCDDis_00057
037F  3004  	MOVLW 0x04
0380  0760  	ADDWF gbl_FCV_CURSORX, W
0381  00E0  	MOVWF gbl_FCV_CURSORX
0382  0860  	MOVF gbl_FCV_CURSORX, W
0383  00E7  	MOVWF FCD_LCDDis_00056_arg_x
0384  01E8  	CLRF FCD_LCDDis_00056_arg_y
0385  227A  	CALL FCD_LCDDis_00056
0386  085A  	MOVF gbl_FCV_REG01_ENAA, W
0387  00E7  	MOVWF FCD_LCDDis_00057_arg_Number
0388  01E8  	CLRF FCD_LCDDis_00057_arg_Number+D'1'
0389  218C  	CALL FCD_LCDDis_00057
038A  3004  	MOVLW 0x04
038B  0760  	ADDWF gbl_FCV_CURSORX, W
038C  00E0  	MOVWF gbl_FCV_CURSORX
038D  0860  	MOVF gbl_FCV_CURSORX, W
038E  00E7  	MOVWF FCD_LCDDis_00056_arg_x
038F  01E8  	CLRF FCD_LCDDis_00056_arg_y
0390  227A  	CALL FCD_LCDDis_00056
0391  0857  	MOVF gbl_FCV_REG02_EN_RXADDR, W
0392  00E7  	MOVWF FCD_LCDDis_00057_arg_Number
0393  01E8  	CLRF FCD_LCDDis_00057_arg_Number+D'1'
0394  218C  	CALL FCD_LCDDis_00057
0395  3004  	MOVLW 0x04
0396  0760  	ADDWF gbl_FCV_CURSORX, W
0397  00E0  	MOVWF gbl_FCV_CURSORX
0398  0860  	MOVF gbl_FCV_CURSORX, W
0399  00E7  	MOVWF FCD_LCDDis_00056_arg_x
039A  01E8  	CLRF FCD_LCDDis_00056_arg_y
039B  227A  	CALL FCD_LCDDis_00056
039C  085D  	MOVF gbl_FCV_REG03_SETUP_AW, W
039D  00E7  	MOVWF FCD_LCDDis_00057_arg_Number
039E  01E8  	CLRF FCD_LCDDis_00057_arg_Number+D'1'
039F  218C  	CALL FCD_LCDDis_00057
03A0  0008  	RETURN
03A1        ; } FCM_lcd_line0 function end

	ORG 0x000003A1
03A1        FCD_SPI_Le_0006C
03A1        ; { FCD_SPI_Legacy0_SPI_Init ; function begin
03A1  1683  	BSF STATUS, RP0
03A2  1303  	BCF STATUS, RP1
03A3  1005  	BCF gbl_trisa,0
03A4  1283  	BCF STATUS, RP0
03A5  1405  	BSF gbl_porta,0
03A6  1683  	BSF STATUS, RP0
03A7  1005  	BCF gbl_trisa,0
03A8  1283  	BCF STATUS, RP0
03A9  1405  	BSF gbl_porta,0
03AA  20E4  	CALL FC_CAL_SPI_00069
03AB  0008  	RETURN
03AC        ; } FCD_SPI_Legacy0_SPI_Init function end

	ORG 0x000003AC
03AC        FCD_LCDDis_00061
03AC        ; { FCD_LCDDisplay0_Clear ; function begin
03AC  3001  	MOVLW 0x01
03AD  1283  	BCF STATUS, RP0
03AE  1303  	BCF STATUS, RP1
03AF  00EC  	MOVWF FCD_LCDDis_0005F_arg_in
03B0  01ED  	CLRF FCD_LCDDis_0005F_arg_mask
03B1  20A3  	CALL FCD_LCDDis_0005F
03B2  3002  	MOVLW 0x02
03B3  00E9  	MOVWF Wdt_Delay__0003E_arg_delay
03B4  2089  	CALL Wdt_Delay__0003E
03B5  3002  	MOVLW 0x02
03B6  00EC  	MOVWF FCD_LCDDis_0005F_arg_in
03B7  01ED  	CLRF FCD_LCDDis_0005F_arg_mask
03B8  20A3  	CALL FCD_LCDDis_0005F
03B9  3002  	MOVLW 0x02
03BA  00E9  	MOVWF Wdt_Delay__0003E_arg_delay
03BB  2089  	CALL Wdt_Delay__0003E
03BC  0008  	RETURN
03BD        ; } FCD_LCDDisplay0_Clear function end

	ORG 0x000003BD
03BD        FCD_LCDDis_00060
03BD        ; { FCD_LCDDisplay0_Start ; function begin
03BD  1683  	BSF STATUS, RP0
03BE  1303  	BCF STATUS, RP1
03BF  1106  	BCF gbl_trisb,2
03C0  1283  	BCF STATUS, RP0
03C1  1106  	BCF gbl_portb,2
03C2  1683  	BSF STATUS, RP0
03C3  1186  	BCF gbl_trisb,3
03C4  1283  	BCF STATUS, RP0
03C5  1186  	BCF gbl_portb,3
03C6  1683  	BSF STATUS, RP0
03C7  1206  	BCF gbl_trisb,4
03C8  1283  	BCF STATUS, RP0
03C9  1206  	BCF gbl_portb,4
03CA  1683  	BSF STATUS, RP0
03CB  1286  	BCF gbl_trisb,5
03CC  1283  	BCF STATUS, RP0
03CD  1286  	BCF gbl_portb,5
03CE  1683  	BSF STATUS, RP0
03CF  1006  	BCF gbl_trisb,0
03D0  1283  	BCF STATUS, RP0
03D1  1006  	BCF gbl_portb,0
03D2  1683  	BSF STATUS, RP0
03D3  1086  	BCF gbl_trisb,1
03D4  1283  	BCF STATUS, RP0
03D5  1086  	BCF gbl_portb,1
03D6  300C  	MOVLW 0x0C
03D7  00E9  	MOVWF Wdt_Delay__0003E_arg_delay
03D8  2089  	CALL Wdt_Delay__0003E
03D9  3033  	MOVLW 0x33
03DA  00EC  	MOVWF FCD_LCDDis_0005F_arg_in
03DB  01ED  	CLRF FCD_LCDDis_0005F_arg_mask
03DC  20A3  	CALL FCD_LCDDis_0005F
03DD  3002  	MOVLW 0x02
03DE  00E9  	MOVWF Wdt_Delay__0003E_arg_delay
03DF  2089  	CALL Wdt_Delay__0003E
03E0  3033  	MOVLW 0x33
03E1  00EC  	MOVWF FCD_LCDDis_0005F_arg_in
03E2  01ED  	CLRF FCD_LCDDis_0005F_arg_mask
03E3  20A3  	CALL FCD_LCDDis_0005F
03E4  3002  	MOVLW 0x02
03E5  00E9  	MOVWF Wdt_Delay__0003E_arg_delay
03E6  2089  	CALL Wdt_Delay__0003E
03E7  3032  	MOVLW 0x32
03E8  00EC  	MOVWF FCD_LCDDis_0005F_arg_in
03E9  01ED  	CLRF FCD_LCDDis_0005F_arg_mask
03EA  20A3  	CALL FCD_LCDDis_0005F
03EB  3002  	MOVLW 0x02
03EC  00E9  	MOVWF Wdt_Delay__0003E_arg_delay
03ED  2089  	CALL Wdt_Delay__0003E
03EE  302C  	MOVLW 0x2C
03EF  00EC  	MOVWF FCD_LCDDis_0005F_arg_in
03F0  01ED  	CLRF FCD_LCDDis_0005F_arg_mask
03F1  20A3  	CALL FCD_LCDDis_0005F
03F2  3002  	MOVLW 0x02
03F3  00E9  	MOVWF Wdt_Delay__0003E_arg_delay
03F4  2089  	CALL Wdt_Delay__0003E
03F5  3006  	MOVLW 0x06
03F6  00EC  	MOVWF FCD_LCDDis_0005F_arg_in
03F7  01ED  	CLRF FCD_LCDDis_0005F_arg_mask
03F8  20A3  	CALL FCD_LCDDis_0005F
03F9  3002  	MOVLW 0x02
03FA  00E9  	MOVWF Wdt_Delay__0003E_arg_delay
03FB  2089  	CALL Wdt_Delay__0003E
03FC  300C  	MOVLW 0x0C
03FD  00EC  	MOVWF FCD_LCDDis_0005F_arg_in
03FE  01ED  	CLRF FCD_LCDDis_0005F_arg_mask
03FF  20A3  	CALL FCD_LCDDis_0005F
0400  3002  	MOVLW 0x02
0401  00E9  	MOVWF Wdt_Delay__0003E_arg_delay
0402  2089  	CALL Wdt_Delay__0003E
0403  3001  	MOVLW 0x01
0404  00EC  	MOVWF FCD_LCDDis_0005F_arg_in
0405  01ED  	CLRF FCD_LCDDis_0005F_arg_mask
0406  20A3  	CALL FCD_LCDDis_0005F
0407  3002  	MOVLW 0x02
0408  00E9  	MOVWF Wdt_Delay__0003E_arg_delay
0409  2089  	CALL Wdt_Delay__0003E
040A  3002  	MOVLW 0x02
040B  00EC  	MOVWF FCD_LCDDis_0005F_arg_in
040C  01ED  	CLRF FCD_LCDDis_0005F_arg_mask
040D  20A3  	CALL FCD_LCDDis_0005F
040E  3002  	MOVLW 0x02
040F  00E9  	MOVWF Wdt_Delay__0003E_arg_delay
0410  2089  	CALL Wdt_Delay__0003E
0411  0008  	RETURN
0412        ; } FCD_LCDDisplay0_Start function end

	ORG 0x00000412
0412        main
0412        ; { main ; function begin
0412  3007  	MOVLW 0x07
0413  1683  	BSF STATUS, RP0
0414  1303  	BCF STATUS, RP1
0415  009F  	MOVWF gbl_adcon1
0416  30C0  	MOVLW 0xC0
0417  0081  	MOVWF gbl_option_reg
0418  23BD  	CALL FCD_LCDDis_00060
0419  23AC  	CALL FCD_LCDDis_00061
041A  23A1  	CALL FCD_SPI_Le_0006C
041B  30FD  	MOVLW 0xFD
041C  1683  	BSF STATUS, RP0
041D  0507  	ANDWF gbl_trisc, W
041E  0087  	MOVWF gbl_trisc
041F  30FD  	MOVLW 0xFD
0420  1283  	BCF STATUS, RP0
0421  0507  	ANDWF gbl_portc, W
0422  0087  	MOVWF gbl_portc
0423  30FB  	MOVLW 0xFB
0424  1683  	BSF STATUS, RP0
0425  0507  	ANDWF gbl_trisc, W
0426  0087  	MOVWF gbl_trisc
0427  30FB  	MOVLW 0xFB
0428  1283  	BCF STATUS, RP0
0429  0507  	ANDWF gbl_portc, W
042A  00E7  	MOVWF CompTempVar2234
042B  3004  	MOVLW 0x04
042C  0467  	IORWF CompTempVar2234, W
042D  0087  	MOVWF gbl_portc
042E        label37
042E  23AC  	CALL FCD_LCDDis_00061
042F  2298  	CALL FCM_spi_nr_00051
0430  2374  	CALL FCM_lcd_li_00055
0431  2340  	CALL FCM_lcd_li_00058
0432  2301  	CALL FCM_lcd_li_00059
0433  22C2  	CALL FCM_lcd_li_0005C
0434  3001  	MOVLW 0x01
0435  00E7  	MOVWF delay_s_00000_arg_del
0436  204F  	CALL delay_s_00000
0437  2C2E  	GOTO	label37
0438        ; } main function end

	ORG 0x00000438
0438        _startup
0438  30D5  	MOVLW 0xD5
0439  1283  	BCF STATUS, RP0
043A  1303  	BCF STATUS, RP1
043B  00A0  	MOVWF gbl_14_LSR
043C  30C4  	MOVLW 0xC4
043D  00A1  	MOVWF gbl_14_LSR+D'1'
043E  30BB  	MOVLW 0xBB
043F  00A2  	MOVWF gbl_14_LSR+D'2'
0440  30DC  	MOVLW 0xDC
0441  00A3  	MOVWF gbl_14_LSR+D'3'
0442  01A4  	CLRF gbl_15_gbl_aSig
0443  01A5  	CLRF gbl_15_gbl_aSig+D'1'
0444  01A6  	CLRF gbl_15_gbl_aSig+D'2'
0445  01A7  	CLRF gbl_15_gbl_aSig+D'3'
0446  01A8  	CLRF gbl_15_gbl_bSig
0447  01A9  	CLRF gbl_15_gbl_bSig+D'1'
0448  01AA  	CLRF gbl_15_gbl_bSig+D'2'
0449  01AB  	CLRF gbl_15_gbl_bSig+D'3'
044A  01AC  	CLRF gbl_15_gbl_zSig
044B  01AD  	CLRF gbl_15_gbl_zSig+D'1'
044C  01AE  	CLRF gbl_15_gbl_zSig+D'2'
044D  01AF  	CLRF gbl_15_gbl_zSig+D'3'
044E  01BC  	CLRF gbl_15_gbl_aExp
044F  01BD  	CLRF gbl_15_gbl_bExp
0450  01B7  	CLRF gbl_15_gbl_zExp
0451  01B8  	CLRF gbl_15_gbl_zExp+D'1'
0452  01BE  	CLRF gbl_15_gbl_aSign
0453  01BF  	CLRF gbl_15_gbl_bSign
0454  01C0  	CLRF gbl_15_gbl_zSign
0455  01C1  	CLRF gbl_15_gbl_zSigZero
0456  01B0  	CLRF gbl_15_gbl_ret
0457  01B1  	CLRF gbl_15_gbl_ret+D'1'
0458  01B2  	CLRF gbl_15_gbl_ret+D'2'
0459  01B3  	CLRF gbl_15_gbl_ret+D'3'
045A  01BA  	CLRF gbl_float_rounding_mode
045B  01BB  	CLRF gbl_float_exception_flags
045C  01B9  	CLRF gbl_float_detect_tininess
045D  01C2  	CLRF gbl_FCV_REG12_RX_PW_P1
045E  01C3  	CLRF gbl_FCV_REG00_CONFIG
045F  01C4  	CLRF gbl_FCV_REG10_TX_ADDR_BYTE1
0460  30FF  	MOVLW 0xFF
0461  00C5  	MOVWF gbl_FCV_DATA_TO_WRITE
0462  01C6  	CLRF gbl_FCV_REG15_RX_PW_P4
0463  01C7  	CLRF gbl_FCV_REG09_CD
0464  01C8  	CLRF gbl_FCV_REG10_TX_ADDR_BYTE2
0465  01C9  	CLRF gbl_FCV_REG10_TX_ADDR_BYTE3
0466  01CA  	CLRF gbl_FCV_REG0F_RX_ADDR_P5
0467  01CB  	CLRF gbl_FCV_REG0C_RX_ADDR_P2
0468  01CC  	CLRF gbl_FCV_REG10_TX_ADDR_BYTE4
0469  30FF  	MOVLW 0xFF
046A  00CD  	MOVWF gbl_FCV_SPI_DATA0
046B  01CE  	CLRF gbl_FCV_REG17_FIFO_STATUS
046C  30FF  	MOVLW 0xFF
046D  00CF  	MOVWF gbl_FCV_SPI_DATA1
046E  01D0  	CLRF gbl_FCV_REG13_RX_PW_P2
046F  01D1  	CLRF gbl_FCV_REG16_RX_PW_P5
0470  01D2  	CLRF gbl_FCV_REG0A_RX_ADDR_P0_BYTE0
0471  01D3  	CLRF gbl_FCV_REG07_STATUS
0472  01D4  	CLRF gbl_FCV_REG05_RF_CH
0473  01D5  	CLRF gbl_FCV_REG0A_RX_ADDR_P0_BYTE1
0474  01D6  	CLRF gbl_FCV_REG0D_RX_ADDR_P3
0475  01D7  	CLRF gbl_FCV_REG02_EN_RXADDR
0476  01D8  	CLRF gbl_FCV_REG0A_RX_ADDR_P0_BYTE2
0477  01D9  	CLRF gbl_FCV_REG08_OBSERVE
0478  01DA  	CLRF gbl_FCV_REG01_ENAA
0479  01DB  	CLRF gbl_FCV_REG0A_RX_ADDR_P0_BYTE3
047A  01DC  	CLRF gbl_FCV_REG11_RX_PW_P0
047B  01DD  	CLRF gbl_FCV_REG03_SETUP_AW
047C  01DE  	CLRF gbl_FCV_REG0A_RX_ADDR_P0_BYTE4
047D  01DF  	CLRF gbl_FCV_REG_TO_WRITE
047E  01E0  	CLRF gbl_FCV_CURSORX
047F  01E1  	CLRF gbl_FCV_REG14_RX_PW_P3
0480  01E2  	CLRF gbl_FCV_REG0E_RX_ADDR_P4
0481  01E3  	CLRF gbl_FCV_REG0B_RX_ADDR_P1
0482  01E4  	CLRF gbl_FCV_REG06_RF_SETUP
0483  01E5  	CLRF gbl_FCV_REG04_SETUP_RETR
0484  01E6  	CLRF gbl_FCV_REG10_TX_ADDR_BYTE0
0485  118A  	BCF PCLATH,3
0486  120A  	BCF PCLATH,4
0487  2C12  	GOTO	main
	ORG 0x00000488
0488        interrupt
0488        ; { interrupt ; function begin
0488  1283  	BCF STATUS, RP0
0489  1303  	BCF STATUS, RP1
048A  0E36  	SWAPF Int1BContext+D'2', W
048B  0084  	MOVWF FSR
048C  0E35  	SWAPF Int1BContext+D'1', W
048D  008A  	MOVWF PCLATH
048E  0E34  	SWAPF Int1BContext, W
048F  0083  	MOVWF STATUS
0490  0EFF  	SWAPF Int1Context, F
0491  0E7F  	SWAPF Int1Context, W
0492  0009  	RETFIE
0493        ; } interrupt function end

	ORG 0x00002007
2007  3F3A  	DW 0x3F3A
