;/////////////////////////////////////////////////////////////////////////////////
;// Code Generator: BoostC Compiler - http://www.sourceboost.com
;// Version       : 7.03
;// License Type  : Pro License
;// Limitations   : PIC12,PIC16 max code size:Unlimited, max RAM banks:Unlimited
;/////////////////////////////////////////////////////////////////////////////////

	ORG 0x00000000
0000  158A  	BSF PCLATH,3
0001  2837  	GOTO	_startup
	ORG 0x00000004
0004  00FF  	MOVWF Int1Context
0005  0E03  	SWAPF STATUS, W
0006  1283  	BCF STATUS, RP0
0007  1303  	BCF STATUS, RP1
0008  00F4  	MOVWF Int1BContext
0009  0E0A  	SWAPF PCLATH, W
000A  00F5  	MOVWF Int1BContext+D'1'
000B  0E04  	SWAPF FSR, W
000C  00F6  	MOVWF Int1BContext+D'2'
000D  158A  	BSF PCLATH,3
000E  120A  	BCF PCLATH,4
000F  28A6  	GOTO	interrupt
	ORG 0x00000010
0010        delay_ms_00000
0010        ; { delay_ms ; function begin
0010  08D6  	MOVF delay_ms_00000_arg_del, F
0011  1D03  	BTFSS STATUS,Z
0012  2814  	GOTO	label1
0013  0008  	RETURN
0014        label1
0014  30F9  	MOVLW 0xF9
0015        label2
0015  0000  	NOP
0016  0000  	NOP
0017  0000  	NOP
0018  0000  	NOP
0019  0000  	NOP
001A  0000  	NOP
001B  0000  	NOP
001C  0000  	NOP
001D  0000  	NOP
001E  0000  	NOP
001F  0000  	NOP
0020  0000  	NOP
0021  0000  	NOP
0022  0000  	NOP
0023  0000  	NOP
0024  0000  	NOP
0025  3EFF  	ADDLW 0xFF
0026  1D03  	BTFSS STATUS,Z
0027  2815  	GOTO	label2
0028  0000  	NOP
0029  0000  	NOP
002A  0000  	NOP
002B  0000  	NOP
002C  0000  	NOP
002D  0000  	NOP
002E  0000  	NOP
002F  0000  	NOP
0030  0000  	NOP
0031  0000  	NOP
0032  0000  	NOP
0033  0000  	NOP
0034  0000  	NOP
0035  0000  	NOP
0036  0000  	NOP
0037  0000  	NOP
0038  0000  	NOP
0039  0BD6  	DECFSZ delay_ms_00000_arg_del, F
003A  2814  	GOTO	label1
003B  0008  	RETURN
003C        ; } delay_ms function end

	ORG 0x0000003C
003C        delay_10us_00000
003C        ; { delay_10us ; function begin
003C  08E9  	MOVF delay_10us_00000_arg_del, F
003D  1D03  	BTFSS STATUS,Z
003E  2840  	GOTO	label3
003F  0008  	RETURN
0040        label3
0040  3009  	MOVLW 0x09
0041        label4
0041  0000  	NOP
0042  3EFF  	ADDLW 0xFF
0043  1D03  	BTFSS STATUS,Z
0044  2841  	GOTO	label4
0045  0000  	NOP
0046  0000  	NOP
0047  0BE9  	DECFSZ delay_10us_00000_arg_del, F
0048  2840  	GOTO	label3
0049  0008  	RETURN
004A        ; } delay_10us function end

	ORG 0x0000004A
004A        delay_us_00000
004A        ; { delay_us ; function begin
004A        label5
004A  0000  	NOP
004B  0000  	NOP
004C  0BD2  	DECFSZ delay_us_00000_arg_del, F
004D  284A  	GOTO	label5
004E  0008  	RETURN
004F        ; } delay_us function end

	ORG 0x0000004F
004F        FC_CAL_SPI_00079
004F        ; { FC_CAL_SPI_Master_Byte_1 ; function begin
004F  01D4  	CLRF FC_CAL_SPI_00079_1_retVal
0050  0853  	MOVF FC_CAL_SPI_00079_arg_DataOut, W
0051  1283  	BCF STATUS, RP0
0052  0093  	MOVWF gbl_sspbuf
0053        label6
0053  1683  	BSF STATUS, RP0
0054  1C14  	BTFSS gbl_sspstat,0
0055  2853  	GOTO	label6
0056  1283  	BCF STATUS, RP0
0057  0813  	MOVF gbl_sspbuf, W
0058  1683  	BSF STATUS, RP0
0059  00D4  	MOVWF FC_CAL_SPI_00079_1_retVal
005A  0854  	MOVF FC_CAL_SPI_00079_1_retVal, W
005B  00D5  	MOVWF CompTempVarRet2290
005C  0008  	RETURN
005D        ; } FC_CAL_SPI_Master_Byte_1 function end

	ORG 0x0000005D
005D        __div_16_1_00003
005D        ; { __div_16_16 ; function begin
005D  01DD  	CLRF __div_16_1_00003_1_r
005E  01DE  	CLRF __div_16_1_00003_1_r+D'1'
005F  01E0  	CLRF CompTempVarRet214
0060  01E1  	CLRF CompTempVarRet214+D'1'
0061  01DF  	CLRF __div_16_1_00003_1_i
0062        label7
0062  1A5F  	BTFSC __div_16_1_00003_1_i,4
0063  0008  	RETURN
0064  1003  	BCF STATUS,C
0065  0DE0  	RLF CompTempVarRet214, F
0066  0DE1  	RLF CompTempVarRet214+D'1', F
0067  0DD7  	RLF __div_16_1_00003_arg_a, F
0068  0DD8  	RLF __div_16_1_00003_arg_a+D'1', F
0069  0DDD  	RLF __div_16_1_00003_1_r, F
006A  0DDE  	RLF __div_16_1_00003_1_r+D'1', F
006B  085A  	MOVF __div_16_1_00003_arg_b+D'1', W
006C  025E  	SUBWF __div_16_1_00003_1_r+D'1', W
006D  1D03  	BTFSS STATUS,Z
006E  2871  	GOTO	label8
006F  0859  	MOVF __div_16_1_00003_arg_b, W
0070  025D  	SUBWF __div_16_1_00003_1_r, W
0071        label8
0071  1C03  	BTFSS STATUS,C
0072  287A  	GOTO	label9
0073  0859  	MOVF __div_16_1_00003_arg_b, W
0074  02DD  	SUBWF __div_16_1_00003_1_r, F
0075  085A  	MOVF __div_16_1_00003_arg_b+D'1', W
0076  1C03  	BTFSS STATUS,C
0077  03DE  	DECF __div_16_1_00003_1_r+D'1', F
0078  02DE  	SUBWF __div_16_1_00003_1_r+D'1', F
0079  1460  	BSF CompTempVarRet214,0
007A        label9
007A  0ADF  	INCF __div_16_1_00003_1_i, F
007B  2862  	GOTO	label7
007C        ; } __div_16_16 function end

	ORG 0x0000007C
007C        Wdt_Delay__0003E
007C        ; { Wdt_Delay_Ms ; function begin
007C  01D5  	CLRF Wdt_Delay__0003E_1_i
007D        label10
007D  0854  	MOVF Wdt_Delay__0003E_arg_delay, W
007E  0255  	SUBWF Wdt_Delay__0003E_1_i, W
007F  1803  	BTFSC STATUS,C
0080  0008  	RETURN
0081  0064  	CLRWDT
0082  3001  	MOVLW 0x01
0083  00D6  	MOVWF delay_ms_00000_arg_del
0084  2010  	CALL delay_ms_00000
0085  0AD5  	INCF Wdt_Delay__0003E_1_i, F
0086  287D  	GOTO	label10
0087        ; } Wdt_Delay_Ms function end

	ORG 0x00000087
0087        FCD_SPI_Le_00054
0087        ; { FCD_SPI_Legacy0_SPI_Get_Char ; function begin
0087  1683  	BSF STATUS, RP0
0088  1303  	BCF STATUS, RP1
0089  01D2  	CLRF FCD_SPI_Le_00054_1_retVal
008A  30FF  	MOVLW 0xFF
008B  00D3  	MOVWF FC_CAL_SPI_00079_arg_DataOut
008C  204F  	CALL FC_CAL_SPI_00079
008D  0855  	MOVF CompTempVarRet2290, W
008E  00D2  	MOVWF FCD_SPI_Le_00054_1_retVal
008F  0852  	MOVF FCD_SPI_Le_00054_1_retVal, W
0090  00D3  	MOVWF CompTempVarRet2189
0091  0008  	RETURN
0092        ; } FCD_SPI_Legacy0_SPI_Get_Char function end

	ORG 0x00000092
0092        FCD_SPI_Le_00053
0092        ; { FCD_SPI_Legacy0_SPI_Send_Char ; function begin
0092  0852  	MOVF FCD_SPI_Le_00053_arg_Char, W
0093  00D3  	MOVWF FC_CAL_SPI_00079_arg_DataOut
0094  204F  	CALL FC_CAL_SPI_00079
0095  0008  	RETURN
0096        ; } FCD_SPI_Legacy0_SPI_Send_Char function end

	ORG 0x00000096
0096        FCD_LCDDis_0006E
0096        ; { FCD_LCDDisplay0_RawSend ; function begin
0096  1283  	BCF STATUS, RP0
0097  1106  	BCF gbl_portb,2
0098  1186  	BCF gbl_portb,3
0099  1206  	BCF gbl_portb,4
009A  1286  	BCF gbl_portb,5
009B  1006  	BCF gbl_portb,0
009C  1086  	BCF gbl_portb,1
009D  1683  	BSF STATUS, RP0
009E  0E66  	SWAPF FCD_LCDDis_0006E_arg_in, W
009F  390F  	ANDLW 0x0F
00A0  00E8  	MOVWF FCD_LCDDis_0006E_1_pt
00A1  300F  	MOVLW 0x0F
00A2  05E8  	ANDWF FCD_LCDDis_0006E_1_pt, F
00A3  1C68  	BTFSS FCD_LCDDis_0006E_1_pt,0
00A4  28A7  	GOTO	label11
00A5  1283  	BCF STATUS, RP0
00A6  1506  	BSF gbl_portb,2
00A7        label11
00A7  1683  	BSF STATUS, RP0
00A8  1CE8  	BTFSS FCD_LCDDis_0006E_1_pt,1
00A9  28AC  	GOTO	label12
00AA  1283  	BCF STATUS, RP0
00AB  1586  	BSF gbl_portb,3
00AC        label12
00AC  1683  	BSF STATUS, RP0
00AD  1D68  	BTFSS FCD_LCDDis_0006E_1_pt,2
00AE  28B1  	GOTO	label13
00AF  1283  	BCF STATUS, RP0
00B0  1606  	BSF gbl_portb,4
00B1        label13
00B1  1683  	BSF STATUS, RP0
00B2  1DE8  	BTFSS FCD_LCDDis_0006E_1_pt,3
00B3  28B6  	GOTO	label14
00B4  1283  	BCF STATUS, RP0
00B5  1686  	BSF gbl_portb,5
00B6        label14
00B6  1683  	BSF STATUS, RP0
00B7  08E7  	MOVF FCD_LCDDis_0006E_arg_mask, F
00B8  1903  	BTFSC STATUS,Z
00B9  28BC  	GOTO	label15
00BA  1283  	BCF STATUS, RP0
00BB  1406  	BSF gbl_portb,0
00BC        label15
00BC  300A  	MOVLW 0x0A
00BD  1683  	BSF STATUS, RP0
00BE  00E9  	MOVWF delay_10us_00000_arg_del
00BF  203C  	CALL delay_10us_00000
00C0  1283  	BCF STATUS, RP0
00C1  1486  	BSF gbl_portb,1
00C2  300A  	MOVLW 0x0A
00C3  1683  	BSF STATUS, RP0
00C4  00E9  	MOVWF delay_10us_00000_arg_del
00C5  203C  	CALL delay_10us_00000
00C6  1283  	BCF STATUS, RP0
00C7  1086  	BCF gbl_portb,1
00C8  300F  	MOVLW 0x0F
00C9  1683  	BSF STATUS, RP0
00CA  0566  	ANDWF FCD_LCDDis_0006E_arg_in, W
00CB  00E8  	MOVWF FCD_LCDDis_0006E_1_pt
00CC  300A  	MOVLW 0x0A
00CD  00E9  	MOVWF delay_10us_00000_arg_del
00CE  203C  	CALL delay_10us_00000
00CF  1283  	BCF STATUS, RP0
00D0  1106  	BCF gbl_portb,2
00D1  1186  	BCF gbl_portb,3
00D2  1206  	BCF gbl_portb,4
00D3  1286  	BCF gbl_portb,5
00D4  1006  	BCF gbl_portb,0
00D5  1086  	BCF gbl_portb,1
00D6  1683  	BSF STATUS, RP0
00D7  1C68  	BTFSS FCD_LCDDis_0006E_1_pt,0
00D8  28DB  	GOTO	label16
00D9  1283  	BCF STATUS, RP0
00DA  1506  	BSF gbl_portb,2
00DB        label16
00DB  1683  	BSF STATUS, RP0
00DC  1CE8  	BTFSS FCD_LCDDis_0006E_1_pt,1
00DD  28E0  	GOTO	label17
00DE  1283  	BCF STATUS, RP0
00DF  1586  	BSF gbl_portb,3
00E0        label17
00E0  1683  	BSF STATUS, RP0
00E1  1D68  	BTFSS FCD_LCDDis_0006E_1_pt,2
00E2  28E5  	GOTO	label18
00E3  1283  	BCF STATUS, RP0
00E4  1606  	BSF gbl_portb,4
00E5        label18
00E5  1683  	BSF STATUS, RP0
00E6  1DE8  	BTFSS FCD_LCDDis_0006E_1_pt,3
00E7  28EA  	GOTO	label19
00E8  1283  	BCF STATUS, RP0
00E9  1686  	BSF gbl_portb,5
00EA        label19
00EA  1683  	BSF STATUS, RP0
00EB  08E7  	MOVF FCD_LCDDis_0006E_arg_mask, F
00EC  1903  	BTFSC STATUS,Z
00ED  28F0  	GOTO	label20
00EE  1283  	BCF STATUS, RP0
00EF  1406  	BSF gbl_portb,0
00F0        label20
00F0  300A  	MOVLW 0x0A
00F1  1683  	BSF STATUS, RP0
00F2  00E9  	MOVWF delay_10us_00000_arg_del
00F3  203C  	CALL delay_10us_00000
00F4  1283  	BCF STATUS, RP0
00F5  1486  	BSF gbl_portb,1
00F6  300A  	MOVLW 0x0A
00F7  1683  	BSF STATUS, RP0
00F8  00E9  	MOVWF delay_10us_00000_arg_del
00F9  203C  	CALL delay_10us_00000
00FA  1283  	BCF STATUS, RP0
00FB  1086  	BCF gbl_portb,1
00FC  300A  	MOVLW 0x0A
00FD  1683  	BSF STATUS, RP0
00FE  00E9  	MOVWF delay_10us_00000_arg_del
00FF  203C  	CALL delay_10us_00000
0100  0008  	RETURN
0101        ; } FCD_LCDDisplay0_RawSend function end

	ORG 0x00000101
0101        FCM_cmd_re_00052
0101        ; { FCM_cmd_read_reg ; function begin
0101  30FB  	MOVLW 0xFB
0102  1683  	BSF STATUS, RP0
0103  1303  	BCF STATUS, RP1
0104  0507  	ANDWF gbl_trisc, W
0105  0087  	MOVWF gbl_trisc
0106  30FB  	MOVLW 0xFB
0107  1283  	BCF STATUS, RP0
0108  0507  	ANDWF gbl_portc, W
0109  0087  	MOVWF gbl_portc
010A  3005  	MOVLW 0x05
010B  1683  	BSF STATUS, RP0
010C  00D2  	MOVWF delay_us_00000_arg_del
010D  204A  	CALL delay_us_00000
010E  0830  	MOVF gbl_FCV_SPI_DATA0, W
010F  00D2  	MOVWF FCD_SPI_Le_00053_arg_Char
0110  2092  	CALL FCD_SPI_Le_00053
0111  2087  	CALL FCD_SPI_Le_00054
0112  0853  	MOVF CompTempVarRet2189, W
0113  00B1  	MOVWF gbl_FCV_SPI_DATA1
0114  30FB  	MOVLW 0xFB
0115  0507  	ANDWF gbl_trisc, W
0116  0087  	MOVWF gbl_trisc
0117  30FB  	MOVLW 0xFB
0118  1283  	BCF STATUS, RP0
0119  0507  	ANDWF gbl_portc, W
011A  1683  	BSF STATUS, RP0
011B  00D2  	MOVWF CompTempVar2188
011C  3004  	MOVLW 0x04
011D  0452  	IORWF CompTempVar2188, W
011E  1283  	BCF STATUS, RP0
011F  0087  	MOVWF gbl_portc
0120  3005  	MOVLW 0x05
0121  1683  	BSF STATUS, RP0
0122  00D2  	MOVWF delay_us_00000_arg_del
0123  204A  	CALL delay_us_00000
0124  0008  	RETURN
0125        ; } FCM_cmd_read_reg function end

	ORG 0x00000125
0125        FCI_SHEAD_00000
0125        ; { FCI_SHEAD ; function begin
0125  01DB  	CLRF FCI_SHEAD_00000_1_len
0126  0858  	MOVF FCI_SHEAD_00000_arg_sDst, W
0127  0655  	XORWF FCI_SHEAD_00000_arg_sSrc2, W
0128  1D03  	BTFSS STATUS,Z
0129  29CC  	GOTO	label32
012A  0859  	MOVF FCI_SHEAD_00000_arg_sDst+D'1', W
012B  0656  	XORWF FCI_SHEAD_00000_arg_sSrc2+D'1', W
012C  1D03  	BTFSS STATUS,Z
012D  29CC  	GOTO	label32
012E  01DC  	CLRF FCI_SHEAD_00000_1_strt
012F        label21
012F  0854  	MOVF FCI_SHEAD_00000_arg_iSrc1_len, W
0130  025C  	SUBWF FCI_SHEAD_00000_1_strt, W
0131  1803  	BTFSC STATUS,C
0132  293E  	GOTO	label22
0133  1383  	BCF STATUS,IRP
0134  1853  	BTFSC FCI_SHEAD_00000_arg_sSrc1+D'1',0
0135  1783  	BSF STATUS,IRP
0136  0852  	MOVF FCI_SHEAD_00000_arg_sSrc1, W
0137  075C  	ADDWF FCI_SHEAD_00000_1_strt, W
0138  0084  	MOVWF FSR
0139  0880  	MOVF INDF, F
013A  1903  	BTFSC STATUS,Z
013B  293E  	GOTO	label22
013C  0ADC  	INCF FCI_SHEAD_00000_1_strt, F
013D  292F  	GOTO	label21
013E        label22
013E  085A  	MOVF FCI_SHEAD_00000_arg_iDst_len, W
013F  025C  	SUBWF FCI_SHEAD_00000_1_strt, W
0140  1803  	BTFSC STATUS,C
0141  29A5  	GOTO	label30
0142  01DB  	CLRF FCI_SHEAD_00000_1_len
0143        label23
0143  0857  	MOVF FCI_SHEAD_00000_arg_iSrc2_len, W
0144  025B  	SUBWF FCI_SHEAD_00000_1_len, W
0145  1803  	BTFSC STATUS,C
0146  2952  	GOTO	label24
0147  1383  	BCF STATUS,IRP
0148  1856  	BTFSC FCI_SHEAD_00000_arg_sSrc2+D'1',0
0149  1783  	BSF STATUS,IRP
014A  0855  	MOVF FCI_SHEAD_00000_arg_sSrc2, W
014B  075B  	ADDWF FCI_SHEAD_00000_1_len, W
014C  0084  	MOVWF FSR
014D  0880  	MOVF INDF, F
014E  1903  	BTFSC STATUS,Z
014F  2952  	GOTO	label24
0150  0ADB  	INCF FCI_SHEAD_00000_1_len, F
0151  2943  	GOTO	label23
0152        label24
0152  085C  	MOVF FCI_SHEAD_00000_1_strt, W
0153  025A  	SUBWF FCI_SHEAD_00000_arg_iDst_len, W
0154  00DD  	MOVWF CompTempVar2110
0155  085B  	MOVF FCI_SHEAD_00000_1_len, W
0156  025D  	SUBWF CompTempVar2110, W
0157  1803  	BTFSC STATUS,C
0158  295C  	GOTO	label25
0159  085C  	MOVF FCI_SHEAD_00000_1_strt, W
015A  025A  	SUBWF FCI_SHEAD_00000_arg_iDst_len, W
015B  00DB  	MOVWF FCI_SHEAD_00000_1_len
015C        label25
015C  085B  	MOVF FCI_SHEAD_00000_1_len, W
015D  075C  	ADDWF FCI_SHEAD_00000_1_strt, W
015E  00D7  	MOVWF FCI_SHEAD_00000_arg_iSrc2_len
015F  085B  	MOVF FCI_SHEAD_00000_1_len, W
0160  00DC  	MOVWF FCI_SHEAD_00000_1_strt
0161        label26
0161  085C  	MOVF FCI_SHEAD_00000_1_strt, W
0162  3C00  	SUBLW 0x00
0163  1803  	BTFSC STATUS,C
0164  297B  	GOTO	label27
0165  03DC  	DECF FCI_SHEAD_00000_1_strt, F
0166  03D7  	DECF FCI_SHEAD_00000_arg_iSrc2_len, F
0167  1383  	BCF STATUS,IRP
0168  1856  	BTFSC FCI_SHEAD_00000_arg_sSrc2+D'1',0
0169  1783  	BSF STATUS,IRP
016A  0855  	MOVF FCI_SHEAD_00000_arg_sSrc2, W
016B  0084  	MOVWF FSR
016C  085C  	MOVF FCI_SHEAD_00000_1_strt, W
016D  00DE  	MOVWF CompTempVar2117
016E  085E  	MOVF CompTempVar2117, W
016F  0784  	ADDWF FSR, F
0170  0800  	MOVF INDF, W
0171  00DF  	MOVWF CompTempVar2118
0172  1383  	BCF STATUS,IRP
0173  1859  	BTFSC FCI_SHEAD_00000_arg_sDst+D'1',0
0174  1783  	BSF STATUS,IRP
0175  0858  	MOVF FCI_SHEAD_00000_arg_sDst, W
0176  0757  	ADDWF FCI_SHEAD_00000_arg_iSrc2_len, W
0177  0084  	MOVWF FSR
0178  085F  	MOVF CompTempVar2118, W
0179  0080  	MOVWF INDF
017A  2961  	GOTO	label26
017B        label27
017B  01DC  	CLRF FCI_SHEAD_00000_1_strt
017C        label28
017C  0854  	MOVF FCI_SHEAD_00000_arg_iSrc1_len, W
017D  025C  	SUBWF FCI_SHEAD_00000_1_strt, W
017E  1803  	BTFSC STATUS,C
017F  29A2  	GOTO	label29
0180  085A  	MOVF FCI_SHEAD_00000_arg_iDst_len, W
0181  025C  	SUBWF FCI_SHEAD_00000_1_strt, W
0182  1803  	BTFSC STATUS,C
0183  29A2  	GOTO	label29
0184  1383  	BCF STATUS,IRP
0185  1853  	BTFSC FCI_SHEAD_00000_arg_sSrc1+D'1',0
0186  1783  	BSF STATUS,IRP
0187  0852  	MOVF FCI_SHEAD_00000_arg_sSrc1, W
0188  075C  	ADDWF FCI_SHEAD_00000_1_strt, W
0189  0084  	MOVWF FSR
018A  0880  	MOVF INDF, F
018B  1903  	BTFSC STATUS,Z
018C  29A2  	GOTO	label29
018D  1383  	BCF STATUS,IRP
018E  1853  	BTFSC FCI_SHEAD_00000_arg_sSrc1+D'1',0
018F  1783  	BSF STATUS,IRP
0190  0852  	MOVF FCI_SHEAD_00000_arg_sSrc1, W
0191  0084  	MOVWF FSR
0192  085C  	MOVF FCI_SHEAD_00000_1_strt, W
0193  00DE  	MOVWF CompTempVar2121
0194  085E  	MOVF CompTempVar2121, W
0195  0784  	ADDWF FSR, F
0196  0800  	MOVF INDF, W
0197  00DF  	MOVWF CompTempVar2122
0198  1383  	BCF STATUS,IRP
0199  1859  	BTFSC FCI_SHEAD_00000_arg_sDst+D'1',0
019A  1783  	BSF STATUS,IRP
019B  0858  	MOVF FCI_SHEAD_00000_arg_sDst, W
019C  075C  	ADDWF FCI_SHEAD_00000_1_strt, W
019D  0084  	MOVWF FSR
019E  085F  	MOVF CompTempVar2122, W
019F  0080  	MOVWF INDF
01A0  0ADC  	INCF FCI_SHEAD_00000_1_strt, F
01A1  297C  	GOTO	label28
01A2        label29
01A2  085C  	MOVF FCI_SHEAD_00000_1_strt, W
01A3  07DB  	ADDWF FCI_SHEAD_00000_1_len, F
01A4  2A2E  	GOTO	label37
01A5        label30
01A5  01DB  	CLRF FCI_SHEAD_00000_1_len
01A6        label31
01A6  0854  	MOVF FCI_SHEAD_00000_arg_iSrc1_len, W
01A7  025B  	SUBWF FCI_SHEAD_00000_1_len, W
01A8  1803  	BTFSC STATUS,C
01A9  2A2E  	GOTO	label37
01AA  085A  	MOVF FCI_SHEAD_00000_arg_iDst_len, W
01AB  025B  	SUBWF FCI_SHEAD_00000_1_len, W
01AC  1803  	BTFSC STATUS,C
01AD  2A2E  	GOTO	label37
01AE  1383  	BCF STATUS,IRP
01AF  1853  	BTFSC FCI_SHEAD_00000_arg_sSrc1+D'1',0
01B0  1783  	BSF STATUS,IRP
01B1  0852  	MOVF FCI_SHEAD_00000_arg_sSrc1, W
01B2  075B  	ADDWF FCI_SHEAD_00000_1_len, W
01B3  0084  	MOVWF FSR
01B4  0880  	MOVF INDF, F
01B5  1903  	BTFSC STATUS,Z
01B6  2A2E  	GOTO	label37
01B7  1383  	BCF STATUS,IRP
01B8  1853  	BTFSC FCI_SHEAD_00000_arg_sSrc1+D'1',0
01B9  1783  	BSF STATUS,IRP
01BA  0852  	MOVF FCI_SHEAD_00000_arg_sSrc1, W
01BB  0084  	MOVWF FSR
01BC  085B  	MOVF FCI_SHEAD_00000_1_len, W
01BD  00DD  	MOVWF CompTempVar2129
01BE  085D  	MOVF CompTempVar2129, W
01BF  0784  	ADDWF FSR, F
01C0  0800  	MOVF INDF, W
01C1  00DE  	MOVWF CompTempVar2130
01C2  1383  	BCF STATUS,IRP
01C3  1859  	BTFSC FCI_SHEAD_00000_arg_sDst+D'1',0
01C4  1783  	BSF STATUS,IRP
01C5  0858  	MOVF FCI_SHEAD_00000_arg_sDst, W
01C6  075B  	ADDWF FCI_SHEAD_00000_1_len, W
01C7  0084  	MOVWF FSR
01C8  085E  	MOVF CompTempVar2130, W
01C9  0080  	MOVWF INDF
01CA  0ADB  	INCF FCI_SHEAD_00000_1_len, F
01CB  29A6  	GOTO	label31
01CC        label32
01CC  01DB  	CLRF FCI_SHEAD_00000_1_len
01CD        label33
01CD  0854  	MOVF FCI_SHEAD_00000_arg_iSrc1_len, W
01CE  025B  	SUBWF FCI_SHEAD_00000_1_len, W
01CF  1803  	BTFSC STATUS,C
01D0  29F3  	GOTO	label34
01D1  085A  	MOVF FCI_SHEAD_00000_arg_iDst_len, W
01D2  025B  	SUBWF FCI_SHEAD_00000_1_len, W
01D3  1803  	BTFSC STATUS,C
01D4  29F3  	GOTO	label34
01D5  1383  	BCF STATUS,IRP
01D6  1853  	BTFSC FCI_SHEAD_00000_arg_sSrc1+D'1',0
01D7  1783  	BSF STATUS,IRP
01D8  0852  	MOVF FCI_SHEAD_00000_arg_sSrc1, W
01D9  075B  	ADDWF FCI_SHEAD_00000_1_len, W
01DA  0084  	MOVWF FSR
01DB  0880  	MOVF INDF, F
01DC  1903  	BTFSC STATUS,Z
01DD  29F3  	GOTO	label34
01DE  1383  	BCF STATUS,IRP
01DF  1853  	BTFSC FCI_SHEAD_00000_arg_sSrc1+D'1',0
01E0  1783  	BSF STATUS,IRP
01E1  0852  	MOVF FCI_SHEAD_00000_arg_sSrc1, W
01E2  0084  	MOVWF FSR
01E3  085B  	MOVF FCI_SHEAD_00000_1_len, W
01E4  00DD  	MOVWF CompTempVar2137
01E5  085D  	MOVF CompTempVar2137, W
01E6  0784  	ADDWF FSR, F
01E7  0800  	MOVF INDF, W
01E8  00DE  	MOVWF CompTempVar2138
01E9  1383  	BCF STATUS,IRP
01EA  1859  	BTFSC FCI_SHEAD_00000_arg_sDst+D'1',0
01EB  1783  	BSF STATUS,IRP
01EC  0858  	MOVF FCI_SHEAD_00000_arg_sDst, W
01ED  075B  	ADDWF FCI_SHEAD_00000_1_len, W
01EE  0084  	MOVWF FSR
01EF  085E  	MOVF CompTempVar2138, W
01F0  0080  	MOVWF INDF
01F1  0ADB  	INCF FCI_SHEAD_00000_1_len, F
01F2  29CD  	GOTO	label33
01F3        label34
01F3  085A  	MOVF FCI_SHEAD_00000_arg_iDst_len, W
01F4  025B  	SUBWF FCI_SHEAD_00000_1_len, W
01F5  1803  	BTFSC STATUS,C
01F6  2A2E  	GOTO	label37
01F7  085B  	MOVF FCI_SHEAD_00000_1_len, W
01F8  0758  	ADDWF FCI_SHEAD_00000_arg_sDst, W
01F9  00DD  	MOVWF CompTempVar2143
01FA  0859  	MOVF FCI_SHEAD_00000_arg_sDst+D'1', W
01FB  00DE  	MOVWF CompTempVar2144
01FC  1803  	BTFSC STATUS,C
01FD  0ADE  	INCF CompTempVar2144, F
01FE  085D  	MOVF CompTempVar2143, W
01FF  00D2  	MOVWF FCI_SHEAD_00000_arg_sSrc1
0200  085E  	MOVF CompTempVar2144, W
0201  00D3  	MOVWF FCI_SHEAD_00000_arg_sSrc1+D'1'
0202  085B  	MOVF FCI_SHEAD_00000_1_len, W
0203  025A  	SUBWF FCI_SHEAD_00000_arg_iDst_len, W
0204  00D4  	MOVWF FCI_SHEAD_00000_arg_iSrc1_len
0205  01DC  	CLRF FCI_SHEAD_00000_1_strt
0206        label35
0206  0857  	MOVF FCI_SHEAD_00000_arg_iSrc2_len, W
0207  025C  	SUBWF FCI_SHEAD_00000_1_strt, W
0208  1803  	BTFSC STATUS,C
0209  2A2C  	GOTO	label36
020A  0854  	MOVF FCI_SHEAD_00000_arg_iSrc1_len, W
020B  025C  	SUBWF FCI_SHEAD_00000_1_strt, W
020C  1803  	BTFSC STATUS,C
020D  2A2C  	GOTO	label36
020E  1383  	BCF STATUS,IRP
020F  1856  	BTFSC FCI_SHEAD_00000_arg_sSrc2+D'1',0
0210  1783  	BSF STATUS,IRP
0211  0855  	MOVF FCI_SHEAD_00000_arg_sSrc2, W
0212  075C  	ADDWF FCI_SHEAD_00000_1_strt, W
0213  0084  	MOVWF FSR
0214  0880  	MOVF INDF, F
0215  1903  	BTFSC STATUS,Z
0216  2A2C  	GOTO	label36
0217  1383  	BCF STATUS,IRP
0218  1856  	BTFSC FCI_SHEAD_00000_arg_sSrc2+D'1',0
0219  1783  	BSF STATUS,IRP
021A  0855  	MOVF FCI_SHEAD_00000_arg_sSrc2, W
021B  0084  	MOVWF FSR
021C  085C  	MOVF FCI_SHEAD_00000_1_strt, W
021D  00DD  	MOVWF CompTempVar2147
021E  085D  	MOVF CompTempVar2147, W
021F  0784  	ADDWF FSR, F
0220  0800  	MOVF INDF, W
0221  00DE  	MOVWF CompTempVar2148
0222  1383  	BCF STATUS,IRP
0223  1853  	BTFSC FCI_SHEAD_00000_arg_sSrc1+D'1',0
0224  1783  	BSF STATUS,IRP
0225  0852  	MOVF FCI_SHEAD_00000_arg_sSrc1, W
0226  075C  	ADDWF FCI_SHEAD_00000_1_strt, W
0227  0084  	MOVWF FSR
0228  085E  	MOVF CompTempVar2148, W
0229  0080  	MOVWF INDF
022A  0ADC  	INCF FCI_SHEAD_00000_1_strt, F
022B  2A06  	GOTO	label35
022C        label36
022C  085C  	MOVF FCI_SHEAD_00000_1_strt, W
022D  07DB  	ADDWF FCI_SHEAD_00000_1_len, F
022E        label37
022E  085A  	MOVF FCI_SHEAD_00000_arg_iDst_len, W
022F  025B  	SUBWF FCI_SHEAD_00000_1_len, W
0230  1803  	BTFSC STATUS,C
0231  0008  	RETURN
0232  1383  	BCF STATUS,IRP
0233  1859  	BTFSC FCI_SHEAD_00000_arg_sDst+D'1',0
0234  1783  	BSF STATUS,IRP
0235  0858  	MOVF FCI_SHEAD_00000_arg_sDst, W
0236  075B  	ADDWF FCI_SHEAD_00000_1_len, W
0237  0084  	MOVWF FSR
0238  3000  	MOVLW 0x00
0239  0080  	MOVWF INDF
023A  0008  	RETURN
023B        ; } FCI_SHEAD function end

	ORG 0x0000023B
023B        FCI_SCOPY_00000
023B        ; { FCI_SCOPY ; function begin
023B  01E9  	CLRF FCI_SCOPY_00000_1_len
023C        label38
023C  0865  	MOVF FCI_SCOPY_00000_arg_iSrc_len, W
023D  0269  	SUBWF FCI_SCOPY_00000_1_len, W
023E  1803  	BTFSC STATUS,C
023F  2A62  	GOTO	label39
0240  0868  	MOVF FCI_SCOPY_00000_arg_iDst_len, W
0241  0269  	SUBWF FCI_SCOPY_00000_1_len, W
0242  1803  	BTFSC STATUS,C
0243  2A62  	GOTO	label39
0244  1383  	BCF STATUS,IRP
0245  1853  	BTFSC FCI_SCOPY_00000_arg_sSrc+D'1',0
0246  1783  	BSF STATUS,IRP
0247  0852  	MOVF FCI_SCOPY_00000_arg_sSrc, W
0248  0769  	ADDWF FCI_SCOPY_00000_1_len, W
0249  0084  	MOVWF FSR
024A  0880  	MOVF INDF, F
024B  1903  	BTFSC STATUS,Z
024C  2A62  	GOTO	label39
024D  1383  	BCF STATUS,IRP
024E  1853  	BTFSC FCI_SCOPY_00000_arg_sSrc+D'1',0
024F  1783  	BSF STATUS,IRP
0250  0852  	MOVF FCI_SCOPY_00000_arg_sSrc, W
0251  0084  	MOVWF FSR
0252  0869  	MOVF FCI_SCOPY_00000_1_len, W
0253  00EA  	MOVWF CompTempVar2156
0254  086A  	MOVF CompTempVar2156, W
0255  0784  	ADDWF FSR, F
0256  0800  	MOVF INDF, W
0257  00EB  	MOVWF CompTempVar2157
0258  1383  	BCF STATUS,IRP
0259  1867  	BTFSC FCI_SCOPY_00000_arg_sDst+D'1',0
025A  1783  	BSF STATUS,IRP
025B  0866  	MOVF FCI_SCOPY_00000_arg_sDst, W
025C  0769  	ADDWF FCI_SCOPY_00000_1_len, W
025D  0084  	MOVWF FSR
025E  086B  	MOVF CompTempVar2157, W
025F  0080  	MOVWF INDF
0260  0AE9  	INCF FCI_SCOPY_00000_1_len, F
0261  2A3C  	GOTO	label38
0262        label39
0262  0868  	MOVF FCI_SCOPY_00000_arg_iDst_len, W
0263  0269  	SUBWF FCI_SCOPY_00000_1_len, W
0264  1803  	BTFSC STATUS,C
0265  0008  	RETURN
0266  1383  	BCF STATUS,IRP
0267  1867  	BTFSC FCI_SCOPY_00000_arg_sDst+D'1',0
0268  1783  	BSF STATUS,IRP
0269  0866  	MOVF FCI_SCOPY_00000_arg_sDst, W
026A  0769  	ADDWF FCI_SCOPY_00000_1_len, W
026B  0084  	MOVWF FSR
026C  3000  	MOVLW 0x00
026D  0080  	MOVWF INDF
026E  0008  	RETURN
026F        ; } FCI_SCOPY function end

	ORG 0x0000026F
026F        FCD_LCDDis_00057
026F        ; { FCD_LCDDisplay0_PrintNumber ; function begin
026F  1FD3  	BTFSS FCD_LCDDis_00057_arg_Number+D'1',7
0270  2A7E  	GOTO	label40
0271  302D  	MOVLW 0x2D
0272  00E6  	MOVWF FCD_LCDDis_0006E_arg_in
0273  3010  	MOVLW 0x10
0274  00E7  	MOVWF FCD_LCDDis_0006E_arg_mask
0275  2096  	CALL FCD_LCDDis_0006E
0276  0852  	MOVF FCD_LCDDis_00057_arg_Number, W
0277  3C00  	SUBLW 0x00
0278  00D7  	MOVWF CompTempVar2190
0279  09D3  	COMF FCD_LCDDis_00057_arg_Number+D'1', F
027A  1803  	BTFSC STATUS,C
027B  0AD3  	INCF FCD_LCDDis_00057_arg_Number+D'1', F
027C  0857  	MOVF CompTempVar2190, W
027D  00D2  	MOVWF FCD_LCDDis_00057_arg_Number
027E        label40
027E  0852  	MOVF FCD_LCDDis_00057_arg_Number, W
027F  00D4  	MOVWF FCD_LCDDis_00057_1_tmp_int
0280  0853  	MOVF FCD_LCDDis_00057_arg_Number+D'1', W
0281  00D5  	MOVWF FCD_LCDDis_00057_1_tmp_int+D'1'
0282  3027  	MOVLW 0x27
0283  0253  	SUBWF FCD_LCDDis_00057_arg_Number+D'1', W
0284  1D03  	BTFSS STATUS,Z
0285  2A88  	GOTO	label41
0286  3010  	MOVLW 0x10
0287  0252  	SUBWF FCD_LCDDis_00057_arg_Number, W
0288        label41
0288  1C03  	BTFSS STATUS,C
0289  2AB6  	GOTO	label45
028A  1BD3  	BTFSC FCD_LCDDis_00057_arg_Number+D'1',7
028B  2AB6  	GOTO	label45
028C  01DB  	CLRF CompTempVar2193
028D  0854  	MOVF FCD_LCDDis_00057_1_tmp_int, W
028E  00D7  	MOVWF __div_16_1_00003_arg_a
028F  0855  	MOVF FCD_LCDDis_00057_1_tmp_int+D'1', W
0290  00D8  	MOVWF __div_16_1_00003_arg_a+D'1'
0291  1FD5  	BTFSS FCD_LCDDis_00057_1_tmp_int+D'1',7
0292  2A99  	GOTO	label42
0293  09D7  	COMF __div_16_1_00003_arg_a, F
0294  09D8  	COMF __div_16_1_00003_arg_a+D'1', F
0295  0AD7  	INCF __div_16_1_00003_arg_a, F
0296  1903  	BTFSC STATUS,Z
0297  0AD8  	INCF __div_16_1_00003_arg_a+D'1', F
0298  0ADB  	INCF CompTempVar2193, F
0299        label42
0299  3010  	MOVLW 0x10
029A  00D9  	MOVWF __div_16_1_00003_arg_b
029B  3027  	MOVLW 0x27
029C  00DA  	MOVWF __div_16_1_00003_arg_b+D'1'
029D  205D  	CALL __div_16_1_00003
029E  0860  	MOVF CompTempVarRet214, W
029F  00D6  	MOVWF FCD_LCDDis_00057_1_tmp_byte
02A0  1C5B  	BTFSS CompTempVar2193,0
02A1  2AA4  	GOTO	label43
02A2  09D6  	COMF FCD_LCDDis_00057_1_tmp_byte, F
02A3  0AD6  	INCF FCD_LCDDis_00057_1_tmp_byte, F
02A4        label43
02A4  0856  	MOVF FCD_LCDDis_00057_1_tmp_byte, W
02A5  3E30  	ADDLW 0x30
02A6  00E6  	MOVWF FCD_LCDDis_0006E_arg_in
02A7  3010  	MOVLW 0x10
02A8  00E7  	MOVWF FCD_LCDDis_0006E_arg_mask
02A9  2096  	CALL FCD_LCDDis_0006E
02AA        label44
02AA  0856  	MOVF FCD_LCDDis_00057_1_tmp_byte, W
02AB  3C00  	SUBLW 0x00
02AC  1803  	BTFSC STATUS,C
02AD  2AB6  	GOTO	label45
02AE  3010  	MOVLW 0x10
02AF  02D4  	SUBWF FCD_LCDDis_00057_1_tmp_int, F
02B0  3027  	MOVLW 0x27
02B1  1C03  	BTFSS STATUS,C
02B2  3028  	MOVLW 0x28
02B3  02D5  	SUBWF FCD_LCDDis_00057_1_tmp_int+D'1', F
02B4  03D6  	DECF FCD_LCDDis_00057_1_tmp_byte, F
02B5  2AAA  	GOTO	label44
02B6        label45
02B6  3003  	MOVLW 0x03
02B7  0253  	SUBWF FCD_LCDDis_00057_arg_Number+D'1', W
02B8  1D03  	BTFSS STATUS,Z
02B9  2ABC  	GOTO	label46
02BA  30E8  	MOVLW 0xE8
02BB  0252  	SUBWF FCD_LCDDis_00057_arg_Number, W
02BC        label46
02BC  1C03  	BTFSS STATUS,C
02BD  2AEC  	GOTO	label50
02BE  1BD3  	BTFSC FCD_LCDDis_00057_arg_Number+D'1',7
02BF  2AEC  	GOTO	label50
02C0  01DC  	CLRF CompTempVar2197
02C1  0854  	MOVF FCD_LCDDis_00057_1_tmp_int, W
02C2  00D7  	MOVWF __div_16_1_00003_arg_a
02C3  0855  	MOVF FCD_LCDDis_00057_1_tmp_int+D'1', W
02C4  00D8  	MOVWF __div_16_1_00003_arg_a+D'1'
02C5  1FD5  	BTFSS FCD_LCDDis_00057_1_tmp_int+D'1',7
02C6  2ACD  	GOTO	label47
02C7  09D7  	COMF __div_16_1_00003_arg_a, F
02C8  09D8  	COMF __div_16_1_00003_arg_a+D'1', F
02C9  0AD7  	INCF __div_16_1_00003_arg_a, F
02CA  1903  	BTFSC STATUS,Z
02CB  0AD8  	INCF __div_16_1_00003_arg_a+D'1', F
02CC  0ADC  	INCF CompTempVar2197, F
02CD        label47
02CD  30E8  	MOVLW 0xE8
02CE  00D9  	MOVWF __div_16_1_00003_arg_b
02CF  3003  	MOVLW 0x03
02D0  00DA  	MOVWF __div_16_1_00003_arg_b+D'1'
02D1  205D  	CALL __div_16_1_00003
02D2  0860  	MOVF CompTempVarRet214, W
02D3  00DB  	MOVWF CompTempVar2196
02D4  1C5C  	BTFSS CompTempVar2197,0
02D5  2AD8  	GOTO	label48
02D6  09DB  	COMF CompTempVar2196, F
02D7  0ADB  	INCF CompTempVar2196, F
02D8        label48
02D8  085B  	MOVF CompTempVar2196, W
02D9  00D6  	MOVWF FCD_LCDDis_00057_1_tmp_byte
02DA  0856  	MOVF FCD_LCDDis_00057_1_tmp_byte, W
02DB  3E30  	ADDLW 0x30
02DC  00E6  	MOVWF FCD_LCDDis_0006E_arg_in
02DD  3010  	MOVLW 0x10
02DE  00E7  	MOVWF FCD_LCDDis_0006E_arg_mask
02DF  2096  	CALL FCD_LCDDis_0006E
02E0        label49
02E0  0856  	MOVF FCD_LCDDis_00057_1_tmp_byte, W
02E1  3C00  	SUBLW 0x00
02E2  1803  	BTFSC STATUS,C
02E3  2AEC  	GOTO	label50
02E4  30E8  	MOVLW 0xE8
02E5  02D4  	SUBWF FCD_LCDDis_00057_1_tmp_int, F
02E6  3003  	MOVLW 0x03
02E7  1C03  	BTFSS STATUS,C
02E8  3004  	MOVLW 0x04
02E9  02D5  	SUBWF FCD_LCDDis_00057_1_tmp_int+D'1', F
02EA  03D6  	DECF FCD_LCDDis_00057_1_tmp_byte, F
02EB  2AE0  	GOTO	label49
02EC        label50
02EC  0853  	MOVF FCD_LCDDis_00057_arg_Number+D'1', W
02ED  3A80  	XORLW 0x80
02EE  00D7  	MOVWF CompTempVar2200
02EF  3080  	MOVLW 0x80
02F0  0257  	SUBWF CompTempVar2200, W
02F1  1D03  	BTFSS STATUS,Z
02F2  2AF5  	GOTO	label51
02F3  3064  	MOVLW 0x64
02F4  0252  	SUBWF FCD_LCDDis_00057_arg_Number, W
02F5        label51
02F5  1C03  	BTFSS STATUS,C
02F6  2B21  	GOTO	label55
02F7  01DC  	CLRF CompTempVar2202
02F8  0854  	MOVF FCD_LCDDis_00057_1_tmp_int, W
02F9  00D7  	MOVWF __div_16_1_00003_arg_a
02FA  0855  	MOVF FCD_LCDDis_00057_1_tmp_int+D'1', W
02FB  00D8  	MOVWF __div_16_1_00003_arg_a+D'1'
02FC  1FD5  	BTFSS FCD_LCDDis_00057_1_tmp_int+D'1',7
02FD  2B04  	GOTO	label52
02FE  09D7  	COMF __div_16_1_00003_arg_a, F
02FF  09D8  	COMF __div_16_1_00003_arg_a+D'1', F
0300  0AD7  	INCF __div_16_1_00003_arg_a, F
0301  1903  	BTFSC STATUS,Z
0302  0AD8  	INCF __div_16_1_00003_arg_a+D'1', F
0303  0ADC  	INCF CompTempVar2202, F
0304        label52
0304  3064  	MOVLW 0x64
0305  00D9  	MOVWF __div_16_1_00003_arg_b
0306  01DA  	CLRF __div_16_1_00003_arg_b+D'1'
0307  205D  	CALL __div_16_1_00003
0308  0860  	MOVF CompTempVarRet214, W
0309  00DB  	MOVWF CompTempVar2201
030A  1C5C  	BTFSS CompTempVar2202,0
030B  2B0E  	GOTO	label53
030C  09DB  	COMF CompTempVar2201, F
030D  0ADB  	INCF CompTempVar2201, F
030E        label53
030E  085B  	MOVF CompTempVar2201, W
030F  00D6  	MOVWF FCD_LCDDis_00057_1_tmp_byte
0310  0856  	MOVF FCD_LCDDis_00057_1_tmp_byte, W
0311  3E30  	ADDLW 0x30
0312  00E6  	MOVWF FCD_LCDDis_0006E_arg_in
0313  3010  	MOVLW 0x10
0314  00E7  	MOVWF FCD_LCDDis_0006E_arg_mask
0315  2096  	CALL FCD_LCDDis_0006E
0316        label54
0316  0856  	MOVF FCD_LCDDis_00057_1_tmp_byte, W
0317  3C00  	SUBLW 0x00
0318  1803  	BTFSC STATUS,C
0319  2B21  	GOTO	label55
031A  3064  	MOVLW 0x64
031B  02D4  	SUBWF FCD_LCDDis_00057_1_tmp_int, F
031C  08D5  	MOVF FCD_LCDDis_00057_1_tmp_int+D'1', F
031D  1C03  	BTFSS STATUS,C
031E  03D5  	DECF FCD_LCDDis_00057_1_tmp_int+D'1', F
031F  03D6  	DECF FCD_LCDDis_00057_1_tmp_byte, F
0320  2B16  	GOTO	label54
0321        label55
0321  0853  	MOVF FCD_LCDDis_00057_arg_Number+D'1', W
0322  3A80  	XORLW 0x80
0323  00D7  	MOVWF CompTempVar2205
0324  3080  	MOVLW 0x80
0325  0257  	SUBWF CompTempVar2205, W
0326  1D03  	BTFSS STATUS,Z
0327  2B2A  	GOTO	label56
0328  300A  	MOVLW 0x0A
0329  0252  	SUBWF FCD_LCDDis_00057_arg_Number, W
032A        label56
032A  1C03  	BTFSS STATUS,C
032B  2B56  	GOTO	label60
032C  01DC  	CLRF CompTempVar2207
032D  0854  	MOVF FCD_LCDDis_00057_1_tmp_int, W
032E  00D7  	MOVWF __div_16_1_00003_arg_a
032F  0855  	MOVF FCD_LCDDis_00057_1_tmp_int+D'1', W
0330  00D8  	MOVWF __div_16_1_00003_arg_a+D'1'
0331  1FD5  	BTFSS FCD_LCDDis_00057_1_tmp_int+D'1',7
0332  2B39  	GOTO	label57
0333  09D7  	COMF __div_16_1_00003_arg_a, F
0334  09D8  	COMF __div_16_1_00003_arg_a+D'1', F
0335  0AD7  	INCF __div_16_1_00003_arg_a, F
0336  1903  	BTFSC STATUS,Z
0337  0AD8  	INCF __div_16_1_00003_arg_a+D'1', F
0338  0ADC  	INCF CompTempVar2207, F
0339        label57
0339  300A  	MOVLW 0x0A
033A  00D9  	MOVWF __div_16_1_00003_arg_b
033B  01DA  	CLRF __div_16_1_00003_arg_b+D'1'
033C  205D  	CALL __div_16_1_00003
033D  0860  	MOVF CompTempVarRet214, W
033E  00DB  	MOVWF CompTempVar2206
033F  1C5C  	BTFSS CompTempVar2207,0
0340  2B43  	GOTO	label58
0341  09DB  	COMF CompTempVar2206, F
0342  0ADB  	INCF CompTempVar2206, F
0343        label58
0343  085B  	MOVF CompTempVar2206, W
0344  00D6  	MOVWF FCD_LCDDis_00057_1_tmp_byte
0345  0856  	MOVF FCD_LCDDis_00057_1_tmp_byte, W
0346  3E30  	ADDLW 0x30
0347  00E6  	MOVWF FCD_LCDDis_0006E_arg_in
0348  3010  	MOVLW 0x10
0349  00E7  	MOVWF FCD_LCDDis_0006E_arg_mask
034A  2096  	CALL FCD_LCDDis_0006E
034B        label59
034B  0856  	MOVF FCD_LCDDis_00057_1_tmp_byte, W
034C  3C00  	SUBLW 0x00
034D  1803  	BTFSC STATUS,C
034E  2B56  	GOTO	label60
034F  300A  	MOVLW 0x0A
0350  02D4  	SUBWF FCD_LCDDis_00057_1_tmp_int, F
0351  08D5  	MOVF FCD_LCDDis_00057_1_tmp_int+D'1', F
0352  1C03  	BTFSS STATUS,C
0353  03D5  	DECF FCD_LCDDis_00057_1_tmp_int+D'1', F
0354  03D6  	DECF FCD_LCDDis_00057_1_tmp_byte, F
0355  2B4B  	GOTO	label59
0356        label60
0356  0854  	MOVF FCD_LCDDis_00057_1_tmp_int, W
0357  3E30  	ADDLW 0x30
0358  00E6  	MOVWF FCD_LCDDis_0006E_arg_in
0359  3010  	MOVLW 0x10
035A  00E7  	MOVWF FCD_LCDDis_0006E_arg_mask
035B  2096  	CALL FCD_LCDDis_0006E
035C  0008  	RETURN
035D        ; } FCD_LCDDisplay0_PrintNumber function end

	ORG 0x0000035D
035D        FCD_LCDDis_00056
035D        ; { FCD_LCDDisplay0_Cursor ; function begin
035D  08D3  	MOVF FCD_LCDDis_00056_arg_y, F
035E  1D03  	BTFSS STATUS,Z
035F  2B63  	GOTO	label61
0360  3080  	MOVLW 0x80
0361  00D3  	MOVWF FCD_LCDDis_00056_arg_y
0362  2B72  	GOTO	label64
0363        label61
0363  0353  	DECF FCD_LCDDis_00056_arg_y, W
0364  1D03  	BTFSS STATUS,Z
0365  2B69  	GOTO	label62
0366  30C0  	MOVLW 0xC0
0367  00D3  	MOVWF FCD_LCDDis_00056_arg_y
0368  2B72  	GOTO	label64
0369        label62
0369  0853  	MOVF FCD_LCDDis_00056_arg_y, W
036A  3A02  	XORLW 0x02
036B  1D03  	BTFSS STATUS,Z
036C  2B70  	GOTO	label63
036D  3090  	MOVLW 0x90
036E  00D3  	MOVWF FCD_LCDDis_00056_arg_y
036F  2B72  	GOTO	label64
0370        label63
0370  30D0  	MOVLW 0xD0
0371  00D3  	MOVWF FCD_LCDDis_00056_arg_y
0372        label64
0372  0852  	MOVF FCD_LCDDis_00056_arg_x, W
0373  0753  	ADDWF FCD_LCDDis_00056_arg_y, W
0374  00E6  	MOVWF FCD_LCDDis_0006E_arg_in
0375  01E7  	CLRF FCD_LCDDis_0006E_arg_mask
0376  2096  	CALL FCD_LCDDis_0006E
0377  3002  	MOVLW 0x02
0378  00D4  	MOVWF Wdt_Delay__0003E_arg_delay
0379  207C  	CALL Wdt_Delay__0003E
037A  0008  	RETURN
037B        ; } FCD_LCDDisplay0_Cursor function end

	ORG 0x0000037B
037B        FC_CAL_SPI_00077
037B        ; { FC_CAL_SPI_Master_Init_1 ; function begin
037B  1683  	BSF STATUS, RP0
037C  1303  	BCF STATUS, RP1
037D  1287  	BCF gbl_trisc,5
037E  1283  	BCF STATUS, RP0
037F  1687  	BSF gbl_portc,5
0380  1683  	BSF STATUS, RP0
0381  1607  	BSF gbl_trisc,4
0382  1187  	BCF gbl_trisc,3
0383  1283  	BCF STATUS, RP0
0384  1187  	BCF gbl_portc,3
0385  3002  	MOVLW 0x02
0386  0094  	MOVWF gbl_sspcon
0387  1214  	BCF gbl_sspcon,4
0388  1683  	BSF STATUS, RP0
0389  1714  	BSF gbl_sspstat,6
038A  1794  	BSF gbl_sspstat,7
038B  1283  	BCF STATUS, RP0
038C  1694  	BSF gbl_sspcon,5
038D  0008  	RETURN
038E        ; } FC_CAL_SPI_Master_Init_1 function end

	ORG 0x0000038E
038E        FCM_show_s_00065
038E        ; { FCM_show_status ; function begin
038E  1683  	BSF STATUS, RP0
038F  1303  	BCF STATUS, RP1
0390  01D2  	CLRF FCD_LCDDis_00056_arg_x
0391  3003  	MOVLW 0x03
0392  00D3  	MOVWF FCD_LCDDis_00056_arg_y
0393  235D  	CALL FCD_LCDDis_00056
0394  083A  	MOVF gbl_FCV_REG07_STATUS, W
0395  00D2  	MOVWF FCD_LCDDis_00057_arg_Number
0396  01D3  	CLRF FCD_LCDDis_00057_arg_Number+D'1'
0397  226F  	CALL FCD_LCDDis_00057
0398  3003  	MOVLW 0x03
0399  00D2  	MOVWF FCD_LCDDis_00056_arg_x
039A  00D3  	MOVWF FCD_LCDDis_00056_arg_y
039B  235D  	CALL FCD_LCDDis_00056
039C  082F  	MOVF gbl_FCV_REG17_FIFO_STATUS, W
039D  00D2  	MOVWF FCD_LCDDis_00057_arg_Number
039E  01D3  	CLRF FCD_LCDDis_00057_arg_Number+D'1'
039F  226F  	CALL FCD_LCDDis_00057
03A0  0008  	RETURN
03A1        ; } FCM_show_status function end

	ORG 0x000003A1
03A1        FCM_set_tx_00060
03A1        ; { FCM_set_tx_addr ; function begin
03A1  30FB  	MOVLW 0xFB
03A2  1683  	BSF STATUS, RP0
03A3  1303  	BCF STATUS, RP1
03A4  0507  	ANDWF gbl_trisc, W
03A5  0087  	MOVWF gbl_trisc
03A6  30FB  	MOVLW 0xFB
03A7  1283  	BCF STATUS, RP0
03A8  0507  	ANDWF gbl_portc, W
03A9  0087  	MOVWF gbl_portc
03AA  3005  	MOVLW 0x05
03AB  1683  	BSF STATUS, RP0
03AC  00D2  	MOVWF delay_us_00000_arg_del
03AD  204A  	CALL delay_us_00000
03AE  3030  	MOVLW 0x30
03AF  00B0  	MOVWF gbl_FCV_SPI_DATA0
03B0  0830  	MOVF gbl_FCV_SPI_DATA0, W
03B1  00D2  	MOVWF FCD_SPI_Le_00053_arg_Char
03B2  2092  	CALL FCD_SPI_Le_00053
03B3  0850  	MOVF gbl_FCV_REG10_TX_ADDR_BYTE0, W
03B4  00B0  	MOVWF gbl_FCV_SPI_DATA0
03B5  0830  	MOVF gbl_FCV_SPI_DATA0, W
03B6  00D2  	MOVWF FCD_SPI_Le_00053_arg_Char
03B7  2092  	CALL FCD_SPI_Le_00053
03B8  0824  	MOVF gbl_FCV_REG10_TX_ADDR_BYTE1, W
03B9  00B0  	MOVWF gbl_FCV_SPI_DATA0
03BA  0830  	MOVF gbl_FCV_SPI_DATA0, W
03BB  00D2  	MOVWF FCD_SPI_Le_00053_arg_Char
03BC  2092  	CALL FCD_SPI_Le_00053
03BD  0827  	MOVF gbl_FCV_REG10_TX_ADDR_BYTE2, W
03BE  00B0  	MOVWF gbl_FCV_SPI_DATA0
03BF  0830  	MOVF gbl_FCV_SPI_DATA0, W
03C0  00D2  	MOVWF FCD_SPI_Le_00053_arg_Char
03C1  2092  	CALL FCD_SPI_Le_00053
03C2  082A  	MOVF gbl_FCV_REG10_TX_ADDR_BYTE3, W
03C3  00B0  	MOVWF gbl_FCV_SPI_DATA0
03C4  0830  	MOVF gbl_FCV_SPI_DATA0, W
03C5  00D2  	MOVWF FCD_SPI_Le_00053_arg_Char
03C6  2092  	CALL FCD_SPI_Le_00053
03C7  082B  	MOVF gbl_FCV_REG10_TX_ADDR_BYTE4, W
03C8  00B0  	MOVWF gbl_FCV_SPI_DATA0
03C9  0830  	MOVF gbl_FCV_SPI_DATA0, W
03CA  00D2  	MOVWF FCD_SPI_Le_00053_arg_Char
03CB  2092  	CALL FCD_SPI_Le_00053
03CC  30FB  	MOVLW 0xFB
03CD  0507  	ANDWF gbl_trisc, W
03CE  0087  	MOVWF gbl_trisc
03CF  30FB  	MOVLW 0xFB
03D0  1283  	BCF STATUS, RP0
03D1  0507  	ANDWF gbl_portc, W
03D2  1683  	BSF STATUS, RP0
03D3  00D2  	MOVWF CompTempVar2223
03D4  3004  	MOVLW 0x04
03D5  0452  	IORWF CompTempVar2223, W
03D6  1283  	BCF STATUS, RP0
03D7  0087  	MOVWF gbl_portc
03D8  3005  	MOVLW 0x05
03D9  1683  	BSF STATUS, RP0
03DA  00D2  	MOVWF delay_us_00000_arg_del
03DB  204A  	CALL delay_us_00000
03DC  0008  	RETURN
03DD        ; } FCM_set_tx_addr function end

	ORG 0x000003DD
03DD        FCM_set_rx_00061
03DD        ; { FCM_set_rx_addr ; function begin
03DD  30FB  	MOVLW 0xFB
03DE  1683  	BSF STATUS, RP0
03DF  1303  	BCF STATUS, RP1
03E0  0507  	ANDWF gbl_trisc, W
03E1  0087  	MOVWF gbl_trisc
03E2  30FB  	MOVLW 0xFB
03E3  1283  	BCF STATUS, RP0
03E4  0507  	ANDWF gbl_portc, W
03E5  0087  	MOVWF gbl_portc
03E6  3005  	MOVLW 0x05
03E7  1683  	BSF STATUS, RP0
03E8  00D2  	MOVWF delay_us_00000_arg_del
03E9  204A  	CALL delay_us_00000
03EA  302A  	MOVLW 0x2A
03EB  00B0  	MOVWF gbl_FCV_SPI_DATA0
03EC  0830  	MOVF gbl_FCV_SPI_DATA0, W
03ED  00D2  	MOVWF FCD_SPI_Le_00053_arg_Char
03EE  2092  	CALL FCD_SPI_Le_00053
03EF  0835  	MOVF gbl_FCV_REG0A_RX_ADDR_P0_BYTE0, W
03F0  00B0  	MOVWF gbl_FCV_SPI_DATA0
03F1  0830  	MOVF gbl_FCV_SPI_DATA0, W
03F2  00D2  	MOVWF FCD_SPI_Le_00053_arg_Char
03F3  2092  	CALL FCD_SPI_Le_00053
03F4  0838  	MOVF gbl_FCV_REG0A_RX_ADDR_P0_BYTE1, W
03F5  00B0  	MOVWF gbl_FCV_SPI_DATA0
03F6  0830  	MOVF gbl_FCV_SPI_DATA0, W
03F7  00D2  	MOVWF FCD_SPI_Le_00053_arg_Char
03F8  2092  	CALL FCD_SPI_Le_00053
03F9  083B  	MOVF gbl_FCV_REG0A_RX_ADDR_P0_BYTE2, W
03FA  00B0  	MOVWF gbl_FCV_SPI_DATA0
03FB  0830  	MOVF gbl_FCV_SPI_DATA0, W
03FC  00D2  	MOVWF FCD_SPI_Le_00053_arg_Char
03FD  2092  	CALL FCD_SPI_Le_00053
03FE  0840  	MOVF gbl_FCV_REG0A_RX_ADDR_P0_BYTE3, W
03FF  00B0  	MOVWF gbl_FCV_SPI_DATA0
0400  0830  	MOVF gbl_FCV_SPI_DATA0, W
0401  00D2  	MOVWF FCD_SPI_Le_00053_arg_Char
0402  2092  	CALL FCD_SPI_Le_00053
0403  0844  	MOVF gbl_FCV_REG0A_RX_ADDR_P0_BYTE4, W
0404  00B0  	MOVWF gbl_FCV_SPI_DATA0
0405  0830  	MOVF gbl_FCV_SPI_DATA0, W
0406  00D2  	MOVWF FCD_SPI_Le_00053_arg_Char
0407  2092  	CALL FCD_SPI_Le_00053
0408  30FB  	MOVLW 0xFB
0409  0507  	ANDWF gbl_trisc, W
040A  0087  	MOVWF gbl_trisc
040B  30FB  	MOVLW 0xFB
040C  1283  	BCF STATUS, RP0
040D  0507  	ANDWF gbl_portc, W
040E  1683  	BSF STATUS, RP0
040F  00D2  	MOVWF CompTempVar2224
0410  3004  	MOVLW 0x04
0411  0452  	IORWF CompTempVar2224, W
0412  1283  	BCF STATUS, RP0
0413  0087  	MOVWF gbl_portc
0414  3005  	MOVLW 0x05
0415  1683  	BSF STATUS, RP0
0416  00D2  	MOVWF delay_us_00000_arg_del
0417  204A  	CALL delay_us_00000
0418  0008  	RETURN
0419        ; } FCM_set_rx_addr function end

	ORG 0x00000419
0419        FCM_read_r_00069
0419        ; { FCM_read_recieved_data ; function begin
0419  1683  	BSF STATUS, RP0
041A  1303  	BCF STATUS, RP1
041B  01CB  	CLRF gbl_FCV_LOOP_COUNT
041C  01D4  	CLRF CompTempVar2243
041D  3000  	MOVLW HIGH(CompTempVar2243+D'0')
041E  00D3  	MOVWF FCI_SCOPY_00000_arg_sSrc+D'1'
041F  30D4  	MOVLW LOW(CompTempVar2243+D'0')
0420  00D2  	MOVWF FCI_SCOPY_00000_arg_sSrc
0421  01E5  	CLRF FCI_SCOPY_00000_arg_iSrc_len
0422  3000  	MOVLW HIGH(gbl_FCV_PAYLOAD_RECIEVE+D'0')
0423  00E7  	MOVWF FCI_SCOPY_00000_arg_sDst+D'1'
0424  3020  	MOVLW LOW(gbl_FCV_PAYLOAD_RECIEVE+D'0')
0425  00E6  	MOVWF FCI_SCOPY_00000_arg_sDst
0426  3010  	MOVLW 0x10
0427  00E8  	MOVWF FCI_SCOPY_00000_arg_iDst_len
0428  223B  	CALL FCI_SCOPY_00000
0429  30FB  	MOVLW 0xFB
042A  0507  	ANDWF gbl_trisc, W
042B  0087  	MOVWF gbl_trisc
042C  30FB  	MOVLW 0xFB
042D  1283  	BCF STATUS, RP0
042E  0507  	ANDWF gbl_portc, W
042F  0087  	MOVWF gbl_portc
0430  3005  	MOVLW 0x05
0431  1683  	BSF STATUS, RP0
0432  00D2  	MOVWF delay_us_00000_arg_del
0433  204A  	CALL delay_us_00000
0434  3061  	MOVLW 0x61
0435  00B0  	MOVWF gbl_FCV_SPI_DATA0
0436  0830  	MOVF gbl_FCV_SPI_DATA0, W
0437  00D2  	MOVWF FCD_SPI_Le_00053_arg_Char
0438  2092  	CALL FCD_SPI_Le_00053
0439        label65
0439  2087  	CALL FCD_SPI_Le_00054
043A  0853  	MOVF CompTempVarRet2189, W
043B  00B2  	MOVWF gbl_FCV_DATA_TO_READ
043C  3000  	MOVLW HIGH(gbl_FCV_PAYLOAD_RECIEVE+D'0')
043D  00D3  	MOVWF FCI_SHEAD_00000_arg_sSrc1+D'1'
043E  3020  	MOVLW LOW(gbl_FCV_PAYLOAD_RECIEVE+D'0')
043F  00D2  	MOVWF FCI_SHEAD_00000_arg_sSrc1
0440  3010  	MOVLW 0x10
0441  00D4  	MOVWF FCI_SHEAD_00000_arg_iSrc1_len
0442  3000  	MOVLW HIGH(gbl_FCV_DATA_TO_READ+D'0')
0443  00D6  	MOVWF FCI_SHEAD_00000_arg_sSrc2+D'1'
0444  30B2  	MOVLW LOW(gbl_FCV_DATA_TO_READ+D'0')
0445  00D5  	MOVWF FCI_SHEAD_00000_arg_sSrc2
0446  3001  	MOVLW 0x01
0447  00D7  	MOVWF FCI_SHEAD_00000_arg_iSrc2_len
0448  3000  	MOVLW HIGH(gbl_FCV_PAYLOAD_RECIEVE+D'0')
0449  00D9  	MOVWF FCI_SHEAD_00000_arg_sDst+D'1'
044A  3020  	MOVLW LOW(gbl_FCV_PAYLOAD_RECIEVE+D'0')
044B  00D8  	MOVWF FCI_SHEAD_00000_arg_sDst
044C  3010  	MOVLW 0x10
044D  00DA  	MOVWF FCI_SHEAD_00000_arg_iDst_len
044E  2125  	CALL FCI_SHEAD_00000
044F  0A4B  	INCF gbl_FCV_LOOP_COUNT, W
0450  00CB  	MOVWF gbl_FCV_LOOP_COUNT
0451  0849  	MOVF gbl_FCV_PAYLOADSIZE, W
0452  064B  	XORWF gbl_FCV_LOOP_COUNT, W
0453  1D03  	BTFSS STATUS,Z
0454  2C39  	GOTO	label65
0455  30FB  	MOVLW 0xFB
0456  0507  	ANDWF gbl_trisc, W
0457  0087  	MOVWF gbl_trisc
0458  30FB  	MOVLW 0xFB
0459  1283  	BCF STATUS, RP0
045A  0507  	ANDWF gbl_portc, W
045B  1683  	BSF STATUS, RP0
045C  00D2  	MOVWF CompTempVar2249
045D  3004  	MOVLW 0x04
045E  0452  	IORWF CompTempVar2249, W
045F  1283  	BCF STATUS, RP0
0460  0087  	MOVWF gbl_portc
0461  3005  	MOVLW 0x05
0462  1683  	BSF STATUS, RP0
0463  00D2  	MOVWF delay_us_00000_arg_del
0464  204A  	CALL delay_us_00000
0465  0008  	RETURN
0466        ; } FCM_read_recieved_data function end

	ORG 0x00000466
0466        FCM_flush__00062
0466        ; { FCM_flush_fifo_txrx ; function begin
0466  30FB  	MOVLW 0xFB
0467  1683  	BSF STATUS, RP0
0468  1303  	BCF STATUS, RP1
0469  0507  	ANDWF gbl_trisc, W
046A  0087  	MOVWF gbl_trisc
046B  30FB  	MOVLW 0xFB
046C  1283  	BCF STATUS, RP0
046D  0507  	ANDWF gbl_portc, W
046E  0087  	MOVWF gbl_portc
046F  3005  	MOVLW 0x05
0470  1683  	BSF STATUS, RP0
0471  00D2  	MOVWF delay_us_00000_arg_del
0472  204A  	CALL delay_us_00000
0473  30E1  	MOVLW 0xE1
0474  00B0  	MOVWF gbl_FCV_SPI_DATA0
0475  0830  	MOVF gbl_FCV_SPI_DATA0, W
0476  00D2  	MOVWF FCD_SPI_Le_00053_arg_Char
0477  2092  	CALL FCD_SPI_Le_00053
0478  30E2  	MOVLW 0xE2
0479  00B0  	MOVWF gbl_FCV_SPI_DATA0
047A  0830  	MOVF gbl_FCV_SPI_DATA0, W
047B  00D2  	MOVWF FCD_SPI_Le_00053_arg_Char
047C  2092  	CALL FCD_SPI_Le_00053
047D  30FB  	MOVLW 0xFB
047E  0507  	ANDWF gbl_trisc, W
047F  0087  	MOVWF gbl_trisc
0480  30FB  	MOVLW 0xFB
0481  1283  	BCF STATUS, RP0
0482  0507  	ANDWF gbl_portc, W
0483  1683  	BSF STATUS, RP0
0484  00D2  	MOVWF CompTempVar2225
0485  3004  	MOVLW 0x04
0486  0452  	IORWF CompTempVar2225, W
0487  1283  	BCF STATUS, RP0
0488  0087  	MOVWF gbl_portc
0489  3005  	MOVLW 0x05
048A  1683  	BSF STATUS, RP0
048B  00D2  	MOVWF delay_us_00000_arg_del
048C  204A  	CALL delay_us_00000
048D  0008  	RETURN
048E        ; } FCM_flush_fifo_txrx function end

	ORG 0x0000048E
048E        FCM_cmd_wr_0005F
048E        ; { FCM_cmd_write_reg ; function begin
048E  30FB  	MOVLW 0xFB
048F  1683  	BSF STATUS, RP0
0490  1303  	BCF STATUS, RP1
0491  0507  	ANDWF gbl_trisc, W
0492  0087  	MOVWF gbl_trisc
0493  30FB  	MOVLW 0xFB
0494  1283  	BCF STATUS, RP0
0495  0507  	ANDWF gbl_portc, W
0496  0087  	MOVWF gbl_portc
0497  3005  	MOVLW 0x05
0498  1683  	BSF STATUS, RP0
0499  00D2  	MOVWF delay_us_00000_arg_del
049A  204A  	CALL delay_us_00000
049B  3020  	MOVLW 0x20
049C  0743  	ADDWF gbl_FCV_REG_TO_WRITE, W
049D  00B0  	MOVWF gbl_FCV_SPI_DATA0
049E  0830  	MOVF gbl_FCV_SPI_DATA0, W
049F  00D2  	MOVWF FCD_SPI_Le_00053_arg_Char
04A0  2092  	CALL FCD_SPI_Le_00053
04A1  0823  	MOVF gbl_FCV_DATA_TO_WRITE, W
04A2  00B0  	MOVWF gbl_FCV_SPI_DATA0
04A3  0830  	MOVF gbl_FCV_SPI_DATA0, W
04A4  00D2  	MOVWF FCD_SPI_Le_00053_arg_Char
04A5  2092  	CALL FCD_SPI_Le_00053
04A6  30FB  	MOVLW 0xFB
04A7  0507  	ANDWF gbl_trisc, W
04A8  0087  	MOVWF gbl_trisc
04A9  30FB  	MOVLW 0xFB
04AA  1283  	BCF STATUS, RP0
04AB  0507  	ANDWF gbl_portc, W
04AC  1683  	BSF STATUS, RP0
04AD  00D2  	MOVWF CompTempVar2222
04AE  3004  	MOVLW 0x04
04AF  0452  	IORWF CompTempVar2222, W
04B0  1283  	BCF STATUS, RP0
04B1  0087  	MOVWF gbl_portc
04B2  3005  	MOVLW 0x05
04B3  1683  	BSF STATUS, RP0
04B4  00D2  	MOVWF delay_us_00000_arg_del
04B5  204A  	CALL delay_us_00000
04B6  0008  	RETURN
04B7        ; } FCM_cmd_write_reg function end

	ORG 0x000004B7
04B7        FCM_check__00064
04B7        ; { FCM_check_status ; function begin
04B7  3007  	MOVLW 0x07
04B8  1683  	BSF STATUS, RP0
04B9  1303  	BCF STATUS, RP1
04BA  00B0  	MOVWF gbl_FCV_SPI_DATA0
04BB  2101  	CALL FCM_cmd_re_00052
04BC  0831  	MOVF gbl_FCV_SPI_DATA1, W
04BD  00BA  	MOVWF gbl_FCV_REG07_STATUS
04BE  3017  	MOVLW 0x17
04BF  00B0  	MOVWF gbl_FCV_SPI_DATA0
04C0  2101  	CALL FCM_cmd_re_00052
04C1  0831  	MOVF gbl_FCV_SPI_DATA1, W
04C2  00AF  	MOVWF gbl_FCV_REG17_FIFO_STATUS
04C3  0008  	RETURN
04C4        ; } FCM_check_status function end

	ORG 0x000004C4
04C4        FCD_LCDDis_0005C
04C4        ; { FCD_LCDDisplay0_PrintString ; function begin
04C4  01E5  	CLRF FCD_LCDDis_0005C_1_idx
04C5  01E5  	CLRF FCD_LCDDis_0005C_1_idx
04C6        label66
04C6  0864  	MOVF FCD_LCDDis_0005C_arg_MSZ_String, W
04C7  0265  	SUBWF FCD_LCDDis_0005C_1_idx, W
04C8  1803  	BTFSC STATUS,C
04C9  0008  	RETURN
04CA  1383  	BCF STATUS,IRP
04CB  1853  	BTFSC FCD_LCDDis_0005C_arg_String+D'1',0
04CC  1783  	BSF STATUS,IRP
04CD  0852  	MOVF FCD_LCDDis_0005C_arg_String, W
04CE  0765  	ADDWF FCD_LCDDis_0005C_1_idx, W
04CF  0084  	MOVWF FSR
04D0  0880  	MOVF INDF, F
04D1  1903  	BTFSC STATUS,Z
04D2  0008  	RETURN
04D3  1383  	BCF STATUS,IRP
04D4  1853  	BTFSC FCD_LCDDis_0005C_arg_String+D'1',0
04D5  1783  	BSF STATUS,IRP
04D6  0852  	MOVF FCD_LCDDis_0005C_arg_String, W
04D7  0765  	ADDWF FCD_LCDDis_0005C_1_idx, W
04D8  0084  	MOVWF FSR
04D9  0800  	MOVF INDF, W
04DA  00E6  	MOVWF FCD_LCDDis_0006E_arg_in
04DB  3010  	MOVLW 0x10
04DC  00E7  	MOVWF FCD_LCDDis_0006E_arg_mask
04DD  2096  	CALL FCD_LCDDis_0006E
04DE  0AE5  	INCF FCD_LCDDis_0005C_1_idx, F
04DF  2CC6  	GOTO	label66
04E0        ; } FCD_LCDDisplay0_PrintString function end

	ORG 0x000004E0
04E0        FC_CAL_UAR_00085
04E0        ; { FC_CAL_UART_Init_1 ; function begin
04E0  1683  	BSF STATUS, RP0
04E1  1303  	BCF STATUS, RP1
04E2  1518  	BSF gbl_txsta,2
04E3  3081  	MOVLW 0x81
04E4  0099  	MOVWF gbl_spbrg
04E5  1283  	BCF STATUS, RP0
04E6  0198  	CLRF gbl_rcsta
04E7  1798  	BSF gbl_rcsta,7
04E8  1683  	BSF STATUS, RP0
04E9  1698  	BSF gbl_txsta,5
04EA  1283  	BCF STATUS, RP0
04EB  1618  	BSF gbl_rcsta,4
04EC  1683  	BSF STATUS, RP0
04ED  128C  	BCF gbl_pie1,5
04EE  0008  	RETURN
04EF        ; } FC_CAL_UART_Init_1 function end

	ORG 0x000004EF
04EF        FCM_tx_add_0006A
04EF        ; { FCM_tx_addr_to_string ; function begin
04EF  3000  	MOVLW HIGH(gbl_FCV_TX_ADDR+D'0')
04F0  1683  	BSF STATUS, RP0
04F1  1303  	BCF STATUS, RP1
04F2  00D3  	MOVWF FCI_SHEAD_00000_arg_sSrc1+D'1'
04F3  3050  	MOVLW LOW(gbl_FCV_TX_ADDR+D'0')
04F4  00D2  	MOVWF FCI_SHEAD_00000_arg_sSrc1
04F5  3010  	MOVLW 0x10
04F6  00D4  	MOVWF FCI_SHEAD_00000_arg_iSrc1_len
04F7  3000  	MOVLW HIGH(gbl_FCV_REG10_TX_ADDR_BYTE0+D'0')
04F8  00D6  	MOVWF FCI_SHEAD_00000_arg_sSrc2+D'1'
04F9  30D0  	MOVLW LOW(gbl_FCV_REG10_TX_ADDR_BYTE0+D'0')
04FA  00D5  	MOVWF FCI_SHEAD_00000_arg_sSrc2
04FB  3001  	MOVLW 0x01
04FC  00D7  	MOVWF FCI_SHEAD_00000_arg_iSrc2_len
04FD  3000  	MOVLW HIGH(gbl_FCV_TX_ADDR+D'0')
04FE  00D9  	MOVWF FCI_SHEAD_00000_arg_sDst+D'1'
04FF  3050  	MOVLW LOW(gbl_FCV_TX_ADDR+D'0')
0500  00D8  	MOVWF FCI_SHEAD_00000_arg_sDst
0501  3010  	MOVLW 0x10
0502  00DA  	MOVWF FCI_SHEAD_00000_arg_iDst_len
0503  2125  	CALL FCI_SHEAD_00000
0504  3000  	MOVLW HIGH(gbl_FCV_TX_ADDR+D'0')
0505  00D3  	MOVWF FCI_SHEAD_00000_arg_sSrc1+D'1'
0506  3050  	MOVLW LOW(gbl_FCV_TX_ADDR+D'0')
0507  00D2  	MOVWF FCI_SHEAD_00000_arg_sSrc1
0508  3010  	MOVLW 0x10
0509  00D4  	MOVWF FCI_SHEAD_00000_arg_iSrc1_len
050A  3000  	MOVLW HIGH(gbl_FCV_REG10_TX_ADDR_BYTE1+D'0')
050B  00D6  	MOVWF FCI_SHEAD_00000_arg_sSrc2+D'1'
050C  30A4  	MOVLW LOW(gbl_FCV_REG10_TX_ADDR_BYTE1+D'0')
050D  00D5  	MOVWF FCI_SHEAD_00000_arg_sSrc2
050E  3001  	MOVLW 0x01
050F  00D7  	MOVWF FCI_SHEAD_00000_arg_iSrc2_len
0510  3000  	MOVLW HIGH(gbl_FCV_TX_ADDR+D'0')
0511  00D9  	MOVWF FCI_SHEAD_00000_arg_sDst+D'1'
0512  3050  	MOVLW LOW(gbl_FCV_TX_ADDR+D'0')
0513  00D8  	MOVWF FCI_SHEAD_00000_arg_sDst
0514  3010  	MOVLW 0x10
0515  00DA  	MOVWF FCI_SHEAD_00000_arg_iDst_len
0516  2125  	CALL FCI_SHEAD_00000
0517  3000  	MOVLW HIGH(gbl_FCV_TX_ADDR+D'0')
0518  00D3  	MOVWF FCI_SHEAD_00000_arg_sSrc1+D'1'
0519  3050  	MOVLW LOW(gbl_FCV_TX_ADDR+D'0')
051A  00D2  	MOVWF FCI_SHEAD_00000_arg_sSrc1
051B  3010  	MOVLW 0x10
051C  00D4  	MOVWF FCI_SHEAD_00000_arg_iSrc1_len
051D  3000  	MOVLW HIGH(gbl_FCV_REG10_TX_ADDR_BYTE2+D'0')
051E  00D6  	MOVWF FCI_SHEAD_00000_arg_sSrc2+D'1'
051F  30A7  	MOVLW LOW(gbl_FCV_REG10_TX_ADDR_BYTE2+D'0')
0520  00D5  	MOVWF FCI_SHEAD_00000_arg_sSrc2
0521  3001  	MOVLW 0x01
0522  00D7  	MOVWF FCI_SHEAD_00000_arg_iSrc2_len
0523  3000  	MOVLW HIGH(gbl_FCV_TX_ADDR+D'0')
0524  00D9  	MOVWF FCI_SHEAD_00000_arg_sDst+D'1'
0525  3050  	MOVLW LOW(gbl_FCV_TX_ADDR+D'0')
0526  00D8  	MOVWF FCI_SHEAD_00000_arg_sDst
0527  3010  	MOVLW 0x10
0528  00DA  	MOVWF FCI_SHEAD_00000_arg_iDst_len
0529  2125  	CALL FCI_SHEAD_00000
052A  3000  	MOVLW HIGH(gbl_FCV_TX_ADDR+D'0')
052B  00D3  	MOVWF FCI_SHEAD_00000_arg_sSrc1+D'1'
052C  3050  	MOVLW LOW(gbl_FCV_TX_ADDR+D'0')
052D  00D2  	MOVWF FCI_SHEAD_00000_arg_sSrc1
052E  3010  	MOVLW 0x10
052F  00D4  	MOVWF FCI_SHEAD_00000_arg_iSrc1_len
0530  3000  	MOVLW HIGH(gbl_FCV_REG10_TX_ADDR_BYTE3+D'0')
0531  00D6  	MOVWF FCI_SHEAD_00000_arg_sSrc2+D'1'
0532  30AA  	MOVLW LOW(gbl_FCV_REG10_TX_ADDR_BYTE3+D'0')
0533  00D5  	MOVWF FCI_SHEAD_00000_arg_sSrc2
0534  3001  	MOVLW 0x01
0535  00D7  	MOVWF FCI_SHEAD_00000_arg_iSrc2_len
0536  3000  	MOVLW HIGH(gbl_FCV_TX_ADDR+D'0')
0537  00D9  	MOVWF FCI_SHEAD_00000_arg_sDst+D'1'
0538  3050  	MOVLW LOW(gbl_FCV_TX_ADDR+D'0')
0539  00D8  	MOVWF FCI_SHEAD_00000_arg_sDst
053A  3010  	MOVLW 0x10
053B  00DA  	MOVWF FCI_SHEAD_00000_arg_iDst_len
053C  2125  	CALL FCI_SHEAD_00000
053D  3000  	MOVLW HIGH(gbl_FCV_TX_ADDR+D'0')
053E  00D3  	MOVWF FCI_SHEAD_00000_arg_sSrc1+D'1'
053F  3050  	MOVLW LOW(gbl_FCV_TX_ADDR+D'0')
0540  00D2  	MOVWF FCI_SHEAD_00000_arg_sSrc1
0541  3010  	MOVLW 0x10
0542  00D4  	MOVWF FCI_SHEAD_00000_arg_iSrc1_len
0543  3000  	MOVLW HIGH(gbl_FCV_REG10_TX_ADDR_BYTE4+D'0')
0544  00D6  	MOVWF FCI_SHEAD_00000_arg_sSrc2+D'1'
0545  30AB  	MOVLW LOW(gbl_FCV_REG10_TX_ADDR_BYTE4+D'0')
0546  00D5  	MOVWF FCI_SHEAD_00000_arg_sSrc2
0547  3001  	MOVLW 0x01
0548  00D7  	MOVWF FCI_SHEAD_00000_arg_iSrc2_len
0549  3000  	MOVLW HIGH(gbl_FCV_TX_ADDR+D'0')
054A  00D9  	MOVWF FCI_SHEAD_00000_arg_sDst+D'1'
054B  3050  	MOVLW LOW(gbl_FCV_TX_ADDR+D'0')
054C  00D8  	MOVWF FCI_SHEAD_00000_arg_sDst
054D  3010  	MOVLW 0x10
054E  00DA  	MOVWF FCI_SHEAD_00000_arg_iDst_len
054F  2125  	CALL FCI_SHEAD_00000
0550  0008  	RETURN
0551        ; } FCM_tx_addr_to_string function end

	ORG 0x00000551
0551        FCM_rx_add_0006B
0551        ; { FCM_rx_addr_to_string ; function begin
0551  3000  	MOVLW HIGH(gbl_FCV_RX_ADDR+D'0')
0552  1683  	BSF STATUS, RP0
0553  1303  	BCF STATUS, RP1
0554  00D3  	MOVWF FCI_SHEAD_00000_arg_sSrc1+D'1'
0555  3040  	MOVLW LOW(gbl_FCV_RX_ADDR+D'0')
0556  00D2  	MOVWF FCI_SHEAD_00000_arg_sSrc1
0557  3010  	MOVLW 0x10
0558  00D4  	MOVWF FCI_SHEAD_00000_arg_iSrc1_len
0559  3000  	MOVLW HIGH(gbl_FCV_REG0A_RX_ADDR_P0_BYTE0+D'0')
055A  00D6  	MOVWF FCI_SHEAD_00000_arg_sSrc2+D'1'
055B  30B5  	MOVLW LOW(gbl_FCV_REG0A_RX_ADDR_P0_BYTE0+D'0')
055C  00D5  	MOVWF FCI_SHEAD_00000_arg_sSrc2
055D  3001  	MOVLW 0x01
055E  00D7  	MOVWF FCI_SHEAD_00000_arg_iSrc2_len
055F  3000  	MOVLW HIGH(gbl_FCV_RX_ADDR+D'0')
0560  00D9  	MOVWF FCI_SHEAD_00000_arg_sDst+D'1'
0561  3040  	MOVLW LOW(gbl_FCV_RX_ADDR+D'0')
0562  00D8  	MOVWF FCI_SHEAD_00000_arg_sDst
0563  3010  	MOVLW 0x10
0564  00DA  	MOVWF FCI_SHEAD_00000_arg_iDst_len
0565  2125  	CALL FCI_SHEAD_00000
0566  3000  	MOVLW HIGH(gbl_FCV_RX_ADDR+D'0')
0567  00D3  	MOVWF FCI_SHEAD_00000_arg_sSrc1+D'1'
0568  3040  	MOVLW LOW(gbl_FCV_RX_ADDR+D'0')
0569  00D2  	MOVWF FCI_SHEAD_00000_arg_sSrc1
056A  3010  	MOVLW 0x10
056B  00D4  	MOVWF FCI_SHEAD_00000_arg_iSrc1_len
056C  3000  	MOVLW HIGH(gbl_FCV_REG0A_RX_ADDR_P0_BYTE1+D'0')
056D  00D6  	MOVWF FCI_SHEAD_00000_arg_sSrc2+D'1'
056E  30B8  	MOVLW LOW(gbl_FCV_REG0A_RX_ADDR_P0_BYTE1+D'0')
056F  00D5  	MOVWF FCI_SHEAD_00000_arg_sSrc2
0570  3001  	MOVLW 0x01
0571  00D7  	MOVWF FCI_SHEAD_00000_arg_iSrc2_len
0572  3000  	MOVLW HIGH(gbl_FCV_RX_ADDR+D'0')
0573  00D9  	MOVWF FCI_SHEAD_00000_arg_sDst+D'1'
0574  3040  	MOVLW LOW(gbl_FCV_RX_ADDR+D'0')
0575  00D8  	MOVWF FCI_SHEAD_00000_arg_sDst
0576  3010  	MOVLW 0x10
0577  00DA  	MOVWF FCI_SHEAD_00000_arg_iDst_len
0578  2125  	CALL FCI_SHEAD_00000
0579  3000  	MOVLW HIGH(gbl_FCV_RX_ADDR+D'0')
057A  00D3  	MOVWF FCI_SHEAD_00000_arg_sSrc1+D'1'
057B  3040  	MOVLW LOW(gbl_FCV_RX_ADDR+D'0')
057C  00D2  	MOVWF FCI_SHEAD_00000_arg_sSrc1
057D  3010  	MOVLW 0x10
057E  00D4  	MOVWF FCI_SHEAD_00000_arg_iSrc1_len
057F  3000  	MOVLW HIGH(gbl_FCV_REG0A_RX_ADDR_P0_BYTE2+D'0')
0580  00D6  	MOVWF FCI_SHEAD_00000_arg_sSrc2+D'1'
0581  30BB  	MOVLW LOW(gbl_FCV_REG0A_RX_ADDR_P0_BYTE2+D'0')
0582  00D5  	MOVWF FCI_SHEAD_00000_arg_sSrc2
0583  3001  	MOVLW 0x01
0584  00D7  	MOVWF FCI_SHEAD_00000_arg_iSrc2_len
0585  3000  	MOVLW HIGH(gbl_FCV_RX_ADDR+D'0')
0586  00D9  	MOVWF FCI_SHEAD_00000_arg_sDst+D'1'
0587  3040  	MOVLW LOW(gbl_FCV_RX_ADDR+D'0')
0588  00D8  	MOVWF FCI_SHEAD_00000_arg_sDst
0589  3010  	MOVLW 0x10
058A  00DA  	MOVWF FCI_SHEAD_00000_arg_iDst_len
058B  2125  	CALL FCI_SHEAD_00000
058C  3000  	MOVLW HIGH(gbl_FCV_RX_ADDR+D'0')
058D  00D3  	MOVWF FCI_SHEAD_00000_arg_sSrc1+D'1'
058E  3040  	MOVLW LOW(gbl_FCV_RX_ADDR+D'0')
058F  00D2  	MOVWF FCI_SHEAD_00000_arg_sSrc1
0590  3010  	MOVLW 0x10
0591  00D4  	MOVWF FCI_SHEAD_00000_arg_iSrc1_len
0592  3000  	MOVLW HIGH(gbl_FCV_REG0A_RX_ADDR_P0_BYTE3+D'0')
0593  00D6  	MOVWF FCI_SHEAD_00000_arg_sSrc2+D'1'
0594  30C0  	MOVLW LOW(gbl_FCV_REG0A_RX_ADDR_P0_BYTE3+D'0')
0595  00D5  	MOVWF FCI_SHEAD_00000_arg_sSrc2
0596  3001  	MOVLW 0x01
0597  00D7  	MOVWF FCI_SHEAD_00000_arg_iSrc2_len
0598  3000  	MOVLW HIGH(gbl_FCV_RX_ADDR+D'0')
0599  00D9  	MOVWF FCI_SHEAD_00000_arg_sDst+D'1'
059A  3040  	MOVLW LOW(gbl_FCV_RX_ADDR+D'0')
059B  00D8  	MOVWF FCI_SHEAD_00000_arg_sDst
059C  3010  	MOVLW 0x10
059D  00DA  	MOVWF FCI_SHEAD_00000_arg_iDst_len
059E  2125  	CALL FCI_SHEAD_00000
059F  3000  	MOVLW HIGH(gbl_FCV_RX_ADDR+D'0')
05A0  00D3  	MOVWF FCI_SHEAD_00000_arg_sSrc1+D'1'
05A1  3040  	MOVLW LOW(gbl_FCV_RX_ADDR+D'0')
05A2  00D2  	MOVWF FCI_SHEAD_00000_arg_sSrc1
05A3  3010  	MOVLW 0x10
05A4  00D4  	MOVWF FCI_SHEAD_00000_arg_iSrc1_len
05A5  3000  	MOVLW HIGH(gbl_FCV_REG0A_RX_ADDR_P0_BYTE4+D'0')
05A6  00D6  	MOVWF FCI_SHEAD_00000_arg_sSrc2+D'1'
05A7  30C4  	MOVLW LOW(gbl_FCV_REG0A_RX_ADDR_P0_BYTE4+D'0')
05A8  00D5  	MOVWF FCI_SHEAD_00000_arg_sSrc2
05A9  3001  	MOVLW 0x01
05AA  00D7  	MOVWF FCI_SHEAD_00000_arg_iSrc2_len
05AB  3000  	MOVLW HIGH(gbl_FCV_RX_ADDR+D'0')
05AC  00D9  	MOVWF FCI_SHEAD_00000_arg_sDst+D'1'
05AD  3040  	MOVLW LOW(gbl_FCV_RX_ADDR+D'0')
05AE  00D8  	MOVWF FCI_SHEAD_00000_arg_sDst
05AF  3010  	MOVLW 0x10
05B0  00DA  	MOVWF FCI_SHEAD_00000_arg_iDst_len
05B1  2125  	CALL FCI_SHEAD_00000
05B2  0008  	RETURN
05B3        ; } FCM_rx_addr_to_string function end

	ORG 0x000005B3
05B3        FCM_radio__00068
05B3        ; { FCM_radio_recieve_data ; function begin
05B3  3004  	MOVLW 0x04
05B4  1683  	BSF STATUS, RP0
05B5  1303  	BCF STATUS, RP1
05B6  00D6  	MOVWF delay_ms_00000_arg_del
05B7  2010  	CALL delay_ms_00000
05B8  24B7  	CALL FCM_check__00064
05B9  238E  	CALL FCM_show_s_00065
05BA  083A  	MOVF gbl_FCV_REG07_STATUS, W
05BB  3A40  	XORLW 0x40
05BC  1D03  	BTFSS STATUS,Z
05BD  2DF5  	GOTO	label67
05BE  30DF  	MOVLW 0xDF
05BF  0505  	ANDWF gbl_trisa, W
05C0  0085  	MOVWF gbl_trisa
05C1  30DF  	MOVLW 0xDF
05C2  1283  	BCF STATUS, RP0
05C3  0505  	ANDWF gbl_porta, W
05C4  1683  	BSF STATUS, RP0
05C5  00D2  	MOVWF CompTempVar2235
05C6  3020  	MOVLW 0x20
05C7  0452  	IORWF CompTempVar2235, W
05C8  1283  	BCF STATUS, RP0
05C9  0085  	MOVWF gbl_porta
05CA  1683  	BSF STATUS, RP0
05CB  01D2  	CLRF FCD_LCDDis_00056_arg_x
05CC  01D3  	CLRF FCD_LCDDis_00056_arg_y
05CD  235D  	CALL FCD_LCDDis_00056
05CE  3020  	MOVLW 0x20
05CF  00D8  	MOVWF CompTempVar2236+D'4'
05D0  3021  	MOVLW 0x21
05D1  00E1  	MOVWF CompTempVar2236+D'13'
05D2  3041  	MOVLW 0x41
05D3  00D5  	MOVWF CompTempVar2236+D'1'
05D4  00D7  	MOVWF CompTempVar2236+D'3'
05D5  3043  	MOVLW 0x43
05D6  00DB  	MOVWF CompTempVar2236+D'7'
05D7  3044  	MOVLW 0x44
05D8  00D4  	MOVWF CompTempVar2236
05D9  00E0  	MOVWF CompTempVar2236+D'12'
05DA  3045  	MOVLW 0x45
05DB  00DA  	MOVWF CompTempVar2236+D'6'
05DC  00DD  	MOVWF CompTempVar2236+D'9'
05DD  00DF  	MOVWF CompTempVar2236+D'11'
05DE  3049  	MOVLW 0x49
05DF  00DC  	MOVWF CompTempVar2236+D'8'
05E0  3052  	MOVLW 0x52
05E1  00D9  	MOVWF CompTempVar2236+D'5'
05E2  3054  	MOVLW 0x54
05E3  00D6  	MOVWF CompTempVar2236+D'2'
05E4  3056  	MOVLW 0x56
05E5  00DE  	MOVWF CompTempVar2236+D'10'
05E6  01E2  	CLRF CompTempVar2236+D'14'
05E7  3000  	MOVLW HIGH(CompTempVar2236+D'0')
05E8  00D3  	MOVWF FCD_LCDDis_0005C_arg_String+D'1'
05E9  30D4  	MOVLW LOW(CompTempVar2236+D'0')
05EA  00D2  	MOVWF FCD_LCDDis_0005C_arg_String
05EB  300E  	MOVLW 0x0E
05EC  00E4  	MOVWF FCD_LCDDis_0005C_arg_MSZ_String
05ED  24C4  	CALL FCD_LCDDis_0005C
05EE  2419  	CALL FCM_read_r_00069
05EF  3007  	MOVLW 0x07
05F0  00C3  	MOVWF gbl_FCV_REG_TO_WRITE
05F1  304E  	MOVLW 0x4E
05F2  00A3  	MOVWF gbl_FCV_DATA_TO_WRITE
05F3  248E  	CALL FCM_cmd_wr_0005F
05F4  2E2D  	GOTO	label68
05F5        label67
05F5  30DF  	MOVLW 0xDF
05F6  0505  	ANDWF gbl_trisa, W
05F7  0085  	MOVWF gbl_trisa
05F8  30DF  	MOVLW 0xDF
05F9  1283  	BCF STATUS, RP0
05FA  0505  	ANDWF gbl_porta, W
05FB  0085  	MOVWF gbl_porta
05FC  1683  	BSF STATUS, RP0
05FD  01D2  	CLRF FCD_LCDDis_00056_arg_x
05FE  01D3  	CLRF FCD_LCDDis_00056_arg_y
05FF  235D  	CALL FCD_LCDDis_00056
0600  3020  	MOVLW 0x20
0601  00D6  	MOVWF CompTempVar2238+D'2'
0602  00D9  	MOVWF CompTempVar2238+D'5'
0603  3021  	MOVLW 0x21
0604  00E2  	MOVWF CompTempVar2238+D'14'
0605  3043  	MOVLW 0x43
0606  00DE  	MOVWF CompTempVar2238+D'10'
0607  3044  	MOVLW 0x44
0608  00DA  	MOVWF CompTempVar2238+D'6'
0609  00E1  	MOVWF CompTempVar2238+D'13'
060A  3045  	MOVLW 0x45
060B  00DB  	MOVWF CompTempVar2238+D'7'
060C  00DD  	MOVWF CompTempVar2238+D'9'
060D  00E0  	MOVWF CompTempVar2238+D'12'
060E  304E  	MOVLW 0x4E
060F  00D4  	MOVWF CompTempVar2238
0610  304F  	MOVLW 0x4F
0611  00D5  	MOVWF CompTempVar2238+D'1'
0612  3054  	MOVLW 0x54
0613  00D7  	MOVWF CompTempVar2238+D'3'
0614  00DC  	MOVWF CompTempVar2238+D'8'
0615  00DF  	MOVWF CompTempVar2238+D'11'
0616  3058  	MOVLW 0x58
0617  00D8  	MOVWF CompTempVar2238+D'4'
0618  01E3  	CLRF CompTempVar2238+D'15'
0619  3000  	MOVLW HIGH(CompTempVar2238+D'0')
061A  00D3  	MOVWF FCD_LCDDis_0005C_arg_String+D'1'
061B  30D4  	MOVLW LOW(CompTempVar2238+D'0')
061C  00D2  	MOVWF FCD_LCDDis_0005C_arg_String
061D  300F  	MOVLW 0x0F
061E  00E4  	MOVWF FCD_LCDDis_0005C_arg_MSZ_String
061F  24C4  	CALL FCD_LCDDis_0005C
0620  01D4  	CLRF CompTempVar2240
0621  3000  	MOVLW HIGH(CompTempVar2240+D'0')
0622  00D3  	MOVWF FCI_SCOPY_00000_arg_sSrc+D'1'
0623  30D4  	MOVLW LOW(CompTempVar2240+D'0')
0624  00D2  	MOVWF FCI_SCOPY_00000_arg_sSrc
0625  01E5  	CLRF FCI_SCOPY_00000_arg_iSrc_len
0626  3000  	MOVLW HIGH(gbl_FCV_PAYLOAD_RECIEVE+D'0')
0627  00E7  	MOVWF FCI_SCOPY_00000_arg_sDst+D'1'
0628  3020  	MOVLW LOW(gbl_FCV_PAYLOAD_RECIEVE+D'0')
0629  00E6  	MOVWF FCI_SCOPY_00000_arg_sDst
062A  3010  	MOVLW 0x10
062B  00E8  	MOVWF FCI_SCOPY_00000_arg_iDst_len
062C  223B  	CALL FCI_SCOPY_00000
062D        label68
062D  2466  	CALL FCM_flush__00062
062E  0008  	RETURN
062F        ; } FCM_radio_recieve_data function end

	ORG 0x0000062F
062F        FCM_nrf_rx_00067
062F        ; { FCM_nrf_rx_init ; function begin
062F  300F  	MOVLW 0x0F
0630  1683  	BSF STATUS, RP0
0631  1303  	BCF STATUS, RP1
0632  0405  	IORWF gbl_trisa, W
0633  0085  	MOVWF gbl_trisa
0634  300F  	MOVLW 0x0F
0635  1283  	BCF STATUS, RP0
0636  0505  	ANDWF gbl_porta, W
0637  1683  	BSF STATUS, RP0
0638  00C4  	MOVWF gbl_FCV_REG0A_RX_ADDR_P0_BYTE4
0639  3030  	MOVLW 0x30
063A  0744  	ADDWF gbl_FCV_REG0A_RX_ADDR_P0_BYTE4, W
063B  00C4  	MOVWF gbl_FCV_REG0A_RX_ADDR_P0_BYTE4
063C  0844  	MOVF gbl_FCV_REG0A_RX_ADDR_P0_BYTE4, W
063D  00AB  	MOVWF gbl_FCV_REG10_TX_ADDR_BYTE4
063E  3030  	MOVLW 0x30
063F  00D0  	MOVWF gbl_FCV_REG10_TX_ADDR_BYTE0
0640  00A4  	MOVWF gbl_FCV_REG10_TX_ADDR_BYTE1
0641  00A7  	MOVWF gbl_FCV_REG10_TX_ADDR_BYTE2
0642  00AA  	MOVWF gbl_FCV_REG10_TX_ADDR_BYTE3
0643  00B5  	MOVWF gbl_FCV_REG0A_RX_ADDR_P0_BYTE0
0644  00B8  	MOVWF gbl_FCV_REG0A_RX_ADDR_P0_BYTE1
0645  00BB  	MOVWF gbl_FCV_REG0A_RX_ADDR_P0_BYTE2
0646  00C0  	MOVWF gbl_FCV_REG0A_RX_ADDR_P0_BYTE3
0647  01C3  	CLRF gbl_FCV_REG_TO_WRITE
0648  300F  	MOVLW 0x0F
0649  00A3  	MOVWF gbl_FCV_DATA_TO_WRITE
064A  248E  	CALL FCM_cmd_wr_0005F
064B  3001  	MOVLW 0x01
064C  00C3  	MOVWF gbl_FCV_REG_TO_WRITE
064D  303F  	MOVLW 0x3F
064E  00A3  	MOVWF gbl_FCV_DATA_TO_WRITE
064F  248E  	CALL FCM_cmd_wr_0005F
0650  3002  	MOVLW 0x02
0651  00C3  	MOVWF gbl_FCV_REG_TO_WRITE
0652  3003  	MOVLW 0x03
0653  00A3  	MOVWF gbl_FCV_DATA_TO_WRITE
0654  248E  	CALL FCM_cmd_wr_0005F
0655  3003  	MOVLW 0x03
0656  00C3  	MOVWF gbl_FCV_REG_TO_WRITE
0657  00A3  	MOVWF gbl_FCV_DATA_TO_WRITE
0658  248E  	CALL FCM_cmd_wr_0005F
0659  3004  	MOVLW 0x04
065A  00C3  	MOVWF gbl_FCV_REG_TO_WRITE
065B  305F  	MOVLW 0x5F
065C  00A3  	MOVWF gbl_FCV_DATA_TO_WRITE
065D  248E  	CALL FCM_cmd_wr_0005F
065E  3005  	MOVLW 0x05
065F  00C3  	MOVWF gbl_FCV_REG_TO_WRITE
0660  304C  	MOVLW 0x4C
0661  00A3  	MOVWF gbl_FCV_DATA_TO_WRITE
0662  248E  	CALL FCM_cmd_wr_0005F
0663  3006  	MOVLW 0x06
0664  00C3  	MOVWF gbl_FCV_REG_TO_WRITE
0665  3027  	MOVLW 0x27
0666  00A3  	MOVWF gbl_FCV_DATA_TO_WRITE
0667  248E  	CALL FCM_cmd_wr_0005F
0668  3011  	MOVLW 0x11
0669  00C3  	MOVWF gbl_FCV_REG_TO_WRITE
066A  0849  	MOVF gbl_FCV_PAYLOADSIZE, W
066B  00A3  	MOVWF gbl_FCV_DATA_TO_WRITE
066C  248E  	CALL FCM_cmd_wr_0005F
066D  23A1  	CALL FCM_set_tx_00060
066E  23DD  	CALL FCM_set_rx_00061
066F  2466  	CALL FCM_flush__00062
0670  0008  	RETURN
0671        ; } FCM_nrf_rx_init function end

	ORG 0x00000671
0671        FCM_disp_d_0006C
0671        ; { FCM_disp_datarx ; function begin
0671  1683  	BSF STATUS, RP0
0672  1303  	BCF STATUS, RP1
0673  01D2  	CLRF FCD_LCDDis_00056_arg_x
0674  3002  	MOVLW 0x02
0675  00D3  	MOVWF FCD_LCDDis_00056_arg_y
0676  235D  	CALL FCD_LCDDis_00056
0677  3000  	MOVLW HIGH(gbl_FCV_PAYLOAD_RECIEVE+D'0')
0678  00D3  	MOVWF FCD_LCDDis_0005C_arg_String+D'1'
0679  3020  	MOVLW LOW(gbl_FCV_PAYLOAD_RECIEVE+D'0')
067A  00D2  	MOVWF FCD_LCDDis_0005C_arg_String
067B  3010  	MOVLW 0x10
067C  00E4  	MOVWF FCD_LCDDis_0005C_arg_MSZ_String
067D  24C4  	CALL FCD_LCDDis_0005C
067E  0008  	RETURN
067F        ; } FCM_disp_datarx function end

	ORG 0x0000067F
067F        FCM_cmd_re_0005B
067F        ; { FCM_cmd_read_rx_addr ; function begin
067F  300A  	MOVLW 0x0A
0680  1683  	BSF STATUS, RP0
0681  1303  	BCF STATUS, RP1
0682  00B0  	MOVWF gbl_FCV_SPI_DATA0
0683  30FB  	MOVLW 0xFB
0684  0507  	ANDWF gbl_trisc, W
0685  0087  	MOVWF gbl_trisc
0686  30FB  	MOVLW 0xFB
0687  1283  	BCF STATUS, RP0
0688  0507  	ANDWF gbl_portc, W
0689  0087  	MOVWF gbl_portc
068A  3005  	MOVLW 0x05
068B  1683  	BSF STATUS, RP0
068C  00D2  	MOVWF delay_us_00000_arg_del
068D  204A  	CALL delay_us_00000
068E  0830  	MOVF gbl_FCV_SPI_DATA0, W
068F  00D2  	MOVWF FCD_SPI_Le_00053_arg_Char
0690  2092  	CALL FCD_SPI_Le_00053
0691  2087  	CALL FCD_SPI_Le_00054
0692  0853  	MOVF CompTempVarRet2189, W
0693  00B1  	MOVWF gbl_FCV_SPI_DATA1
0694  0831  	MOVF gbl_FCV_SPI_DATA1, W
0695  00B5  	MOVWF gbl_FCV_REG0A_RX_ADDR_P0_BYTE0
0696  2087  	CALL FCD_SPI_Le_00054
0697  0853  	MOVF CompTempVarRet2189, W
0698  00B1  	MOVWF gbl_FCV_SPI_DATA1
0699  0831  	MOVF gbl_FCV_SPI_DATA1, W
069A  00B8  	MOVWF gbl_FCV_REG0A_RX_ADDR_P0_BYTE1
069B  2087  	CALL FCD_SPI_Le_00054
069C  0853  	MOVF CompTempVarRet2189, W
069D  00B1  	MOVWF gbl_FCV_SPI_DATA1
069E  0831  	MOVF gbl_FCV_SPI_DATA1, W
069F  00BB  	MOVWF gbl_FCV_REG0A_RX_ADDR_P0_BYTE2
06A0  2087  	CALL FCD_SPI_Le_00054
06A1  0853  	MOVF CompTempVarRet2189, W
06A2  00B1  	MOVWF gbl_FCV_SPI_DATA1
06A3  0831  	MOVF gbl_FCV_SPI_DATA1, W
06A4  00C0  	MOVWF gbl_FCV_REG0A_RX_ADDR_P0_BYTE3
06A5  2087  	CALL FCD_SPI_Le_00054
06A6  0853  	MOVF CompTempVarRet2189, W
06A7  00B1  	MOVWF gbl_FCV_SPI_DATA1
06A8  0831  	MOVF gbl_FCV_SPI_DATA1, W
06A9  00C4  	MOVWF gbl_FCV_REG0A_RX_ADDR_P0_BYTE4
06AA  30FB  	MOVLW 0xFB
06AB  0507  	ANDWF gbl_trisc, W
06AC  0087  	MOVWF gbl_trisc
06AD  30FB  	MOVLW 0xFB
06AE  1283  	BCF STATUS, RP0
06AF  0507  	ANDWF gbl_portc, W
06B0  1683  	BSF STATUS, RP0
06B1  00D2  	MOVWF CompTempVar2217
06B2  3004  	MOVLW 0x04
06B3  0452  	IORWF CompTempVar2217, W
06B4  1283  	BCF STATUS, RP0
06B5  0087  	MOVWF gbl_portc
06B6  3005  	MOVLW 0x05
06B7  1683  	BSF STATUS, RP0
06B8  00D2  	MOVWF delay_us_00000_arg_del
06B9  204A  	CALL delay_us_00000
06BA  0008  	RETURN
06BB        ; } FCM_cmd_read_rx_addr function end

	ORG 0x000006BB
06BB        FCM_cmd_re_0005A
06BB        ; { FCM_cmd_read_tx_addr ; function begin
06BB  3010  	MOVLW 0x10
06BC  1683  	BSF STATUS, RP0
06BD  1303  	BCF STATUS, RP1
06BE  00B0  	MOVWF gbl_FCV_SPI_DATA0
06BF  30FB  	MOVLW 0xFB
06C0  0507  	ANDWF gbl_trisc, W
06C1  0087  	MOVWF gbl_trisc
06C2  30FB  	MOVLW 0xFB
06C3  1283  	BCF STATUS, RP0
06C4  0507  	ANDWF gbl_portc, W
06C5  0087  	MOVWF gbl_portc
06C6  3005  	MOVLW 0x05
06C7  1683  	BSF STATUS, RP0
06C8  00D2  	MOVWF delay_us_00000_arg_del
06C9  204A  	CALL delay_us_00000
06CA  0830  	MOVF gbl_FCV_SPI_DATA0, W
06CB  00D2  	MOVWF FCD_SPI_Le_00053_arg_Char
06CC  2092  	CALL FCD_SPI_Le_00053
06CD  2087  	CALL FCD_SPI_Le_00054
06CE  0853  	MOVF CompTempVarRet2189, W
06CF  00B1  	MOVWF gbl_FCV_SPI_DATA1
06D0  0831  	MOVF gbl_FCV_SPI_DATA1, W
06D1  00D0  	MOVWF gbl_FCV_REG10_TX_ADDR_BYTE0
06D2  2087  	CALL FCD_SPI_Le_00054
06D3  0853  	MOVF CompTempVarRet2189, W
06D4  00B1  	MOVWF gbl_FCV_SPI_DATA1
06D5  0831  	MOVF gbl_FCV_SPI_DATA1, W
06D6  00A4  	MOVWF gbl_FCV_REG10_TX_ADDR_BYTE1
06D7  2087  	CALL FCD_SPI_Le_00054
06D8  0853  	MOVF CompTempVarRet2189, W
06D9  00B1  	MOVWF gbl_FCV_SPI_DATA1
06DA  0831  	MOVF gbl_FCV_SPI_DATA1, W
06DB  00A7  	MOVWF gbl_FCV_REG10_TX_ADDR_BYTE2
06DC  2087  	CALL FCD_SPI_Le_00054
06DD  0853  	MOVF CompTempVarRet2189, W
06DE  00B1  	MOVWF gbl_FCV_SPI_DATA1
06DF  0831  	MOVF gbl_FCV_SPI_DATA1, W
06E0  00AA  	MOVWF gbl_FCV_REG10_TX_ADDR_BYTE3
06E1  2087  	CALL FCD_SPI_Le_00054
06E2  0853  	MOVF CompTempVarRet2189, W
06E3  00B1  	MOVWF gbl_FCV_SPI_DATA1
06E4  0831  	MOVF gbl_FCV_SPI_DATA1, W
06E5  00AB  	MOVWF gbl_FCV_REG10_TX_ADDR_BYTE4
06E6  30FB  	MOVLW 0xFB
06E7  0507  	ANDWF gbl_trisc, W
06E8  0087  	MOVWF gbl_trisc
06E9  30FB  	MOVLW 0xFB
06EA  1283  	BCF STATUS, RP0
06EB  0507  	ANDWF gbl_portc, W
06EC  1683  	BSF STATUS, RP0
06ED  00D2  	MOVWF CompTempVar2216
06EE  3004  	MOVLW 0x04
06EF  0452  	IORWF CompTempVar2216, W
06F0  1283  	BCF STATUS, RP0
06F1  0087  	MOVWF gbl_portc
06F2  3005  	MOVLW 0x05
06F3  1683  	BSF STATUS, RP0
06F4  00D2  	MOVWF delay_us_00000_arg_del
06F5  204A  	CALL delay_us_00000
06F6  0008  	RETURN
06F7        ; } FCM_cmd_read_tx_addr function end

	ORG 0x000006F7
06F7        FCD_SPI_Le_0007A
06F7        ; { FCD_SPI_Legacy0_SPI_Init ; function begin
06F7  1683  	BSF STATUS, RP0
06F8  1303  	BCF STATUS, RP1
06F9  1005  	BCF gbl_trisa,0
06FA  1283  	BCF STATUS, RP0
06FB  1405  	BSF gbl_porta,0
06FC  1683  	BSF STATUS, RP0
06FD  1005  	BCF gbl_trisa,0
06FE  1283  	BCF STATUS, RP0
06FF  1405  	BSF gbl_porta,0
0700  237B  	CALL FC_CAL_SPI_00077
0701  0008  	RETURN
0702        ; } FCD_SPI_Legacy0_SPI_Init function end

	ORG 0x00000702
0702        FCD_LCDDis_00070
0702        ; { FCD_LCDDisplay0_Clear ; function begin
0702  3001  	MOVLW 0x01
0703  1683  	BSF STATUS, RP0
0704  1303  	BCF STATUS, RP1
0705  00E6  	MOVWF FCD_LCDDis_0006E_arg_in
0706  01E7  	CLRF FCD_LCDDis_0006E_arg_mask
0707  2096  	CALL FCD_LCDDis_0006E
0708  3002  	MOVLW 0x02
0709  00D4  	MOVWF Wdt_Delay__0003E_arg_delay
070A  207C  	CALL Wdt_Delay__0003E
070B  3002  	MOVLW 0x02
070C  00E6  	MOVWF FCD_LCDDis_0006E_arg_in
070D  01E7  	CLRF FCD_LCDDis_0006E_arg_mask
070E  2096  	CALL FCD_LCDDis_0006E
070F  3002  	MOVLW 0x02
0710  00D4  	MOVWF Wdt_Delay__0003E_arg_delay
0711  207C  	CALL Wdt_Delay__0003E
0712  0008  	RETURN
0713        ; } FCD_LCDDisplay0_Clear function end

	ORG 0x00000713
0713        FCD_LCDDis_0006F
0713        ; { FCD_LCDDisplay0_Start ; function begin
0713  1683  	BSF STATUS, RP0
0714  1303  	BCF STATUS, RP1
0715  1106  	BCF gbl_trisb,2
0716  1283  	BCF STATUS, RP0
0717  1106  	BCF gbl_portb,2
0718  1683  	BSF STATUS, RP0
0719  1186  	BCF gbl_trisb,3
071A  1283  	BCF STATUS, RP0
071B  1186  	BCF gbl_portb,3
071C  1683  	BSF STATUS, RP0
071D  1206  	BCF gbl_trisb,4
071E  1283  	BCF STATUS, RP0
071F  1206  	BCF gbl_portb,4
0720  1683  	BSF STATUS, RP0
0721  1286  	BCF gbl_trisb,5
0722  1283  	BCF STATUS, RP0
0723  1286  	BCF gbl_portb,5
0724  1683  	BSF STATUS, RP0
0725  1006  	BCF gbl_trisb,0
0726  1283  	BCF STATUS, RP0
0727  1006  	BCF gbl_portb,0
0728  1683  	BSF STATUS, RP0
0729  1086  	BCF gbl_trisb,1
072A  1283  	BCF STATUS, RP0
072B  1086  	BCF gbl_portb,1
072C  300C  	MOVLW 0x0C
072D  1683  	BSF STATUS, RP0
072E  00D4  	MOVWF Wdt_Delay__0003E_arg_delay
072F  207C  	CALL Wdt_Delay__0003E
0730  3033  	MOVLW 0x33
0731  00E6  	MOVWF FCD_LCDDis_0006E_arg_in
0732  01E7  	CLRF FCD_LCDDis_0006E_arg_mask
0733  2096  	CALL FCD_LCDDis_0006E
0734  3002  	MOVLW 0x02
0735  00D4  	MOVWF Wdt_Delay__0003E_arg_delay
0736  207C  	CALL Wdt_Delay__0003E
0737  3033  	MOVLW 0x33
0738  00E6  	MOVWF FCD_LCDDis_0006E_arg_in
0739  01E7  	CLRF FCD_LCDDis_0006E_arg_mask
073A  2096  	CALL FCD_LCDDis_0006E
073B  3002  	MOVLW 0x02
073C  00D4  	MOVWF Wdt_Delay__0003E_arg_delay
073D  207C  	CALL Wdt_Delay__0003E
073E  3032  	MOVLW 0x32
073F  00E6  	MOVWF FCD_LCDDis_0006E_arg_in
0740  01E7  	CLRF FCD_LCDDis_0006E_arg_mask
0741  2096  	CALL FCD_LCDDis_0006E
0742  3002  	MOVLW 0x02
0743  00D4  	MOVWF Wdt_Delay__0003E_arg_delay
0744  207C  	CALL Wdt_Delay__0003E
0745  302C  	MOVLW 0x2C
0746  00E6  	MOVWF FCD_LCDDis_0006E_arg_in
0747  01E7  	CLRF FCD_LCDDis_0006E_arg_mask
0748  2096  	CALL FCD_LCDDis_0006E
0749  3002  	MOVLW 0x02
074A  00D4  	MOVWF Wdt_Delay__0003E_arg_delay
074B  207C  	CALL Wdt_Delay__0003E
074C  3006  	MOVLW 0x06
074D  00E6  	MOVWF FCD_LCDDis_0006E_arg_in
074E  01E7  	CLRF FCD_LCDDis_0006E_arg_mask
074F  2096  	CALL FCD_LCDDis_0006E
0750  3002  	MOVLW 0x02
0751  00D4  	MOVWF Wdt_Delay__0003E_arg_delay
0752  207C  	CALL Wdt_Delay__0003E
0753  300C  	MOVLW 0x0C
0754  00E6  	MOVWF FCD_LCDDis_0006E_arg_in
0755  01E7  	CLRF FCD_LCDDis_0006E_arg_mask
0756  2096  	CALL FCD_LCDDis_0006E
0757  3002  	MOVLW 0x02
0758  00D4  	MOVWF Wdt_Delay__0003E_arg_delay
0759  207C  	CALL Wdt_Delay__0003E
075A  3001  	MOVLW 0x01
075B  00E6  	MOVWF FCD_LCDDis_0006E_arg_in
075C  01E7  	CLRF FCD_LCDDis_0006E_arg_mask
075D  2096  	CALL FCD_LCDDis_0006E
075E  3002  	MOVLW 0x02
075F  00D4  	MOVWF Wdt_Delay__0003E_arg_delay
0760  207C  	CALL Wdt_Delay__0003E
0761  3002  	MOVLW 0x02
0762  00E6  	MOVWF FCD_LCDDis_0006E_arg_in
0763  01E7  	CLRF FCD_LCDDis_0006E_arg_mask
0764  2096  	CALL FCD_LCDDis_0006E
0765  3002  	MOVLW 0x02
0766  00D4  	MOVWF Wdt_Delay__0003E_arg_delay
0767  207C  	CALL Wdt_Delay__0003E
0768  0008  	RETURN
0769        ; } FCD_LCDDisplay0_Start function end

	ORG 0x00000769
0769        main
0769        ; { main ; function begin
0769  3007  	MOVLW 0x07
076A  1683  	BSF STATUS, RP0
076B  1303  	BCF STATUS, RP1
076C  009F  	MOVWF gbl_adcon1
076D  24E0  	CALL FC_CAL_UAR_00085
076E  30C0  	MOVLW 0xC0
076F  0081  	MOVWF gbl_option_reg
0770  2713  	CALL FCD_LCDDis_0006F
0771  2702  	CALL FCD_LCDDis_00070
0772  26F7  	CALL FCD_SPI_Le_0007A
0773  3001  	MOVLW 0x01
0774  1683  	BSF STATUS, RP0
0775  00D6  	MOVWF delay_ms_00000_arg_del
0776  2010  	CALL delay_ms_00000
0777  30FD  	MOVLW 0xFD
0778  0507  	ANDWF gbl_trisc, W
0779  0087  	MOVWF gbl_trisc
077A  30FD  	MOVLW 0xFD
077B  1283  	BCF STATUS, RP0
077C  0507  	ANDWF gbl_portc, W
077D  1683  	BSF STATUS, RP0
077E  00D2  	MOVWF CompTempVar2312
077F  3002  	MOVLW 0x02
0780  0452  	IORWF CompTempVar2312, W
0781  1283  	BCF STATUS, RP0
0782  0087  	MOVWF gbl_portc
0783  30FB  	MOVLW 0xFB
0784  1683  	BSF STATUS, RP0
0785  0507  	ANDWF gbl_trisc, W
0786  0087  	MOVWF gbl_trisc
0787  30FB  	MOVLW 0xFB
0788  1283  	BCF STATUS, RP0
0789  0507  	ANDWF gbl_portc, W
078A  1683  	BSF STATUS, RP0
078B  00D2  	MOVWF CompTempVar2313
078C  3004  	MOVLW 0x04
078D  0452  	IORWF CompTempVar2313, W
078E  1283  	BCF STATUS, RP0
078F  0087  	MOVWF gbl_portc
0790  300F  	MOVLW 0x0F
0791  1683  	BSF STATUS, RP0
0792  0405  	IORWF gbl_trisa, W
0793  0085  	MOVWF gbl_trisa
0794  300F  	MOVLW 0x0F
0795  1283  	BCF STATUS, RP0
0796  0505  	ANDWF gbl_porta, W
0797  1683  	BSF STATUS, RP0
0798  00C4  	MOVWF gbl_FCV_REG0A_RX_ADDR_P0_BYTE4
0799  3030  	MOVLW 0x30
079A  0744  	ADDWF gbl_FCV_REG0A_RX_ADDR_P0_BYTE4, W
079B  00C4  	MOVWF gbl_FCV_REG0A_RX_ADDR_P0_BYTE4
079C  0844  	MOVF gbl_FCV_REG0A_RX_ADDR_P0_BYTE4, W
079D  00AB  	MOVWF gbl_FCV_REG10_TX_ADDR_BYTE4
079E  3030  	MOVLW 0x30
079F  00D0  	MOVWF gbl_FCV_REG10_TX_ADDR_BYTE0
07A0  00A4  	MOVWF gbl_FCV_REG10_TX_ADDR_BYTE1
07A1  00A7  	MOVWF gbl_FCV_REG10_TX_ADDR_BYTE2
07A2  00AA  	MOVWF gbl_FCV_REG10_TX_ADDR_BYTE3
07A3  00B5  	MOVWF gbl_FCV_REG0A_RX_ADDR_P0_BYTE0
07A4  00B8  	MOVWF gbl_FCV_REG0A_RX_ADDR_P0_BYTE1
07A5  00BB  	MOVWF gbl_FCV_REG0A_RX_ADDR_P0_BYTE2
07A6  00C0  	MOVWF gbl_FCV_REG0A_RX_ADDR_P0_BYTE3
07A7  3010  	MOVLW 0x10
07A8  00C9  	MOVWF gbl_FCV_PAYLOADSIZE
07A9  262F  	CALL FCM_nrf_rx_00067
07AA  3020  	MOVLW 0x20
07AB  00DB  	MOVWF CompTempVar2314+D'7'
07AC  3021  	MOVLW 0x21
07AD  00E3  	MOVWF CompTempVar2314+D'15'
07AE  3041  	MOVLW 0x41
07AF  00E0  	MOVWF CompTempVar2314+D'12'
07B0  3045  	MOVLW 0x45
07B1  00D5  	MOVWF CompTempVar2314+D'1'
07B2  00DD  	MOVWF CompTempVar2314+D'9'
07B3  00E2  	MOVWF CompTempVar2314+D'14'
07B4  3047  	MOVLW 0x47
07B5  00DA  	MOVWF CompTempVar2314+D'6'
07B6  00E1  	MOVWF CompTempVar2314+D'13'
07B7  3049  	MOVLW 0x49
07B8  00D8  	MOVWF CompTempVar2314+D'4'
07B9  304D  	MOVLW 0x4D
07BA  00DC  	MOVWF CompTempVar2314+D'8'
07BB  304E  	MOVLW 0x4E
07BC  00D9  	MOVWF CompTempVar2314+D'5'
07BD  3053  	MOVLW 0x53
07BE  00D6  	MOVWF CompTempVar2314+D'2'
07BF  00DE  	MOVWF CompTempVar2314+D'10'
07C0  00DF  	MOVWF CompTempVar2314+D'11'
07C1  3054  	MOVLW 0x54
07C2  00D4  	MOVWF CompTempVar2314
07C3  00D7  	MOVWF CompTempVar2314+D'3'
07C4  01E4  	CLRF CompTempVar2314+D'16'
07C5  3000  	MOVLW HIGH(CompTempVar2314+D'0')
07C6  00D3  	MOVWF FCI_SCOPY_00000_arg_sSrc+D'1'
07C7  30D4  	MOVLW LOW(CompTempVar2314+D'0')
07C8  00D2  	MOVWF FCI_SCOPY_00000_arg_sSrc
07C9  3010  	MOVLW 0x10
07CA  00E5  	MOVWF FCI_SCOPY_00000_arg_iSrc_len
07CB  3000  	MOVLW HIGH(gbl_FCV_PAYLOAD_TRANSMIT+D'0')
07CC  00E7  	MOVWF FCI_SCOPY_00000_arg_sDst+D'1'
07CD  3030  	MOVLW LOW(gbl_FCV_PAYLOAD_TRANSMIT+D'0')
07CE  00E6  	MOVWF FCI_SCOPY_00000_arg_sDst
07CF  3010  	MOVLW 0x10
07D0  00E8  	MOVWF FCI_SCOPY_00000_arg_iDst_len
07D1  223B  	CALL FCI_SCOPY_00000
07D2  30EF  	MOVLW 0xEF
07D3  0505  	ANDWF gbl_trisa, W
07D4  0085  	MOVWF gbl_trisa
07D5  30EF  	MOVLW 0xEF
07D6  1283  	BCF STATUS, RP0
07D7  0505  	ANDWF gbl_porta, W
07D8  0085  	MOVWF gbl_porta
07D9  30DF  	MOVLW 0xDF
07DA  1683  	BSF STATUS, RP0
07DB  0505  	ANDWF gbl_trisa, W
07DC  0085  	MOVWF gbl_trisa
07DD  30DF  	MOVLW 0xDF
07DE  1283  	BCF STATUS, RP0
07DF  0505  	ANDWF gbl_porta, W
07E0  0085  	MOVWF gbl_porta
07E1  267F  	CALL FCM_cmd_re_0005B
07E2  26BB  	CALL FCM_cmd_re_0005A
07E3  2551  	CALL FCM_rx_add_0006B
07E4  24EF  	CALL FCM_tx_add_0006A
07E5        label69
07E5  30FD  	MOVLW 0xFD
07E6  0507  	ANDWF gbl_trisc, W
07E7  0087  	MOVWF gbl_trisc
07E8  30FD  	MOVLW 0xFD
07E9  1283  	BCF STATUS, RP0
07EA  0507  	ANDWF gbl_portc, W
07EB  1683  	BSF STATUS, RP0
07EC  00D2  	MOVWF CompTempVar2317
07ED  3002  	MOVLW 0x02
07EE  0452  	IORWF CompTempVar2317, W
07EF  1283  	BCF STATUS, RP0
07F0  0087  	MOVWF gbl_portc
07F1  30DF  	MOVLW 0xDF
07F2  1683  	BSF STATUS, RP0
07F3  0505  	ANDWF gbl_trisa, W
07F4  0085  	MOVWF gbl_trisa
07F5  30DF  	MOVLW 0xDF
07F6  1283  	BCF STATUS, RP0
07F7  0505  	ANDWF gbl_porta, W
07F8  0085  	MOVWF gbl_porta
07F9  30FE  	MOVLW 0xFE
07FA  1683  	BSF STATUS, RP0
07FB  0507  	ANDWF gbl_trisc, W
07FC  0087  	MOVWF gbl_trisc
07FD  30FE  	MOVLW 0xFE
07FE  1283  	BCF STATUS, RP0
07FF  0507  	ANDWF gbl_portc, W
0800  0087  	MOVWF gbl_portc
0801  2702  	CALL FCD_LCDDis_00070
0802  25B3  	CALL FCM_radio__00068
0803  2671  	CALL FCM_disp_d_0006C
0804  01D2  	CLRF FCD_LCDDis_00056_arg_x
0805  3001  	MOVLW 0x01
0806  00D3  	MOVWF FCD_LCDDis_00056_arg_y
0807  235D  	CALL FCD_LCDDis_00056
0808  3074  	MOVLW 0x74
0809  00D4  	MOVWF CompTempVar2318
080A  303A  	MOVLW 0x3A
080B  00D5  	MOVWF CompTempVar2318+D'1'
080C  01D6  	CLRF CompTempVar2318+D'2'
080D  3000  	MOVLW HIGH(CompTempVar2318+D'0')
080E  00D3  	MOVWF FCD_LCDDis_0005C_arg_String+D'1'
080F  30D4  	MOVLW LOW(CompTempVar2318+D'0')
0810  00D2  	MOVWF FCD_LCDDis_0005C_arg_String
0811  3002  	MOVLW 0x02
0812  00E4  	MOVWF FCD_LCDDis_0005C_arg_MSZ_String
0813  24C4  	CALL FCD_LCDDis_0005C
0814  3000  	MOVLW HIGH(gbl_FCV_TX_ADDR+D'0')
0815  00D3  	MOVWF FCD_LCDDis_0005C_arg_String+D'1'
0816  3050  	MOVLW LOW(gbl_FCV_TX_ADDR+D'0')
0817  00D2  	MOVWF FCD_LCDDis_0005C_arg_String
0818  3010  	MOVLW 0x10
0819  00E4  	MOVWF FCD_LCDDis_0005C_arg_MSZ_String
081A  24C4  	CALL FCD_LCDDis_0005C
081B  3020  	MOVLW 0x20
081C  00D4  	MOVWF CompTempVar2321
081D  3072  	MOVLW 0x72
081E  00D5  	MOVWF CompTempVar2321+D'1'
081F  303A  	MOVLW 0x3A
0820  00D6  	MOVWF CompTempVar2321+D'2'
0821  01D7  	CLRF CompTempVar2321+D'3'
0822  3000  	MOVLW HIGH(CompTempVar2321+D'0')
0823  00D3  	MOVWF FCD_LCDDis_0005C_arg_String+D'1'
0824  30D4  	MOVLW LOW(CompTempVar2321+D'0')
0825  00D2  	MOVWF FCD_LCDDis_0005C_arg_String
0826  3003  	MOVLW 0x03
0827  00E4  	MOVWF FCD_LCDDis_0005C_arg_MSZ_String
0828  24C4  	CALL FCD_LCDDis_0005C
0829  3000  	MOVLW HIGH(gbl_FCV_RX_ADDR+D'0')
082A  00D3  	MOVWF FCD_LCDDis_0005C_arg_String+D'1'
082B  3040  	MOVLW LOW(gbl_FCV_RX_ADDR+D'0')
082C  00D2  	MOVWF FCD_LCDDis_0005C_arg_String
082D  3010  	MOVLW 0x10
082E  00E4  	MOVWF FCD_LCDDis_0005C_arg_MSZ_String
082F  24C4  	CALL FCD_LCDDis_0005C
0830  30FF  	MOVLW 0xFF
0831  00D6  	MOVWF delay_ms_00000_arg_del
0832  2010  	CALL delay_ms_00000
0833  30F5  	MOVLW 0xF5
0834  00D6  	MOVWF delay_ms_00000_arg_del
0835  2010  	CALL delay_ms_00000
0836  2FE5  	GOTO	label69
0837        ; } main function end

	ORG 0x00000837
0837        _startup
0837  30D5  	MOVLW 0xD5
0838  1283  	BCF STATUS, RP0
0839  1303  	BCF STATUS, RP1
083A  00E0  	MOVWF gbl_14_LSR
083B  30C4  	MOVLW 0xC4
083C  00E1  	MOVWF gbl_14_LSR+D'1'
083D  30BB  	MOVLW 0xBB
083E  00E2  	MOVWF gbl_14_LSR+D'2'
083F  30DC  	MOVLW 0xDC
0840  00E3  	MOVWF gbl_14_LSR+D'3'
0841  01E4  	CLRF gbl_15_gbl_aSig
0842  01E5  	CLRF gbl_15_gbl_aSig+D'1'
0843  01E6  	CLRF gbl_15_gbl_aSig+D'2'
0844  01E7  	CLRF gbl_15_gbl_aSig+D'3'
0845  01E8  	CLRF gbl_15_gbl_bSig
0846  01E9  	CLRF gbl_15_gbl_bSig+D'1'
0847  01EA  	CLRF gbl_15_gbl_bSig+D'2'
0848  01EB  	CLRF gbl_15_gbl_bSig+D'3'
0849  01EC  	CLRF gbl_15_gbl_zSig
084A  01ED  	CLRF gbl_15_gbl_zSig+D'1'
084B  01EE  	CLRF gbl_15_gbl_zSig+D'2'
084C  01EF  	CLRF gbl_15_gbl_zSig+D'3'
084D  01FC  	CLRF gbl_15_gbl_aExp
084E  01FD  	CLRF gbl_15_gbl_bExp
084F  01F7  	CLRF gbl_15_gbl_zExp
0850  01F8  	CLRF gbl_15_gbl_zExp+D'1'
0851  01FE  	CLRF gbl_15_gbl_aSign
0852  1683  	BSF STATUS, RP0
0853  01A0  	CLRF gbl_15_gbl_bSign
0854  01A1  	CLRF gbl_15_gbl_zSign
0855  01A2  	CLRF gbl_15_gbl_zSigZero
0856  1283  	BCF STATUS, RP0
0857  01F0  	CLRF gbl_15_gbl_ret
0858  01F1  	CLRF gbl_15_gbl_ret+D'1'
0859  01F2  	CLRF gbl_15_gbl_ret+D'2'
085A  01F3  	CLRF gbl_15_gbl_ret+D'3'
085B  01FA  	CLRF gbl_float_rounding_mode
085C  01FB  	CLRF gbl_float_exception_flags
085D  01F9  	CLRF gbl_float_detect_tininess
085E  30FF  	MOVLW 0xFF
085F  1683  	BSF STATUS, RP0
0860  00A3  	MOVWF gbl_FCV_DATA_TO_WRITE
0861  01A4  	CLRF gbl_FCV_REG10_TX_ADDR_BYTE1
0862  01A5  	CLRF gbl_FCV_REG00_CONFIG
0863  01A6  	CLRF gbl_FCV_REG12_RX_PW_P1
0864  01A7  	CLRF gbl_FCV_REG10_TX_ADDR_BYTE2
0865  01A8  	CLRF gbl_FCV_REG09_CD
0866  01A9  	CLRF gbl_FCV_REG15_RX_PW_P4
0867  01AA  	CLRF gbl_FCV_REG10_TX_ADDR_BYTE3
0868  01AB  	CLRF gbl_FCV_REG10_TX_ADDR_BYTE4
0869  01AC  	CLRF gbl_FCV_REG0C_RX_ADDR_P2
086A  01AD  	CLRF gbl_FCV_REG0F_RX_ADDR_P5
086B  01AE  	CLRF gbl_FCV_STATUS_MAX_RT
086C  01AF  	CLRF gbl_FCV_REG17_FIFO_STATUS
086D  30FF  	MOVLW 0xFF
086E  00B0  	MOVWF gbl_FCV_SPI_DATA0
086F  30FF  	MOVLW 0xFF
0870  00B1  	MOVWF gbl_FCV_SPI_DATA1
0871  01B2  	CLRF gbl_FCV_DATA_TO_READ
0872  01B3  	CLRF gbl_FCV_REG1D_FEATURE
0873  01B4  	CLRF gbl_FCV_REG13_RX_PW_P2
0874  01B5  	CLRF gbl_FCV_REG0A_RX_ADDR_P0_BYTE0
0875  01B6  	CLRF gbl_FCV_REG16_RX_PW_P5
0876  01B7  	CLRF gbl_FCV_REG1C_DYNPD
0877  01B8  	CLRF gbl_FCV_REG0A_RX_ADDR_P0_BYTE1
0878  01B9  	CLRF gbl_FCV_REG05_RF_CH
0879  01BA  	CLRF gbl_FCV_REG07_STATUS
087A  01BB  	CLRF gbl_FCV_REG0A_RX_ADDR_P0_BYTE2
087B  01BC  	CLRF gbl_FCV_REG02_EN_RXADDR
087C  01BD  	CLRF gbl_FCV_REG0D_RX_ADDR_P3
087D  01BE  	CLRF gbl_FCV_STATUS_TX_DS
087E  143F  	BSF gbl_FCV_SW0,0
087F  01C0  	CLRF gbl_FCV_REG0A_RX_ADDR_P0_BYTE3
0880  01C1  	CLRF gbl_FCV_REG01_ENAA
0881  01C2  	CLRF gbl_FCV_REG08_OBSERVE
0882  01C3  	CLRF gbl_FCV_REG_TO_WRITE
0883  01C4  	CLRF gbl_FCV_REG0A_RX_ADDR_P0_BYTE4
0884  01C5  	CLRF gbl_FCV_REG03_SETUP_AW
0885  01C6  	CLRF gbl_FCV_REG11_RX_PW_P0
0886  01C7  	CLRF gbl_FCV_REG14_RX_PW_P3
0887  01C8  	CLRF gbl_FCV_CURSORX
0888  3020  	MOVLW 0x20
0889  00C9  	MOVWF gbl_FCV_PAYLOADSIZE
088A  01CA  	CLRF gbl_FCV_DIP_SWITCH
088B  304B  	MOVLW 0x4B
088C  1283  	BCF STATUS, RP0
088D  00C0  	MOVWF gbl_FCV_RX_ADDR
088E  3045  	MOVLW 0x45
088F  00C1  	MOVWF gbl_FCV_RX_ADDR+D'1'
0890  304E  	MOVLW 0x4E
0891  00C2  	MOVWF gbl_FCV_RX_ADDR+D'2'
0892  304E  	MOVLW 0x4E
0893  00C3  	MOVWF gbl_FCV_RX_ADDR+D'3'
0894  3059  	MOVLW 0x59
0895  00C4  	MOVWF gbl_FCV_RX_ADDR+D'4'
0896  01C5  	CLRF gbl_FCV_RX_ADDR+D'5'
0897  1683  	BSF STATUS, RP0
0898  01CB  	CLRF gbl_FCV_LOOP_COUNT
0899  01CC  	CLRF gbl_FCV_REG0B_RX_ADDR_P1
089A  01CD  	CLRF gbl_FCV_REG0E_RX_ADDR_P4
089B  1283  	BCF STATUS, RP0
089C  01D0  	CLRF gbl_FCV_TX_ADDR
089D  1683  	BSF STATUS, RP0
089E  01CE  	CLRF gbl_FCV_REG06_RF_SETUP
089F  300A  	MOVLW 0x0A
08A0  00CF  	MOVWF gbl_FCV_T_OUT
08A1  01D0  	CLRF gbl_FCV_REG10_TX_ADDR_BYTE0
08A2  01D1  	CLRF gbl_FCV_REG04_SETUP_RETR
08A3  118A  	BCF PCLATH,3
08A4  120A  	BCF PCLATH,4
08A5  2F69  	GOTO	main
	ORG 0x000008A6
08A6        interrupt
08A6        ; { interrupt ; function begin
08A6  1283  	BCF STATUS, RP0
08A7  1303  	BCF STATUS, RP1
08A8  0E76  	SWAPF Int1BContext+D'2', W
08A9  0084  	MOVWF FSR
08AA  0E75  	SWAPF Int1BContext+D'1', W
08AB  008A  	MOVWF PCLATH
08AC  0E74  	SWAPF Int1BContext, W
08AD  0083  	MOVWF STATUS
08AE  0EFF  	SWAPF Int1Context, F
08AF  0E7F  	SWAPF Int1Context, W
08B0  0009  	RETFIE
08B1        ; } interrupt function end

	ORG 0x00002007
2007  3F32  	DW 0x3F32
