;/////////////////////////////////////////////////////////////////////////////////
;// Code Generator: BoostC Compiler - http://www.sourceboost.com
;// Version       : 7.03
;// License Type  : Pro License
;// Limitations   : PIC12,PIC16 max code size:Unlimited, max RAM banks:Unlimited
;/////////////////////////////////////////////////////////////////////////////////

	ORG 0x00000000
0000  2E6B  	GOTO	_startup
	ORG 0x00000004
0004  00FF  	MOVWF Int1Context
0005  0E03  	SWAPF STATUS, W
0006  1283  	BCF STATUS, RP0
0007  1303  	BCF STATUS, RP1
0008  00F4  	MOVWF Int1BContext
0009  0E0A  	SWAPF PCLATH, W
000A  00F5  	MOVWF Int1BContext+D'1'
000B  0E04  	SWAPF FSR, W
000C  00F6  	MOVWF Int1BContext+D'2'
000D  118A  	BCF PCLATH,3
000E  120A  	BCF PCLATH,4
000F  2ECB  	GOTO	interrupt
	ORG 0x00000010
0010        delay_us_00000
0010        ; { delay_us ; function begin
0010        label1
0010  0000  	NOP
0011  0000  	NOP
0012  0BF2  	DECFSZ delay_us_00000_arg_del, F
0013  2810  	GOTO	label1
0014  0008  	RETURN
0015        ; } delay_us function end

	ORG 0x00000015
0015        delay_ms_00000
0015        ; { delay_ms ; function begin
0015  08C5  	MOVF delay_ms_00000_arg_del, F
0016  1D03  	BTFSS STATUS,Z
0017  2819  	GOTO	label2
0018  0008  	RETURN
0019        label2
0019  30F9  	MOVLW 0xF9
001A        label3
001A  0000  	NOP
001B  0000  	NOP
001C  0000  	NOP
001D  0000  	NOP
001E  0000  	NOP
001F  0000  	NOP
0020  0000  	NOP
0021  0000  	NOP
0022  0000  	NOP
0023  0000  	NOP
0024  0000  	NOP
0025  0000  	NOP
0026  0000  	NOP
0027  0000  	NOP
0028  0000  	NOP
0029  0000  	NOP
002A  3EFF  	ADDLW 0xFF
002B  1D03  	BTFSS STATUS,Z
002C  281A  	GOTO	label3
002D  0000  	NOP
002E  0000  	NOP
002F  0000  	NOP
0030  0000  	NOP
0031  0000  	NOP
0032  0000  	NOP
0033  0000  	NOP
0034  0000  	NOP
0035  0000  	NOP
0036  0000  	NOP
0037  0000  	NOP
0038  0000  	NOP
0039  0000  	NOP
003A  0000  	NOP
003B  0000  	NOP
003C  0000  	NOP
003D  0000  	NOP
003E  0BC5  	DECFSZ delay_ms_00000_arg_del, F
003F  2819  	GOTO	label2
0040  0008  	RETURN
0041        ; } delay_ms function end

	ORG 0x00000041
0041        FC_CAL_UAR_00074
0041        ; { FC_CAL_UART_Receive_1 ; function begin
0041  30FF  	MOVLW 0xFF
0042  00EA  	MOVWF FC_CAL_UAR_00074_1_retVal
0043  01EB  	CLRF FC_CAL_UAR_00074_1_delay1
0044  01EC  	CLRF FC_CAL_UAR_00074_1_regcheck
0045  01ED  	CLRF FC_CAL_UAR_00074_1_bWaitForever
0046  01EE  	CLRF FC_CAL_UAR_00074_1_rxStatus
0047  01EF  	CLRF FC_CAL_UAR_00074_1_dummy
0048  0A69  	INCF FC_CAL_UAR_00074_arg_nTimeout, W
0049  1D03  	BTFSS STATUS,Z
004A  284D  	GOTO	label4
004B  3001  	MOVLW 0x01
004C  00ED  	MOVWF FC_CAL_UAR_00074_1_bWaitForever
004D        label4
004D  08EE  	MOVF FC_CAL_UAR_00074_1_rxStatus, F
004E  1D03  	BTFSS STATUS,Z
004F  2871  	GOTO	label7
0050  08ED  	MOVF FC_CAL_UAR_00074_1_bWaitForever, F
0051  1D03  	BTFSS STATUS,Z
0052  2866  	GOTO	label6
0053  08E9  	MOVF FC_CAL_UAR_00074_arg_nTimeout, F
0054  1D03  	BTFSS STATUS,Z
0055  2859  	GOTO	label5
0056  3001  	MOVLW 0x01
0057  00EE  	MOVWF FC_CAL_UAR_00074_1_rxStatus
0058  2866  	GOTO	label6
0059        label5
0059  300A  	MOVLW 0x0A
005A  00F2  	MOVWF delay_us_00000_arg_del
005B  2010  	CALL delay_us_00000
005C  0A6B  	INCF FC_CAL_UAR_00074_1_delay1, W
005D  00EB  	MOVWF FC_CAL_UAR_00074_1_delay1
005E  086B  	MOVF FC_CAL_UAR_00074_1_delay1, W
005F  3A64  	XORLW 0x64
0060  1D03  	BTFSS STATUS,Z
0061  2866  	GOTO	label6
0062  0369  	DECF FC_CAL_UAR_00074_arg_nTimeout, W
0063  00E9  	MOVWF FC_CAL_UAR_00074_arg_nTimeout
0064  0064  	CLRWDT
0065  01EB  	CLRF FC_CAL_UAR_00074_1_delay1
0066        label6
0066  3020  	MOVLW 0x20
0067  1283  	BCF STATUS, RP0
0068  050C  	ANDWF gbl_pir1, W
0069  1683  	BSF STATUS, RP0
006A  00EC  	MOVWF FC_CAL_UAR_00074_1_regcheck
006B  08EC  	MOVF FC_CAL_UAR_00074_1_regcheck, F
006C  1903  	BTFSC STATUS,Z
006D  284D  	GOTO	label4
006E  3002  	MOVLW 0x02
006F  00EE  	MOVWF FC_CAL_UAR_00074_1_rxStatus
0070  284D  	GOTO	label4
0071        label7
0071  086E  	MOVF FC_CAL_UAR_00074_1_rxStatus, W
0072  3A02  	XORLW 0x02
0073  1D03  	BTFSS STATUS,Z
0074  2894  	GOTO	label10
0075  3004  	MOVLW 0x04
0076  1283  	BCF STATUS, RP0
0077  0518  	ANDWF gbl_rcsta, W
0078  1683  	BSF STATUS, RP0
0079  00EC  	MOVWF FC_CAL_UAR_00074_1_regcheck
007A  08EC  	MOVF FC_CAL_UAR_00074_1_regcheck, F
007B  1903  	BTFSC STATUS,Z
007C  2882  	GOTO	label8
007D  1283  	BCF STATUS, RP0
007E  081A  	MOVF gbl_rcreg, W
007F  1683  	BSF STATUS, RP0
0080  00EF  	MOVWF FC_CAL_UAR_00074_1_dummy
0081  2894  	GOTO	label10
0082        label8
0082  3002  	MOVLW 0x02
0083  1283  	BCF STATUS, RP0
0084  0518  	ANDWF gbl_rcsta, W
0085  1683  	BSF STATUS, RP0
0086  00EC  	MOVWF FC_CAL_UAR_00074_1_regcheck
0087  08EC  	MOVF FC_CAL_UAR_00074_1_regcheck, F
0088  1903  	BTFSC STATUS,Z
0089  288E  	GOTO	label9
008A  1283  	BCF STATUS, RP0
008B  1218  	BCF gbl_rcsta,4
008C  1618  	BSF gbl_rcsta,4
008D  2894  	GOTO	label10
008E        label9
008E  01EA  	CLRF FC_CAL_UAR_00074_1_retVal
008F  1283  	BCF STATUS, RP0
0090  081A  	MOVF gbl_rcreg, W
0091  1683  	BSF STATUS, RP0
0092  046A  	IORWF FC_CAL_UAR_00074_1_retVal, W
0093  00EA  	MOVWF FC_CAL_UAR_00074_1_retVal
0094        label10
0094  1683  	BSF STATUS, RP0
0095  086A  	MOVF FC_CAL_UAR_00074_1_retVal, W
0096  00F0  	MOVWF CompTempVarRet2259
0097  01F1  	CLRF CompTempVarRet2259+D'1'
0098  0008  	RETURN
0099        ; } FC_CAL_UART_Receive_1 function end

	ORG 0x00000099
0099        FCI_MIDSTR_00046
0099        ; { FCI_MIDSTRING ; function begin
0099  08E6  	MOVF FCI_MIDSTR_00046_arg_iDst_len, F
009A  1D03  	BTFSS STATUS,Z
009B  289E  	GOTO	label11
009C  01E8  	CLRF CompTempVarRet1998
009D  0008  	RETURN
009E        label11
009E  01E7  	CLRF FCI_MIDSTR_00046_1_idx
009F        label12
009F  0861  	MOVF FCI_MIDSTR_00046_arg_iSrc_len, W
00A0  0267  	SUBWF FCI_MIDSTR_00046_1_idx, W
00A1  1803  	BTFSC STATUS,C
00A2  28AE  	GOTO	label13
00A3  1383  	BCF STATUS,IRP
00A4  1860  	BTFSC FCI_MIDSTR_00046_arg_sSrc+D'1',0
00A5  1783  	BSF STATUS,IRP
00A6  085F  	MOVF FCI_MIDSTR_00046_arg_sSrc, W
00A7  0767  	ADDWF FCI_MIDSTR_00046_1_idx, W
00A8  0084  	MOVWF FSR
00A9  0880  	MOVF INDF, F
00AA  1903  	BTFSC STATUS,Z
00AB  28AE  	GOTO	label13
00AC  0AE7  	INCF FCI_MIDSTR_00046_1_idx, F
00AD  289F  	GOTO	label12
00AE        label13
00AE  0867  	MOVF FCI_MIDSTR_00046_1_idx, W
00AF  0262  	SUBWF FCI_MIDSTR_00046_arg_iStart, W
00B0  1C03  	BTFSS STATUS,C
00B1  28BA  	GOTO	label14
00B2  1383  	BCF STATUS,IRP
00B3  1865  	BTFSC FCI_MIDSTR_00046_arg_sDst+D'1',0
00B4  1783  	BSF STATUS,IRP
00B5  0864  	MOVF FCI_MIDSTR_00046_arg_sDst, W
00B6  0084  	MOVWF FSR
00B7  3000  	MOVLW 0x00
00B8  0080  	MOVWF INDF
00B9  28FB  	GOTO	label20
00BA        label14
00BA  01EA  	CLRF CompTempVar2001
00BB  0863  	MOVF FCI_MIDSTR_00046_arg_iCount, W
00BC  0762  	ADDWF FCI_MIDSTR_00046_arg_iStart, W
00BD  00E9  	MOVWF CompTempVar2000
00BE  1803  	BTFSC STATUS,C
00BF  0AEA  	INCF CompTempVar2001, F
00C0  3000  	MOVLW 0x00
00C1  026A  	SUBWF CompTempVar2001, W
00C2  1D03  	BTFSS STATUS,Z
00C3  28C6  	GOTO	label15
00C4  0867  	MOVF FCI_MIDSTR_00046_1_idx, W
00C5  0269  	SUBWF CompTempVar2000, W
00C6        label15
00C6  1C03  	BTFSS STATUS,C
00C7  28CB  	GOTO	label16
00C8  0862  	MOVF FCI_MIDSTR_00046_arg_iStart, W
00C9  0267  	SUBWF FCI_MIDSTR_00046_1_idx, W
00CA  00E3  	MOVWF FCI_MIDSTR_00046_arg_iCount
00CB        label16
00CB  0863  	MOVF FCI_MIDSTR_00046_arg_iCount, W
00CC  0266  	SUBWF FCI_MIDSTR_00046_arg_iDst_len, W
00CD  1803  	BTFSC STATUS,C
00CE  28D1  	GOTO	label17
00CF  0866  	MOVF FCI_MIDSTR_00046_arg_iDst_len, W
00D0  00E3  	MOVWF FCI_MIDSTR_00046_arg_iCount
00D1        label17
00D1  0862  	MOVF FCI_MIDSTR_00046_arg_iStart, W
00D2  07DF  	ADDWF FCI_MIDSTR_00046_arg_sSrc, F
00D3  1803  	BTFSC STATUS,C
00D4  0AE0  	INCF FCI_MIDSTR_00046_arg_sSrc+D'1', F
00D5  01E7  	CLRF FCI_MIDSTR_00046_1_idx
00D6        label18
00D6  0863  	MOVF FCI_MIDSTR_00046_arg_iCount, W
00D7  0267  	SUBWF FCI_MIDSTR_00046_1_idx, W
00D8  1803  	BTFSC STATUS,C
00D9  28F0  	GOTO	label19
00DA  1383  	BCF STATUS,IRP
00DB  1860  	BTFSC FCI_MIDSTR_00046_arg_sSrc+D'1',0
00DC  1783  	BSF STATUS,IRP
00DD  085F  	MOVF FCI_MIDSTR_00046_arg_sSrc, W
00DE  0084  	MOVWF FSR
00DF  0800  	MOVF INDF, W
00E0  00EB  	MOVWF CompTempVar2002
00E1  1383  	BCF STATUS,IRP
00E2  1865  	BTFSC FCI_MIDSTR_00046_arg_sDst+D'1',0
00E3  1783  	BSF STATUS,IRP
00E4  0864  	MOVF FCI_MIDSTR_00046_arg_sDst, W
00E5  0084  	MOVWF FSR
00E6  086B  	MOVF CompTempVar2002, W
00E7  0080  	MOVWF INDF
00E8  0AE4  	INCF FCI_MIDSTR_00046_arg_sDst, F
00E9  1903  	BTFSC STATUS,Z
00EA  0AE5  	INCF FCI_MIDSTR_00046_arg_sDst+D'1', F
00EB  0ADF  	INCF FCI_MIDSTR_00046_arg_sSrc, F
00EC  1903  	BTFSC STATUS,Z
00ED  0AE0  	INCF FCI_MIDSTR_00046_arg_sSrc+D'1', F
00EE  0AE7  	INCF FCI_MIDSTR_00046_1_idx, F
00EF  28D6  	GOTO	label18
00F0        label19
00F0  0866  	MOVF FCI_MIDSTR_00046_arg_iDst_len, W
00F1  0267  	SUBWF FCI_MIDSTR_00046_1_idx, W
00F2  1803  	BTFSC STATUS,C
00F3  28FB  	GOTO	label20
00F4  1383  	BCF STATUS,IRP
00F5  1865  	BTFSC FCI_MIDSTR_00046_arg_sDst+D'1',0
00F6  1783  	BSF STATUS,IRP
00F7  0864  	MOVF FCI_MIDSTR_00046_arg_sDst, W
00F8  0084  	MOVWF FSR
00F9  3000  	MOVLW 0x00
00FA  0080  	MOVWF INDF
00FB        label20
00FB  0867  	MOVF FCI_MIDSTR_00046_1_idx, W
00FC  00E8  	MOVWF CompTempVarRet1998
00FD  0008  	RETURN
00FE        ; } FCI_MIDSTRING function end

	ORG 0x000000FE
00FE        FCD_RS2320_00062
00FE        ; { FCD_RS2320_ReceiveRS232String ; function begin
00FE  30FF  	MOVLW 0xFF
00FF  00E5  	MOVWF FCD_RS2320_00062_1_RS232_TO
0100  01E6  	CLRF FCD_RS2320_00062_1_RS232_TO+D'1'
0101  0863  	MOVF FCD_RS2320_00062_arg_NumBytes, W
0102  0261  	SUBWF FCD_RS2320_00062_arg_FCR_R_00063, W
0103  1803  	BTFSC STATUS,C
0104  2907  	GOTO	label21
0105  0861  	MOVF FCD_RS2320_00062_arg_FCR_R_00063, W
0106  00E3  	MOVWF FCD_RS2320_00062_arg_NumBytes
0107        label21
0107  01E4  	CLRF FCD_RS2320_00062_1_idx
0108        label22
0108  0863  	MOVF FCD_RS2320_00062_arg_NumBytes, W
0109  0264  	SUBWF FCD_RS2320_00062_1_idx, W
010A  1803  	BTFSC STATUS,C
010B  292B  	GOTO	label24
010C  0862  	MOVF FCD_RS2320_00062_arg_nTimeout, W
010D  00E9  	MOVWF FC_CAL_UAR_00074_arg_nTimeout
010E  2041  	CALL FC_CAL_UAR_00074
010F  0870  	MOVF CompTempVarRet2259, W
0110  00E7  	MOVWF FCD_RS2320_00062_1_in
0111  0871  	MOVF CompTempVarRet2259+D'1', W
0112  00E8  	MOVWF FCD_RS2320_00062_1_in+D'1'
0113  0868  	MOVF FCD_RS2320_00062_1_in+D'1', W
0114  3A80  	XORLW 0x80
0115  00E9  	MOVWF CompTempVar2244
0116  0866  	MOVF FCD_RS2320_00062_1_RS232_TO+D'1', W
0117  3A80  	XORLW 0x80
0118  0269  	SUBWF CompTempVar2244, W
0119  1D03  	BTFSS STATUS,Z
011A  291D  	GOTO	label23
011B  0865  	MOVF FCD_RS2320_00062_1_RS232_TO, W
011C  0267  	SUBWF FCD_RS2320_00062_1_in, W
011D        label23
011D  1803  	BTFSC STATUS,C
011E  292B  	GOTO	label24
011F  0867  	MOVF FCD_RS2320_00062_1_in, W
0120  00E9  	MOVWF CompTempVar2246
0121  1383  	BCF STATUS,IRP
0122  1860  	BTFSC FCD_RS2320_00062_arg_FCR_RETVAL+D'1',0
0123  1783  	BSF STATUS,IRP
0124  085F  	MOVF FCD_RS2320_00062_arg_FCR_RETVAL, W
0125  0764  	ADDWF FCD_RS2320_00062_1_idx, W
0126  0084  	MOVWF FSR
0127  0869  	MOVF CompTempVar2246, W
0128  0080  	MOVWF INDF
0129  0AE4  	INCF FCD_RS2320_00062_1_idx, F
012A  2908  	GOTO	label22
012B        label24
012B  0861  	MOVF FCD_RS2320_00062_arg_FCR_R_00063, W
012C  0264  	SUBWF FCD_RS2320_00062_1_idx, W
012D  1803  	BTFSC STATUS,C
012E  0008  	RETURN
012F  1383  	BCF STATUS,IRP
0130  1860  	BTFSC FCD_RS2320_00062_arg_FCR_RETVAL+D'1',0
0131  1783  	BSF STATUS,IRP
0132  085F  	MOVF FCD_RS2320_00062_arg_FCR_RETVAL, W
0133  0764  	ADDWF FCD_RS2320_00062_1_idx, W
0134  0084  	MOVWF FSR
0135  3000  	MOVLW 0x00
0136  0080  	MOVWF INDF
0137  0008  	RETURN
0138        ; } FCD_RS2320_ReceiveRS232String function end

	ORG 0x00000138
0138        FCD_RS2320_00061
0138        ; { FCD_RS2320_ReceiveRS232Char ; function begin
0138  085F  	MOVF FCD_RS2320_00061_arg_nTimeout, W
0139  00E9  	MOVWF FC_CAL_UAR_00074_arg_nTimeout
013A  2041  	CALL FC_CAL_UAR_00074
013B  0870  	MOVF CompTempVarRet2259, W
013C  00E1  	MOVWF CompTempVarRet2243
013D  0871  	MOVF CompTempVarRet2259+D'1', W
013E  00E2  	MOVWF CompTempVarRet2243+D'1'
013F  0008  	RETURN
0140        ; } FCD_RS2320_ReceiveRS232Char function end

	ORG 0x00000140
0140        FCM_uart_i_00060
0140        ; { FCM_uart_int ; function begin
0140        label25
0140  3001  	MOVLW 0x01
0141  1683  	BSF STATUS, RP0
0142  1303  	BCF STATUS, RP1
0143  00DF  	MOVWF FCD_RS2320_00061_arg_nTimeout
0144  2138  	CALL FCD_RS2320_00061
0145  0861  	MOVF CompTempVarRet2243, W
0146  00BA  	MOVWF gbl_FCV_UART_RX
0147  083A  	MOVF gbl_FCV_UART_RX, W
0148  3AEC  	XORLW 0xEC
0149  1D03  	BTFSS STATUS,Z
014A  2940  	GOTO	label25
014B  3000  	MOVLW HIGH(gbl_FCV_PAYLOAD_RECIEVE+D'0')
014C  00E0  	MOVWF FCD_RS2320_00062_arg_FCR_RETVAL+D'1'
014D  3034  	MOVLW LOW(gbl_FCV_PAYLOAD_RECIEVE+D'0')
014E  00DF  	MOVWF FCD_RS2320_00062_arg_FCR_RETVAL
014F  3012  	MOVLW 0x12
0150  00E1  	MOVWF FCD_RS2320_00062_arg_FCR_R_00063
0151  3001  	MOVLW 0x01
0152  00E2  	MOVWF FCD_RS2320_00062_arg_nTimeout
0153  3011  	MOVLW 0x11
0154  00E3  	MOVWF FCD_RS2320_00062_arg_NumBytes
0155  20FE  	CALL FCD_RS2320_00062
0156  30DF  	MOVLW 0xDF
0157  0505  	ANDWF gbl_trisa, W
0158  0085  	MOVWF gbl_trisa
0159  30DF  	MOVLW 0xDF
015A  1283  	BCF STATUS, RP0
015B  0505  	ANDWF gbl_porta, W
015C  1683  	BSF STATUS, RP0
015D  00DF  	MOVWF CompTempVar2240
015E  3020  	MOVLW 0x20
015F  045F  	IORWF CompTempVar2240, W
0160  1283  	BCF STATUS, RP0
0161  0085  	MOVWF gbl_porta
0162  3000  	MOVLW HIGH(gbl_FCV_PAYLOAD_RECIEVE+D'0')
0163  1683  	BSF STATUS, RP0
0164  00E0  	MOVWF FCI_MIDSTR_00046_arg_sSrc+D'1'
0165  3034  	MOVLW LOW(gbl_FCV_PAYLOAD_RECIEVE+D'0')
0166  00DF  	MOVWF FCI_MIDSTR_00046_arg_sSrc
0167  3012  	MOVLW 0x12
0168  00E1  	MOVWF FCI_MIDSTR_00046_arg_iSrc_len
0169  01E2  	CLRF FCI_MIDSTR_00046_arg_iStart
016A  300F  	MOVLW 0x0F
016B  00E3  	MOVWF FCI_MIDSTR_00046_arg_iCount
016C  3000  	MOVLW HIGH(gbl_FCV_PAYLOAD_TRANSMIT+D'0')
016D  00E5  	MOVWF FCI_MIDSTR_00046_arg_sDst+D'1'
016E  3046  	MOVLW LOW(gbl_FCV_PAYLOAD_TRANSMIT+D'0')
016F  00E4  	MOVWF FCI_MIDSTR_00046_arg_sDst
0170  3010  	MOVLW 0x10
0171  00E6  	MOVWF FCI_MIDSTR_00046_arg_iDst_len
0172  2099  	CALL FCI_MIDSTR_00046
0173  3001  	MOVLW 0x01
0174  00B5  	MOVWF gbl_FCV_FLAG_PROT
0175  0008  	RETURN
0176        ; } FCM_uart_int function end

	ORG 0x00000176
0176        FC_CAL_SPI_00066
0176        ; { FC_CAL_SPI_Master_Byte_1 ; function begin
0176  01C7  	CLRF FC_CAL_SPI_00066_1_retVal
0177  0846  	MOVF FC_CAL_SPI_00066_arg_DataOut, W
0178  1283  	BCF STATUS, RP0
0179  0093  	MOVWF gbl_sspbuf
017A        label26
017A  1683  	BSF STATUS, RP0
017B  1C14  	BTFSS gbl_sspstat,0
017C  297A  	GOTO	label26
017D  1283  	BCF STATUS, RP0
017E  0813  	MOVF gbl_sspbuf, W
017F  1683  	BSF STATUS, RP0
0180  00C7  	MOVWF FC_CAL_SPI_00066_1_retVal
0181  0847  	MOVF FC_CAL_SPI_00066_1_retVal, W
0182  00C8  	MOVWF CompTempVarRet2248
0183  0008  	RETURN
0184        ; } FC_CAL_SPI_Master_Byte_1 function end

	ORG 0x00000184
0184        FCD_SPI_Le_00054
0184        ; { FCD_SPI_Legacy0_SPI_Get_Char ; function begin
0184  1683  	BSF STATUS, RP0
0185  1303  	BCF STATUS, RP1
0186  01C5  	CLRF FCD_SPI_Le_00054_1_retVal
0187  30FF  	MOVLW 0xFF
0188  00C6  	MOVWF FC_CAL_SPI_00066_arg_DataOut
0189  2176  	CALL FC_CAL_SPI_00066
018A  0848  	MOVF CompTempVarRet2248, W
018B  00C5  	MOVWF FCD_SPI_Le_00054_1_retVal
018C  0845  	MOVF FCD_SPI_Le_00054_1_retVal, W
018D  00C6  	MOVWF CompTempVarRet2190
018E  0008  	RETURN
018F        ; } FCD_SPI_Legacy0_SPI_Get_Char function end

	ORG 0x0000018F
018F        FCD_SPI_Le_00052
018F        ; { FCD_SPI_Legacy0_SPI_Send_Char ; function begin
018F  0845  	MOVF FCD_SPI_Le_00052_arg_Char, W
0190  00C6  	MOVWF FC_CAL_SPI_00066_arg_DataOut
0191  2176  	CALL FC_CAL_SPI_00066
0192  0008  	RETURN
0193        ; } FCD_SPI_Legacy0_SPI_Send_Char function end

	ORG 0x00000193
0193        FCM_cmd_re_00053
0193        ; { FCM_cmd_read_reg ; function begin
0193  30FB  	MOVLW 0xFB
0194  1683  	BSF STATUS, RP0
0195  1303  	BCF STATUS, RP1
0196  0507  	ANDWF gbl_trisc, W
0197  0087  	MOVWF gbl_trisc
0198  30FB  	MOVLW 0xFB
0199  1283  	BCF STATUS, RP0
019A  0507  	ANDWF gbl_portc, W
019B  0087  	MOVWF gbl_portc
019C  1683  	BSF STATUS, RP0
019D  082F  	MOVF gbl_FCV_SPI_DATA0, W
019E  00C5  	MOVWF FCD_SPI_Le_00052_arg_Char
019F  218F  	CALL FCD_SPI_Le_00052
01A0  2184  	CALL FCD_SPI_Le_00054
01A1  0846  	MOVF CompTempVarRet2190, W
01A2  00B2  	MOVWF gbl_FCV_SPI_DATA1
01A3  30FB  	MOVLW 0xFB
01A4  0507  	ANDWF gbl_trisc, W
01A5  0087  	MOVWF gbl_trisc
01A6  30FB  	MOVLW 0xFB
01A7  1283  	BCF STATUS, RP0
01A8  0507  	ANDWF gbl_portc, W
01A9  1683  	BSF STATUS, RP0
01AA  00C5  	MOVWF CompTempVar2189
01AB  3004  	MOVLW 0x04
01AC  0445  	IORWF CompTempVar2189, W
01AD  1283  	BCF STATUS, RP0
01AE  0087  	MOVWF gbl_portc
01AF  0008  	RETURN
01B0        ; } FCM_cmd_read_reg function end

	ORG 0x000001B0
01B0        FCI_SHEAD_00000
01B0        ; { FCI_SHEAD ; function begin
01B0  01D0  	CLRF FCI_SHEAD_00000_1_len
01B1  084D  	MOVF FCI_SHEAD_00000_arg_sDst, W
01B2  064A  	XORWF FCI_SHEAD_00000_arg_sSrc2, W
01B3  1D03  	BTFSS STATUS,Z
01B4  2A57  	GOTO	label38
01B5  084E  	MOVF FCI_SHEAD_00000_arg_sDst+D'1', W
01B6  064B  	XORWF FCI_SHEAD_00000_arg_sSrc2+D'1', W
01B7  1D03  	BTFSS STATUS,Z
01B8  2A57  	GOTO	label38
01B9  01D1  	CLRF FCI_SHEAD_00000_1_strt
01BA        label27
01BA  0849  	MOVF FCI_SHEAD_00000_arg_iSrc1_len, W
01BB  0251  	SUBWF FCI_SHEAD_00000_1_strt, W
01BC  1803  	BTFSC STATUS,C
01BD  29C9  	GOTO	label28
01BE  1383  	BCF STATUS,IRP
01BF  1846  	BTFSC FCI_SHEAD_00000_arg_sSrc1+D'1',0
01C0  1783  	BSF STATUS,IRP
01C1  0845  	MOVF FCI_SHEAD_00000_arg_sSrc1, W
01C2  0751  	ADDWF FCI_SHEAD_00000_1_strt, W
01C3  0084  	MOVWF FSR
01C4  0880  	MOVF INDF, F
01C5  1903  	BTFSC STATUS,Z
01C6  29C9  	GOTO	label28
01C7  0AD1  	INCF FCI_SHEAD_00000_1_strt, F
01C8  29BA  	GOTO	label27
01C9        label28
01C9  084F  	MOVF FCI_SHEAD_00000_arg_iDst_len, W
01CA  0251  	SUBWF FCI_SHEAD_00000_1_strt, W
01CB  1803  	BTFSC STATUS,C
01CC  2A30  	GOTO	label36
01CD  01D0  	CLRF FCI_SHEAD_00000_1_len
01CE        label29
01CE  084C  	MOVF FCI_SHEAD_00000_arg_iSrc2_len, W
01CF  0250  	SUBWF FCI_SHEAD_00000_1_len, W
01D0  1803  	BTFSC STATUS,C
01D1  29DD  	GOTO	label30
01D2  1383  	BCF STATUS,IRP
01D3  184B  	BTFSC FCI_SHEAD_00000_arg_sSrc2+D'1',0
01D4  1783  	BSF STATUS,IRP
01D5  084A  	MOVF FCI_SHEAD_00000_arg_sSrc2, W
01D6  0750  	ADDWF FCI_SHEAD_00000_1_len, W
01D7  0084  	MOVWF FSR
01D8  0880  	MOVF INDF, F
01D9  1903  	BTFSC STATUS,Z
01DA  29DD  	GOTO	label30
01DB  0AD0  	INCF FCI_SHEAD_00000_1_len, F
01DC  29CE  	GOTO	label29
01DD        label30
01DD  0851  	MOVF FCI_SHEAD_00000_1_strt, W
01DE  024F  	SUBWF FCI_SHEAD_00000_arg_iDst_len, W
01DF  00D2  	MOVWF CompTempVar2110
01E0  0850  	MOVF FCI_SHEAD_00000_1_len, W
01E1  0252  	SUBWF CompTempVar2110, W
01E2  1803  	BTFSC STATUS,C
01E3  29E7  	GOTO	label31
01E4  0851  	MOVF FCI_SHEAD_00000_1_strt, W
01E5  024F  	SUBWF FCI_SHEAD_00000_arg_iDst_len, W
01E6  00D0  	MOVWF FCI_SHEAD_00000_1_len
01E7        label31
01E7  0850  	MOVF FCI_SHEAD_00000_1_len, W
01E8  0751  	ADDWF FCI_SHEAD_00000_1_strt, W
01E9  00CC  	MOVWF FCI_SHEAD_00000_arg_iSrc2_len
01EA  0850  	MOVF FCI_SHEAD_00000_1_len, W
01EB  00D1  	MOVWF FCI_SHEAD_00000_1_strt
01EC        label32
01EC  0851  	MOVF FCI_SHEAD_00000_1_strt, W
01ED  3C00  	SUBLW 0x00
01EE  1803  	BTFSC STATUS,C
01EF  2A06  	GOTO	label33
01F0  03D1  	DECF FCI_SHEAD_00000_1_strt, F
01F1  03CC  	DECF FCI_SHEAD_00000_arg_iSrc2_len, F
01F2  1383  	BCF STATUS,IRP
01F3  184B  	BTFSC FCI_SHEAD_00000_arg_sSrc2+D'1',0
01F4  1783  	BSF STATUS,IRP
01F5  084A  	MOVF FCI_SHEAD_00000_arg_sSrc2, W
01F6  0084  	MOVWF FSR
01F7  0851  	MOVF FCI_SHEAD_00000_1_strt, W
01F8  00D3  	MOVWF CompTempVar2117
01F9  0853  	MOVF CompTempVar2117, W
01FA  0784  	ADDWF FSR, F
01FB  0800  	MOVF INDF, W
01FC  00D4  	MOVWF CompTempVar2118
01FD  1383  	BCF STATUS,IRP
01FE  184E  	BTFSC FCI_SHEAD_00000_arg_sDst+D'1',0
01FF  1783  	BSF STATUS,IRP
0200  084D  	MOVF FCI_SHEAD_00000_arg_sDst, W
0201  074C  	ADDWF FCI_SHEAD_00000_arg_iSrc2_len, W
0202  0084  	MOVWF FSR
0203  0854  	MOVF CompTempVar2118, W
0204  0080  	MOVWF INDF
0205  29EC  	GOTO	label32
0206        label33
0206  01D1  	CLRF FCI_SHEAD_00000_1_strt
0207        label34
0207  0849  	MOVF FCI_SHEAD_00000_arg_iSrc1_len, W
0208  0251  	SUBWF FCI_SHEAD_00000_1_strt, W
0209  1803  	BTFSC STATUS,C
020A  2A2D  	GOTO	label35
020B  084F  	MOVF FCI_SHEAD_00000_arg_iDst_len, W
020C  0251  	SUBWF FCI_SHEAD_00000_1_strt, W
020D  1803  	BTFSC STATUS,C
020E  2A2D  	GOTO	label35
020F  1383  	BCF STATUS,IRP
0210  1846  	BTFSC FCI_SHEAD_00000_arg_sSrc1+D'1',0
0211  1783  	BSF STATUS,IRP
0212  0845  	MOVF FCI_SHEAD_00000_arg_sSrc1, W
0213  0751  	ADDWF FCI_SHEAD_00000_1_strt, W
0214  0084  	MOVWF FSR
0215  0880  	MOVF INDF, F
0216  1903  	BTFSC STATUS,Z
0217  2A2D  	GOTO	label35
0218  1383  	BCF STATUS,IRP
0219  1846  	BTFSC FCI_SHEAD_00000_arg_sSrc1+D'1',0
021A  1783  	BSF STATUS,IRP
021B  0845  	MOVF FCI_SHEAD_00000_arg_sSrc1, W
021C  0084  	MOVWF FSR
021D  0851  	MOVF FCI_SHEAD_00000_1_strt, W
021E  00D3  	MOVWF CompTempVar2121
021F  0853  	MOVF CompTempVar2121, W
0220  0784  	ADDWF FSR, F
0221  0800  	MOVF INDF, W
0222  00D4  	MOVWF CompTempVar2122
0223  1383  	BCF STATUS,IRP
0224  184E  	BTFSC FCI_SHEAD_00000_arg_sDst+D'1',0
0225  1783  	BSF STATUS,IRP
0226  084D  	MOVF FCI_SHEAD_00000_arg_sDst, W
0227  0751  	ADDWF FCI_SHEAD_00000_1_strt, W
0228  0084  	MOVWF FSR
0229  0854  	MOVF CompTempVar2122, W
022A  0080  	MOVWF INDF
022B  0AD1  	INCF FCI_SHEAD_00000_1_strt, F
022C  2A07  	GOTO	label34
022D        label35
022D  0851  	MOVF FCI_SHEAD_00000_1_strt, W
022E  07D0  	ADDWF FCI_SHEAD_00000_1_len, F
022F  2AB9  	GOTO	label43
0230        label36
0230  01D0  	CLRF FCI_SHEAD_00000_1_len
0231        label37
0231  0849  	MOVF FCI_SHEAD_00000_arg_iSrc1_len, W
0232  0250  	SUBWF FCI_SHEAD_00000_1_len, W
0233  1803  	BTFSC STATUS,C
0234  2AB9  	GOTO	label43
0235  084F  	MOVF FCI_SHEAD_00000_arg_iDst_len, W
0236  0250  	SUBWF FCI_SHEAD_00000_1_len, W
0237  1803  	BTFSC STATUS,C
0238  2AB9  	GOTO	label43
0239  1383  	BCF STATUS,IRP
023A  1846  	BTFSC FCI_SHEAD_00000_arg_sSrc1+D'1',0
023B  1783  	BSF STATUS,IRP
023C  0845  	MOVF FCI_SHEAD_00000_arg_sSrc1, W
023D  0750  	ADDWF FCI_SHEAD_00000_1_len, W
023E  0084  	MOVWF FSR
023F  0880  	MOVF INDF, F
0240  1903  	BTFSC STATUS,Z
0241  2AB9  	GOTO	label43
0242  1383  	BCF STATUS,IRP
0243  1846  	BTFSC FCI_SHEAD_00000_arg_sSrc1+D'1',0
0244  1783  	BSF STATUS,IRP
0245  0845  	MOVF FCI_SHEAD_00000_arg_sSrc1, W
0246  0084  	MOVWF FSR
0247  0850  	MOVF FCI_SHEAD_00000_1_len, W
0248  00D2  	MOVWF CompTempVar2129
0249  0852  	MOVF CompTempVar2129, W
024A  0784  	ADDWF FSR, F
024B  0800  	MOVF INDF, W
024C  00D3  	MOVWF CompTempVar2130
024D  1383  	BCF STATUS,IRP
024E  184E  	BTFSC FCI_SHEAD_00000_arg_sDst+D'1',0
024F  1783  	BSF STATUS,IRP
0250  084D  	MOVF FCI_SHEAD_00000_arg_sDst, W
0251  0750  	ADDWF FCI_SHEAD_00000_1_len, W
0252  0084  	MOVWF FSR
0253  0853  	MOVF CompTempVar2130, W
0254  0080  	MOVWF INDF
0255  0AD0  	INCF FCI_SHEAD_00000_1_len, F
0256  2A31  	GOTO	label37
0257        label38
0257  01D0  	CLRF FCI_SHEAD_00000_1_len
0258        label39
0258  0849  	MOVF FCI_SHEAD_00000_arg_iSrc1_len, W
0259  0250  	SUBWF FCI_SHEAD_00000_1_len, W
025A  1803  	BTFSC STATUS,C
025B  2A7E  	GOTO	label40
025C  084F  	MOVF FCI_SHEAD_00000_arg_iDst_len, W
025D  0250  	SUBWF FCI_SHEAD_00000_1_len, W
025E  1803  	BTFSC STATUS,C
025F  2A7E  	GOTO	label40
0260  1383  	BCF STATUS,IRP
0261  1846  	BTFSC FCI_SHEAD_00000_arg_sSrc1+D'1',0
0262  1783  	BSF STATUS,IRP
0263  0845  	MOVF FCI_SHEAD_00000_arg_sSrc1, W
0264  0750  	ADDWF FCI_SHEAD_00000_1_len, W
0265  0084  	MOVWF FSR
0266  0880  	MOVF INDF, F
0267  1903  	BTFSC STATUS,Z
0268  2A7E  	GOTO	label40
0269  1383  	BCF STATUS,IRP
026A  1846  	BTFSC FCI_SHEAD_00000_arg_sSrc1+D'1',0
026B  1783  	BSF STATUS,IRP
026C  0845  	MOVF FCI_SHEAD_00000_arg_sSrc1, W
026D  0084  	MOVWF FSR
026E  0850  	MOVF FCI_SHEAD_00000_1_len, W
026F  00D2  	MOVWF CompTempVar2137
0270  0852  	MOVF CompTempVar2137, W
0271  0784  	ADDWF FSR, F
0272  0800  	MOVF INDF, W
0273  00D3  	MOVWF CompTempVar2138
0274  1383  	BCF STATUS,IRP
0275  184E  	BTFSC FCI_SHEAD_00000_arg_sDst+D'1',0
0276  1783  	BSF STATUS,IRP
0277  084D  	MOVF FCI_SHEAD_00000_arg_sDst, W
0278  0750  	ADDWF FCI_SHEAD_00000_1_len, W
0279  0084  	MOVWF FSR
027A  0853  	MOVF CompTempVar2138, W
027B  0080  	MOVWF INDF
027C  0AD0  	INCF FCI_SHEAD_00000_1_len, F
027D  2A58  	GOTO	label39
027E        label40
027E  084F  	MOVF FCI_SHEAD_00000_arg_iDst_len, W
027F  0250  	SUBWF FCI_SHEAD_00000_1_len, W
0280  1803  	BTFSC STATUS,C
0281  2AB9  	GOTO	label43
0282  0850  	MOVF FCI_SHEAD_00000_1_len, W
0283  074D  	ADDWF FCI_SHEAD_00000_arg_sDst, W
0284  00D2  	MOVWF CompTempVar2143
0285  084E  	MOVF FCI_SHEAD_00000_arg_sDst+D'1', W
0286  00D3  	MOVWF CompTempVar2144
0287  1803  	BTFSC STATUS,C
0288  0AD3  	INCF CompTempVar2144, F
0289  0852  	MOVF CompTempVar2143, W
028A  00C5  	MOVWF FCI_SHEAD_00000_arg_sSrc1
028B  0853  	MOVF CompTempVar2144, W
028C  00C6  	MOVWF FCI_SHEAD_00000_arg_sSrc1+D'1'
028D  0850  	MOVF FCI_SHEAD_00000_1_len, W
028E  024F  	SUBWF FCI_SHEAD_00000_arg_iDst_len, W
028F  00C9  	MOVWF FCI_SHEAD_00000_arg_iSrc1_len
0290  01D1  	CLRF FCI_SHEAD_00000_1_strt
0291        label41
0291  084C  	MOVF FCI_SHEAD_00000_arg_iSrc2_len, W
0292  0251  	SUBWF FCI_SHEAD_00000_1_strt, W
0293  1803  	BTFSC STATUS,C
0294  2AB7  	GOTO	label42
0295  0849  	MOVF FCI_SHEAD_00000_arg_iSrc1_len, W
0296  0251  	SUBWF FCI_SHEAD_00000_1_strt, W
0297  1803  	BTFSC STATUS,C
0298  2AB7  	GOTO	label42
0299  1383  	BCF STATUS,IRP
029A  184B  	BTFSC FCI_SHEAD_00000_arg_sSrc2+D'1',0
029B  1783  	BSF STATUS,IRP
029C  084A  	MOVF FCI_SHEAD_00000_arg_sSrc2, W
029D  0751  	ADDWF FCI_SHEAD_00000_1_strt, W
029E  0084  	MOVWF FSR
029F  0880  	MOVF INDF, F
02A0  1903  	BTFSC STATUS,Z
02A1  2AB7  	GOTO	label42
02A2  1383  	BCF STATUS,IRP
02A3  184B  	BTFSC FCI_SHEAD_00000_arg_sSrc2+D'1',0
02A4  1783  	BSF STATUS,IRP
02A5  084A  	MOVF FCI_SHEAD_00000_arg_sSrc2, W
02A6  0084  	MOVWF FSR
02A7  0851  	MOVF FCI_SHEAD_00000_1_strt, W
02A8  00D2  	MOVWF CompTempVar2147
02A9  0852  	MOVF CompTempVar2147, W
02AA  0784  	ADDWF FSR, F
02AB  0800  	MOVF INDF, W
02AC  00D3  	MOVWF CompTempVar2148
02AD  1383  	BCF STATUS,IRP
02AE  1846  	BTFSC FCI_SHEAD_00000_arg_sSrc1+D'1',0
02AF  1783  	BSF STATUS,IRP
02B0  0845  	MOVF FCI_SHEAD_00000_arg_sSrc1, W
02B1  0751  	ADDWF FCI_SHEAD_00000_1_strt, W
02B2  0084  	MOVWF FSR
02B3  0853  	MOVF CompTempVar2148, W
02B4  0080  	MOVWF INDF
02B5  0AD1  	INCF FCI_SHEAD_00000_1_strt, F
02B6  2A91  	GOTO	label41
02B7        label42
02B7  0851  	MOVF FCI_SHEAD_00000_1_strt, W
02B8  07D0  	ADDWF FCI_SHEAD_00000_1_len, F
02B9        label43
02B9  084F  	MOVF FCI_SHEAD_00000_arg_iDst_len, W
02BA  0250  	SUBWF FCI_SHEAD_00000_1_len, W
02BB  1803  	BTFSC STATUS,C
02BC  0008  	RETURN
02BD  1383  	BCF STATUS,IRP
02BE  184E  	BTFSC FCI_SHEAD_00000_arg_sDst+D'1',0
02BF  1783  	BSF STATUS,IRP
02C0  084D  	MOVF FCI_SHEAD_00000_arg_sDst, W
02C1  0750  	ADDWF FCI_SHEAD_00000_1_len, W
02C2  0084  	MOVWF FSR
02C3  3000  	MOVLW 0x00
02C4  0080  	MOVWF INDF
02C5  0008  	RETURN
02C6        ; } FCI_SHEAD function end

	ORG 0x000002C6
02C6        FCI_SCOPY_00000
02C6        ; { FCI_SCOPY ; function begin
02C6  01DC  	CLRF FCI_SCOPY_00000_1_len
02C7        label44
02C7  0858  	MOVF FCI_SCOPY_00000_arg_iSrc_len, W
02C8  025C  	SUBWF FCI_SCOPY_00000_1_len, W
02C9  1803  	BTFSC STATUS,C
02CA  2AED  	GOTO	label45
02CB  085B  	MOVF FCI_SCOPY_00000_arg_iDst_len, W
02CC  025C  	SUBWF FCI_SCOPY_00000_1_len, W
02CD  1803  	BTFSC STATUS,C
02CE  2AED  	GOTO	label45
02CF  1383  	BCF STATUS,IRP
02D0  1846  	BTFSC FCI_SCOPY_00000_arg_sSrc+D'1',0
02D1  1783  	BSF STATUS,IRP
02D2  0845  	MOVF FCI_SCOPY_00000_arg_sSrc, W
02D3  075C  	ADDWF FCI_SCOPY_00000_1_len, W
02D4  0084  	MOVWF FSR
02D5  0880  	MOVF INDF, F
02D6  1903  	BTFSC STATUS,Z
02D7  2AED  	GOTO	label45
02D8  1383  	BCF STATUS,IRP
02D9  1846  	BTFSC FCI_SCOPY_00000_arg_sSrc+D'1',0
02DA  1783  	BSF STATUS,IRP
02DB  0845  	MOVF FCI_SCOPY_00000_arg_sSrc, W
02DC  0084  	MOVWF FSR
02DD  085C  	MOVF FCI_SCOPY_00000_1_len, W
02DE  00DD  	MOVWF CompTempVar2156
02DF  085D  	MOVF CompTempVar2156, W
02E0  0784  	ADDWF FSR, F
02E1  0800  	MOVF INDF, W
02E2  00DE  	MOVWF CompTempVar2157
02E3  1383  	BCF STATUS,IRP
02E4  185A  	BTFSC FCI_SCOPY_00000_arg_sDst+D'1',0
02E5  1783  	BSF STATUS,IRP
02E6  0859  	MOVF FCI_SCOPY_00000_arg_sDst, W
02E7  075C  	ADDWF FCI_SCOPY_00000_1_len, W
02E8  0084  	MOVWF FSR
02E9  085E  	MOVF CompTempVar2157, W
02EA  0080  	MOVWF INDF
02EB  0ADC  	INCF FCI_SCOPY_00000_1_len, F
02EC  2AC7  	GOTO	label44
02ED        label45
02ED  085B  	MOVF FCI_SCOPY_00000_arg_iDst_len, W
02EE  025C  	SUBWF FCI_SCOPY_00000_1_len, W
02EF  1803  	BTFSC STATUS,C
02F0  0008  	RETURN
02F1  1383  	BCF STATUS,IRP
02F2  185A  	BTFSC FCI_SCOPY_00000_arg_sDst+D'1',0
02F3  1783  	BSF STATUS,IRP
02F4  0859  	MOVF FCI_SCOPY_00000_arg_sDst, W
02F5  075C  	ADDWF FCI_SCOPY_00000_1_len, W
02F6  0084  	MOVWF FSR
02F7  3000  	MOVLW 0x00
02F8  0080  	MOVWF INDF
02F9  0008  	RETURN
02FA        ; } FCI_SCOPY function end

	ORG 0x000002FA
02FA        FC_CAL_UAR_00073
02FA        ; { FC_CAL_UART_Send_1 ; function begin
02FA        label46
02FA  1283  	BCF STATUS, RP0
02FB  1E0C  	BTFSS gbl_pir1,4
02FC  2AFA  	GOTO	label46
02FD  1683  	BSF STATUS, RP0
02FE  0849  	MOVF FC_CAL_UAR_00073_arg_nChar, W
02FF  1283  	BCF STATUS, RP0
0300  0099  	MOVWF gbl_txreg
0301  0008  	RETURN
0302        ; } FC_CAL_UART_Send_1 function end

	ORG 0x00000302
0302        FC_CAL_SPI_00064
0302        ; { FC_CAL_SPI_Master_Init_1 ; function begin
0302  1683  	BSF STATUS, RP0
0303  1303  	BCF STATUS, RP1
0304  1287  	BCF gbl_trisc,5
0305  1283  	BCF STATUS, RP0
0306  1687  	BSF gbl_portc,5
0307  1683  	BSF STATUS, RP0
0308  1607  	BSF gbl_trisc,4
0309  1187  	BCF gbl_trisc,3
030A  1283  	BCF STATUS, RP0
030B  1187  	BCF gbl_portc,3
030C  0194  	CLRF gbl_sspcon
030D  1214  	BCF gbl_sspcon,4
030E  1683  	BSF STATUS, RP0
030F  1714  	BSF gbl_sspstat,6
0310  1794  	BSF gbl_sspstat,7
0311  1283  	BCF STATUS, RP0
0312  1694  	BSF gbl_sspcon,5
0313  0008  	RETURN
0314        ; } FC_CAL_SPI_Master_Init_1 function end

	ORG 0x00000314
0314        FCM_set_tx_00056
0314        ; { FCM_set_tx_addr ; function begin
0314  30FB  	MOVLW 0xFB
0315  1683  	BSF STATUS, RP0
0316  1303  	BCF STATUS, RP1
0317  0507  	ANDWF gbl_trisc, W
0318  0087  	MOVWF gbl_trisc
0319  30FB  	MOVLW 0xFB
031A  1283  	BCF STATUS, RP0
031B  0507  	ANDWF gbl_portc, W
031C  0087  	MOVWF gbl_portc
031D  3005  	MOVLW 0x05
031E  1683  	BSF STATUS, RP0
031F  00F2  	MOVWF delay_us_00000_arg_del
0320  2010  	CALL delay_us_00000
0321  3030  	MOVLW 0x30
0322  00AF  	MOVWF gbl_FCV_SPI_DATA0
0323  082F  	MOVF gbl_FCV_SPI_DATA0, W
0324  00C5  	MOVWF FCD_SPI_Le_00052_arg_Char
0325  218F  	CALL FCD_SPI_Le_00052
0326  0843  	MOVF gbl_FCV_REG10_TX_ADDR_BYTE0, W
0327  00AF  	MOVWF gbl_FCV_SPI_DATA0
0328  082F  	MOVF gbl_FCV_SPI_DATA0, W
0329  00C5  	MOVWF FCD_SPI_Le_00052_arg_Char
032A  218F  	CALL FCD_SPI_Le_00052
032B  0824  	MOVF gbl_FCV_REG10_TX_ADDR_BYTE1, W
032C  00AF  	MOVWF gbl_FCV_SPI_DATA0
032D  082F  	MOVF gbl_FCV_SPI_DATA0, W
032E  00C5  	MOVWF FCD_SPI_Le_00052_arg_Char
032F  218F  	CALL FCD_SPI_Le_00052
0330  0827  	MOVF gbl_FCV_REG10_TX_ADDR_BYTE2, W
0331  00AF  	MOVWF gbl_FCV_SPI_DATA0
0332  082F  	MOVF gbl_FCV_SPI_DATA0, W
0333  00C5  	MOVWF FCD_SPI_Le_00052_arg_Char
0334  218F  	CALL FCD_SPI_Le_00052
0335  0829  	MOVF gbl_FCV_REG10_TX_ADDR_BYTE3, W
0336  00AF  	MOVWF gbl_FCV_SPI_DATA0
0337  082F  	MOVF gbl_FCV_SPI_DATA0, W
0338  00C5  	MOVWF FCD_SPI_Le_00052_arg_Char
0339  218F  	CALL FCD_SPI_Le_00052
033A  082B  	MOVF gbl_FCV_REG10_TX_ADDR_BYTE4, W
033B  00AF  	MOVWF gbl_FCV_SPI_DATA0
033C  082F  	MOVF gbl_FCV_SPI_DATA0, W
033D  00C5  	MOVWF FCD_SPI_Le_00052_arg_Char
033E  218F  	CALL FCD_SPI_Le_00052
033F  30FB  	MOVLW 0xFB
0340  0507  	ANDWF gbl_trisc, W
0341  0087  	MOVWF gbl_trisc
0342  30FB  	MOVLW 0xFB
0343  1283  	BCF STATUS, RP0
0344  0507  	ANDWF gbl_portc, W
0345  1683  	BSF STATUS, RP0
0346  00C5  	MOVWF CompTempVar2191
0347  3004  	MOVLW 0x04
0348  0445  	IORWF CompTempVar2191, W
0349  1283  	BCF STATUS, RP0
034A  0087  	MOVWF gbl_portc
034B  3005  	MOVLW 0x05
034C  1683  	BSF STATUS, RP0
034D  00F2  	MOVWF delay_us_00000_arg_del
034E  2010  	CALL delay_us_00000
034F  0008  	RETURN
0350        ; } FCM_set_tx_addr function end

	ORG 0x00000350
0350        FCM_set_rx_00057
0350        ; { FCM_set_rx_addr ; function begin
0350  30FB  	MOVLW 0xFB
0351  1683  	BSF STATUS, RP0
0352  1303  	BCF STATUS, RP1
0353  0507  	ANDWF gbl_trisc, W
0354  0087  	MOVWF gbl_trisc
0355  30FB  	MOVLW 0xFB
0356  1283  	BCF STATUS, RP0
0357  0507  	ANDWF gbl_portc, W
0358  0087  	MOVWF gbl_portc
0359  3005  	MOVLW 0x05
035A  1683  	BSF STATUS, RP0
035B  00F2  	MOVWF delay_us_00000_arg_del
035C  2010  	CALL delay_us_00000
035D  302A  	MOVLW 0x2A
035E  00AF  	MOVWF gbl_FCV_SPI_DATA0
035F  082F  	MOVF gbl_FCV_SPI_DATA0, W
0360  00C5  	MOVWF FCD_SPI_Le_00052_arg_Char
0361  218F  	CALL FCD_SPI_Le_00052
0362  0836  	MOVF gbl_FCV_REG0A_RX_ADDR_P0_BYTE0, W
0363  00AF  	MOVWF gbl_FCV_SPI_DATA0
0364  082F  	MOVF gbl_FCV_SPI_DATA0, W
0365  00C5  	MOVWF FCD_SPI_Le_00052_arg_Char
0366  218F  	CALL FCD_SPI_Le_00052
0367  0838  	MOVF gbl_FCV_REG0A_RX_ADDR_P0_BYTE1, W
0368  00AF  	MOVWF gbl_FCV_SPI_DATA0
0369  082F  	MOVF gbl_FCV_SPI_DATA0, W
036A  00C5  	MOVWF FCD_SPI_Le_00052_arg_Char
036B  218F  	CALL FCD_SPI_Le_00052
036C  083B  	MOVF gbl_FCV_REG0A_RX_ADDR_P0_BYTE2, W
036D  00AF  	MOVWF gbl_FCV_SPI_DATA0
036E  082F  	MOVF gbl_FCV_SPI_DATA0, W
036F  00C5  	MOVWF FCD_SPI_Le_00052_arg_Char
0370  218F  	CALL FCD_SPI_Le_00052
0371  083C  	MOVF gbl_FCV_REG0A_RX_ADDR_P0_BYTE3, W
0372  00AF  	MOVWF gbl_FCV_SPI_DATA0
0373  082F  	MOVF gbl_FCV_SPI_DATA0, W
0374  00C5  	MOVWF FCD_SPI_Le_00052_arg_Char
0375  218F  	CALL FCD_SPI_Le_00052
0376  083E  	MOVF gbl_FCV_REG0A_RX_ADDR_P0_BYTE4, W
0377  00AF  	MOVWF gbl_FCV_SPI_DATA0
0378  082F  	MOVF gbl_FCV_SPI_DATA0, W
0379  00C5  	MOVWF FCD_SPI_Le_00052_arg_Char
037A  218F  	CALL FCD_SPI_Le_00052
037B  30FB  	MOVLW 0xFB
037C  0507  	ANDWF gbl_trisc, W
037D  0087  	MOVWF gbl_trisc
037E  30FB  	MOVLW 0xFB
037F  1283  	BCF STATUS, RP0
0380  0507  	ANDWF gbl_portc, W
0381  1683  	BSF STATUS, RP0
0382  00C5  	MOVWF CompTempVar2192
0383  3004  	MOVLW 0x04
0384  0445  	IORWF CompTempVar2192, W
0385  1283  	BCF STATUS, RP0
0386  0087  	MOVWF gbl_portc
0387  3005  	MOVLW 0x05
0388  1683  	BSF STATUS, RP0
0389  00F2  	MOVWF delay_us_00000_arg_del
038A  2010  	CALL delay_us_00000
038B  0008  	RETURN
038C        ; } FCM_set_rx_addr function end

	ORG 0x0000038C
038C        FCM_read_r_0005F
038C        ; { FCM_read_recieved_data ; function begin
038C  1683  	BSF STATUS, RP0
038D  1303  	BCF STATUS, RP1
038E  01C1  	CLRF gbl_FCV_LOOP_COUNT
038F  01C7  	CLRF CompTempVar2231
0390  3000  	MOVLW HIGH(CompTempVar2231+D'0')
0391  00C6  	MOVWF FCI_SCOPY_00000_arg_sSrc+D'1'
0392  30C7  	MOVLW LOW(CompTempVar2231+D'0')
0393  00C5  	MOVWF FCI_SCOPY_00000_arg_sSrc
0394  01D8  	CLRF FCI_SCOPY_00000_arg_iSrc_len
0395  3000  	MOVLW HIGH(gbl_FCV_PAYLOAD_RECIEVE+D'0')
0396  00DA  	MOVWF FCI_SCOPY_00000_arg_sDst+D'1'
0397  3034  	MOVLW LOW(gbl_FCV_PAYLOAD_RECIEVE+D'0')
0398  00D9  	MOVWF FCI_SCOPY_00000_arg_sDst
0399  3012  	MOVLW 0x12
039A  00DB  	MOVWF FCI_SCOPY_00000_arg_iDst_len
039B  22C6  	CALL FCI_SCOPY_00000
039C  30FB  	MOVLW 0xFB
039D  0507  	ANDWF gbl_trisc, W
039E  0087  	MOVWF gbl_trisc
039F  30FB  	MOVLW 0xFB
03A0  1283  	BCF STATUS, RP0
03A1  0507  	ANDWF gbl_portc, W
03A2  0087  	MOVWF gbl_portc
03A3  3005  	MOVLW 0x05
03A4  1683  	BSF STATUS, RP0
03A5  00F2  	MOVWF delay_us_00000_arg_del
03A6  2010  	CALL delay_us_00000
03A7  3061  	MOVLW 0x61
03A8  00AF  	MOVWF gbl_FCV_SPI_DATA0
03A9  082F  	MOVF gbl_FCV_SPI_DATA0, W
03AA  00C5  	MOVWF FCD_SPI_Le_00052_arg_Char
03AB  218F  	CALL FCD_SPI_Le_00052
03AC        label47
03AC  2184  	CALL FCD_SPI_Le_00054
03AD  0846  	MOVF CompTempVarRet2190, W
03AE  00B3  	MOVWF gbl_FCV_DATA_TO_READ
03AF  3000  	MOVLW HIGH(gbl_FCV_PAYLOAD_RECIEVE+D'0')
03B0  00C6  	MOVWF FCI_SHEAD_00000_arg_sSrc1+D'1'
03B1  3034  	MOVLW LOW(gbl_FCV_PAYLOAD_RECIEVE+D'0')
03B2  00C5  	MOVWF FCI_SHEAD_00000_arg_sSrc1
03B3  3012  	MOVLW 0x12
03B4  00C9  	MOVWF FCI_SHEAD_00000_arg_iSrc1_len
03B5  3000  	MOVLW HIGH(gbl_FCV_DATA_TO_READ+D'0')
03B6  00CB  	MOVWF FCI_SHEAD_00000_arg_sSrc2+D'1'
03B7  30B3  	MOVLW LOW(gbl_FCV_DATA_TO_READ+D'0')
03B8  00CA  	MOVWF FCI_SHEAD_00000_arg_sSrc2
03B9  3001  	MOVLW 0x01
03BA  00CC  	MOVWF FCI_SHEAD_00000_arg_iSrc2_len
03BB  3000  	MOVLW HIGH(gbl_FCV_PAYLOAD_RECIEVE+D'0')
03BC  00CE  	MOVWF FCI_SHEAD_00000_arg_sDst+D'1'
03BD  3034  	MOVLW LOW(gbl_FCV_PAYLOAD_RECIEVE+D'0')
03BE  00CD  	MOVWF FCI_SHEAD_00000_arg_sDst
03BF  3012  	MOVLW 0x12
03C0  00CF  	MOVWF FCI_SHEAD_00000_arg_iDst_len
03C1  21B0  	CALL FCI_SHEAD_00000
03C2  0A41  	INCF gbl_FCV_LOOP_COUNT, W
03C3  00C1  	MOVWF gbl_FCV_LOOP_COUNT
03C4  0840  	MOVF gbl_FCV_PAYLOADSIZE, W
03C5  0641  	XORWF gbl_FCV_LOOP_COUNT, W
03C6  1D03  	BTFSS STATUS,Z
03C7  2BAC  	GOTO	label47
03C8  30FB  	MOVLW 0xFB
03C9  0507  	ANDWF gbl_trisc, W
03CA  0087  	MOVWF gbl_trisc
03CB  30FB  	MOVLW 0xFB
03CC  1283  	BCF STATUS, RP0
03CD  0507  	ANDWF gbl_portc, W
03CE  1683  	BSF STATUS, RP0
03CF  00C5  	MOVWF CompTempVar2237
03D0  3004  	MOVLW 0x04
03D1  0445  	IORWF CompTempVar2237, W
03D2  1283  	BCF STATUS, RP0
03D3  0087  	MOVWF gbl_portc
03D4  3005  	MOVLW 0x05
03D5  1683  	BSF STATUS, RP0
03D6  00F2  	MOVWF delay_us_00000_arg_del
03D7  2010  	CALL delay_us_00000
03D8  0008  	RETURN
03D9        ; } FCM_read_recieved_data function end

	ORG 0x000003D9
03D9        FCM_flush__00058
03D9        ; { FCM_flush_fifo_txrx ; function begin
03D9  30FB  	MOVLW 0xFB
03DA  1683  	BSF STATUS, RP0
03DB  1303  	BCF STATUS, RP1
03DC  0507  	ANDWF gbl_trisc, W
03DD  0087  	MOVWF gbl_trisc
03DE  30FB  	MOVLW 0xFB
03DF  1283  	BCF STATUS, RP0
03E0  0507  	ANDWF gbl_portc, W
03E1  0087  	MOVWF gbl_portc
03E2  3005  	MOVLW 0x05
03E3  1683  	BSF STATUS, RP0
03E4  00F2  	MOVWF delay_us_00000_arg_del
03E5  2010  	CALL delay_us_00000
03E6  30E1  	MOVLW 0xE1
03E7  00AF  	MOVWF gbl_FCV_SPI_DATA0
03E8  082F  	MOVF gbl_FCV_SPI_DATA0, W
03E9  00C5  	MOVWF FCD_SPI_Le_00052_arg_Char
03EA  218F  	CALL FCD_SPI_Le_00052
03EB  30E2  	MOVLW 0xE2
03EC  00AF  	MOVWF gbl_FCV_SPI_DATA0
03ED  082F  	MOVF gbl_FCV_SPI_DATA0, W
03EE  00C5  	MOVWF FCD_SPI_Le_00052_arg_Char
03EF  218F  	CALL FCD_SPI_Le_00052
03F0  30FB  	MOVLW 0xFB
03F1  0507  	ANDWF gbl_trisc, W
03F2  0087  	MOVWF gbl_trisc
03F3  30FB  	MOVLW 0xFB
03F4  1283  	BCF STATUS, RP0
03F5  0507  	ANDWF gbl_portc, W
03F6  1683  	BSF STATUS, RP0
03F7  00C5  	MOVWF CompTempVar2193
03F8  3004  	MOVLW 0x04
03F9  0445  	IORWF CompTempVar2193, W
03FA  1283  	BCF STATUS, RP0
03FB  0087  	MOVWF gbl_portc
03FC  3005  	MOVLW 0x05
03FD  1683  	BSF STATUS, RP0
03FE  00F2  	MOVWF delay_us_00000_arg_del
03FF  2010  	CALL delay_us_00000
0400  0008  	RETURN
0401        ; } FCM_flush_fifo_txrx function end

	ORG 0x00000401
0401        FCM_cmd_wr_00051
0401        ; { FCM_cmd_write_reg ; function begin
0401  30FB  	MOVLW 0xFB
0402  1683  	BSF STATUS, RP0
0403  1303  	BCF STATUS, RP1
0404  0507  	ANDWF gbl_trisc, W
0405  0087  	MOVWF gbl_trisc
0406  30FB  	MOVLW 0xFB
0407  1283  	BCF STATUS, RP0
0408  0507  	ANDWF gbl_portc, W
0409  0087  	MOVWF gbl_portc
040A  3020  	MOVLW 0x20
040B  1683  	BSF STATUS, RP0
040C  073F  	ADDWF gbl_FCV_REG_TO_WRITE, W
040D  00AF  	MOVWF gbl_FCV_SPI_DATA0
040E  082F  	MOVF gbl_FCV_SPI_DATA0, W
040F  00C5  	MOVWF FCD_SPI_Le_00052_arg_Char
0410  218F  	CALL FCD_SPI_Le_00052
0411  0823  	MOVF gbl_FCV_DATA_TO_WRITE, W
0412  00AF  	MOVWF gbl_FCV_SPI_DATA0
0413  082F  	MOVF gbl_FCV_SPI_DATA0, W
0414  00C5  	MOVWF FCD_SPI_Le_00052_arg_Char
0415  218F  	CALL FCD_SPI_Le_00052
0416  30FB  	MOVLW 0xFB
0417  0507  	ANDWF gbl_trisc, W
0418  0087  	MOVWF gbl_trisc
0419  30FB  	MOVLW 0xFB
041A  1283  	BCF STATUS, RP0
041B  0507  	ANDWF gbl_portc, W
041C  1683  	BSF STATUS, RP0
041D  00C5  	MOVWF CompTempVar2188
041E  3004  	MOVLW 0x04
041F  0445  	IORWF CompTempVar2188, W
0420  1283  	BCF STATUS, RP0
0421  0087  	MOVWF gbl_portc
0422  0008  	RETURN
0423        ; } FCM_cmd_write_reg function end

	ORG 0x00000423
0423        FCM_check__0005D
0423        ; { FCM_check_status ; function begin
0423  3007  	MOVLW 0x07
0424  1683  	BSF STATUS, RP0
0425  1303  	BCF STATUS, RP1
0426  00AF  	MOVWF gbl_FCV_SPI_DATA0
0427  2193  	CALL FCM_cmd_re_00053
0428  1683  	BSF STATUS, RP0
0429  0832  	MOVF gbl_FCV_SPI_DATA1, W
042A  00B4  	MOVWF gbl_FCV_REG07
042B  3017  	MOVLW 0x17
042C  00AF  	MOVWF gbl_FCV_SPI_DATA0
042D  2193  	CALL FCM_cmd_re_00053
042E  1683  	BSF STATUS, RP0
042F  0832  	MOVF gbl_FCV_SPI_DATA1, W
0430  00B0  	MOVWF gbl_FCV_REG17
0431  0008  	RETURN
0432        ; } FCM_check_status function end

	ORG 0x00000432
0432        FC_CAL_UAR_00072
0432        ; { FC_CAL_UART_Init_1 ; function begin
0432  1683  	BSF STATUS, RP0
0433  1303  	BCF STATUS, RP1
0434  1518  	BSF gbl_txsta,2
0435  3081  	MOVLW 0x81
0436  0099  	MOVWF gbl_spbrg
0437  1283  	BCF STATUS, RP0
0438  0198  	CLRF gbl_rcsta
0439  1798  	BSF gbl_rcsta,7
043A  1683  	BSF STATUS, RP0
043B  1698  	BSF gbl_txsta,5
043C  1283  	BCF STATUS, RP0
043D  1618  	BSF gbl_rcsta,4
043E  1683  	BSF STATUS, RP0
043F  128C  	BCF gbl_pie1,5
0440  0008  	RETURN
0441        ; } FC_CAL_UART_Init_1 function end

	ORG 0x00000441
0441        FCM_radio__0005E
0441        ; { FCM_radio_recieve_data ; function begin
0441  3004  	MOVLW 0x04
0442  1683  	BSF STATUS, RP0
0443  1303  	BCF STATUS, RP1
0444  00C5  	MOVWF delay_ms_00000_arg_del
0445  2015  	CALL delay_ms_00000
0446  2423  	CALL FCM_check__0005D
0447  0834  	MOVF gbl_FCV_REG07, W
0448  3A40  	XORLW 0x40
0449  1D03  	BTFSS STATUS,Z
044A  2C68  	GOTO	label48
044B  30DF  	MOVLW 0xDF
044C  0505  	ANDWF gbl_trisa, W
044D  0085  	MOVWF gbl_trisa
044E  30DF  	MOVLW 0xDF
044F  1283  	BCF STATUS, RP0
0450  0505  	ANDWF gbl_porta, W
0451  1683  	BSF STATUS, RP0
0452  00C5  	MOVWF CompTempVar2230
0453  3020  	MOVLW 0x20
0454  0445  	IORWF CompTempVar2230, W
0455  1283  	BCF STATUS, RP0
0456  0085  	MOVWF gbl_porta
0457  238C  	CALL FCM_read_r_0005F
0458  3007  	MOVLW 0x07
0459  00BF  	MOVWF gbl_FCV_REG_TO_WRITE
045A  304E  	MOVLW 0x4E
045B  00A3  	MOVWF gbl_FCV_DATA_TO_WRITE
045C  2401  	CALL FCM_cmd_wr_00051
045D  30DF  	MOVLW 0xDF
045E  1683  	BSF STATUS, RP0
045F  0505  	ANDWF gbl_trisa, W
0460  0085  	MOVWF gbl_trisa
0461  30DF  	MOVLW 0xDF
0462  1283  	BCF STATUS, RP0
0463  0505  	ANDWF gbl_porta, W
0464  0085  	MOVWF gbl_porta
0465  1683  	BSF STATUS, RP0
0466  15A6  	BSF gbl_FCV_FLAG_RADIO_RX,3
0467  2C6F  	GOTO	label49
0468        label48
0468  30DF  	MOVLW 0xDF
0469  0505  	ANDWF gbl_trisa, W
046A  0085  	MOVWF gbl_trisa
046B  30DF  	MOVLW 0xDF
046C  1283  	BCF STATUS, RP0
046D  0505  	ANDWF gbl_porta, W
046E  0085  	MOVWF gbl_porta
046F        label49
046F  23D9  	CALL FCM_flush__00058
0470  0008  	RETURN
0471        ; } FCM_radio_recieve_data function end

	ORG 0x00000471
0471        FCM_radio__0005C
0471        ; { FCM_radio_send_data ; function begin
0471  30FB  	MOVLW 0xFB
0472  1683  	BSF STATUS, RP0
0473  1303  	BCF STATUS, RP1
0474  0507  	ANDWF gbl_trisc, W
0475  0087  	MOVWF gbl_trisc
0476  30FB  	MOVLW 0xFB
0477  1283  	BCF STATUS, RP0
0478  0507  	ANDWF gbl_portc, W
0479  0087  	MOVWF gbl_portc
047A  3005  	MOVLW 0x05
047B  1683  	BSF STATUS, RP0
047C  00F2  	MOVWF delay_us_00000_arg_del
047D  2010  	CALL delay_us_00000
047E  30A0  	MOVLW 0xA0
047F  00AF  	MOVWF gbl_FCV_SPI_DATA0
0480  082F  	MOVF gbl_FCV_SPI_DATA0, W
0481  00C5  	MOVWF FCD_SPI_Le_00052_arg_Char
0482  218F  	CALL FCD_SPI_Le_00052
0483  01C1  	CLRF gbl_FCV_LOOP_COUNT
0484        label50
0484  1283  	BCF STATUS, RP0
0485  1383  	BCF	STATUS,IRP
0486  3046  	MOVLW LOW(gbl_FCV_PAYLOAD_TRANSMIT+D'0')
0487  0084  	MOVWF FSR
0488  1683  	BSF STATUS, RP0
0489  0841  	MOVF gbl_FCV_LOOP_COUNT, W
048A  0784  	ADDWF FSR, F
048B  0800  	MOVF INDF, W
048C  00AF  	MOVWF gbl_FCV_SPI_DATA0
048D  082F  	MOVF gbl_FCV_SPI_DATA0, W
048E  00C5  	MOVWF FCD_SPI_Le_00052_arg_Char
048F  218F  	CALL FCD_SPI_Le_00052
0490  0A41  	INCF gbl_FCV_LOOP_COUNT, W
0491  00C1  	MOVWF gbl_FCV_LOOP_COUNT
0492  0840  	MOVF gbl_FCV_PAYLOADSIZE, W
0493  0641  	XORWF gbl_FCV_LOOP_COUNT, W
0494  1D03  	BTFSS STATUS,Z
0495  2C84  	GOTO	label50
0496  30FB  	MOVLW 0xFB
0497  0507  	ANDWF gbl_trisc, W
0498  0087  	MOVWF gbl_trisc
0499  30FB  	MOVLW 0xFB
049A  1283  	BCF STATUS, RP0
049B  0507  	ANDWF gbl_portc, W
049C  1683  	BSF STATUS, RP0
049D  00C5  	MOVWF CompTempVar2227
049E  3004  	MOVLW 0x04
049F  0445  	IORWF CompTempVar2227, W
04A0  1283  	BCF STATUS, RP0
04A1  0087  	MOVWF gbl_portc
04A2  3005  	MOVLW 0x05
04A3  1683  	BSF STATUS, RP0
04A4  00F2  	MOVWF delay_us_00000_arg_del
04A5  2010  	CALL delay_us_00000
04A6  30FD  	MOVLW 0xFD
04A7  0507  	ANDWF gbl_trisc, W
04A8  0087  	MOVWF gbl_trisc
04A9  30FD  	MOVLW 0xFD
04AA  1283  	BCF STATUS, RP0
04AB  0507  	ANDWF gbl_portc, W
04AC  1683  	BSF STATUS, RP0
04AD  00C5  	MOVWF CompTempVar2228
04AE  3002  	MOVLW 0x02
04AF  0445  	IORWF CompTempVar2228, W
04B0  1283  	BCF STATUS, RP0
04B1  0087  	MOVWF gbl_portc
04B2  3006  	MOVLW 0x06
04B3  1683  	BSF STATUS, RP0
04B4  00C5  	MOVWF delay_ms_00000_arg_del
04B5  2015  	CALL delay_ms_00000
04B6  30FD  	MOVLW 0xFD
04B7  0507  	ANDWF gbl_trisc, W
04B8  0087  	MOVWF gbl_trisc
04B9  30FD  	MOVLW 0xFD
04BA  1283  	BCF STATUS, RP0
04BB  0507  	ANDWF gbl_portc, W
04BC  0087  	MOVWF gbl_portc
04BD  2423  	CALL FCM_check__0005D
04BE  0834  	MOVF gbl_FCV_REG07, W
04BF  3A2E  	XORLW 0x2E
04C0  1D03  	BTFSS STATUS,Z
04C1  2CDD  	GOTO	label51
04C2  30FE  	MOVLW 0xFE
04C3  0507  	ANDWF gbl_trisc, W
04C4  0087  	MOVWF gbl_trisc
04C5  30FE  	MOVLW 0xFE
04C6  1283  	BCF STATUS, RP0
04C7  0507  	ANDWF gbl_portc, W
04C8  1683  	BSF STATUS, RP0
04C9  00C5  	MOVWF CompTempVar2229
04CA  3001  	MOVLW 0x01
04CB  0445  	IORWF CompTempVar2229, W
04CC  1283  	BCF STATUS, RP0
04CD  0087  	MOVWF gbl_portc
04CE  3007  	MOVLW 0x07
04CF  1683  	BSF STATUS, RP0
04D0  00BF  	MOVWF gbl_FCV_REG_TO_WRITE
04D1  302E  	MOVLW 0x2E
04D2  00A3  	MOVWF gbl_FCV_DATA_TO_WRITE
04D3  2401  	CALL FCM_cmd_wr_00051
04D4  23D9  	CALL FCM_flush__00058
04D5  30FE  	MOVLW 0xFE
04D6  0507  	ANDWF gbl_trisc, W
04D7  0087  	MOVWF gbl_trisc
04D8  30FE  	MOVLW 0xFE
04D9  1283  	BCF STATUS, RP0
04DA  0507  	ANDWF gbl_portc, W
04DB  0087  	MOVWF gbl_portc
04DC  0008  	RETURN
04DD        label51
04DD  0834  	MOVF gbl_FCV_REG07, W
04DE  3A1E  	XORLW 0x1E
04DF  1D03  	BTFSS STATUS,Z
04E0  2CE9  	GOTO	label52
04E1  23D9  	CALL FCM_flush__00058
04E2  3007  	MOVLW 0x07
04E3  00BF  	MOVWF gbl_FCV_REG_TO_WRITE
04E4  301E  	MOVLW 0x1E
04E5  00A3  	MOVWF gbl_FCV_DATA_TO_WRITE
04E6  2401  	CALL FCM_cmd_wr_00051
04E7  23D9  	CALL FCM_flush__00058
04E8  0008  	RETURN
04E9        label52
04E9  23D9  	CALL FCM_flush__00058
04EA  0008  	RETURN
04EB        ; } FCM_radio_send_data function end

	ORG 0x000004EB
04EB        FCM_radio__0005B
04EB        ; { FCM_radio_init_tx ; function begin
04EB  1683  	BSF STATUS, RP0
04EC  1303  	BCF STATUS, RP1
04ED  01BF  	CLRF gbl_FCV_REG_TO_WRITE
04EE  300E  	MOVLW 0x0E
04EF  00A3  	MOVWF gbl_FCV_DATA_TO_WRITE
04F0  2401  	CALL FCM_cmd_wr_00051
04F1  3001  	MOVLW 0x01
04F2  1683  	BSF STATUS, RP0
04F3  00BF  	MOVWF gbl_FCV_REG_TO_WRITE
04F4  303F  	MOVLW 0x3F
04F5  00A3  	MOVWF gbl_FCV_DATA_TO_WRITE
04F6  2401  	CALL FCM_cmd_wr_00051
04F7  3002  	MOVLW 0x02
04F8  1683  	BSF STATUS, RP0
04F9  00BF  	MOVWF gbl_FCV_REG_TO_WRITE
04FA  3003  	MOVLW 0x03
04FB  00A3  	MOVWF gbl_FCV_DATA_TO_WRITE
04FC  2401  	CALL FCM_cmd_wr_00051
04FD  3003  	MOVLW 0x03
04FE  1683  	BSF STATUS, RP0
04FF  00BF  	MOVWF gbl_FCV_REG_TO_WRITE
0500  00A3  	MOVWF gbl_FCV_DATA_TO_WRITE
0501  2401  	CALL FCM_cmd_wr_00051
0502  3004  	MOVLW 0x04
0503  1683  	BSF STATUS, RP0
0504  00BF  	MOVWF gbl_FCV_REG_TO_WRITE
0505  305F  	MOVLW 0x5F
0506  00A3  	MOVWF gbl_FCV_DATA_TO_WRITE
0507  2401  	CALL FCM_cmd_wr_00051
0508  3005  	MOVLW 0x05
0509  1683  	BSF STATUS, RP0
050A  00BF  	MOVWF gbl_FCV_REG_TO_WRITE
050B  304C  	MOVLW 0x4C
050C  00A3  	MOVWF gbl_FCV_DATA_TO_WRITE
050D  2401  	CALL FCM_cmd_wr_00051
050E  3006  	MOVLW 0x06
050F  1683  	BSF STATUS, RP0
0510  00BF  	MOVWF gbl_FCV_REG_TO_WRITE
0511  3027  	MOVLW 0x27
0512  00A3  	MOVWF gbl_FCV_DATA_TO_WRITE
0513  2401  	CALL FCM_cmd_wr_00051
0514  3011  	MOVLW 0x11
0515  1683  	BSF STATUS, RP0
0516  00BF  	MOVWF gbl_FCV_REG_TO_WRITE
0517  0840  	MOVF gbl_FCV_PAYLOADSIZE, W
0518  00A3  	MOVWF gbl_FCV_DATA_TO_WRITE
0519  2401  	CALL FCM_cmd_wr_00051
051A  2314  	CALL FCM_set_tx_00056
051B  2350  	CALL FCM_set_rx_00057
051C  23D9  	CALL FCM_flush__00058
051D  0008  	RETURN
051E        ; } FCM_radio_init_tx function end

	ORG 0x0000051E
051E        FCM_radio__00055
051E        ; { FCM_radio_init_rx ; function begin
051E  1683  	BSF STATUS, RP0
051F  1303  	BCF STATUS, RP1
0520  01BF  	CLRF gbl_FCV_REG_TO_WRITE
0521  300F  	MOVLW 0x0F
0522  00A3  	MOVWF gbl_FCV_DATA_TO_WRITE
0523  2401  	CALL FCM_cmd_wr_00051
0524  3001  	MOVLW 0x01
0525  1683  	BSF STATUS, RP0
0526  00BF  	MOVWF gbl_FCV_REG_TO_WRITE
0527  303F  	MOVLW 0x3F
0528  00A3  	MOVWF gbl_FCV_DATA_TO_WRITE
0529  2401  	CALL FCM_cmd_wr_00051
052A  3002  	MOVLW 0x02
052B  1683  	BSF STATUS, RP0
052C  00BF  	MOVWF gbl_FCV_REG_TO_WRITE
052D  3003  	MOVLW 0x03
052E  00A3  	MOVWF gbl_FCV_DATA_TO_WRITE
052F  2401  	CALL FCM_cmd_wr_00051
0530  3003  	MOVLW 0x03
0531  1683  	BSF STATUS, RP0
0532  00BF  	MOVWF gbl_FCV_REG_TO_WRITE
0533  00A3  	MOVWF gbl_FCV_DATA_TO_WRITE
0534  2401  	CALL FCM_cmd_wr_00051
0535  3004  	MOVLW 0x04
0536  1683  	BSF STATUS, RP0
0537  00BF  	MOVWF gbl_FCV_REG_TO_WRITE
0538  305F  	MOVLW 0x5F
0539  00A3  	MOVWF gbl_FCV_DATA_TO_WRITE
053A  2401  	CALL FCM_cmd_wr_00051
053B  3005  	MOVLW 0x05
053C  1683  	BSF STATUS, RP0
053D  00BF  	MOVWF gbl_FCV_REG_TO_WRITE
053E  304C  	MOVLW 0x4C
053F  00A3  	MOVWF gbl_FCV_DATA_TO_WRITE
0540  2401  	CALL FCM_cmd_wr_00051
0541  3006  	MOVLW 0x06
0542  1683  	BSF STATUS, RP0
0543  00BF  	MOVWF gbl_FCV_REG_TO_WRITE
0544  3027  	MOVLW 0x27
0545  00A3  	MOVWF gbl_FCV_DATA_TO_WRITE
0546  2401  	CALL FCM_cmd_wr_00051
0547  3011  	MOVLW 0x11
0548  1683  	BSF STATUS, RP0
0549  00BF  	MOVWF gbl_FCV_REG_TO_WRITE
054A  0840  	MOVF gbl_FCV_PAYLOADSIZE, W
054B  00A3  	MOVWF gbl_FCV_DATA_TO_WRITE
054C  2401  	CALL FCM_cmd_wr_00051
054D  2314  	CALL FCM_set_tx_00056
054E  2350  	CALL FCM_set_rx_00057
054F  23D9  	CALL FCM_flush__00058
0550  0008  	RETURN
0551        ; } FCM_radio_init_rx function end

	ORG 0x00000551
0551        FCD_SPI_Le_00067
0551        ; { FCD_SPI_Legacy0_SPI_Init ; function begin
0551  1683  	BSF STATUS, RP0
0552  1303  	BCF STATUS, RP1
0553  1005  	BCF gbl_trisa,0
0554  1283  	BCF STATUS, RP0
0555  1405  	BSF gbl_porta,0
0556  1683  	BSF STATUS, RP0
0557  1005  	BCF gbl_trisa,0
0558  1283  	BCF STATUS, RP0
0559  1405  	BSF gbl_porta,0
055A  2302  	CALL FC_CAL_SPI_00064
055B  0008  	RETURN
055C        ; } FCD_SPI_Legacy0_SPI_Init function end

	ORG 0x0000055C
055C        FCD_RS2320_00078
055C        ; { FCD_RS2320_SendRS232String ; function begin
055C  01C8  	CLRF FCD_RS2320_00078_1_idx
055D        label53
055D  0847  	MOVF FCD_RS2320_00078_arg_MSZ_String, W
055E  0248  	SUBWF FCD_RS2320_00078_1_idx, W
055F  1803  	BTFSC STATUS,C
0560  0008  	RETURN
0561  1383  	BCF STATUS,IRP
0562  1846  	BTFSC FCD_RS2320_00078_arg_String+D'1',0
0563  1783  	BSF STATUS,IRP
0564  0845  	MOVF FCD_RS2320_00078_arg_String, W
0565  0748  	ADDWF FCD_RS2320_00078_1_idx, W
0566  0084  	MOVWF FSR
0567  0880  	MOVF INDF, F
0568  1903  	BTFSC STATUS,Z
0569  0008  	RETURN
056A  1383  	BCF STATUS,IRP
056B  1846  	BTFSC FCD_RS2320_00078_arg_String+D'1',0
056C  1783  	BSF STATUS,IRP
056D  0845  	MOVF FCD_RS2320_00078_arg_String, W
056E  0748  	ADDWF FCD_RS2320_00078_1_idx, W
056F  0084  	MOVWF FSR
0570  0800  	MOVF INDF, W
0571  00C9  	MOVWF FC_CAL_UAR_00073_arg_nChar
0572  01CA  	CLRF FC_CAL_UAR_00073_arg_nChar+D'1'
0573  22FA  	CALL FC_CAL_UAR_00073
0574  1683  	BSF STATUS, RP0
0575  0AC8  	INCF FCD_RS2320_00078_1_idx, F
0576  2D5D  	GOTO	label53
0577        ; } FCD_RS2320_SendRS232String function end

	ORG 0x00000577
0577        main
0577        ; { main ; function begin
0577  3007  	MOVLW 0x07
0578  1683  	BSF STATUS, RP0
0579  1303  	BCF STATUS, RP1
057A  009F  	MOVWF gbl_adcon1
057B  2432  	CALL FC_CAL_UAR_00072
057C  30C0  	MOVLW 0xC0
057D  0081  	MOVWF gbl_option_reg
057E  2551  	CALL FCD_SPI_Le_00067
057F  3010  	MOVLW 0x10
0580  1683  	BSF STATUS, RP0
0581  00C0  	MOVWF gbl_FCV_PAYLOADSIZE
0582  3007  	MOVLW 0x07
0583  0405  	IORWF gbl_trisa, W
0584  0085  	MOVWF gbl_trisa
0585  3007  	MOVLW 0x07
0586  1283  	BCF STATUS, RP0
0587  0505  	ANDWF gbl_porta, W
0588  1683  	BSF STATUS, RP0
0589  00BE  	MOVWF gbl_FCV_REG0A_RX_ADDR_P0_BYTE4
058A  3008  	MOVLW 0x08
058B  0405  	IORWF gbl_trisa, W
058C  0085  	MOVWF gbl_trisa
058D  3008  	MOVLW 0x08
058E  1283  	BCF STATUS, RP0
058F  0505  	ANDWF gbl_porta, W
0590  1683  	BSF STATUS, RP0
0591  00C5  	MOVWF CompTempVar2265
0592  01C6  	CLRF CompTempVar2266
0593  3008  	MOVLW 0x08
0594  0245  	SUBWF CompTempVar2265, W
0595  1903  	BTFSC STATUS,Z
0596  0AC6  	INCF CompTempVar2266, F
0597  1026  	BCF gbl_FCV_TRANCIEVER_BIT,0
0598  0846  	MOVF CompTempVar2266, W
0599  1D03  	BTFSS STATUS,Z
059A  1426  	BSF gbl_FCV_TRANCIEVER_BIT,0
059B  3030  	MOVLW 0x30
059C  073E  	ADDWF gbl_FCV_REG0A_RX_ADDR_P0_BYTE4, W
059D  00BE  	MOVWF gbl_FCV_REG0A_RX_ADDR_P0_BYTE4
059E  083E  	MOVF gbl_FCV_REG0A_RX_ADDR_P0_BYTE4, W
059F  00AB  	MOVWF gbl_FCV_REG10_TX_ADDR_BYTE4
05A0  3047  	MOVLW 0x47
05A1  00C3  	MOVWF gbl_FCV_REG10_TX_ADDR_BYTE0
05A2  302D  	MOVLW 0x2D
05A3  00A4  	MOVWF gbl_FCV_REG10_TX_ADDR_BYTE1
05A4  3050  	MOVLW 0x50
05A5  00A7  	MOVWF gbl_FCV_REG10_TX_ADDR_BYTE2
05A6  3045  	MOVLW 0x45
05A7  00A9  	MOVWF gbl_FCV_REG10_TX_ADDR_BYTE3
05A8  3047  	MOVLW 0x47
05A9  00B6  	MOVWF gbl_FCV_REG0A_RX_ADDR_P0_BYTE0
05AA  302D  	MOVLW 0x2D
05AB  00B8  	MOVWF gbl_FCV_REG0A_RX_ADDR_P0_BYTE1
05AC  3050  	MOVLW 0x50
05AD  00BB  	MOVWF gbl_FCV_REG0A_RX_ADDR_P0_BYTE2
05AE  3045  	MOVLW 0x45
05AF  00BC  	MOVWF gbl_FCV_REG0A_RX_ADDR_P0_BYTE3
05B0  1C26  	BTFSS gbl_FCV_TRANCIEVER_BIT,0
05B1  2DB7  	GOTO	label54
05B2  178B  	BSF gbl_intcon,7
05B3  168C  	BSF gbl_pie1,5
05B4  170B  	BSF gbl_intcon,6
05B5  24EB  	CALL FCM_radio__0005B
05B6  2DB9  	GOTO	label55
05B7        label54
05B7  128C  	BCF gbl_pie1,5
05B8  251E  	CALL FCM_radio__00055
05B9        label55
05B9  30DF  	MOVLW 0xDF
05BA  0505  	ANDWF gbl_trisa, W
05BB  0085  	MOVWF gbl_trisa
05BC  30DF  	MOVLW 0xDF
05BD  1283  	BCF STATUS, RP0
05BE  0505  	ANDWF gbl_porta, W
05BF  0085  	MOVWF gbl_porta
05C0  30FE  	MOVLW 0xFE
05C1  1683  	BSF STATUS, RP0
05C2  0507  	ANDWF gbl_trisc, W
05C3  0087  	MOVWF gbl_trisc
05C4  30FE  	MOVLW 0xFE
05C5  1283  	BCF STATUS, RP0
05C6  0507  	ANDWF gbl_portc, W
05C7  0087  	MOVWF gbl_portc
05C8  30FB  	MOVLW 0xFB
05C9  1683  	BSF STATUS, RP0
05CA  0507  	ANDWF gbl_trisc, W
05CB  0087  	MOVWF gbl_trisc
05CC  30FB  	MOVLW 0xFB
05CD  1283  	BCF STATUS, RP0
05CE  0507  	ANDWF gbl_portc, W
05CF  1683  	BSF STATUS, RP0
05D0  00C5  	MOVWF CompTempVar2267
05D1  3004  	MOVLW 0x04
05D2  0445  	IORWF CompTempVar2267, W
05D3  1283  	BCF STATUS, RP0
05D4  0087  	MOVWF gbl_portc
05D5  3020  	MOVLW 0x20
05D6  1683  	BSF STATUS, RP0
05D7  00CE  	MOVWF CompTempVar2268+D'7'
05D8  3021  	MOVLW 0x21
05D9  00D6  	MOVWF CompTempVar2268+D'15'
05DA  3041  	MOVLW 0x41
05DB  00D3  	MOVWF CompTempVar2268+D'12'
05DC  3045  	MOVLW 0x45
05DD  00C8  	MOVWF CompTempVar2268+D'1'
05DE  00D0  	MOVWF CompTempVar2268+D'9'
05DF  00D5  	MOVWF CompTempVar2268+D'14'
05E0  3047  	MOVLW 0x47
05E1  00CD  	MOVWF CompTempVar2268+D'6'
05E2  00D4  	MOVWF CompTempVar2268+D'13'
05E3  3049  	MOVLW 0x49
05E4  00CB  	MOVWF CompTempVar2268+D'4'
05E5  304D  	MOVLW 0x4D
05E6  00CF  	MOVWF CompTempVar2268+D'8'
05E7  304E  	MOVLW 0x4E
05E8  00CC  	MOVWF CompTempVar2268+D'5'
05E9  3053  	MOVLW 0x53
05EA  00C9  	MOVWF CompTempVar2268+D'2'
05EB  00D1  	MOVWF CompTempVar2268+D'10'
05EC  00D2  	MOVWF CompTempVar2268+D'11'
05ED  3054  	MOVLW 0x54
05EE  00C7  	MOVWF CompTempVar2268
05EF  00CA  	MOVWF CompTempVar2268+D'3'
05F0  01D7  	CLRF CompTempVar2268+D'16'
05F1  3000  	MOVLW HIGH(CompTempVar2268+D'0')
05F2  00C6  	MOVWF FCI_SCOPY_00000_arg_sSrc+D'1'
05F3  30C7  	MOVLW LOW(CompTempVar2268+D'0')
05F4  00C5  	MOVWF FCI_SCOPY_00000_arg_sSrc
05F5  3010  	MOVLW 0x10
05F6  00D8  	MOVWF FCI_SCOPY_00000_arg_iSrc_len
05F7  3000  	MOVLW HIGH(gbl_FCV_PAYLOAD_TRANSMIT+D'0')
05F8  00DA  	MOVWF FCI_SCOPY_00000_arg_sDst+D'1'
05F9  3046  	MOVLW LOW(gbl_FCV_PAYLOAD_TRANSMIT+D'0')
05FA  00D9  	MOVWF FCI_SCOPY_00000_arg_sDst
05FB  3010  	MOVLW 0x10
05FC  00DB  	MOVWF FCI_SCOPY_00000_arg_iDst_len
05FD  22C6  	CALL FCI_SCOPY_00000
05FE  10A6  	BCF gbl_FCV_FLAGBIT,1
05FF  1126  	BCF gbl_FCV_UART_FLAG,2
0600        label56
0600  30FD  	MOVLW 0xFD
0601  0507  	ANDWF gbl_trisc, W
0602  0087  	MOVWF gbl_trisc
0603  30FD  	MOVLW 0xFD
0604  1283  	BCF STATUS, RP0
0605  0507  	ANDWF gbl_portc, W
0606  1683  	BSF STATUS, RP0
0607  00C5  	MOVWF CompTempVar2271
0608  3002  	MOVLW 0x02
0609  0445  	IORWF CompTempVar2271, W
060A  1283  	BCF STATUS, RP0
060B  0087  	MOVWF gbl_portc
060C  30DF  	MOVLW 0xDF
060D  1683  	BSF STATUS, RP0
060E  0505  	ANDWF gbl_trisa, W
060F  0085  	MOVWF gbl_trisa
0610  30DF  	MOVLW 0xDF
0611  1283  	BCF STATUS, RP0
0612  0505  	ANDWF gbl_porta, W
0613  0085  	MOVWF gbl_porta
0614  30FE  	MOVLW 0xFE
0615  1683  	BSF STATUS, RP0
0616  0507  	ANDWF gbl_trisc, W
0617  0087  	MOVWF gbl_trisc
0618  30FE  	MOVLW 0xFE
0619  1283  	BCF STATUS, RP0
061A  0507  	ANDWF gbl_portc, W
061B  0087  	MOVWF gbl_portc
061C  3001  	MOVLW 0x01
061D  1683  	BSF STATUS, RP0
061E  00C5  	MOVWF delay_ms_00000_arg_del
061F  2015  	CALL delay_ms_00000
0620  1C26  	BTFSS gbl_FCV_TRANCIEVER_BIT,0
0621  2E31  	GOTO	label59
0622  128C  	BCF gbl_pie1,5
0623  0335  	DECF gbl_FCV_FLAG_PROT, W
0624  1D03  	BTFSS STATUS,Z
0625  2E2C  	GOTO	label57
0626  24EB  	CALL FCM_radio__0005B
0627  2471  	CALL FCM_radio__0005C
0628  2471  	CALL FCM_radio__0005C
0629  1683  	BSF STATUS, RP0
062A  01B5  	CLRF gbl_FCV_FLAG_PROT
062B  2E2D  	GOTO	label58
062C        label57
062C  01B5  	CLRF gbl_FCV_FLAG_PROT
062D        label58
062D  178B  	BSF gbl_intcon,7
062E  168C  	BSF gbl_pie1,5
062F  170B  	BSF gbl_intcon,6
0630  2E00  	GOTO	label56
0631        label59
0631  128C  	BCF gbl_pie1,5
0632  251E  	CALL FCM_radio__00055
0633  2441  	CALL FCM_radio__0005E
0634  1DA6  	BTFSS gbl_FCV_FLAG_RADIO_RX,3
0635  2E00  	GOTO	label56
0636  30EC  	MOVLW 0xEC
0637  00C7  	MOVWF CompTempVar2272
0638  01C8  	CLRF CompTempVar2272+D'1'
0639  3000  	MOVLW HIGH(CompTempVar2272+D'0')
063A  00C6  	MOVWF FCI_SHEAD_00000_arg_sSrc1+D'1'
063B  30C7  	MOVLW LOW(CompTempVar2272+D'0')
063C  00C5  	MOVWF FCI_SHEAD_00000_arg_sSrc1
063D  3001  	MOVLW 0x01
063E  00C9  	MOVWF FCI_SHEAD_00000_arg_iSrc1_len
063F  3000  	MOVLW HIGH(gbl_FCV_PAYLOAD_RECIEVE+D'0')
0640  00CB  	MOVWF FCI_SHEAD_00000_arg_sSrc2+D'1'
0641  3034  	MOVLW LOW(gbl_FCV_PAYLOAD_RECIEVE+D'0')
0642  00CA  	MOVWF FCI_SHEAD_00000_arg_sSrc2
0643  3012  	MOVLW 0x12
0644  00CC  	MOVWF FCI_SHEAD_00000_arg_iSrc2_len
0645  3000  	MOVLW HIGH(gbl_FCI_TMP_STR+D'0')
0646  00CE  	MOVWF FCI_SHEAD_00000_arg_sDst+D'1'
0647  3020  	MOVLW LOW(gbl_FCI_TMP_STR+D'0')
0648  00CD  	MOVWF FCI_SHEAD_00000_arg_sDst
0649  3014  	MOVLW 0x14
064A  00CF  	MOVWF FCI_SHEAD_00000_arg_iDst_len
064B  21B0  	CALL FCI_SHEAD_00000
064C  3000  	MOVLW HIGH(gbl_FCI_TMP_STR+D'0')
064D  00C6  	MOVWF FCI_SHEAD_00000_arg_sSrc1+D'1'
064E  3020  	MOVLW LOW(gbl_FCI_TMP_STR+D'0')
064F  00C5  	MOVWF FCI_SHEAD_00000_arg_sSrc1
0650  3014  	MOVLW 0x14
0651  00C9  	MOVWF FCI_SHEAD_00000_arg_iSrc1_len
0652  30FC  	MOVLW 0xFC
0653  00C7  	MOVWF CompTempVar2276
0654  01C8  	CLRF CompTempVar2276+D'1'
0655  3000  	MOVLW HIGH(CompTempVar2276+D'0')
0656  00CB  	MOVWF FCI_SHEAD_00000_arg_sSrc2+D'1'
0657  30C7  	MOVLW LOW(CompTempVar2276+D'0')
0658  00CA  	MOVWF FCI_SHEAD_00000_arg_sSrc2
0659  3001  	MOVLW 0x01
065A  00CC  	MOVWF FCI_SHEAD_00000_arg_iSrc2_len
065B  3000  	MOVLW HIGH(gbl_FCV_PAYLOAD_RECIEVE+D'0')
065C  00CE  	MOVWF FCI_SHEAD_00000_arg_sDst+D'1'
065D  3034  	MOVLW LOW(gbl_FCV_PAYLOAD_RECIEVE+D'0')
065E  00CD  	MOVWF FCI_SHEAD_00000_arg_sDst
065F  3012  	MOVLW 0x12
0660  00CF  	MOVWF FCI_SHEAD_00000_arg_iDst_len
0661  21B0  	CALL FCI_SHEAD_00000
0662  3000  	MOVLW HIGH(gbl_FCV_PAYLOAD_RECIEVE+D'0')
0663  00C6  	MOVWF FCD_RS2320_00078_arg_String+D'1'
0664  3034  	MOVLW LOW(gbl_FCV_PAYLOAD_RECIEVE+D'0')
0665  00C5  	MOVWF FCD_RS2320_00078_arg_String
0666  3012  	MOVLW 0x12
0667  00C7  	MOVWF FCD_RS2320_00078_arg_MSZ_String
0668  255C  	CALL FCD_RS2320_00078
0669  11A6  	BCF gbl_FCV_FLAG_RADIO_RX,3
066A  2E00  	GOTO	label56
066B        ; } main function end

	ORG 0x0000066B
066B        _startup
066B  30D5  	MOVLW 0xD5
066C  1283  	BCF STATUS, RP0
066D  1303  	BCF STATUS, RP1
066E  00E0  	MOVWF gbl_14_LSR
066F  30C4  	MOVLW 0xC4
0670  00E1  	MOVWF gbl_14_LSR+D'1'
0671  30BB  	MOVLW 0xBB
0672  00E2  	MOVWF gbl_14_LSR+D'2'
0673  30DC  	MOVLW 0xDC
0674  00E3  	MOVWF gbl_14_LSR+D'3'
0675  01E4  	CLRF gbl_15_gbl_aSig
0676  01E5  	CLRF gbl_15_gbl_aSig+D'1'
0677  01E6  	CLRF gbl_15_gbl_aSig+D'2'
0678  01E7  	CLRF gbl_15_gbl_aSig+D'3'
0679  01E8  	CLRF gbl_15_gbl_bSig
067A  01E9  	CLRF gbl_15_gbl_bSig+D'1'
067B  01EA  	CLRF gbl_15_gbl_bSig+D'2'
067C  01EB  	CLRF gbl_15_gbl_bSig+D'3'
067D  01EC  	CLRF gbl_15_gbl_zSig
067E  01ED  	CLRF gbl_15_gbl_zSig+D'1'
067F  01EE  	CLRF gbl_15_gbl_zSig+D'2'
0680  01EF  	CLRF gbl_15_gbl_zSig+D'3'
0681  01FC  	CLRF gbl_15_gbl_aExp
0682  01FD  	CLRF gbl_15_gbl_bExp
0683  01F7  	CLRF gbl_15_gbl_zExp
0684  01F8  	CLRF gbl_15_gbl_zExp+D'1'
0685  01FE  	CLRF gbl_15_gbl_aSign
0686  1683  	BSF STATUS, RP0
0687  01A0  	CLRF gbl_15_gbl_bSign
0688  01A1  	CLRF gbl_15_gbl_zSign
0689  01A2  	CLRF gbl_15_gbl_zSigZero
068A  1283  	BCF STATUS, RP0
068B  01F0  	CLRF gbl_15_gbl_ret
068C  01F1  	CLRF gbl_15_gbl_ret+D'1'
068D  01F2  	CLRF gbl_15_gbl_ret+D'2'
068E  01F3  	CLRF gbl_15_gbl_ret+D'3'
068F  01FA  	CLRF gbl_float_rounding_mode
0690  01FB  	CLRF gbl_float_exception_flags
0691  01F9  	CLRF gbl_float_detect_tininess
0692  30FF  	MOVLW 0xFF
0693  1683  	BSF STATUS, RP0
0694  00A3  	MOVWF gbl_FCV_DATA_TO_WRITE
0695  01A4  	CLRF gbl_FCV_REG10_TX_ADDR_BYTE1
0696  01A5  	CLRF gbl_FCV_REG01
0697  1026  	BCF gbl_FCV_TRANCIEVER_BIT,0
0698  01A7  	CLRF gbl_FCV_REG10_TX_ADDR_BYTE2
0699  01A8  	CLRF gbl_FCV_REG02
069A  1283  	BCF STATUS, RP0
069B  01B4  	CLRF gbl_FCV_PAYLOAD_RECIEVE
069C  1683  	BSF STATUS, RP0
069D  01A9  	CLRF gbl_FCV_REG10_TX_ADDR_BYTE3
069E  01AA  	CLRF gbl_FCV_REG03
069F  01AB  	CLRF gbl_FCV_REG10_TX_ADDR_BYTE4
06A0  01AC  	CLRF gbl_FCV_REG04
06A1  01AD  	CLRF gbl_FCV_STATUS_MAX_RT
06A2  01AE  	CLRF gbl_FCV_REG05
06A3  30FF  	MOVLW 0xFF
06A4  00AF  	MOVWF gbl_FCV_SPI_DATA0
06A5  01B0  	CLRF gbl_FCV_REG17
06A6  01B1  	CLRF gbl_FCV_REG06
06A7  30FF  	MOVLW 0xFF
06A8  00B2  	MOVWF gbl_FCV_SPI_DATA1
06A9  30FF  	MOVLW 0xFF
06AA  00B3  	MOVWF gbl_FCV_DATA_TO_READ
06AB  01B4  	CLRF gbl_FCV_REG07
06AC  1283  	BCF STATUS, RP0
06AD  01C6  	CLRF gbl_FCV_PAYLOAD_TRANSMIT
06AE  1683  	BSF STATUS, RP0
06AF  01B5  	CLRF gbl_FCV_FLAG_PROT
06B0  01B6  	CLRF gbl_FCV_REG0A_RX_ADDR_P0_BYTE0
06B1  01B7  	CLRF gbl_FCV_REG08
06B2  01B8  	CLRF gbl_FCV_REG0A_RX_ADDR_P0_BYTE1
06B3  01B9  	CLRF gbl_FCV_REG09
06B4  30FF  	MOVLW 0xFF
06B5  00BA  	MOVWF gbl_FCV_UART_RX
06B6  01BB  	CLRF gbl_FCV_REG0A_RX_ADDR_P0_BYTE2
06B7  01BC  	CLRF gbl_FCV_REG0A_RX_ADDR_P0_BYTE3
06B8  01BD  	CLRF gbl_FCV_STATUS_TX_DS
06B9  10A6  	BCF gbl_FCV_FLAGBIT,1
06BA  1126  	BCF gbl_FCV_UART_FLAG,2
06BB  01BE  	CLRF gbl_FCV_REG0A_RX_ADDR_P0_BYTE4
06BC  01BF  	CLRF gbl_FCV_REG_TO_WRITE
06BD  3020  	MOVLW 0x20
06BE  00C0  	MOVWF gbl_FCV_PAYLOADSIZE
06BF  1283  	BCF STATUS, RP0
06C0  01D6  	CLRF gbl_FCV_RX_ADDR
06C1  01DB  	CLRF gbl_FCV_TX_ADDR
06C2  1683  	BSF STATUS, RP0
06C3  01C1  	CLRF gbl_FCV_LOOP_COUNT
06C4  11A6  	BCF gbl_FCV_FLAG_RADIO_RX,3
06C5  01C2  	CLRF gbl_FCV_REG11
06C6  01C3  	CLRF gbl_FCV_REG10_TX_ADDR_BYTE0
06C7  01C4  	CLRF gbl_FCV_REG00
06C8  118A  	BCF PCLATH,3
06C9  120A  	BCF PCLATH,4
06CA  2D77  	GOTO	main
	ORG 0x000006CB
06CB        interrupt
06CB        ; { interrupt ; function begin
06CB  1283  	BCF STATUS, RP0
06CC  1303  	BCF STATUS, RP1
06CD  1E8C  	BTFSS gbl_pir1,5
06CE  2ED5  	GOTO	label61
06CF  1683  	BSF STATUS, RP0
06D0  1E8C  	BTFSS gbl_pie1,5
06D1  2ED5  	GOTO	label61
06D2  2140  	CALL FCM_uart_i_00060
06D3  1283  	BCF STATUS, RP0
06D4  128C  	BCF gbl_pir1,5
06D5        label61
06D5  1283  	BCF STATUS, RP0
06D6  0E76  	SWAPF Int1BContext+D'2', W
06D7  0084  	MOVWF FSR
06D8  0E75  	SWAPF Int1BContext+D'1', W
06D9  008A  	MOVWF PCLATH
06DA  0E74  	SWAPF Int1BContext, W
06DB  0083  	MOVWF STATUS
06DC  0EFF  	SWAPF Int1Context, F
06DD  0E7F  	SWAPF Int1Context, W
06DE  0009  	RETFIE
06DF        ; } interrupt function end

	ORG 0x00002007
2007  3F3A  	DW 0x3F3A
