;/////////////////////////////////////////////////////////////////////////////////
;// Code Generator: BoostC Compiler - http://www.sourceboost.com
;// Version       : 7.03
;// License Type  : Pro License
;// Limitations   : PIC12,PIC16 max code size:Unlimited, max RAM banks:Unlimited
;/////////////////////////////////////////////////////////////////////////////////

	ORG 0x00000000
0000  2FE5  	GOTO	_startup
	ORG 0x00000004
0004  00FF  	MOVWF Int1Context
0005  0E03  	SWAPF STATUS, W
0006  1283  	BCF STATUS, RP0
0007  1303  	BCF STATUS, RP1
0008  00E0  	MOVWF Int1BContext
0009  0E0A  	SWAPF PCLATH, W
000A  00E1  	MOVWF Int1BContext+D'1'
000B  0E04  	SWAPF FSR, W
000C  00E2  	MOVWF Int1BContext+D'2'
000D  158A  	BSF PCLATH,3
000E  120A  	BCF PCLATH,4
000F  2843  	GOTO	interrupt
	ORG 0x00000010
0010        delay_us_00000
0010        ; { delay_us ; function begin
0010        label1
0010  0000  	NOP
0011  0000  	NOP
0012  0BB1  	DECFSZ delay_us_00000_arg_del, F
0013  2810  	GOTO	label1
0014  0008  	RETURN
0015        ; } delay_us function end

	ORG 0x00000015
0015        delay_ms_00000
0015        ; { delay_ms ; function begin
0015  08B5  	MOVF delay_ms_00000_arg_del, F
0016  1D03  	BTFSS STATUS,Z
0017  2819  	GOTO	label2
0018  0008  	RETURN
0019        label2
0019  30F9  	MOVLW 0xF9
001A        label3
001A  0000  	NOP
001B  0000  	NOP
001C  0000  	NOP
001D  0000  	NOP
001E  0000  	NOP
001F  0000  	NOP
0020  0000  	NOP
0021  0000  	NOP
0022  0000  	NOP
0023  0000  	NOP
0024  0000  	NOP
0025  0000  	NOP
0026  0000  	NOP
0027  0000  	NOP
0028  0000  	NOP
0029  0000  	NOP
002A  3EFF  	ADDLW 0xFF
002B  1D03  	BTFSS STATUS,Z
002C  281A  	GOTO	label3
002D  0000  	NOP
002E  0000  	NOP
002F  0000  	NOP
0030  0000  	NOP
0031  0000  	NOP
0032  0000  	NOP
0033  0000  	NOP
0034  0000  	NOP
0035  0000  	NOP
0036  0000  	NOP
0037  0000  	NOP
0038  0000  	NOP
0039  0000  	NOP
003A  0000  	NOP
003B  0000  	NOP
003C  0000  	NOP
003D  0000  	NOP
003E  0BB5  	DECFSZ delay_ms_00000_arg_del, F
003F  2819  	GOTO	label2
0040  0008  	RETURN
0041        ; } delay_ms function end

	ORG 0x00000041
0041        delay_10us_00000
0041        ; { delay_10us ; function begin
0041  08C5  	MOVF delay_10us_00000_arg_del, F
0042  1D03  	BTFSS STATUS,Z
0043  2845  	GOTO	label4
0044  0008  	RETURN
0045        label4
0045  3009  	MOVLW 0x09
0046        label5
0046  0000  	NOP
0047  3EFF  	ADDLW 0xFF
0048  1D03  	BTFSS STATUS,Z
0049  2846  	GOTO	label5
004A  0000  	NOP
004B  0000  	NOP
004C  0BC5  	DECFSZ delay_10us_00000_arg_del, F
004D  2845  	GOTO	label4
004E  0008  	RETURN
004F        ; } delay_10us function end

	ORG 0x0000004F
004F        FC_CAL_SPI_00066
004F        ; { FC_CAL_SPI_Master_Byte_1 ; function begin
004F  01B3  	CLRF FC_CAL_SPI_00066_1_retVal
0050  0832  	MOVF FC_CAL_SPI_00066_arg_DataOut, W
0051  1283  	BCF STATUS, RP0
0052  0093  	MOVWF gbl_sspbuf
0053        label6
0053  1683  	BSF STATUS, RP0
0054  1C14  	BTFSS gbl_sspstat,0
0055  2853  	GOTO	label6
0056  1283  	BCF STATUS, RP0
0057  0813  	MOVF gbl_sspbuf, W
0058  1683  	BSF STATUS, RP0
0059  00B3  	MOVWF FC_CAL_SPI_00066_1_retVal
005A  0833  	MOVF FC_CAL_SPI_00066_1_retVal, W
005B  00B4  	MOVWF CompTempVarRet2251
005C  0008  	RETURN
005D        ; } FC_CAL_SPI_Master_Byte_1 function end

	ORG 0x0000005D
005D        FCD_SPI_Le_00054
005D        ; { FCD_SPI_Legacy0_SPI_Get_Char ; function begin
005D  1683  	BSF STATUS, RP0
005E  1303  	BCF STATUS, RP1
005F  01B1  	CLRF FCD_SPI_Le_00054_1_retVal
0060  30FF  	MOVLW 0xFF
0061  00B2  	MOVWF FC_CAL_SPI_00066_arg_DataOut
0062  204F  	CALL FC_CAL_SPI_00066
0063  0834  	MOVF CompTempVarRet2251, W
0064  00B1  	MOVWF FCD_SPI_Le_00054_1_retVal
0065  0831  	MOVF FCD_SPI_Le_00054_1_retVal, W
0066  00B2  	MOVWF CompTempVarRet2190
0067  0008  	RETURN
0068        ; } FCD_SPI_Legacy0_SPI_Get_Char function end

	ORG 0x00000068
0068        FCD_SPI_Le_00052
0068        ; { FCD_SPI_Legacy0_SPI_Send_Char ; function begin
0068  0831  	MOVF FCD_SPI_Le_00052_arg_Char, W
0069  00B2  	MOVWF FC_CAL_SPI_00066_arg_DataOut
006A  204F  	CALL FC_CAL_SPI_00066
006B  0008  	RETURN
006C        ; } FCD_SPI_Legacy0_SPI_Send_Char function end

	ORG 0x0000006C
006C        FCM_cmd_re_00053
006C        ; { FCM_cmd_read_reg ; function begin
006C  30FB  	MOVLW 0xFB
006D  1683  	BSF STATUS, RP0
006E  1303  	BCF STATUS, RP1
006F  0507  	ANDWF gbl_trisc, W
0070  0087  	MOVWF gbl_trisc
0071  30FB  	MOVLW 0xFB
0072  1283  	BCF STATUS, RP0
0073  0507  	ANDWF gbl_portc, W
0074  0087  	MOVWF gbl_portc
0075  0879  	MOVF gbl_FCV_SPI_DATA0, W
0076  1683  	BSF STATUS, RP0
0077  00B1  	MOVWF FCD_SPI_Le_00052_arg_Char
0078  2068  	CALL FCD_SPI_Le_00052
0079  205D  	CALL FCD_SPI_Le_00054
007A  0832  	MOVF CompTempVarRet2190, W
007B  1283  	BCF STATUS, RP0
007C  00FC  	MOVWF gbl_FCV_SPI_DATA1
007D  30FB  	MOVLW 0xFB
007E  1683  	BSF STATUS, RP0
007F  0507  	ANDWF gbl_trisc, W
0080  0087  	MOVWF gbl_trisc
0081  30FB  	MOVLW 0xFB
0082  1283  	BCF STATUS, RP0
0083  0507  	ANDWF gbl_portc, W
0084  1683  	BSF STATUS, RP0
0085  00B1  	MOVWF CompTempVar2189
0086  3004  	MOVLW 0x04
0087  0431  	IORWF CompTempVar2189, W
0088  1283  	BCF STATUS, RP0
0089  0087  	MOVWF gbl_portc
008A  0008  	RETURN
008B        ; } FCM_cmd_read_reg function end

	ORG 0x0000008B
008B        FCI_SHEAD_00000
008B        ; { FCI_SHEAD ; function begin
008B  01BA  	CLRF FCI_SHEAD_00000_1_len
008C  0837  	MOVF FCI_SHEAD_00000_arg_sDst, W
008D  0634  	XORWF FCI_SHEAD_00000_arg_sSrc2, W
008E  1D03  	BTFSS STATUS,Z
008F  2932  	GOTO	label18
0090  0838  	MOVF FCI_SHEAD_00000_arg_sDst+D'1', W
0091  0635  	XORWF FCI_SHEAD_00000_arg_sSrc2+D'1', W
0092  1D03  	BTFSS STATUS,Z
0093  2932  	GOTO	label18
0094  01BB  	CLRF FCI_SHEAD_00000_1_strt
0095        label7
0095  0833  	MOVF FCI_SHEAD_00000_arg_iSrc1_len, W
0096  023B  	SUBWF FCI_SHEAD_00000_1_strt, W
0097  1803  	BTFSC STATUS,C
0098  28A4  	GOTO	label8
0099  1383  	BCF STATUS,IRP
009A  1832  	BTFSC FCI_SHEAD_00000_arg_sSrc1+D'1',0
009B  1783  	BSF STATUS,IRP
009C  0831  	MOVF FCI_SHEAD_00000_arg_sSrc1, W
009D  073B  	ADDWF FCI_SHEAD_00000_1_strt, W
009E  0084  	MOVWF FSR
009F  0880  	MOVF INDF, F
00A0  1903  	BTFSC STATUS,Z
00A1  28A4  	GOTO	label8
00A2  0ABB  	INCF FCI_SHEAD_00000_1_strt, F
00A3  2895  	GOTO	label7
00A4        label8
00A4  0839  	MOVF FCI_SHEAD_00000_arg_iDst_len, W
00A5  023B  	SUBWF FCI_SHEAD_00000_1_strt, W
00A6  1803  	BTFSC STATUS,C
00A7  290B  	GOTO	label16
00A8  01BA  	CLRF FCI_SHEAD_00000_1_len
00A9        label9
00A9  0836  	MOVF FCI_SHEAD_00000_arg_iSrc2_len, W
00AA  023A  	SUBWF FCI_SHEAD_00000_1_len, W
00AB  1803  	BTFSC STATUS,C
00AC  28B8  	GOTO	label10
00AD  1383  	BCF STATUS,IRP
00AE  1835  	BTFSC FCI_SHEAD_00000_arg_sSrc2+D'1',0
00AF  1783  	BSF STATUS,IRP
00B0  0834  	MOVF FCI_SHEAD_00000_arg_sSrc2, W
00B1  073A  	ADDWF FCI_SHEAD_00000_1_len, W
00B2  0084  	MOVWF FSR
00B3  0880  	MOVF INDF, F
00B4  1903  	BTFSC STATUS,Z
00B5  28B8  	GOTO	label10
00B6  0ABA  	INCF FCI_SHEAD_00000_1_len, F
00B7  28A9  	GOTO	label9
00B8        label10
00B8  083B  	MOVF FCI_SHEAD_00000_1_strt, W
00B9  0239  	SUBWF FCI_SHEAD_00000_arg_iDst_len, W
00BA  00BC  	MOVWF CompTempVar2110
00BB  083A  	MOVF FCI_SHEAD_00000_1_len, W
00BC  023C  	SUBWF CompTempVar2110, W
00BD  1803  	BTFSC STATUS,C
00BE  28C2  	GOTO	label11
00BF  083B  	MOVF FCI_SHEAD_00000_1_strt, W
00C0  0239  	SUBWF FCI_SHEAD_00000_arg_iDst_len, W
00C1  00BA  	MOVWF FCI_SHEAD_00000_1_len
00C2        label11
00C2  083A  	MOVF FCI_SHEAD_00000_1_len, W
00C3  073B  	ADDWF FCI_SHEAD_00000_1_strt, W
00C4  00B6  	MOVWF FCI_SHEAD_00000_arg_iSrc2_len
00C5  083A  	MOVF FCI_SHEAD_00000_1_len, W
00C6  00BB  	MOVWF FCI_SHEAD_00000_1_strt
00C7        label12
00C7  083B  	MOVF FCI_SHEAD_00000_1_strt, W
00C8  3C00  	SUBLW 0x00
00C9  1803  	BTFSC STATUS,C
00CA  28E1  	GOTO	label13
00CB  03BB  	DECF FCI_SHEAD_00000_1_strt, F
00CC  03B6  	DECF FCI_SHEAD_00000_arg_iSrc2_len, F
00CD  1383  	BCF STATUS,IRP
00CE  1835  	BTFSC FCI_SHEAD_00000_arg_sSrc2+D'1',0
00CF  1783  	BSF STATUS,IRP
00D0  0834  	MOVF FCI_SHEAD_00000_arg_sSrc2, W
00D1  0084  	MOVWF FSR
00D2  083B  	MOVF FCI_SHEAD_00000_1_strt, W
00D3  00BD  	MOVWF CompTempVar2117
00D4  083D  	MOVF CompTempVar2117, W
00D5  0784  	ADDWF FSR, F
00D6  0800  	MOVF INDF, W
00D7  00BE  	MOVWF CompTempVar2118
00D8  1383  	BCF STATUS,IRP
00D9  1838  	BTFSC FCI_SHEAD_00000_arg_sDst+D'1',0
00DA  1783  	BSF STATUS,IRP
00DB  0837  	MOVF FCI_SHEAD_00000_arg_sDst, W
00DC  0736  	ADDWF FCI_SHEAD_00000_arg_iSrc2_len, W
00DD  0084  	MOVWF FSR
00DE  083E  	MOVF CompTempVar2118, W
00DF  0080  	MOVWF INDF
00E0  28C7  	GOTO	label12
00E1        label13
00E1  01BB  	CLRF FCI_SHEAD_00000_1_strt
00E2        label14
00E2  0833  	MOVF FCI_SHEAD_00000_arg_iSrc1_len, W
00E3  023B  	SUBWF FCI_SHEAD_00000_1_strt, W
00E4  1803  	BTFSC STATUS,C
00E5  2908  	GOTO	label15
00E6  0839  	MOVF FCI_SHEAD_00000_arg_iDst_len, W
00E7  023B  	SUBWF FCI_SHEAD_00000_1_strt, W
00E8  1803  	BTFSC STATUS,C
00E9  2908  	GOTO	label15
00EA  1383  	BCF STATUS,IRP
00EB  1832  	BTFSC FCI_SHEAD_00000_arg_sSrc1+D'1',0
00EC  1783  	BSF STATUS,IRP
00ED  0831  	MOVF FCI_SHEAD_00000_arg_sSrc1, W
00EE  073B  	ADDWF FCI_SHEAD_00000_1_strt, W
00EF  0084  	MOVWF FSR
00F0  0880  	MOVF INDF, F
00F1  1903  	BTFSC STATUS,Z
00F2  2908  	GOTO	label15
00F3  1383  	BCF STATUS,IRP
00F4  1832  	BTFSC FCI_SHEAD_00000_arg_sSrc1+D'1',0
00F5  1783  	BSF STATUS,IRP
00F6  0831  	MOVF FCI_SHEAD_00000_arg_sSrc1, W
00F7  0084  	MOVWF FSR
00F8  083B  	MOVF FCI_SHEAD_00000_1_strt, W
00F9  00BD  	MOVWF CompTempVar2121
00FA  083D  	MOVF CompTempVar2121, W
00FB  0784  	ADDWF FSR, F
00FC  0800  	MOVF INDF, W
00FD  00BE  	MOVWF CompTempVar2122
00FE  1383  	BCF STATUS,IRP
00FF  1838  	BTFSC FCI_SHEAD_00000_arg_sDst+D'1',0
0100  1783  	BSF STATUS,IRP
0101  0837  	MOVF FCI_SHEAD_00000_arg_sDst, W
0102  073B  	ADDWF FCI_SHEAD_00000_1_strt, W
0103  0084  	MOVWF FSR
0104  083E  	MOVF CompTempVar2122, W
0105  0080  	MOVWF INDF
0106  0ABB  	INCF FCI_SHEAD_00000_1_strt, F
0107  28E2  	GOTO	label14
0108        label15
0108  083B  	MOVF FCI_SHEAD_00000_1_strt, W
0109  07BA  	ADDWF FCI_SHEAD_00000_1_len, F
010A  2994  	GOTO	label23
010B        label16
010B  01BA  	CLRF FCI_SHEAD_00000_1_len
010C        label17
010C  0833  	MOVF FCI_SHEAD_00000_arg_iSrc1_len, W
010D  023A  	SUBWF FCI_SHEAD_00000_1_len, W
010E  1803  	BTFSC STATUS,C
010F  2994  	GOTO	label23
0110  0839  	MOVF FCI_SHEAD_00000_arg_iDst_len, W
0111  023A  	SUBWF FCI_SHEAD_00000_1_len, W
0112  1803  	BTFSC STATUS,C
0113  2994  	GOTO	label23
0114  1383  	BCF STATUS,IRP
0115  1832  	BTFSC FCI_SHEAD_00000_arg_sSrc1+D'1',0
0116  1783  	BSF STATUS,IRP
0117  0831  	MOVF FCI_SHEAD_00000_arg_sSrc1, W
0118  073A  	ADDWF FCI_SHEAD_00000_1_len, W
0119  0084  	MOVWF FSR
011A  0880  	MOVF INDF, F
011B  1903  	BTFSC STATUS,Z
011C  2994  	GOTO	label23
011D  1383  	BCF STATUS,IRP
011E  1832  	BTFSC FCI_SHEAD_00000_arg_sSrc1+D'1',0
011F  1783  	BSF STATUS,IRP
0120  0831  	MOVF FCI_SHEAD_00000_arg_sSrc1, W
0121  0084  	MOVWF FSR
0122  083A  	MOVF FCI_SHEAD_00000_1_len, W
0123  00BC  	MOVWF CompTempVar2129
0124  083C  	MOVF CompTempVar2129, W
0125  0784  	ADDWF FSR, F
0126  0800  	MOVF INDF, W
0127  00BD  	MOVWF CompTempVar2130
0128  1383  	BCF STATUS,IRP
0129  1838  	BTFSC FCI_SHEAD_00000_arg_sDst+D'1',0
012A  1783  	BSF STATUS,IRP
012B  0837  	MOVF FCI_SHEAD_00000_arg_sDst, W
012C  073A  	ADDWF FCI_SHEAD_00000_1_len, W
012D  0084  	MOVWF FSR
012E  083D  	MOVF CompTempVar2130, W
012F  0080  	MOVWF INDF
0130  0ABA  	INCF FCI_SHEAD_00000_1_len, F
0131  290C  	GOTO	label17
0132        label18
0132  01BA  	CLRF FCI_SHEAD_00000_1_len
0133        label19
0133  0833  	MOVF FCI_SHEAD_00000_arg_iSrc1_len, W
0134  023A  	SUBWF FCI_SHEAD_00000_1_len, W
0135  1803  	BTFSC STATUS,C
0136  2959  	GOTO	label20
0137  0839  	MOVF FCI_SHEAD_00000_arg_iDst_len, W
0138  023A  	SUBWF FCI_SHEAD_00000_1_len, W
0139  1803  	BTFSC STATUS,C
013A  2959  	GOTO	label20
013B  1383  	BCF STATUS,IRP
013C  1832  	BTFSC FCI_SHEAD_00000_arg_sSrc1+D'1',0
013D  1783  	BSF STATUS,IRP
013E  0831  	MOVF FCI_SHEAD_00000_arg_sSrc1, W
013F  073A  	ADDWF FCI_SHEAD_00000_1_len, W
0140  0084  	MOVWF FSR
0141  0880  	MOVF INDF, F
0142  1903  	BTFSC STATUS,Z
0143  2959  	GOTO	label20
0144  1383  	BCF STATUS,IRP
0145  1832  	BTFSC FCI_SHEAD_00000_arg_sSrc1+D'1',0
0146  1783  	BSF STATUS,IRP
0147  0831  	MOVF FCI_SHEAD_00000_arg_sSrc1, W
0148  0084  	MOVWF FSR
0149  083A  	MOVF FCI_SHEAD_00000_1_len, W
014A  00BC  	MOVWF CompTempVar2137
014B  083C  	MOVF CompTempVar2137, W
014C  0784  	ADDWF FSR, F
014D  0800  	MOVF INDF, W
014E  00BD  	MOVWF CompTempVar2138
014F  1383  	BCF STATUS,IRP
0150  1838  	BTFSC FCI_SHEAD_00000_arg_sDst+D'1',0
0151  1783  	BSF STATUS,IRP
0152  0837  	MOVF FCI_SHEAD_00000_arg_sDst, W
0153  073A  	ADDWF FCI_SHEAD_00000_1_len, W
0154  0084  	MOVWF FSR
0155  083D  	MOVF CompTempVar2138, W
0156  0080  	MOVWF INDF
0157  0ABA  	INCF FCI_SHEAD_00000_1_len, F
0158  2933  	GOTO	label19
0159        label20
0159  0839  	MOVF FCI_SHEAD_00000_arg_iDst_len, W
015A  023A  	SUBWF FCI_SHEAD_00000_1_len, W
015B  1803  	BTFSC STATUS,C
015C  2994  	GOTO	label23
015D  083A  	MOVF FCI_SHEAD_00000_1_len, W
015E  0737  	ADDWF FCI_SHEAD_00000_arg_sDst, W
015F  00BC  	MOVWF CompTempVar2143
0160  0838  	MOVF FCI_SHEAD_00000_arg_sDst+D'1', W
0161  00BD  	MOVWF CompTempVar2144
0162  1803  	BTFSC STATUS,C
0163  0ABD  	INCF CompTempVar2144, F
0164  083C  	MOVF CompTempVar2143, W
0165  00B1  	MOVWF FCI_SHEAD_00000_arg_sSrc1
0166  083D  	MOVF CompTempVar2144, W
0167  00B2  	MOVWF FCI_SHEAD_00000_arg_sSrc1+D'1'
0168  083A  	MOVF FCI_SHEAD_00000_1_len, W
0169  0239  	SUBWF FCI_SHEAD_00000_arg_iDst_len, W
016A  00B3  	MOVWF FCI_SHEAD_00000_arg_iSrc1_len
016B  01BB  	CLRF FCI_SHEAD_00000_1_strt
016C        label21
016C  0836  	MOVF FCI_SHEAD_00000_arg_iSrc2_len, W
016D  023B  	SUBWF FCI_SHEAD_00000_1_strt, W
016E  1803  	BTFSC STATUS,C
016F  2992  	GOTO	label22
0170  0833  	MOVF FCI_SHEAD_00000_arg_iSrc1_len, W
0171  023B  	SUBWF FCI_SHEAD_00000_1_strt, W
0172  1803  	BTFSC STATUS,C
0173  2992  	GOTO	label22
0174  1383  	BCF STATUS,IRP
0175  1835  	BTFSC FCI_SHEAD_00000_arg_sSrc2+D'1',0
0176  1783  	BSF STATUS,IRP
0177  0834  	MOVF FCI_SHEAD_00000_arg_sSrc2, W
0178  073B  	ADDWF FCI_SHEAD_00000_1_strt, W
0179  0084  	MOVWF FSR
017A  0880  	MOVF INDF, F
017B  1903  	BTFSC STATUS,Z
017C  2992  	GOTO	label22
017D  1383  	BCF STATUS,IRP
017E  1835  	BTFSC FCI_SHEAD_00000_arg_sSrc2+D'1',0
017F  1783  	BSF STATUS,IRP
0180  0834  	MOVF FCI_SHEAD_00000_arg_sSrc2, W
0181  0084  	MOVWF FSR
0182  083B  	MOVF FCI_SHEAD_00000_1_strt, W
0183  00BC  	MOVWF CompTempVar2147
0184  083C  	MOVF CompTempVar2147, W
0185  0784  	ADDWF FSR, F
0186  0800  	MOVF INDF, W
0187  00BD  	MOVWF CompTempVar2148
0188  1383  	BCF STATUS,IRP
0189  1832  	BTFSC FCI_SHEAD_00000_arg_sSrc1+D'1',0
018A  1783  	BSF STATUS,IRP
018B  0831  	MOVF FCI_SHEAD_00000_arg_sSrc1, W
018C  073B  	ADDWF FCI_SHEAD_00000_1_strt, W
018D  0084  	MOVWF FSR
018E  083D  	MOVF CompTempVar2148, W
018F  0080  	MOVWF INDF
0190  0ABB  	INCF FCI_SHEAD_00000_1_strt, F
0191  296C  	GOTO	label21
0192        label22
0192  083B  	MOVF FCI_SHEAD_00000_1_strt, W
0193  07BA  	ADDWF FCI_SHEAD_00000_1_len, F
0194        label23
0194  0839  	MOVF FCI_SHEAD_00000_arg_iDst_len, W
0195  023A  	SUBWF FCI_SHEAD_00000_1_len, W
0196  1803  	BTFSC STATUS,C
0197  0008  	RETURN
0198  1383  	BCF STATUS,IRP
0199  1838  	BTFSC FCI_SHEAD_00000_arg_sDst+D'1',0
019A  1783  	BSF STATUS,IRP
019B  0837  	MOVF FCI_SHEAD_00000_arg_sDst, W
019C  073A  	ADDWF FCI_SHEAD_00000_1_len, W
019D  0084  	MOVWF FSR
019E  3000  	MOVLW 0x00
019F  0080  	MOVWF INDF
01A0  0008  	RETURN
01A1        ; } FCI_SHEAD function end

	ORG 0x000001A1
01A1        FCI_SCOPY_00000
01A1        ; { FCI_SCOPY ; function begin
01A1  01C8  	CLRF FCI_SCOPY_00000_1_len
01A2        label24
01A2  0844  	MOVF FCI_SCOPY_00000_arg_iSrc_len, W
01A3  0248  	SUBWF FCI_SCOPY_00000_1_len, W
01A4  1803  	BTFSC STATUS,C
01A5  29C8  	GOTO	label25
01A6  0847  	MOVF FCI_SCOPY_00000_arg_iDst_len, W
01A7  0248  	SUBWF FCI_SCOPY_00000_1_len, W
01A8  1803  	BTFSC STATUS,C
01A9  29C8  	GOTO	label25
01AA  1383  	BCF STATUS,IRP
01AB  1832  	BTFSC FCI_SCOPY_00000_arg_sSrc+D'1',0
01AC  1783  	BSF STATUS,IRP
01AD  0831  	MOVF FCI_SCOPY_00000_arg_sSrc, W
01AE  0748  	ADDWF FCI_SCOPY_00000_1_len, W
01AF  0084  	MOVWF FSR
01B0  0880  	MOVF INDF, F
01B1  1903  	BTFSC STATUS,Z
01B2  29C8  	GOTO	label25
01B3  1383  	BCF STATUS,IRP
01B4  1832  	BTFSC FCI_SCOPY_00000_arg_sSrc+D'1',0
01B5  1783  	BSF STATUS,IRP
01B6  0831  	MOVF FCI_SCOPY_00000_arg_sSrc, W
01B7  0084  	MOVWF FSR
01B8  0848  	MOVF FCI_SCOPY_00000_1_len, W
01B9  00C9  	MOVWF CompTempVar2156
01BA  0849  	MOVF CompTempVar2156, W
01BB  0784  	ADDWF FSR, F
01BC  0800  	MOVF INDF, W
01BD  00CA  	MOVWF CompTempVar2157
01BE  1383  	BCF STATUS,IRP
01BF  1846  	BTFSC FCI_SCOPY_00000_arg_sDst+D'1',0
01C0  1783  	BSF STATUS,IRP
01C1  0845  	MOVF FCI_SCOPY_00000_arg_sDst, W
01C2  0748  	ADDWF FCI_SCOPY_00000_1_len, W
01C3  0084  	MOVWF FSR
01C4  084A  	MOVF CompTempVar2157, W
01C5  0080  	MOVWF INDF
01C6  0AC8  	INCF FCI_SCOPY_00000_1_len, F
01C7  29A2  	GOTO	label24
01C8        label25
01C8  0847  	MOVF FCI_SCOPY_00000_arg_iDst_len, W
01C9  0248  	SUBWF FCI_SCOPY_00000_1_len, W
01CA  1803  	BTFSC STATUS,C
01CB  0008  	RETURN
01CC  1383  	BCF STATUS,IRP
01CD  1846  	BTFSC FCI_SCOPY_00000_arg_sDst+D'1',0
01CE  1783  	BSF STATUS,IRP
01CF  0845  	MOVF FCI_SCOPY_00000_arg_sDst, W
01D0  0748  	ADDWF FCI_SCOPY_00000_1_len, W
01D1  0084  	MOVWF FSR
01D2  3000  	MOVLW 0x00
01D3  0080  	MOVWF INDF
01D4  0008  	RETURN
01D5        ; } FCI_SCOPY function end

	ORG 0x000001D5
01D5        __div_16_1_00003
01D5        ; { __div_16_16 ; function begin
01D5  01BC  	CLRF __div_16_1_00003_1_r
01D6  01BD  	CLRF __div_16_1_00003_1_r+D'1'
01D7  01BF  	CLRF CompTempVarRet214
01D8  01C0  	CLRF CompTempVarRet214+D'1'
01D9  01BE  	CLRF __div_16_1_00003_1_i
01DA        label26
01DA  1A3E  	BTFSC __div_16_1_00003_1_i,4
01DB  0008  	RETURN
01DC  1003  	BCF STATUS,C
01DD  0DBF  	RLF CompTempVarRet214, F
01DE  0DC0  	RLF CompTempVarRet214+D'1', F
01DF  0DB6  	RLF __div_16_1_00003_arg_a, F
01E0  0DB7  	RLF __div_16_1_00003_arg_a+D'1', F
01E1  0DBC  	RLF __div_16_1_00003_1_r, F
01E2  0DBD  	RLF __div_16_1_00003_1_r+D'1', F
01E3  0839  	MOVF __div_16_1_00003_arg_b+D'1', W
01E4  023D  	SUBWF __div_16_1_00003_1_r+D'1', W
01E5  1D03  	BTFSS STATUS,Z
01E6  29E9  	GOTO	label27
01E7  0838  	MOVF __div_16_1_00003_arg_b, W
01E8  023C  	SUBWF __div_16_1_00003_1_r, W
01E9        label27
01E9  1C03  	BTFSS STATUS,C
01EA  29F2  	GOTO	label28
01EB  0838  	MOVF __div_16_1_00003_arg_b, W
01EC  02BC  	SUBWF __div_16_1_00003_1_r, F
01ED  0839  	MOVF __div_16_1_00003_arg_b+D'1', W
01EE  1C03  	BTFSS STATUS,C
01EF  03BD  	DECF __div_16_1_00003_1_r+D'1', F
01F0  02BD  	SUBWF __div_16_1_00003_1_r+D'1', F
01F1  143F  	BSF CompTempVarRet214,0
01F2        label28
01F2  0ABE  	INCF __div_16_1_00003_1_i, F
01F3  29DA  	GOTO	label26
01F4        ; } __div_16_16 function end

	ORG 0x000001F4
01F4        Wdt_Delay__0003E
01F4        ; { Wdt_Delay_Ms ; function begin
01F4  01B4  	CLRF Wdt_Delay__0003E_1_i
01F5        label29
01F5  0833  	MOVF Wdt_Delay__0003E_arg_delay, W
01F6  0234  	SUBWF Wdt_Delay__0003E_1_i, W
01F7  1803  	BTFSC STATUS,C
01F8  0008  	RETURN
01F9  0064  	CLRWDT
01FA  3001  	MOVLW 0x01
01FB  00B5  	MOVWF delay_ms_00000_arg_del
01FC  2015  	CALL delay_ms_00000
01FD  0AB4  	INCF Wdt_Delay__0003E_1_i, F
01FE  29F5  	GOTO	label29
01FF        ; } Wdt_Delay_Ms function end

	ORG 0x000001FF
01FF        FC_CAL_SPI_00064
01FF        ; { FC_CAL_SPI_Master_Init_1 ; function begin
01FF  1683  	BSF STATUS, RP0
0200  1303  	BCF STATUS, RP1
0201  1287  	BCF gbl_trisc,5
0202  1283  	BCF STATUS, RP0
0203  1687  	BSF gbl_portc,5
0204  1683  	BSF STATUS, RP0
0205  1607  	BSF gbl_trisc,4
0206  1187  	BCF gbl_trisc,3
0207  1283  	BCF STATUS, RP0
0208  1187  	BCF gbl_portc,3
0209  0194  	CLRF gbl_sspcon
020A  1214  	BCF gbl_sspcon,4
020B  1683  	BSF STATUS, RP0
020C  1714  	BSF gbl_sspstat,6
020D  1794  	BSF gbl_sspstat,7
020E  1283  	BCF STATUS, RP0
020F  1694  	BSF gbl_sspcon,5
0210  0008  	RETURN
0211        ; } FC_CAL_SPI_Master_Init_1 function end

	ORG 0x00000211
0211        FCM_set_tx_00056
0211        ; { FCM_set_tx_addr ; function begin
0211  30FB  	MOVLW 0xFB
0212  1683  	BSF STATUS, RP0
0213  1303  	BCF STATUS, RP1
0214  0507  	ANDWF gbl_trisc, W
0215  0087  	MOVWF gbl_trisc
0216  30FB  	MOVLW 0xFB
0217  1283  	BCF STATUS, RP0
0218  0507  	ANDWF gbl_portc, W
0219  0087  	MOVWF gbl_portc
021A  3005  	MOVLW 0x05
021B  1683  	BSF STATUS, RP0
021C  00B1  	MOVWF delay_us_00000_arg_del
021D  2010  	CALL delay_us_00000
021E  3030  	MOVLW 0x30
021F  1283  	BCF STATUS, RP0
0220  00F9  	MOVWF gbl_FCV_SPI_DATA0
0221  0879  	MOVF gbl_FCV_SPI_DATA0, W
0222  1683  	BSF STATUS, RP0
0223  00B1  	MOVWF FCD_SPI_Le_00052_arg_Char
0224  2068  	CALL FCD_SPI_Le_00052
0225  082F  	MOVF gbl_FCV_REG10_TX_ADDR_BYTE0, W
0226  1283  	BCF STATUS, RP0
0227  00F9  	MOVWF gbl_FCV_SPI_DATA0
0228  0879  	MOVF gbl_FCV_SPI_DATA0, W
0229  1683  	BSF STATUS, RP0
022A  00B1  	MOVWF FCD_SPI_Le_00052_arg_Char
022B  2068  	CALL FCD_SPI_Le_00052
022C  1283  	BCF STATUS, RP0
022D  0870  	MOVF gbl_FCV_REG10_TX_ADDR_BYTE1, W
022E  00F9  	MOVWF gbl_FCV_SPI_DATA0
022F  0879  	MOVF gbl_FCV_SPI_DATA0, W
0230  1683  	BSF STATUS, RP0
0231  00B1  	MOVWF FCD_SPI_Le_00052_arg_Char
0232  2068  	CALL FCD_SPI_Le_00052
0233  1283  	BCF STATUS, RP0
0234  0873  	MOVF gbl_FCV_REG10_TX_ADDR_BYTE2, W
0235  00F9  	MOVWF gbl_FCV_SPI_DATA0
0236  0879  	MOVF gbl_FCV_SPI_DATA0, W
0237  1683  	BSF STATUS, RP0
0238  00B1  	MOVWF FCD_SPI_Le_00052_arg_Char
0239  2068  	CALL FCD_SPI_Le_00052
023A  1283  	BCF STATUS, RP0
023B  0875  	MOVF gbl_FCV_REG10_TX_ADDR_BYTE3, W
023C  00F9  	MOVWF gbl_FCV_SPI_DATA0
023D  0879  	MOVF gbl_FCV_SPI_DATA0, W
023E  1683  	BSF STATUS, RP0
023F  00B1  	MOVWF FCD_SPI_Le_00052_arg_Char
0240  2068  	CALL FCD_SPI_Le_00052
0241  1283  	BCF STATUS, RP0
0242  0878  	MOVF gbl_FCV_REG10_TX_ADDR_BYTE4, W
0243  00F9  	MOVWF gbl_FCV_SPI_DATA0
0244  0879  	MOVF gbl_FCV_SPI_DATA0, W
0245  1683  	BSF STATUS, RP0
0246  00B1  	MOVWF FCD_SPI_Le_00052_arg_Char
0247  2068  	CALL FCD_SPI_Le_00052
0248  30FB  	MOVLW 0xFB
0249  0507  	ANDWF gbl_trisc, W
024A  0087  	MOVWF gbl_trisc
024B  30FB  	MOVLW 0xFB
024C  1283  	BCF STATUS, RP0
024D  0507  	ANDWF gbl_portc, W
024E  1683  	BSF STATUS, RP0
024F  00B1  	MOVWF CompTempVar2191
0250  3004  	MOVLW 0x04
0251  0431  	IORWF CompTempVar2191, W
0252  1283  	BCF STATUS, RP0
0253  0087  	MOVWF gbl_portc
0254  3005  	MOVLW 0x05
0255  1683  	BSF STATUS, RP0
0256  00B1  	MOVWF delay_us_00000_arg_del
0257  2010  	CALL delay_us_00000
0258  0008  	RETURN
0259        ; } FCM_set_tx_addr function end

	ORG 0x00000259
0259        FCM_set_rx_00057
0259        ; { FCM_set_rx_addr ; function begin
0259  30FB  	MOVLW 0xFB
025A  1683  	BSF STATUS, RP0
025B  1303  	BCF STATUS, RP1
025C  0507  	ANDWF gbl_trisc, W
025D  0087  	MOVWF gbl_trisc
025E  30FB  	MOVLW 0xFB
025F  1283  	BCF STATUS, RP0
0260  0507  	ANDWF gbl_portc, W
0261  0087  	MOVWF gbl_portc
0262  3005  	MOVLW 0x05
0263  1683  	BSF STATUS, RP0
0264  00B1  	MOVWF delay_us_00000_arg_del
0265  2010  	CALL delay_us_00000
0266  302A  	MOVLW 0x2A
0267  1283  	BCF STATUS, RP0
0268  00F9  	MOVWF gbl_FCV_SPI_DATA0
0269  0879  	MOVF gbl_FCV_SPI_DATA0, W
026A  1683  	BSF STATUS, RP0
026B  00B1  	MOVWF FCD_SPI_Le_00052_arg_Char
026C  2068  	CALL FCD_SPI_Le_00052
026D  0822  	MOVF gbl_FCV_REG0A_RX_ADDR_P0_BYTE0, W
026E  1283  	BCF STATUS, RP0
026F  00F9  	MOVWF gbl_FCV_SPI_DATA0
0270  0879  	MOVF gbl_FCV_SPI_DATA0, W
0271  1683  	BSF STATUS, RP0
0272  00B1  	MOVWF FCD_SPI_Le_00052_arg_Char
0273  2068  	CALL FCD_SPI_Le_00052
0274  0826  	MOVF gbl_FCV_REG0A_RX_ADDR_P0_BYTE1, W
0275  1283  	BCF STATUS, RP0
0276  00F9  	MOVWF gbl_FCV_SPI_DATA0
0277  0879  	MOVF gbl_FCV_SPI_DATA0, W
0278  1683  	BSF STATUS, RP0
0279  00B1  	MOVWF FCD_SPI_Le_00052_arg_Char
027A  2068  	CALL FCD_SPI_Le_00052
027B  0827  	MOVF gbl_FCV_REG0A_RX_ADDR_P0_BYTE2, W
027C  1283  	BCF STATUS, RP0
027D  00F9  	MOVWF gbl_FCV_SPI_DATA0
027E  0879  	MOVF gbl_FCV_SPI_DATA0, W
027F  1683  	BSF STATUS, RP0
0280  00B1  	MOVWF FCD_SPI_Le_00052_arg_Char
0281  2068  	CALL FCD_SPI_Le_00052
0282  0829  	MOVF gbl_FCV_REG0A_RX_ADDR_P0_BYTE3, W
0283  1283  	BCF STATUS, RP0
0284  00F9  	MOVWF gbl_FCV_SPI_DATA0
0285  0879  	MOVF gbl_FCV_SPI_DATA0, W
0286  1683  	BSF STATUS, RP0
0287  00B1  	MOVWF FCD_SPI_Le_00052_arg_Char
0288  2068  	CALL FCD_SPI_Le_00052
0289  082B  	MOVF gbl_FCV_REG0A_RX_ADDR_P0_BYTE4, W
028A  1283  	BCF STATUS, RP0
028B  00F9  	MOVWF gbl_FCV_SPI_DATA0
028C  0879  	MOVF gbl_FCV_SPI_DATA0, W
028D  1683  	BSF STATUS, RP0
028E  00B1  	MOVWF FCD_SPI_Le_00052_arg_Char
028F  2068  	CALL FCD_SPI_Le_00052
0290  30FB  	MOVLW 0xFB
0291  0507  	ANDWF gbl_trisc, W
0292  0087  	MOVWF gbl_trisc
0293  30FB  	MOVLW 0xFB
0294  1283  	BCF STATUS, RP0
0295  0507  	ANDWF gbl_portc, W
0296  1683  	BSF STATUS, RP0
0297  00B1  	MOVWF CompTempVar2192
0298  3004  	MOVLW 0x04
0299  0431  	IORWF CompTempVar2192, W
029A  1283  	BCF STATUS, RP0
029B  0087  	MOVWF gbl_portc
029C  3005  	MOVLW 0x05
029D  1683  	BSF STATUS, RP0
029E  00B1  	MOVWF delay_us_00000_arg_del
029F  2010  	CALL delay_us_00000
02A0  0008  	RETURN
02A1        ; } FCM_set_rx_addr function end

	ORG 0x000002A1
02A1        FCM_read_r_0005F
02A1        ; { FCM_read_recieved_data ; function begin
02A1  1683  	BSF STATUS, RP0
02A2  1303  	BCF STATUS, RP1
02A3  01AD  	CLRF gbl_FCV_LOOP_COUNT
02A4  01B3  	CLRF CompTempVar2234
02A5  3000  	MOVLW HIGH(CompTempVar2234+D'0')
02A6  00B2  	MOVWF FCI_SCOPY_00000_arg_sSrc+D'1'
02A7  30B3  	MOVLW LOW(CompTempVar2234+D'0')
02A8  00B1  	MOVWF FCI_SCOPY_00000_arg_sSrc
02A9  01C4  	CLRF FCI_SCOPY_00000_arg_iSrc_len
02AA  3000  	MOVLW HIGH(gbl_FCV_PAYLOAD_RECIEVE+D'0')
02AB  00C6  	MOVWF FCI_SCOPY_00000_arg_sDst+D'1'
02AC  3020  	MOVLW LOW(gbl_FCV_PAYLOAD_RECIEVE+D'0')
02AD  00C5  	MOVWF FCI_SCOPY_00000_arg_sDst
02AE  3012  	MOVLW 0x12
02AF  00C7  	MOVWF FCI_SCOPY_00000_arg_iDst_len
02B0  21A1  	CALL FCI_SCOPY_00000
02B1  30FB  	MOVLW 0xFB
02B2  0507  	ANDWF gbl_trisc, W
02B3  0087  	MOVWF gbl_trisc
02B4  30FB  	MOVLW 0xFB
02B5  1283  	BCF STATUS, RP0
02B6  0507  	ANDWF gbl_portc, W
02B7  0087  	MOVWF gbl_portc
02B8  3005  	MOVLW 0x05
02B9  1683  	BSF STATUS, RP0
02BA  00B1  	MOVWF delay_us_00000_arg_del
02BB  2010  	CALL delay_us_00000
02BC  3061  	MOVLW 0x61
02BD  1283  	BCF STATUS, RP0
02BE  00F9  	MOVWF gbl_FCV_SPI_DATA0
02BF  0879  	MOVF gbl_FCV_SPI_DATA0, W
02C0  1683  	BSF STATUS, RP0
02C1  00B1  	MOVWF FCD_SPI_Le_00052_arg_Char
02C2  2068  	CALL FCD_SPI_Le_00052
02C3        label30
02C3  205D  	CALL FCD_SPI_Le_00054
02C4  0832  	MOVF CompTempVarRet2190, W
02C5  1283  	BCF STATUS, RP0
02C6  00FB  	MOVWF gbl_FCV_DATA_TO_READ
02C7  3000  	MOVLW HIGH(gbl_FCV_PAYLOAD_RECIEVE+D'0')
02C8  1683  	BSF STATUS, RP0
02C9  00B2  	MOVWF FCI_SHEAD_00000_arg_sSrc1+D'1'
02CA  3020  	MOVLW LOW(gbl_FCV_PAYLOAD_RECIEVE+D'0')
02CB  00B1  	MOVWF FCI_SHEAD_00000_arg_sSrc1
02CC  3012  	MOVLW 0x12
02CD  00B3  	MOVWF FCI_SHEAD_00000_arg_iSrc1_len
02CE  3000  	MOVLW HIGH(gbl_FCV_DATA_TO_READ+D'0')
02CF  00B5  	MOVWF FCI_SHEAD_00000_arg_sSrc2+D'1'
02D0  307B  	MOVLW LOW(gbl_FCV_DATA_TO_READ+D'0')
02D1  00B4  	MOVWF FCI_SHEAD_00000_arg_sSrc2
02D2  3001  	MOVLW 0x01
02D3  00B6  	MOVWF FCI_SHEAD_00000_arg_iSrc2_len
02D4  3000  	MOVLW HIGH(gbl_FCV_PAYLOAD_RECIEVE+D'0')
02D5  00B8  	MOVWF FCI_SHEAD_00000_arg_sDst+D'1'
02D6  3020  	MOVLW LOW(gbl_FCV_PAYLOAD_RECIEVE+D'0')
02D7  00B7  	MOVWF FCI_SHEAD_00000_arg_sDst
02D8  3012  	MOVLW 0x12
02D9  00B9  	MOVWF FCI_SHEAD_00000_arg_iDst_len
02DA  208B  	CALL FCI_SHEAD_00000
02DB  0A2D  	INCF gbl_FCV_LOOP_COUNT, W
02DC  00AD  	MOVWF gbl_FCV_LOOP_COUNT
02DD  082C  	MOVF gbl_FCV_PAYLOADSIZE, W
02DE  062D  	XORWF gbl_FCV_LOOP_COUNT, W
02DF  1D03  	BTFSS STATUS,Z
02E0  2AC3  	GOTO	label30
02E1  30FB  	MOVLW 0xFB
02E2  0507  	ANDWF gbl_trisc, W
02E3  0087  	MOVWF gbl_trisc
02E4  30FB  	MOVLW 0xFB
02E5  1283  	BCF STATUS, RP0
02E6  0507  	ANDWF gbl_portc, W
02E7  1683  	BSF STATUS, RP0
02E8  00B1  	MOVWF CompTempVar2240
02E9  3004  	MOVLW 0x04
02EA  0431  	IORWF CompTempVar2240, W
02EB  1283  	BCF STATUS, RP0
02EC  0087  	MOVWF gbl_portc
02ED  3005  	MOVLW 0x05
02EE  1683  	BSF STATUS, RP0
02EF  00B1  	MOVWF delay_us_00000_arg_del
02F0  2010  	CALL delay_us_00000
02F1  0008  	RETURN
02F2        ; } FCM_read_recieved_data function end

	ORG 0x000002F2
02F2        FCM_flush__00058
02F2        ; { FCM_flush_fifo_txrx ; function begin
02F2  30FB  	MOVLW 0xFB
02F3  1683  	BSF STATUS, RP0
02F4  1303  	BCF STATUS, RP1
02F5  0507  	ANDWF gbl_trisc, W
02F6  0087  	MOVWF gbl_trisc
02F7  30FB  	MOVLW 0xFB
02F8  1283  	BCF STATUS, RP0
02F9  0507  	ANDWF gbl_portc, W
02FA  0087  	MOVWF gbl_portc
02FB  3005  	MOVLW 0x05
02FC  1683  	BSF STATUS, RP0
02FD  00B1  	MOVWF delay_us_00000_arg_del
02FE  2010  	CALL delay_us_00000
02FF  30E1  	MOVLW 0xE1
0300  1283  	BCF STATUS, RP0
0301  00F9  	MOVWF gbl_FCV_SPI_DATA0
0302  0879  	MOVF gbl_FCV_SPI_DATA0, W
0303  1683  	BSF STATUS, RP0
0304  00B1  	MOVWF FCD_SPI_Le_00052_arg_Char
0305  2068  	CALL FCD_SPI_Le_00052
0306  30E2  	MOVLW 0xE2
0307  1283  	BCF STATUS, RP0
0308  00F9  	MOVWF gbl_FCV_SPI_DATA0
0309  0879  	MOVF gbl_FCV_SPI_DATA0, W
030A  1683  	BSF STATUS, RP0
030B  00B1  	MOVWF FCD_SPI_Le_00052_arg_Char
030C  2068  	CALL FCD_SPI_Le_00052
030D  30FB  	MOVLW 0xFB
030E  0507  	ANDWF gbl_trisc, W
030F  0087  	MOVWF gbl_trisc
0310  30FB  	MOVLW 0xFB
0311  1283  	BCF STATUS, RP0
0312  0507  	ANDWF gbl_portc, W
0313  1683  	BSF STATUS, RP0
0314  00B1  	MOVWF CompTempVar2193
0315  3004  	MOVLW 0x04
0316  0431  	IORWF CompTempVar2193, W
0317  1283  	BCF STATUS, RP0
0318  0087  	MOVWF gbl_portc
0319  3005  	MOVLW 0x05
031A  1683  	BSF STATUS, RP0
031B  00B1  	MOVWF delay_us_00000_arg_del
031C  2010  	CALL delay_us_00000
031D  0008  	RETURN
031E        ; } FCM_flush_fifo_txrx function end

	ORG 0x0000031E
031E        FCM_cmd_wr_00051
031E        ; { FCM_cmd_write_reg ; function begin
031E  30FB  	MOVLW 0xFB
031F  1683  	BSF STATUS, RP0
0320  1303  	BCF STATUS, RP1
0321  0507  	ANDWF gbl_trisc, W
0322  0087  	MOVWF gbl_trisc
0323  30FB  	MOVLW 0xFB
0324  1283  	BCF STATUS, RP0
0325  0507  	ANDWF gbl_portc, W
0326  0087  	MOVWF gbl_portc
0327  3020  	MOVLW 0x20
0328  1683  	BSF STATUS, RP0
0329  072A  	ADDWF gbl_FCV_REG_TO_WRITE, W
032A  1283  	BCF STATUS, RP0
032B  00F9  	MOVWF gbl_FCV_SPI_DATA0
032C  0879  	MOVF gbl_FCV_SPI_DATA0, W
032D  1683  	BSF STATUS, RP0
032E  00B1  	MOVWF FCD_SPI_Le_00052_arg_Char
032F  2068  	CALL FCD_SPI_Le_00052
0330  1283  	BCF STATUS, RP0
0331  0871  	MOVF gbl_FCV_DATA_TO_WRITE, W
0332  00F9  	MOVWF gbl_FCV_SPI_DATA0
0333  0879  	MOVF gbl_FCV_SPI_DATA0, W
0334  1683  	BSF STATUS, RP0
0335  00B1  	MOVWF FCD_SPI_Le_00052_arg_Char
0336  2068  	CALL FCD_SPI_Le_00052
0337  30FB  	MOVLW 0xFB
0338  0507  	ANDWF gbl_trisc, W
0339  0087  	MOVWF gbl_trisc
033A  30FB  	MOVLW 0xFB
033B  1283  	BCF STATUS, RP0
033C  0507  	ANDWF gbl_portc, W
033D  1683  	BSF STATUS, RP0
033E  00B1  	MOVWF CompTempVar2188
033F  3004  	MOVLW 0x04
0340  0431  	IORWF CompTempVar2188, W
0341  1283  	BCF STATUS, RP0
0342  0087  	MOVWF gbl_portc
0343  0008  	RETURN
0344        ; } FCM_cmd_write_reg function end

	ORG 0x00000344
0344        FCM_check__0005D
0344        ; { FCM_check_status ; function begin
0344  3007  	MOVLW 0x07
0345  1283  	BCF STATUS, RP0
0346  1303  	BCF STATUS, RP1
0347  00F9  	MOVWF gbl_FCV_SPI_DATA0
0348  206C  	CALL FCM_cmd_re_00053
0349  087C  	MOVF gbl_FCV_SPI_DATA1, W
034A  1683  	BSF STATUS, RP0
034B  00A0  	MOVWF gbl_FCV_REG07
034C  3017  	MOVLW 0x17
034D  1283  	BCF STATUS, RP0
034E  00F9  	MOVWF gbl_FCV_SPI_DATA0
034F  206C  	CALL FCM_cmd_re_00053
0350  087C  	MOVF gbl_FCV_SPI_DATA1, W
0351  00FE  	MOVWF gbl_FCV_REG17
0352  0008  	RETURN
0353        ; } FCM_check_status function end

	ORG 0x00000353
0353        FCD_LCDDis_0007A
0353        ; { FCD_LCDDisplay0_RawSend ; function begin
0353  1283  	BCF STATUS, RP0
0354  1106  	BCF gbl_portb,2
0355  1186  	BCF gbl_portb,3
0356  1206  	BCF gbl_portb,4
0357  1286  	BCF gbl_portb,5
0358  1006  	BCF gbl_portb,0
0359  1086  	BCF gbl_portb,1
035A  1683  	BSF STATUS, RP0
035B  0E42  	SWAPF FCD_LCDDis_0007A_arg_in, W
035C  390F  	ANDLW 0x0F
035D  00C4  	MOVWF FCD_LCDDis_0007A_1_pt
035E  300F  	MOVLW 0x0F
035F  05C4  	ANDWF FCD_LCDDis_0007A_1_pt, F
0360  1C44  	BTFSS FCD_LCDDis_0007A_1_pt,0
0361  2B64  	GOTO	label31
0362  1283  	BCF STATUS, RP0
0363  1506  	BSF gbl_portb,2
0364        label31
0364  1683  	BSF STATUS, RP0
0365  1CC4  	BTFSS FCD_LCDDis_0007A_1_pt,1
0366  2B69  	GOTO	label32
0367  1283  	BCF STATUS, RP0
0368  1586  	BSF gbl_portb,3
0369        label32
0369  1683  	BSF STATUS, RP0
036A  1D44  	BTFSS FCD_LCDDis_0007A_1_pt,2
036B  2B6E  	GOTO	label33
036C  1283  	BCF STATUS, RP0
036D  1606  	BSF gbl_portb,4
036E        label33
036E  1683  	BSF STATUS, RP0
036F  1DC4  	BTFSS FCD_LCDDis_0007A_1_pt,3
0370  2B73  	GOTO	label34
0371  1283  	BCF STATUS, RP0
0372  1686  	BSF gbl_portb,5
0373        label34
0373  1683  	BSF STATUS, RP0
0374  08C3  	MOVF FCD_LCDDis_0007A_arg_mask, F
0375  1903  	BTFSC STATUS,Z
0376  2B79  	GOTO	label35
0377  1283  	BCF STATUS, RP0
0378  1406  	BSF gbl_portb,0
0379        label35
0379  300A  	MOVLW 0x0A
037A  1683  	BSF STATUS, RP0
037B  00C5  	MOVWF delay_10us_00000_arg_del
037C  2041  	CALL delay_10us_00000
037D  1283  	BCF STATUS, RP0
037E  1486  	BSF gbl_portb,1
037F  300A  	MOVLW 0x0A
0380  1683  	BSF STATUS, RP0
0381  00C5  	MOVWF delay_10us_00000_arg_del
0382  2041  	CALL delay_10us_00000
0383  1283  	BCF STATUS, RP0
0384  1086  	BCF gbl_portb,1
0385  300F  	MOVLW 0x0F
0386  1683  	BSF STATUS, RP0
0387  0542  	ANDWF FCD_LCDDis_0007A_arg_in, W
0388  00C4  	MOVWF FCD_LCDDis_0007A_1_pt
0389  300A  	MOVLW 0x0A
038A  00C5  	MOVWF delay_10us_00000_arg_del
038B  2041  	CALL delay_10us_00000
038C  1283  	BCF STATUS, RP0
038D  1106  	BCF gbl_portb,2
038E  1186  	BCF gbl_portb,3
038F  1206  	BCF gbl_portb,4
0390  1286  	BCF gbl_portb,5
0391  1006  	BCF gbl_portb,0
0392  1086  	BCF gbl_portb,1
0393  1683  	BSF STATUS, RP0
0394  1C44  	BTFSS FCD_LCDDis_0007A_1_pt,0
0395  2B98  	GOTO	label36
0396  1283  	BCF STATUS, RP0
0397  1506  	BSF gbl_portb,2
0398        label36
0398  1683  	BSF STATUS, RP0
0399  1CC4  	BTFSS FCD_LCDDis_0007A_1_pt,1
039A  2B9D  	GOTO	label37
039B  1283  	BCF STATUS, RP0
039C  1586  	BSF gbl_portb,3
039D        label37
039D  1683  	BSF STATUS, RP0
039E  1D44  	BTFSS FCD_LCDDis_0007A_1_pt,2
039F  2BA2  	GOTO	label38
03A0  1283  	BCF STATUS, RP0
03A1  1606  	BSF gbl_portb,4
03A2        label38
03A2  1683  	BSF STATUS, RP0
03A3  1DC4  	BTFSS FCD_LCDDis_0007A_1_pt,3
03A4  2BA7  	GOTO	label39
03A5  1283  	BCF STATUS, RP0
03A6  1686  	BSF gbl_portb,5
03A7        label39
03A7  1683  	BSF STATUS, RP0
03A8  08C3  	MOVF FCD_LCDDis_0007A_arg_mask, F
03A9  1903  	BTFSC STATUS,Z
03AA  2BAD  	GOTO	label40
03AB  1283  	BCF STATUS, RP0
03AC  1406  	BSF gbl_portb,0
03AD        label40
03AD  300A  	MOVLW 0x0A
03AE  1683  	BSF STATUS, RP0
03AF  00C5  	MOVWF delay_10us_00000_arg_del
03B0  2041  	CALL delay_10us_00000
03B1  1283  	BCF STATUS, RP0
03B2  1486  	BSF gbl_portb,1
03B3  300A  	MOVLW 0x0A
03B4  1683  	BSF STATUS, RP0
03B5  00C5  	MOVWF delay_10us_00000_arg_del
03B6  2041  	CALL delay_10us_00000
03B7  1283  	BCF STATUS, RP0
03B8  1086  	BCF gbl_portb,1
03B9  300A  	MOVLW 0x0A
03BA  1683  	BSF STATUS, RP0
03BB  00C5  	MOVWF delay_10us_00000_arg_del
03BC  2041  	CALL delay_10us_00000
03BD  0008  	RETURN
03BE        ; } FCD_LCDDisplay0_RawSend function end

	ORG 0x000003BE
03BE        FC_CAL_UAR_00072
03BE        ; { FC_CAL_UART_Init_1 ; function begin
03BE  1683  	BSF STATUS, RP0
03BF  1303  	BCF STATUS, RP1
03C0  1518  	BSF gbl_txsta,2
03C1  3081  	MOVLW 0x81
03C2  0099  	MOVWF gbl_spbrg
03C3  1283  	BCF STATUS, RP0
03C4  0198  	CLRF gbl_rcsta
03C5  1798  	BSF gbl_rcsta,7
03C6  1683  	BSF STATUS, RP0
03C7  1698  	BSF gbl_txsta,5
03C8  1283  	BCF STATUS, RP0
03C9  1618  	BSF gbl_rcsta,4
03CA  1683  	BSF STATUS, RP0
03CB  128C  	BCF gbl_pie1,5
03CC  0008  	RETURN
03CD        ; } FC_CAL_UART_Init_1 function end

	ORG 0x000003CD
03CD        FCM_radio__0005E
03CD        ; { FCM_radio_recieve_data ; function begin
03CD  1683  	BSF STATUS, RP0
03CE  1303  	BCF STATUS, RP1
03CF  01B3  	CLRF CompTempVar2230
03D0  3000  	MOVLW HIGH(CompTempVar2230+D'0')
03D1  00B2  	MOVWF FCI_SCOPY_00000_arg_sSrc+D'1'
03D2  30B3  	MOVLW LOW(CompTempVar2230+D'0')
03D3  00B1  	MOVWF FCI_SCOPY_00000_arg_sSrc
03D4  01C4  	CLRF FCI_SCOPY_00000_arg_iSrc_len
03D5  3000  	MOVLW HIGH(gbl_FCV_PAYLOAD_RECIEVE+D'0')
03D6  00C6  	MOVWF FCI_SCOPY_00000_arg_sDst+D'1'
03D7  3020  	MOVLW LOW(gbl_FCV_PAYLOAD_RECIEVE+D'0')
03D8  00C5  	MOVWF FCI_SCOPY_00000_arg_sDst
03D9  3012  	MOVLW 0x12
03DA  00C7  	MOVWF FCI_SCOPY_00000_arg_iDst_len
03DB  21A1  	CALL FCI_SCOPY_00000
03DC  3004  	MOVLW 0x04
03DD  00B5  	MOVWF delay_ms_00000_arg_del
03DE  2015  	CALL delay_ms_00000
03DF  2344  	CALL FCM_check__0005D
03E0  1683  	BSF STATUS, RP0
03E1  0820  	MOVF gbl_FCV_REG07, W
03E2  3A40  	XORLW 0x40
03E3  1D03  	BTFSS STATUS,Z
03E4  2C02  	GOTO	label41
03E5  30DF  	MOVLW 0xDF
03E6  0505  	ANDWF gbl_trisa, W
03E7  0085  	MOVWF gbl_trisa
03E8  30DF  	MOVLW 0xDF
03E9  1283  	BCF STATUS, RP0
03EA  0505  	ANDWF gbl_porta, W
03EB  1683  	BSF STATUS, RP0
03EC  00B1  	MOVWF CompTempVar2233
03ED  3020  	MOVLW 0x20
03EE  0431  	IORWF CompTempVar2233, W
03EF  1283  	BCF STATUS, RP0
03F0  0085  	MOVWF gbl_porta
03F1  22A1  	CALL FCM_read_r_0005F
03F2  3007  	MOVLW 0x07
03F3  00AA  	MOVWF gbl_FCV_REG_TO_WRITE
03F4  304E  	MOVLW 0x4E
03F5  1283  	BCF STATUS, RP0
03F6  00F1  	MOVWF gbl_FCV_DATA_TO_WRITE
03F7  231E  	CALL FCM_cmd_wr_00051
03F8  30DF  	MOVLW 0xDF
03F9  1683  	BSF STATUS, RP0
03FA  0505  	ANDWF gbl_trisa, W
03FB  0085  	MOVWF gbl_trisa
03FC  30DF  	MOVLW 0xDF
03FD  1283  	BCF STATUS, RP0
03FE  0505  	ANDWF gbl_porta, W
03FF  0085  	MOVWF gbl_porta
0400  15EE  	BSF gbl_FCV_FLAG_RADIO_RX,3
0401  2C09  	GOTO	label42
0402        label41
0402  30DF  	MOVLW 0xDF
0403  0505  	ANDWF gbl_trisa, W
0404  0085  	MOVWF gbl_trisa
0405  30DF  	MOVLW 0xDF
0406  1283  	BCF STATUS, RP0
0407  0505  	ANDWF gbl_porta, W
0408  0085  	MOVWF gbl_porta
0409        label42
0409  22F2  	CALL FCM_flush__00058
040A  0008  	RETURN
040B        ; } FCM_radio_recieve_data function end

	ORG 0x0000040B
040B        FCM_radio__0005C
040B        ; { FCM_radio_send_data ; function begin
040B  30FB  	MOVLW 0xFB
040C  1683  	BSF STATUS, RP0
040D  1303  	BCF STATUS, RP1
040E  0507  	ANDWF gbl_trisc, W
040F  0087  	MOVWF gbl_trisc
0410  30FB  	MOVLW 0xFB
0411  1283  	BCF STATUS, RP0
0412  0507  	ANDWF gbl_portc, W
0413  0087  	MOVWF gbl_portc
0414  3005  	MOVLW 0x05
0415  1683  	BSF STATUS, RP0
0416  00B1  	MOVWF delay_us_00000_arg_del
0417  2010  	CALL delay_us_00000
0418  30A0  	MOVLW 0xA0
0419  1283  	BCF STATUS, RP0
041A  00F9  	MOVWF gbl_FCV_SPI_DATA0
041B  0879  	MOVF gbl_FCV_SPI_DATA0, W
041C  1683  	BSF STATUS, RP0
041D  00B1  	MOVWF FCD_SPI_Le_00052_arg_Char
041E  2068  	CALL FCD_SPI_Le_00052
041F  01AD  	CLRF gbl_FCV_LOOP_COUNT
0420        label43
0420  1283  	BCF STATUS, RP0
0421  1383  	BCF	STATUS,IRP
0422  3032  	MOVLW LOW(gbl_FCV_PAYLOAD_TRANSMIT+D'0')
0423  0084  	MOVWF FSR
0424  1683  	BSF STATUS, RP0
0425  082D  	MOVF gbl_FCV_LOOP_COUNT, W
0426  0784  	ADDWF FSR, F
0427  0800  	MOVF INDF, W
0428  1283  	BCF STATUS, RP0
0429  00F9  	MOVWF gbl_FCV_SPI_DATA0
042A  0879  	MOVF gbl_FCV_SPI_DATA0, W
042B  1683  	BSF STATUS, RP0
042C  00B1  	MOVWF FCD_SPI_Le_00052_arg_Char
042D  2068  	CALL FCD_SPI_Le_00052
042E  0A2D  	INCF gbl_FCV_LOOP_COUNT, W
042F  00AD  	MOVWF gbl_FCV_LOOP_COUNT
0430  082C  	MOVF gbl_FCV_PAYLOADSIZE, W
0431  062D  	XORWF gbl_FCV_LOOP_COUNT, W
0432  1D03  	BTFSS STATUS,Z
0433  2C20  	GOTO	label43
0434  30FB  	MOVLW 0xFB
0435  0507  	ANDWF gbl_trisc, W
0436  0087  	MOVWF gbl_trisc
0437  30FB  	MOVLW 0xFB
0438  1283  	BCF STATUS, RP0
0439  0507  	ANDWF gbl_portc, W
043A  1683  	BSF STATUS, RP0
043B  00B1  	MOVWF CompTempVar2227
043C  3004  	MOVLW 0x04
043D  0431  	IORWF CompTempVar2227, W
043E  1283  	BCF STATUS, RP0
043F  0087  	MOVWF gbl_portc
0440  3005  	MOVLW 0x05
0441  1683  	BSF STATUS, RP0
0442  00B1  	MOVWF delay_us_00000_arg_del
0443  2010  	CALL delay_us_00000
0444  30FD  	MOVLW 0xFD
0445  0507  	ANDWF gbl_trisc, W
0446  0087  	MOVWF gbl_trisc
0447  30FD  	MOVLW 0xFD
0448  1283  	BCF STATUS, RP0
0449  0507  	ANDWF gbl_portc, W
044A  1683  	BSF STATUS, RP0
044B  00B1  	MOVWF CompTempVar2228
044C  3002  	MOVLW 0x02
044D  0431  	IORWF CompTempVar2228, W
044E  1283  	BCF STATUS, RP0
044F  0087  	MOVWF gbl_portc
0450  3006  	MOVLW 0x06
0451  1683  	BSF STATUS, RP0
0452  00B5  	MOVWF delay_ms_00000_arg_del
0453  2015  	CALL delay_ms_00000
0454  30FD  	MOVLW 0xFD
0455  0507  	ANDWF gbl_trisc, W
0456  0087  	MOVWF gbl_trisc
0457  30FD  	MOVLW 0xFD
0458  1283  	BCF STATUS, RP0
0459  0507  	ANDWF gbl_portc, W
045A  0087  	MOVWF gbl_portc
045B  2344  	CALL FCM_check__0005D
045C  1683  	BSF STATUS, RP0
045D  0820  	MOVF gbl_FCV_REG07, W
045E  3A2E  	XORLW 0x2E
045F  1D03  	BTFSS STATUS,Z
0460  2C7D  	GOTO	label44
0461  30FE  	MOVLW 0xFE
0462  0507  	ANDWF gbl_trisc, W
0463  0087  	MOVWF gbl_trisc
0464  30FE  	MOVLW 0xFE
0465  1283  	BCF STATUS, RP0
0466  0507  	ANDWF gbl_portc, W
0467  1683  	BSF STATUS, RP0
0468  00B1  	MOVWF CompTempVar2229
0469  3001  	MOVLW 0x01
046A  0431  	IORWF CompTempVar2229, W
046B  1283  	BCF STATUS, RP0
046C  0087  	MOVWF gbl_portc
046D  3007  	MOVLW 0x07
046E  1683  	BSF STATUS, RP0
046F  00AA  	MOVWF gbl_FCV_REG_TO_WRITE
0470  302E  	MOVLW 0x2E
0471  1283  	BCF STATUS, RP0
0472  00F1  	MOVWF gbl_FCV_DATA_TO_WRITE
0473  231E  	CALL FCM_cmd_wr_00051
0474  22F2  	CALL FCM_flush__00058
0475  30FE  	MOVLW 0xFE
0476  0507  	ANDWF gbl_trisc, W
0477  0087  	MOVWF gbl_trisc
0478  30FE  	MOVLW 0xFE
0479  1283  	BCF STATUS, RP0
047A  0507  	ANDWF gbl_portc, W
047B  0087  	MOVWF gbl_portc
047C  0008  	RETURN
047D        label44
047D  0820  	MOVF gbl_FCV_REG07, W
047E  3A1E  	XORLW 0x1E
047F  1D03  	BTFSS STATUS,Z
0480  2C8A  	GOTO	label45
0481  22F2  	CALL FCM_flush__00058
0482  3007  	MOVLW 0x07
0483  00AA  	MOVWF gbl_FCV_REG_TO_WRITE
0484  301E  	MOVLW 0x1E
0485  1283  	BCF STATUS, RP0
0486  00F1  	MOVWF gbl_FCV_DATA_TO_WRITE
0487  231E  	CALL FCM_cmd_wr_00051
0488  22F2  	CALL FCM_flush__00058
0489  0008  	RETURN
048A        label45
048A  22F2  	CALL FCM_flush__00058
048B  0008  	RETURN
048C        ; } FCM_radio_send_data function end

	ORG 0x0000048C
048C        FCM_radio__0005B
048C        ; { FCM_radio_init_tx ; function begin
048C  1683  	BSF STATUS, RP0
048D  1303  	BCF STATUS, RP1
048E  01AA  	CLRF gbl_FCV_REG_TO_WRITE
048F  300E  	MOVLW 0x0E
0490  1283  	BCF STATUS, RP0
0491  00F1  	MOVWF gbl_FCV_DATA_TO_WRITE
0492  231E  	CALL FCM_cmd_wr_00051
0493  3001  	MOVLW 0x01
0494  1683  	BSF STATUS, RP0
0495  00AA  	MOVWF gbl_FCV_REG_TO_WRITE
0496  303F  	MOVLW 0x3F
0497  1283  	BCF STATUS, RP0
0498  00F1  	MOVWF gbl_FCV_DATA_TO_WRITE
0499  231E  	CALL FCM_cmd_wr_00051
049A  3002  	MOVLW 0x02
049B  1683  	BSF STATUS, RP0
049C  00AA  	MOVWF gbl_FCV_REG_TO_WRITE
049D  3003  	MOVLW 0x03
049E  1283  	BCF STATUS, RP0
049F  00F1  	MOVWF gbl_FCV_DATA_TO_WRITE
04A0  231E  	CALL FCM_cmd_wr_00051
04A1  3003  	MOVLW 0x03
04A2  1683  	BSF STATUS, RP0
04A3  00AA  	MOVWF gbl_FCV_REG_TO_WRITE
04A4  1283  	BCF STATUS, RP0
04A5  00F1  	MOVWF gbl_FCV_DATA_TO_WRITE
04A6  231E  	CALL FCM_cmd_wr_00051
04A7  3004  	MOVLW 0x04
04A8  1683  	BSF STATUS, RP0
04A9  00AA  	MOVWF gbl_FCV_REG_TO_WRITE
04AA  305F  	MOVLW 0x5F
04AB  1283  	BCF STATUS, RP0
04AC  00F1  	MOVWF gbl_FCV_DATA_TO_WRITE
04AD  231E  	CALL FCM_cmd_wr_00051
04AE  3005  	MOVLW 0x05
04AF  1683  	BSF STATUS, RP0
04B0  00AA  	MOVWF gbl_FCV_REG_TO_WRITE
04B1  304C  	MOVLW 0x4C
04B2  1283  	BCF STATUS, RP0
04B3  00F1  	MOVWF gbl_FCV_DATA_TO_WRITE
04B4  231E  	CALL FCM_cmd_wr_00051
04B5  3006  	MOVLW 0x06
04B6  1683  	BSF STATUS, RP0
04B7  00AA  	MOVWF gbl_FCV_REG_TO_WRITE
04B8  3027  	MOVLW 0x27
04B9  1283  	BCF STATUS, RP0
04BA  00F1  	MOVWF gbl_FCV_DATA_TO_WRITE
04BB  231E  	CALL FCM_cmd_wr_00051
04BC  3011  	MOVLW 0x11
04BD  1683  	BSF STATUS, RP0
04BE  00AA  	MOVWF gbl_FCV_REG_TO_WRITE
04BF  082C  	MOVF gbl_FCV_PAYLOADSIZE, W
04C0  1283  	BCF STATUS, RP0
04C1  00F1  	MOVWF gbl_FCV_DATA_TO_WRITE
04C2  231E  	CALL FCM_cmd_wr_00051
04C3  2211  	CALL FCM_set_tx_00056
04C4  2259  	CALL FCM_set_rx_00057
04C5  22F2  	CALL FCM_flush__00058
04C6  0008  	RETURN
04C7        ; } FCM_radio_init_tx function end

	ORG 0x000004C7
04C7        FCM_radio__00055
04C7        ; { FCM_radio_init_rx ; function begin
04C7  1683  	BSF STATUS, RP0
04C8  1303  	BCF STATUS, RP1
04C9  01AA  	CLRF gbl_FCV_REG_TO_WRITE
04CA  300F  	MOVLW 0x0F
04CB  1283  	BCF STATUS, RP0
04CC  00F1  	MOVWF gbl_FCV_DATA_TO_WRITE
04CD  231E  	CALL FCM_cmd_wr_00051
04CE  3001  	MOVLW 0x01
04CF  1683  	BSF STATUS, RP0
04D0  00AA  	MOVWF gbl_FCV_REG_TO_WRITE
04D1  303F  	MOVLW 0x3F
04D2  1283  	BCF STATUS, RP0
04D3  00F1  	MOVWF gbl_FCV_DATA_TO_WRITE
04D4  231E  	CALL FCM_cmd_wr_00051
04D5  3002  	MOVLW 0x02
04D6  1683  	BSF STATUS, RP0
04D7  00AA  	MOVWF gbl_FCV_REG_TO_WRITE
04D8  3003  	MOVLW 0x03
04D9  1283  	BCF STATUS, RP0
04DA  00F1  	MOVWF gbl_FCV_DATA_TO_WRITE
04DB  231E  	CALL FCM_cmd_wr_00051
04DC  3003  	MOVLW 0x03
04DD  1683  	BSF STATUS, RP0
04DE  00AA  	MOVWF gbl_FCV_REG_TO_WRITE
04DF  1283  	BCF STATUS, RP0
04E0  00F1  	MOVWF gbl_FCV_DATA_TO_WRITE
04E1  231E  	CALL FCM_cmd_wr_00051
04E2  3004  	MOVLW 0x04
04E3  1683  	BSF STATUS, RP0
04E4  00AA  	MOVWF gbl_FCV_REG_TO_WRITE
04E5  305F  	MOVLW 0x5F
04E6  1283  	BCF STATUS, RP0
04E7  00F1  	MOVWF gbl_FCV_DATA_TO_WRITE
04E8  231E  	CALL FCM_cmd_wr_00051
04E9  3005  	MOVLW 0x05
04EA  1683  	BSF STATUS, RP0
04EB  00AA  	MOVWF gbl_FCV_REG_TO_WRITE
04EC  304C  	MOVLW 0x4C
04ED  1283  	BCF STATUS, RP0
04EE  00F1  	MOVWF gbl_FCV_DATA_TO_WRITE
04EF  231E  	CALL FCM_cmd_wr_00051
04F0  3006  	MOVLW 0x06
04F1  1683  	BSF STATUS, RP0
04F2  00AA  	MOVWF gbl_FCV_REG_TO_WRITE
04F3  3027  	MOVLW 0x27
04F4  1283  	BCF STATUS, RP0
04F5  00F1  	MOVWF gbl_FCV_DATA_TO_WRITE
04F6  231E  	CALL FCM_cmd_wr_00051
04F7  3011  	MOVLW 0x11
04F8  1683  	BSF STATUS, RP0
04F9  00AA  	MOVWF gbl_FCV_REG_TO_WRITE
04FA  082C  	MOVF gbl_FCV_PAYLOADSIZE, W
04FB  1283  	BCF STATUS, RP0
04FC  00F1  	MOVWF gbl_FCV_DATA_TO_WRITE
04FD  231E  	CALL FCM_cmd_wr_00051
04FE  2211  	CALL FCM_set_tx_00056
04FF  2259  	CALL FCM_set_rx_00057
0500  22F2  	CALL FCM_flush__00058
0501  0008  	RETURN
0502        ; } FCM_radio_init_rx function end

	ORG 0x00000502
0502        FCD_SPI_Le_00067
0502        ; { FCD_SPI_Legacy0_SPI_Init ; function begin
0502  1683  	BSF STATUS, RP0
0503  1303  	BCF STATUS, RP1
0504  1005  	BCF gbl_trisa,0
0505  1283  	BCF STATUS, RP0
0506  1405  	BSF gbl_porta,0
0507  1683  	BSF STATUS, RP0
0508  1005  	BCF gbl_trisa,0
0509  1283  	BCF STATUS, RP0
050A  1405  	BSF gbl_porta,0
050B  21FF  	CALL FC_CAL_SPI_00064
050C  0008  	RETURN
050D        ; } FCD_SPI_Legacy0_SPI_Init function end

	ORG 0x0000050D
050D        FCD_LCDDis_00081
050D        ; { FCD_LCDDisplay0_PrintString ; function begin
050D  01C1  	CLRF FCD_LCDDis_00081_1_idx
050E  01C1  	CLRF FCD_LCDDis_00081_1_idx
050F        label46
050F  0840  	MOVF FCD_LCDDis_00081_arg_MSZ_String, W
0510  0241  	SUBWF FCD_LCDDis_00081_1_idx, W
0511  1803  	BTFSC STATUS,C
0512  0008  	RETURN
0513  1383  	BCF STATUS,IRP
0514  1832  	BTFSC FCD_LCDDis_00081_arg_String+D'1',0
0515  1783  	BSF STATUS,IRP
0516  0831  	MOVF FCD_LCDDis_00081_arg_String, W
0517  0741  	ADDWF FCD_LCDDis_00081_1_idx, W
0518  0084  	MOVWF FSR
0519  0880  	MOVF INDF, F
051A  1903  	BTFSC STATUS,Z
051B  0008  	RETURN
051C  1383  	BCF STATUS,IRP
051D  1832  	BTFSC FCD_LCDDis_00081_arg_String+D'1',0
051E  1783  	BSF STATUS,IRP
051F  0831  	MOVF FCD_LCDDis_00081_arg_String, W
0520  0741  	ADDWF FCD_LCDDis_00081_1_idx, W
0521  0084  	MOVWF FSR
0522  0800  	MOVF INDF, W
0523  00C2  	MOVWF FCD_LCDDis_0007A_arg_in
0524  3010  	MOVLW 0x10
0525  00C3  	MOVWF FCD_LCDDis_0007A_arg_mask
0526  2353  	CALL FCD_LCDDis_0007A
0527  0AC1  	INCF FCD_LCDDis_00081_1_idx, F
0528  2D0F  	GOTO	label46
0529        ; } FCD_LCDDisplay0_PrintString function end

	ORG 0x00000529
0529        FCD_LCDDis_00080
0529        ; { FCD_LCDDisplay0_PrintNumber ; function begin
0529  1FB2  	BTFSS FCD_LCDDis_00080_arg_Number+D'1',7
052A  2D38  	GOTO	label47
052B  302D  	MOVLW 0x2D
052C  00C2  	MOVWF FCD_LCDDis_0007A_arg_in
052D  3010  	MOVLW 0x10
052E  00C3  	MOVWF FCD_LCDDis_0007A_arg_mask
052F  2353  	CALL FCD_LCDDis_0007A
0530  0831  	MOVF FCD_LCDDis_00080_arg_Number, W
0531  3C00  	SUBLW 0x00
0532  00B6  	MOVWF CompTempVar2268
0533  09B2  	COMF FCD_LCDDis_00080_arg_Number+D'1', F
0534  1803  	BTFSC STATUS,C
0535  0AB2  	INCF FCD_LCDDis_00080_arg_Number+D'1', F
0536  0836  	MOVF CompTempVar2268, W
0537  00B1  	MOVWF FCD_LCDDis_00080_arg_Number
0538        label47
0538  0831  	MOVF FCD_LCDDis_00080_arg_Number, W
0539  00B3  	MOVWF FCD_LCDDis_00080_1_tmp_int
053A  0832  	MOVF FCD_LCDDis_00080_arg_Number+D'1', W
053B  00B4  	MOVWF FCD_LCDDis_00080_1_tmp_int+D'1'
053C  3027  	MOVLW 0x27
053D  0232  	SUBWF FCD_LCDDis_00080_arg_Number+D'1', W
053E  1D03  	BTFSS STATUS,Z
053F  2D42  	GOTO	label48
0540  3010  	MOVLW 0x10
0541  0231  	SUBWF FCD_LCDDis_00080_arg_Number, W
0542        label48
0542  1C03  	BTFSS STATUS,C
0543  2D70  	GOTO	label52
0544  1BB2  	BTFSC FCD_LCDDis_00080_arg_Number+D'1',7
0545  2D70  	GOTO	label52
0546  01BA  	CLRF CompTempVar2271
0547  0833  	MOVF FCD_LCDDis_00080_1_tmp_int, W
0548  00B6  	MOVWF __div_16_1_00003_arg_a
0549  0834  	MOVF FCD_LCDDis_00080_1_tmp_int+D'1', W
054A  00B7  	MOVWF __div_16_1_00003_arg_a+D'1'
054B  1FB4  	BTFSS FCD_LCDDis_00080_1_tmp_int+D'1',7
054C  2D53  	GOTO	label49
054D  09B6  	COMF __div_16_1_00003_arg_a, F
054E  09B7  	COMF __div_16_1_00003_arg_a+D'1', F
054F  0AB6  	INCF __div_16_1_00003_arg_a, F
0550  1903  	BTFSC STATUS,Z
0551  0AB7  	INCF __div_16_1_00003_arg_a+D'1', F
0552  0ABA  	INCF CompTempVar2271, F
0553        label49
0553  3010  	MOVLW 0x10
0554  00B8  	MOVWF __div_16_1_00003_arg_b
0555  3027  	MOVLW 0x27
0556  00B9  	MOVWF __div_16_1_00003_arg_b+D'1'
0557  21D5  	CALL __div_16_1_00003
0558  083F  	MOVF CompTempVarRet214, W
0559  00B5  	MOVWF FCD_LCDDis_00080_1_tmp_byte
055A  1C3A  	BTFSS CompTempVar2271,0
055B  2D5E  	GOTO	label50
055C  09B5  	COMF FCD_LCDDis_00080_1_tmp_byte, F
055D  0AB5  	INCF FCD_LCDDis_00080_1_tmp_byte, F
055E        label50
055E  0835  	MOVF FCD_LCDDis_00080_1_tmp_byte, W
055F  3E30  	ADDLW 0x30
0560  00C2  	MOVWF FCD_LCDDis_0007A_arg_in
0561  3010  	MOVLW 0x10
0562  00C3  	MOVWF FCD_LCDDis_0007A_arg_mask
0563  2353  	CALL FCD_LCDDis_0007A
0564        label51
0564  0835  	MOVF FCD_LCDDis_00080_1_tmp_byte, W
0565  3C00  	SUBLW 0x00
0566  1803  	BTFSC STATUS,C
0567  2D70  	GOTO	label52
0568  3010  	MOVLW 0x10
0569  02B3  	SUBWF FCD_LCDDis_00080_1_tmp_int, F
056A  3027  	MOVLW 0x27
056B  1C03  	BTFSS STATUS,C
056C  3028  	MOVLW 0x28
056D  02B4  	SUBWF FCD_LCDDis_00080_1_tmp_int+D'1', F
056E  03B5  	DECF FCD_LCDDis_00080_1_tmp_byte, F
056F  2D64  	GOTO	label51
0570        label52
0570  3003  	MOVLW 0x03
0571  0232  	SUBWF FCD_LCDDis_00080_arg_Number+D'1', W
0572  1D03  	BTFSS STATUS,Z
0573  2D76  	GOTO	label53
0574  30E8  	MOVLW 0xE8
0575  0231  	SUBWF FCD_LCDDis_00080_arg_Number, W
0576        label53
0576  1C03  	BTFSS STATUS,C
0577  2DA6  	GOTO	label57
0578  1BB2  	BTFSC FCD_LCDDis_00080_arg_Number+D'1',7
0579  2DA6  	GOTO	label57
057A  01BB  	CLRF CompTempVar2275
057B  0833  	MOVF FCD_LCDDis_00080_1_tmp_int, W
057C  00B6  	MOVWF __div_16_1_00003_arg_a
057D  0834  	MOVF FCD_LCDDis_00080_1_tmp_int+D'1', W
057E  00B7  	MOVWF __div_16_1_00003_arg_a+D'1'
057F  1FB4  	BTFSS FCD_LCDDis_00080_1_tmp_int+D'1',7
0580  2D87  	GOTO	label54
0581  09B6  	COMF __div_16_1_00003_arg_a, F
0582  09B7  	COMF __div_16_1_00003_arg_a+D'1', F
0583  0AB6  	INCF __div_16_1_00003_arg_a, F
0584  1903  	BTFSC STATUS,Z
0585  0AB7  	INCF __div_16_1_00003_arg_a+D'1', F
0586  0ABB  	INCF CompTempVar2275, F
0587        label54
0587  30E8  	MOVLW 0xE8
0588  00B8  	MOVWF __div_16_1_00003_arg_b
0589  3003  	MOVLW 0x03
058A  00B9  	MOVWF __div_16_1_00003_arg_b+D'1'
058B  21D5  	CALL __div_16_1_00003
058C  083F  	MOVF CompTempVarRet214, W
058D  00BA  	MOVWF CompTempVar2274
058E  1C3B  	BTFSS CompTempVar2275,0
058F  2D92  	GOTO	label55
0590  09BA  	COMF CompTempVar2274, F
0591  0ABA  	INCF CompTempVar2274, F
0592        label55
0592  083A  	MOVF CompTempVar2274, W
0593  00B5  	MOVWF FCD_LCDDis_00080_1_tmp_byte
0594  0835  	MOVF FCD_LCDDis_00080_1_tmp_byte, W
0595  3E30  	ADDLW 0x30
0596  00C2  	MOVWF FCD_LCDDis_0007A_arg_in
0597  3010  	MOVLW 0x10
0598  00C3  	MOVWF FCD_LCDDis_0007A_arg_mask
0599  2353  	CALL FCD_LCDDis_0007A
059A        label56
059A  0835  	MOVF FCD_LCDDis_00080_1_tmp_byte, W
059B  3C00  	SUBLW 0x00
059C  1803  	BTFSC STATUS,C
059D  2DA6  	GOTO	label57
059E  30E8  	MOVLW 0xE8
059F  02B3  	SUBWF FCD_LCDDis_00080_1_tmp_int, F
05A0  3003  	MOVLW 0x03
05A1  1C03  	BTFSS STATUS,C
05A2  3004  	MOVLW 0x04
05A3  02B4  	SUBWF FCD_LCDDis_00080_1_tmp_int+D'1', F
05A4  03B5  	DECF FCD_LCDDis_00080_1_tmp_byte, F
05A5  2D9A  	GOTO	label56
05A6        label57
05A6  0832  	MOVF FCD_LCDDis_00080_arg_Number+D'1', W
05A7  3A80  	XORLW 0x80
05A8  00B6  	MOVWF CompTempVar2278
05A9  3080  	MOVLW 0x80
05AA  0236  	SUBWF CompTempVar2278, W
05AB  1D03  	BTFSS STATUS,Z
05AC  2DAF  	GOTO	label58
05AD  3064  	MOVLW 0x64
05AE  0231  	SUBWF FCD_LCDDis_00080_arg_Number, W
05AF        label58
05AF  1C03  	BTFSS STATUS,C
05B0  2DDB  	GOTO	label62
05B1  01BB  	CLRF CompTempVar2280
05B2  0833  	MOVF FCD_LCDDis_00080_1_tmp_int, W
05B3  00B6  	MOVWF __div_16_1_00003_arg_a
05B4  0834  	MOVF FCD_LCDDis_00080_1_tmp_int+D'1', W
05B5  00B7  	MOVWF __div_16_1_00003_arg_a+D'1'
05B6  1FB4  	BTFSS FCD_LCDDis_00080_1_tmp_int+D'1',7
05B7  2DBE  	GOTO	label59
05B8  09B6  	COMF __div_16_1_00003_arg_a, F
05B9  09B7  	COMF __div_16_1_00003_arg_a+D'1', F
05BA  0AB6  	INCF __div_16_1_00003_arg_a, F
05BB  1903  	BTFSC STATUS,Z
05BC  0AB7  	INCF __div_16_1_00003_arg_a+D'1', F
05BD  0ABB  	INCF CompTempVar2280, F
05BE        label59
05BE  3064  	MOVLW 0x64
05BF  00B8  	MOVWF __div_16_1_00003_arg_b
05C0  01B9  	CLRF __div_16_1_00003_arg_b+D'1'
05C1  21D5  	CALL __div_16_1_00003
05C2  083F  	MOVF CompTempVarRet214, W
05C3  00BA  	MOVWF CompTempVar2279
05C4  1C3B  	BTFSS CompTempVar2280,0
05C5  2DC8  	GOTO	label60
05C6  09BA  	COMF CompTempVar2279, F
05C7  0ABA  	INCF CompTempVar2279, F
05C8        label60
05C8  083A  	MOVF CompTempVar2279, W
05C9  00B5  	MOVWF FCD_LCDDis_00080_1_tmp_byte
05CA  0835  	MOVF FCD_LCDDis_00080_1_tmp_byte, W
05CB  3E30  	ADDLW 0x30
05CC  00C2  	MOVWF FCD_LCDDis_0007A_arg_in
05CD  3010  	MOVLW 0x10
05CE  00C3  	MOVWF FCD_LCDDis_0007A_arg_mask
05CF  2353  	CALL FCD_LCDDis_0007A
05D0        label61
05D0  0835  	MOVF FCD_LCDDis_00080_1_tmp_byte, W
05D1  3C00  	SUBLW 0x00
05D2  1803  	BTFSC STATUS,C
05D3  2DDB  	GOTO	label62
05D4  3064  	MOVLW 0x64
05D5  02B3  	SUBWF FCD_LCDDis_00080_1_tmp_int, F
05D6  08B4  	MOVF FCD_LCDDis_00080_1_tmp_int+D'1', F
05D7  1C03  	BTFSS STATUS,C
05D8  03B4  	DECF FCD_LCDDis_00080_1_tmp_int+D'1', F
05D9  03B5  	DECF FCD_LCDDis_00080_1_tmp_byte, F
05DA  2DD0  	GOTO	label61
05DB        label62
05DB  0832  	MOVF FCD_LCDDis_00080_arg_Number+D'1', W
05DC  3A80  	XORLW 0x80
05DD  00B6  	MOVWF CompTempVar2283
05DE  3080  	MOVLW 0x80
05DF  0236  	SUBWF CompTempVar2283, W
05E0  1D03  	BTFSS STATUS,Z
05E1  2DE4  	GOTO	label63
05E2  300A  	MOVLW 0x0A
05E3  0231  	SUBWF FCD_LCDDis_00080_arg_Number, W
05E4        label63
05E4  1C03  	BTFSS STATUS,C
05E5  2E10  	GOTO	label67
05E6  01BB  	CLRF CompTempVar2285
05E7  0833  	MOVF FCD_LCDDis_00080_1_tmp_int, W
05E8  00B6  	MOVWF __div_16_1_00003_arg_a
05E9  0834  	MOVF FCD_LCDDis_00080_1_tmp_int+D'1', W
05EA  00B7  	MOVWF __div_16_1_00003_arg_a+D'1'
05EB  1FB4  	BTFSS FCD_LCDDis_00080_1_tmp_int+D'1',7
05EC  2DF3  	GOTO	label64
05ED  09B6  	COMF __div_16_1_00003_arg_a, F
05EE  09B7  	COMF __div_16_1_00003_arg_a+D'1', F
05EF  0AB6  	INCF __div_16_1_00003_arg_a, F
05F0  1903  	BTFSC STATUS,Z
05F1  0AB7  	INCF __div_16_1_00003_arg_a+D'1', F
05F2  0ABB  	INCF CompTempVar2285, F
05F3        label64
05F3  300A  	MOVLW 0x0A
05F4  00B8  	MOVWF __div_16_1_00003_arg_b
05F5  01B9  	CLRF __div_16_1_00003_arg_b+D'1'
05F6  21D5  	CALL __div_16_1_00003
05F7  083F  	MOVF CompTempVarRet214, W
05F8  00BA  	MOVWF CompTempVar2284
05F9  1C3B  	BTFSS CompTempVar2285,0
05FA  2DFD  	GOTO	label65
05FB  09BA  	COMF CompTempVar2284, F
05FC  0ABA  	INCF CompTempVar2284, F
05FD        label65
05FD  083A  	MOVF CompTempVar2284, W
05FE  00B5  	MOVWF FCD_LCDDis_00080_1_tmp_byte
05FF  0835  	MOVF FCD_LCDDis_00080_1_tmp_byte, W
0600  3E30  	ADDLW 0x30
0601  00C2  	MOVWF FCD_LCDDis_0007A_arg_in
0602  3010  	MOVLW 0x10
0603  00C3  	MOVWF FCD_LCDDis_0007A_arg_mask
0604  2353  	CALL FCD_LCDDis_0007A
0605        label66
0605  0835  	MOVF FCD_LCDDis_00080_1_tmp_byte, W
0606  3C00  	SUBLW 0x00
0607  1803  	BTFSC STATUS,C
0608  2E10  	GOTO	label67
0609  300A  	MOVLW 0x0A
060A  02B3  	SUBWF FCD_LCDDis_00080_1_tmp_int, F
060B  08B4  	MOVF FCD_LCDDis_00080_1_tmp_int+D'1', F
060C  1C03  	BTFSS STATUS,C
060D  03B4  	DECF FCD_LCDDis_00080_1_tmp_int+D'1', F
060E  03B5  	DECF FCD_LCDDis_00080_1_tmp_byte, F
060F  2E05  	GOTO	label66
0610        label67
0610  0833  	MOVF FCD_LCDDis_00080_1_tmp_int, W
0611  3E30  	ADDLW 0x30
0612  00C2  	MOVWF FCD_LCDDis_0007A_arg_in
0613  3010  	MOVLW 0x10
0614  00C3  	MOVWF FCD_LCDDis_0007A_arg_mask
0615  2353  	CALL FCD_LCDDis_0007A
0616  0008  	RETURN
0617        ; } FCD_LCDDisplay0_PrintNumber function end

	ORG 0x00000617
0617        FCD_LCDDis_0007F
0617        ; { FCD_LCDDisplay0_Cursor ; function begin
0617  08B2  	MOVF FCD_LCDDis_0007F_arg_y, F
0618  1D03  	BTFSS STATUS,Z
0619  2E1D  	GOTO	label68
061A  3080  	MOVLW 0x80
061B  00B2  	MOVWF FCD_LCDDis_0007F_arg_y
061C  2E2C  	GOTO	label71
061D        label68
061D  0332  	DECF FCD_LCDDis_0007F_arg_y, W
061E  1D03  	BTFSS STATUS,Z
061F  2E23  	GOTO	label69
0620  30C0  	MOVLW 0xC0
0621  00B2  	MOVWF FCD_LCDDis_0007F_arg_y
0622  2E2C  	GOTO	label71
0623        label69
0623  0832  	MOVF FCD_LCDDis_0007F_arg_y, W
0624  3A02  	XORLW 0x02
0625  1D03  	BTFSS STATUS,Z
0626  2E2A  	GOTO	label70
0627  3090  	MOVLW 0x90
0628  00B2  	MOVWF FCD_LCDDis_0007F_arg_y
0629  2E2C  	GOTO	label71
062A        label70
062A  30D0  	MOVLW 0xD0
062B  00B2  	MOVWF FCD_LCDDis_0007F_arg_y
062C        label71
062C  0831  	MOVF FCD_LCDDis_0007F_arg_x, W
062D  0732  	ADDWF FCD_LCDDis_0007F_arg_y, W
062E  00C2  	MOVWF FCD_LCDDis_0007A_arg_in
062F  01C3  	CLRF FCD_LCDDis_0007A_arg_mask
0630  2353  	CALL FCD_LCDDis_0007A
0631  3002  	MOVLW 0x02
0632  00B3  	MOVWF Wdt_Delay__0003E_arg_delay
0633  21F4  	CALL Wdt_Delay__0003E
0634  0008  	RETURN
0635        ; } FCD_LCDDisplay0_Cursor function end

	ORG 0x00000635
0635        FCD_LCDDis_0007C
0635        ; { FCD_LCDDisplay0_Clear ; function begin
0635  3001  	MOVLW 0x01
0636  1683  	BSF STATUS, RP0
0637  1303  	BCF STATUS, RP1
0638  00C2  	MOVWF FCD_LCDDis_0007A_arg_in
0639  01C3  	CLRF FCD_LCDDis_0007A_arg_mask
063A  2353  	CALL FCD_LCDDis_0007A
063B  3002  	MOVLW 0x02
063C  00B3  	MOVWF Wdt_Delay__0003E_arg_delay
063D  21F4  	CALL Wdt_Delay__0003E
063E  3002  	MOVLW 0x02
063F  00C2  	MOVWF FCD_LCDDis_0007A_arg_in
0640  01C3  	CLRF FCD_LCDDis_0007A_arg_mask
0641  2353  	CALL FCD_LCDDis_0007A
0642  3002  	MOVLW 0x02
0643  00B3  	MOVWF Wdt_Delay__0003E_arg_delay
0644  21F4  	CALL Wdt_Delay__0003E
0645  0008  	RETURN
0646        ; } FCD_LCDDisplay0_Clear function end

	ORG 0x00000646
0646        FCD_LCDDis_0007B
0646        ; { FCD_LCDDisplay0_Start ; function begin
0646  1683  	BSF STATUS, RP0
0647  1303  	BCF STATUS, RP1
0648  1106  	BCF gbl_trisb,2
0649  1283  	BCF STATUS, RP0
064A  1106  	BCF gbl_portb,2
064B  1683  	BSF STATUS, RP0
064C  1186  	BCF gbl_trisb,3
064D  1283  	BCF STATUS, RP0
064E  1186  	BCF gbl_portb,3
064F  1683  	BSF STATUS, RP0
0650  1206  	BCF gbl_trisb,4
0651  1283  	BCF STATUS, RP0
0652  1206  	BCF gbl_portb,4
0653  1683  	BSF STATUS, RP0
0654  1286  	BCF gbl_trisb,5
0655  1283  	BCF STATUS, RP0
0656  1286  	BCF gbl_portb,5
0657  1683  	BSF STATUS, RP0
0658  1006  	BCF gbl_trisb,0
0659  1283  	BCF STATUS, RP0
065A  1006  	BCF gbl_portb,0
065B  1683  	BSF STATUS, RP0
065C  1086  	BCF gbl_trisb,1
065D  1283  	BCF STATUS, RP0
065E  1086  	BCF gbl_portb,1
065F  300C  	MOVLW 0x0C
0660  1683  	BSF STATUS, RP0
0661  00B3  	MOVWF Wdt_Delay__0003E_arg_delay
0662  21F4  	CALL Wdt_Delay__0003E
0663  3033  	MOVLW 0x33
0664  00C2  	MOVWF FCD_LCDDis_0007A_arg_in
0665  01C3  	CLRF FCD_LCDDis_0007A_arg_mask
0666  2353  	CALL FCD_LCDDis_0007A
0667  3002  	MOVLW 0x02
0668  00B3  	MOVWF Wdt_Delay__0003E_arg_delay
0669  21F4  	CALL Wdt_Delay__0003E
066A  3033  	MOVLW 0x33
066B  00C2  	MOVWF FCD_LCDDis_0007A_arg_in
066C  01C3  	CLRF FCD_LCDDis_0007A_arg_mask
066D  2353  	CALL FCD_LCDDis_0007A
066E  3002  	MOVLW 0x02
066F  00B3  	MOVWF Wdt_Delay__0003E_arg_delay
0670  21F4  	CALL Wdt_Delay__0003E
0671  3032  	MOVLW 0x32
0672  00C2  	MOVWF FCD_LCDDis_0007A_arg_in
0673  01C3  	CLRF FCD_LCDDis_0007A_arg_mask
0674  2353  	CALL FCD_LCDDis_0007A
0675  3002  	MOVLW 0x02
0676  00B3  	MOVWF Wdt_Delay__0003E_arg_delay
0677  21F4  	CALL Wdt_Delay__0003E
0678  302C  	MOVLW 0x2C
0679  00C2  	MOVWF FCD_LCDDis_0007A_arg_in
067A  01C3  	CLRF FCD_LCDDis_0007A_arg_mask
067B  2353  	CALL FCD_LCDDis_0007A
067C  3002  	MOVLW 0x02
067D  00B3  	MOVWF Wdt_Delay__0003E_arg_delay
067E  21F4  	CALL Wdt_Delay__0003E
067F  3006  	MOVLW 0x06
0680  00C2  	MOVWF FCD_LCDDis_0007A_arg_in
0681  01C3  	CLRF FCD_LCDDis_0007A_arg_mask
0682  2353  	CALL FCD_LCDDis_0007A
0683  3002  	MOVLW 0x02
0684  00B3  	MOVWF Wdt_Delay__0003E_arg_delay
0685  21F4  	CALL Wdt_Delay__0003E
0686  300C  	MOVLW 0x0C
0687  00C2  	MOVWF FCD_LCDDis_0007A_arg_in
0688  01C3  	CLRF FCD_LCDDis_0007A_arg_mask
0689  2353  	CALL FCD_LCDDis_0007A
068A  3002  	MOVLW 0x02
068B  00B3  	MOVWF Wdt_Delay__0003E_arg_delay
068C  21F4  	CALL Wdt_Delay__0003E
068D  3001  	MOVLW 0x01
068E  00C2  	MOVWF FCD_LCDDis_0007A_arg_in
068F  01C3  	CLRF FCD_LCDDis_0007A_arg_mask
0690  2353  	CALL FCD_LCDDis_0007A
0691  3002  	MOVLW 0x02
0692  00B3  	MOVWF Wdt_Delay__0003E_arg_delay
0693  21F4  	CALL Wdt_Delay__0003E
0694  3002  	MOVLW 0x02
0695  00C2  	MOVWF FCD_LCDDis_0007A_arg_in
0696  01C3  	CLRF FCD_LCDDis_0007A_arg_mask
0697  2353  	CALL FCD_LCDDis_0007A
0698  3002  	MOVLW 0x02
0699  00B3  	MOVWF Wdt_Delay__0003E_arg_delay
069A  21F4  	CALL Wdt_Delay__0003E
069B  0008  	RETURN
069C        ; } FCD_LCDDisplay0_Start function end

	ORG 0x0000069C
069C        main
069C        ; { main ; function begin
069C  3007  	MOVLW 0x07
069D  1683  	BSF STATUS, RP0
069E  1303  	BCF STATUS, RP1
069F  009F  	MOVWF gbl_adcon1
06A0  23BE  	CALL FC_CAL_UAR_00072
06A1  30C0  	MOVLW 0xC0
06A2  0081  	MOVWF gbl_option_reg
06A3  2502  	CALL FCD_SPI_Le_00067
06A4  3001  	MOVLW 0x01
06A5  1683  	BSF STATUS, RP0
06A6  00AC  	MOVWF gbl_FCV_PAYLOADSIZE
06A7  3007  	MOVLW 0x07
06A8  0405  	IORWF gbl_trisa, W
06A9  0085  	MOVWF gbl_trisa
06AA  3007  	MOVLW 0x07
06AB  1283  	BCF STATUS, RP0
06AC  0505  	ANDWF gbl_porta, W
06AD  1683  	BSF STATUS, RP0
06AE  00AB  	MOVWF gbl_FCV_REG0A_RX_ADDR_P0_BYTE4
06AF  3008  	MOVLW 0x08
06B0  0405  	IORWF gbl_trisa, W
06B1  0085  	MOVWF gbl_trisa
06B2  3008  	MOVLW 0x08
06B3  1283  	BCF STATUS, RP0
06B4  0505  	ANDWF gbl_porta, W
06B5  1683  	BSF STATUS, RP0
06B6  00B1  	MOVWF CompTempVar2297
06B7  01B2  	CLRF CompTempVar2298
06B8  3008  	MOVLW 0x08
06B9  0231  	SUBWF CompTempVar2297, W
06BA  1903  	BTFSC STATUS,Z
06BB  0AB2  	INCF CompTempVar2298, F
06BC  1283  	BCF STATUS, RP0
06BD  106E  	BCF gbl_FCV_TRANCIEVER_BIT,0
06BE  1683  	BSF STATUS, RP0
06BF  0832  	MOVF CompTempVar2298, W
06C0  1903  	BTFSC STATUS,Z
06C1  2EC4  	GOTO	label72
06C2  1283  	BCF STATUS, RP0
06C3  146E  	BSF gbl_FCV_TRANCIEVER_BIT,0
06C4        label72
06C4  3030  	MOVLW 0x30
06C5  1683  	BSF STATUS, RP0
06C6  072B  	ADDWF gbl_FCV_REG0A_RX_ADDR_P0_BYTE4, W
06C7  00AB  	MOVWF gbl_FCV_REG0A_RX_ADDR_P0_BYTE4
06C8  082B  	MOVF gbl_FCV_REG0A_RX_ADDR_P0_BYTE4, W
06C9  1283  	BCF STATUS, RP0
06CA  00F8  	MOVWF gbl_FCV_REG10_TX_ADDR_BYTE4
06CB  3047  	MOVLW 0x47
06CC  1683  	BSF STATUS, RP0
06CD  00AF  	MOVWF gbl_FCV_REG10_TX_ADDR_BYTE0
06CE  3042  	MOVLW 0x42
06CF  1283  	BCF STATUS, RP0
06D0  00F0  	MOVWF gbl_FCV_REG10_TX_ADDR_BYTE1
06D1  3050  	MOVLW 0x50
06D2  00F3  	MOVWF gbl_FCV_REG10_TX_ADDR_BYTE2
06D3  3030  	MOVLW 0x30
06D4  00F5  	MOVWF gbl_FCV_REG10_TX_ADDR_BYTE3
06D5  00F8  	MOVWF gbl_FCV_REG10_TX_ADDR_BYTE4
06D6  3047  	MOVLW 0x47
06D7  1683  	BSF STATUS, RP0
06D8  00A2  	MOVWF gbl_FCV_REG0A_RX_ADDR_P0_BYTE0
06D9  3042  	MOVLW 0x42
06DA  00A6  	MOVWF gbl_FCV_REG0A_RX_ADDR_P0_BYTE1
06DB  3050  	MOVLW 0x50
06DC  00A7  	MOVWF gbl_FCV_REG0A_RX_ADDR_P0_BYTE2
06DD  3030  	MOVLW 0x30
06DE  00A9  	MOVWF gbl_FCV_REG0A_RX_ADDR_P0_BYTE3
06DF  00AB  	MOVWF gbl_FCV_REG0A_RX_ADDR_P0_BYTE4
06E0  1283  	BCF STATUS, RP0
06E1  1C6E  	BTFSS gbl_FCV_TRANCIEVER_BIT,0
06E2  2EE7  	GOTO	label73
06E3  1683  	BSF STATUS, RP0
06E4  128C  	BCF gbl_pie1,5
06E5  248C  	CALL FCM_radio__0005B
06E6  2EEA  	GOTO	label74
06E7        label73
06E7  1683  	BSF STATUS, RP0
06E8  128C  	BCF gbl_pie1,5
06E9  24C7  	CALL FCM_radio__00055
06EA        label74
06EA  30DF  	MOVLW 0xDF
06EB  0505  	ANDWF gbl_trisa, W
06EC  0085  	MOVWF gbl_trisa
06ED  30DF  	MOVLW 0xDF
06EE  1283  	BCF STATUS, RP0
06EF  0505  	ANDWF gbl_porta, W
06F0  0085  	MOVWF gbl_porta
06F1  30FE  	MOVLW 0xFE
06F2  1683  	BSF STATUS, RP0
06F3  0507  	ANDWF gbl_trisc, W
06F4  0087  	MOVWF gbl_trisc
06F5  30FE  	MOVLW 0xFE
06F6  1283  	BCF STATUS, RP0
06F7  0507  	ANDWF gbl_portc, W
06F8  0087  	MOVWF gbl_portc
06F9  30FB  	MOVLW 0xFB
06FA  1683  	BSF STATUS, RP0
06FB  0507  	ANDWF gbl_trisc, W
06FC  0087  	MOVWF gbl_trisc
06FD  30FB  	MOVLW 0xFB
06FE  1283  	BCF STATUS, RP0
06FF  0507  	ANDWF gbl_portc, W
0700  1683  	BSF STATUS, RP0
0701  00B1  	MOVWF CompTempVar2299
0702  3004  	MOVLW 0x04
0703  0431  	IORWF CompTempVar2299, W
0704  1283  	BCF STATUS, RP0
0705  0087  	MOVWF gbl_portc
0706  3020  	MOVLW 0x20
0707  1683  	BSF STATUS, RP0
0708  00BA  	MOVWF CompTempVar2300+D'7'
0709  3021  	MOVLW 0x21
070A  00C2  	MOVWF CompTempVar2300+D'15'
070B  3041  	MOVLW 0x41
070C  00BF  	MOVWF CompTempVar2300+D'12'
070D  3045  	MOVLW 0x45
070E  00B4  	MOVWF CompTempVar2300+D'1'
070F  00BC  	MOVWF CompTempVar2300+D'9'
0710  00C1  	MOVWF CompTempVar2300+D'14'
0711  3047  	MOVLW 0x47
0712  00B9  	MOVWF CompTempVar2300+D'6'
0713  00C0  	MOVWF CompTempVar2300+D'13'
0714  3049  	MOVLW 0x49
0715  00B7  	MOVWF CompTempVar2300+D'4'
0716  304D  	MOVLW 0x4D
0717  00BB  	MOVWF CompTempVar2300+D'8'
0718  304E  	MOVLW 0x4E
0719  00B8  	MOVWF CompTempVar2300+D'5'
071A  3053  	MOVLW 0x53
071B  00B5  	MOVWF CompTempVar2300+D'2'
071C  00BD  	MOVWF CompTempVar2300+D'10'
071D  00BE  	MOVWF CompTempVar2300+D'11'
071E  3054  	MOVLW 0x54
071F  00B3  	MOVWF CompTempVar2300
0720  00B6  	MOVWF CompTempVar2300+D'3'
0721  01C3  	CLRF CompTempVar2300+D'16'
0722  3000  	MOVLW HIGH(CompTempVar2300+D'0')
0723  00B2  	MOVWF FCI_SCOPY_00000_arg_sSrc+D'1'
0724  30B3  	MOVLW LOW(CompTempVar2300+D'0')
0725  00B1  	MOVWF FCI_SCOPY_00000_arg_sSrc
0726  3010  	MOVLW 0x10
0727  00C4  	MOVWF FCI_SCOPY_00000_arg_iSrc_len
0728  3000  	MOVLW HIGH(gbl_FCV_PAYLOAD_TRANSMIT+D'0')
0729  00C6  	MOVWF FCI_SCOPY_00000_arg_sDst+D'1'
072A  3032  	MOVLW LOW(gbl_FCV_PAYLOAD_TRANSMIT+D'0')
072B  00C5  	MOVWF FCI_SCOPY_00000_arg_sDst
072C  3010  	MOVLW 0x10
072D  00C7  	MOVWF FCI_SCOPY_00000_arg_iDst_len
072E  21A1  	CALL FCI_SCOPY_00000
072F  1283  	BCF STATUS, RP0
0730  10EE  	BCF gbl_FCV_FLAGBIT,1
0731  116E  	BCF gbl_FCV_UART_FLAG,2
0732  2646  	CALL FCD_LCDDis_0007B
0733  2635  	CALL FCD_LCDDis_0007C
0734  01B1  	CLRF FCD_LCDDis_0007F_arg_x
0735  01B2  	CLRF FCD_LCDDis_0007F_arg_y
0736  2617  	CALL FCD_LCDDis_0007F
0737  3041  	MOVLW 0x41
0738  00B5  	MOVWF CompTempVar2303+D'2'
0739  3052  	MOVLW 0x52
073A  00B6  	MOVWF CompTempVar2303+D'3'
073B  3053  	MOVLW 0x53
073C  00B3  	MOVWF CompTempVar2303
073D  3054  	MOVLW 0x54
073E  00B4  	MOVWF CompTempVar2303+D'1'
073F  00B7  	MOVWF CompTempVar2303+D'4'
0740  01B8  	CLRF CompTempVar2303+D'5'
0741  3000  	MOVLW HIGH(CompTempVar2303+D'0')
0742  00B2  	MOVWF FCD_LCDDis_00081_arg_String+D'1'
0743  30B3  	MOVLW LOW(CompTempVar2303+D'0')
0744  00B1  	MOVWF FCD_LCDDis_00081_arg_String
0745  3005  	MOVLW 0x05
0746  00C0  	MOVWF FCD_LCDDis_00081_arg_MSZ_String
0747  250D  	CALL FCD_LCDDis_00081
0748        label75
0748  30FD  	MOVLW 0xFD
0749  0507  	ANDWF gbl_trisc, W
074A  0087  	MOVWF gbl_trisc
074B  30FD  	MOVLW 0xFD
074C  1283  	BCF STATUS, RP0
074D  0507  	ANDWF gbl_portc, W
074E  1683  	BSF STATUS, RP0
074F  00B1  	MOVWF CompTempVar2305
0750  3002  	MOVLW 0x02
0751  0431  	IORWF CompTempVar2305, W
0752  1283  	BCF STATUS, RP0
0753  0087  	MOVWF gbl_portc
0754  30DF  	MOVLW 0xDF
0755  1683  	BSF STATUS, RP0
0756  0505  	ANDWF gbl_trisa, W
0757  0085  	MOVWF gbl_trisa
0758  30DF  	MOVLW 0xDF
0759  1283  	BCF STATUS, RP0
075A  0505  	ANDWF gbl_porta, W
075B  0085  	MOVWF gbl_porta
075C  30FE  	MOVLW 0xFE
075D  1683  	BSF STATUS, RP0
075E  0507  	ANDWF gbl_trisc, W
075F  0087  	MOVWF gbl_trisc
0760  30FE  	MOVLW 0xFE
0761  1283  	BCF STATUS, RP0
0762  0507  	ANDWF gbl_portc, W
0763  0087  	MOVWF gbl_portc
0764  3001  	MOVLW 0x01
0765  1683  	BSF STATUS, RP0
0766  00B5  	MOVWF delay_ms_00000_arg_del
0767  2015  	CALL delay_ms_00000
0768  1283  	BCF STATUS, RP0
0769  1C6E  	BTFSS gbl_FCV_TRANCIEVER_BIT,0
076A  2FA3  	GOTO	label76
076B  1683  	BSF STATUS, RP0
076C  01B1  	CLRF FCD_LCDDis_0007F_arg_x
076D  01B2  	CLRF FCD_LCDDis_0007F_arg_y
076E  2617  	CALL FCD_LCDDis_0007F
076F  3020  	MOVLW 0x20
0770  00B6  	MOVWF CompTempVar2306+D'3'
0771  00B9  	MOVWF CompTempVar2306+D'6'
0772  3046  	MOVLW 0x46
0773  00B5  	MOVWF CompTempVar2306+D'2'
0774  304E  	MOVLW 0x4E
0775  00B3  	MOVWF CompTempVar2306
0776  3052  	MOVLW 0x52
0777  00B4  	MOVWF CompTempVar2306+D'1'
0778  3064  	MOVLW 0x64
0779  00BC  	MOVWF CompTempVar2306+D'9'
077A  3065  	MOVLW 0x65
077B  00BD  	MOVWF CompTempVar2306+D'10'
077C  306D  	MOVLW 0x6D
077D  00BA  	MOVWF CompTempVar2306+D'7'
077E  306F  	MOVLW 0x6F
077F  00BB  	MOVWF CompTempVar2306+D'8'
0780  3074  	MOVLW 0x74
0781  00B7  	MOVWF CompTempVar2306+D'4'
0782  3078  	MOVLW 0x78
0783  00B8  	MOVWF CompTempVar2306+D'5'
0784  01BE  	CLRF CompTempVar2306+D'11'
0785  3000  	MOVLW HIGH(CompTempVar2306+D'0')
0786  00B2  	MOVWF FCD_LCDDis_00081_arg_String+D'1'
0787  30B3  	MOVLW LOW(CompTempVar2306+D'0')
0788  00B1  	MOVWF FCD_LCDDis_00081_arg_String
0789  300B  	MOVLW 0x0B
078A  00C0  	MOVWF FCD_LCDDis_00081_arg_MSZ_String
078B  250D  	CALL FCD_LCDDis_00081
078C  248C  	CALL FCM_radio__0005B
078D  240B  	CALL FCM_radio__0005C
078E  1683  	BSF STATUS, RP0
078F  01B1  	CLRF FCD_LCDDis_0007F_arg_x
0790  3003  	MOVLW 0x03
0791  00B2  	MOVWF FCD_LCDDis_0007F_arg_y
0792  2617  	CALL FCD_LCDDis_0007F
0793  0820  	MOVF gbl_FCV_REG07, W
0794  00B1  	MOVWF FCD_LCDDis_00080_arg_Number
0795  01B2  	CLRF FCD_LCDDis_00080_arg_Number+D'1'
0796  2529  	CALL FCD_LCDDis_00080
0797  3004  	MOVLW 0x04
0798  00B1  	MOVWF FCD_LCDDis_0007F_arg_x
0799  3003  	MOVLW 0x03
079A  00B2  	MOVWF FCD_LCDDis_0007F_arg_y
079B  2617  	CALL FCD_LCDDis_0007F
079C  1283  	BCF STATUS, RP0
079D  087E  	MOVF gbl_FCV_REG17, W
079E  1683  	BSF STATUS, RP0
079F  00B1  	MOVWF FCD_LCDDis_00080_arg_Number
07A0  01B2  	CLRF FCD_LCDDis_00080_arg_Number+D'1'
07A1  2529  	CALL FCD_LCDDis_00080
07A2  2F48  	GOTO	label75
07A3        label76
07A3  1683  	BSF STATUS, RP0
07A4  01B1  	CLRF FCD_LCDDis_0007F_arg_x
07A5  01B2  	CLRF FCD_LCDDis_0007F_arg_y
07A6  2617  	CALL FCD_LCDDis_0007F
07A7  3020  	MOVLW 0x20
07A8  00B6  	MOVWF CompTempVar2308+D'3'
07A9  3046  	MOVLW 0x46
07AA  00B5  	MOVWF CompTempVar2308+D'2'
07AB  304E  	MOVLW 0x4E
07AC  00B3  	MOVWF CompTempVar2308
07AD  3052  	MOVLW 0x52
07AE  00B4  	MOVWF CompTempVar2308+D'1'
07AF  3063  	MOVLW 0x63
07B0  00B9  	MOVWF CompTempVar2308+D'6'
07B1  3065  	MOVLW 0x65
07B2  00B8  	MOVWF CompTempVar2308+D'5'
07B3  00BB  	MOVWF CompTempVar2308+D'8'
07B4  00BD  	MOVWF CompTempVar2308+D'10'
07B5  3069  	MOVLW 0x69
07B6  00BA  	MOVWF CompTempVar2308+D'7'
07B7  3072  	MOVLW 0x72
07B8  00B7  	MOVWF CompTempVar2308+D'4'
07B9  00BE  	MOVWF CompTempVar2308+D'11'
07BA  3076  	MOVLW 0x76
07BB  00BC  	MOVWF CompTempVar2308+D'9'
07BC  01BF  	CLRF CompTempVar2308+D'12'
07BD  3000  	MOVLW HIGH(CompTempVar2308+D'0')
07BE  00B2  	MOVWF FCD_LCDDis_00081_arg_String+D'1'
07BF  30B3  	MOVLW LOW(CompTempVar2308+D'0')
07C0  00B1  	MOVWF FCD_LCDDis_00081_arg_String
07C1  300C  	MOVLW 0x0C
07C2  00C0  	MOVWF FCD_LCDDis_00081_arg_MSZ_String
07C3  250D  	CALL FCD_LCDDis_00081
07C4  24C7  	CALL FCM_radio__00055
07C5  23CD  	CALL FCM_radio__0005E
07C6  01B1  	CLRF FCD_LCDDis_0007F_arg_x
07C7  3002  	MOVLW 0x02
07C8  00B2  	MOVWF FCD_LCDDis_0007F_arg_y
07C9  2617  	CALL FCD_LCDDis_0007F
07CA  3000  	MOVLW HIGH(gbl_FCV_PAYLOAD_RECIEVE+D'0')
07CB  00B2  	MOVWF FCD_LCDDis_00081_arg_String+D'1'
07CC  3020  	MOVLW LOW(gbl_FCV_PAYLOAD_RECIEVE+D'0')
07CD  00B1  	MOVWF FCD_LCDDis_00081_arg_String
07CE  3012  	MOVLW 0x12
07CF  00C0  	MOVWF FCD_LCDDis_00081_arg_MSZ_String
07D0  250D  	CALL FCD_LCDDis_00081
07D1  01B1  	CLRF FCD_LCDDis_0007F_arg_x
07D2  3003  	MOVLW 0x03
07D3  00B2  	MOVWF FCD_LCDDis_0007F_arg_y
07D4  2617  	CALL FCD_LCDDis_0007F
07D5  0820  	MOVF gbl_FCV_REG07, W
07D6  00B1  	MOVWF FCD_LCDDis_00080_arg_Number
07D7  01B2  	CLRF FCD_LCDDis_00080_arg_Number+D'1'
07D8  2529  	CALL FCD_LCDDis_00080
07D9  3004  	MOVLW 0x04
07DA  00B1  	MOVWF FCD_LCDDis_0007F_arg_x
07DB  3003  	MOVLW 0x03
07DC  00B2  	MOVWF FCD_LCDDis_0007F_arg_y
07DD  2617  	CALL FCD_LCDDis_0007F
07DE  1283  	BCF STATUS, RP0
07DF  087E  	MOVF gbl_FCV_REG17, W
07E0  1683  	BSF STATUS, RP0
07E1  00B1  	MOVWF FCD_LCDDis_00080_arg_Number
07E2  01B2  	CLRF FCD_LCDDis_00080_arg_Number+D'1'
07E3  2529  	CALL FCD_LCDDis_00080
07E4  2F48  	GOTO	label75
07E5        ; } main function end

	ORG 0x000007E5
07E5        _startup
07E5  30D5  	MOVLW 0xD5
07E6  1283  	BCF STATUS, RP0
07E7  1303  	BCF STATUS, RP1
07E8  00CC  	MOVWF gbl_14_LSR
07E9  30C4  	MOVLW 0xC4
07EA  00CD  	MOVWF gbl_14_LSR+D'1'
07EB  30BB  	MOVLW 0xBB
07EC  00CE  	MOVWF gbl_14_LSR+D'2'
07ED  30DC  	MOVLW 0xDC
07EE  00CF  	MOVWF gbl_14_LSR+D'3'
07EF  01D0  	CLRF gbl_15_gbl_aSig
07F0  01D1  	CLRF gbl_15_gbl_aSig+D'1'
07F1  01D2  	CLRF gbl_15_gbl_aSig+D'2'
07F2  01D3  	CLRF gbl_15_gbl_aSig+D'3'
07F3  01D4  	CLRF gbl_15_gbl_bSig
07F4  01D5  	CLRF gbl_15_gbl_bSig+D'1'
07F5  01D6  	CLRF gbl_15_gbl_bSig+D'2'
07F6  01D7  	CLRF gbl_15_gbl_bSig+D'3'
07F7  01D8  	CLRF gbl_15_gbl_zSig
07F8  01D9  	CLRF gbl_15_gbl_zSig+D'1'
07F9  01DA  	CLRF gbl_15_gbl_zSig+D'2'
07FA  01DB  	CLRF gbl_15_gbl_zSig+D'3'
07FB  01E8  	CLRF gbl_15_gbl_aExp
07FC  01E9  	CLRF gbl_15_gbl_bExp
07FD  01E3  	CLRF gbl_15_gbl_zExp
07FE  01E4  	CLRF gbl_15_gbl_zExp+D'1'
07FF  01EA  	CLRF gbl_15_gbl_aSign
0800  01EB  	CLRF gbl_15_gbl_bSign
0801  01EC  	CLRF gbl_15_gbl_zSign
0802  01ED  	CLRF gbl_15_gbl_zSigZero
0803  01DC  	CLRF gbl_15_gbl_ret
0804  01DD  	CLRF gbl_15_gbl_ret+D'1'
0805  01DE  	CLRF gbl_15_gbl_ret+D'2'
0806  01DF  	CLRF gbl_15_gbl_ret+D'3'
0807  01E6  	CLRF gbl_float_rounding_mode
0808  01E7  	CLRF gbl_float_exception_flags
0809  01E5  	CLRF gbl_float_detect_tininess
080A  106E  	BCF gbl_FCV_TRANCIEVER_BIT,0
080B  01EF  	CLRF gbl_FCV_REG01
080C  01F0  	CLRF gbl_FCV_REG10_TX_ADDR_BYTE1
080D  30FF  	MOVLW 0xFF
080E  00F1  	MOVWF gbl_FCV_DATA_TO_WRITE
080F  01F2  	CLRF gbl_FCV_REG02
0810  01F3  	CLRF gbl_FCV_REG10_TX_ADDR_BYTE2
0811  01F4  	CLRF gbl_FCV_REG03
0812  01F5  	CLRF gbl_FCV_REG10_TX_ADDR_BYTE3
0813  01A0  	CLRF gbl_FCV_PAYLOAD_RECIEVE
0814  01F6  	CLRF gbl_FCV_STATUS_MAX_RT
0815  01F7  	CLRF gbl_FCV_REG04
0816  01F8  	CLRF gbl_FCV_REG10_TX_ADDR_BYTE4
0817  30FF  	MOVLW 0xFF
0818  00F9  	MOVWF gbl_FCV_SPI_DATA0
0819  01FA  	CLRF gbl_FCV_REG05
081A  30FF  	MOVLW 0xFF
081B  00FB  	MOVWF gbl_FCV_DATA_TO_READ
081C  30FF  	MOVLW 0xFF
081D  00FC  	MOVWF gbl_FCV_SPI_DATA1
081E  01FD  	CLRF gbl_FCV_REG06
081F  01FE  	CLRF gbl_FCV_REG17
0820  01B2  	CLRF gbl_FCV_PAYLOAD_TRANSMIT
0821  1683  	BSF STATUS, RP0
0822  01A0  	CLRF gbl_FCV_REG07
0823  01A1  	CLRF gbl_FCV_REG08
0824  01A2  	CLRF gbl_FCV_REG0A_RX_ADDR_P0_BYTE0
0825  01A3  	CLRF gbl_FCV_FLAG_PROT
0826  30FF  	MOVLW 0xFF
0827  00A4  	MOVWF gbl_FCV_UART_RX
0828  01A5  	CLRF gbl_FCV_REG09
0829  01A6  	CLRF gbl_FCV_REG0A_RX_ADDR_P0_BYTE1
082A  01A7  	CLRF gbl_FCV_REG0A_RX_ADDR_P0_BYTE2
082B  1283  	BCF STATUS, RP0
082C  10EE  	BCF gbl_FCV_FLAGBIT,1
082D  1683  	BSF STATUS, RP0
082E  01A8  	CLRF gbl_FCV_STATUS_TX_DS
082F  01A9  	CLRF gbl_FCV_REG0A_RX_ADDR_P0_BYTE3
0830  01AA  	CLRF gbl_FCV_REG_TO_WRITE
0831  01AB  	CLRF gbl_FCV_REG0A_RX_ADDR_P0_BYTE4
0832  1283  	BCF STATUS, RP0
0833  116E  	BCF gbl_FCV_UART_FLAG,2
0834  01C2  	CLRF gbl_FCV_RX_ADDR
0835  3020  	MOVLW 0x20
0836  1683  	BSF STATUS, RP0
0837  00AC  	MOVWF gbl_FCV_PAYLOADSIZE
0838  01AD  	CLRF gbl_FCV_LOOP_COUNT
0839  1283  	BCF STATUS, RP0
083A  01C7  	CLRF gbl_FCV_TX_ADDR
083B  11EE  	BCF gbl_FCV_FLAG_RADIO_RX,3
083C  1683  	BSF STATUS, RP0
083D  01AE  	CLRF gbl_FCV_REG00
083E  01AF  	CLRF gbl_FCV_REG10_TX_ADDR_BYTE0
083F  01B0  	CLRF gbl_FCV_REG11
0840  118A  	BCF PCLATH,3
0841  120A  	BCF PCLATH,4
0842  2E9C  	GOTO	main
	ORG 0x00000843
0843        interrupt
0843        ; { interrupt ; function begin
0843  1283  	BCF STATUS, RP0
0844  1303  	BCF STATUS, RP1
0845  0E62  	SWAPF Int1BContext+D'2', W
0846  0084  	MOVWF FSR
0847  0E61  	SWAPF Int1BContext+D'1', W
0848  008A  	MOVWF PCLATH
0849  0E60  	SWAPF Int1BContext, W
084A  0083  	MOVWF STATUS
084B  0EFF  	SWAPF Int1Context, F
084C  0E7F  	SWAPF Int1Context, W
084D  0009  	RETFIE
084E        ; } interrupt function end

	ORG 0x00002007
2007  3F3A  	DW 0x3F3A
