MPLINK 4.49, Linker
Linker Map File - Created Fri May 24 17:54:50 2019

                                 Section Info
                  Section       Type    Address   Location Size(Bytes)
                ---------  ---------  ---------  ---------  ---------
                   .org_0       code   0x000000    program   0x000000
                   .org_1       code   0x000000    program   0x000002
                   .org_2       code   0x000004    program   0x000058
                   .org_3       code   0x000100    program   0x0001ea
                   .org_4       code   0x000200    program   0x0001ee
                   .org_5       code   0x000300    program   0x0001ec
                   .org_6       code   0x000400    program   0x0001f2
                   .org_7       code   0x000500    program   0x0001b0
                   .org_8       code   0x000600    program   0x0001fa
                   .org_9       code   0x000700    program   0x000200
                  .org_10       code   0x000800    program   0x000200
                  .org_11       code   0x000900    program   0x0001da
                  .org_12       code   0x000a00    program   0x0001dc
                  .org_13       code   0x000b00    program   0x000374
                  .org_14       code   0x000d00    program   0x0001fc
                  .org_15       code   0x000e00    program   0x0002a2
.config_2007_HUB12_SCROLL.O       code   0x002007    program   0x000002
                  .org_16       code   0x002100    program   0x000008



                              Program Memory Usage 
                               Start         End      
                           ---------   ---------      
                            0x000000    0x000000      
                            0x000004    0x00002f      
                            0x000100    0x0001f4      
                            0x000200    0x0002f6      
                            0x000300    0x0003f5      
                            0x000400    0x0004f8      
                            0x000500    0x0005d7      
                            0x000600    0x0006fc      
                            0x000700    0x0009ec      
                            0x000a00    0x000aed      
                            0x000b00    0x000cb9      
                            0x000d00    0x000dfd      
                            0x000e00    0x000f50      
                            0x002007    0x002007      
                            0x002100    0x002103      
            3526 out of 4359 program addresses used, program memory utilization is 80%



                              Symbols - Sorted by Name
                     Name    Address   Location    Storage File                     
                ---------  ---------  ---------  --------- ---------                
                     CHAR   0x0001ac    program     static D:\KennyNeutron\HUB12\20190520_HUB12_SCROLL\HUB12_SCROLL.ASM
                    CHARB   0x000200    program     static D:\KennyNeutron\HUB12\20190520_HUB12_SCROLL\HUB12_SCROLL.ASM
                    CLRAM   0x000148    program     static D:\KennyNeutron\HUB12\20190520_HUB12_SCROLL\HUB12_SCROLL.ASM
                 CLR_IRAM   0x000174    program     static D:\KennyNeutron\HUB12\20190520_HUB12_SCROLL\HUB12_SCROLL.ASM
                       D0   0x00013d    program     static D:\KennyNeutron\HUB12\20190520_HUB12_SCROLL\HUB12_SCROLL.ASM
                       D1   0x00013f    program     static D:\KennyNeutron\HUB12\20190520_HUB12_SCROLL\HUB12_SCROLL.ASM
                DATALATCH   0x000132    program     static D:\KennyNeutron\HUB12\20190520_HUB12_SCROLL\HUB12_SCROLL.ASM
                 DELAY_MS   0x000163    program     static D:\KennyNeutron\HUB12\20190520_HUB12_SCROLL\HUB12_SCROLL.ASM
              DELAY_ONEMS   0x00015c    program     static D:\KennyNeutron\HUB12\20190520_HUB12_SCROLL\HUB12_SCROLL.ASM
             DELAY_ONESEC   0x000168    program     static D:\KennyNeutron\HUB12\20190520_HUB12_SCROLL\HUB12_SCROLL.ASM
                DELAY_SEC   0x00016f    program     static D:\KennyNeutron\HUB12\20190520_HUB12_SCROLL\HUB12_SCROLL.ASM
                 DELAY_US   0x000154    program     static D:\KennyNeutron\HUB12\20190520_HUB12_SCROLL\HUB12_SCROLL.ASM
                     DISP   0x000100    program     static D:\KennyNeutron\HUB12\20190520_HUB12_SCROLL\HUB12_SCROLL.ASM
                    DISP0   0x000102    program     static D:\KennyNeutron\HUB12\20190520_HUB12_SCROLL\HUB12_SCROLL.ASM
                  DISPLAY   0x000107    program     static D:\KennyNeutron\HUB12\20190520_HUB12_SCROLL\HUB12_SCROLL.ASM
                      DL0   0x000139    program     static D:\KennyNeutron\HUB12\20190520_HUB12_SCROLL\HUB12_SCROLL.ASM
                      DL1   0x000141    program     static D:\KennyNeutron\HUB12\20190520_HUB12_SCROLL\HUB12_SCROLL.ASM
                     DRM0   0x00014c    program     static D:\KennyNeutron\HUB12\20190520_HUB12_SCROLL\HUB12_SCROLL.ASM
         DSHIFT_DOWN_GRPA   0x000c2e    program     static D:\KennyNeutron\HUB12\20190520_HUB12_SCROLL\HUB12_SCROLL.ASM
         DSHIFT_DOWN_GRPB   0x000c51    program     static D:\KennyNeutron\HUB12\20190520_HUB12_SCROLL\HUB12_SCROLL.ASM
         DSHIFT_DOWN_GRPC   0x000c74    program     static D:\KennyNeutron\HUB12\20190520_HUB12_SCROLL\HUB12_SCROLL.ASM
         DSHIFT_DOWN_GRPD   0x000c97    program     static D:\KennyNeutron\HUB12\20190520_HUB12_SCROLL\HUB12_SCROLL.ASM
                     DSP0   0x00010b    program     static D:\KennyNeutron\HUB12\20190520_HUB12_SCROLL\HUB12_SCROLL.ASM
                     DSP1   0x000115    program     static D:\KennyNeutron\HUB12\20190520_HUB12_SCROLL\HUB12_SCROLL.ASM
                     DSP2   0x00011f    program     static D:\KennyNeutron\HUB12\20190520_HUB12_SCROLL\HUB12_SCROLL.ASM
                     DSP3   0x000129    program     static D:\KennyNeutron\HUB12\20190520_HUB12_SCROLL\HUB12_SCROLL.ASM
                     DUMP   0x000499    program     static D:\KennyNeutron\HUB12\20190520_HUB12_SCROLL\HUB12_SCROLL.ASM
                    EIGHT   0x00026b    program     static D:\KennyNeutron\HUB12\20190520_HUB12_SCROLL\HUB12_SCROLL.ASM
                     FIVE   0x000232    program     static D:\KennyNeutron\HUB12\20190520_HUB12_SCROLL\HUB12_SCROLL.ASM
                   FONT_0   0x0004a1    program     static D:\KennyNeutron\HUB12\20190520_HUB12_SCROLL\HUB12_SCROLL.ASM
                   FONT_1   0x000500    program     static D:\KennyNeutron\HUB12\20190520_HUB12_SCROLL\HUB12_SCROLL.ASM
                   FONT_2   0x000530    program     static D:\KennyNeutron\HUB12\20190520_HUB12_SCROLL\HUB12_SCROLL.ASM
                     FOUR   0x00021f    program     static D:\KennyNeutron\HUB12\20190520_HUB12_SCROLL\HUB12_SCROLL.ASM
                    GRP_A   0x00061c    program     static D:\KennyNeutron\HUB12\20190520_HUB12_SCROLL\HUB12_SCROLL.ASM
                    GRP_B   0x0006a6    program     static D:\KennyNeutron\HUB12\20190520_HUB12_SCROLL\HUB12_SCROLL.ASM
                    GRP_C   0x000724    program     static D:\KennyNeutron\HUB12\20190520_HUB12_SCROLL\HUB12_SCROLL.ASM
                    GRP_D   0x00078e    program     static D:\KennyNeutron\HUB12\20190520_HUB12_SCROLL\HUB12_SCROLL.ASM
                    IDUMP   0x000a00    program     static D:\KennyNeutron\HUB12\20190520_HUB12_SCROLL\HUB12_SCROLL.ASM
                  IFONT_0   0x000a0a    program     static D:\KennyNeutron\HUB12\20190520_HUB12_SCROLL\HUB12_SCROLL.ASM
                  IFONT_1   0x000a66    program     static D:\KennyNeutron\HUB12\20190520_HUB12_SCROLL\HUB12_SCROLL.ASM
                  IFONT_2   0x000b00    program     static D:\KennyNeutron\HUB12\20190520_HUB12_SCROLL\HUB12_SCROLL.ASM
                   IGRP_A   0x000d1d    program     static D:\KennyNeutron\HUB12\20190520_HUB12_SCROLL\HUB12_SCROLL.ASM
                   IGRP_B   0x000da7    program     static D:\KennyNeutron\HUB12\20190520_HUB12_SCROLL\HUB12_SCROLL.ASM
                   IGRP_C   0x000e24    program     static D:\KennyNeutron\HUB12\20190520_HUB12_SCROLL\HUB12_SCROLL.ASM
                   IGRP_D   0x000e8e    program     static D:\KennyNeutron\HUB12\20190520_HUB12_SCROLL\HUB12_SCROLL.ASM
                     INIT   0x000010    program     static D:\KennyNeutron\HUB12\20190520_HUB12_SCROLL\HUB12_SCROLL.ASM
                  IPUTNUM   0x000aaf    program     static D:\KennyNeutron\HUB12\20190520_HUB12_SCROLL\HUB12_SCROLL.ASM
                     IRM0   0x00017a    program     static D:\KennyNeutron\HUB12\20190520_HUB12_SCROLL\HUB12_SCROLL.ASM
                  ISHIFTR   0x000d00    program     static D:\KennyNeutron\HUB12\20190520_HUB12_SCROLL\HUB12_SCROLL.ASM
         ISHIFT_DOWN_GRPA   0x000e91    program     static D:\KennyNeutron\HUB12\20190520_HUB12_SCROLL\HUB12_SCROLL.ASM
         ISHIFT_DOWN_GRPB   0x000eb8    program     static D:\KennyNeutron\HUB12\20190520_HUB12_SCROLL\HUB12_SCROLL.ASM
         ISHIFT_DOWN_GRPC   0x000edf    program     static D:\KennyNeutron\HUB12\20190520_HUB12_SCROLL\HUB12_SCROLL.ASM
         ISHIFT_DOWN_GRPD   0x000f06    program     static D:\KennyNeutron\HUB12\20190520_HUB12_SCROLL\HUB12_SCROLL.ASM
                   ISRA00   0x000d25    program     static D:\KennyNeutron\HUB12\20190520_HUB12_SCROLL\HUB12_SCROLL.ASM
                   ISRA01   0x000d2e    program     static D:\KennyNeutron\HUB12\20190520_HUB12_SCROLL\HUB12_SCROLL.ASM
                   ISRA02   0x000d36    program     static D:\KennyNeutron\HUB12\20190520_HUB12_SCROLL\HUB12_SCROLL.ASM
                   ISRA03   0x000d3e    program     static D:\KennyNeutron\HUB12\20190520_HUB12_SCROLL\HUB12_SCROLL.ASM
                   ISRA04   0x000d46    program     static D:\KennyNeutron\HUB12\20190520_HUB12_SCROLL\HUB12_SCROLL.ASM
                   ISRA05   0x000d4e    program     static D:\KennyNeutron\HUB12\20190520_HUB12_SCROLL\HUB12_SCROLL.ASM
                   ISRA06   0x000d56    program     static D:\KennyNeutron\HUB12\20190520_HUB12_SCROLL\HUB12_SCROLL.ASM
                   ISRA07   0x000d5e    program     static D:\KennyNeutron\HUB12\20190520_HUB12_SCROLL\HUB12_SCROLL.ASM
                   ISRA08   0x000d68    program     static D:\KennyNeutron\HUB12\20190520_HUB12_SCROLL\HUB12_SCROLL.ASM
                ISRA08_R1   0x000d67    program     static D:\KennyNeutron\HUB12\20190520_HUB12_SCROLL\HUB12_SCROLL.ASM
                   ISRA09   0x000d70    program     static D:\KennyNeutron\HUB12\20190520_HUB12_SCROLL\HUB12_SCROLL.ASM
                   ISRA0A   0x000d78    program     static D:\KennyNeutron\HUB12\20190520_HUB12_SCROLL\HUB12_SCROLL.ASM
                   ISRA0B   0x000d80    program     static D:\KennyNeutron\HUB12\20190520_HUB12_SCROLL\HUB12_SCROLL.ASM
                   ISRA0C   0x000d88    program     static D:\KennyNeutron\HUB12\20190520_HUB12_SCROLL\HUB12_SCROLL.ASM
                   ISRA0D   0x000d90    program     static D:\KennyNeutron\HUB12\20190520_HUB12_SCROLL\HUB12_SCROLL.ASM
                   ISRA0E   0x000d98    program     static D:\KennyNeutron\HUB12\20190520_HUB12_SCROLL\HUB12_SCROLL.ASM
                   ISRA0F   0x000da0    program     static D:\KennyNeutron\HUB12\20190520_HUB12_SCROLL\HUB12_SCROLL.ASM
                   ISRB00   0x000daf    program     static D:\KennyNeutron\HUB12\20190520_HUB12_SCROLL\HUB12_SCROLL.ASM
                   ISRB01   0x000db7    program     static D:\KennyNeutron\HUB12\20190520_HUB12_SCROLL\HUB12_SCROLL.ASM
                   ISRB02   0x000dbe    program     static D:\KennyNeutron\HUB12\20190520_HUB12_SCROLL\HUB12_SCROLL.ASM
                   ISRB03   0x000dc5    program     static D:\KennyNeutron\HUB12\20190520_HUB12_SCROLL\HUB12_SCROLL.ASM
                   ISRB04   0x000dcc    program     static D:\KennyNeutron\HUB12\20190520_HUB12_SCROLL\HUB12_SCROLL.ASM
                   ISRB05   0x000dd3    program     static D:\KennyNeutron\HUB12\20190520_HUB12_SCROLL\HUB12_SCROLL.ASM
                   ISRB06   0x000dda    program     static D:\KennyNeutron\HUB12\20190520_HUB12_SCROLL\HUB12_SCROLL.ASM
                   ISRB07   0x000de1    program     static D:\KennyNeutron\HUB12\20190520_HUB12_SCROLL\HUB12_SCROLL.ASM
                   ISRB08   0x000dea    program     static D:\KennyNeutron\HUB12\20190520_HUB12_SCROLL\HUB12_SCROLL.ASM
                ISRB08_R1   0x000de9    program     static D:\KennyNeutron\HUB12\20190520_HUB12_SCROLL\HUB12_SCROLL.ASM
                   ISRB09   0x000df1    program     static D:\KennyNeutron\HUB12\20190520_HUB12_SCROLL\HUB12_SCROLL.ASM
                   ISRB0A   0x000df8    program     static D:\KennyNeutron\HUB12\20190520_HUB12_SCROLL\HUB12_SCROLL.ASM
                   ISRB0B   0x000e02    program     static D:\KennyNeutron\HUB12\20190520_HUB12_SCROLL\HUB12_SCROLL.ASM
                   ISRB0C   0x000e09    program     static D:\KennyNeutron\HUB12\20190520_HUB12_SCROLL\HUB12_SCROLL.ASM
                   ISRB0D   0x000e10    program     static D:\KennyNeutron\HUB12\20190520_HUB12_SCROLL\HUB12_SCROLL.ASM
                   ISRB0E   0x000e17    program     static D:\KennyNeutron\HUB12\20190520_HUB12_SCROLL\HUB12_SCROLL.ASM
                   ISRB0F   0x000e1e    program     static D:\KennyNeutron\HUB12\20190520_HUB12_SCROLL\HUB12_SCROLL.ASM
                   ISRC00   0x000e2c    program     static D:\KennyNeutron\HUB12\20190520_HUB12_SCROLL\HUB12_SCROLL.ASM
                   ISRC01   0x000e33    program     static D:\KennyNeutron\HUB12\20190520_HUB12_SCROLL\HUB12_SCROLL.ASM
                   ISRC02   0x000e39    program     static D:\KennyNeutron\HUB12\20190520_HUB12_SCROLL\HUB12_SCROLL.ASM
                   ISRC03   0x000e3f    program     static D:\KennyNeutron\HUB12\20190520_HUB12_SCROLL\HUB12_SCROLL.ASM
                   ISRC04   0x000e45    program     static D:\KennyNeutron\HUB12\20190520_HUB12_SCROLL\HUB12_SCROLL.ASM
                   ISRC05   0x000e4b    program     static D:\KennyNeutron\HUB12\20190520_HUB12_SCROLL\HUB12_SCROLL.ASM
                   ISRC06   0x000e51    program     static D:\KennyNeutron\HUB12\20190520_HUB12_SCROLL\HUB12_SCROLL.ASM
                   ISRC07   0x000e57    program     static D:\KennyNeutron\HUB12\20190520_HUB12_SCROLL\HUB12_SCROLL.ASM
                   ISRC08   0x000e5f    program     static D:\KennyNeutron\HUB12\20190520_HUB12_SCROLL\HUB12_SCROLL.ASM
                ISRC08_R1   0x000e5e    program     static D:\KennyNeutron\HUB12\20190520_HUB12_SCROLL\HUB12_SCROLL.ASM
                   ISRC09   0x000e65    program     static D:\KennyNeutron\HUB12\20190520_HUB12_SCROLL\HUB12_SCROLL.ASM
                   ISRC0A   0x000e6b    program     static D:\KennyNeutron\HUB12\20190520_HUB12_SCROLL\HUB12_SCROLL.ASM
                   ISRC0B   0x000e71    program     static D:\KennyNeutron\HUB12\20190520_HUB12_SCROLL\HUB12_SCROLL.ASM
                   ISRC0C   0x000e77    program     static D:\KennyNeutron\HUB12\20190520_HUB12_SCROLL\HUB12_SCROLL.ASM
                   ISRC0D   0x000e7d    program     static D:\KennyNeutron\HUB12\20190520_HUB12_SCROLL\HUB12_SCROLL.ASM
                   ISRC0E   0x000e83    program     static D:\KennyNeutron\HUB12\20190520_HUB12_SCROLL\HUB12_SCROLL.ASM
                   ISRC0F   0x000e89    program     static D:\KennyNeutron\HUB12\20190520_HUB12_SCROLL\HUB12_SCROLL.ASM
                   L_CHAR   0x000291    program     static D:\KennyNeutron\HUB12\20190520_HUB12_SCROLL\HUB12_SCROLL.ASM
                  L_CHARB   0x000300    program     static D:\KennyNeutron\HUB12\20190520_HUB12_SCROLL\HUB12_SCROLL.ASM
                  L_EIGHT   0x000300    program     static D:\KennyNeutron\HUB12\20190520_HUB12_SCROLL\HUB12_SCROLL.ASM
                   L_FIVE   0x0002d6    program     static D:\KennyNeutron\HUB12\20190520_HUB12_SCROLL\HUB12_SCROLL.ASM
                   L_FOUR   0x0002cb    program     static D:\KennyNeutron\HUB12\20190520_HUB12_SCROLL\HUB12_SCROLL.ASM
                   L_NINE   0x00030b    program     static D:\KennyNeutron\HUB12\20190520_HUB12_SCROLL\HUB12_SCROLL.ASM
                    L_ONE   0x0002aa    program     static D:\KennyNeutron\HUB12\20190520_HUB12_SCROLL\HUB12_SCROLL.ASM
                  L_SEVEN   0x0002ec    program     static D:\KennyNeutron\HUB12\20190520_HUB12_SCROLL\HUB12_SCROLL.ASM
                    L_SIX   0x0002e1    program     static D:\KennyNeutron\HUB12\20190520_HUB12_SCROLL\HUB12_SCROLL.ASM
                  L_THREE   0x0002c0    program     static D:\KennyNeutron\HUB12\20190520_HUB12_SCROLL\HUB12_SCROLL.ASM
                    L_TWO   0x0002b5    program     static D:\KennyNeutron\HUB12\20190520_HUB12_SCROLL\HUB12_SCROLL.ASM
                   L_ZERO   0x00029f    program     static D:\KennyNeutron\HUB12\20190520_HUB12_SCROLL\HUB12_SCROLL.ASM
                     MAIN   0x00001c    program     static D:\KennyNeutron\HUB12\20190520_HUB12_SCROLL\HUB12_SCROLL.ASM
                     MSEC   0x00015e    program     static D:\KennyNeutron\HUB12\20190520_HUB12_SCROLL\HUB12_SCROLL.ASM
                    MSEC0   0x000164    program     static D:\KennyNeutron\HUB12\20190520_HUB12_SCROLL\HUB12_SCROLL.ASM
                     NINE   0x00027e    program     static D:\KennyNeutron\HUB12\20190520_HUB12_SCROLL\HUB12_SCROLL.ASM
                      ONE   0x0001cf    program     static D:\KennyNeutron\HUB12\20190520_HUB12_SCROLL\HUB12_SCROLL.ASM
                   PUTNUM   0x000a9a    program     static D:\KennyNeutron\HUB12\20190520_HUB12_SCROLL\HUB12_SCROLL.ASM
                     SB00   0x00079b    program     static D:\KennyNeutron\HUB12\20190520_HUB12_SCROLL\HUB12_SCROLL.ASM
                     SB01   0x0007a6    program     static D:\KennyNeutron\HUB12\20190520_HUB12_SCROLL\HUB12_SCROLL.ASM
                     SB02   0x0007b1    program     static D:\KennyNeutron\HUB12\20190520_HUB12_SCROLL\HUB12_SCROLL.ASM
                     SB03   0x0007bc    program     static D:\KennyNeutron\HUB12\20190520_HUB12_SCROLL\HUB12_SCROLL.ASM
                     SB04   0x0007c7    program     static D:\KennyNeutron\HUB12\20190520_HUB12_SCROLL\HUB12_SCROLL.ASM
                     SB05   0x0007d2    program     static D:\KennyNeutron\HUB12\20190520_HUB12_SCROLL\HUB12_SCROLL.ASM
                     SB06   0x0007dd    program     static D:\KennyNeutron\HUB12\20190520_HUB12_SCROLL\HUB12_SCROLL.ASM
                     SB07   0x0007e8    program     static D:\KennyNeutron\HUB12\20190520_HUB12_SCROLL\HUB12_SCROLL.ASM
                     SB08   0x0007f4    program     static D:\KennyNeutron\HUB12\20190520_HUB12_SCROLL\HUB12_SCROLL.ASM
                SB08_FLAG   0x0007f0    program     static D:\KennyNeutron\HUB12\20190520_HUB12_SCROLL\HUB12_SCROLL.ASM
                     SB09   0x000800    program     static D:\KennyNeutron\HUB12\20190520_HUB12_SCROLL\HUB12_SCROLL.ASM
                     SB0A   0x00080b    program     static D:\KennyNeutron\HUB12\20190520_HUB12_SCROLL\HUB12_SCROLL.ASM
                     SB0B   0x000816    program     static D:\KennyNeutron\HUB12\20190520_HUB12_SCROLL\HUB12_SCROLL.ASM
                     SB0C   0x000821    program     static D:\KennyNeutron\HUB12\20190520_HUB12_SCROLL\HUB12_SCROLL.ASM
                     SB0D   0x00082c    program     static D:\KennyNeutron\HUB12\20190520_HUB12_SCROLL\HUB12_SCROLL.ASM
                     SB0E   0x000837    program     static D:\KennyNeutron\HUB12\20190520_HUB12_SCROLL\HUB12_SCROLL.ASM
                     SB0F   0x000842    program     static D:\KennyNeutron\HUB12\20190520_HUB12_SCROLL\HUB12_SCROLL.ASM
                     SC00   0x000852    program     static D:\KennyNeutron\HUB12\20190520_HUB12_SCROLL\HUB12_SCROLL.ASM
                     SC01   0x00085d    program     static D:\KennyNeutron\HUB12\20190520_HUB12_SCROLL\HUB12_SCROLL.ASM
                     SC02   0x000868    program     static D:\KennyNeutron\HUB12\20190520_HUB12_SCROLL\HUB12_SCROLL.ASM
                     SC03   0x000873    program     static D:\KennyNeutron\HUB12\20190520_HUB12_SCROLL\HUB12_SCROLL.ASM
                     SC04   0x00087e    program     static D:\KennyNeutron\HUB12\20190520_HUB12_SCROLL\HUB12_SCROLL.ASM
                     SC05   0x000889    program     static D:\KennyNeutron\HUB12\20190520_HUB12_SCROLL\HUB12_SCROLL.ASM
                     SC06   0x000894    program     static D:\KennyNeutron\HUB12\20190520_HUB12_SCROLL\HUB12_SCROLL.ASM
                     SC07   0x00089f    program     static D:\KennyNeutron\HUB12\20190520_HUB12_SCROLL\HUB12_SCROLL.ASM
                     SC08   0x0008ab    program     static D:\KennyNeutron\HUB12\20190520_HUB12_SCROLL\HUB12_SCROLL.ASM
                SC08_FLAG   0x0008a7    program     static D:\KennyNeutron\HUB12\20190520_HUB12_SCROLL\HUB12_SCROLL.ASM
                     SC09   0x0008b6    program     static D:\KennyNeutron\HUB12\20190520_HUB12_SCROLL\HUB12_SCROLL.ASM
                     SC0A   0x0008c1    program     static D:\KennyNeutron\HUB12\20190520_HUB12_SCROLL\HUB12_SCROLL.ASM
                     SC0B   0x0008cc    program     static D:\KennyNeutron\HUB12\20190520_HUB12_SCROLL\HUB12_SCROLL.ASM
                     SC0C   0x0008d7    program     static D:\KennyNeutron\HUB12\20190520_HUB12_SCROLL\HUB12_SCROLL.ASM
                     SC0D   0x0008e2    program     static D:\KennyNeutron\HUB12\20190520_HUB12_SCROLL\HUB12_SCROLL.ASM
                     SC0E   0x0008ed    program     static D:\KennyNeutron\HUB12\20190520_HUB12_SCROLL\HUB12_SCROLL.ASM
                     SC0F   0x0008f8    program     static D:\KennyNeutron\HUB12\20190520_HUB12_SCROLL\HUB12_SCROLL.ASM
                   SCRL_A   0x000f2d    program     static D:\KennyNeutron\HUB12\20190520_HUB12_SCROLL\HUB12_SCROLL.ASM
                   SCRL_B   0x000f36    program     static D:\KennyNeutron\HUB12\20190520_HUB12_SCROLL\HUB12_SCROLL.ASM
                   SCRL_C   0x000f3f    program     static D:\KennyNeutron\HUB12\20190520_HUB12_SCROLL\HUB12_SCROLL.ASM
                   SCRL_D   0x000f48    program     static D:\KennyNeutron\HUB12\20190520_HUB12_SCROLL\HUB12_SCROLL.ASM
                     SD00   0x000908    program     static D:\KennyNeutron\HUB12\20190520_HUB12_SCROLL\HUB12_SCROLL.ASM
                     SD01   0x000913    program     static D:\KennyNeutron\HUB12\20190520_HUB12_SCROLL\HUB12_SCROLL.ASM
                     SD02   0x00091e    program     static D:\KennyNeutron\HUB12\20190520_HUB12_SCROLL\HUB12_SCROLL.ASM
                     SD03   0x000929    program     static D:\KennyNeutron\HUB12\20190520_HUB12_SCROLL\HUB12_SCROLL.ASM
                     SD04   0x000934    program     static D:\KennyNeutron\HUB12\20190520_HUB12_SCROLL\HUB12_SCROLL.ASM
                     SD05   0x00093f    program     static D:\KennyNeutron\HUB12\20190520_HUB12_SCROLL\HUB12_SCROLL.ASM
                     SD06   0x00094a    program     static D:\KennyNeutron\HUB12\20190520_HUB12_SCROLL\HUB12_SCROLL.ASM
                     SD07   0x000955    program     static D:\KennyNeutron\HUB12\20190520_HUB12_SCROLL\HUB12_SCROLL.ASM
                     SD08   0x000961    program     static D:\KennyNeutron\HUB12\20190520_HUB12_SCROLL\HUB12_SCROLL.ASM
                SD08_FLAG   0x00095d    program     static D:\KennyNeutron\HUB12\20190520_HUB12_SCROLL\HUB12_SCROLL.ASM
                     SD09   0x00096c    program     static D:\KennyNeutron\HUB12\20190520_HUB12_SCROLL\HUB12_SCROLL.ASM
                     SD0A   0x000977    program     static D:\KennyNeutron\HUB12\20190520_HUB12_SCROLL\HUB12_SCROLL.ASM
                     SD0B   0x000982    program     static D:\KennyNeutron\HUB12\20190520_HUB12_SCROLL\HUB12_SCROLL.ASM
                     SD0C   0x00098d    program     static D:\KennyNeutron\HUB12\20190520_HUB12_SCROLL\HUB12_SCROLL.ASM
                     SD0D   0x000998    program     static D:\KennyNeutron\HUB12\20190520_HUB12_SCROLL\HUB12_SCROLL.ASM
                     SD0E   0x0009a3    program     static D:\KennyNeutron\HUB12\20190520_HUB12_SCROLL\HUB12_SCROLL.ASM
                     SD0F   0x0009ae    program     static D:\KennyNeutron\HUB12\20190520_HUB12_SCROLL\HUB12_SCROLL.ASM
                     SEC0   0x00016a    program     static D:\KennyNeutron\HUB12\20190520_HUB12_SCROLL\HUB12_SCROLL.ASM
                     SEC1   0x000170    program     static D:\KennyNeutron\HUB12\20190520_HUB12_SCROLL\HUB12_SCROLL.ASM
                    SEVEN   0x000258    program     static D:\KennyNeutron\HUB12\20190520_HUB12_SCROLL\HUB12_SCROLL.ASM
              SHIFTL_GRPA   0x000791    program     static D:\KennyNeutron\HUB12\20190520_HUB12_SCROLL\HUB12_SCROLL.ASM
              SHIFTL_GRPB   0x000791    program     static D:\KennyNeutron\HUB12\20190520_HUB12_SCROLL\HUB12_SCROLL.ASM
              SHIFTL_GRPC   0x00084a    program     static D:\KennyNeutron\HUB12\20190520_HUB12_SCROLL\HUB12_SCROLL.ASM
              SHIFTL_GRPD   0x000900    program     static D:\KennyNeutron\HUB12\20190520_HUB12_SCROLL\HUB12_SCROLL.ASM
                   SHIFTR   0x000600    program     static D:\KennyNeutron\HUB12\20190520_HUB12_SCROLL\HUB12_SCROLL.ASM
                 SHIFT_YU   0x0009b6    program     static D:\KennyNeutron\HUB12\20190520_HUB12_SCROLL\HUB12_SCROLL.ASM
                SHIFT_YUB   0x000ac5    program     static D:\KennyNeutron\HUB12\20190520_HUB12_SCROLL\HUB12_SCROLL.ASM
                      SIX   0x000245    program     static D:\KennyNeutron\HUB12\20190520_HUB12_SCROLL\HUB12_SCROLL.ASM
                     SLB0   0x000186    program     static D:\KennyNeutron\HUB12\20190520_HUB12_SCROLL\HUB12_SCROLL.ASM
                     SLB1   0x00018a    program     static D:\KennyNeutron\HUB12\20190520_HUB12_SCROLL\HUB12_SCROLL.ASM
                     SLB2   0x000192    program     static D:\KennyNeutron\HUB12\20190520_HUB12_SCROLL\HUB12_SCROLL.ASM
                   SLICEB   0x000184    program     static D:\KennyNeutron\HUB12\20190520_HUB12_SCROLL\HUB12_SCROLL.ASM
                   SLICET   0x000198    program     static D:\KennyNeutron\HUB12\20190520_HUB12_SCROLL\HUB12_SCROLL.ASM
                     SLT0   0x00019a    program     static D:\KennyNeutron\HUB12\20190520_HUB12_SCROLL\HUB12_SCROLL.ASM
                     SLT1   0x00019e    program     static D:\KennyNeutron\HUB12\20190520_HUB12_SCROLL\HUB12_SCROLL.ASM
                     SLT2   0x0001a6    program     static D:\KennyNeutron\HUB12\20190520_HUB12_SCROLL\HUB12_SCROLL.ASM
                    SRA00   0x000624    program     static D:\KennyNeutron\HUB12\20190520_HUB12_SCROLL\HUB12_SCROLL.ASM
                    SRA01   0x00062d    program     static D:\KennyNeutron\HUB12\20190520_HUB12_SCROLL\HUB12_SCROLL.ASM
                    SRA02   0x000635    program     static D:\KennyNeutron\HUB12\20190520_HUB12_SCROLL\HUB12_SCROLL.ASM
                    SRA03   0x00063d    program     static D:\KennyNeutron\HUB12\20190520_HUB12_SCROLL\HUB12_SCROLL.ASM
                    SRA04   0x000645    program     static D:\KennyNeutron\HUB12\20190520_HUB12_SCROLL\HUB12_SCROLL.ASM
                    SRA05   0x00064d    program     static D:\KennyNeutron\HUB12\20190520_HUB12_SCROLL\HUB12_SCROLL.ASM
                    SRA06   0x000655    program     static D:\KennyNeutron\HUB12\20190520_HUB12_SCROLL\HUB12_SCROLL.ASM
                    SRA07   0x00065d    program     static D:\KennyNeutron\HUB12\20190520_HUB12_SCROLL\HUB12_SCROLL.ASM
                    SRA08   0x000667    program     static D:\KennyNeutron\HUB12\20190520_HUB12_SCROLL\HUB12_SCROLL.ASM
                 SRA08_R1   0x000666    program     static D:\KennyNeutron\HUB12\20190520_HUB12_SCROLL\HUB12_SCROLL.ASM
                    SRA09   0x00066f    program     static D:\KennyNeutron\HUB12\20190520_HUB12_SCROLL\HUB12_SCROLL.ASM
                    SRA0A   0x000677    program     static D:\KennyNeutron\HUB12\20190520_HUB12_SCROLL\HUB12_SCROLL.ASM
                    SRA0B   0x00067f    program     static D:\KennyNeutron\HUB12\20190520_HUB12_SCROLL\HUB12_SCROLL.ASM
                    SRA0C   0x000687    program     static D:\KennyNeutron\HUB12\20190520_HUB12_SCROLL\HUB12_SCROLL.ASM
                    SRA0D   0x00068f    program     static D:\KennyNeutron\HUB12\20190520_HUB12_SCROLL\HUB12_SCROLL.ASM
                    SRA0E   0x000697    program     static D:\KennyNeutron\HUB12\20190520_HUB12_SCROLL\HUB12_SCROLL.ASM
                    SRA0F   0x00069f    program     static D:\KennyNeutron\HUB12\20190520_HUB12_SCROLL\HUB12_SCROLL.ASM
                    SRB00   0x0006ae    program     static D:\KennyNeutron\HUB12\20190520_HUB12_SCROLL\HUB12_SCROLL.ASM
                    SRB01   0x0006b6    program     static D:\KennyNeutron\HUB12\20190520_HUB12_SCROLL\HUB12_SCROLL.ASM
                    SRB02   0x0006bd    program     static D:\KennyNeutron\HUB12\20190520_HUB12_SCROLL\HUB12_SCROLL.ASM
                    SRB03   0x0006c4    program     static D:\KennyNeutron\HUB12\20190520_HUB12_SCROLL\HUB12_SCROLL.ASM
                    SRB04   0x0006cb    program     static D:\KennyNeutron\HUB12\20190520_HUB12_SCROLL\HUB12_SCROLL.ASM
                    SRB05   0x0006d2    program     static D:\KennyNeutron\HUB12\20190520_HUB12_SCROLL\HUB12_SCROLL.ASM
                    SRB06   0x0006d9    program     static D:\KennyNeutron\HUB12\20190520_HUB12_SCROLL\HUB12_SCROLL.ASM
                    SRB07   0x0006e0    program     static D:\KennyNeutron\HUB12\20190520_HUB12_SCROLL\HUB12_SCROLL.ASM
                    SRB08   0x0006e9    program     static D:\KennyNeutron\HUB12\20190520_HUB12_SCROLL\HUB12_SCROLL.ASM
                 SRB08_R1   0x0006e8    program     static D:\KennyNeutron\HUB12\20190520_HUB12_SCROLL\HUB12_SCROLL.ASM
                    SRB09   0x0006f0    program     static D:\KennyNeutron\HUB12\20190520_HUB12_SCROLL\HUB12_SCROLL.ASM
                    SRB0A   0x0006f7    program     static D:\KennyNeutron\HUB12\20190520_HUB12_SCROLL\HUB12_SCROLL.ASM
                    SRB0B   0x000702    program     static D:\KennyNeutron\HUB12\20190520_HUB12_SCROLL\HUB12_SCROLL.ASM
                    SRB0C   0x000709    program     static D:\KennyNeutron\HUB12\20190520_HUB12_SCROLL\HUB12_SCROLL.ASM
                    SRB0D   0x000710    program     static D:\KennyNeutron\HUB12\20190520_HUB12_SCROLL\HUB12_SCROLL.ASM
                    SRB0E   0x000717    program     static D:\KennyNeutron\HUB12\20190520_HUB12_SCROLL\HUB12_SCROLL.ASM
                    SRB0F   0x00071e    program     static D:\KennyNeutron\HUB12\20190520_HUB12_SCROLL\HUB12_SCROLL.ASM
                    SRC00   0x00072c    program     static D:\KennyNeutron\HUB12\20190520_HUB12_SCROLL\HUB12_SCROLL.ASM
                    SRC01   0x000733    program     static D:\KennyNeutron\HUB12\20190520_HUB12_SCROLL\HUB12_SCROLL.ASM
                    SRC02   0x000739    program     static D:\KennyNeutron\HUB12\20190520_HUB12_SCROLL\HUB12_SCROLL.ASM
                    SRC03   0x00073f    program     static D:\KennyNeutron\HUB12\20190520_HUB12_SCROLL\HUB12_SCROLL.ASM
                    SRC04   0x000745    program     static D:\KennyNeutron\HUB12\20190520_HUB12_SCROLL\HUB12_SCROLL.ASM
                    SRC05   0x00074b    program     static D:\KennyNeutron\HUB12\20190520_HUB12_SCROLL\HUB12_SCROLL.ASM
                    SRC06   0x000751    program     static D:\KennyNeutron\HUB12\20190520_HUB12_SCROLL\HUB12_SCROLL.ASM
                    SRC07   0x000757    program     static D:\KennyNeutron\HUB12\20190520_HUB12_SCROLL\HUB12_SCROLL.ASM
                    SRC08   0x00075f    program     static D:\KennyNeutron\HUB12\20190520_HUB12_SCROLL\HUB12_SCROLL.ASM
                 SRC08_R1   0x00075e    program     static D:\KennyNeutron\HUB12\20190520_HUB12_SCROLL\HUB12_SCROLL.ASM
                    SRC09   0x000765    program     static D:\KennyNeutron\HUB12\20190520_HUB12_SCROLL\HUB12_SCROLL.ASM
                    SRC0A   0x00076b    program     static D:\KennyNeutron\HUB12\20190520_HUB12_SCROLL\HUB12_SCROLL.ASM
                    SRC0B   0x000771    program     static D:\KennyNeutron\HUB12\20190520_HUB12_SCROLL\HUB12_SCROLL.ASM
                    SRC0C   0x000777    program     static D:\KennyNeutron\HUB12\20190520_HUB12_SCROLL\HUB12_SCROLL.ASM
                    SRC0D   0x00077d    program     static D:\KennyNeutron\HUB12\20190520_HUB12_SCROLL\HUB12_SCROLL.ASM
                    SRC0E   0x000783    program     static D:\KennyNeutron\HUB12\20190520_HUB12_SCROLL\HUB12_SCROLL.ASM
                    SRC0F   0x000789    program     static D:\KennyNeutron\HUB12\20190520_HUB12_SCROLL\HUB12_SCROLL.ASM
                    THREE   0x00020c    program     static D:\KennyNeutron\HUB12\20190520_HUB12_SCROLL\HUB12_SCROLL.ASM
                      TWO   0x0001e2    program     static D:\KennyNeutron\HUB12\20190520_HUB12_SCROLL\HUB12_SCROLL.ASM
                   T_CHAR   0x000316    program     static D:\KennyNeutron\HUB12\20190520_HUB12_SCROLL\HUB12_SCROLL.ASM
                  T_CHARB   0x000400    program     static D:\KennyNeutron\HUB12\20190520_HUB12_SCROLL\HUB12_SCROLL.ASM
                  T_EIGHT   0x000452    program     static D:\KennyNeutron\HUB12\20190520_HUB12_SCROLL\HUB12_SCROLL.ASM
                   T_FIVE   0x0003d3    program     static D:\KennyNeutron\HUB12\20190520_HUB12_SCROLL\HUB12_SCROLL.ASM
                   T_FOUR   0x0003b0    program     static D:\KennyNeutron\HUB12\20190520_HUB12_SCROLL\HUB12_SCROLL.ASM
                   T_NINE   0x000475    program     static D:\KennyNeutron\HUB12\20190520_HUB12_SCROLL\HUB12_SCROLL.ASM
                    T_ONE   0x000347    program     static D:\KennyNeutron\HUB12\20190520_HUB12_SCROLL\HUB12_SCROLL.ASM
                  T_SEVEN   0x00042f    program     static D:\KennyNeutron\HUB12\20190520_HUB12_SCROLL\HUB12_SCROLL.ASM
                    T_SIX   0x00040c    program     static D:\KennyNeutron\HUB12\20190520_HUB12_SCROLL\HUB12_SCROLL.ASM
                  T_THREE   0x00038d    program     static D:\KennyNeutron\HUB12\20190520_HUB12_SCROLL\HUB12_SCROLL.ASM
                    T_TWO   0x00036a    program     static D:\KennyNeutron\HUB12\20190520_HUB12_SCROLL\HUB12_SCROLL.ASM
                   T_ZERO   0x000324    program     static D:\KennyNeutron\HUB12\20190520_HUB12_SCROLL\HUB12_SCROLL.ASM
                     USEC   0x000155    program     static D:\KennyNeutron\HUB12\20190520_HUB12_SCROLL\HUB12_SCROLL.ASM
                      YU0   0x0009bd    program     static D:\KennyNeutron\HUB12\20190520_HUB12_SCROLL\HUB12_SCROLL.ASM
                      YU1   0x000ac9    program     static D:\KennyNeutron\HUB12\20190520_HUB12_SCROLL\HUB12_SCROLL.ASM
                     ZERO   0x0001ba    program     static D:\KennyNeutron\HUB12\20190520_HUB12_SCROLL\HUB12_SCROLL.ASM



                              Symbols - Sorted by Address
                     Name    Address   Location    Storage File                     
                ---------  ---------  ---------  --------- ---------                
                     INIT   0x000010    program     static D:\KennyNeutron\HUB12\20190520_HUB12_SCROLL\HUB12_SCROLL.ASM
                     MAIN   0x00001c    program     static D:\KennyNeutron\HUB12\20190520_HUB12_SCROLL\HUB12_SCROLL.ASM
                     DISP   0x000100    program     static D:\KennyNeutron\HUB12\20190520_HUB12_SCROLL\HUB12_SCROLL.ASM
                    DISP0   0x000102    program     static D:\KennyNeutron\HUB12\20190520_HUB12_SCROLL\HUB12_SCROLL.ASM
                  DISPLAY   0x000107    program     static D:\KennyNeutron\HUB12\20190520_HUB12_SCROLL\HUB12_SCROLL.ASM
                     DSP0   0x00010b    program     static D:\KennyNeutron\HUB12\20190520_HUB12_SCROLL\HUB12_SCROLL.ASM
                     DSP1   0x000115    program     static D:\KennyNeutron\HUB12\20190520_HUB12_SCROLL\HUB12_SCROLL.ASM
                     DSP2   0x00011f    program     static D:\KennyNeutron\HUB12\20190520_HUB12_SCROLL\HUB12_SCROLL.ASM
                     DSP3   0x000129    program     static D:\KennyNeutron\HUB12\20190520_HUB12_SCROLL\HUB12_SCROLL.ASM
                DATALATCH   0x000132    program     static D:\KennyNeutron\HUB12\20190520_HUB12_SCROLL\HUB12_SCROLL.ASM
                      DL0   0x000139    program     static D:\KennyNeutron\HUB12\20190520_HUB12_SCROLL\HUB12_SCROLL.ASM
                       D0   0x00013d    program     static D:\KennyNeutron\HUB12\20190520_HUB12_SCROLL\HUB12_SCROLL.ASM
                       D1   0x00013f    program     static D:\KennyNeutron\HUB12\20190520_HUB12_SCROLL\HUB12_SCROLL.ASM
                      DL1   0x000141    program     static D:\KennyNeutron\HUB12\20190520_HUB12_SCROLL\HUB12_SCROLL.ASM
                    CLRAM   0x000148    program     static D:\KennyNeutron\HUB12\20190520_HUB12_SCROLL\HUB12_SCROLL.ASM
                     DRM0   0x00014c    program     static D:\KennyNeutron\HUB12\20190520_HUB12_SCROLL\HUB12_SCROLL.ASM
                 DELAY_US   0x000154    program     static D:\KennyNeutron\HUB12\20190520_HUB12_SCROLL\HUB12_SCROLL.ASM
                     USEC   0x000155    program     static D:\KennyNeutron\HUB12\20190520_HUB12_SCROLL\HUB12_SCROLL.ASM
              DELAY_ONEMS   0x00015c    program     static D:\KennyNeutron\HUB12\20190520_HUB12_SCROLL\HUB12_SCROLL.ASM
                     MSEC   0x00015e    program     static D:\KennyNeutron\HUB12\20190520_HUB12_SCROLL\HUB12_SCROLL.ASM
                 DELAY_MS   0x000163    program     static D:\KennyNeutron\HUB12\20190520_HUB12_SCROLL\HUB12_SCROLL.ASM
                    MSEC0   0x000164    program     static D:\KennyNeutron\HUB12\20190520_HUB12_SCROLL\HUB12_SCROLL.ASM
             DELAY_ONESEC   0x000168    program     static D:\KennyNeutron\HUB12\20190520_HUB12_SCROLL\HUB12_SCROLL.ASM
                     SEC0   0x00016a    program     static D:\KennyNeutron\HUB12\20190520_HUB12_SCROLL\HUB12_SCROLL.ASM
                DELAY_SEC   0x00016f    program     static D:\KennyNeutron\HUB12\20190520_HUB12_SCROLL\HUB12_SCROLL.ASM
                     SEC1   0x000170    program     static D:\KennyNeutron\HUB12\20190520_HUB12_SCROLL\HUB12_SCROLL.ASM
                 CLR_IRAM   0x000174    program     static D:\KennyNeutron\HUB12\20190520_HUB12_SCROLL\HUB12_SCROLL.ASM
                     IRM0   0x00017a    program     static D:\KennyNeutron\HUB12\20190520_HUB12_SCROLL\HUB12_SCROLL.ASM
                   SLICEB   0x000184    program     static D:\KennyNeutron\HUB12\20190520_HUB12_SCROLL\HUB12_SCROLL.ASM
                     SLB0   0x000186    program     static D:\KennyNeutron\HUB12\20190520_HUB12_SCROLL\HUB12_SCROLL.ASM
                     SLB1   0x00018a    program     static D:\KennyNeutron\HUB12\20190520_HUB12_SCROLL\HUB12_SCROLL.ASM
                     SLB2   0x000192    program     static D:\KennyNeutron\HUB12\20190520_HUB12_SCROLL\HUB12_SCROLL.ASM
                   SLICET   0x000198    program     static D:\KennyNeutron\HUB12\20190520_HUB12_SCROLL\HUB12_SCROLL.ASM
                     SLT0   0x00019a    program     static D:\KennyNeutron\HUB12\20190520_HUB12_SCROLL\HUB12_SCROLL.ASM
                     SLT1   0x00019e    program     static D:\KennyNeutron\HUB12\20190520_HUB12_SCROLL\HUB12_SCROLL.ASM
                     SLT2   0x0001a6    program     static D:\KennyNeutron\HUB12\20190520_HUB12_SCROLL\HUB12_SCROLL.ASM
                     CHAR   0x0001ac    program     static D:\KennyNeutron\HUB12\20190520_HUB12_SCROLL\HUB12_SCROLL.ASM
                     ZERO   0x0001ba    program     static D:\KennyNeutron\HUB12\20190520_HUB12_SCROLL\HUB12_SCROLL.ASM
                      ONE   0x0001cf    program     static D:\KennyNeutron\HUB12\20190520_HUB12_SCROLL\HUB12_SCROLL.ASM
                      TWO   0x0001e2    program     static D:\KennyNeutron\HUB12\20190520_HUB12_SCROLL\HUB12_SCROLL.ASM
                    CHARB   0x000200    program     static D:\KennyNeutron\HUB12\20190520_HUB12_SCROLL\HUB12_SCROLL.ASM
                    THREE   0x00020c    program     static D:\KennyNeutron\HUB12\20190520_HUB12_SCROLL\HUB12_SCROLL.ASM
                     FOUR   0x00021f    program     static D:\KennyNeutron\HUB12\20190520_HUB12_SCROLL\HUB12_SCROLL.ASM
                     FIVE   0x000232    program     static D:\KennyNeutron\HUB12\20190520_HUB12_SCROLL\HUB12_SCROLL.ASM
                      SIX   0x000245    program     static D:\KennyNeutron\HUB12\20190520_HUB12_SCROLL\HUB12_SCROLL.ASM
                    SEVEN   0x000258    program     static D:\KennyNeutron\HUB12\20190520_HUB12_SCROLL\HUB12_SCROLL.ASM
                    EIGHT   0x00026b    program     static D:\KennyNeutron\HUB12\20190520_HUB12_SCROLL\HUB12_SCROLL.ASM
                     NINE   0x00027e    program     static D:\KennyNeutron\HUB12\20190520_HUB12_SCROLL\HUB12_SCROLL.ASM
                   L_CHAR   0x000291    program     static D:\KennyNeutron\HUB12\20190520_HUB12_SCROLL\HUB12_SCROLL.ASM
                   L_ZERO   0x00029f    program     static D:\KennyNeutron\HUB12\20190520_HUB12_SCROLL\HUB12_SCROLL.ASM
                    L_ONE   0x0002aa    program     static D:\KennyNeutron\HUB12\20190520_HUB12_SCROLL\HUB12_SCROLL.ASM
                    L_TWO   0x0002b5    program     static D:\KennyNeutron\HUB12\20190520_HUB12_SCROLL\HUB12_SCROLL.ASM
                  L_THREE   0x0002c0    program     static D:\KennyNeutron\HUB12\20190520_HUB12_SCROLL\HUB12_SCROLL.ASM
                   L_FOUR   0x0002cb    program     static D:\KennyNeutron\HUB12\20190520_HUB12_SCROLL\HUB12_SCROLL.ASM
                   L_FIVE   0x0002d6    program     static D:\KennyNeutron\HUB12\20190520_HUB12_SCROLL\HUB12_SCROLL.ASM
                    L_SIX   0x0002e1    program     static D:\KennyNeutron\HUB12\20190520_HUB12_SCROLL\HUB12_SCROLL.ASM
                  L_SEVEN   0x0002ec    program     static D:\KennyNeutron\HUB12\20190520_HUB12_SCROLL\HUB12_SCROLL.ASM
                  L_CHARB   0x000300    program     static D:\KennyNeutron\HUB12\20190520_HUB12_SCROLL\HUB12_SCROLL.ASM
                  L_EIGHT   0x000300    program     static D:\KennyNeutron\HUB12\20190520_HUB12_SCROLL\HUB12_SCROLL.ASM
                   L_NINE   0x00030b    program     static D:\KennyNeutron\HUB12\20190520_HUB12_SCROLL\HUB12_SCROLL.ASM
                   T_CHAR   0x000316    program     static D:\KennyNeutron\HUB12\20190520_HUB12_SCROLL\HUB12_SCROLL.ASM
                   T_ZERO   0x000324    program     static D:\KennyNeutron\HUB12\20190520_HUB12_SCROLL\HUB12_SCROLL.ASM
                    T_ONE   0x000347    program     static D:\KennyNeutron\HUB12\20190520_HUB12_SCROLL\HUB12_SCROLL.ASM
                    T_TWO   0x00036a    program     static D:\KennyNeutron\HUB12\20190520_HUB12_SCROLL\HUB12_SCROLL.ASM
                  T_THREE   0x00038d    program     static D:\KennyNeutron\HUB12\20190520_HUB12_SCROLL\HUB12_SCROLL.ASM
                   T_FOUR   0x0003b0    program     static D:\KennyNeutron\HUB12\20190520_HUB12_SCROLL\HUB12_SCROLL.ASM
                   T_FIVE   0x0003d3    program     static D:\KennyNeutron\HUB12\20190520_HUB12_SCROLL\HUB12_SCROLL.ASM
                  T_CHARB   0x000400    program     static D:\KennyNeutron\HUB12\20190520_HUB12_SCROLL\HUB12_SCROLL.ASM
                    T_SIX   0x00040c    program     static D:\KennyNeutron\HUB12\20190520_HUB12_SCROLL\HUB12_SCROLL.ASM
                  T_SEVEN   0x00042f    program     static D:\KennyNeutron\HUB12\20190520_HUB12_SCROLL\HUB12_SCROLL.ASM
                  T_EIGHT   0x000452    program     static D:\KennyNeutron\HUB12\20190520_HUB12_SCROLL\HUB12_SCROLL.ASM
                   T_NINE   0x000475    program     static D:\KennyNeutron\HUB12\20190520_HUB12_SCROLL\HUB12_SCROLL.ASM
                     DUMP   0x000499    program     static D:\KennyNeutron\HUB12\20190520_HUB12_SCROLL\HUB12_SCROLL.ASM
                   FONT_0   0x0004a1    program     static D:\KennyNeutron\HUB12\20190520_HUB12_SCROLL\HUB12_SCROLL.ASM
                   FONT_1   0x000500    program     static D:\KennyNeutron\HUB12\20190520_HUB12_SCROLL\HUB12_SCROLL.ASM
                   FONT_2   0x000530    program     static D:\KennyNeutron\HUB12\20190520_HUB12_SCROLL\HUB12_SCROLL.ASM
                   SHIFTR   0x000600    program     static D:\KennyNeutron\HUB12\20190520_HUB12_SCROLL\HUB12_SCROLL.ASM
                    GRP_A   0x00061c    program     static D:\KennyNeutron\HUB12\20190520_HUB12_SCROLL\HUB12_SCROLL.ASM
                    SRA00   0x000624    program     static D:\KennyNeutron\HUB12\20190520_HUB12_SCROLL\HUB12_SCROLL.ASM
                    SRA01   0x00062d    program     static D:\KennyNeutron\HUB12\20190520_HUB12_SCROLL\HUB12_SCROLL.ASM
                    SRA02   0x000635    program     static D:\KennyNeutron\HUB12\20190520_HUB12_SCROLL\HUB12_SCROLL.ASM
                    SRA03   0x00063d    program     static D:\KennyNeutron\HUB12\20190520_HUB12_SCROLL\HUB12_SCROLL.ASM
                    SRA04   0x000645    program     static D:\KennyNeutron\HUB12\20190520_HUB12_SCROLL\HUB12_SCROLL.ASM
                    SRA05   0x00064d    program     static D:\KennyNeutron\HUB12\20190520_HUB12_SCROLL\HUB12_SCROLL.ASM
                    SRA06   0x000655    program     static D:\KennyNeutron\HUB12\20190520_HUB12_SCROLL\HUB12_SCROLL.ASM
                    SRA07   0x00065d    program     static D:\KennyNeutron\HUB12\20190520_HUB12_SCROLL\HUB12_SCROLL.ASM
                 SRA08_R1   0x000666    program     static D:\KennyNeutron\HUB12\20190520_HUB12_SCROLL\HUB12_SCROLL.ASM
                    SRA08   0x000667    program     static D:\KennyNeutron\HUB12\20190520_HUB12_SCROLL\HUB12_SCROLL.ASM
                    SRA09   0x00066f    program     static D:\KennyNeutron\HUB12\20190520_HUB12_SCROLL\HUB12_SCROLL.ASM
                    SRA0A   0x000677    program     static D:\KennyNeutron\HUB12\20190520_HUB12_SCROLL\HUB12_SCROLL.ASM
                    SRA0B   0x00067f    program     static D:\KennyNeutron\HUB12\20190520_HUB12_SCROLL\HUB12_SCROLL.ASM
                    SRA0C   0x000687    program     static D:\KennyNeutron\HUB12\20190520_HUB12_SCROLL\HUB12_SCROLL.ASM
                    SRA0D   0x00068f    program     static D:\KennyNeutron\HUB12\20190520_HUB12_SCROLL\HUB12_SCROLL.ASM
                    SRA0E   0x000697    program     static D:\KennyNeutron\HUB12\20190520_HUB12_SCROLL\HUB12_SCROLL.ASM
                    SRA0F   0x00069f    program     static D:\KennyNeutron\HUB12\20190520_HUB12_SCROLL\HUB12_SCROLL.ASM
                    GRP_B   0x0006a6    program     static D:\KennyNeutron\HUB12\20190520_HUB12_SCROLL\HUB12_SCROLL.ASM
                    SRB00   0x0006ae    program     static D:\KennyNeutron\HUB12\20190520_HUB12_SCROLL\HUB12_SCROLL.ASM
                    SRB01   0x0006b6    program     static D:\KennyNeutron\HUB12\20190520_HUB12_SCROLL\HUB12_SCROLL.ASM
                    SRB02   0x0006bd    program     static D:\KennyNeutron\HUB12\20190520_HUB12_SCROLL\HUB12_SCROLL.ASM
                    SRB03   0x0006c4    program     static D:\KennyNeutron\HUB12\20190520_HUB12_SCROLL\HUB12_SCROLL.ASM
                    SRB04   0x0006cb    program     static D:\KennyNeutron\HUB12\20190520_HUB12_SCROLL\HUB12_SCROLL.ASM
                    SRB05   0x0006d2    program     static D:\KennyNeutron\HUB12\20190520_HUB12_SCROLL\HUB12_SCROLL.ASM
                    SRB06   0x0006d9    program     static D:\KennyNeutron\HUB12\20190520_HUB12_SCROLL\HUB12_SCROLL.ASM
                    SRB07   0x0006e0    program     static D:\KennyNeutron\HUB12\20190520_HUB12_SCROLL\HUB12_SCROLL.ASM
                 SRB08_R1   0x0006e8    program     static D:\KennyNeutron\HUB12\20190520_HUB12_SCROLL\HUB12_SCROLL.ASM
                    SRB08   0x0006e9    program     static D:\KennyNeutron\HUB12\20190520_HUB12_SCROLL\HUB12_SCROLL.ASM
                    SRB09   0x0006f0    program     static D:\KennyNeutron\HUB12\20190520_HUB12_SCROLL\HUB12_SCROLL.ASM
                    SRB0A   0x0006f7    program     static D:\KennyNeutron\HUB12\20190520_HUB12_SCROLL\HUB12_SCROLL.ASM
                    SRB0B   0x000702    program     static D:\KennyNeutron\HUB12\20190520_HUB12_SCROLL\HUB12_SCROLL.ASM
                    SRB0C   0x000709    program     static D:\KennyNeutron\HUB12\20190520_HUB12_SCROLL\HUB12_SCROLL.ASM
                    SRB0D   0x000710    program     static D:\KennyNeutron\HUB12\20190520_HUB12_SCROLL\HUB12_SCROLL.ASM
                    SRB0E   0x000717    program     static D:\KennyNeutron\HUB12\20190520_HUB12_SCROLL\HUB12_SCROLL.ASM
                    SRB0F   0x00071e    program     static D:\KennyNeutron\HUB12\20190520_HUB12_SCROLL\HUB12_SCROLL.ASM
                    GRP_C   0x000724    program     static D:\KennyNeutron\HUB12\20190520_HUB12_SCROLL\HUB12_SCROLL.ASM
                    SRC00   0x00072c    program     static D:\KennyNeutron\HUB12\20190520_HUB12_SCROLL\HUB12_SCROLL.ASM
                    SRC01   0x000733    program     static D:\KennyNeutron\HUB12\20190520_HUB12_SCROLL\HUB12_SCROLL.ASM
                    SRC02   0x000739    program     static D:\KennyNeutron\HUB12\20190520_HUB12_SCROLL\HUB12_SCROLL.ASM
                    SRC03   0x00073f    program     static D:\KennyNeutron\HUB12\20190520_HUB12_SCROLL\HUB12_SCROLL.ASM
                    SRC04   0x000745    program     static D:\KennyNeutron\HUB12\20190520_HUB12_SCROLL\HUB12_SCROLL.ASM
                    SRC05   0x00074b    program     static D:\KennyNeutron\HUB12\20190520_HUB12_SCROLL\HUB12_SCROLL.ASM
                    SRC06   0x000751    program     static D:\KennyNeutron\HUB12\20190520_HUB12_SCROLL\HUB12_SCROLL.ASM
                    SRC07   0x000757    program     static D:\KennyNeutron\HUB12\20190520_HUB12_SCROLL\HUB12_SCROLL.ASM
                 SRC08_R1   0x00075e    program     static D:\KennyNeutron\HUB12\20190520_HUB12_SCROLL\HUB12_SCROLL.ASM
                    SRC08   0x00075f    program     static D:\KennyNeutron\HUB12\20190520_HUB12_SCROLL\HUB12_SCROLL.ASM
                    SRC09   0x000765    program     static D:\KennyNeutron\HUB12\20190520_HUB12_SCROLL\HUB12_SCROLL.ASM
                    SRC0A   0x00076b    program     static D:\KennyNeutron\HUB12\20190520_HUB12_SCROLL\HUB12_SCROLL.ASM
                    SRC0B   0x000771    program     static D:\KennyNeutron\HUB12\20190520_HUB12_SCROLL\HUB12_SCROLL.ASM
                    SRC0C   0x000777    program     static D:\KennyNeutron\HUB12\20190520_HUB12_SCROLL\HUB12_SCROLL.ASM
                    SRC0D   0x00077d    program     static D:\KennyNeutron\HUB12\20190520_HUB12_SCROLL\HUB12_SCROLL.ASM
                    SRC0E   0x000783    program     static D:\KennyNeutron\HUB12\20190520_HUB12_SCROLL\HUB12_SCROLL.ASM
                    SRC0F   0x000789    program     static D:\KennyNeutron\HUB12\20190520_HUB12_SCROLL\HUB12_SCROLL.ASM
                    GRP_D   0x00078e    program     static D:\KennyNeutron\HUB12\20190520_HUB12_SCROLL\HUB12_SCROLL.ASM
              SHIFTL_GRPA   0x000791    program     static D:\KennyNeutron\HUB12\20190520_HUB12_SCROLL\HUB12_SCROLL.ASM
              SHIFTL_GRPB   0x000791    program     static D:\KennyNeutron\HUB12\20190520_HUB12_SCROLL\HUB12_SCROLL.ASM
                     SB00   0x00079b    program     static D:\KennyNeutron\HUB12\20190520_HUB12_SCROLL\HUB12_SCROLL.ASM
                     SB01   0x0007a6    program     static D:\KennyNeutron\HUB12\20190520_HUB12_SCROLL\HUB12_SCROLL.ASM
                     SB02   0x0007b1    program     static D:\KennyNeutron\HUB12\20190520_HUB12_SCROLL\HUB12_SCROLL.ASM
                     SB03   0x0007bc    program     static D:\KennyNeutron\HUB12\20190520_HUB12_SCROLL\HUB12_SCROLL.ASM
                     SB04   0x0007c7    program     static D:\KennyNeutron\HUB12\20190520_HUB12_SCROLL\HUB12_SCROLL.ASM
                     SB05   0x0007d2    program     static D:\KennyNeutron\HUB12\20190520_HUB12_SCROLL\HUB12_SCROLL.ASM
                     SB06   0x0007dd    program     static D:\KennyNeutron\HUB12\20190520_HUB12_SCROLL\HUB12_SCROLL.ASM
                     SB07   0x0007e8    program     static D:\KennyNeutron\HUB12\20190520_HUB12_SCROLL\HUB12_SCROLL.ASM
                SB08_FLAG   0x0007f0    program     static D:\KennyNeutron\HUB12\20190520_HUB12_SCROLL\HUB12_SCROLL.ASM
                     SB08   0x0007f4    program     static D:\KennyNeutron\HUB12\20190520_HUB12_SCROLL\HUB12_SCROLL.ASM
                     SB09   0x000800    program     static D:\KennyNeutron\HUB12\20190520_HUB12_SCROLL\HUB12_SCROLL.ASM
                     SB0A   0x00080b    program     static D:\KennyNeutron\HUB12\20190520_HUB12_SCROLL\HUB12_SCROLL.ASM
                     SB0B   0x000816    program     static D:\KennyNeutron\HUB12\20190520_HUB12_SCROLL\HUB12_SCROLL.ASM
                     SB0C   0x000821    program     static D:\KennyNeutron\HUB12\20190520_HUB12_SCROLL\HUB12_SCROLL.ASM
                     SB0D   0x00082c    program     static D:\KennyNeutron\HUB12\20190520_HUB12_SCROLL\HUB12_SCROLL.ASM
                     SB0E   0x000837    program     static D:\KennyNeutron\HUB12\20190520_HUB12_SCROLL\HUB12_SCROLL.ASM
                     SB0F   0x000842    program     static D:\KennyNeutron\HUB12\20190520_HUB12_SCROLL\HUB12_SCROLL.ASM
              SHIFTL_GRPC   0x00084a    program     static D:\KennyNeutron\HUB12\20190520_HUB12_SCROLL\HUB12_SCROLL.ASM
                     SC00   0x000852    program     static D:\KennyNeutron\HUB12\20190520_HUB12_SCROLL\HUB12_SCROLL.ASM
                     SC01   0x00085d    program     static D:\KennyNeutron\HUB12\20190520_HUB12_SCROLL\HUB12_SCROLL.ASM
                     SC02   0x000868    program     static D:\KennyNeutron\HUB12\20190520_HUB12_SCROLL\HUB12_SCROLL.ASM
                     SC03   0x000873    program     static D:\KennyNeutron\HUB12\20190520_HUB12_SCROLL\HUB12_SCROLL.ASM
                     SC04   0x00087e    program     static D:\KennyNeutron\HUB12\20190520_HUB12_SCROLL\HUB12_SCROLL.ASM
                     SC05   0x000889    program     static D:\KennyNeutron\HUB12\20190520_HUB12_SCROLL\HUB12_SCROLL.ASM
                     SC06   0x000894    program     static D:\KennyNeutron\HUB12\20190520_HUB12_SCROLL\HUB12_SCROLL.ASM
                     SC07   0x00089f    program     static D:\KennyNeutron\HUB12\20190520_HUB12_SCROLL\HUB12_SCROLL.ASM
                SC08_FLAG   0x0008a7    program     static D:\KennyNeutron\HUB12\20190520_HUB12_SCROLL\HUB12_SCROLL.ASM
                     SC08   0x0008ab    program     static D:\KennyNeutron\HUB12\20190520_HUB12_SCROLL\HUB12_SCROLL.ASM
                     SC09   0x0008b6    program     static D:\KennyNeutron\HUB12\20190520_HUB12_SCROLL\HUB12_SCROLL.ASM
                     SC0A   0x0008c1    program     static D:\KennyNeutron\HUB12\20190520_HUB12_SCROLL\HUB12_SCROLL.ASM
                     SC0B   0x0008cc    program     static D:\KennyNeutron\HUB12\20190520_HUB12_SCROLL\HUB12_SCROLL.ASM
                     SC0C   0x0008d7    program     static D:\KennyNeutron\HUB12\20190520_HUB12_SCROLL\HUB12_SCROLL.ASM
                     SC0D   0x0008e2    program     static D:\KennyNeutron\HUB12\20190520_HUB12_SCROLL\HUB12_SCROLL.ASM
                     SC0E   0x0008ed    program     static D:\KennyNeutron\HUB12\20190520_HUB12_SCROLL\HUB12_SCROLL.ASM
                     SC0F   0x0008f8    program     static D:\KennyNeutron\HUB12\20190520_HUB12_SCROLL\HUB12_SCROLL.ASM
              SHIFTL_GRPD   0x000900    program     static D:\KennyNeutron\HUB12\20190520_HUB12_SCROLL\HUB12_SCROLL.ASM
                     SD00   0x000908    program     static D:\KennyNeutron\HUB12\20190520_HUB12_SCROLL\HUB12_SCROLL.ASM
                     SD01   0x000913    program     static D:\KennyNeutron\HUB12\20190520_HUB12_SCROLL\HUB12_SCROLL.ASM
                     SD02   0x00091e    program     static D:\KennyNeutron\HUB12\20190520_HUB12_SCROLL\HUB12_SCROLL.ASM
                     SD03   0x000929    program     static D:\KennyNeutron\HUB12\20190520_HUB12_SCROLL\HUB12_SCROLL.ASM
                     SD04   0x000934    program     static D:\KennyNeutron\HUB12\20190520_HUB12_SCROLL\HUB12_SCROLL.ASM
                     SD05   0x00093f    program     static D:\KennyNeutron\HUB12\20190520_HUB12_SCROLL\HUB12_SCROLL.ASM
                     SD06   0x00094a    program     static D:\KennyNeutron\HUB12\20190520_HUB12_SCROLL\HUB12_SCROLL.ASM
                     SD07   0x000955    program     static D:\KennyNeutron\HUB12\20190520_HUB12_SCROLL\HUB12_SCROLL.ASM
                SD08_FLAG   0x00095d    program     static D:\KennyNeutron\HUB12\20190520_HUB12_SCROLL\HUB12_SCROLL.ASM
                     SD08   0x000961    program     static D:\KennyNeutron\HUB12\20190520_HUB12_SCROLL\HUB12_SCROLL.ASM
                     SD09   0x00096c    program     static D:\KennyNeutron\HUB12\20190520_HUB12_SCROLL\HUB12_SCROLL.ASM
                     SD0A   0x000977    program     static D:\KennyNeutron\HUB12\20190520_HUB12_SCROLL\HUB12_SCROLL.ASM
                     SD0B   0x000982    program     static D:\KennyNeutron\HUB12\20190520_HUB12_SCROLL\HUB12_SCROLL.ASM
                     SD0C   0x00098d    program     static D:\KennyNeutron\HUB12\20190520_HUB12_SCROLL\HUB12_SCROLL.ASM
                     SD0D   0x000998    program     static D:\KennyNeutron\HUB12\20190520_HUB12_SCROLL\HUB12_SCROLL.ASM
                     SD0E   0x0009a3    program     static D:\KennyNeutron\HUB12\20190520_HUB12_SCROLL\HUB12_SCROLL.ASM
                     SD0F   0x0009ae    program     static D:\KennyNeutron\HUB12\20190520_HUB12_SCROLL\HUB12_SCROLL.ASM
                 SHIFT_YU   0x0009b6    program     static D:\KennyNeutron\HUB12\20190520_HUB12_SCROLL\HUB12_SCROLL.ASM
                      YU0   0x0009bd    program     static D:\KennyNeutron\HUB12\20190520_HUB12_SCROLL\HUB12_SCROLL.ASM
                    IDUMP   0x000a00    program     static D:\KennyNeutron\HUB12\20190520_HUB12_SCROLL\HUB12_SCROLL.ASM
                  IFONT_0   0x000a0a    program     static D:\KennyNeutron\HUB12\20190520_HUB12_SCROLL\HUB12_SCROLL.ASM
                  IFONT_1   0x000a66    program     static D:\KennyNeutron\HUB12\20190520_HUB12_SCROLL\HUB12_SCROLL.ASM
                   PUTNUM   0x000a9a    program     static D:\KennyNeutron\HUB12\20190520_HUB12_SCROLL\HUB12_SCROLL.ASM
                  IPUTNUM   0x000aaf    program     static D:\KennyNeutron\HUB12\20190520_HUB12_SCROLL\HUB12_SCROLL.ASM
                SHIFT_YUB   0x000ac5    program     static D:\KennyNeutron\HUB12\20190520_HUB12_SCROLL\HUB12_SCROLL.ASM
                      YU1   0x000ac9    program     static D:\KennyNeutron\HUB12\20190520_HUB12_SCROLL\HUB12_SCROLL.ASM
                  IFONT_2   0x000b00    program     static D:\KennyNeutron\HUB12\20190520_HUB12_SCROLL\HUB12_SCROLL.ASM
         DSHIFT_DOWN_GRPA   0x000c2e    program     static D:\KennyNeutron\HUB12\20190520_HUB12_SCROLL\HUB12_SCROLL.ASM
         DSHIFT_DOWN_GRPB   0x000c51    program     static D:\KennyNeutron\HUB12\20190520_HUB12_SCROLL\HUB12_SCROLL.ASM
         DSHIFT_DOWN_GRPC   0x000c74    program     static D:\KennyNeutron\HUB12\20190520_HUB12_SCROLL\HUB12_SCROLL.ASM
         DSHIFT_DOWN_GRPD   0x000c97    program     static D:\KennyNeutron\HUB12\20190520_HUB12_SCROLL\HUB12_SCROLL.ASM
                  ISHIFTR   0x000d00    program     static D:\KennyNeutron\HUB12\20190520_HUB12_SCROLL\HUB12_SCROLL.ASM
                   IGRP_A   0x000d1d    program     static D:\KennyNeutron\HUB12\20190520_HUB12_SCROLL\HUB12_SCROLL.ASM
                   ISRA00   0x000d25    program     static D:\KennyNeutron\HUB12\20190520_HUB12_SCROLL\HUB12_SCROLL.ASM
                   ISRA01   0x000d2e    program     static D:\KennyNeutron\HUB12\20190520_HUB12_SCROLL\HUB12_SCROLL.ASM
                   ISRA02   0x000d36    program     static D:\KennyNeutron\HUB12\20190520_HUB12_SCROLL\HUB12_SCROLL.ASM
                   ISRA03   0x000d3e    program     static D:\KennyNeutron\HUB12\20190520_HUB12_SCROLL\HUB12_SCROLL.ASM
                   ISRA04   0x000d46    program     static D:\KennyNeutron\HUB12\20190520_HUB12_SCROLL\HUB12_SCROLL.ASM
                   ISRA05   0x000d4e    program     static D:\KennyNeutron\HUB12\20190520_HUB12_SCROLL\HUB12_SCROLL.ASM
                   ISRA06   0x000d56    program     static D:\KennyNeutron\HUB12\20190520_HUB12_SCROLL\HUB12_SCROLL.ASM
                   ISRA07   0x000d5e    program     static D:\KennyNeutron\HUB12\20190520_HUB12_SCROLL\HUB12_SCROLL.ASM
                ISRA08_R1   0x000d67    program     static D:\KennyNeutron\HUB12\20190520_HUB12_SCROLL\HUB12_SCROLL.ASM
                   ISRA08   0x000d68    program     static D:\KennyNeutron\HUB12\20190520_HUB12_SCROLL\HUB12_SCROLL.ASM
                   ISRA09   0x000d70    program     static D:\KennyNeutron\HUB12\20190520_HUB12_SCROLL\HUB12_SCROLL.ASM
                   ISRA0A   0x000d78    program     static D:\KennyNeutron\HUB12\20190520_HUB12_SCROLL\HUB12_SCROLL.ASM
                   ISRA0B   0x000d80    program     static D:\KennyNeutron\HUB12\20190520_HUB12_SCROLL\HUB12_SCROLL.ASM
                   ISRA0C   0x000d88    program     static D:\KennyNeutron\HUB12\20190520_HUB12_SCROLL\HUB12_SCROLL.ASM
                   ISRA0D   0x000d90    program     static D:\KennyNeutron\HUB12\20190520_HUB12_SCROLL\HUB12_SCROLL.ASM
                   ISRA0E   0x000d98    program     static D:\KennyNeutron\HUB12\20190520_HUB12_SCROLL\HUB12_SCROLL.ASM
                   ISRA0F   0x000da0    program     static D:\KennyNeutron\HUB12\20190520_HUB12_SCROLL\HUB12_SCROLL.ASM
                   IGRP_B   0x000da7    program     static D:\KennyNeutron\HUB12\20190520_HUB12_SCROLL\HUB12_SCROLL.ASM
                   ISRB00   0x000daf    program     static D:\KennyNeutron\HUB12\20190520_HUB12_SCROLL\HUB12_SCROLL.ASM
                   ISRB01   0x000db7    program     static D:\KennyNeutron\HUB12\20190520_HUB12_SCROLL\HUB12_SCROLL.ASM
                   ISRB02   0x000dbe    program     static D:\KennyNeutron\HUB12\20190520_HUB12_SCROLL\HUB12_SCROLL.ASM
                   ISRB03   0x000dc5    program     static D:\KennyNeutron\HUB12\20190520_HUB12_SCROLL\HUB12_SCROLL.ASM
                   ISRB04   0x000dcc    program     static D:\KennyNeutron\HUB12\20190520_HUB12_SCROLL\HUB12_SCROLL.ASM
                   ISRB05   0x000dd3    program     static D:\KennyNeutron\HUB12\20190520_HUB12_SCROLL\HUB12_SCROLL.ASM
                   ISRB06   0x000dda    program     static D:\KennyNeutron\HUB12\20190520_HUB12_SCROLL\HUB12_SCROLL.ASM
                   ISRB07   0x000de1    program     static D:\KennyNeutron\HUB12\20190520_HUB12_SCROLL\HUB12_SCROLL.ASM
                ISRB08_R1   0x000de9    program     static D:\KennyNeutron\HUB12\20190520_HUB12_SCROLL\HUB12_SCROLL.ASM
                   ISRB08   0x000dea    program     static D:\KennyNeutron\HUB12\20190520_HUB12_SCROLL\HUB12_SCROLL.ASM
                   ISRB09   0x000df1    program     static D:\KennyNeutron\HUB12\20190520_HUB12_SCROLL\HUB12_SCROLL.ASM
                   ISRB0A   0x000df8    program     static D:\KennyNeutron\HUB12\20190520_HUB12_SCROLL\HUB12_SCROLL.ASM
                   ISRB0B   0x000e02    program     static D:\KennyNeutron\HUB12\20190520_HUB12_SCROLL\HUB12_SCROLL.ASM
                   ISRB0C   0x000e09    program     static D:\KennyNeutron\HUB12\20190520_HUB12_SCROLL\HUB12_SCROLL.ASM
                   ISRB0D   0x000e10    program     static D:\KennyNeutron\HUB12\20190520_HUB12_SCROLL\HUB12_SCROLL.ASM
                   ISRB0E   0x000e17    program     static D:\KennyNeutron\HUB12\20190520_HUB12_SCROLL\HUB12_SCROLL.ASM
                   ISRB0F   0x000e1e    program     static D:\KennyNeutron\HUB12\20190520_HUB12_SCROLL\HUB12_SCROLL.ASM
                   IGRP_C   0x000e24    program     static D:\KennyNeutron\HUB12\20190520_HUB12_SCROLL\HUB12_SCROLL.ASM
                   ISRC00   0x000e2c    program     static D:\KennyNeutron\HUB12\20190520_HUB12_SCROLL\HUB12_SCROLL.ASM
                   ISRC01   0x000e33    program     static D:\KennyNeutron\HUB12\20190520_HUB12_SCROLL\HUB12_SCROLL.ASM
                   ISRC02   0x000e39    program     static D:\KennyNeutron\HUB12\20190520_HUB12_SCROLL\HUB12_SCROLL.ASM
                   ISRC03   0x000e3f    program     static D:\KennyNeutron\HUB12\20190520_HUB12_SCROLL\HUB12_SCROLL.ASM
                   ISRC04   0x000e45    program     static D:\KennyNeutron\HUB12\20190520_HUB12_SCROLL\HUB12_SCROLL.ASM
                   ISRC05   0x000e4b    program     static D:\KennyNeutron\HUB12\20190520_HUB12_SCROLL\HUB12_SCROLL.ASM
                   ISRC06   0x000e51    program     static D:\KennyNeutron\HUB12\20190520_HUB12_SCROLL\HUB12_SCROLL.ASM
                   ISRC07   0x000e57    program     static D:\KennyNeutron\HUB12\20190520_HUB12_SCROLL\HUB12_SCROLL.ASM
                ISRC08_R1   0x000e5e    program     static D:\KennyNeutron\HUB12\20190520_HUB12_SCROLL\HUB12_SCROLL.ASM
                   ISRC08   0x000e5f    program     static D:\KennyNeutron\HUB12\20190520_HUB12_SCROLL\HUB12_SCROLL.ASM
                   ISRC09   0x000e65    program     static D:\KennyNeutron\HUB12\20190520_HUB12_SCROLL\HUB12_SCROLL.ASM
                   ISRC0A   0x000e6b    program     static D:\KennyNeutron\HUB12\20190520_HUB12_SCROLL\HUB12_SCROLL.ASM
                   ISRC0B   0x000e71    program     static D:\KennyNeutron\HUB12\20190520_HUB12_SCROLL\HUB12_SCROLL.ASM
                   ISRC0C   0x000e77    program     static D:\KennyNeutron\HUB12\20190520_HUB12_SCROLL\HUB12_SCROLL.ASM
                   ISRC0D   0x000e7d    program     static D:\KennyNeutron\HUB12\20190520_HUB12_SCROLL\HUB12_SCROLL.ASM
                   ISRC0E   0x000e83    program     static D:\KennyNeutron\HUB12\20190520_HUB12_SCROLL\HUB12_SCROLL.ASM
                   ISRC0F   0x000e89    program     static D:\KennyNeutron\HUB12\20190520_HUB12_SCROLL\HUB12_SCROLL.ASM
                   IGRP_D   0x000e8e    program     static D:\KennyNeutron\HUB12\20190520_HUB12_SCROLL\HUB12_SCROLL.ASM
         ISHIFT_DOWN_GRPA   0x000e91    program     static D:\KennyNeutron\HUB12\20190520_HUB12_SCROLL\HUB12_SCROLL.ASM
         ISHIFT_DOWN_GRPB   0x000eb8    program     static D:\KennyNeutron\HUB12\20190520_HUB12_SCROLL\HUB12_SCROLL.ASM
         ISHIFT_DOWN_GRPC   0x000edf    program     static D:\KennyNeutron\HUB12\20190520_HUB12_SCROLL\HUB12_SCROLL.ASM
         ISHIFT_DOWN_GRPD   0x000f06    program     static D:\KennyNeutron\HUB12\20190520_HUB12_SCROLL\HUB12_SCROLL.ASM
                   SCRL_A   0x000f2d    program     static D:\KennyNeutron\HUB12\20190520_HUB12_SCROLL\HUB12_SCROLL.ASM
                   SCRL_B   0x000f36    program     static D:\KennyNeutron\HUB12\20190520_HUB12_SCROLL\HUB12_SCROLL.ASM
                   SCRL_C   0x000f3f    program     static D:\KennyNeutron\HUB12\20190520_HUB12_SCROLL\HUB12_SCROLL.ASM
                   SCRL_D   0x000f48    program     static D:\KennyNeutron\HUB12\20190520_HUB12_SCROLL\HUB12_SCROLL.ASM


