MPASM  5.51                 HUB12_SCROLL3.ASM   5-30-2019  14:22:53         PAGE  1


LOC  OBJECT CODE     LINE SOURCE TEXT
  VALUE

                      00001 ;**********************************************************************
                      00002 ;                                                                     *
                      00003 ;    Filename:      HUB12_FONTSCROLL.asm                              *
                      00004 ;    Date:          2019.20.05                                        *
                      00005 ;    File Version:                                                    *
                      00006 ;                                                                     *
                      00007 ;    Author:                                                          *
                      00008 ;    Company:      GER-PER ENGINEERING                                *
                      00009 ;                                                                     * 
                      00010 ;                                                                     *
                      00011 ;**********************************************************************
                      00012 ;                                                                     *
                      00013 ;    Files Required: P16F690.INC                                      *
                      00014 ;                                                                     *
                      00015 ;**********************************************************************
                      00016 
                      00017 
                      00018 
                      00019 
                      00020         list            p=16f690                ; list directive to define processor
                      00021         #include        <P16F690.inc>           ; processor specific variable definitions
                      00001         LIST
                      00002 
                      00003 ;==========================================================================
                      00004 ;  MPASM PIC16F690 processor include
                      00005 ; 
                      00006 ;  (c) Copyright 1999-2013 Microchip Technology, All rights reserved
                      00007 ;==========================================================================
                      00008 
                      00756         LIST
                      00022         
2007   30C2           00023         __CONFIG    _CP_OFF & _CPD_OFF & _BOR_OFF & _PWRTE_ON & _WDT_OFF & _HS_OSC & _MCLRE_OFF & _FCMEN
                            _OFF & _IESO_OFF
                      00024 
                      00025 
                      00026 ; '__CONFIG' directive is used to embed configuration data within .asm file.
                      00027 ; The labels following the directive are located in the respective .inc file.
                      00028 ; See respective data sheet for additional information on configuration word.
                      00029 
                      00030 
                      00031 
                      00032 
                      00033 
                      00034 
                      00035 ;***** VARIABLE DEFINITIONS
  0000007D            00036 w_temp          EQU     0x7D                    ; variable used for context saving
  0000007E            00037 status_temp     EQU     0x7E                    ; variable used for context saving
  0000007F            00038 pclath_temp     EQU     0x7F                    ; variable used for context saving
                      00039         
                      00040 
                      00041         ;#DEFINE C0_ON          BSF PORTC,      0       PORTC0=====>HI
                      00042         ;#DEFINE C0_OFF         BCF PORTC,      0       PORTC0=====>LO
                      00043 
MPASM  5.51                 HUB12_SCROLL3.ASM   5-30-2019  14:22:53         PAGE  2


LOC  OBJECT CODE     LINE SOURCE TEXT
  VALUE

                      00044         #DEFINE A_ON            BSF     PORTC,  0
                      00045         #DEFINE A_OFF           BCF     PORTC,  0
                      00046         
                      00047         #DEFINE B_ON            BSF     PORTC,  1
                      00048         #DEFINE B_OFF           BCF     PORTC,  1
                      00049 
                      00050         #DEFINE DAT_ON          BSF     PORTC,  7
                      00051         #DEFINE DAT_OFF         BCF     PORTC,  7
                      00052 
                      00053         #DEFINE CLK_ON          BSF     PORTB,  6
                      00054         #DEFINE CLK_OFF         BCF     PORTB,  6
                      00055         
                      00056         #DEFINE REG_ON          BSF     PORTC,  4
                      00057         #DEFINE REG_OFF         BCF     PORTC,  4
                      00058         
                      00059         #DEFINE OE_ON           BSF     PORTC,  5
                      00060         #DEFINE OE_OFF          BCF     PORTC,  5
                      00061 
                      00062 
                      00063         #DEFINE BANK0           BANKSEL PORTA
                      00064         #DEFINE BANK1           BANKSEL ADRESL
                      00065         
                      00066 
                      00067         CBLOCK 0x20
                      00068 
  00000020            00069                         DELAYUS, DELAYMS, DELAYS, MILSEC, SEC   ;DELAY VARIABLES
                      00070                         ;=======================================================
                      00071                         
  00000025            00072                         COUNT0, COUNT1,COUNT2,COUNT3
                      00073                         
  00000029            00074                         VAR0
  0000002A            00075                         TEMPFILE, FONT
  0000002C            00076                         DRAM : .64, POINTER
                      00077                         ;========================================================
                      00078 
                      00079 
  0000006D            00080                         SHCNT,COUNT4
  0000006F            00081                         CURSORX,CURSORY,GRP
  00000072            00082                         TESTER
  00000073            00083                         NUMBER,BTCOUNT,WIDTH,TALL
  00000077            00084                         ROW,PT
  00000079            00085                         TEMPFILEB,TEMPFILEC,TEMPFILED,LOOP
                      00086 
                      00087         ENDC
                      00088 
                      00089         CBLOCK 0XA0
                      00090 
  000000A0            00091                         IRAM : .64
  000000E0            00092                         IPOINTER,IWIDTH
  000000E2            00093                         ICOUNT,ITESTER,ICURSORX,ISHCNT,IROW,IPT
                      00094 
  000000E8            00095                         ONES,TENS,HUNDREDS,THOUSANDS
                      00096         ENDC
MPASM  5.51                 HUB12_SCROLL3.ASM   5-30-2019  14:22:53         PAGE  3


LOC  OBJECT CODE     LINE SOURCE TEXT
  VALUE

                      00097 ;********************************************************************** 
0000                  00098         ORG             0x000                           ; processor reset vector
                      00099 
0000   2810           00100         GOTO    INIT                            ; go to beginning of program    
                      00101 
0004                  00102         ORG             0x004                           ; interrupt vector location
0004   00FD           00103         movwf           w_temp                  ; save off current W register contents
0005   0803           00104         movf            STATUS,w                ; move status register into W register
0006   00FE           00105         movwf           status_temp             ; save off contents of STATUS register
0007   080A           00106         movf            PCLATH,w                ; move pclath register into W register
0008   00FF           00107         movwf           pclath_temp             ; save off contents of PCLATH register
                      00108 
                      00109 
                      00110 ; isr code can go here or be located as a call subroutine elsewhere
                      00111 
0009   087F           00112         movf            pclath_temp,w           ; retrieve copy of PCLATH registerz`
000A   008A           00113         movwf           PCLATH                  ; restore pre-isr PCLATH register contents      
000B   087E           00114         movf            status_temp,w           ; retrieve copy of STATUS register
000C   0083           00115         movwf           STATUS                  ; restore pre-isr STATUS register contents
000D   0EFD           00116         swapf           w_temp,f
000E   0E7D           00117         swapf           w_temp,w                ; restore pre-isr W register contents
000F   0009           00118         retfie                                  ; return from interrupt
                      00119 
                      00120 
                      00121 ;$$$$$$$$$$$$$$$$$$$$$  INITIALIZE      $$$$$$$$$$$$$$$$$$$$$$$$$$$$$$$$$
                      00122 
                      00123 ;DECLARE PORTC AS OUTPUT HERE:
0010                  00124 INIT
                      00125 
                      00126 
Warning[205]: Found directive in column 1. (BANKSEL)
0010   1283 1703      00127 BANKSEL ANSEL
                      00128 
Warning[203]: Found opcode in column 1. (MOVLW)
0012   3000           00129 MOVLW   B'00000000'
Warning[203]: Found opcode in column 1. (MOVWF)
Message[302]: Register in operand not in bank 0.  Ensure that bank bits are correct.
0013   009E           00130 MOVWF   ANSEL
                      00131 
Warning[203]: Found opcode in column 1. (MOVWF)
Message[302]: Register in operand not in bank 0.  Ensure that bank bits are correct.
0014   009F           00132 MOVWF   ANSELH
                      00133 
Warning[203]: Found opcode in column 1. (MOVLW)
0015   3000           00134 MOVLW   B'00000000'
Warning[203]: Found opcode in column 1. (TRIS)
Warning[224]: Use of this instruction is not recommended.
0016   0067           00135 TRIS    PORTC
                      00136 
Warning[203]: Found opcode in column 1. (MOVLW)
0017   3000           00137 MOVLW   B'00000000'
Warning[203]: Found opcode in column 1. (TRIS)
Warning[224]: Use of this instruction is not recommended.
MPASM  5.51                 HUB12_SCROLL3.ASM   5-30-2019  14:22:53         PAGE  4


LOC  OBJECT CODE     LINE SOURCE TEXT
  VALUE

0018   0066           00138 TRIS    PORTB
                      00139 
Warning[205]: Found directive in column 1. (BANKSEL)
0019   1283 1303      00140 BANKSEL PORTA   
                      00141 ;===================================================
                      00142  
                      00143 
                      00144 
                      00145 
                      00146 
                      00147 
Warning[203]: Found opcode in column 1. (CALL)
001B   2148           00148 CALL    CLRAM
Warning[203]: Found opcode in column 1. (CALL)
001C   2174           00149 CALL    CLR_IRAM
                      00150 
                      00151         
                      00152 
                      00153 
Warning[203]: Found opcode in column 1. (GOTO)
001D   281E           00154 GOTO    MAIN
                      00155 ;$$$$$$$$$$$$$$$$$$$$$$$$$$$$$$$$$$$$$$$$$$$$$$$$$$$$$$$$$$$$$$$$$$$$
                      00156 
                      00157 
                      00158 
                      00159 
                      00160 
                      00161 
                      00162 ;#######################        MAIN    #################################
001E                  00163 MAIN
                      00164         
001E   1283 1303      00165         BANK0
0020   3002           00166         MOVLW   2
0021   00AB           00167         MOVWF   FONT
                      00168 
0022   3001           00169         MOVLW   1
0023   00F3           00170         MOVWF   NUMBER
                      00171 
0024   300A           00172         MOVLW   .10
0025   00EF           00173         MOVWF   CURSORX
                      00174 
0026   3000           00175         MOVLW   0
0027   00F0           00176         MOVWF   CURSORY
                      00177 
0028   300A           00178         MOVLW   .10
0029   008A           00179         MOVWF   PCLATH
                      00180         
Message[306]: Crossing page boundary -- ensure page bits are set.
002A   226B           00181         CALL    PUTNUM
                      00182 
                      00183 
                      00184 
                      00185 ;--------------------------------
MPASM  5.51                 HUB12_SCROLL3.ASM   5-30-2019  14:22:53         PAGE  5


LOC  OBJECT CODE     LINE SOURCE TEXT
  VALUE

002B   3001           00186         MOVLW   1
002C   008A           00187         MOVWF   PCLATH
                      00188         
002D   2107           00189         CALL    DISPLAY
                      00190         
002E   2148           00191         CALL    CLRAM
002F   3000           00192         MOVLW   0
0030   008A           00193         MOVWF   PCLATH
                      00194 
Warning[203]: Found opcode in column 1. (GOTO)
0031   281E           00195 GOTO MAIN
                      00196 ;####################################################################
                      00197 
                      00198 
                      00199 
Warning[205]: Found directive in column 1. (ORG)
0100                  00200 ORG 0X100
                      00201 ;-------------------
0100                  00202 DISP
0100   300A           00203         MOVLW   .10
0101   00EE           00204         MOVWF   COUNT4
0102                  00205 DISP0
0102   2107           00206         CALL    DISPLAY
0103   0BEE           00207         DECFSZ  COUNT4,F
0104   2902           00208         GOTO    DISP0
0105   1287           00209         OE_OFF
Warning[203]: Found opcode in column 1. (RETURN)
0106   0008           00210 RETURN
                      00211 ;-------------------
                      00212 
                      00213 ;#########################      DISPLAY ############################
0107                  00214 DISPLAY
                      00215 
0107   3010           00216         MOVLW           .16
0108   00EC           00217         MOVWF           POINTER
0109   302C           00218         MOVLW           .44
010A   0084           00219         MOVWF           FSR
                      00220 
010B                  00221 DSP0
010B   2132           00222         CALL            DATALATCH
010C   0A84           00223         INCF            FSR, F
010D   0BEC           00224         DECFSZ          POINTER, F
010E   290B           00225         GOTO            DSP0
                      00226 
010F   1407           00227         A_ON
0110   1487           00228         B_ON
0111   1687           00229         OE_ON
0112   215C           00230         CALL            DELAY_ONEMS
                      00231 
                      00232 
0113   3010           00233         MOVLW           .16
0114   00EC           00234         MOVWF           POINTER
                      00235 
MPASM  5.51                 HUB12_SCROLL3.ASM   5-30-2019  14:22:53         PAGE  6


LOC  OBJECT CODE     LINE SOURCE TEXT
  VALUE

0115                  00236 DSP1
0115   2132           00237         CALL            DATALATCH
0116   0A84           00238         INCF            FSR, F
0117   0BEC           00239         DECFSZ          POINTER, F
0118   2915           00240         GOTO            DSP1
                      00241 
0119   1007           00242         A_OFF
011A   1487           00243         B_ON
011B   1687           00244         OE_ON
011C   215C           00245         CALL            DELAY_ONEMS
                      00246 
011D   3010           00247         MOVLW           .16
011E   00EC           00248         MOVWF           POINTER
                      00249 
011F                  00250 DSP2
011F   2132           00251         CALL            DATALATCH
0120   0A84           00252         INCF            FSR, F
0121   0BEC           00253         DECFSZ          POINTER, F
0122   291F           00254         GOTO            DSP2
                      00255 
0123   1407           00256         A_ON
0124   1087           00257         B_OFF
0125   1687           00258         OE_ON
0126   215C           00259         CALL            DELAY_ONEMS
                      00260 
0127   3010           00261         MOVLW           .16
0128   00EC           00262         MOVWF           POINTER
                      00263 
0129                  00264 DSP3
0129   2132           00265         CALL            DATALATCH
012A   0A84           00266         INCF            FSR, F
012B   0BEC           00267         DECFSZ          POINTER, F
012C   2929           00268         GOTO            DSP3
                      00269 
012D   1007           00270         A_OFF
012E   1087           00271         B_OFF
012F   1687           00272         OE_ON
0130   215C           00273         CALL            DELAY_ONEMS
                      00274 
Warning[203]: Found opcode in column 1. (RETURN)
0131   0008           00275 RETURN
                      00276 ;##########################################################
                      00277 
                      00278 ;============   DATA    LATCH   ===========================
0132                  00279 DATALATCH
0132   1306           00280         CLK_OFF
0133   1207           00281         REG_OFF
0134   1287           00282         OE_OFF
0135   0800           00283         MOVF            INDF,W
0136   00A9           00284         MOVWF           VAR0
0137   3008           00285         MOVLW   .8
0138   00A5           00286         MOVWF   COUNT0  
                      00287 
MPASM  5.51                 HUB12_SCROLL3.ASM   5-30-2019  14:22:53         PAGE  7


LOC  OBJECT CODE     LINE SOURCE TEXT
  VALUE

0139                  00288 DL0
0139   0DA9           00289         RLF VAR0,F      ; Rotate "Var" one place to the left
013A   1C03           00290         BTFSS STATUS,C  ; Is carry 1?
013B   293D           00291         GOTO    D0
013C   293F           00292         GOTO    D1
                      00293 
013D                  00294 D0
013D   1387           00295         DAT_OFF
013E   2941           00296         GOTO DL1
013F                  00297 D1
013F   1787           00298         DAT_ON
0140   2941           00299         GOTO DL1
                      00300         
0141                  00301 DL1
0141   1706           00302         CLK_ON
0142   1306           00303         CLK_OFF
0143   0BA5           00304         DECFSZ  COUNT0,F
0144   2939           00305         GOTO    DL0
0145   1607           00306         REG_ON
0146   1207           00307         REG_OFF 
                      00308         
                      00309 
Warning[203]: Found opcode in column 1. (RETURN)
0147   0008           00310 RETURN
                      00311 ;==========================================================
                      00312 
                      00313 ;=======================        CLEAR   RAM             ===============
0148                  00314 CLRAM
0148   3040           00315         MOVLW           .64
0149   00EC           00316         MOVWF           POINTER
014A   302C           00317         MOVLW           DRAM
014B   0084           00318         MOVWF           FSR
                      00319 
014C                  00320 DRM0
014C   30FF           00321         MOVLW           0XFF
014D   0080           00322         MOVWF           INDF
014E   3000           00323         MOVLW           INDF
                      00324         
014F   0A84           00325         INCF            FSR, F
0150   0BEC           00326         DECFSZ          POINTER, F
0151   294C           00327         GOTO            DRM0
                      00328 
0152   2132           00329         CALL            DATALATCH
                      00330          
0153   0008           00331         RETURN
                      00332 ;==========================================================
                      00333 
                      00334 
                      00335 ;==========     DELAY USEC =========
0154                  00336 DELAY_US
                      00337 
0154   00A0           00338         MOVWF   DELAYUS
                      00339 
MPASM  5.51                 HUB12_SCROLL3.ASM   5-30-2019  14:22:53         PAGE  8


LOC  OBJECT CODE     LINE SOURCE TEXT
  VALUE

0155                  00340 USEC
                      00341 
0155   0000           00342         NOP
0156   0000           00343         NOP
0157   0000           00344         NOP
0158   0000           00345         NOP
Warning[203]: Found opcode in column 1. (DECFSZ)
0159   0BA0           00346 DECFSZ  DELAYUS,F
                      00347 
Warning[203]: Found opcode in column 1. (GOTO)
015A   2955           00348 GOTO    USEC
                      00349 
Warning[203]: Found opcode in column 1. (RETURN)
015B   0008           00350 RETURN
                      00351 ;=================================
                      00352 
                      00353 
                      00354 
                      00355 ;=========== DELAY ONE MS ========
015C                  00356 DELAY_ONEMS
                      00357 
015C   3005           00358         MOVLW   .5
015D   00A3           00359         MOVWF   MILSEC
                      00360 
015E                  00361 MSEC
015E   30C8           00362         MOVLW   .200
015F   2154           00363         CALL    DELAY_US
0160   0BA3           00364         DECFSZ  MILSEC,F
0161   295E           00365         GOTO    MSEC
                      00366 
Warning[203]: Found opcode in column 1. (RETURN)
0162   0008           00367 RETURN
                      00368 ;==================================
                      00369 
                      00370 
                      00371 ;=========== DELAY MS   ==========
0163                  00372 DELAY_MS
                      00373         
0163   00A1           00374         MOVWF   DELAYMS
0164                  00375 MSEC0
0164   215C           00376         CALL    DELAY_ONEMS
0165   0BA1           00377         DECFSZ  DELAYMS,F
0166   2964           00378         GOTO    MSEC0
Warning[203]: Found opcode in column 1. (RETURN)
0167   0008           00379 RETURN
                      00380 ;=================================
                      00381 
                      00382 ;=========== DELAY      ONE     SECOND ===
0168                  00383 DELAY_ONESEC
                      00384 
0168   3005           00385         MOVLW   .5
0169   00A4           00386         MOVWF   SEC
016A                  00387 SEC0
MPASM  5.51                 HUB12_SCROLL3.ASM   5-30-2019  14:22:53         PAGE  9


LOC  OBJECT CODE     LINE SOURCE TEXT
  VALUE

016A   30C8           00388         MOVLW   .200
016B   2163           00389         CALL    DELAY_MS
016C   0BA4           00390         DECFSZ  SEC,F
016D   296A           00391         GOTO    SEC0
Warning[203]: Found opcode in column 1. (RETURN)
016E   0008           00392 RETURN
                      00393 ;=================================
                      00394 
                      00395 ;==========     DELAY SEC ============
016F                  00396 DELAY_SEC
                      00397 
016F   00A2           00398         MOVWF   DELAYS
0170                  00399 SEC1
0170   2168           00400         CALL    DELAY_ONESEC
0171   0BA2           00401         DECFSZ  DELAYS,F
0172   2970           00402         GOTO    SEC1
Warning[203]: Found opcode in column 1. (RETURN)
0173   0008           00403 RETURN
                      00404 ;=================================
                      00405 
                      00406 ;############   CLEAR   IRAM  #################
0174                  00407 CLR_IRAM
                      00408         
0174   1683 1303      00409         BANK1
0176   3040           00410         MOVLW           .64
Message[302]: Register in operand not in bank 0.  Ensure that bank bits are correct.
0177   00E0           00411         MOVWF           IPOINTER
0178   30A0           00412         MOVLW           IRAM
0179   0084           00413         MOVWF           FSR
                      00414 
017A                  00415 IRM0
017A   30FF           00416         MOVLW           0XFF
017B   0080           00417         MOVWF           INDF
017C   3000           00418         MOVLW           INDF
                      00419         
017D   0A84           00420         INCF            FSR, F
Message[302]: Register in operand not in bank 0.  Ensure that bank bits are correct.
017E   0BE0           00421         DECFSZ          IPOINTER, F
017F   297A           00422         GOTO            IRM0
                      00423          
0180   0008           00424         RETURN
                      00425 
0181   3000           00426         MOVLW           0
0182   008A           00427         MOVWF           PCLATH 
                      00428 
Warning[203]: Found opcode in column 1. (RETURN)
0183   0008           00429 RETURN
                      00430 ;#################################################
                      00431 
                      00432 
                      00433 
                      00434 ;#################      CUTTING CHARACTERS FROM BOT ##################
0184                  00435 SLICEB
MPASM  5.51                 HUB12_SCROLL3.ASM   5-30-2019  14:22:53         PAGE 10


LOC  OBJECT CODE     LINE SOURCE TEXT
  VALUE

0184   301F           00436         MOVLW           0X1F
0185   0084           00437         MOVWF           FSR
                      00438 
0186                  00439 SLB0
0186   3004           00440         MOVLW           .4
0187   00EC           00441         MOVWF           POINTER
                      00442                         
0188   300D           00443         MOVLW           0XD
Message[305]: Using default destination of 1 (file).
0189   0784           00444         ADDWF           FSR
                      00445 
018A                  00446 SLB1
018A   30FF           00447         MOVLW           0XFF
018B   0080           00448         MOVWF           INDF
018C   3000           00449         MOVLW           INDF
                      00450 
018D   3010           00451         MOVLW           0X10
Message[305]: Using default destination of 1 (file).
018E   0784           00452         ADDWF           FSR
018F   0BF6           00453         DECFSZ          TALL,F
0190   2992           00454         GOTO            SLB2
0191   0008           00455         RETURN          ;EXIT IF ZERO
                      00456 
0192                  00457 SLB2
0192   0BEC           00458         DECFSZ          POINTER,F
0193   298A           00459         GOTO            SLB1
0194   304C           00460         MOVLW           0X4C
Message[305]: Using default destination of 1 (file).
0195   0284           00461         SUBWF           FSR
0196   2986           00462         GOTO            SLB0
                      00463 
Warning[203]: Found opcode in column 1. (RETURN)
0197   0008           00464 RETURN
                      00465 ;#################################################################
                      00466 
                      00467 
                      00468 
                      00469 ;#################      CUTTING CHARACTERS FROM TOP ##################
0198                  00470 SLICET
0198   306C           00471         MOVLW           0X6C
0199   0084           00472         MOVWF           FSR
                      00473         
019A                  00474 SLT0
019A   3004           00475         MOVLW           .4
019B   00EC           00476         MOVWF           POINTER
019C   300D           00477         MOVLW           0XD
Message[305]: Using default destination of 1 (file).
019D   0284           00478         SUBWF           FSR
                      00479 
019E                  00480 SLT1
019E   30FF           00481         MOVLW           0XFF
019F   0080           00482         MOVWF           INDF
01A0   3000           00483         MOVLW           INDF
MPASM  5.51                 HUB12_SCROLL3.ASM   5-30-2019  14:22:53         PAGE 11


LOC  OBJECT CODE     LINE SOURCE TEXT
  VALUE

                      00484         
01A1   3010           00485         MOVLW           0X10
Message[305]: Using default destination of 1 (file).
01A2   0284           00486         SUBWF           FSR
01A3   0BF6           00487         DECFSZ          TALL,F
01A4   29A6           00488         GOTO            SLT2
01A5   0008           00489         RETURN          ;EXIT IF ZERO
                      00490 
01A6                  00491 SLT2
01A6   0BEC           00492         DECFSZ          POINTER,F
01A7   299E           00493         GOTO            SLT1
01A8   304C           00494         MOVLW           0X4C
Message[305]: Using default destination of 1 (file).
01A9   0784           00495         ADDWF           FSR
01AA   299A           00496         GOTO            SLT0
                      00497         
                      00498 
Warning[203]: Found opcode in column 1. (RETURN)
01AB   0008           00499 RETURN
                      00500 ;#################################################################
                      00501 
                      00502 
                      00503 
                      00504 
01AC                  00505 CHAR
                      00506 
                      00507 
                      00508 
01AC   0873           00509         MOVFW   NUMBER
01AD   0782           00510         ADDWF   PCL,F
                      00511 
01AE   29BA           00512         GOTO    ZERO
                      00513 
01AF   29CF           00514         GOTO    ONE
                      00515 
01B0   29E2           00516         GOTO    TWO
                      00517 
01B1   0000           00518         NOP
01B2   0000           00519         NOP
01B3   0000           00520         NOP
01B4   0000           00521         NOP
01B5   0000           00522         NOP
01B6   0000           00523         NOP
01B7   0000           00524         NOP
                      00525 
Message[305]: Using default destination of 1 (file).
01B8   0A8A           00526         INCF    PCLATH
01B9   2A00           00527         GOTO    CHARB
                      00528 
                      00529 
                      00530 
                      00531 
                      00532 
MPASM  5.51                 HUB12_SCROLL3.ASM   5-30-2019  14:22:53         PAGE 12


LOC  OBJECT CODE     LINE SOURCE TEXT
  VALUE

Warning[207]: Found label after column 1. (ZERO)
01BA                  00533         ZERO
01BA   0874           00534                         MOVFW   BTCOUNT
01BB   0782           00535                         ADDWF   PCL, F
                      00536 
01BC   3408           00537                         DT      8
01BD   34C7           00538                         DT      B'11000111'
01BE   3483           00539                         DT      B'10000011'
01BF   3411           00540                         DT      B'00010001'
01C0   3439           00541                         DT      B'00111001'
01C1   3439           00542                         DT      B'00111001'
01C2   3439           00543                         DT      B'00111001'
01C3   3439           00544                         DT      B'00111001'
01C4   3439           00545                         DT      B'00111001'
01C5   3439           00546                         DT      B'00111001'
01C6   3439           00547                         DT      B'00111001'
01C7   3439           00548                         DT      B'00111001'
01C8   3439           00549                         DT      B'00111001'
01C9   3439           00550                         DT      B'00111001'
01CA   3411           00551                         DT      B'00010001'
01CB   3483           00552                         DT      B'10000011'
01CC   34C7           00553                         DT      B'11000111'
01CD   3000           00554                         MOVLW   .0
01CE   008A           00555                         MOVWF   PCLATH
                      00556 
Warning[207]: Found label after column 1. (ONE)
01CF                  00557         ONE
01CF   0874           00558                         MOVFW   BTCOUNT
01D0   0782           00559                         ADDWF   PCL, F
                      00560 
01D1   3407           00561                         DT      7
01D2   34CF           00562                         DT      B'11001111'
01D3   34CF           00563                         DT      B'11001111'
01D4   348F           00564                         DT      B'10001111'
01D5   340F           00565                         DT      B'00001111'
01D6   344F           00566                         DT      B'01001111'
01D7   34CF           00567                         DT      B'11001111'
01D8   34CF           00568                         DT      B'11001111'
01D9   34CF           00569                         DT      B'11001111'
01DA   34CF           00570                         DT      B'11001111'
01DB   34CF           00571                         DT      B'11001111'
01DC   34CF           00572                         DT      B'11001111'
01DD   34CF           00573                         DT      B'11001111'
01DE   34CF           00574                         DT      B'11001111'
01DF   34CF           00575                         DT      B'11001111'
01E0   3403           00576                         DT      B'00000011'
01E1   3403           00577                         DT      B'00000011'
                      00578 
Warning[207]: Found label after column 1. (TWO)
01E2                  00579         TWO
01E2   0874           00580                         MOVFW   BTCOUNT
01E3   0782           00581                         ADDWF   PCL, F
                      00582 
MPASM  5.51                 HUB12_SCROLL3.ASM   5-30-2019  14:22:53         PAGE 13


LOC  OBJECT CODE     LINE SOURCE TEXT
  VALUE

01E4   3408           00583                         DT      8
01E5   3487           00584                         DT      B'10000111'
01E6   3403           00585                         DT      B'00000011'
01E7   3431           00586                         DT      B'00110001'
01E8   34F9           00587                         DT      B'11111001'
01E9   34F9           00588                         DT      B'11111001'
01EA   34F9           00589                         DT      B'11111001'
01EB   34F9           00590                         DT      B'11111001'
01EC   34F1           00591                         DT      B'11110001'
01ED   3483           00592                         DT      B'10000011'
01EE   3407           00593                         DT      B'00000111'
01EF   343F           00594                         DT      B'00111111'
01F0   343D           00595                         DT      B'00111101'
01F1   3439           00596                         DT      B'00111001'
01F2   3439           00597                         DT      B'00111001'
01F3   3401           00598                         DT      B'00000001'
01F4   3401           00599                         DT      B'00000001'
                      00600 
Warning[205]: Found directive in column 1. (ORG)
0200                  00601 ORG 0X200
0200                  00602 CHARB
                      00603 
                      00604 
                      00605 
0200   0873           00606         MOVFW   NUMBER
0201   0782           00607         ADDWF   PCL,F
                      00608 
                      00609 
0202   0008           00610         RETURN
                      00611 
0203   0008           00612         RETURN
                      00613 
0204   0008           00614         RETURN
                      00615 
0205   2A0C           00616         GOTO    THREE
                      00617         
0206   2A1F           00618         GOTO    FOUR
                      00619         
0207   2A32           00620         GOTO    FIVE
                      00621         
0208   2A45           00622         GOTO    SIX
                      00623         
0209   2A58           00624         GOTO    SEVEN
                      00625 
020A   2A6B           00626         GOTO    EIGHT
                      00627 
020B   2A7E           00628         GOTO    NINE
                      00629                                 
                      00630 
Warning[207]: Found label after column 1. (THREE)
020C                  00631         THREE
020C   0874           00632                         MOVFW   BTCOUNT
020D   0782           00633                         ADDWF   PCL, F
MPASM  5.51                 HUB12_SCROLL3.ASM   5-30-2019  14:22:53         PAGE 14


LOC  OBJECT CODE     LINE SOURCE TEXT
  VALUE

                      00634 
020E   3408           00635                         DT      8
020F   3487           00636                         DT      B'10000111'
0210   3403           00637                         DT      B'00000011'
0211   3431           00638                         DT      B'00110001'
0212   34F9           00639                         DT      B'11111001'
0213   34F9           00640                         DT      B'11111001'
0214   34F9           00641                         DT      B'11111001'
0215   34F1           00642                         DT      B'11110001'
0216   34C3           00643                         DT      B'11000011'
0217   34C3           00644                         DT      B'11000011'
0218   34F1           00645                         DT      B'11110001'
0219   34F9           00646                         DT      B'11111001'
021A   34F9           00647                         DT      B'11111001'
021B   34F9           00648                         DT      B'11111001'
021C   3431           00649                         DT      B'00110001'
021D   3403           00650                         DT      B'00000011'
021E   3487           00651                         DT      B'10000111'
                      00652                         
                      00653 
Warning[207]: Found label after column 1. (FOUR)
021F                  00654         FOUR
021F   0874           00655                         MOVFW   BTCOUNT
0220   0782           00656                         ADDWF   PCL, F
                      00657 
0221   3408           00658                         DT      8
0222   34FD           00659                         DT      B'11111101'
0223   34F9           00660                         DT      B'11111001'
0224   34E9           00661                         DT      B'11101001'
0225   34C9           00662                         DT      B'11001001'
0226   34C9           00663                         DT      B'11001001'
0227   34C9           00664                         DT      B'11001001'
0228   3499           00665                         DT      B'10011001'
0229   3439           00666                         DT      B'00111001'
022A   3401           00667                         DT      B'00000001'
022B   3401           00668                         DT      B'00000001'
022C   34F9           00669                         DT      B'11111001'
022D   34F9           00670                         DT      B'11111001'
022E   34F9           00671                         DT      B'11111001'
022F   34F9           00672                         DT      B'11111001'
0230   34F9           00673                         DT      B'11111001'
0231   34FB           00674                         DT      B'11111011'
                      00675 
Warning[207]: Found label after column 1. (FIVE)
0232                  00676         FIVE
0232   0874           00677                         MOVFW   BTCOUNT
0233   0782           00678                         ADDWF   PCL, F
                      00679 
0234   3408           00680                         DT      8
0235   3401           00681                         DT      B'00000001'
0236   3401           00682                         DT      B'00000001'
0237   3439           00683                         DT      B'00111001'
0238   343B           00684                         DT      B'00111011'
MPASM  5.51                 HUB12_SCROLL3.ASM   5-30-2019  14:22:53         PAGE 15


LOC  OBJECT CODE     LINE SOURCE TEXT
  VALUE

0239   343F           00685                         DT      B'00111111'
023A   343F           00686                         DT      B'00111111'
023B   343F           00687                         DT      B'00111111'
023C   3407           00688                         DT      B'00000111'
023D   3403           00689                         DT      B'00000011'
023E   34F1           00690                         DT      B'11110001'
023F   34F9           00691                         DT      B'11111001'
0240   34F9           00692                         DT      B'11111001'
0241   34F9           00693                         DT      B'11111001'
0242   34F1           00694                         DT      B'11110001'
0243   3403           00695                         DT      B'00000011'
0244   3407           00696                         DT      B'00000111'
                      00697 
                      00698 
Warning[207]: Found label after column 1. (SIX)
0245                  00699         SIX
0245   0874           00700                         MOVFW   BTCOUNT
0246   0782           00701                         ADDWF   PCL, F
                      00702 
0247   3408           00703                         DT      8
0248   34C7           00704                         DT      B'11000111'
0249   3483           00705                         DT      B'10000011'
024A   3411           00706                         DT      B'00010001'
024B   3439           00707                         DT      B'00111001'
024C   343F           00708                         DT      B'00111111'
024D   343F           00709                         DT      B'00111111'
024E   343F           00710                         DT      B'00111111'
024F   3427           00711                         DT      B'00100111'
0250   3403           00712                         DT      B'00000011'
0251   3411           00713                         DT      B'00010001'
0252   3439           00714                         DT      B'00111001'
0253   3439           00715                         DT      B'00111001'
0254   3439           00716                         DT      B'00111001'
0255   3411           00717                         DT      B'00010001'
0256   3483           00718                         DT      B'10000011'
0257   34C7           00719                         DT      B'11000111'
                      00720 
Warning[207]: Found label after column 1. (SEVEN)
0258                  00721         SEVEN   
0258   0874           00722                         MOVFW   BTCOUNT
0259   0782           00723                         ADDWF   PCL, F
                      00724 
025A   3408           00725                         DT      8       
025B   3401           00726                         DT      B'00000001'
025C   3401           00727                         DT      B'00000001'
025D   3439           00728                         DT      B'00111001'
025E   3439           00729                         DT      B'00111001'
025F   34F9           00730                         DT      B'11111001'
0260   34F9           00731                         DT      B'11111001'
0261   34F9           00732                         DT      B'11111001'
0262   34F3           00733                         DT      B'11110011'
0263   34E7           00734                         DT      B'11100111'
0264   34CF           00735                         DT      B'11001111'
MPASM  5.51                 HUB12_SCROLL3.ASM   5-30-2019  14:22:53         PAGE 16


LOC  OBJECT CODE     LINE SOURCE TEXT
  VALUE

0265   34CF           00736                         DT      B'11001111'
0266   34CF           00737                         DT      B'11001111'
0267   34CF           00738                         DT      B'11001111'
0268   34CF           00739                         DT      B'11001111'
0269   34CF           00740                         DT      B'11001111'
026A   34CF           00741                         DT      B'11001111'
                      00742                                 
Warning[207]: Found label after column 1. (EIGHT)
026B                  00743         EIGHT
026B   0874           00744                         MOVFW   BTCOUNT
026C   0782           00745                         ADDWF   PCL, F
                      00746 
026D   3408           00747                         DT      8
026E   34C7           00748                         DT      B'11000111'
026F   3483           00749                         DT      B'10000011'
0270   3411           00750                         DT      B'00010001'
0271   3439           00751                         DT      B'00111001'
0272   3439           00752                         DT      B'00111001'
0273   3439           00753                         DT      B'00111001'
0274   3493           00754                         DT      B'10010011'
0275   34C7           00755                         DT      B'11000111'
0276   3483           00756                         DT      B'10000011'
0277   3411           00757                         DT      B'00010001'
0278   3439           00758                         DT      B'00111001'
0279   3439           00759                         DT      B'00111001'
027A   3439           00760                         DT      B'00111001'
027B   3411           00761                         DT      B'00010001'
027C   3483           00762                         DT      B'10000011'
027D   34C7           00763                         DT      B'11000111'
                      00764 
Warning[207]: Found label after column 1. (NINE)
027E                  00765         NINE
027E   0874           00766                         MOVFW   BTCOUNT
027F   0782           00767                         ADDWF   PCL, F
                      00768 
0280   3408           00769                         DT      8
0281   34C7           00770                         DT      B'11000111'
0282   3483           00771                         DT      B'10000011'
0283   3411           00772                         DT      B'00010001'
0284   3439           00773                         DT      B'00111001'
0285   3439           00774                         DT      B'00111001'
0286   3439           00775                         DT      B'00111001'
0287   3411           00776                         DT      B'00010001'
0288   3481           00777                         DT      B'10000001'
0289   34C9           00778                         DT      B'11001001'
028A   34F9           00779                         DT      B'11111001'
028B   34F9           00780                         DT      B'11111001'
028C   34F9           00781                         DT      B'11111001'
028D   3439           00782                         DT      B'00111001'
028E   3411           00783                         DT      B'00010001'
028F   3483           00784                         DT      B'10000011'
0290   34C7           00785                         DT      B'11000111'
                      00786 
MPASM  5.51                 HUB12_SCROLL3.ASM   5-30-2019  14:22:53         PAGE 17


LOC  OBJECT CODE     LINE SOURCE TEXT
  VALUE

                      00787 
                      00788 
                      00789 
                      00790 
                      00791                         
Warning[205]: Found directive in column 1. (ORG)
0300                  00792 ORG 0X300
                      00793 
                      00794 
                      00795 
                      00796         
0300                  00797 T_CHAR
                      00798                 
0300   0873           00799         MOVFW   NUMBER
0301   0782           00800         ADDWF   PCL,F
                      00801         
0302   2B0E           00802         GOTO    T_ZERO
                      00803         
0303   2B31           00804         GOTO    T_ONE
                      00805 
0304   2B54           00806         GOTO    T_TWO
                      00807 
0305   2B77           00808         GOTO    T_THREE
                      00809 
0306   2B9A           00810         GOTO    T_FOUR
                      00811 
0307   2BBD           00812         GOTO    T_FIVE
                      00813 
Warning[203]: Found opcode in column 1. (NOP)
0308   0000           00814 NOP
Warning[203]: Found opcode in column 1. (NOP)
0309   0000           00815 NOP
Warning[203]: Found opcode in column 1. (NOP)
030A   0000           00816 NOP
Warning[203]: Found opcode in column 1. (NOP)
030B   0000           00817 NOP
                      00818 
Message[305]: Using default destination of 1 (file).
030C   0A8A           00819         INCF    PCLATH
030D   2C00           00820         GOTO    T_CHARB
                      00821 
                      00822 
Warning[207]: Found label after column 1. (T_ZERO)
030E                  00823         T_ZERO
030E   0874           00824                         MOVFW   BTCOUNT
Message[305]: Using default destination of 1 (file).
030F   0782           00825                         ADDWF   PCL
                      00826 
0310   340C           00827                         DT      .12
0311   34C0 34FF      00828                         DT      B'11000000',B'11111111'
0313   3480 347F      00829                         DT      B'10000000',B'01111111'
0315   341E 343F      00830                         DT      B'00011110',B'00111111'
0317   343F 343F      00831                         DT      B'00111111',B'00111111'
MPASM  5.51                 HUB12_SCROLL3.ASM   5-30-2019  14:22:53         PAGE 18


LOC  OBJECT CODE     LINE SOURCE TEXT
  VALUE

0319   343F 343F      00832                         DT      B'00111111',B'00111111'
031B   343F 343F      00833                         DT      B'00111111',B'00111111'
031D   343F 343F      00834                         DT      B'00111111',B'00111111'
031F   343F 343F      00835                         DT      B'00111111',B'00111111';
0321   343F 343F      00836                         DT      B'00111111',B'00111111';
0323   343F 343F      00837                         DT      B'00111111',B'00111111'
0325   343F 343F      00838                         DT      B'00111111',B'00111111'
0327   343F 343F      00839                         DT      B'00111111',B'00111111'
0329   343F 343F      00840                         DT      B'00111111',B'00111111'
032B   341E 343F      00841                         DT      B'00011110',B'00111111'
032D   3480 347F      00842                         DT      B'10000000',B'01111111'
032F   34C0 34FF      00843                         DT      B'11000000',B'11111111'
                      00844 
Warning[207]: Found label after column 1. (T_ONE)
0331                  00845         T_ONE
0331   0874           00846                         MOVFW   BTCOUNT
Message[305]: Using default destination of 1 (file).
0332   0782           00847                         ADDWF   PCL
                      00848 
0333   340C           00849                         DT      .12
0334   34CF 34FF      00850                         DT      B'11001111',B'11111111'
0336   34CF 34FF      00851                         DT      B'11001111',B'11111111'
0338   348F 34FF      00852                         DT      B'10001111',B'11111111'
033A   340F 34FF      00853                         DT      B'00001111',B'11111111'
033C   344F 34FF      00854                         DT      B'01001111',B'11111111'
033E   34CF 34FF      00855                         DT      B'11001111',B'11111111'
0340   34CF 34FF      00856                         DT      B'11001111',B'11111111'
0342   34CF 34FF      00857                         DT      B'11001111',B'11111111';
0344   34CF 34FF      00858                         DT      B'11001111',B'11111111';
0346   34CF 34FF      00859                         DT      B'11001111',B'11111111'
0348   34CF 34FF      00860                         DT      B'11001111',B'11111111'
034A   34CF 34FF      00861                         DT      B'11001111',B'11111111'
034C   34CF 34FF      00862                         DT      B'11001111',B'11111111'
034E   34CF 34FF      00863                         DT      B'11001111',B'11111111'
0350   3403 34FF      00864                         DT      B'00000011',B'11111111'
0352   3403 34FF      00865                         DT      B'00000011',B'11111111' 
                      00866 
Warning[207]: Found label after column 1. (T_TWO)
0354                  00867         T_TWO
0354   0874           00868                         MOVFW   BTCOUNT
0355   0782           00869                         ADDWF   PCL,F
                      00870                         
0356   340C           00871                         DT      .12
0357   34C0 34FF      00872                         DT      B'11000000',B'11111111'
0359   3480 347F      00873                         DT      B'10000000',B'01111111'
035B   343E 343F      00874                         DT      B'00111110',B'00111111'
035D   34FF 343F      00875                         DT      B'11111111',B'00111111'
035F   34FF 343F      00876                         DT      B'11111111',B'00111111'
0361   34FF 343F      00877                         DT      B'11111111',B'00111111'
0363   34FF 343F      00878                         DT      B'11111111',B'00111111'
0365   34FE 343F      00879                         DT      B'11111110',B'00111111'
0367   34C0 347F      00880                         DT      B'11000000',B'01111111'
0369   3480 34FF      00881                         DT      B'10000000',B'11111111'
MPASM  5.51                 HUB12_SCROLL3.ASM   5-30-2019  14:22:53         PAGE 19


LOC  OBJECT CODE     LINE SOURCE TEXT
  VALUE

036B   343F 34FF      00882                         DT      B'00111111',B'11111111'
036D   343F 34FF      00883                         DT      B'00111111',B'11111111'
036F   343F 34FF      00884                         DT      B'00111111',B'11111111'
0371   343F 343F      00885                         DT      B'00111111',B'00111111'
0373   3400 343F      00886                         DT      B'00000000',B'00111111'
0375   3400 343F      00887                         DT      B'00000000',B'00111111'
                      00888         
Warning[207]: Found label after column 1. (T_THREE)
0377                  00889         T_THREE
0377   0874           00890                         MOVFW   BTCOUNT
Message[305]: Using default destination of 1 (file).
0378   0782           00891                         ADDWF   PCL
                      00892 
0379   340C           00893                         DT      .12
037A   34C0 34FF      00894                         DT      B'11000000',B'11111111'
037C   3480 347F      00895                         DT      B'10000000',B'01111111'
037E   341E 343F      00896                         DT      B'00011110',B'00111111'
0380   343F 343F      00897                         DT      B'00111111',B'00111111'
0382   34FF 343F      00898                         DT      B'11111111',B'00111111'
0384   34FF 343F      00899                         DT      B'11111111',B'00111111'
0386   34FE 343F      00900                         DT      B'11111110',B'00111111'
0388   34E0 347F      00901                         DT      B'11100000',B'01111111';
038A   34E0 347F      00902                         DT      B'11100000',B'01111111';
038C   34FE 343F      00903                         DT      B'11111110',B'00111111'
038E   34FF 343F      00904                         DT      B'11111111',B'00111111'
0390   34FF 343F      00905                         DT      B'11111111',B'00111111'
0392   343F 343F      00906                         DT      B'00111111',B'00111111'
0394   341E 343F      00907                         DT      B'00011110',B'00111111'
0396   3480 347F      00908                         DT      B'10000000',B'01111111'
0398   34C0 34FF      00909                         DT      B'11000000',B'11111111'
                      00910         
Warning[207]: Found label after column 1. (T_FOUR)
039A                  00911         T_FOUR
039A   0874           00912                         MOVFW   BTCOUNT
Message[305]: Using default destination of 1 (file).
039B   0782           00913                         ADDWF   PCL
                      00914 
039C   340C           00915                         DT      .12
039D   34FF 34BF      00916                         DT      B'11111111',B'10111111'
039F   34F9 343F      00917                         DT      B'11111001',B'00111111'
03A1   34F9 343F      00918                         DT      B'11111001',B'00111111'
03A3   34F9 343F      00919                         DT      B'11111001',B'00111111'
03A5   34F3 343F      00920                         DT      B'11110011',B'00111111'
03A7   34E7 343F      00921                         DT      B'11100111',B'00111111'
03A9   34CF 343F      00922                         DT      B'11001111',B'00111111'
03AB   349F 343F      00923                         DT      B'10011111',B'00111111';
03AD   343F 343F      00924                         DT      B'00111111',B'00111111';
03AF   343F 343F      00925                         DT      B'00111111',B'00111111'
03B1   3400 343F      00926                         DT      B'00000000',B'00111111'
03B3   3400 343F      00927                         DT      B'00000000',B'00111111'
03B5   34FF 343F      00928                         DT      B'11111111',B'00111111'
03B7   34FF 343F      00929                         DT      B'11111111',B'00111111'
03B9   34FF 343F      00930                         DT      B'11111111',B'00111111'
MPASM  5.51                 HUB12_SCROLL3.ASM   5-30-2019  14:22:53         PAGE 20


LOC  OBJECT CODE     LINE SOURCE TEXT
  VALUE

03BB   34FF 347F      00931                         DT      B'11111111',B'01111111' 
                      00932 
Warning[207]: Found label after column 1. (T_FIVE)
03BD                  00933         T_FIVE
03BD   0874           00934                         MOVFW   BTCOUNT
Message[305]: Using default destination of 1 (file).
03BE   0782           00935                         ADDWF   PCL
                      00936 
03BF   340C           00937                         DT      .12
03C0   3400 343F      00938                         DT      B'00000000',B'00111111'
03C2   3400 343F      00939                         DT      B'00000000',B'00111111'
03C4   343F 343F      00940                         DT      B'00111111',B'00111111'
03C6   343F 347F      00941                         DT      B'00111111',B'01111111'
03C8   343F 34FF      00942                         DT      B'00111111',B'11111111'
03CA   343F 34FF      00943                         DT      B'00111111',B'11111111'
03CC   343F 34FF      00944                         DT      B'00111111',B'11111111'
03CE   3400 34FF      00945                         DT      B'00000000',B'11111111';
03D0   3400 347F      00946                         DT      B'00000000',B'01111111';
03D2   34FE 343F      00947                         DT      B'11111110',B'00111111'
03D4   34FF 343F      00948                         DT      B'11111111',B'00111111'
03D6   34FF 343F      00949                         DT      B'11111111',B'00111111'
03D8   343F 343F      00950                         DT      B'00111111',B'00111111'
03DA   341E 343F      00951                         DT      B'00011110',B'00111111'
03DC   3480 347F      00952                         DT      B'10000000',B'01111111'
03DE   34C0 34FF      00953                         DT      B'11000000',B'11111111'
                      00954 
                      00955 
                      00956 
Warning[205]: Found directive in column 1. (ORG)
0400                  00957 ORG 0X400
0400                  00958 T_CHARB
                      00959 
0400   0873           00960                         MOVFW   NUMBER
0401   0782           00961                         ADDWF   PCL,F
                      00962 
0402   0008           00963                                 RETURN  
                      00964 
0403   0008           00965                                 RETURN
                      00966 
0404   0008           00967                                 RETURN
                      00968 
0405   0008           00969                                 RETURN
                      00970 
0406   0008           00971                                 RETURN
                      00972 
0407   0008           00973                                 RETURN
                      00974                                 
0408   2C0C           00975                                 GOTO    T_SIX
                      00976         
0409   2C2F           00977                                 GOTO    T_SEVEN
                      00978                 
040A   2C52           00979                                 GOTO    T_EIGHT
                      00980                 
MPASM  5.51                 HUB12_SCROLL3.ASM   5-30-2019  14:22:53         PAGE 21


LOC  OBJECT CODE     LINE SOURCE TEXT
  VALUE

040B   2C75           00981                                 GOTO    T_NINE
                      00982 
                      00983 
                      00984                         
Warning[207]: Found label after column 1. (T_SIX)
040C                  00985         T_SIX
040C   0874           00986                         MOVFW   BTCOUNT
Message[305]: Using default destination of 1 (file).
040D   0782           00987                         ADDWF   PCL
                      00988 
040E   340C           00989                         DT      .12
040F   34C0 347F      00990                         DT      B'11000000',B'01111111'
0411   3480 343F      00991                         DT      B'10000000',B'00111111'
0413   341E 343F      00992                         DT      B'00011110',B'00111111'
0415   343F 343F      00993                         DT      B'00111111',B'00111111'
0417   343F 34FF      00994                         DT      B'00111111',B'11111111'
0419   343F 34FF      00995                         DT      B'00111111',B'11111111'
041B   341F 34FF      00996                         DT      B'00011111',B'11111111'
041D   3400 34FF      00997                         DT      B'00000000',B'11111111';
041F   3400 347F      00998                         DT      B'00000000',B'01111111';
0421   341E 343F      00999                         DT      B'00011110',B'00111111'
0423   343F 343F      01000                         DT      B'00111111',B'00111111'
0425   343F 343F      01001                         DT      B'00111111',B'00111111'
0427   343F 343F      01002                         DT      B'00111111',B'00111111'
0429   341E 343F      01003                         DT      B'00011110',B'00111111'
042B   3480 347F      01004                         DT      B'10000000',B'01111111'
042D   34C0 34FF      01005                         DT      B'11000000',B'11111111'
                      01006         
                      01007                         
Warning[207]: Found label after column 1. (T_SEVEN)
042F                  01008         T_SEVEN
042F   0874           01009                         MOVFW   BTCOUNT
Message[305]: Using default destination of 1 (file).
0430   0782           01010                         ADDWF   PCL
                      01011 
0431   340C           01012                         DT      .12
0432   3400 343F      01013                         DT      B'00000000',B'00111111'
0434   3400 343F      01014                         DT      B'00000000',B'00111111'
0436   343F 343F      01015                         DT      B'00111111',B'00111111'
0438   343F 343F      01016                         DT      B'00111111',B'00111111'
043A   34FF 343F      01017                         DT      B'11111111',B'00111111'
043C   34FF 343F      01018                         DT      B'11111111',B'00111111'
043E   34FE 343F      01019                         DT      B'11111110',B'00111111'
0440   34FC 347F      01020                         DT      B'11111100',B'01111111';
0442   34F8 34FF      01021                         DT      B'11111000',B'11111111';
0444   34F1 34FF      01022                         DT      B'11110001',B'11111111'
0446   34E3 34FF      01023                         DT      B'11100011',B'11111111'
0448   34E7 34FF      01024                         DT      B'11100111',B'11111111'
044A   34E7 34FF      01025                         DT      B'11100111',B'11111111'
044C   34E7 34FF      01026                         DT      B'11100111',B'11111111'
044E   34E7 34FF      01027                         DT      B'11100111',B'11111111'
0450   34E7 34FF      01028                         DT      B'11100111',B'11111111' 
                      01029         
MPASM  5.51                 HUB12_SCROLL3.ASM   5-30-2019  14:22:53         PAGE 22


LOC  OBJECT CODE     LINE SOURCE TEXT
  VALUE

Warning[207]: Found label after column 1. (T_EIGHT)
0452                  01030         T_EIGHT
0452   0874           01031                         MOVFW   BTCOUNT
Message[305]: Using default destination of 1 (file).
0453   0782           01032                         ADDWF   PCL
                      01033 
0454   340C           01034                         DT      .12
0455   34C0 34FF      01035                         DT      B'11000000',B'11111111'
0457   3480 347F      01036                         DT      B'10000000',B'01111111'
0459   341E 343F      01037                         DT      B'00011110',B'00111111'
045B   343F 343F      01038                         DT      B'00111111',B'00111111'
045D   343F 343F      01039                         DT      B'00111111',B'00111111'
045F   341E 343F      01040                         DT      B'00011110',B'00111111'
0461   3480 347F      01041                         DT      B'10000000',B'01111111'
0463   3480 347F      01042                         DT      B'10000000',B'01111111';
0465   341E 343F      01043                         DT      B'00011110',B'00111111';
0467   343F 343F      01044                         DT      B'00111111',B'00111111'
0469   343F 343F      01045                         DT      B'00111111',B'00111111'
046B   343F 343F      01046                         DT      B'00111111',B'00111111'
046D   343F 343F      01047                         DT      B'00111111',B'00111111'
046F   341E 343F      01048                         DT      B'00011110',B'00111111'
0471   3480 347F      01049                         DT      B'10000000',B'01111111'
0473   34C0 34FF      01050                         DT      B'11000000',B'11111111' 
                      01051 
Warning[207]: Found label after column 1. (T_NINE)
0475                  01052         T_NINE
0475   0874           01053                         MOVFW   BTCOUNT
Message[305]: Using default destination of 1 (file).
0476   0782           01054                         ADDWF   PCL
                      01055 
0477   340C           01056                         DT      .12
0478   34C0 34FF      01057                         DT      B'11000000',B'11111111'
047A   3480 347F      01058                         DT      B'10000000',B'01111111'
047C   341E 343F      01059                         DT      B'00011110',B'00111111'
047E   343F 343F      01060                         DT      B'00111111',B'00111111'
0480   343F 343F      01061                         DT      B'00111111',B'00111111'
0482   343F 343F      01062                         DT      B'00111111',B'00111111'
0484   341E 343F      01063                         DT      B'00011110',B'00111111'
0486   3480 343F      01064                         DT      B'10000000',B'00111111';
0488   34C0 343F      01065                         DT      B'11000000',B'00111111';
048A   34FE 343F      01066                         DT      B'11111110',B'00111111'
048C   34FF 343F      01067                         DT      B'11111111',B'00111111'
048E   34FF 343F      01068                         DT      B'11111111',B'00111111'
0490   343F 343F      01069                         DT      B'00111111',B'00111111'
0492   341E 343F      01070                         DT      B'00011110',B'00111111'
0494   3480 347F      01071                         DT      B'10000000',B'01111111'
0496   34C0 34FF      01072                         DT      B'11000000',B'11111111'
                      01073 
Warning[203]: Found opcode in column 1. (RETURN)
0498   0008           01074 RETURN
                      01075 
                      01076 ;#################### DUMPING OF DATA #######################
                      01077 
MPASM  5.51                 HUB12_SCROLL3.ASM   5-30-2019  14:22:53         PAGE 23


LOC  OBJECT CODE     LINE SOURCE TEXT
  VALUE

0499                  01078 DUMP
                      01079         
0499   3000           01080         MOVLW   .0
049A   00F4           01081         MOVWF   BTCOUNT
                      01082                 
049B   082B           01083         MOVFW   FONT
049C   0782           01084         ADDWF   PCL,F
                      01085 
049D   2CA1           01086         GOTO    FONT_0
                      01087         
049E   2D00           01088         GOTO    FONT_1
                      01089         
Message[305]: Using default destination of 1 (file).
049F   0A8A           01090         INCF    PCLATH
04A0   2D03           01091         GOTO    FONT_2
                      01092 
                      01093 
                      01094 
04A1                  01095 FONT_0
04A1   3001           01096         MOVLW   1
04A2   008A           01097         MOVWF   PCLATH
04A3   21AC           01098         CALL    CHAR
04A4   00F5           01099         MOVWF   WIDTH
Message[305]: Using default destination of 1 (file).
04A5   0AF4           01100         INCF    BTCOUNT
                      01101 
04A6   3001           01102         MOVLW   1
04A7   008A           01103         MOVWF   PCLATH
04A8   21AC           01104         CALL    CHAR
04A9   00DF           01105         MOVWF   DRAM+33
Message[305]: Using default destination of 1 (file).
04AA   0AF4           01106         INCF    BTCOUNT
                      01107 
04AB   3001           01108         MOVLW   1
04AC   008A           01109         MOVWF   PCLATH  
04AD   21AC           01110         CALL    CHAR
04AE   00CF           01111         MOVWF   DRAM+23
Message[305]: Using default destination of 1 (file).
04AF   0AF4           01112         INCF    BTCOUNT
                      01113 
04B0   3001           01114         MOVLW   1
04B1   008A           01115         MOVWF   PCLATH
04B2   21AC           01116         CALL    CHAR
04B3   00BF           01117         MOVWF   DRAM+13
Message[305]: Using default destination of 1 (file).
04B4   0AF4           01118         INCF    BTCOUNT
                      01119 
04B5   3001           01120         MOVLW   1
04B6   008A           01121         MOVWF   PCLATH
04B7   21AC           01122         CALL    CHAR
04B8   00AF           01123         MOVWF   DRAM+03
Message[305]: Using default destination of 1 (file).
04B9   0AF4           01124         INCF    BTCOUNT
MPASM  5.51                 HUB12_SCROLL3.ASM   5-30-2019  14:22:53         PAGE 24


LOC  OBJECT CODE     LINE SOURCE TEXT
  VALUE

                      01125 
04BA   3001           01126         MOVLW   1
04BB   008A           01127         MOVWF   PCLATH
04BC   21AC           01128         CALL    CHAR
04BD   00DE           01129         MOVWF   DRAM+32
Message[305]: Using default destination of 1 (file).
04BE   0AF4           01130         INCF    BTCOUNT
                      01131 
04BF   3001           01132         MOVLW   1
04C0   008A           01133         MOVWF   PCLATH
04C1   21AC           01134         CALL    CHAR
04C2   00CE           01135         MOVWF   DRAM+22
Message[305]: Using default destination of 1 (file).
04C3   0AF4           01136         INCF    BTCOUNT
                      01137 
04C4   3001           01138         MOVLW   1
04C5   008A           01139         MOVWF   PCLATH
04C6   21AC           01140         CALL    CHAR
04C7   00BE           01141         MOVWF   DRAM+12
Message[305]: Using default destination of 1 (file).
04C8   0AF4           01142         INCF    BTCOUNT
                      01143 
04C9   3001           01144         MOVLW   1
04CA   008A           01145         MOVWF   PCLATH
04CB   21AC           01146         CALL    CHAR
04CC   00AE           01147         MOVWF   DRAM+02
Message[305]: Using default destination of 1 (file).
04CD   0AF4           01148         INCF    BTCOUNT
                      01149 
04CE   3001           01150         MOVLW   1
04CF   008A           01151         MOVWF   PCLATH
04D0   21AC           01152         CALL    CHAR
04D1   00DD           01153         MOVWF   DRAM+31
Message[305]: Using default destination of 1 (file).
04D2   0AF4           01154         INCF    BTCOUNT
                      01155 
04D3   3001           01156         MOVLW   1
04D4   008A           01157         MOVWF   PCLATH
04D5   21AC           01158         CALL    CHAR
04D6   00CD           01159         MOVWF   DRAM+21
Message[305]: Using default destination of 1 (file).
04D7   0AF4           01160         INCF    BTCOUNT
                      01161 
04D8   3001           01162         MOVLW   1
04D9   008A           01163         MOVWF   PCLATH
04DA   21AC           01164         CALL    CHAR
04DB   00BD           01165         MOVWF   DRAM+11
Message[305]: Using default destination of 1 (file).
04DC   0AF4           01166         INCF    BTCOUNT
                      01167 
04DD   3001           01168         MOVLW   1
04DE   008A           01169         MOVWF   PCLATH
04DF   21AC           01170         CALL    CHAR
MPASM  5.51                 HUB12_SCROLL3.ASM   5-30-2019  14:22:53         PAGE 25


LOC  OBJECT CODE     LINE SOURCE TEXT
  VALUE

04E0   00AD           01171         MOVWF   DRAM+01
Message[305]: Using default destination of 1 (file).
04E1   0AF4           01172         INCF    BTCOUNT
                      01173 
04E2   3001           01174         MOVLW   1
04E3   008A           01175         MOVWF   PCLATH
04E4   21AC           01176         CALL    CHAR
04E5   00DC           01177         MOVWF   DRAM+30
Message[305]: Using default destination of 1 (file).
04E6   0AF4           01178         INCF    BTCOUNT
                      01179 
04E7   3001           01180         MOVLW   1
04E8   008A           01181         MOVWF   PCLATH
04E9   21AC           01182         CALL    CHAR
04EA   00CC           01183         MOVWF   DRAM+20
Message[305]: Using default destination of 1 (file).
04EB   0AF4           01184         INCF    BTCOUNT
                      01185 
04EC   3001           01186         MOVLW   1
04ED   008A           01187         MOVWF   PCLATH
04EE   21AC           01188         CALL    CHAR
04EF   00BC           01189         MOVWF   DRAM+10
Message[305]: Using default destination of 1 (file).
04F0   0AF4           01190         INCF    BTCOUNT
                      01191 
04F1   3001           01192         MOVLW   1
04F2   008A           01193         MOVWF   PCLATH
04F3   21AC           01194         CALL    CHAR
04F4   00AC           01195         MOVWF   DRAM+00
Message[305]: Using default destination of 1 (file).
04F5   0AF4           01196         INCF    BTCOUNT
                      01197 
04F6   3000           01198         MOVLW   .0                      ;BACK TO PAGE1
04F7   008A           01199         MOVWF   PCLATH
Warning[203]: Found opcode in column 1. (RETURN)
04F8   0008           01200 RETURN
                      01201 
Warning[205]: Found directive in column 1. (ORG)
0500                  01202 ORG 0X500
0500                  01203 FONT_1
                      01204 
0500   3000           01205         MOVLW   .0                      ;BACK TO PAGE1
0501   008A           01206         MOVWF   PCLATH
                      01207 
0502   0008           01208         RETURN
                      01209 
                      01210 
0503                  01211 FONT_2
                      01212 
0503   3003           01213         MOVLW   3
0504   008A           01214         MOVWF   PCLATH
0505   2300           01215         CALL    T_CHAR
0506   00F5           01216         MOVWF   WIDTH
MPASM  5.51                 HUB12_SCROLL3.ASM   5-30-2019  14:22:53         PAGE 26


LOC  OBJECT CODE     LINE SOURCE TEXT
  VALUE

Message[305]: Using default destination of 1 (file).
0507   0AF4           01217         INCF    BTCOUNT
                      01218 
0508   3003           01219         MOVLW   3
0509   008A           01220         MOVWF   PCLATH
050A   2300           01221         CALL    T_CHAR
050B   00DF           01222         MOVWF   DRAM+33
Message[305]: Using default destination of 1 (file).
050C   0AF4           01223         INCF    BTCOUNT
                      01224 
050D   3003           01225         MOVLW   3
050E   008A           01226         MOVWF   PCLATH
050F   2300           01227         CALL    T_CHAR
0510   00E3           01228         MOVWF   DRAM+37
Message[305]: Using default destination of 1 (file).
0511   0AF4           01229         INCF    BTCOUNT
                      01230 
0512   3003           01231         MOVLW   3
0513   008A           01232         MOVWF   PCLATH  
0514   2300           01233         CALL    T_CHAR
0515   00CF           01234         MOVWF   DRAM+23
Message[305]: Using default destination of 1 (file).
0516   0AF4           01235         INCF    BTCOUNT
                      01236 
0517   3003           01237         MOVLW   3
0518   008A           01238         MOVWF   PCLATH  
0519   2300           01239         CALL    T_CHAR
051A   00D3           01240         MOVWF   DRAM+27
Message[305]: Using default destination of 1 (file).
051B   0AF4           01241         INCF    BTCOUNT
                      01242 
051C   3003           01243         MOVLW   3
051D   008A           01244         MOVWF   PCLATH
051E   2300           01245         CALL    T_CHAR
051F   00BF           01246         MOVWF   DRAM+13
Message[305]: Using default destination of 1 (file).
0520   0AF4           01247         INCF    BTCOUNT
                      01248 
0521   3003           01249         MOVLW   3
0522   008A           01250         MOVWF   PCLATH  
0523   2300           01251         CALL    T_CHAR
0524   00C3           01252         MOVWF   DRAM+17
Message[305]: Using default destination of 1 (file).
0525   0AF4           01253         INCF    BTCOUNT
                      01254 
0526   3003           01255         MOVLW   3
0527   008A           01256         MOVWF   PCLATH
0528   2300           01257         CALL    T_CHAR
0529   00AF           01258         MOVWF   DRAM+03
Message[305]: Using default destination of 1 (file).
052A   0AF4           01259         INCF    BTCOUNT
                      01260 
052B   3003           01261         MOVLW   3
MPASM  5.51                 HUB12_SCROLL3.ASM   5-30-2019  14:22:53         PAGE 27


LOC  OBJECT CODE     LINE SOURCE TEXT
  VALUE

052C   008A           01262         MOVWF   PCLATH
052D   2300           01263         CALL    T_CHAR
052E   00B3           01264         MOVWF   DRAM+07
Message[305]: Using default destination of 1 (file).
052F   0AF4           01265         INCF    BTCOUNT
                      01266 
0530   3003           01267         MOVLW   3
0531   008A           01268         MOVWF   PCLATH
0532   2300           01269         CALL    T_CHAR
0533   00DE           01270         MOVWF   DRAM+32
Message[305]: Using default destination of 1 (file).
0534   0AF4           01271         INCF    BTCOUNT
                      01272 
0535   3003           01273         MOVLW   3
0536   008A           01274         MOVWF   PCLATH
0537   2300           01275         CALL    T_CHAR
0538   00E2           01276         MOVWF   DRAM+36
Message[305]: Using default destination of 1 (file).
0539   0AF4           01277         INCF    BTCOUNT
                      01278 
053A   3003           01279         MOVLW   3
053B   008A           01280         MOVWF   PCLATH
053C   2300           01281         CALL    T_CHAR
053D   00CE           01282         MOVWF   DRAM+22
Message[305]: Using default destination of 1 (file).
053E   0AF4           01283         INCF    BTCOUNT
                      01284 
053F   3003           01285         MOVLW   3
0540   008A           01286         MOVWF   PCLATH
0541   2300           01287         CALL    T_CHAR
0542   00D2           01288         MOVWF   DRAM+26
Message[305]: Using default destination of 1 (file).
0543   0AF4           01289         INCF    BTCOUNT
                      01290 
0544   3003           01291         MOVLW   3
0545   008A           01292         MOVWF   PCLATH
0546   2300           01293         CALL    T_CHAR
0547   00BE           01294         MOVWF   DRAM+12
Message[305]: Using default destination of 1 (file).
0548   0AF4           01295         INCF    BTCOUNT
                      01296 
0549   3003           01297         MOVLW   3
054A   008A           01298         MOVWF   PCLATH
054B   2300           01299         CALL    T_CHAR
054C   00C2           01300         MOVWF   DRAM+16
Message[305]: Using default destination of 1 (file).
054D   0AF4           01301         INCF    BTCOUNT
                      01302 
054E   3003           01303         MOVLW   3
054F   008A           01304         MOVWF   PCLATH
0550   2300           01305         CALL    T_CHAR
0551   00AE           01306         MOVWF   DRAM+02
Message[305]: Using default destination of 1 (file).
MPASM  5.51                 HUB12_SCROLL3.ASM   5-30-2019  14:22:53         PAGE 28


LOC  OBJECT CODE     LINE SOURCE TEXT
  VALUE

0552   0AF4           01307         INCF    BTCOUNT
                      01308 
0553   3003           01309         MOVLW   3
0554   008A           01310         MOVWF   PCLATH
0555   2300           01311         CALL    T_CHAR
0556   00B2           01312         MOVWF   DRAM+06
Message[305]: Using default destination of 1 (file).
0557   0AF4           01313         INCF    BTCOUNT
                      01314 
0558   3003           01315         MOVLW   3
0559   008A           01316         MOVWF   PCLATH
055A   2300           01317         CALL    T_CHAR
055B   00DD           01318         MOVWF   DRAM+31
Message[305]: Using default destination of 1 (file).
055C   0AF4           01319         INCF    BTCOUNT
                      01320 
055D   3003           01321         MOVLW   3
055E   008A           01322         MOVWF   PCLATH
055F   2300           01323         CALL    T_CHAR
0560   00E1           01324         MOVWF   DRAM+35
Message[305]: Using default destination of 1 (file).
0561   0AF4           01325         INCF    BTCOUNT
                      01326 
0562   3003           01327         MOVLW   3
0563   008A           01328         MOVWF   PCLATH
0564   2300           01329         CALL    T_CHAR
0565   00CD           01330         MOVWF   DRAM+21
Message[305]: Using default destination of 1 (file).
0566   0AF4           01331         INCF    BTCOUNT
                      01332 
0567   3003           01333         MOVLW   3
0568   008A           01334         MOVWF   PCLATH
0569   2300           01335         CALL    T_CHAR
056A   00D1           01336         MOVWF   DRAM+25
Message[305]: Using default destination of 1 (file).
056B   0AF4           01337         INCF    BTCOUNT
                      01338 
056C   3003           01339         MOVLW   3
056D   008A           01340         MOVWF   PCLATH
056E   2300           01341         CALL    T_CHAR
056F   00BD           01342         MOVWF   DRAM+11
Message[305]: Using default destination of 1 (file).
0570   0AF4           01343         INCF    BTCOUNT
                      01344 
0571   3003           01345         MOVLW   3
0572   008A           01346         MOVWF   PCLATH
0573   2300           01347         CALL    T_CHAR
0574   00C1           01348         MOVWF   DRAM+15
Message[305]: Using default destination of 1 (file).
0575   0AF4           01349         INCF    BTCOUNT
                      01350 
0576   3003           01351         MOVLW   3
0577   008A           01352         MOVWF   PCLATH
MPASM  5.51                 HUB12_SCROLL3.ASM   5-30-2019  14:22:53         PAGE 29


LOC  OBJECT CODE     LINE SOURCE TEXT
  VALUE

0578   2300           01353         CALL    T_CHAR
0579   00AD           01354         MOVWF   DRAM+01
Message[305]: Using default destination of 1 (file).
057A   0AF4           01355         INCF    BTCOUNT
                      01356 
057B   3003           01357         MOVLW   3
057C   008A           01358         MOVWF   PCLATH
057D   2300           01359         CALL    T_CHAR
057E   00B1           01360         MOVWF   DRAM+05
Message[305]: Using default destination of 1 (file).
057F   0AF4           01361         INCF    BTCOUNT
                      01362 
0580   3003           01363         MOVLW   3
0581   008A           01364         MOVWF   PCLATH
0582   2300           01365         CALL    T_CHAR
0583   00DC           01366         MOVWF   DRAM+30
Message[305]: Using default destination of 1 (file).
0584   0AF4           01367         INCF    BTCOUNT
                      01368 
0585   3003           01369         MOVLW   3
0586   008A           01370         MOVWF   PCLATH
0587   2300           01371         CALL    T_CHAR
0588   00E0           01372         MOVWF   DRAM+34
Message[305]: Using default destination of 1 (file).
0589   0AF4           01373         INCF    BTCOUNT
                      01374 
058A   3003           01375         MOVLW   3
058B   008A           01376         MOVWF   PCLATH
058C   2300           01377         CALL    T_CHAR
058D   00CC           01378         MOVWF   DRAM+20
Message[305]: Using default destination of 1 (file).
058E   0AF4           01379         INCF    BTCOUNT
                      01380 
058F   3003           01381         MOVLW   3
0590   008A           01382         MOVWF   PCLATH
0591   2300           01383         CALL    T_CHAR
0592   00D0           01384         MOVWF   DRAM+24
Message[305]: Using default destination of 1 (file).
0593   0AF4           01385         INCF    BTCOUNT
                      01386 
0594   3003           01387         MOVLW   3
0595   008A           01388         MOVWF   PCLATH
0596   2300           01389         CALL    T_CHAR
0597   00BC           01390         MOVWF   DRAM+10
Message[305]: Using default destination of 1 (file).
0598   0AF4           01391         INCF    BTCOUNT
                      01392 
0599   3003           01393         MOVLW   3
059A   008A           01394         MOVWF   PCLATH
059B   2300           01395         CALL    T_CHAR
059C   00C0           01396         MOVWF   DRAM+14
Message[305]: Using default destination of 1 (file).
059D   0AF4           01397         INCF    BTCOUNT
MPASM  5.51                 HUB12_SCROLL3.ASM   5-30-2019  14:22:53         PAGE 30


LOC  OBJECT CODE     LINE SOURCE TEXT
  VALUE

                      01398 
059E   3003           01399         MOVLW   3
059F   008A           01400         MOVWF   PCLATH
05A0   2300           01401         CALL    T_CHAR
05A1   00AC           01402         MOVWF   DRAM+00
Message[305]: Using default destination of 1 (file).
05A2   0AF4           01403         INCF    BTCOUNT
                      01404 
05A3   3003           01405         MOVLW   3
05A4   008A           01406         MOVWF   PCLATH
05A5   2300           01407         CALL    T_CHAR
05A6   00B0           01408         MOVWF   DRAM+04
Message[305]: Using default destination of 1 (file).
05A7   0AF4           01409         INCF    BTCOUNT
                      01410 
05A8   3000           01411         MOVLW   .0                      ;BACK TO PAGE1
05A9   008A           01412         MOVWF   PCLATH
Warning[203]: Found opcode in column 1. (RETURN)
05AA   0008           01413 RETURN
                      01414 ;###############################################################
                      01415 
                      01416 
                      01417 
                      01418 
                      01419 ;#################      SHIFT X RIGHT ##############################
                      01420 
Warning[205]: Found directive in column 1. (ORG)
0600                  01421 ORG 0X600
0600                  01422 SHIFTR
0600   086F           01423         MOVFW   CURSORX
0601   0782           01424         ADDWF   PCL,F
                      01425         
                      01426 
0602   0008           01427                 RETURN;0
0603   2F24           01428         GOTO    GRP_C;1
0604   2F24           01429         GOTO    GRP_C;2
0605   2F24           01430         GOTO    GRP_C;3
0606   2F24           01431         GOTO    GRP_C;4
0607   2F24           01432         GOTO    GRP_C;5
0608   2F24           01433         GOTO    GRP_C;6
0609   2F24           01434         GOTO    GRP_C;7
060A   2F24           01435         GOTO    GRP_C;8
060B   2EA6           01436                 GOTO    GRP_B;9
060C   2EA6           01437         GOTO    GRP_B;10
060D   2EA6           01438         GOTO    GRP_B;11
060E   2EA6           01439         GOTO    GRP_B;12
060F   2EA6           01440         GOTO    GRP_B;13
0610   2EA6           01441         GOTO    GRP_B;14
0611   2EA6           01442         GOTO    GRP_B;15
0612   2EA6           01443         GOTO    GRP_B;16
0613   2E1C           01444                 GOTO    GRP_A;17
0614   2E1C           01445         GOTO    GRP_A;18
0615   2E1C           01446         GOTO    GRP_A;19
MPASM  5.51                 HUB12_SCROLL3.ASM   5-30-2019  14:22:53         PAGE 31


LOC  OBJECT CODE     LINE SOURCE TEXT
  VALUE

0616   2E1C           01447         GOTO    GRP_A;20
0617   2E1C           01448         GOTO    GRP_A;21
0618   2E1C           01449         GOTO    GRP_A;22
0619   2E1C           01450         GOTO    GRP_A;23
061A   2E1C           01451         GOTO    GRP_A;24
061B   2E1C           01452         GOTO    GRP_A;25
                      01453 
061C                  01454 GRP_A
                      01455 ;--------------------
061C   086F           01456         MOVFW   CURSORX
061D   00ED           01457         MOVWF   SHCNT
                      01458 
061E   3001           01459         MOVLW   .1
061F   00F2           01460         MOVWF   TESTER
                      01461 
0620   0877           01462         MOVFW   ROW
0621   0272           01463         SUBWF   TESTER,W
0622   1903           01464         BTFSC   STATUS,Z
0623   2E66           01465         GOTO    SRA08_R1
                      01466         
0624                  01467 SRA00
Warning[211]: Extraneous arguments on the line.
0624   1403           01468         SETC    1
Message[305]: Using default destination of 1 (file).
0625   0CDF           01469         RRF             DRAM + 33
Message[305]: Using default destination of 1 (file).
0626   0CE3           01470         RRF             DRAM + 37
Message[305]: Using default destination of 1 (file).
0627   0CE7           01471         RRF             DRAM + 3B
Message[305]: Using default destination of 1 (file).
0628   0CEB           01472         RRF             DRAM + 3F
Message[305]: Using default destination of 1 (file).
0629   0BED           01473         DECFSZ  SHCNT
062A   2E24           01474         GOTO    SRA00
                      01475 
062B   086F           01476         MOVF    CURSORX,0
062C   00ED           01477         MOVWF   SHCNT
                      01478 
062D                  01479 SRA01
Message[305]: Using default destination of 1 (file).
062D   0CCF           01480         RRF             DRAM + 23
Message[305]: Using default destination of 1 (file).
062E   0CD3           01481         RRF             DRAM + 27
Message[305]: Using default destination of 1 (file).
062F   0CD7           01482         RRF             DRAM + 2B
Message[305]: Using default destination of 1 (file).
0630   0CDB           01483         RRF             DRAM + 2F
Message[305]: Using default destination of 1 (file).
0631   0BED           01484         DECFSZ  SHCNT
0632   2E2D           01485         GOTO    SRA01
                      01486 
0633   086F           01487         MOVF    CURSORX,0
0634   00ED           01488         MOVWF   SHCNT
MPASM  5.51                 HUB12_SCROLL3.ASM   5-30-2019  14:22:53         PAGE 32


LOC  OBJECT CODE     LINE SOURCE TEXT
  VALUE

                      01489 
0635                  01490 SRA02
Message[305]: Using default destination of 1 (file).
0635   0CBF           01491         RRF             DRAM + 13
Message[305]: Using default destination of 1 (file).
0636   0CC3           01492         RRF             DRAM + 17
Message[305]: Using default destination of 1 (file).
0637   0CC7           01493         RRF             DRAM + 1B
Message[305]: Using default destination of 1 (file).
0638   0CCB           01494         RRF             DRAM + 1F
Message[305]: Using default destination of 1 (file).
0639   0BED           01495         DECFSZ  SHCNT
063A   2E35           01496         GOTO    SRA02
                      01497 
063B   086F           01498         MOVF    CURSORX,0
063C   00ED           01499         MOVWF   SHCNT
                      01500 
063D                  01501 SRA03
Message[305]: Using default destination of 1 (file).
063D   0CAF           01502         RRF             DRAM + 03
Message[305]: Using default destination of 1 (file).
063E   0CB3           01503         RRF             DRAM + 07
Message[305]: Using default destination of 1 (file).
063F   0CB7           01504         RRF             DRAM + 0B
Message[305]: Using default destination of 1 (file).
0640   0CBB           01505         RRF             DRAM + 0F
Message[305]: Using default destination of 1 (file).
0641   0BED           01506         DECFSZ  SHCNT
0642   2E3D           01507         GOTO    SRA03
                      01508 
0643   086F           01509         MOVF    CURSORX,0
0644   00ED           01510         MOVWF   SHCNT
                      01511 
0645                  01512 SRA04
Message[305]: Using default destination of 1 (file).
0645   0CDE           01513         RRF             DRAM + 32
Message[305]: Using default destination of 1 (file).
0646   0CE2           01514         RRF             DRAM + 36
Message[305]: Using default destination of 1 (file).
0647   0CE6           01515         RRF             DRAM + 3A
Message[305]: Using default destination of 1 (file).
0648   0CEA           01516         RRF             DRAM + 3E
Message[305]: Using default destination of 1 (file).
0649   0BED           01517         DECFSZ  SHCNT
064A   2E45           01518         GOTO    SRA04
                      01519 
064B   086F           01520         MOVF    CURSORX,0
064C   00ED           01521         MOVWF   SHCNT
                      01522 
064D                  01523 SRA05
Message[305]: Using default destination of 1 (file).
064D   0CCE           01524         RRF             DRAM + 22
Message[305]: Using default destination of 1 (file).
MPASM  5.51                 HUB12_SCROLL3.ASM   5-30-2019  14:22:53         PAGE 33


LOC  OBJECT CODE     LINE SOURCE TEXT
  VALUE

064E   0CD2           01525         RRF             DRAM + 26
Message[305]: Using default destination of 1 (file).
064F   0CD6           01526         RRF             DRAM + 2A
Message[305]: Using default destination of 1 (file).
0650   0CDA           01527         RRF             DRAM + 2E
Message[305]: Using default destination of 1 (file).
0651   0BED           01528         DECFSZ  SHCNT
0652   2E4D           01529         GOTO    SRA05
                      01530 
0653   086F           01531         MOVF    CURSORX,0
0654   00ED           01532         MOVWF   SHCNT
                      01533 
0655                  01534 SRA06
Message[305]: Using default destination of 1 (file).
0655   0CBE           01535         RRF             DRAM + 12
Message[305]: Using default destination of 1 (file).
0656   0CC2           01536         RRF             DRAM + 16
Message[305]: Using default destination of 1 (file).
0657   0CC6           01537         RRF             DRAM + 1A
Message[305]: Using default destination of 1 (file).
0658   0CCA           01538         RRF             DRAM + 1E
Message[305]: Using default destination of 1 (file).
0659   0BED           01539         DECFSZ  SHCNT
065A   2E55           01540         GOTO    SRA06
                      01541 
                      01542 
065B   086F           01543         MOVF    CURSORX,0
065C   00ED           01544         MOVWF   SHCNT
                      01545 
065D                  01546 SRA07
Message[305]: Using default destination of 1 (file).
065D   0CAE           01547         RRF             DRAM + 02
Message[305]: Using default destination of 1 (file).
065E   0CB2           01548         RRF             DRAM + 06
Message[305]: Using default destination of 1 (file).
065F   0CB6           01549         RRF             DRAM + 0A
Message[305]: Using default destination of 1 (file).
0660   0CBA           01550         RRF             DRAM + 0E
Message[305]: Using default destination of 1 (file).
0661   0BED           01551         DECFSZ  SHCNT
0662   2E5D           01552         GOTO    SRA07
                      01553 
0663   086F           01554         MOVF    CURSORX,0
0664   00ED           01555         MOVWF   SHCNT
Warning[203]: Found opcode in column 1. (RETURN)
0665   0008           01556 RETURN
0666                  01557 SRA08_R1
Warning[211]: Extraneous arguments on the line.
0666   1403           01558         SETC    1
0667                  01559 SRA08
Message[305]: Using default destination of 1 (file).
0667   0CDD           01560         RRF             DRAM + 31
Message[305]: Using default destination of 1 (file).
MPASM  5.51                 HUB12_SCROLL3.ASM   5-30-2019  14:22:53         PAGE 34


LOC  OBJECT CODE     LINE SOURCE TEXT
  VALUE

0668   0CE1           01561         RRF             DRAM + 35
Message[305]: Using default destination of 1 (file).
0669   0CE5           01562         RRF             DRAM + 39
Message[305]: Using default destination of 1 (file).
066A   0CE9           01563         RRF             DRAM + 3D
Message[305]: Using default destination of 1 (file).
066B   0BED           01564         DECFSZ  SHCNT
066C   2E67           01565         GOTO    SRA08
                      01566 
066D   086F           01567         MOVF    CURSORX,0
066E   00ED           01568         MOVWF   SHCNT
                      01569 
066F                  01570 SRA09
Message[305]: Using default destination of 1 (file).
066F   0CCD           01571         RRF             DRAM + 21
Message[305]: Using default destination of 1 (file).
0670   0CD1           01572         RRF             DRAM + 25
Message[305]: Using default destination of 1 (file).
0671   0CD5           01573         RRF             DRAM + 29
Message[305]: Using default destination of 1 (file).
0672   0CD9           01574         RRF             DRAM + 2D
Message[305]: Using default destination of 1 (file).
0673   0BED           01575         DECFSZ  SHCNT
0674   2E6F           01576         GOTO    SRA09
                      01577         
0675   086F           01578         MOVF    CURSORX,0
0676   00ED           01579         MOVWF   SHCNT
                      01580 
0677                  01581 SRA0A
Message[305]: Using default destination of 1 (file).
0677   0CBD           01582         RRF             DRAM + 11
Message[305]: Using default destination of 1 (file).
0678   0CC1           01583         RRF             DRAM + 15
Message[305]: Using default destination of 1 (file).
0679   0CC5           01584         RRF             DRAM + 19
Message[305]: Using default destination of 1 (file).
067A   0CC9           01585         RRF             DRAM + 1D
Message[305]: Using default destination of 1 (file).
067B   0BED           01586         DECFSZ  SHCNT
067C   2E77           01587         GOTO    SRA0A
                      01588 
067D   086F           01589         MOVF    CURSORX,0
067E   00ED           01590         MOVWF   SHCNT
                      01591 
067F                  01592 SRA0B
Message[305]: Using default destination of 1 (file).
067F   0CAD           01593         RRF             DRAM + 01
Message[305]: Using default destination of 1 (file).
0680   0CB1           01594         RRF             DRAM + 05
Message[305]: Using default destination of 1 (file).
0681   0CB5           01595         RRF             DRAM + 09
Message[305]: Using default destination of 1 (file).
0682   0CB9           01596         RRF             DRAM + 0D
MPASM  5.51                 HUB12_SCROLL3.ASM   5-30-2019  14:22:53         PAGE 35


LOC  OBJECT CODE     LINE SOURCE TEXT
  VALUE

Message[305]: Using default destination of 1 (file).
0683   0BED           01597         DECFSZ  SHCNT
0684   2E7F           01598         GOTO    SRA0B
                      01599 
0685   086F           01600         MOVF    CURSORX,0
0686   00ED           01601         MOVWF   SHCNT
                      01602 
0687                  01603 SRA0C
Message[305]: Using default destination of 1 (file).
0687   0CDC           01604         RRF             DRAM + 30
Message[305]: Using default destination of 1 (file).
0688   0CE0           01605         RRF             DRAM + 34
Message[305]: Using default destination of 1 (file).
0689   0CE4           01606         RRF             DRAM + 38
Message[305]: Using default destination of 1 (file).
068A   0CE8           01607         RRF             DRAM + 3C
Message[305]: Using default destination of 1 (file).
068B   0BED           01608         DECFSZ  SHCNT
068C   2E87           01609         GOTO    SRA0C
                      01610 
068D   086F           01611         MOVF    CURSORX,0
068E   00ED           01612         MOVWF   SHCNT
                      01613 
068F                  01614 SRA0D
Message[305]: Using default destination of 1 (file).
068F   0CCC           01615         RRF             DRAM + 20
Message[305]: Using default destination of 1 (file).
0690   0CD0           01616         RRF             DRAM + 24
Message[305]: Using default destination of 1 (file).
0691   0CD4           01617         RRF             DRAM + 28
Message[305]: Using default destination of 1 (file).
0692   0CD8           01618         RRF             DRAM + 2C
Message[305]: Using default destination of 1 (file).
0693   0BED           01619         DECFSZ  SHCNT
0694   2E8F           01620         GOTO    SRA0D
                      01621 
0695   086F           01622         MOVF    CURSORX,0
0696   00ED           01623         MOVWF   SHCNT
                      01624 
0697                  01625 SRA0E
Message[305]: Using default destination of 1 (file).
0697   0CBC           01626         RRF             DRAM + 10
Message[305]: Using default destination of 1 (file).
0698   0CC0           01627         RRF             DRAM + 14
Message[305]: Using default destination of 1 (file).
0699   0CC4           01628         RRF             DRAM + 18
Message[305]: Using default destination of 1 (file).
069A   0CC8           01629         RRF             DRAM + 1C
Message[305]: Using default destination of 1 (file).
069B   0BED           01630         DECFSZ  SHCNT
069C   2E97           01631         GOTO    SRA0E
                      01632         
069D   086F           01633         MOVF    CURSORX,0
MPASM  5.51                 HUB12_SCROLL3.ASM   5-30-2019  14:22:53         PAGE 36


LOC  OBJECT CODE     LINE SOURCE TEXT
  VALUE

069E   00ED           01634         MOVWF   SHCNT
069F                  01635 SRA0F
Message[305]: Using default destination of 1 (file).
069F   0CAC           01636         RRF             DRAM + 00
Message[305]: Using default destination of 1 (file).
06A0   0CB0           01637         RRF             DRAM + 04
Message[305]: Using default destination of 1 (file).
06A1   0CB4           01638         RRF             DRAM + 08
Message[305]: Using default destination of 1 (file).
06A2   0CB8           01639         RRF             DRAM + 0C
Message[305]: Using default destination of 1 (file).
06A3   0BED           01640         DECFSZ  SHCNT
06A4   2E9F           01641         GOTO    SRA0F
                      01642 
Warning[203]: Found opcode in column 1. (RETURN)
06A5   0008           01643 RETURN
                      01644 
06A6                  01645 GRP_B
                      01646 
                      01647 ;--------------------
06A6   086F           01648         MOVFW   CURSORX
06A7   00ED           01649         MOVWF   SHCNT
                      01650 
06A8   3001           01651         MOVLW   .1
06A9   00F2           01652         MOVWF   TESTER
                      01653 
06AA   0877           01654         MOVFW   ROW
06AB   0272           01655         SUBWF   TESTER,W
06AC   1903           01656         BTFSC   STATUS,Z
06AD   2EE9           01657         GOTO    SRB08
                      01658 
                      01659 
                      01660         
06AE                  01661 SRB00
Warning[211]: Extraneous arguments on the line.
06AE   1403           01662         SETC    1
Message[305]: Using default destination of 1 (file).
06AF   0CDF           01663         RRF             DRAM + 33
Message[305]: Using default destination of 1 (file).
06B0   0CE3           01664         RRF             DRAM + 37
Message[305]: Using default destination of 1 (file).
06B1   0CE7           01665         RRF             DRAM + 3B
                      01666 
Message[305]: Using default destination of 1 (file).
06B2   0BED           01667         DECFSZ  SHCNT
06B3   2EAE           01668         GOTO    SRB00
                      01669 
06B4   086F           01670         MOVF    CURSORX,0
06B5   00ED           01671         MOVWF   SHCNT
                      01672 
06B6                  01673 SRB01
Message[305]: Using default destination of 1 (file).
06B6   0CCF           01674         RRF             DRAM + 23
MPASM  5.51                 HUB12_SCROLL3.ASM   5-30-2019  14:22:53         PAGE 37


LOC  OBJECT CODE     LINE SOURCE TEXT
  VALUE

Message[305]: Using default destination of 1 (file).
06B7   0CD3           01675         RRF             DRAM + 27
Message[305]: Using default destination of 1 (file).
06B8   0CD7           01676         RRF             DRAM + 2B
                      01677 
Message[305]: Using default destination of 1 (file).
06B9   0BED           01678         DECFSZ  SHCNT
06BA   2EB6           01679         GOTO    SRB01
                      01680 
06BB   086F           01681         MOVF    CURSORX,0
06BC   00ED           01682         MOVWF   SHCNT
                      01683 
06BD                  01684 SRB02
Message[305]: Using default destination of 1 (file).
06BD   0CBF           01685         RRF             DRAM + 13
Message[305]: Using default destination of 1 (file).
06BE   0CC3           01686         RRF             DRAM + 17
Message[305]: Using default destination of 1 (file).
06BF   0CC7           01687         RRF             DRAM + 1B
                      01688 
Message[305]: Using default destination of 1 (file).
06C0   0BED           01689         DECFSZ  SHCNT
06C1   2EBD           01690         GOTO    SRB02
                      01691 
06C2   086F           01692         MOVF    CURSORX,0
06C3   00ED           01693         MOVWF   SHCNT
                      01694 
06C4                  01695 SRB03
Message[305]: Using default destination of 1 (file).
06C4   0CAF           01696         RRF             DRAM + 03
Message[305]: Using default destination of 1 (file).
06C5   0CB3           01697         RRF             DRAM + 07
Message[305]: Using default destination of 1 (file).
06C6   0CB7           01698         RRF             DRAM + 0B
                      01699 
Message[305]: Using default destination of 1 (file).
06C7   0BED           01700         DECFSZ  SHCNT
06C8   2EC4           01701         GOTO    SRB03
                      01702 
06C9   086F           01703         MOVF    CURSORX,0
06CA   00ED           01704         MOVWF   SHCNT
                      01705 
06CB                  01706 SRB04
Message[305]: Using default destination of 1 (file).
06CB   0CDE           01707         RRF             DRAM + 32
Message[305]: Using default destination of 1 (file).
06CC   0CE2           01708         RRF             DRAM + 36
Message[305]: Using default destination of 1 (file).
06CD   0CE6           01709         RRF             DRAM + 3A
                      01710 
Message[305]: Using default destination of 1 (file).
06CE   0BED           01711         DECFSZ  SHCNT
06CF   2ECB           01712         GOTO    SRB04
MPASM  5.51                 HUB12_SCROLL3.ASM   5-30-2019  14:22:53         PAGE 38


LOC  OBJECT CODE     LINE SOURCE TEXT
  VALUE

                      01713 
06D0   086F           01714         MOVF    CURSORX,0
06D1   00ED           01715         MOVWF   SHCNT
                      01716 
06D2                  01717 SRB05
Message[305]: Using default destination of 1 (file).
06D2   0CCE           01718         RRF             DRAM + 22
Message[305]: Using default destination of 1 (file).
06D3   0CD2           01719         RRF             DRAM + 26
Message[305]: Using default destination of 1 (file).
06D4   0CD6           01720         RRF             DRAM + 2A
                      01721 
Message[305]: Using default destination of 1 (file).
06D5   0BED           01722         DECFSZ  SHCNT
06D6   2ED2           01723         GOTO    SRB05
                      01724 
06D7   086F           01725         MOVF    CURSORX,0
06D8   00ED           01726         MOVWF   SHCNT
                      01727 
06D9                  01728 SRB06
Message[305]: Using default destination of 1 (file).
06D9   0CBE           01729         RRF             DRAM + 12
Message[305]: Using default destination of 1 (file).
06DA   0CC2           01730         RRF             DRAM + 16
Message[305]: Using default destination of 1 (file).
06DB   0CC6           01731         RRF             DRAM + 1A
                      01732 
Message[305]: Using default destination of 1 (file).
06DC   0BED           01733         DECFSZ  SHCNT
06DD   2ED9           01734         GOTO    SRB06
                      01735 
                      01736 
06DE   086F           01737         MOVF    CURSORX,0
06DF   00ED           01738         MOVWF   SHCNT
                      01739 
06E0                  01740 SRB07
Message[305]: Using default destination of 1 (file).
06E0   0CAE           01741         RRF             DRAM + 02
Message[305]: Using default destination of 1 (file).
06E1   0CB2           01742         RRF             DRAM + 06
Message[305]: Using default destination of 1 (file).
06E2   0CB6           01743         RRF             DRAM + 0A
                      01744 
Message[305]: Using default destination of 1 (file).
06E3   0BED           01745         DECFSZ  SHCNT
06E4   2EE0           01746         GOTO    SRB07
                      01747 
06E5   086F           01748         MOVF    CURSORX,0
06E6   00ED           01749         MOVWF   SHCNT
Warning[203]: Found opcode in column 1. (RETURN)
06E7   0008           01750 RETURN
06E8                  01751 SRB08_R1
Warning[211]: Extraneous arguments on the line.
MPASM  5.51                 HUB12_SCROLL3.ASM   5-30-2019  14:22:53         PAGE 39


LOC  OBJECT CODE     LINE SOURCE TEXT
  VALUE

06E8   1403           01752         SETC    1
06E9                  01753 SRB08
Message[305]: Using default destination of 1 (file).
06E9   0CDD           01754         RRF             DRAM + 31
Message[305]: Using default destination of 1 (file).
06EA   0CE1           01755         RRF             DRAM + 35
Message[305]: Using default destination of 1 (file).
06EB   0CE5           01756         RRF             DRAM + 39
                      01757 
Message[305]: Using default destination of 1 (file).
06EC   0BED           01758         DECFSZ  SHCNT
06ED   2EE9           01759         GOTO    SRB08
                      01760 
06EE   086F           01761         MOVF    CURSORX,0
06EF   00ED           01762         MOVWF   SHCNT
                      01763 
06F0                  01764 SRB09
Message[305]: Using default destination of 1 (file).
06F0   0CCD           01765         RRF             DRAM + 21
Message[305]: Using default destination of 1 (file).
06F1   0CD1           01766         RRF             DRAM + 25
Message[305]: Using default destination of 1 (file).
06F2   0CD5           01767         RRF             DRAM + 29
                      01768 
Message[305]: Using default destination of 1 (file).
06F3   0BED           01769         DECFSZ  SHCNT
06F4   2EF0           01770         GOTO    SRB09
                      01771         
06F5   086F           01772         MOVF    CURSORX,0
06F6   00ED           01773         MOVWF   SHCNT
                      01774 
06F7                  01775 SRB0A
Message[305]: Using default destination of 1 (file).
06F7   0CBD           01776         RRF             DRAM + 11
Message[305]: Using default destination of 1 (file).
06F8   0CC1           01777         RRF             DRAM + 15
Message[305]: Using default destination of 1 (file).
06F9   0CC5           01778         RRF             DRAM + 19
                      01779 
Message[305]: Using default destination of 1 (file).
06FA   0BED           01780         DECFSZ  SHCNT
06FB   2EF7           01781         GOTO    SRB0A
Message[305]: Using default destination of 1 (file).
06FC   0A8A           01782         INCF    PCLATH
                      01783 
Warning[205]: Found directive in column 1. (ORG)
0700                  01784 ORG 0X700
0700   086F           01785         MOVF    CURSORX,0
0701   00ED           01786         MOVWF   SHCNT
                      01787         
0702                  01788 SRB0B
Message[305]: Using default destination of 1 (file).
0702   0CAD           01789         RRF             DRAM + 01
MPASM  5.51                 HUB12_SCROLL3.ASM   5-30-2019  14:22:53         PAGE 40


LOC  OBJECT CODE     LINE SOURCE TEXT
  VALUE

Message[305]: Using default destination of 1 (file).
0703   0CB1           01790         RRF             DRAM + 05
Message[305]: Using default destination of 1 (file).
0704   0CB5           01791         RRF             DRAM + 09
                      01792 
Message[305]: Using default destination of 1 (file).
0705   0BED           01793         DECFSZ  SHCNT
0706   2F02           01794         GOTO    SRB0B
                      01795 
0707   086F           01796         MOVF    CURSORX,0
0708   00ED           01797         MOVWF   SHCNT
                      01798 
0709                  01799 SRB0C
Message[305]: Using default destination of 1 (file).
0709   0CDC           01800         RRF             DRAM + 30
Message[305]: Using default destination of 1 (file).
070A   0CE0           01801         RRF             DRAM + 34
Message[305]: Using default destination of 1 (file).
070B   0CE4           01802         RRF             DRAM + 38
                      01803 
Message[305]: Using default destination of 1 (file).
070C   0BED           01804         DECFSZ  SHCNT
070D   2F09           01805         GOTO    SRB0C
                      01806 
070E   086F           01807         MOVF    CURSORX,0
070F   00ED           01808         MOVWF   SHCNT
                      01809 
0710                  01810 SRB0D
Message[305]: Using default destination of 1 (file).
0710   0CCC           01811         RRF             DRAM + 20
Message[305]: Using default destination of 1 (file).
0711   0CD0           01812         RRF             DRAM + 24
Message[305]: Using default destination of 1 (file).
0712   0CD4           01813         RRF             DRAM + 28
                      01814 
Message[305]: Using default destination of 1 (file).
0713   0BED           01815         DECFSZ  SHCNT
0714   2F10           01816         GOTO    SRB0D
                      01817 
0715   086F           01818         MOVF    CURSORX,0
0716   00ED           01819         MOVWF   SHCNT
                      01820 
0717                  01821 SRB0E
Message[305]: Using default destination of 1 (file).
0717   0CBC           01822         RRF             DRAM + 10
Message[305]: Using default destination of 1 (file).
0718   0CC0           01823         RRF             DRAM + 14
Message[305]: Using default destination of 1 (file).
0719   0CC4           01824         RRF             DRAM + 18
                      01825 
Message[305]: Using default destination of 1 (file).
071A   0BED           01826         DECFSZ  SHCNT
071B   2F17           01827         GOTO    SRB0E
MPASM  5.51                 HUB12_SCROLL3.ASM   5-30-2019  14:22:53         PAGE 41


LOC  OBJECT CODE     LINE SOURCE TEXT
  VALUE

                      01828         
071C   086F           01829         MOVF    CURSORX,0
071D   00ED           01830         MOVWF   SHCNT
071E                  01831 SRB0F
Message[305]: Using default destination of 1 (file).
071E   0CAC           01832         RRF             DRAM + 00
Message[305]: Using default destination of 1 (file).
071F   0CB0           01833         RRF             DRAM + 04
Message[305]: Using default destination of 1 (file).
0720   0CB4           01834         RRF             DRAM + 08
                      01835 
Message[305]: Using default destination of 1 (file).
0721   0BED           01836         DECFSZ  SHCNT
0722   2F1E           01837         GOTO    SRB0F
                      01838 
Warning[203]: Found opcode in column 1. (RETURN)
0723   0008           01839 RETURN
                      01840 
                      01841 
0724                  01842 GRP_C
                      01843         ;--------------------
0724   086F           01844         MOVFW   CURSORX
0725   00ED           01845         MOVWF   SHCNT
                      01846 
0726   3001           01847         MOVLW   .1
0727   00F2           01848         MOVWF   TESTER
                      01849 
0728   0877           01850         MOVFW   ROW
0729   0272           01851         SUBWF   TESTER,W
072A   1903           01852         BTFSC   STATUS,Z
072B   2F5F           01853         GOTO    SRC08
                      01854 
                      01855 
                      01856         
072C                  01857 SRC00
Warning[211]: Extraneous arguments on the line.
072C   1403           01858         SETC    1
Message[305]: Using default destination of 1 (file).
072D   0CDF           01859         RRF             DRAM + 33
Message[305]: Using default destination of 1 (file).
072E   0CE3           01860         RRF             DRAM + 37
                      01861 
                      01862 
Message[305]: Using default destination of 1 (file).
072F   0BED           01863         DECFSZ  SHCNT
0730   2F2C           01864         GOTO    SRC00
                      01865 
0731   086F           01866         MOVF    CURSORX,0
0732   00ED           01867         MOVWF   SHCNT
                      01868 
0733                  01869 SRC01
Message[305]: Using default destination of 1 (file).
0733   0CCF           01870         RRF             DRAM + 23
MPASM  5.51                 HUB12_SCROLL3.ASM   5-30-2019  14:22:53         PAGE 42


LOC  OBJECT CODE     LINE SOURCE TEXT
  VALUE

Message[305]: Using default destination of 1 (file).
0734   0CD3           01871         RRF             DRAM + 27
                      01872 
                      01873 
Message[305]: Using default destination of 1 (file).
0735   0BED           01874         DECFSZ  SHCNT
0736   2F33           01875         GOTO    SRC01
                      01876 
0737   086F           01877         MOVF    CURSORX,0
0738   00ED           01878         MOVWF   SHCNT
                      01879 
0739                  01880 SRC02
Message[305]: Using default destination of 1 (file).
0739   0CBF           01881         RRF             DRAM + 13
Message[305]: Using default destination of 1 (file).
073A   0CC3           01882         RRF             DRAM + 17
                      01883 
                      01884 
Message[305]: Using default destination of 1 (file).
073B   0BED           01885         DECFSZ  SHCNT
073C   2F39           01886         GOTO    SRC02
                      01887 
073D   086F           01888         MOVF    CURSORX,0
073E   00ED           01889         MOVWF   SHCNT
                      01890 
073F                  01891 SRC03
Message[305]: Using default destination of 1 (file).
073F   0CAF           01892         RRF             DRAM + 03
Message[305]: Using default destination of 1 (file).
0740   0CB3           01893         RRF             DRAM + 07
                      01894 
                      01895 
Message[305]: Using default destination of 1 (file).
0741   0BED           01896         DECFSZ  SHCNT
0742   2F3F           01897         GOTO    SRC03
                      01898 
0743   086F           01899         MOVF    CURSORX,0
0744   00ED           01900         MOVWF   SHCNT
                      01901 
0745                  01902 SRC04
Message[305]: Using default destination of 1 (file).
0745   0CDE           01903         RRF             DRAM + 32
Message[305]: Using default destination of 1 (file).
0746   0CE2           01904         RRF             DRAM + 36
                      01905 
                      01906 
Message[305]: Using default destination of 1 (file).
0747   0BED           01907         DECFSZ  SHCNT
0748   2F45           01908         GOTO    SRC04
                      01909 
0749   086F           01910         MOVF    CURSORX,0
074A   00ED           01911         MOVWF   SHCNT
                      01912 
MPASM  5.51                 HUB12_SCROLL3.ASM   5-30-2019  14:22:53         PAGE 43


LOC  OBJECT CODE     LINE SOURCE TEXT
  VALUE

074B                  01913 SRC05
Message[305]: Using default destination of 1 (file).
074B   0CCE           01914         RRF             DRAM + 22
Message[305]: Using default destination of 1 (file).
074C   0CD2           01915         RRF             DRAM + 26
                      01916 
                      01917 
Message[305]: Using default destination of 1 (file).
074D   0BED           01918         DECFSZ  SHCNT
074E   2F4B           01919         GOTO    SRC05
                      01920 
074F   086F           01921         MOVF    CURSORX,0
0750   00ED           01922         MOVWF   SHCNT
                      01923 
0751                  01924 SRC06
Message[305]: Using default destination of 1 (file).
0751   0CBE           01925         RRF             DRAM + 12
Message[305]: Using default destination of 1 (file).
0752   0CC2           01926         RRF             DRAM + 16
                      01927 
                      01928 
Message[305]: Using default destination of 1 (file).
0753   0BED           01929         DECFSZ  SHCNT
0754   2F51           01930         GOTO    SRC06
                      01931 
                      01932 
0755   086F           01933         MOVF    CURSORX,0
0756   00ED           01934         MOVWF   SHCNT
                      01935 
0757                  01936 SRC07
Message[305]: Using default destination of 1 (file).
0757   0CAE           01937         RRF             DRAM + 02
Message[305]: Using default destination of 1 (file).
0758   0CB2           01938         RRF             DRAM + 06
                      01939 
                      01940 
Message[305]: Using default destination of 1 (file).
0759   0BED           01941         DECFSZ  SHCNT
075A   2F57           01942         GOTO    SRC07
                      01943 
075B   086F           01944         MOVF    CURSORX,0
075C   00ED           01945         MOVWF   SHCNT
Warning[203]: Found opcode in column 1. (RETURN)
075D   0008           01946 RETURN
075E                  01947 SRC08_R1
Warning[211]: Extraneous arguments on the line.
075E   1403           01948         SETC    1
075F                  01949 SRC08
Message[305]: Using default destination of 1 (file).
075F   0CDD           01950         RRF             DRAM + 31
Message[305]: Using default destination of 1 (file).
0760   0CE1           01951         RRF             DRAM + 35
                      01952 
MPASM  5.51                 HUB12_SCROLL3.ASM   5-30-2019  14:22:53         PAGE 44


LOC  OBJECT CODE     LINE SOURCE TEXT
  VALUE

                      01953 
Message[305]: Using default destination of 1 (file).
0761   0BED           01954         DECFSZ  SHCNT
0762   2F5F           01955         GOTO    SRC08
                      01956 
0763   086F           01957         MOVF    CURSORX,0
0764   00ED           01958         MOVWF   SHCNT
                      01959 
0765                  01960 SRC09
Message[305]: Using default destination of 1 (file).
0765   0CCD           01961         RRF             DRAM + 21
Message[305]: Using default destination of 1 (file).
0766   0CD1           01962         RRF             DRAM + 25
                      01963 
                      01964 
Message[305]: Using default destination of 1 (file).
0767   0BED           01965         DECFSZ  SHCNT
0768   2F65           01966         GOTO    SRC09
                      01967         
0769   086F           01968         MOVF    CURSORX,0
076A   00ED           01969         MOVWF   SHCNT
                      01970 
076B                  01971 SRC0A
Message[305]: Using default destination of 1 (file).
076B   0CBD           01972         RRF             DRAM + 11
Message[305]: Using default destination of 1 (file).
076C   0CC1           01973         RRF             DRAM + 15
                      01974 
                      01975 
Message[305]: Using default destination of 1 (file).
076D   0BED           01976         DECFSZ  SHCNT
076E   2F6B           01977         GOTO    SRC0A
                      01978 
076F   086F           01979         MOVF    CURSORX,0
0770   00ED           01980         MOVWF   SHCNT
                      01981 
0771                  01982 SRC0B
Message[305]: Using default destination of 1 (file).
0771   0CAD           01983         RRF             DRAM + 01
Message[305]: Using default destination of 1 (file).
0772   0CB1           01984         RRF             DRAM + 05
                      01985 
                      01986 
Message[305]: Using default destination of 1 (file).
0773   0BED           01987         DECFSZ  SHCNT
0774   2F71           01988         GOTO    SRC0B
                      01989 
0775   086F           01990         MOVF    CURSORX,0
0776   00ED           01991         MOVWF   SHCNT
                      01992 
0777                  01993 SRC0C
Message[305]: Using default destination of 1 (file).
0777   0CDC           01994         RRF             DRAM + 30
MPASM  5.51                 HUB12_SCROLL3.ASM   5-30-2019  14:22:53         PAGE 45


LOC  OBJECT CODE     LINE SOURCE TEXT
  VALUE

Message[305]: Using default destination of 1 (file).
0778   0CE0           01995         RRF             DRAM + 34
                      01996 
                      01997 
Message[305]: Using default destination of 1 (file).
0779   0BED           01998         DECFSZ  SHCNT
077A   2F77           01999         GOTO    SRC0C
                      02000 
077B   086F           02001         MOVF    CURSORX,0
077C   00ED           02002         MOVWF   SHCNT
                      02003 
077D                  02004 SRC0D
Message[305]: Using default destination of 1 (file).
077D   0CCC           02005         RRF             DRAM + 20
Message[305]: Using default destination of 1 (file).
077E   0CD0           02006         RRF             DRAM + 24
                      02007 
                      02008 
Message[305]: Using default destination of 1 (file).
077F   0BED           02009         DECFSZ  SHCNT
0780   2F7D           02010         GOTO    SRC0D
                      02011 
0781   086F           02012         MOVF    CURSORX,0
0782   00ED           02013         MOVWF   SHCNT
                      02014 
0783                  02015 SRC0E
Message[305]: Using default destination of 1 (file).
0783   0CBC           02016         RRF             DRAM + 10
Message[305]: Using default destination of 1 (file).
0784   0CC0           02017         RRF             DRAM + 14
                      02018 
                      02019 
Message[305]: Using default destination of 1 (file).
0785   0BED           02020         DECFSZ  SHCNT
0786   2F83           02021         GOTO    SRC0E
                      02022         
0787   086F           02023         MOVF    CURSORX,0
0788   00ED           02024         MOVWF   SHCNT
0789                  02025 SRC0F
Message[305]: Using default destination of 1 (file).
0789   0CAC           02026         RRF             DRAM + 00
Message[305]: Using default destination of 1 (file).
078A   0CB0           02027         RRF             DRAM + 04
                      02028 
                      02029 
Message[305]: Using default destination of 1 (file).
078B   0BED           02030         DECFSZ  SHCNT
078C   2F89           02031         GOTO    SRC0F
                      02032 
Warning[203]: Found opcode in column 1. (RETURN)
078D   0008           02033 RETURN
                      02034 
078E                  02035 GRP_D
MPASM  5.51                 HUB12_SCROLL3.ASM   5-30-2019  14:22:53         PAGE 46


LOC  OBJECT CODE     LINE SOURCE TEXT
  VALUE

                      02036 
078E   0000           02037         NOP
078F   0000           02038         NOP
                      02039 
Warning[203]: Found opcode in column 1. (RETURN)
0790   0008           02040 RETURN
                      02041 
                      02042 
                      02043 
                      02044 ;########################### SHIFT LEFT ########################
                      02045 
                      02046 
0791                  02047 SHIFTL_GRPA
                      02048 
0791                  02049 SHIFTL_GRPB
0791   3001           02050         MOVLW   .1
0792   00F2           02051         MOVWF   TESTER
                      02052 
0793   0877           02053         MOVFW           ROW
0794   0272           02054         SUBWF           TESTER,W
0795   1903           02055         BTFSC           STATUS,Z
0796   2FF0           02056         GOTO            SB08_FLAG
                      02057 
0797   30FF           02058         MOVLW           0XFF
0798   00AA           02059         MOVWF           TEMPFILE
                      02060 
0799   086D           02061         MOVFW           SHCNT
079A   00EE           02062         MOVWF           COUNT4
079B                  02063 SB00
Warning[211]: Extraneous arguments on the line.
079B   1403           02064         SETC            1
Message[305]: Using default destination of 1 (file).
079C   0DE3           02065         RLF                     DRAM+37
Message[305]: Using default destination of 1 (file).
079D   0DAA           02066         RLF                     TEMPFILE
079E   0BEE           02067         DECFSZ          COUNT4,F
079F   2F9B           02068         GOTO            SB00
                      02069 
07A0   082A           02070         MOVFW           TEMPFILE
07A1   05DF           02071         ANDWF           DRAM+33,F
                      02072 
07A2   086D           02073         MOVFW           SHCNT
07A3   00EE           02074         MOVWF           COUNT4
                      02075         
07A4   30FF           02076         MOVLW           0XFF
07A5   00AA           02077         MOVWF           TEMPFILE
                      02078 
07A6                  02079 SB01
Warning[211]: Extraneous arguments on the line.
07A6   1403           02080         SETC            1
Message[305]: Using default destination of 1 (file).
07A7   0DD3           02081         RLF                     DRAM+27
Message[305]: Using default destination of 1 (file).
MPASM  5.51                 HUB12_SCROLL3.ASM   5-30-2019  14:22:53         PAGE 47


LOC  OBJECT CODE     LINE SOURCE TEXT
  VALUE

07A8   0DAA           02082         RLF                     TEMPFILE
07A9   0BEE           02083         DECFSZ          COUNT4,F
07AA   2FA6           02084         GOTO            SB01
                      02085 
07AB   082A           02086         MOVFW           TEMPFILE
07AC   05CF           02087         ANDWF           DRAM+23,F
                      02088 
                      02089 
07AD   086D           02090         MOVFW           SHCNT
07AE   00EE           02091         MOVWF           COUNT4
                      02092 
07AF   30FF           02093         MOVLW           0XFF
07B0   00AA           02094         MOVWF           TEMPFILE
                      02095 
07B1                  02096 SB02
Warning[211]: Extraneous arguments on the line.
07B1   1403           02097         SETC            1
Message[305]: Using default destination of 1 (file).
07B2   0DC3           02098         RLF                     DRAM+17
Message[305]: Using default destination of 1 (file).
07B3   0DAA           02099         RLF                     TEMPFILE
07B4   0BEE           02100         DECFSZ          COUNT4,F
07B5   2FB1           02101         GOTO            SB02
                      02102 
07B6   082A           02103         MOVFW           TEMPFILE
07B7   05BF           02104         ANDWF           DRAM+13,F
                      02105 
                      02106 
07B8   086D           02107         MOVFW           SHCNT
07B9   00EE           02108         MOVWF           COUNT4
                      02109         
07BA   30FF           02110         MOVLW           0XFF
07BB   00AA           02111         MOVWF           TEMPFILE
                      02112 
07BC                  02113 SB03
Warning[211]: Extraneous arguments on the line.
07BC   1403           02114         SETC            1
Message[305]: Using default destination of 1 (file).
07BD   0DB3           02115         RLF                     DRAM+07
Message[305]: Using default destination of 1 (file).
07BE   0DAA           02116         RLF                     TEMPFILE
07BF   0BEE           02117         DECFSZ          COUNT4,F
07C0   2FBC           02118         GOTO            SB03
                      02119 
07C1   082A           02120         MOVFW           TEMPFILE
07C2   05AF           02121         ANDWF           DRAM+03,F
                      02122 
                      02123 
07C3   086D           02124         MOVFW           SHCNT
07C4   00EE           02125         MOVWF           COUNT4
                      02126 
07C5   30FF           02127         MOVLW           0XFF
07C6   00AA           02128         MOVWF           TEMPFILE
MPASM  5.51                 HUB12_SCROLL3.ASM   5-30-2019  14:22:53         PAGE 48


LOC  OBJECT CODE     LINE SOURCE TEXT
  VALUE

07C7                  02129 SB04
Warning[211]: Extraneous arguments on the line.
07C7   1403           02130         SETC            1
Message[305]: Using default destination of 1 (file).
07C8   0DE2           02131         RLF                     DRAM+36
Message[305]: Using default destination of 1 (file).
07C9   0DAA           02132         RLF                     TEMPFILE
07CA   0BEE           02133         DECFSZ          COUNT4,F
07CB   2FC7           02134         GOTO            SB04
                      02135 
07CC   082A           02136         MOVFW           TEMPFILE
07CD   05DE           02137         ANDWF           DRAM+32,F
                      02138         
                      02139 
07CE   086D           02140         MOVFW           SHCNT
07CF   00EE           02141         MOVWF           COUNT4
07D0   30FF           02142         MOVLW           0XFF
07D1   00AA           02143         MOVWF           TEMPFILE
                      02144 
07D2                  02145 SB05
Warning[211]: Extraneous arguments on the line.
07D2   1403           02146         SETC            1
Message[305]: Using default destination of 1 (file).
07D3   0DD2           02147         RLF                     DRAM+26
Message[305]: Using default destination of 1 (file).
07D4   0DAA           02148         RLF                     TEMPFILE
07D5   0BEE           02149         DECFSZ          COUNT4,F
07D6   2FD2           02150         GOTO            SB05    
                      02151 
                      02152 
                      02153 
07D7   082A           02154         MOVFW           TEMPFILE
07D8   05CE           02155         ANDWF           DRAM+22,F
                      02156 
07D9   086D           02157         MOVFW           SHCNT
07DA   00EE           02158         MOVWF           COUNT4
07DB   30FF           02159         MOVLW           0XFF
07DC   00AA           02160         MOVWF           TEMPFILE
                      02161 
07DD                  02162 SB06
Warning[211]: Extraneous arguments on the line.
07DD   1403           02163         SETC            1
Message[305]: Using default destination of 1 (file).
07DE   0DC2           02164         RLF                     DRAM+16
Message[305]: Using default destination of 1 (file).
07DF   0DAA           02165         RLF                     TEMPFILE
07E0   0BEE           02166         DECFSZ          COUNT4,F
07E1   2FDD           02167         GOTO            SB06
                      02168 
                      02169 
07E2   082A           02170         MOVFW           TEMPFILE
07E3   05BE           02171         ANDWF           DRAM+12,F
                      02172 
MPASM  5.51                 HUB12_SCROLL3.ASM   5-30-2019  14:22:53         PAGE 49


LOC  OBJECT CODE     LINE SOURCE TEXT
  VALUE

07E4   086D           02173         MOVFW           SHCNT
07E5   00EE           02174         MOVWF           COUNT4  
07E6   30FF           02175         MOVLW           0XFF
07E7   00AA           02176         MOVWF           TEMPFILE
                      02177 
07E8                  02178 SB07
Warning[211]: Extraneous arguments on the line.
07E8   1403           02179         SETC            1
Message[305]: Using default destination of 1 (file).
07E9   0DB2           02180         RLF                     DRAM+06
Message[305]: Using default destination of 1 (file).
07EA   0DAA           02181         RLF                     TEMPFILE
07EB   0BEE           02182         DECFSZ          COUNT4,F
07EC   2FE8           02183         GOTO            SB07
                      02184 
07ED   082A           02185         MOVFW           TEMPFILE
07EE   05AE           02186         ANDWF           DRAM+02,F
Warning[203]: Found opcode in column 1. (RETURN)
07EF   0008           02187 RETURN  
                      02188 
07F0                  02189 SB08_FLAG
07F0   086D           02190         MOVFW           SHCNT
07F1   00EE           02191         MOVWF           COUNT4
07F2   30FF           02192         MOVLW           0XFF
07F3   00AA           02193         MOVWF           TEMPFILE
                      02194 
07F4                  02195 SB08    
Warning[211]: Extraneous arguments on the line.
07F4   1403           02196         SETC            1
Message[305]: Using default destination of 1 (file).
07F5   0DE1           02197         RLF                     DRAM+35
Message[305]: Using default destination of 1 (file).
07F6   0DAA           02198         RLF                     TEMPFILE
07F7   0BEE           02199         DECFSZ          COUNT4,F
07F8   2FF4           02200         GOTO            SB08
                      02201 
07F9   082A           02202         MOVFW           TEMPFILE
07FA   05DD           02203         ANDWF           DRAM+31,F
                      02204         
                      02205 
07FB   086D           02206         MOVFW           SHCNT
07FC   00EE           02207         MOVWF           COUNT4
07FD   30FF           02208         MOVLW           0XFF
07FE   00AA           02209         MOVWF           TEMPFILE
Message[305]: Using default destination of 1 (file).
07FF   0A8A           02210         INCF            PCLATH
                      02211 
Warning[205]: Found directive in column 1. (ORG)
0800                  02212 ORG 0X800
0800                  02213 SB09
Warning[211]: Extraneous arguments on the line.
0800   1403           02214         SETC            1
Message[305]: Using default destination of 1 (file).
MPASM  5.51                 HUB12_SCROLL3.ASM   5-30-2019  14:22:53         PAGE 50


LOC  OBJECT CODE     LINE SOURCE TEXT
  VALUE

0801   0DD1           02215         RLF                     DRAM+25
Message[305]: Using default destination of 1 (file).
0802   0DAA           02216         RLF                     TEMPFILE
0803   0BEE           02217         DECFSZ          COUNT4,F
0804   2800           02218         GOTO            SB09
                      02219 
0805   082A           02220         MOVFW           TEMPFILE
0806   05CD           02221         ANDWF           DRAM+21,F
                      02222 
0807   086D           02223         MOVFW           SHCNT
0808   00EE           02224         MOVWF           COUNT4
0809   30FF           02225         MOVLW           0XFF
080A   00AA           02226         MOVWF           TEMPFILE
                      02227 
080B                  02228 SB0A
Warning[211]: Extraneous arguments on the line.
080B   1403           02229         SETC            1
Message[305]: Using default destination of 1 (file).
080C   0DC1           02230         RLF                     DRAM+15
Message[305]: Using default destination of 1 (file).
080D   0DAA           02231         RLF                     TEMPFILE
080E   0BEE           02232         DECFSZ          COUNT4,F
080F   280B           02233         GOTO            SB0A
                      02234 
0810   082A           02235         MOVFW           TEMPFILE
0811   05BD           02236         ANDWF           DRAM+11,F
                      02237 
0812   086D           02238         MOVFW           SHCNT
0813   00EE           02239         MOVWF           COUNT4
0814   30FF           02240         MOVLW           0XFF
0815   00AA           02241         MOVWF           TEMPFILE
                      02242 
0816                  02243 SB0B
Warning[211]: Extraneous arguments on the line.
0816   1403           02244         SETC            1
Message[305]: Using default destination of 1 (file).
0817   0DB1           02245         RLF                     DRAM+05
Message[305]: Using default destination of 1 (file).
0818   0DAA           02246         RLF                     TEMPFILE
0819   0BEE           02247         DECFSZ          COUNT4,F
081A   2816           02248         GOTO            SB0B
                      02249 
081B   082A           02250         MOVFW           TEMPFILE
081C   05AD           02251         ANDWF           DRAM+01,F
                      02252 
                      02253 
081D   086D           02254         MOVFW           SHCNT
081E   00EE           02255         MOVWF           COUNT4  
081F   30FF           02256         MOVLW           0XFF
0820   00AA           02257         MOVWF           TEMPFILE
                      02258 
0821                  02259 SB0C
Warning[211]: Extraneous arguments on the line.
MPASM  5.51                 HUB12_SCROLL3.ASM   5-30-2019  14:22:53         PAGE 51


LOC  OBJECT CODE     LINE SOURCE TEXT
  VALUE

0821   1403           02260         SETC            1
Message[305]: Using default destination of 1 (file).
0822   0DE0           02261         RLF                     DRAM+34
Message[305]: Using default destination of 1 (file).
0823   0DAA           02262         RLF                     TEMPFILE
0824   0BEE           02263         DECFSZ          COUNT4,F        
0825   2821           02264         GOTO            SB0C
                      02265 
0826   082A           02266         MOVFW           TEMPFILE
0827   05DC           02267         ANDWF           DRAM+30,F
                      02268 
0828   086D           02269         MOVFW           SHCNT
0829   00EE           02270         MOVWF           COUNT4
082A   30FF           02271         MOVLW           0XFF
082B   00AA           02272         MOVWF           TEMPFILE
                      02273 
082C                  02274 SB0D
Warning[211]: Extraneous arguments on the line.
082C   1403           02275         SETC            1
Message[305]: Using default destination of 1 (file).
082D   0DD0           02276         RLF                     DRAM+24
Message[305]: Using default destination of 1 (file).
082E   0DAA           02277         RLF                     TEMPFILE
082F   0BEE           02278         DECFSZ          COUNT4,F
0830   282C           02279         GOTO            SB0D
                      02280 
0831   082A           02281         MOVFW           TEMPFILE
0832   05CC           02282         ANDWF           DRAM+20,F
                      02283         
0833   086D           02284         MOVFW           SHCNT
0834   00EE           02285         MOVWF           COUNT4
0835   30FF           02286         MOVLW           0XFF
0836   00AA           02287         MOVWF           TEMPFILE
                      02288 
0837                  02289 SB0E
Warning[211]: Extraneous arguments on the line.
0837   1403           02290         SETC            1
Message[305]: Using default destination of 1 (file).
0838   0DC0           02291         RLF                     DRAM+14
Message[305]: Using default destination of 1 (file).
0839   0DAA           02292         RLF                     TEMPFILE
083A   0BEE           02293         DECFSZ          COUNT4,F
083B   2837           02294         GOTO            SB0E
                      02295 
083C   082A           02296         MOVFW           TEMPFILE
083D   05BC           02297         ANDWF           DRAM+10,F
                      02298         
083E   086D           02299         MOVFW           SHCNT
083F   00EE           02300         MOVWF           COUNT4  
0840   30FF           02301         MOVLW           0XFF
0841   00AA           02302         MOVWF           TEMPFILE
                      02303 
0842                  02304 SB0F
MPASM  5.51                 HUB12_SCROLL3.ASM   5-30-2019  14:22:53         PAGE 52


LOC  OBJECT CODE     LINE SOURCE TEXT
  VALUE

Warning[211]: Extraneous arguments on the line.
0842   1403           02305         SETC            1
Message[305]: Using default destination of 1 (file).
0843   0DB0           02306         RLF                     DRAM+04
Message[305]: Using default destination of 1 (file).
0844   0DAA           02307         RLF                     TEMPFILE
0845   0BEE           02308         DECFSZ          COUNT4,F
0846   2842           02309         GOTO            SB0F
                      02310 
0847   082A           02311         MOVFW           TEMPFILE
Message[305]: Using default destination of 1 (file).
0848   05AC           02312         ANDWF           DRAM+00,
                      02313 
Warning[203]: Found opcode in column 1. (RETURN)
0849   0008           02314 RETURN
                      02315 
                      02316 
084A                  02317 SHIFTL_GRPC
084A   0877           02318         MOVFW           ROW
084B   0272           02319         SUBWF           TESTER,W
084C   1903           02320         BTFSC           STATUS,Z
084D   28A7           02321         GOTO            SC08_FLAG
                      02322 
084E   086D           02323         MOVFW           SHCNT
084F   00EE           02324         MOVWF           COUNT4
0850   30FF           02325         MOVLW           0XFF
0851   00AA           02326         MOVWF           TEMPFILE
                      02327 
0852                  02328 SC00
Warning[211]: Extraneous arguments on the line.
0852   1403           02329         SETC            1
Message[305]: Using default destination of 1 (file).
0853   0DE7           02330         RLF                     DRAM+3B
Message[305]: Using default destination of 1 (file).
0854   0DAA           02331         RLF                     TEMPFILE
Message[305]: Using default destination of 1 (file).
0855   0BEE           02332         DECFSZ          COUNT4
0856   2852           02333         GOTO            SC00
                      02334 
0857   082A           02335         MOVFW           TEMPFILE
0858   05E3           02336         ANDWF           DRAM+37,F
                      02337 
                      02338 
0859   086D           02339         MOVFW           SHCNT
085A   00EE           02340         MOVWF           COUNT4
085B   30FF           02341         MOVLW           0XFF
085C   00AA           02342         MOVWF           TEMPFILE
                      02343 
085D                  02344 SC01
Warning[211]: Extraneous arguments on the line.
085D   1403           02345         SETC            1
Message[305]: Using default destination of 1 (file).
085E   0DD7           02346         RLF                     DRAM+2B
MPASM  5.51                 HUB12_SCROLL3.ASM   5-30-2019  14:22:53         PAGE 53


LOC  OBJECT CODE     LINE SOURCE TEXT
  VALUE

Message[305]: Using default destination of 1 (file).
085F   0DAA           02347         RLF                     TEMPFILE
Message[305]: Using default destination of 1 (file).
0860   0BEE           02348         DECFSZ          COUNT4
0861   285D           02349         GOTO            SC01
                      02350 
0862   082A           02351         MOVFW           TEMPFILE
0863   05D3           02352         ANDWF           DRAM+27,F
                      02353 
                      02354         
0864   086D           02355         MOVFW           SHCNT
0865   00EE           02356         MOVWF           COUNT4
0866   30FF           02357         MOVLW           0XFF
0867   00AA           02358         MOVWF           TEMPFILE
                      02359         
                      02360 
0868                  02361 SC02
Warning[211]: Extraneous arguments on the line.
0868   1403           02362         SETC            1
Message[305]: Using default destination of 1 (file).
0869   0DC7           02363         RLF                     DRAM+1B
Message[305]: Using default destination of 1 (file).
086A   0DAA           02364         RLF                     TEMPFILE
Message[305]: Using default destination of 1 (file).
086B   0BEE           02365         DECFSZ          COUNT4
086C   2868           02366         GOTO            SC02
                      02367 
086D   082A           02368         MOVFW           TEMPFILE
086E   05C3           02369         ANDWF           DRAM+17,F
                      02370 
                      02371 
086F   086D           02372         MOVFW           SHCNT
0870   00EE           02373         MOVWF           COUNT4
0871   30FF           02374         MOVLW           0XFF
0872   00AA           02375         MOVWF           TEMPFILE
                      02376 
0873                  02377 SC03
Warning[211]: Extraneous arguments on the line.
0873   1403           02378         SETC            1
Message[305]: Using default destination of 1 (file).
0874   0DB7           02379         RLF                     DRAM+0B
Message[305]: Using default destination of 1 (file).
0875   0DAA           02380         RLF                     TEMPFILE
Message[305]: Using default destination of 1 (file).
0876   0BEE           02381         DECFSZ          COUNT4
0877   2873           02382         GOTO            SC03
                      02383 
0878   082A           02384         MOVFW           TEMPFILE
0879   05B3           02385         ANDWF           DRAM+07,F
                      02386 
                      02387 
087A   086D           02388         MOVFW           SHCNT
087B   00EE           02389         MOVWF           COUNT4
MPASM  5.51                 HUB12_SCROLL3.ASM   5-30-2019  14:22:53         PAGE 54


LOC  OBJECT CODE     LINE SOURCE TEXT
  VALUE

087C   30FF           02390         MOVLW           0XFF
087D   00AA           02391         MOVWF           TEMPFILE
                      02392 
087E                  02393 SC04
Warning[211]: Extraneous arguments on the line.
087E   1403           02394         SETC            1
Message[305]: Using default destination of 1 (file).
087F   0DE6           02395         RLF                     DRAM+3A
Message[305]: Using default destination of 1 (file).
0880   0DAA           02396         RLF                     TEMPFILE
Message[305]: Using default destination of 1 (file).
0881   0BEE           02397         DECFSZ          COUNT4
0882   287E           02398         GOTO            SC04
                      02399 
0883   082A           02400         MOVFW           TEMPFILE
0884   05E2           02401         ANDWF           DRAM+36,F
                      02402         
                      02403 
0885   086D           02404         MOVFW           SHCNT
0886   00EE           02405         MOVWF           COUNT4  
0887   30FF           02406         MOVLW           0XFF
0888   00AA           02407         MOVWF           TEMPFILE
                      02408 
0889                  02409 SC05
Warning[211]: Extraneous arguments on the line.
0889   1403           02410         SETC            1
Message[305]: Using default destination of 1 (file).
088A   0DD6           02411         RLF                     DRAM+2A
Message[305]: Using default destination of 1 (file).
088B   0DAA           02412         RLF                     TEMPFILE
Message[305]: Using default destination of 1 (file).
088C   0BEE           02413         DECFSZ          COUNT4
088D   2889           02414         GOTO            SC05
                      02415 
088E   082A           02416         MOVFW           TEMPFILE
088F   05D2           02417         ANDWF           DRAM+26,F
                      02418 
                      02419         
0890   086D           02420         MOVFW           SHCNT
0891   00EE           02421         MOVWF           COUNT4
0892   30FF           02422         MOVLW           0XFF
0893   00AA           02423         MOVWF           TEMPFILE
                      02424         
0894                  02425 SC06
Warning[211]: Extraneous arguments on the line.
0894   1403           02426         SETC            1
Message[305]: Using default destination of 1 (file).
0895   0DC6           02427         RLF                     DRAM+1A
Message[305]: Using default destination of 1 (file).
0896   0DAA           02428         RLF                     TEMPFILE
Message[305]: Using default destination of 1 (file).
0897   0BEE           02429         DECFSZ          COUNT4
0898   2894           02430         GOTO            SC06
MPASM  5.51                 HUB12_SCROLL3.ASM   5-30-2019  14:22:53         PAGE 55


LOC  OBJECT CODE     LINE SOURCE TEXT
  VALUE

                      02431 
0899   082A           02432         MOVFW           TEMPFILE
089A   05C2           02433         ANDWF           DRAM+16,F
                      02434 
                      02435         
089B   086D           02436         MOVFW           SHCNT
089C   00EE           02437         MOVWF           COUNT4
089D   30FF           02438         MOVLW           0XFF
089E   00AA           02439         MOVWF           TEMPFILE
                      02440 
089F                  02441 SC07
Warning[211]: Extraneous arguments on the line.
089F   1403           02442         SETC            1
Message[305]: Using default destination of 1 (file).
08A0   0DB6           02443         RLF                     DRAM+0A
Message[305]: Using default destination of 1 (file).
08A1   0DAA           02444         RLF                     TEMPFILE
Message[305]: Using default destination of 1 (file).
08A2   0BEE           02445         DECFSZ          COUNT4
08A3   289F           02446         GOTO            SC07
                      02447 
08A4   082A           02448         MOVFW           TEMPFILE
08A5   05B2           02449         ANDWF           DRAM+06,F
                      02450 
Warning[203]: Found opcode in column 1. (RETURN)
08A6   0008           02451 RETURN
                      02452 
08A7                  02453 SC08_FLAG
                      02454 
08A7   086D           02455         MOVFW           SHCNT
08A8   00EE           02456         MOVWF           COUNT4
08A9   30FF           02457         MOVLW           0XFF
08AA   00AA           02458         MOVWF           TEMPFILE
08AB                  02459 SC08
Warning[211]: Extraneous arguments on the line.
08AB   1403           02460         SETC            1
Message[305]: Using default destination of 1 (file).
08AC   0DE5           02461         RLF                     DRAM+39
Message[305]: Using default destination of 1 (file).
08AD   0DAA           02462         RLF                     TEMPFILE
Message[305]: Using default destination of 1 (file).
08AE   0BEE           02463         DECFSZ          COUNT4
08AF   28AB           02464         GOTO            SC08
                      02465 
08B0   082A           02466         MOVFW           TEMPFILE
08B1   05E1           02467         ANDWF           DRAM+35,F
                      02468 
                      02469 
08B2   086D           02470         MOVFW           SHCNT
08B3   00EE           02471         MOVWF           COUNT4
08B4   30FF           02472         MOVLW           0XFF
08B5   00AA           02473         MOVWF           TEMPFILE
                      02474 
MPASM  5.51                 HUB12_SCROLL3.ASM   5-30-2019  14:22:53         PAGE 56


LOC  OBJECT CODE     LINE SOURCE TEXT
  VALUE

08B6                  02475 SC09
Warning[211]: Extraneous arguments on the line.
08B6   1403           02476         SETC            1
Message[305]: Using default destination of 1 (file).
08B7   0DD5           02477         RLF                     DRAM+29
Message[305]: Using default destination of 1 (file).
08B8   0DAA           02478         RLF                     TEMPFILE
Message[305]: Using default destination of 1 (file).
08B9   0BEE           02479         DECFSZ          COUNT4
08BA   28B6           02480         GOTO            SC09
                      02481 
08BB   082A           02482         MOVFW           TEMPFILE
08BC   05D1           02483         ANDWF           DRAM+25,F
                      02484 
                      02485 
08BD   086D           02486         MOVFW           SHCNT
08BE   00EE           02487         MOVWF           COUNT4
08BF   30FF           02488         MOVLW           0XFF
08C0   00AA           02489         MOVWF           TEMPFILE
                      02490 
08C1                  02491 SC0A
Warning[211]: Extraneous arguments on the line.
08C1   1403           02492         SETC            1
Message[305]: Using default destination of 1 (file).
08C2   0DC5           02493         RLF                     DRAM+19
Message[305]: Using default destination of 1 (file).
08C3   0DAA           02494         RLF                     TEMPFILE
Message[305]: Using default destination of 1 (file).
08C4   0BEE           02495         DECFSZ          COUNT4
08C5   28C1           02496         GOTO            SC0A
                      02497 
08C6   082A           02498         MOVFW           TEMPFILE
08C7   05C1           02499         ANDWF           DRAM+15,F
                      02500 
                      02501 
08C8   086D           02502         MOVFW           SHCNT
08C9   00EE           02503         MOVWF           COUNT4
08CA   30FF           02504         MOVLW           0XFF
08CB   00AA           02505         MOVWF           TEMPFILE
                      02506 
08CC                  02507 SC0B
Warning[211]: Extraneous arguments on the line.
08CC   1403           02508         SETC            1
Message[305]: Using default destination of 1 (file).
08CD   0DB5           02509         RLF                     DRAM+09
Message[305]: Using default destination of 1 (file).
08CE   0DAA           02510         RLF                     TEMPFILE
Message[305]: Using default destination of 1 (file).
08CF   0BEE           02511         DECFSZ          COUNT4
08D0   28CC           02512         GOTO            SC0B
                      02513 
08D1   082A           02514         MOVFW           TEMPFILE
08D2   05B1           02515         ANDWF           DRAM+05,F
MPASM  5.51                 HUB12_SCROLL3.ASM   5-30-2019  14:22:53         PAGE 57


LOC  OBJECT CODE     LINE SOURCE TEXT
  VALUE

                      02516 
                      02517 
08D3   086D           02518         MOVFW           SHCNT
08D4   00EE           02519         MOVWF           COUNT4
08D5   30FF           02520         MOVLW           0XFF
08D6   00AA           02521         MOVWF           TEMPFILE
                      02522 
08D7                  02523 SC0C
Warning[211]: Extraneous arguments on the line.
08D7   1403           02524         SETC            1
Message[305]: Using default destination of 1 (file).
08D8   0DE4           02525         RLF                     DRAM+38
Message[305]: Using default destination of 1 (file).
08D9   0DAA           02526         RLF                     TEMPFILE
Message[305]: Using default destination of 1 (file).
08DA   0BEE           02527         DECFSZ          COUNT4
08DB   28D7           02528         GOTO            SC0C
                      02529 
08DC   082A           02530         MOVFW           TEMPFILE
08DD   05E0           02531         ANDWF           DRAM+34,F
                      02532 
                      02533 
08DE   086D           02534         MOVFW           SHCNT
08DF   00EE           02535         MOVWF           COUNT4
08E0   30FF           02536         MOVLW           0XFF
08E1   00AA           02537         MOVWF           TEMPFILE
                      02538 
08E2                  02539 SC0D
Warning[211]: Extraneous arguments on the line.
08E2   1403           02540         SETC            1
Message[305]: Using default destination of 1 (file).
08E3   0DD4           02541         RLF                     DRAM+28
Message[305]: Using default destination of 1 (file).
08E4   0DAA           02542         RLF                     TEMPFILE
Message[305]: Using default destination of 1 (file).
08E5   0BEE           02543         DECFSZ          COUNT4
08E6   28E2           02544         GOTO            SC0D
                      02545 
08E7   082A           02546         MOVFW           TEMPFILE
08E8   05D0           02547         ANDWF           DRAM+24,F
                      02548 
08E9   086D           02549         MOVFW           SHCNT
08EA   00EE           02550         MOVWF           COUNT4
08EB   30FF           02551         MOVLW           0XFF
08EC   00AA           02552         MOVWF           TEMPFILE
                      02553 
08ED                  02554 SC0E
Warning[211]: Extraneous arguments on the line.
08ED   1403           02555         SETC            1
Message[305]: Using default destination of 1 (file).
08EE   0DC4           02556         RLF                     DRAM+18
Message[305]: Using default destination of 1 (file).
08EF   0DAA           02557         RLF                     TEMPFILE
MPASM  5.51                 HUB12_SCROLL3.ASM   5-30-2019  14:22:53         PAGE 58


LOC  OBJECT CODE     LINE SOURCE TEXT
  VALUE

Message[305]: Using default destination of 1 (file).
08F0   0BEE           02558         DECFSZ          COUNT4
08F1   28ED           02559         GOTO            SC0E
                      02560 
08F2   082A           02561         MOVFW           TEMPFILE
08F3   05C0           02562         ANDWF           DRAM+14,F
                      02563         
08F4   086D           02564         MOVFW           SHCNT
08F5   00EE           02565         MOVWF           COUNT4
08F6   30FF           02566         MOVLW           0XFF
08F7   00AA           02567         MOVWF           TEMPFILE
                      02568 
08F8                  02569 SC0F
Warning[211]: Extraneous arguments on the line.
08F8   1403           02570         SETC            1
Message[305]: Using default destination of 1 (file).
08F9   0DB4           02571         RLF                     DRAM+08
Message[305]: Using default destination of 1 (file).
08FA   0DAA           02572         RLF                     TEMPFILE
Message[305]: Using default destination of 1 (file).
08FB   0BEE           02573         DECFSZ          COUNT4
08FC   28F8           02574         GOTO            SC0F
                      02575 
08FD   082A           02576         MOVFW           TEMPFILE
08FE   05B0           02577         ANDWF           DRAM+04,F
                      02578 
                      02579 
Warning[203]: Found opcode in column 1. (RETURN)
08FF   0008           02580 RETURN
                      02581 
                      02582 
Warning[205]: Found directive in column 1. (ORG)
0900                  02583 ORG     0X900
0900                  02584 SHIFTL_GRPD
                      02585 
0900   0877           02586         MOVFW           ROW
0901   0272           02587         SUBWF           TESTER,W
0902   1903           02588         BTFSC           STATUS,Z
0903   295D           02589         GOTO            SD08_FLAG
0904   086D           02590         MOVFW           SHCNT
0905   00EE           02591         MOVWF           COUNT4
0906   30FF           02592         MOVLW           0XFF
0907   00AA           02593         MOVWF           TEMPFILE
                      02594 
0908                  02595 SD00
Warning[211]: Extraneous arguments on the line.
0908   1403           02596         SETC            1
Message[305]: Using default destination of 1 (file).
0909   0DEB           02597         RLF                     DRAM+3F
Message[305]: Using default destination of 1 (file).
090A   0DAA           02598         RLF                     TEMPFILE
090B   0BEE           02599         DECFSZ          COUNT4,F
090C   2908           02600         GOTO            SD00
MPASM  5.51                 HUB12_SCROLL3.ASM   5-30-2019  14:22:53         PAGE 59


LOC  OBJECT CODE     LINE SOURCE TEXT
  VALUE

                      02601 
090D   082A           02602         MOVFW           TEMPFILE
090E   05E7           02603         ANDWF           DRAM+3B,F
                      02604 
                      02605 
090F   086D           02606         MOVFW           SHCNT
0910   00EE           02607         MOVWF           COUNT4
0911   30FF           02608         MOVLW           0XFF
0912   00AA           02609         MOVWF           TEMPFILE
                      02610 
0913                  02611 SD01
Warning[211]: Extraneous arguments on the line.
0913   1403           02612         SETC            1
Message[305]: Using default destination of 1 (file).
0914   0DDB           02613         RLF                     DRAM+2F
Message[305]: Using default destination of 1 (file).
0915   0DAA           02614         RLF                     TEMPFILE
0916   0BEE           02615         DECFSZ          COUNT4,F
0917   2913           02616         GOTO            SD01
                      02617 
0918   082A           02618         MOVFW           TEMPFILE
0919   05D7           02619         ANDWF           DRAM+2B,F
                      02620 
                      02621 
091A   086D           02622         MOVFW           SHCNT
091B   00EE           02623         MOVWF           COUNT4
091C   30FF           02624         MOVLW           0XFF
091D   00AA           02625         MOVWF           TEMPFILE
                      02626 
091E                  02627 SD02
Warning[211]: Extraneous arguments on the line.
091E   1403           02628         SETC            1
Message[305]: Using default destination of 1 (file).
091F   0DCB           02629         RLF                     DRAM+1F
Message[305]: Using default destination of 1 (file).
0920   0DAA           02630         RLF                     TEMPFILE
0921   0BEE           02631         DECFSZ          COUNT4,F
0922   291E           02632         GOTO            SD02
                      02633 
0923   082A           02634         MOVFW           TEMPFILE
0924   05C7           02635         ANDWF           DRAM+1B,F
                      02636 
0925   086D           02637         MOVFW           SHCNT
0926   00EE           02638         MOVWF           COUNT4
0927   30FF           02639         MOVLW           0XFF
0928   00AA           02640         MOVWF           TEMPFILE
                      02641 
0929                  02642 SD03
Warning[211]: Extraneous arguments on the line.
0929   1403           02643         SETC            1
Message[305]: Using default destination of 1 (file).
092A   0DBB           02644         RLF                     DRAM+0F
Message[305]: Using default destination of 1 (file).
MPASM  5.51                 HUB12_SCROLL3.ASM   5-30-2019  14:22:53         PAGE 60


LOC  OBJECT CODE     LINE SOURCE TEXT
  VALUE

092B   0DAA           02645         RLF                     TEMPFILE
092C   0BEE           02646         DECFSZ          COUNT4,F
092D   2929           02647         GOTO            SD03
                      02648 
092E   082A           02649         MOVFW           TEMPFILE
092F   05B7           02650         ANDWF           DRAM+0B,F
                      02651 
                      02652 
0930   086D           02653         MOVFW           SHCNT
0931   00EE           02654         MOVWF           COUNT4
0932   30FF           02655         MOVLW           0XFF
0933   00AA           02656         MOVWF           TEMPFILE
                      02657 
0934                  02658 SD04
Warning[211]: Extraneous arguments on the line.
0934   1403           02659         SETC            1
Message[305]: Using default destination of 1 (file).
0935   0DEA           02660         RLF                     DRAM+3E
Message[305]: Using default destination of 1 (file).
0936   0DAA           02661         RLF                     TEMPFILE
0937   0BEE           02662         DECFSZ          COUNT4,F
0938   2934           02663         GOTO            SD04
                      02664 
0939   082A           02665         MOVFW           TEMPFILE
093A   05E6           02666         ANDWF           DRAM+3A,F
                      02667 
093B   086D           02668         MOVFW           SHCNT
093C   00EE           02669         MOVWF           COUNT4
093D   30FF           02670         MOVLW           0XFF
093E   00AA           02671         MOVWF           TEMPFILE
                      02672 
093F                  02673 SD05
Warning[211]: Extraneous arguments on the line.
093F   1403           02674         SETC            1
Message[305]: Using default destination of 1 (file).
0940   0DDA           02675         RLF                     DRAM+2E
Message[305]: Using default destination of 1 (file).
0941   0DAA           02676         RLF                     TEMPFILE
0942   0BEE           02677         DECFSZ          COUNT4,F
0943   293F           02678         GOTO            SD05
                      02679 
0944   082A           02680         MOVFW           TEMPFILE
0945   05D6           02681         ANDWF           DRAM+2A,F
                      02682 
                      02683 
0946   086D           02684         MOVFW           SHCNT
0947   00EE           02685         MOVWF           COUNT4
0948   30FF           02686         MOVLW           0XFF
0949   00AA           02687         MOVWF           TEMPFILE
                      02688 
094A                  02689 SD06
Warning[211]: Extraneous arguments on the line.
094A   1403           02690         SETC            1
MPASM  5.51                 HUB12_SCROLL3.ASM   5-30-2019  14:22:53         PAGE 61


LOC  OBJECT CODE     LINE SOURCE TEXT
  VALUE

Message[305]: Using default destination of 1 (file).
094B   0DCA           02691         RLF                     DRAM+1E
Message[305]: Using default destination of 1 (file).
094C   0DAA           02692         RLF                     TEMPFILE
094D   0BEE           02693         DECFSZ          COUNT4,F
094E   294A           02694         GOTO            SD06
                      02695 
094F   082A           02696         MOVFW           TEMPFILE
0950   05C6           02697         ANDWF           DRAM+1A,F
                      02698 
                      02699 
0951   086D           02700         MOVFW           SHCNT
0952   00EE           02701         MOVWF           COUNT4  
0953   30FF           02702         MOVLW           0XFF
0954   00AA           02703         MOVWF           TEMPFILE
                      02704 
0955                  02705 SD07
Warning[211]: Extraneous arguments on the line.
0955   1403           02706         SETC            1
Message[305]: Using default destination of 1 (file).
0956   0DBA           02707         RLF                     DRAM+0E
Message[305]: Using default destination of 1 (file).
0957   0DAA           02708         RLF                     TEMPFILE
0958   0BEE           02709         DECFSZ          COUNT4,F
0959   2955           02710         GOTO            SD07
                      02711 
095A   082A           02712         MOVFW           TEMPFILE
095B   05B6           02713         ANDWF           DRAM+0A,F
                      02714 
Warning[203]: Found opcode in column 1. (RETURN)
095C   0008           02715 RETURN
                      02716 
095D                  02717 SD08_FLAG
                      02718 
095D   086D           02719         MOVFW           SHCNT
095E   00EE           02720         MOVWF           COUNT4
095F   30FF           02721         MOVLW           0XFF
0960   00AA           02722         MOVWF           TEMPFILE
                      02723 
0961                  02724 SD08
Warning[211]: Extraneous arguments on the line.
0961   1403           02725         SETC            1
Message[305]: Using default destination of 1 (file).
0962   0DE9           02726         RLF                     DRAM+3D
Message[305]: Using default destination of 1 (file).
0963   0DAA           02727         RLF                     TEMPFILE
0964   0BEE           02728         DECFSZ          COUNT4,F
0965   2961           02729         GOTO            SD08
                      02730 
0966   082A           02731         MOVFW           TEMPFILE
0967   05E5           02732         ANDWF           DRAM+39,F
                      02733 
                      02734 
MPASM  5.51                 HUB12_SCROLL3.ASM   5-30-2019  14:22:53         PAGE 62


LOC  OBJECT CODE     LINE SOURCE TEXT
  VALUE

0968   086D           02735         MOVFW           SHCNT
0969   00EE           02736         MOVWF           COUNT4
096A   30FF           02737         MOVLW           0XFF
096B   00AA           02738         MOVWF           TEMPFILE
                      02739 
096C                  02740 SD09
Warning[211]: Extraneous arguments on the line.
096C   1403           02741         SETC            1
Message[305]: Using default destination of 1 (file).
096D   0DD9           02742         RLF                     DRAM+2D
Message[305]: Using default destination of 1 (file).
096E   0DAA           02743         RLF                     TEMPFILE
096F   0BEE           02744         DECFSZ          COUNT4,F
0970   296C           02745         GOTO            SD09
                      02746 
0971   082A           02747         MOVFW           TEMPFILE
0972   05D5           02748         ANDWF           DRAM+29,F
                      02749 
                      02750 
0973   086D           02751         MOVFW           SHCNT
0974   00EE           02752         MOVWF           COUNT4
0975   30FF           02753         MOVLW           0XFF
0976   00AA           02754         MOVWF           TEMPFILE
                      02755 
0977                  02756 SD0A
Warning[211]: Extraneous arguments on the line.
0977   1403           02757         SETC            1
Message[305]: Using default destination of 1 (file).
0978   0DC9           02758         RLF                     DRAM+1D
Message[305]: Using default destination of 1 (file).
0979   0DAA           02759         RLF                     TEMPFILE
097A   0BEE           02760         DECFSZ          COUNT4,F
097B   2977           02761         GOTO            SD0A
                      02762 
097C   082A           02763         MOVFW           TEMPFILE
097D   05C5           02764         ANDWF           DRAM+19,F
                      02765 
                      02766 
097E   086D           02767         MOVFW           SHCNT
097F   00EE           02768         MOVWF           COUNT4
0980   30FF           02769         MOVLW           0XFF
0981   00AA           02770         MOVWF           TEMPFILE
                      02771 
0982                  02772 SD0B
Warning[211]: Extraneous arguments on the line.
0982   1403           02773         SETC            1
Message[305]: Using default destination of 1 (file).
0983   0DB9           02774         RLF                     DRAM+0D
Message[305]: Using default destination of 1 (file).
0984   0DAA           02775         RLF                     TEMPFILE
0985   0BEE           02776         DECFSZ          COUNT4,F
0986   2982           02777         GOTO            SD0B
                      02778 
MPASM  5.51                 HUB12_SCROLL3.ASM   5-30-2019  14:22:53         PAGE 63


LOC  OBJECT CODE     LINE SOURCE TEXT
  VALUE

0987   082A           02779         MOVFW           TEMPFILE
0988   05B5           02780         ANDWF           DRAM+09,F
                      02781 
                      02782 
0989   086D           02783         MOVFW           SHCNT
098A   00EE           02784         MOVWF           COUNT4
098B   30FF           02785         MOVLW           0XFF
098C   00AA           02786         MOVWF           TEMPFILE
                      02787 
098D                  02788 SD0C
Warning[211]: Extraneous arguments on the line.
098D   1403           02789         SETC            1
Message[305]: Using default destination of 1 (file).
098E   0DE8           02790         RLF                     DRAM+3C
Message[305]: Using default destination of 1 (file).
098F   0DAA           02791         RLF                     TEMPFILE
0990   0BEE           02792         DECFSZ          COUNT4,F
0991   298D           02793         GOTO            SD0C
                      02794 
0992   082A           02795         MOVFW           TEMPFILE
0993   05E4           02796         ANDWF           DRAM+38,F
                      02797 
                      02798 
0994   086D           02799         MOVFW           SHCNT
0995   00EE           02800         MOVWF           COUNT4
0996   30FF           02801         MOVLW           0XFF
0997   00AA           02802         MOVWF           TEMPFILE
                      02803 
0998                  02804 SD0D
Warning[211]: Extraneous arguments on the line.
0998   1403           02805         SETC            1
Message[305]: Using default destination of 1 (file).
0999   0DD8           02806         RLF                     DRAM+2C
Message[305]: Using default destination of 1 (file).
099A   0DAA           02807         RLF                     TEMPFILE
099B   0BEE           02808         DECFSZ          COUNT4,F
099C   2998           02809         GOTO            SD0D
                      02810 
099D   082A           02811         MOVFW           TEMPFILE
099E   05D4           02812         ANDWF           DRAM+28,F
                      02813 
                      02814 
099F   086D           02815         MOVFW           SHCNT
09A0   00EE           02816         MOVWF           COUNT4
09A1   30FF           02817         MOVLW           0XFF
09A2   00AA           02818         MOVWF           TEMPFILE
                      02819 
09A3                  02820 SD0E
Warning[211]: Extraneous arguments on the line.
09A3   1403           02821         SETC            1
Message[305]: Using default destination of 1 (file).
09A4   0DC8           02822         RLF                     DRAM+1C
Message[305]: Using default destination of 1 (file).
MPASM  5.51                 HUB12_SCROLL3.ASM   5-30-2019  14:22:53         PAGE 64


LOC  OBJECT CODE     LINE SOURCE TEXT
  VALUE

09A5   0DAA           02823         RLF                     TEMPFILE
09A6   0BEE           02824         DECFSZ          COUNT4,F
09A7   29A3           02825         GOTO            SD0E
                      02826 
09A8   082A           02827         MOVFW           TEMPFILE
09A9   05C4           02828         ANDWF           DRAM+18,F
                      02829 
                      02830 
09AA   086D           02831         MOVFW           SHCNT
09AB   00EE           02832         MOVWF           COUNT4
09AC   30FF           02833         MOVLW           0XFF
09AD   00AA           02834         MOVWF           TEMPFILE
                      02835 
09AE                  02836 SD0F
Warning[211]: Extraneous arguments on the line.
09AE   1403           02837         SETC            1
Message[305]: Using default destination of 1 (file).
09AF   0DB8           02838         RLF                     DRAM+0C
Message[305]: Using default destination of 1 (file).
09B0   0DAA           02839         RLF                     TEMPFILE
09B1   0BEE           02840         DECFSZ          COUNT4,F
09B2   29AE           02841         GOTO            SD0F
                      02842 
09B3   082A           02843         MOVFW           TEMPFILE
09B4   05B4           02844         ANDWF           DRAM+08,F
                      02845         
Warning[203]: Found opcode in column 1. (RETURN)
09B5   0008           02846 RETURN
                      02847 ;###############################################################
                      02848 
                      02849 ;#################      SHIFT Y UPWARD ###############################
09B6                  02850 SHIFT_YU
                      02851         
                      02852 
09B6   0870           02853         MOVFW   CURSORY
09B7   1903           02854         BTFSC   STATUS,Z
09B8   0008           02855         RETURN
                      02856         
09B9   1283 1303      02857         BANK0
09BB   0870           02858         MOVFW   CURSORY
09BC   00EC           02859         MOVWF   POINTER
09BD                  02860 YU0
09BD   085F           02861         MOVFW   DRAM + 33
09BE   00AA           02862         MOVWF   TEMPFILE
                      02863         
09BF   084F           02864         MOVFW   DRAM + 23
09C0   00DF           02865         MOVWF   DRAM + 33
                      02866 
09C1   083F           02867         MOVFW   DRAM + 13
09C2   00CF           02868         MOVWF   DRAM + 23
                      02869 
09C3   082F           02870         MOVFW   DRAM + 03
09C4   00BF           02871         MOVWF   DRAM + 13
MPASM  5.51                 HUB12_SCROLL3.ASM   5-30-2019  14:22:53         PAGE 65


LOC  OBJECT CODE     LINE SOURCE TEXT
  VALUE

                      02872 
09C5   085E           02873         MOVFW   DRAM + 32
09C6   00AF           02874         MOVWF   DRAM + 03
                      02875 
09C7   084E           02876         MOVFW   DRAM + 22
09C8   00DE           02877         MOVWF   DRAM + 32
                      02878 
09C9   083E           02879         MOVFW   DRAM + 12
09CA   00CE           02880         MOVWF   DRAM + 22
                      02881 
09CB   082E           02882         MOVFW   DRAM + 02
09CC   00BE           02883         MOVWF   DRAM + 12
                      02884 
09CD   085D           02885         MOVFW   DRAM + 31
09CE   00AE           02886         MOVWF   DRAM + 02
                      02887 
09CF   084D           02888         MOVFW   DRAM + 21
09D0   00DD           02889         MOVWF   DRAM + 31
                      02890 
09D1   083D           02891         MOVFW   DRAM + 11
09D2   00CD           02892         MOVWF   DRAM + 21
                      02893 
09D3   082D           02894         MOVFW   DRAM + 01
09D4   00BD           02895         MOVWF   DRAM + 11
                      02896 
09D5   085C           02897         MOVFW   DRAM + 30
09D6   00AD           02898         MOVWF   DRAM + 01
                      02899 
09D7   084C           02900         MOVFW   DRAM + 20
09D8   00DC           02901         MOVWF   DRAM + 30
                      02902 
09D9   083C           02903         MOVFW   DRAM + 10
09DA   00CC           02904         MOVWF   DRAM + 20
                      02905 
09DB   082C           02906         MOVFW   DRAM + 00
09DC   00BC           02907         MOVWF   DRAM + 10
                      02908         
09DD   30FF           02909         MOVLW   0XFF
09DE   00AC           02910         MOVWF   DRAM+00
                      02911 
                      02912 
09DF   0BEC           02913         DECFSZ  POINTER,F
09E0   29BD           02914         GOTO    YU0
                      02915 
09E1   3002           02916         MOVLW   .2
09E2   00F2           02917         MOVWF   TESTER
                      02918 
09E3   082B           02919         MOVFW   FONT
09E4   0272           02920         SUBWF   TESTER,W
09E5   1D03           02921         BTFSS   STATUS,Z
09E6   0008           02922         RETURN
                      02923 
09E7   300A           02924         MOVLW   .10
MPASM  5.51                 HUB12_SCROLL3.ASM   5-30-2019  14:22:53         PAGE 66


LOC  OBJECT CODE     LINE SOURCE TEXT
  VALUE

09E8   008A           02925         MOVWF   PCLATH
                      02926 
09E9   2296           02927         CALL    SHIFT_YUB
                      02928 
09EA   3009           02929         MOVLW   9
09EB   008A           02930         MOVWF   PCLATH
                      02931         
                      02932 
                      02933         
                      02934 
Warning[203]: Found opcode in column 1. (RETURN)
09EC   0008           02935 RETURN
                      02936 ;#################################################################
                      02937 
                      02938 
                      02939 
                      02940 
Warning[205]: Found directive in column 1. (ORG)
0A00                  02941 ORG 0XA00
                      02942 ;###################  DUMPING OF DATA IN IRAM ##################
                      02943 
0A00                  02944 IDUMP
0A00   3000           02945         MOVLW   .0
0A01   00F4           02946         MOVWF   BTCOUNT
                      02947                 
0A02   1283 1303      02948         BANK0
0A04   082B           02949         MOVFW   FONT
0A05   0782           02950         ADDWF   PCL,F
                      02951 
0A06   2A0A           02952         GOTO    IFONT_0
                      02953         
0A07   2A66           02954         GOTO    IFONT_1
                      02955         
Message[305]: Using default destination of 1 (file).
0A08   0A8A           02956         INCF    PCLATH
                      02957 
0A09   2B00           02958         GOTO    IFONT_2
                      02959 
                      02960 
                      02961 
0A0A                  02962 IFONT_0
0A0A   1683 1303      02963         BANK1
                      02964 
0A0C   3001           02965         MOVLW   1
0A0D   008A           02966         MOVWF   PCLATH
Message[306]: Crossing page boundary -- ensure page bits are set.
0A0E   21AC           02967         CALL    CHAR
Message[302]: Register in operand not in bank 0.  Ensure that bank bits are correct.
0A0F   00E1           02968         MOVWF   IWIDTH
Message[305]: Using default destination of 1 (file).
0A10   0AF4           02969         INCF    BTCOUNT
                      02970 
0A11   3001           02971         MOVLW   1
MPASM  5.51                 HUB12_SCROLL3.ASM   5-30-2019  14:22:53         PAGE 67


LOC  OBJECT CODE     LINE SOURCE TEXT
  VALUE

0A12   008A           02972         MOVWF   PCLATH
Message[306]: Crossing page boundary -- ensure page bits are set.
0A13   21AC           02973         CALL    CHAR
Message[302]: Register in operand not in bank 0.  Ensure that bank bits are correct.
0A14   00D3           02974         MOVWF   IRAM+33
Message[305]: Using default destination of 1 (file).
0A15   0AF4           02975         INCF    BTCOUNT
                      02976 
0A16   3001           02977         MOVLW   1
0A17   008A           02978         MOVWF   PCLATH  
Message[306]: Crossing page boundary -- ensure page bits are set.
0A18   21AC           02979         CALL    CHAR
Message[302]: Register in operand not in bank 0.  Ensure that bank bits are correct.
0A19   00C3           02980         MOVWF   IRAM+23
Message[305]: Using default destination of 1 (file).
0A1A   0AF4           02981         INCF    BTCOUNT
                      02982 
0A1B   3001           02983         MOVLW   1
0A1C   008A           02984         MOVWF   PCLATH
Message[306]: Crossing page boundary -- ensure page bits are set.
0A1D   21AC           02985         CALL    CHAR
Message[302]: Register in operand not in bank 0.  Ensure that bank bits are correct.
0A1E   00B3           02986         MOVWF   IRAM+13
Message[305]: Using default destination of 1 (file).
0A1F   0AF4           02987         INCF    BTCOUNT
                      02988 
0A20   3001           02989         MOVLW   1
0A21   008A           02990         MOVWF   PCLATH
Message[306]: Crossing page boundary -- ensure page bits are set.
0A22   21AC           02991         CALL    CHAR
Message[302]: Register in operand not in bank 0.  Ensure that bank bits are correct.
0A23   00A3           02992         MOVWF   IRAM+03
Message[305]: Using default destination of 1 (file).
0A24   0AF4           02993         INCF    BTCOUNT
                      02994 
0A25   3001           02995         MOVLW   1
0A26   008A           02996         MOVWF   PCLATH
Message[306]: Crossing page boundary -- ensure page bits are set.
0A27   21AC           02997         CALL    CHAR
Message[302]: Register in operand not in bank 0.  Ensure that bank bits are correct.
0A28   00D2           02998         MOVWF   IRAM+32
Message[305]: Using default destination of 1 (file).
0A29   0AF4           02999         INCF    BTCOUNT
                      03000 
0A2A   3001           03001         MOVLW   1
0A2B   008A           03002         MOVWF   PCLATH
Message[306]: Crossing page boundary -- ensure page bits are set.
0A2C   21AC           03003         CALL    CHAR
Message[302]: Register in operand not in bank 0.  Ensure that bank bits are correct.
0A2D   00C2           03004         MOVWF   IRAM+22
Message[305]: Using default destination of 1 (file).
0A2E   0AF4           03005         INCF    BTCOUNT
                      03006 
MPASM  5.51                 HUB12_SCROLL3.ASM   5-30-2019  14:22:53         PAGE 68


LOC  OBJECT CODE     LINE SOURCE TEXT
  VALUE

0A2F   3001           03007         MOVLW   1
0A30   008A           03008         MOVWF   PCLATH
Message[306]: Crossing page boundary -- ensure page bits are set.
0A31   21AC           03009         CALL    CHAR
Message[302]: Register in operand not in bank 0.  Ensure that bank bits are correct.
0A32   00B2           03010         MOVWF   IRAM+12
Message[305]: Using default destination of 1 (file).
0A33   0AF4           03011         INCF    BTCOUNT
                      03012 
                      03013 
0A34   3001           03014         MOVLW   1
0A35   008A           03015         MOVWF   PCLATH
Message[306]: Crossing page boundary -- ensure page bits are set.
0A36   21AC           03016         CALL    CHAR
Message[302]: Register in operand not in bank 0.  Ensure that bank bits are correct.
0A37   00A2           03017         MOVWF   IRAM+02
Message[305]: Using default destination of 1 (file).
0A38   0AF4           03018         INCF    BTCOUNT
                      03019 
0A39   3001           03020         MOVLW   1
0A3A   008A           03021         MOVWF   PCLATH
Message[306]: Crossing page boundary -- ensure page bits are set.
0A3B   21AC           03022         CALL    CHAR
Message[302]: Register in operand not in bank 0.  Ensure that bank bits are correct.
0A3C   00D1           03023         MOVWF   IRAM+31
Message[305]: Using default destination of 1 (file).
0A3D   0AF4           03024         INCF    BTCOUNT
                      03025 
0A3E   3001           03026         MOVLW   1
0A3F   008A           03027         MOVWF   PCLATH
Message[306]: Crossing page boundary -- ensure page bits are set.
0A40   21AC           03028         CALL    CHAR
Message[302]: Register in operand not in bank 0.  Ensure that bank bits are correct.
0A41   00C1           03029         MOVWF   IRAM+21
Message[305]: Using default destination of 1 (file).
0A42   0AF4           03030         INCF    BTCOUNT
                      03031 
0A43   3001           03032         MOVLW   1
0A44   008A           03033         MOVWF   PCLATH
Message[306]: Crossing page boundary -- ensure page bits are set.
0A45   21AC           03034         CALL    CHAR
Message[302]: Register in operand not in bank 0.  Ensure that bank bits are correct.
0A46   00B1           03035         MOVWF   IRAM+11
Message[305]: Using default destination of 1 (file).
0A47   0AF4           03036         INCF    BTCOUNT
                      03037 
0A48   3001           03038         MOVLW   1
0A49   008A           03039         MOVWF   PCLATH
Message[306]: Crossing page boundary -- ensure page bits are set.
0A4A   21AC           03040         CALL    CHAR
Message[302]: Register in operand not in bank 0.  Ensure that bank bits are correct.
0A4B   00A1           03041         MOVWF   IRAM+01
Message[305]: Using default destination of 1 (file).
MPASM  5.51                 HUB12_SCROLL3.ASM   5-30-2019  14:22:53         PAGE 69


LOC  OBJECT CODE     LINE SOURCE TEXT
  VALUE

0A4C   0AF4           03042         INCF    BTCOUNT
                      03043 
0A4D   3001           03044         MOVLW   1
0A4E   008A           03045         MOVWF   PCLATH
Message[306]: Crossing page boundary -- ensure page bits are set.
0A4F   21AC           03046         CALL    CHAR
Message[302]: Register in operand not in bank 0.  Ensure that bank bits are correct.
0A50   00D0           03047         MOVWF   IRAM+30
Message[305]: Using default destination of 1 (file).
0A51   0AF4           03048         INCF    BTCOUNT
                      03049 
0A52   3001           03050         MOVLW   1
0A53   008A           03051         MOVWF   PCLATH
Message[306]: Crossing page boundary -- ensure page bits are set.
0A54   21AC           03052         CALL    CHAR
Message[302]: Register in operand not in bank 0.  Ensure that bank bits are correct.
0A55   00C0           03053         MOVWF   IRAM+20
Message[305]: Using default destination of 1 (file).
0A56   0AF4           03054         INCF    BTCOUNT
                      03055 
0A57   3001           03056         MOVLW   1
0A58   008A           03057         MOVWF   PCLATH
Message[306]: Crossing page boundary -- ensure page bits are set.
0A59   21AC           03058         CALL    CHAR
Message[302]: Register in operand not in bank 0.  Ensure that bank bits are correct.
0A5A   00B0           03059         MOVWF   IRAM+10
Message[305]: Using default destination of 1 (file).
0A5B   0AF4           03060         INCF    BTCOUNT
                      03061 
0A5C   3001           03062         MOVLW   1
0A5D   008A           03063         MOVWF   PCLATH
Message[306]: Crossing page boundary -- ensure page bits are set.
0A5E   21AC           03064         CALL    CHAR
Message[302]: Register in operand not in bank 0.  Ensure that bank bits are correct.
0A5F   00A0           03065         MOVWF   IRAM+00
Message[305]: Using default destination of 1 (file).
0A60   0AF4           03066         INCF    BTCOUNT
                      03067 
0A61   3000           03068         MOVLW   .0                      ;BACK TO PAGE1
0A62   008A           03069         MOVWF   PCLATH
0A63   1283 1303      03070         BANK0
Warning[203]: Found opcode in column 1. (RETURN)
0A65   0008           03071 RETURN
                      03072 
0A66                  03073 IFONT_1
                      03074         
0A66   3000           03075         MOVLW   .0                      ;BACK TO PAGE1
0A67   008A           03076         MOVWF   PCLATH
0A68   1283 1303      03077         BANK0
0A6A   0008           03078         RETURN
                      03079 ;###################### PLACING DISPLAY NUM ####################
0A6B                  03080 PUTNUM
0A6B   3004           03081         MOVLW   4
MPASM  5.51                 HUB12_SCROLL3.ASM   5-30-2019  14:22:53         PAGE 70


LOC  OBJECT CODE     LINE SOURCE TEXT
  VALUE

0A6C   008A           03082         MOVWF   PCLATH
                      03083         
Message[306]: Crossing page boundary -- ensure page bits are set.
0A6D   2499           03084         CALL    DUMP
                      03085         
0A6E   3009           03086         MOVLW   9
0A6F   008A           03087         MOVWF   PCLATH
                      03088 
0A70   21B6           03089         CALL    SHIFT_YU
                      03090         
                      03091 
0A71   3000           03092         MOVLW   0
0A72   00F7           03093         MOVWF   ROW
                      03094 
0A73   3006           03095         MOVLW   6
0A74   008A           03096         MOVWF   PCLATH
                      03097         
Message[306]: Crossing page boundary -- ensure page bits are set.
0A75   2600           03098         CALL    SHIFTR
                      03099         
0A76   3000           03100         MOVLW   0
0A77   008A           03101         MOVWF   PCLATH
                      03102         
0A78   3001           03103         MOVLW   1
0A79   00F7           03104         MOVWF   ROW
                      03105 
0A7A   3006           03106         MOVLW   6
0A7B   008A           03107         MOVWF   PCLATH
                      03108         
Message[306]: Crossing page boundary -- ensure page bits are set.
0A7C   2600           03109         CALL    SHIFTR
                      03110         
0A7D   3000           03111         MOVLW   0
0A7E   008A           03112         MOVWF   PCLATH
Warning[203]: Found opcode in column 1. (RETURN)
0A7F   0008           03113 RETURN
                      03114 
0A80                  03115 IPUTNUM
0A80   300A           03116         MOVLW   .10
0A81   008A           03117         MOVWF   PCLATH
                      03118         
0A82   2200           03119         CALL    IDUMP
                      03120         
0A83   1683 1303      03121         BANK1
0A85   3000           03122         MOVLW   0
Message[302]: Register in operand not in bank 0.  Ensure that bank bits are correct.
0A86   00E6           03123         MOVWF   IROW
                      03124 
0A87   300D           03125         MOVLW   .13
0A88   008A           03126         MOVWF   PCLATH
                      03127         
0A89   2500           03128         CALL    ISHIFTR
                      03129         
MPASM  5.51                 HUB12_SCROLL3.ASM   5-30-2019  14:22:53         PAGE 71


LOC  OBJECT CODE     LINE SOURCE TEXT
  VALUE

0A8A   3000           03130         MOVLW   0
0A8B   008A           03131         MOVWF   PCLATH
                      03132         
0A8C   1683 1303      03133         BANK1
0A8E   3001           03134         MOVLW   1
Message[302]: Register in operand not in bank 0.  Ensure that bank bits are correct.
0A8F   00E6           03135         MOVWF   IROW
                      03136 
0A90   300D           03137         MOVLW   .13
0A91   008A           03138         MOVWF   PCLATH
                      03139         
0A92   2500           03140         CALL    ISHIFTR
                      03141         
0A93   3000           03142         MOVLW   0
0A94   008A           03143         MOVWF   PCLATH
Warning[203]: Found opcode in column 1. (RETURN)
0A95   0008           03144 RETURN
                      03145 ;###############################################################
                      03146 
                      03147 
0A96                  03148 SHIFT_YUB
0A96   1283 1303      03149         BANK0
0A98   0870           03150         MOVFW   CURSORY
0A99   00EC           03151         MOVWF   POINTER
0A9A                  03152 YU1
0A9A   0863           03153         MOVFW   DRAM + 37
0A9B   00F9           03154         MOVWF   TEMPFILEB
                      03155         
0A9C   0853           03156         MOVFW   DRAM + 27
0A9D   00E3           03157         MOVWF   DRAM + 37
                      03158 
0A9E   0843           03159         MOVFW   DRAM + 17
0A9F   00D3           03160         MOVWF   DRAM + 27
                      03161 
0AA0   0833           03162         MOVFW   DRAM + 07
0AA1   00C3           03163         MOVWF   DRAM + 17
                      03164 
0AA2   0862           03165         MOVFW   DRAM + 36
0AA3   00B3           03166         MOVWF   DRAM + 07
                      03167 
0AA4   0852           03168         MOVFW   DRAM + 26
0AA5   00E2           03169         MOVWF   DRAM + 36
                      03170 
0AA6   0842           03171         MOVFW   DRAM + 16
0AA7   00D2           03172         MOVWF   DRAM + 26
                      03173 
0AA8   0832           03174         MOVFW   DRAM + 06
0AA9   00C2           03175         MOVWF   DRAM + 16
                      03176 
0AAA   0861           03177         MOVFW   DRAM + 35
0AAB   00B2           03178         MOVWF   DRAM + 06
                      03179 
0AAC   0851           03180         MOVFW   DRAM + 25
MPASM  5.51                 HUB12_SCROLL3.ASM   5-30-2019  14:22:53         PAGE 72


LOC  OBJECT CODE     LINE SOURCE TEXT
  VALUE

0AAD   00E1           03181         MOVWF   DRAM + 35
                      03182 
0AAE   0841           03183         MOVFW   DRAM + 15
0AAF   00D1           03184         MOVWF   DRAM + 25
                      03185 
0AB0   0831           03186         MOVFW   DRAM + 05
0AB1   00C1           03187         MOVWF   DRAM + 15
                      03188 
0AB2   0860           03189         MOVFW   DRAM + 34
0AB3   00B1           03190         MOVWF   DRAM + 05
                      03191 
0AB4   0850           03192         MOVFW   DRAM + 24
0AB5   00E0           03193         MOVWF   DRAM + 34
                      03194 
0AB6   0840           03195         MOVFW   DRAM + 14
0AB7   00D0           03196         MOVWF   DRAM + 24
                      03197 
0AB8   0830           03198         MOVFW   DRAM + 04
0AB9   00C0           03199         MOVWF   DRAM + 14
                      03200         
0ABA   30FF           03201         MOVLW   0XFF
0ABB   00B0           03202         MOVWF   DRAM+04
                      03203 
                      03204 
0ABC   0BEC           03205         DECFSZ  POINTER,F
0ABD   2A9A           03206         GOTO    YU1
                      03207 
Warning[203]: Found opcode in column 1. (RETURN)
0ABE   0008           03208 RETURN
                      03209 
                      03210 
                      03211 
Warning[205]: Found directive in column 1. (ORG)
0B00                  03212 ORG 0XB00
                      03213 ;###############################################################
0B00                  03214 IFONT_2
                      03215         
0B00   3003           03216         MOVLW   3
0B01   008A           03217         MOVWF   PCLATH  
Message[306]: Crossing page boundary -- ensure page bits are set.
0B02   2300           03218         CALL    T_CHAR
0B03   1683 1303      03219         BANK1
Message[302]: Register in operand not in bank 0.  Ensure that bank bits are correct.
0B05   00E1           03220         MOVWF   IWIDTH
0B06   1283 1303      03221         BANK0
Message[305]: Using default destination of 1 (file).
0B08   0AF4           03222         INCF    BTCOUNT
                      03223 
0B09   3003           03224         MOVLW   3
0B0A   008A           03225         MOVWF   PCLATH
Message[306]: Crossing page boundary -- ensure page bits are set.
0B0B   2300           03226         CALL    T_CHAR
0B0C   1683 1303      03227         BANK1
MPASM  5.51                 HUB12_SCROLL3.ASM   5-30-2019  14:22:53         PAGE 73


LOC  OBJECT CODE     LINE SOURCE TEXT
  VALUE

Message[302]: Register in operand not in bank 0.  Ensure that bank bits are correct.
0B0E   00D3           03228         MOVWF   IRAM+33
0B0F   1283 1303      03229         BANK0
Message[305]: Using default destination of 1 (file).
0B11   0AF4           03230         INCF    BTCOUNT
                      03231 
0B12   3003           03232         MOVLW   3
0B13   008A           03233         MOVWF   PCLATH
Message[306]: Crossing page boundary -- ensure page bits are set.
0B14   2300           03234         CALL    T_CHAR
0B15   1683 1303      03235         BANK1
Message[302]: Register in operand not in bank 0.  Ensure that bank bits are correct.
0B17   00D7           03236         MOVWF   IRAM+37
0B18   1283 1303      03237         BANK0
Message[305]: Using default destination of 1 (file).
0B1A   0AF4           03238         INCF    BTCOUNT
                      03239         
0B1B   3003           03240         MOVLW   3
0B1C   008A           03241         MOVWF   PCLATH
Message[306]: Crossing page boundary -- ensure page bits are set.
0B1D   2300           03242         CALL    T_CHAR
0B1E   1683 1303      03243         BANK1
Message[302]: Register in operand not in bank 0.  Ensure that bank bits are correct.
0B20   00C3           03244         MOVWF   IRAM+23
0B21   1283 1303      03245         BANK0
Message[305]: Using default destination of 1 (file).
0B23   0AF4           03246         INCF    BTCOUNT
                      03247         
0B24   3003           03248         MOVLW   3
0B25   008A           03249         MOVWF   PCLATH
Message[306]: Crossing page boundary -- ensure page bits are set.
0B26   2300           03250         CALL    T_CHAR
0B27   1683 1303      03251         BANK1
Message[302]: Register in operand not in bank 0.  Ensure that bank bits are correct.
0B29   00C7           03252         MOVWF   IRAM+27
0B2A   1283 1303      03253         BANK0
Message[305]: Using default destination of 1 (file).
0B2C   0AF4           03254         INCF    BTCOUNT
                      03255 
0B2D   3003           03256         MOVLW   3
0B2E   008A           03257         MOVWF   PCLATH
Message[306]: Crossing page boundary -- ensure page bits are set.
0B2F   2300           03258         CALL    T_CHAR
0B30   1683 1303      03259         BANK1
Message[302]: Register in operand not in bank 0.  Ensure that bank bits are correct.
0B32   00B3           03260         MOVWF   IRAM+13
0B33   1283 1303      03261         BANK0
Message[305]: Using default destination of 1 (file).
0B35   0AF4           03262         INCF    BTCOUNT
                      03263         
0B36   3003           03264         MOVLW   3
0B37   008A           03265         MOVWF   PCLATH
Message[306]: Crossing page boundary -- ensure page bits are set.
MPASM  5.51                 HUB12_SCROLL3.ASM   5-30-2019  14:22:53         PAGE 74


LOC  OBJECT CODE     LINE SOURCE TEXT
  VALUE

0B38   2300           03266         CALL    T_CHAR
0B39   1683 1303      03267         BANK1
Message[302]: Register in operand not in bank 0.  Ensure that bank bits are correct.
0B3B   00B7           03268         MOVWF   IRAM+17
0B3C   1283 1303      03269         BANK0
Message[305]: Using default destination of 1 (file).
0B3E   0AF4           03270         INCF    BTCOUNT
                      03271 
0B3F   3003           03272         MOVLW   3
0B40   008A           03273         MOVWF   PCLATH
Message[306]: Crossing page boundary -- ensure page bits are set.
0B41   2300           03274         CALL    T_CHAR
0B42   1683 1303      03275         BANK1
Message[302]: Register in operand not in bank 0.  Ensure that bank bits are correct.
0B44   00A3           03276         MOVWF   IRAM+03
0B45   1283 1303      03277         BANK0
Message[305]: Using default destination of 1 (file).
0B47   0AF4           03278         INCF    BTCOUNT
                      03279 
0B48   3003           03280         MOVLW   3
0B49   008A           03281         MOVWF   PCLATH
Message[306]: Crossing page boundary -- ensure page bits are set.
0B4A   2300           03282         CALL    T_CHAR
0B4B   1683 1303      03283         BANK1
Message[302]: Register in operand not in bank 0.  Ensure that bank bits are correct.
0B4D   00A7           03284         MOVWF   IRAM+07
0B4E   1283 1303      03285         BANK0
Message[305]: Using default destination of 1 (file).
0B50   0AF4           03286         INCF    BTCOUNT
                      03287 
0B51   3003           03288         MOVLW   3
0B52   008A           03289         MOVWF   PCLATH
Message[306]: Crossing page boundary -- ensure page bits are set.
0B53   2300           03290         CALL    T_CHAR
0B54   1683 1303      03291         BANK1
Message[302]: Register in operand not in bank 0.  Ensure that bank bits are correct.
0B56   00D2           03292         MOVWF   IRAM+32
0B57   1283 1303      03293         BANK0
Message[305]: Using default destination of 1 (file).
0B59   0AF4           03294         INCF    BTCOUNT
                      03295 
                      03296 
0B5A   3003           03297         MOVLW   3
0B5B   008A           03298         MOVWF   PCLATH
Message[306]: Crossing page boundary -- ensure page bits are set.
0B5C   2300           03299         CALL    T_CHAR
0B5D   1683 1303      03300         BANK1
Message[302]: Register in operand not in bank 0.  Ensure that bank bits are correct.
0B5F   00D6           03301         MOVWF   IRAM+36
0B60   1283 1303      03302         BANK0
Message[305]: Using default destination of 1 (file).
0B62   0AF4           03303         INCF    BTCOUNT
                      03304 
MPASM  5.51                 HUB12_SCROLL3.ASM   5-30-2019  14:22:53         PAGE 75


LOC  OBJECT CODE     LINE SOURCE TEXT
  VALUE

0B63   3003           03305         MOVLW   3
0B64   008A           03306         MOVWF   PCLATH
Message[306]: Crossing page boundary -- ensure page bits are set.
0B65   2300           03307         CALL    T_CHAR
0B66   1683 1303      03308         BANK1
Message[302]: Register in operand not in bank 0.  Ensure that bank bits are correct.
0B68   00C2           03309         MOVWF   IRAM+22
0B69   1283 1303      03310         BANK0
Message[305]: Using default destination of 1 (file).
0B6B   0AF4           03311         INCF    BTCOUNT
                      03312 
                      03313 
0B6C   3003           03314         MOVLW   3
0B6D   008A           03315         MOVWF   PCLATH
Message[306]: Crossing page boundary -- ensure page bits are set.
0B6E   2300           03316         CALL    T_CHAR
0B6F   1683 1303      03317         BANK1
Message[302]: Register in operand not in bank 0.  Ensure that bank bits are correct.
0B71   00C6           03318         MOVWF   IRAM+26
0B72   1283 1303      03319         BANK0
Message[305]: Using default destination of 1 (file).
0B74   0AF4           03320         INCF    BTCOUNT
                      03321 
                      03322 
0B75   3003           03323         MOVLW   3
0B76   008A           03324         MOVWF   PCLATH
Message[306]: Crossing page boundary -- ensure page bits are set.
0B77   2300           03325         CALL    T_CHAR
0B78   1683 1303      03326         BANK1
Message[302]: Register in operand not in bank 0.  Ensure that bank bits are correct.
0B7A   00B2           03327         MOVWF   IRAM+12
0B7B   1283 1303      03328         BANK0
Message[305]: Using default destination of 1 (file).
0B7D   0AF4           03329         INCF    BTCOUNT
                      03330 
0B7E   3003           03331         MOVLW   3
0B7F   008A           03332         MOVWF   PCLATH
Message[306]: Crossing page boundary -- ensure page bits are set.
0B80   2300           03333         CALL    T_CHAR
0B81   1683 1303      03334         BANK1
Message[302]: Register in operand not in bank 0.  Ensure that bank bits are correct.
0B83   00B6           03335         MOVWF   IRAM+16
0B84   1283 1303      03336         BANK0
Message[305]: Using default destination of 1 (file).
0B86   0AF4           03337         INCF    BTCOUNT
                      03338 
0B87   3003           03339         MOVLW   3
0B88   008A           03340         MOVWF   PCLATH
Message[306]: Crossing page boundary -- ensure page bits are set.
0B89   2300           03341         CALL    T_CHAR
0B8A   1683 1303      03342         BANK1
Message[302]: Register in operand not in bank 0.  Ensure that bank bits are correct.
0B8C   00A2           03343         MOVWF   IRAM+02
MPASM  5.51                 HUB12_SCROLL3.ASM   5-30-2019  14:22:53         PAGE 76


LOC  OBJECT CODE     LINE SOURCE TEXT
  VALUE

0B8D   1283 1303      03344         BANK0
Message[305]: Using default destination of 1 (file).
0B8F   0AF4           03345         INCF    BTCOUNT
                      03346 
0B90   3003           03347         MOVLW   3
0B91   008A           03348         MOVWF   PCLATH
Message[306]: Crossing page boundary -- ensure page bits are set.
0B92   2300           03349         CALL    T_CHAR
0B93   1683 1303      03350         BANK1
Message[302]: Register in operand not in bank 0.  Ensure that bank bits are correct.
0B95   00A6           03351         MOVWF   IRAM+06
0B96   1283 1303      03352         BANK0
Message[305]: Using default destination of 1 (file).
0B98   0AF4           03353         INCF    BTCOUNT
                      03354 
0B99   3003           03355         MOVLW   3
0B9A   008A           03356         MOVWF   PCLATH
Message[306]: Crossing page boundary -- ensure page bits are set.
0B9B   2300           03357         CALL    T_CHAR
0B9C   1683 1303      03358         BANK1
Message[302]: Register in operand not in bank 0.  Ensure that bank bits are correct.
0B9E   00D1           03359         MOVWF   IRAM+31
0B9F   1283 1303      03360         BANK0
Message[305]: Using default destination of 1 (file).
0BA1   0AF4           03361         INCF    BTCOUNT
                      03362 
0BA2   3003           03363         MOVLW   3
0BA3   008A           03364         MOVWF   PCLATH
Message[306]: Crossing page boundary -- ensure page bits are set.
0BA4   2300           03365         CALL    T_CHAR
0BA5   1683 1303      03366         BANK1
Message[302]: Register in operand not in bank 0.  Ensure that bank bits are correct.
0BA7   00D5           03367         MOVWF   IRAM+35
0BA8   1283 1303      03368         BANK0
Message[305]: Using default destination of 1 (file).
0BAA   0AF4           03369         INCF    BTCOUNT
                      03370 
                      03371 
0BAB   3003           03372         MOVLW   3
0BAC   008A           03373         MOVWF   PCLATH
Message[306]: Crossing page boundary -- ensure page bits are set.
0BAD   2300           03374         CALL    T_CHAR
0BAE   1683 1303      03375         BANK1
Message[302]: Register in operand not in bank 0.  Ensure that bank bits are correct.
0BB0   00C1           03376         MOVWF   IRAM+21
0BB1   1283 1303      03377         BANK0
Message[305]: Using default destination of 1 (file).
0BB3   0AF4           03378         INCF    BTCOUNT
                      03379 
                      03380 
0BB4   3003           03381         MOVLW   3
0BB5   008A           03382         MOVWF   PCLATH
Message[306]: Crossing page boundary -- ensure page bits are set.
MPASM  5.51                 HUB12_SCROLL3.ASM   5-30-2019  14:22:53         PAGE 77


LOC  OBJECT CODE     LINE SOURCE TEXT
  VALUE

0BB6   2300           03383         CALL    T_CHAR
0BB7   1683 1303      03384         BANK1
Message[302]: Register in operand not in bank 0.  Ensure that bank bits are correct.
0BB9   00C5           03385         MOVWF   IRAM+25
0BBA   1283 1303      03386         BANK0
Message[305]: Using default destination of 1 (file).
0BBC   0AF4           03387         INCF    BTCOUNT
                      03388 
                      03389 
0BBD   3003           03390         MOVLW   3
0BBE   008A           03391         MOVWF   PCLATH
Message[306]: Crossing page boundary -- ensure page bits are set.
0BBF   2300           03392         CALL    T_CHAR
0BC0   1683 1303      03393         BANK1
Message[302]: Register in operand not in bank 0.  Ensure that bank bits are correct.
0BC2   00B1           03394         MOVWF   IRAM+11
0BC3   1283 1303      03395         BANK0
Message[305]: Using default destination of 1 (file).
0BC5   0AF4           03396         INCF    BTCOUNT
                      03397 
                      03398 
0BC6   3003           03399         MOVLW   3
0BC7   008A           03400         MOVWF   PCLATH
Message[306]: Crossing page boundary -- ensure page bits are set.
0BC8   2300           03401         CALL    T_CHAR
0BC9   1683 1303      03402         BANK1
Message[302]: Register in operand not in bank 0.  Ensure that bank bits are correct.
0BCB   00B5           03403         MOVWF   IRAM+15
0BCC   1283 1303      03404         BANK0
Message[305]: Using default destination of 1 (file).
0BCE   0AF4           03405         INCF    BTCOUNT
                      03406 
0BCF   3003           03407         MOVLW   3
0BD0   008A           03408         MOVWF   PCLATH
Message[306]: Crossing page boundary -- ensure page bits are set.
0BD1   2300           03409         CALL    T_CHAR
0BD2   1683 1303      03410         BANK1
Message[302]: Register in operand not in bank 0.  Ensure that bank bits are correct.
0BD4   00A1           03411         MOVWF   IRAM+01
0BD5   1283 1303      03412         BANK0
Message[305]: Using default destination of 1 (file).
0BD7   0AF4           03413         INCF    BTCOUNT
                      03414 
                      03415 
0BD8   3003           03416         MOVLW   3
0BD9   008A           03417         MOVWF   PCLATH
Message[306]: Crossing page boundary -- ensure page bits are set.
0BDA   2300           03418         CALL    T_CHAR
0BDB   1683 1303      03419         BANK1
Message[302]: Register in operand not in bank 0.  Ensure that bank bits are correct.
0BDD   00A5           03420         MOVWF   IRAM+05
0BDE   1283 1303      03421         BANK0
Message[305]: Using default destination of 1 (file).
MPASM  5.51                 HUB12_SCROLL3.ASM   5-30-2019  14:22:53         PAGE 78


LOC  OBJECT CODE     LINE SOURCE TEXT
  VALUE

0BE0   0AF4           03422         INCF    BTCOUNT
                      03423 
                      03424 
0BE1   3003           03425         MOVLW   3
0BE2   008A           03426         MOVWF   PCLATH
Message[306]: Crossing page boundary -- ensure page bits are set.
0BE3   2300           03427         CALL    T_CHAR
0BE4   1683 1303      03428         BANK1
Message[302]: Register in operand not in bank 0.  Ensure that bank bits are correct.
0BE6   00D0           03429         MOVWF   IRAM+30
0BE7   1283 1303      03430         BANK0
Message[305]: Using default destination of 1 (file).
0BE9   0AF4           03431         INCF    BTCOUNT
                      03432 
0BEA   3003           03433         MOVLW   3
0BEB   008A           03434         MOVWF   PCLATH
Message[306]: Crossing page boundary -- ensure page bits are set.
0BEC   2300           03435         CALL    T_CHAR
0BED   1683 1303      03436         BANK1
Message[302]: Register in operand not in bank 0.  Ensure that bank bits are correct.
0BEF   00D4           03437         MOVWF   IRAM+34
0BF0   1283 1303      03438         BANK0
Message[305]: Using default destination of 1 (file).
0BF2   0AF4           03439         INCF    BTCOUNT
                      03440 
0BF3   3003           03441         MOVLW   3
0BF4   008A           03442         MOVWF   PCLATH
Message[306]: Crossing page boundary -- ensure page bits are set.
0BF5   2300           03443         CALL    T_CHAR
0BF6   1683 1303      03444         BANK1
Message[302]: Register in operand not in bank 0.  Ensure that bank bits are correct.
0BF8   00C0           03445         MOVWF   IRAM+20
0BF9   1283 1303      03446         BANK0
Message[305]: Using default destination of 1 (file).
0BFB   0AF4           03447         INCF    BTCOUNT
                      03448 
0BFC   3003           03449         MOVLW   3
0BFD   008A           03450         MOVWF   PCLATH
Message[306]: Crossing page boundary -- ensure page bits are set.
0BFE   2300           03451         CALL    T_CHAR
0BFF   1683 1303      03452         BANK1
Message[302]: Register in operand not in bank 0.  Ensure that bank bits are correct.
0C01   00C4           03453         MOVWF   IRAM+24
0C02   1283 1303      03454         BANK0
Message[305]: Using default destination of 1 (file).
0C04   0AF4           03455         INCF    BTCOUNT
                      03456 
0C05   3003           03457         MOVLW   3
0C06   008A           03458         MOVWF   PCLATH
Message[306]: Crossing page boundary -- ensure page bits are set.
0C07   2300           03459         CALL    T_CHAR
0C08   1683 1303      03460         BANK1
Message[302]: Register in operand not in bank 0.  Ensure that bank bits are correct.
MPASM  5.51                 HUB12_SCROLL3.ASM   5-30-2019  14:22:53         PAGE 79


LOC  OBJECT CODE     LINE SOURCE TEXT
  VALUE

0C0A   00B0           03461         MOVWF   IRAM+10
0C0B   1283 1303      03462         BANK0
Message[305]: Using default destination of 1 (file).
0C0D   0AF4           03463         INCF    BTCOUNT
                      03464 
                      03465 
0C0E   3003           03466         MOVLW   3
0C0F   008A           03467         MOVWF   PCLATH
Message[306]: Crossing page boundary -- ensure page bits are set.
0C10   2300           03468         CALL    T_CHAR
0C11   1683 1303      03469         BANK1
Message[302]: Register in operand not in bank 0.  Ensure that bank bits are correct.
0C13   00B4           03470         MOVWF   IRAM+14
0C14   1283 1303      03471         BANK0
Message[305]: Using default destination of 1 (file).
0C16   0AF4           03472         INCF    BTCOUNT
                      03473 
                      03474 
0C17   3003           03475         MOVLW   3
0C18   008A           03476         MOVWF   PCLATH
Message[306]: Crossing page boundary -- ensure page bits are set.
0C19   2300           03477         CALL    T_CHAR
0C1A   1683 1303      03478         BANK1
Message[302]: Register in operand not in bank 0.  Ensure that bank bits are correct.
0C1C   00A0           03479         MOVWF   IRAM+00
0C1D   1283 1303      03480         BANK0
Message[305]: Using default destination of 1 (file).
0C1F   0AF4           03481         INCF    BTCOUNT
                      03482         
                      03483 
0C20   3003           03484         MOVLW   3
0C21   008A           03485         MOVWF   PCLATH
Message[306]: Crossing page boundary -- ensure page bits are set.
0C22   2300           03486         CALL    T_CHAR
0C23   1683 1303      03487         BANK1
Message[302]: Register in operand not in bank 0.  Ensure that bank bits are correct.
0C25   00A4           03488         MOVWF   IRAM+04
0C26   1283 1303      03489         BANK0
Message[305]: Using default destination of 1 (file).
0C28   0AF4           03490         INCF    BTCOUNT
                      03491 
                      03492 
0C29   3000           03493         MOVLW   .0                      ;BACK TO PAGE1
0C2A   008A           03494         MOVWF   PCLATH
0C2B   1283 1303      03495         BANK0
Warning[203]: Found opcode in column 1. (RETURN)
0C2D   0008           03496 RETURN
                      03497 ;###############################################################
                      03498 
                      03499 
                      03500         
                      03501         ;############## DRAM SHIFT Y DOWN GROUPA #######################
0C2E                  03502 DSHIFT_DOWN_GRPA
MPASM  5.51                 HUB12_SCROLL3.ASM   5-30-2019  14:22:53         PAGE 80


LOC  OBJECT CODE     LINE SOURCE TEXT
  VALUE

0C2E   1283 1303      03503         BANK0
0C30   083C           03504         MOVFW   DRAM+10
0C31   00AC           03505         MOVWF   DRAM+00
                      03506 
0C32   084C           03507         MOVFW   DRAM+20
0C33   00BC           03508         MOVWF   DRAM+10
                      03509 
0C34   085C           03510         MOVFW   DRAM+30
0C35   00CC           03511         MOVWF   DRAM+20
                      03512 
0C36   082D           03513         MOVFW   DRAM+01
0C37   00DC           03514         MOVWF   DRAM+30
                      03515 
0C38   083D           03516         MOVFW   DRAM+11
0C39   00AD           03517         MOVWF   DRAM+01
                      03518 
0C3A   084D           03519         MOVFW   DRAM+21
0C3B   00BD           03520         MOVWF   DRAM+11
                      03521 
0C3C   085D           03522         MOVFW   DRAM+31
0C3D   00CD           03523         MOVWF   DRAM+21
                      03524 
0C3E   082E           03525         MOVFW   DRAM+02
0C3F   00DD           03526         MOVWF   DRAM+31
                      03527 
0C40   083E           03528         MOVFW   DRAM+12
0C41   00AE           03529         MOVWF   DRAM+02
                      03530 
0C42   084E           03531         MOVFW   DRAM+22
0C43   00BE           03532         MOVWF   DRAM+12
                      03533 
0C44   085E           03534         MOVFW   DRAM+32
0C45   00CE           03535         MOVWF   DRAM+22
                      03536 
0C46   082F           03537         MOVFW   DRAM+03
0C47   00DE           03538         MOVWF   DRAM+32
                      03539 
0C48   083F           03540         MOVFW   DRAM+13
0C49   00AF           03541         MOVWF   DRAM+03
                      03542 
0C4A   084F           03543         MOVFW   DRAM+23
0C4B   00BF           03544         MOVWF   DRAM+13
                      03545 
0C4C   085F           03546         MOVFW   DRAM+33
0C4D   00CF           03547         MOVWF   DRAM+23
                      03548 
0C4E   082A           03549         MOVFW   TEMPFILE
0C4F   00DF           03550         MOVWF   DRAM+33
Warning[203]: Found opcode in column 1. (RETURN)
0C50   0008           03551 RETURN
                      03552 
                      03553 ;############## DRAM SHIFT Y DOWN GROUPB #############
0C51                  03554 DSHIFT_DOWN_GRPB
MPASM  5.51                 HUB12_SCROLL3.ASM   5-30-2019  14:22:53         PAGE 81


LOC  OBJECT CODE     LINE SOURCE TEXT
  VALUE

0C51   1283 1303      03555         BANK0
0C53   0840           03556         MOVFW   DRAM+14
0C54   00B0           03557         MOVWF   DRAM+04
                      03558 
0C55   0850           03559         MOVFW   DRAM+24
0C56   00C0           03560         MOVWF   DRAM+14
                      03561 
0C57   0860           03562         MOVFW   DRAM+34
0C58   00D0           03563         MOVWF   DRAM+24
                      03564 
0C59   0831           03565         MOVFW   DRAM+05
0C5A   00E0           03566         MOVWF   DRAM+34
                      03567 
0C5B   0841           03568         MOVFW   DRAM+15
0C5C   00B1           03569         MOVWF   DRAM+05
                      03570 
0C5D   0851           03571         MOVFW   DRAM+25
0C5E   00C1           03572         MOVWF   DRAM+15
                      03573 
0C5F   0861           03574         MOVFW   DRAM+35
0C60   00D1           03575         MOVWF   DRAM+25
                      03576 
0C61   0832           03577         MOVFW   DRAM+06
0C62   00E1           03578         MOVWF   DRAM+35
                      03579 
0C63   0842           03580         MOVFW   DRAM+16
0C64   00B2           03581         MOVWF   DRAM+06
                      03582 
0C65   0852           03583         MOVFW   DRAM+26
0C66   00C2           03584         MOVWF   DRAM+16
                      03585 
0C67   0862           03586         MOVFW   DRAM+36
0C68   00D2           03587         MOVWF   DRAM+26
                      03588 
0C69   0833           03589         MOVFW   DRAM+07
0C6A   00E2           03590         MOVWF   DRAM+36
                      03591 
0C6B   0843           03592         MOVFW   DRAM+17
0C6C   00B3           03593         MOVWF   DRAM+07
                      03594 
0C6D   0853           03595         MOVFW   DRAM+27
0C6E   00C3           03596         MOVWF   DRAM+17
                      03597 
0C6F   0863           03598         MOVFW   DRAM+37
0C70   00D3           03599         MOVWF   DRAM+27
                      03600 
0C71   0879           03601         MOVFW   TEMPFILEB
0C72   00E3           03602         MOVWF   DRAM+37
Warning[203]: Found opcode in column 1. (RETURN)
0C73   0008           03603 RETURN
                      03604 
                      03605 ;############## DRAM SHIFT Y DOWN GROUPC #############
0C74                  03606 DSHIFT_DOWN_GRPC
MPASM  5.51                 HUB12_SCROLL3.ASM   5-30-2019  14:22:53         PAGE 82


LOC  OBJECT CODE     LINE SOURCE TEXT
  VALUE

0C74   1283 1303      03607         BANK0
0C76   0844           03608         MOVFW   DRAM+18
0C77   00B4           03609         MOVWF   DRAM+08
                      03610 
0C78   0854           03611         MOVFW   DRAM+28
0C79   00C4           03612         MOVWF   DRAM+18
                      03613 
0C7A   0864           03614         MOVFW   DRAM+38
0C7B   00D4           03615         MOVWF   DRAM+28
                      03616 
0C7C   0835           03617         MOVFW   DRAM+09
0C7D   00E4           03618         MOVWF   DRAM+38
                      03619 
0C7E   0845           03620         MOVFW   DRAM+19
0C7F   00B5           03621         MOVWF   DRAM+09
                      03622 
0C80   0855           03623         MOVFW   DRAM+29
0C81   00C5           03624         MOVWF   DRAM+19
                      03625 
0C82   0865           03626         MOVFW   DRAM+39
0C83   00D5           03627         MOVWF   DRAM+29
                      03628 
0C84   0836           03629         MOVFW   DRAM+0A
0C85   00E5           03630         MOVWF   DRAM+39
                      03631 
0C86   0846           03632         MOVFW   DRAM+1A
0C87   00B6           03633         MOVWF   DRAM+0A
                      03634 
0C88   0856           03635         MOVFW   DRAM+2A
0C89   00C6           03636         MOVWF   DRAM+1A
                      03637 
0C8A   0866           03638         MOVFW   DRAM+3A
0C8B   00D6           03639         MOVWF   DRAM+2A
                      03640 
0C8C   0837           03641         MOVFW   DRAM+0B
0C8D   00E6           03642         MOVWF   DRAM+3A
                      03643 
0C8E   0847           03644         MOVFW   DRAM+1B
0C8F   00B7           03645         MOVWF   DRAM+0B
                      03646 
0C90   0857           03647         MOVFW   DRAM+2B
0C91   00C7           03648         MOVWF   DRAM+1B
                      03649 
0C92   0867           03650         MOVFW   DRAM+3B
0C93   00D7           03651         MOVWF   DRAM+2B
                      03652 
0C94   087A           03653         MOVFW   TEMPFILEC
0C95   00E7           03654         MOVWF   DRAM+3B
Warning[203]: Found opcode in column 1. (RETURN)
0C96   0008           03655 RETURN
                      03656 
                      03657 ;############## DRAM SHIFT Y DOWN GROUPD #############
0C97                  03658 DSHIFT_DOWN_GRPD
MPASM  5.51                 HUB12_SCROLL3.ASM   5-30-2019  14:22:53         PAGE 83


LOC  OBJECT CODE     LINE SOURCE TEXT
  VALUE

0C97   1283 1303      03659         BANK0
0C99   0848           03660         MOVFW   DRAM+1C
0C9A   00B8           03661         MOVWF   DRAM+0C
                      03662 
0C9B   0858           03663         MOVFW   DRAM+2C
0C9C   00C8           03664         MOVWF   DRAM+1C
                      03665 
0C9D   0868           03666         MOVFW   DRAM+3C
0C9E   00D8           03667         MOVWF   DRAM+2C
                      03668 
0C9F   0839           03669         MOVFW   DRAM+0D
0CA0   00E8           03670         MOVWF   DRAM+3C
                      03671 
0CA1   0849           03672         MOVFW   DRAM+1D
0CA2   00B9           03673         MOVWF   DRAM+0D
                      03674 
0CA3   0859           03675         MOVFW   DRAM+2D
0CA4   00C9           03676         MOVWF   DRAM+1D
                      03677 
0CA5   0869           03678         MOVFW   DRAM+3D
0CA6   00D9           03679         MOVWF   DRAM+2D
                      03680 
0CA7   083A           03681         MOVFW   DRAM+0E
0CA8   00E9           03682         MOVWF   DRAM+3D
                      03683 
0CA9   084A           03684         MOVFW   DRAM+1E
0CAA   00BA           03685         MOVWF   DRAM+0E
                      03686 
0CAB   085A           03687         MOVFW   DRAM+2E
0CAC   00CA           03688         MOVWF   DRAM+1E
                      03689 
0CAD   086A           03690         MOVFW   DRAM+3E
0CAE   00DA           03691         MOVWF   DRAM+2E
                      03692 
0CAF   083B           03693         MOVFW   DRAM+0F
0CB0   00EA           03694         MOVWF   DRAM+3E
                      03695 
0CB1   084B           03696         MOVFW   DRAM+1F
0CB2   00BB           03697         MOVWF   DRAM+0F
                      03698 
0CB3   085B           03699         MOVFW   DRAM+2F
0CB4   00CB           03700         MOVWF   DRAM+1F
                      03701 
0CB5   086B           03702         MOVFW   DRAM+3F
0CB6   00DB           03703         MOVWF   DRAM+2F
                      03704 
0CB7   087B           03705         MOVFW   TEMPFILED
0CB8   00EB           03706         MOVWF   DRAM+3F
Warning[203]: Found opcode in column 1. (RETURN)
0CB9   0008           03707 RETURN
                      03708 
                      03709 
                      03710 
MPASM  5.51                 HUB12_SCROLL3.ASM   5-30-2019  14:22:53         PAGE 84


LOC  OBJECT CODE     LINE SOURCE TEXT
  VALUE

                      03711 
                      03712 
                      03713 
Warning[205]: Found directive in column 1. (ORG)
0D00                  03714 ORG 0XD00
                      03715 ;#################      ISHIFT X        RIGHT ##########################
                      03716 
0D00                  03717 ISHIFTR
0D00   1683 1303      03718         BANK1
Message[302]: Register in operand not in bank 0.  Ensure that bank bits are correct.
0D02   0864           03719         MOVFW   ICURSORX
0D03   0782           03720         ADDWF   PCL,F
                      03721         
                      03722 
0D04   0008           03723                 RETURN
0D05   2E24           03724         GOTO    IGRP_C;1
0D06   2E24           03725         GOTO    IGRP_C;2
0D07   2E24           03726         GOTO    IGRP_C;3
0D08   2E24           03727         GOTO    IGRP_C;4
0D09   2E24           03728         GOTO    IGRP_C;5
0D0A   2E24           03729         GOTO    IGRP_C;6
0D0B   2E24           03730         GOTO    IGRP_C;7
0D0C   2E24           03731         GOTO    IGRP_C;8
0D0D   2DA7           03732                 GOTO    IGRP_B;9
0D0E   2DA7           03733         GOTO    IGRP_B;10
0D0F   2DA7           03734         GOTO    IGRP_B;11
0D10   2DA7           03735         GOTO    IGRP_B;12
0D11   2DA7           03736         GOTO    IGRP_B;13
0D12   2DA7           03737         GOTO    IGRP_B;14
0D13   2DA7           03738         GOTO    IGRP_B;15
0D14   2DA7           03739         GOTO    IGRP_B;16
0D15   2D1D           03740                 GOTO    IGRP_A;17
0D16   2D1D           03741         GOTO    IGRP_A;18
0D17   2D1D           03742         GOTO    IGRP_A;19
0D18   2D1D           03743         GOTO    IGRP_A;20
0D19   2D1D           03744         GOTO    IGRP_A;21
0D1A   2D1D           03745         GOTO    IGRP_A;22
0D1B   2D1D           03746         GOTO    IGRP_A;23
0D1C   2D1D           03747         GOTO    IGRP_A;24
                      03748 
0D1D                  03749 IGRP_A
                      03750 ;--------------------
Message[302]: Register in operand not in bank 0.  Ensure that bank bits are correct.
0D1D   0864           03751         MOVFW   ICURSORX
Message[302]: Register in operand not in bank 0.  Ensure that bank bits are correct.
0D1E   00E5           03752         MOVWF   ISHCNT
                      03753 
0D1F   3001           03754         MOVLW   .1
Message[302]: Register in operand not in bank 0.  Ensure that bank bits are correct.
0D20   00E3           03755         MOVWF   ITESTER
                      03756 
Message[302]: Register in operand not in bank 0.  Ensure that bank bits are correct.
0D21   0866           03757         MOVFW   IROW
MPASM  5.51                 HUB12_SCROLL3.ASM   5-30-2019  14:22:53         PAGE 85


LOC  OBJECT CODE     LINE SOURCE TEXT
  VALUE

Message[302]: Register in operand not in bank 0.  Ensure that bank bits are correct.
0D22   0263           03758         SUBWF   ITESTER,W
0D23   1903           03759         BTFSC   STATUS,Z
0D24   2D67           03760         GOTO    ISRA08_R1
                      03761         
0D25                  03762 ISRA00
Warning[211]: Extraneous arguments on the line.
0D25   1403           03763         SETC    1
Message[305]: Using default destination of 1 (file).
Message[302]: Register in operand not in bank 0.  Ensure that bank bits are correct.
0D26   0CD3           03764         RRF             IRAM + 33
Message[305]: Using default destination of 1 (file).
Message[302]: Register in operand not in bank 0.  Ensure that bank bits are correct.
0D27   0CD7           03765         RRF             IRAM + 37
Message[305]: Using default destination of 1 (file).
Message[302]: Register in operand not in bank 0.  Ensure that bank bits are correct.
0D28   0CDB           03766         RRF             IRAM + 3B
Message[305]: Using default destination of 1 (file).
Message[302]: Register in operand not in bank 0.  Ensure that bank bits are correct.
0D29   0CDF           03767         RRF             IRAM + 3F
Message[305]: Using default destination of 1 (file).
Message[302]: Register in operand not in bank 0.  Ensure that bank bits are correct.
0D2A   0BE5           03768         DECFSZ  ISHCNT
0D2B   2D25           03769         GOTO    ISRA00
                      03770 
Message[302]: Register in operand not in bank 0.  Ensure that bank bits are correct.
0D2C   0864           03771         MOVF    ICURSORX,0
Message[302]: Register in operand not in bank 0.  Ensure that bank bits are correct.
0D2D   00E5           03772         MOVWF   ISHCNT
                      03773 
0D2E                  03774 ISRA01
Message[305]: Using default destination of 1 (file).
Message[302]: Register in operand not in bank 0.  Ensure that bank bits are correct.
0D2E   0CC3           03775         RRF             IRAM + 23
Message[305]: Using default destination of 1 (file).
Message[302]: Register in operand not in bank 0.  Ensure that bank bits are correct.
0D2F   0CC7           03776         RRF             IRAM + 27
Message[305]: Using default destination of 1 (file).
Message[302]: Register in operand not in bank 0.  Ensure that bank bits are correct.
0D30   0CCB           03777         RRF             IRAM + 2B
Message[305]: Using default destination of 1 (file).
Message[302]: Register in operand not in bank 0.  Ensure that bank bits are correct.
0D31   0CCF           03778         RRF             IRAM + 2F
Message[305]: Using default destination of 1 (file).
Message[302]: Register in operand not in bank 0.  Ensure that bank bits are correct.
0D32   0BE5           03779         DECFSZ  ISHCNT
0D33   2D2E           03780         GOTO    ISRA01
                      03781 
Message[302]: Register in operand not in bank 0.  Ensure that bank bits are correct.
0D34   0864           03782         MOVF    ICURSORX,0
Message[302]: Register in operand not in bank 0.  Ensure that bank bits are correct.
0D35   00E5           03783         MOVWF   ISHCNT
                      03784 
MPASM  5.51                 HUB12_SCROLL3.ASM   5-30-2019  14:22:53         PAGE 86


LOC  OBJECT CODE     LINE SOURCE TEXT
  VALUE

0D36                  03785 ISRA02
Message[305]: Using default destination of 1 (file).
Message[302]: Register in operand not in bank 0.  Ensure that bank bits are correct.
0D36   0CB3           03786         RRF             IRAM + 13
Message[305]: Using default destination of 1 (file).
Message[302]: Register in operand not in bank 0.  Ensure that bank bits are correct.
0D37   0CB7           03787         RRF             IRAM + 17
Message[305]: Using default destination of 1 (file).
Message[302]: Register in operand not in bank 0.  Ensure that bank bits are correct.
0D38   0CBB           03788         RRF             IRAM + 1B
Message[305]: Using default destination of 1 (file).
Message[302]: Register in operand not in bank 0.  Ensure that bank bits are correct.
0D39   0CBF           03789         RRF             IRAM + 1F
Message[305]: Using default destination of 1 (file).
Message[302]: Register in operand not in bank 0.  Ensure that bank bits are correct.
0D3A   0BE5           03790         DECFSZ  ISHCNT
0D3B   2D36           03791         GOTO    ISRA02
                      03792 
Message[302]: Register in operand not in bank 0.  Ensure that bank bits are correct.
0D3C   0864           03793         MOVF    ICURSORX,0
Message[302]: Register in operand not in bank 0.  Ensure that bank bits are correct.
0D3D   00E5           03794         MOVWF   ISHCNT
                      03795 
0D3E                  03796 ISRA03
Message[305]: Using default destination of 1 (file).
Message[302]: Register in operand not in bank 0.  Ensure that bank bits are correct.
0D3E   0CA3           03797         RRF             IRAM + 03
Message[305]: Using default destination of 1 (file).
Message[302]: Register in operand not in bank 0.  Ensure that bank bits are correct.
0D3F   0CA7           03798         RRF             IRAM + 07
Message[305]: Using default destination of 1 (file).
Message[302]: Register in operand not in bank 0.  Ensure that bank bits are correct.
0D40   0CAB           03799         RRF             IRAM + 0B
Message[305]: Using default destination of 1 (file).
Message[302]: Register in operand not in bank 0.  Ensure that bank bits are correct.
0D41   0CAF           03800         RRF             IRAM + 0F
Message[305]: Using default destination of 1 (file).
Message[302]: Register in operand not in bank 0.  Ensure that bank bits are correct.
0D42   0BE5           03801         DECFSZ  ISHCNT
0D43   2D3E           03802         GOTO    ISRA03
                      03803 
Message[302]: Register in operand not in bank 0.  Ensure that bank bits are correct.
0D44   0864           03804         MOVF    ICURSORX,0
Message[302]: Register in operand not in bank 0.  Ensure that bank bits are correct.
0D45   00E5           03805         MOVWF   ISHCNT
                      03806 
0D46                  03807 ISRA04
Message[305]: Using default destination of 1 (file).
Message[302]: Register in operand not in bank 0.  Ensure that bank bits are correct.
0D46   0CD2           03808         RRF             IRAM + 32
Message[305]: Using default destination of 1 (file).
Message[302]: Register in operand not in bank 0.  Ensure that bank bits are correct.
0D47   0CD6           03809         RRF             IRAM + 36
MPASM  5.51                 HUB12_SCROLL3.ASM   5-30-2019  14:22:53         PAGE 87


LOC  OBJECT CODE     LINE SOURCE TEXT
  VALUE

Message[305]: Using default destination of 1 (file).
Message[302]: Register in operand not in bank 0.  Ensure that bank bits are correct.
0D48   0CDA           03810         RRF             IRAM + 3A
Message[305]: Using default destination of 1 (file).
Message[302]: Register in operand not in bank 0.  Ensure that bank bits are correct.
0D49   0CDE           03811         RRF             IRAM + 3E
Message[305]: Using default destination of 1 (file).
Message[302]: Register in operand not in bank 0.  Ensure that bank bits are correct.
0D4A   0BE5           03812         DECFSZ  ISHCNT
0D4B   2D46           03813         GOTO    ISRA04
                      03814 
Message[302]: Register in operand not in bank 0.  Ensure that bank bits are correct.
0D4C   0864           03815         MOVF    ICURSORX,0
Message[302]: Register in operand not in bank 0.  Ensure that bank bits are correct.
0D4D   00E5           03816         MOVWF   ISHCNT
                      03817 
0D4E                  03818 ISRA05
Message[305]: Using default destination of 1 (file).
Message[302]: Register in operand not in bank 0.  Ensure that bank bits are correct.
0D4E   0CC2           03819         RRF             IRAM + 22
Message[305]: Using default destination of 1 (file).
Message[302]: Register in operand not in bank 0.  Ensure that bank bits are correct.
0D4F   0CC6           03820         RRF             IRAM + 26
Message[305]: Using default destination of 1 (file).
Message[302]: Register in operand not in bank 0.  Ensure that bank bits are correct.
0D50   0CCA           03821         RRF             IRAM + 2A
Message[305]: Using default destination of 1 (file).
Message[302]: Register in operand not in bank 0.  Ensure that bank bits are correct.
0D51   0CCE           03822         RRF             IRAM + 2E
Message[305]: Using default destination of 1 (file).
Message[302]: Register in operand not in bank 0.  Ensure that bank bits are correct.
0D52   0BE5           03823         DECFSZ  ISHCNT
0D53   2D4E           03824         GOTO    ISRA05
                      03825 
Message[302]: Register in operand not in bank 0.  Ensure that bank bits are correct.
0D54   0864           03826         MOVF    ICURSORX,0
Message[302]: Register in operand not in bank 0.  Ensure that bank bits are correct.
0D55   00E5           03827         MOVWF   ISHCNT
                      03828 
0D56                  03829 ISRA06
Message[305]: Using default destination of 1 (file).
Message[302]: Register in operand not in bank 0.  Ensure that bank bits are correct.
0D56   0CB2           03830         RRF             IRAM + 12
Message[305]: Using default destination of 1 (file).
Message[302]: Register in operand not in bank 0.  Ensure that bank bits are correct.
0D57   0CB6           03831         RRF             IRAM + 16
Message[305]: Using default destination of 1 (file).
Message[302]: Register in operand not in bank 0.  Ensure that bank bits are correct.
0D58   0CBA           03832         RRF             IRAM + 1A
Message[305]: Using default destination of 1 (file).
Message[302]: Register in operand not in bank 0.  Ensure that bank bits are correct.
0D59   0CBE           03833         RRF             IRAM + 1E
Message[305]: Using default destination of 1 (file).
MPASM  5.51                 HUB12_SCROLL3.ASM   5-30-2019  14:22:53         PAGE 88


LOC  OBJECT CODE     LINE SOURCE TEXT
  VALUE

Message[302]: Register in operand not in bank 0.  Ensure that bank bits are correct.
0D5A   0BE5           03834         DECFSZ  ISHCNT
0D5B   2D56           03835         GOTO    ISRA06
                      03836 
                      03837 
Message[302]: Register in operand not in bank 0.  Ensure that bank bits are correct.
0D5C   0864           03838         MOVF    ICURSORX,0
Message[302]: Register in operand not in bank 0.  Ensure that bank bits are correct.
0D5D   00E5           03839         MOVWF   ISHCNT
                      03840 
0D5E                  03841 ISRA07
Message[305]: Using default destination of 1 (file).
Message[302]: Register in operand not in bank 0.  Ensure that bank bits are correct.
0D5E   0CA2           03842         RRF             IRAM + 02
Message[305]: Using default destination of 1 (file).
Message[302]: Register in operand not in bank 0.  Ensure that bank bits are correct.
0D5F   0CA6           03843         RRF             IRAM + 06
Message[305]: Using default destination of 1 (file).
Message[302]: Register in operand not in bank 0.  Ensure that bank bits are correct.
0D60   0CAA           03844         RRF             IRAM + 0A
Message[305]: Using default destination of 1 (file).
Message[302]: Register in operand not in bank 0.  Ensure that bank bits are correct.
0D61   0CAE           03845         RRF             IRAM + 0E
Message[305]: Using default destination of 1 (file).
Message[302]: Register in operand not in bank 0.  Ensure that bank bits are correct.
0D62   0BE5           03846         DECFSZ  ISHCNT
0D63   2D5E           03847         GOTO    ISRA07
                      03848 
Message[302]: Register in operand not in bank 0.  Ensure that bank bits are correct.
0D64   0864           03849         MOVF    ICURSORX,0
Message[302]: Register in operand not in bank 0.  Ensure that bank bits are correct.
0D65   00E5           03850         MOVWF   ISHCNT
Warning[203]: Found opcode in column 1. (RETURN)
0D66   0008           03851 RETURN
0D67                  03852 ISRA08_R1
Warning[211]: Extraneous arguments on the line.
0D67   1403           03853         SETC    1
0D68                  03854 ISRA08
Message[305]: Using default destination of 1 (file).
Message[302]: Register in operand not in bank 0.  Ensure that bank bits are correct.
0D68   0CD1           03855         RRF             IRAM + 31
Message[305]: Using default destination of 1 (file).
Message[302]: Register in operand not in bank 0.  Ensure that bank bits are correct.
0D69   0CD5           03856         RRF             IRAM + 35
Message[305]: Using default destination of 1 (file).
Message[302]: Register in operand not in bank 0.  Ensure that bank bits are correct.
0D6A   0CD9           03857         RRF             IRAM + 39
Message[305]: Using default destination of 1 (file).
Message[302]: Register in operand not in bank 0.  Ensure that bank bits are correct.
0D6B   0CDD           03858         RRF             IRAM + 3D
Message[305]: Using default destination of 1 (file).
Message[302]: Register in operand not in bank 0.  Ensure that bank bits are correct.
0D6C   0BE5           03859         DECFSZ  ISHCNT
MPASM  5.51                 HUB12_SCROLL3.ASM   5-30-2019  14:22:53         PAGE 89


LOC  OBJECT CODE     LINE SOURCE TEXT
  VALUE

0D6D   2D68           03860         GOTO    ISRA08
                      03861 
Message[302]: Register in operand not in bank 0.  Ensure that bank bits are correct.
0D6E   0864           03862         MOVF    ICURSORX,0
Message[302]: Register in operand not in bank 0.  Ensure that bank bits are correct.
0D6F   00E5           03863         MOVWF   ISHCNT
                      03864 
0D70                  03865 ISRA09
Message[305]: Using default destination of 1 (file).
Message[302]: Register in operand not in bank 0.  Ensure that bank bits are correct.
0D70   0CC1           03866         RRF             IRAM + 21
Message[305]: Using default destination of 1 (file).
Message[302]: Register in operand not in bank 0.  Ensure that bank bits are correct.
0D71   0CC5           03867         RRF             IRAM + 25
Message[305]: Using default destination of 1 (file).
Message[302]: Register in operand not in bank 0.  Ensure that bank bits are correct.
0D72   0CC9           03868         RRF             IRAM + 29
Message[305]: Using default destination of 1 (file).
Message[302]: Register in operand not in bank 0.  Ensure that bank bits are correct.
0D73   0CCD           03869         RRF             IRAM + 2D
Message[305]: Using default destination of 1 (file).
Message[302]: Register in operand not in bank 0.  Ensure that bank bits are correct.
0D74   0BE5           03870         DECFSZ  ISHCNT
0D75   2D70           03871         GOTO    ISRA09
                      03872         
Message[302]: Register in operand not in bank 0.  Ensure that bank bits are correct.
0D76   0864           03873         MOVF    ICURSORX,0
Message[302]: Register in operand not in bank 0.  Ensure that bank bits are correct.
0D77   00E5           03874         MOVWF   ISHCNT
                      03875 
0D78                  03876 ISRA0A
Message[305]: Using default destination of 1 (file).
Message[302]: Register in operand not in bank 0.  Ensure that bank bits are correct.
0D78   0CB1           03877         RRF             IRAM + 11
Message[305]: Using default destination of 1 (file).
Message[302]: Register in operand not in bank 0.  Ensure that bank bits are correct.
0D79   0CB5           03878         RRF             IRAM + 15
Message[305]: Using default destination of 1 (file).
Message[302]: Register in operand not in bank 0.  Ensure that bank bits are correct.
0D7A   0CB9           03879         RRF             IRAM + 19
Message[305]: Using default destination of 1 (file).
Message[302]: Register in operand not in bank 0.  Ensure that bank bits are correct.
0D7B   0CBD           03880         RRF             IRAM + 1D
Message[305]: Using default destination of 1 (file).
Message[302]: Register in operand not in bank 0.  Ensure that bank bits are correct.
0D7C   0BE5           03881         DECFSZ  ISHCNT
0D7D   2D78           03882         GOTO    ISRA0A
                      03883 
Message[302]: Register in operand not in bank 0.  Ensure that bank bits are correct.
0D7E   0864           03884         MOVF    ICURSORX,0
Message[302]: Register in operand not in bank 0.  Ensure that bank bits are correct.
0D7F   00E5           03885         MOVWF   ISHCNT
                      03886 
MPASM  5.51                 HUB12_SCROLL3.ASM   5-30-2019  14:22:53         PAGE 90


LOC  OBJECT CODE     LINE SOURCE TEXT
  VALUE

0D80                  03887 ISRA0B
Message[305]: Using default destination of 1 (file).
Message[302]: Register in operand not in bank 0.  Ensure that bank bits are correct.
0D80   0CA1           03888         RRF             IRAM + 01
Message[305]: Using default destination of 1 (file).
Message[302]: Register in operand not in bank 0.  Ensure that bank bits are correct.
0D81   0CA5           03889         RRF             IRAM + 05
Message[305]: Using default destination of 1 (file).
Message[302]: Register in operand not in bank 0.  Ensure that bank bits are correct.
0D82   0CA9           03890         RRF             IRAM + 09
Message[305]: Using default destination of 1 (file).
Message[302]: Register in operand not in bank 0.  Ensure that bank bits are correct.
0D83   0CAD           03891         RRF             IRAM + 0D
Message[305]: Using default destination of 1 (file).
Message[302]: Register in operand not in bank 0.  Ensure that bank bits are correct.
0D84   0BE5           03892         DECFSZ  ISHCNT
0D85   2D80           03893         GOTO    ISRA0B
                      03894 
Message[302]: Register in operand not in bank 0.  Ensure that bank bits are correct.
0D86   0864           03895         MOVF    ICURSORX,0
Message[302]: Register in operand not in bank 0.  Ensure that bank bits are correct.
0D87   00E5           03896         MOVWF   ISHCNT
                      03897 
0D88                  03898 ISRA0C
Message[305]: Using default destination of 1 (file).
Message[302]: Register in operand not in bank 0.  Ensure that bank bits are correct.
0D88   0CD0           03899         RRF             IRAM + 30
Message[305]: Using default destination of 1 (file).
Message[302]: Register in operand not in bank 0.  Ensure that bank bits are correct.
0D89   0CD4           03900         RRF             IRAM + 34
Message[305]: Using default destination of 1 (file).
Message[302]: Register in operand not in bank 0.  Ensure that bank bits are correct.
0D8A   0CD8           03901         RRF             IRAM + 38
Message[305]: Using default destination of 1 (file).
Message[302]: Register in operand not in bank 0.  Ensure that bank bits are correct.
0D8B   0CDC           03902         RRF             IRAM + 3C
Message[305]: Using default destination of 1 (file).
Message[302]: Register in operand not in bank 0.  Ensure that bank bits are correct.
0D8C   0BE5           03903         DECFSZ  ISHCNT
0D8D   2D88           03904         GOTO    ISRA0C
                      03905 
Message[302]: Register in operand not in bank 0.  Ensure that bank bits are correct.
0D8E   0864           03906         MOVF    ICURSORX,0
Message[302]: Register in operand not in bank 0.  Ensure that bank bits are correct.
0D8F   00E5           03907         MOVWF   ISHCNT
                      03908 
0D90                  03909 ISRA0D
Message[305]: Using default destination of 1 (file).
Message[302]: Register in operand not in bank 0.  Ensure that bank bits are correct.
0D90   0CC0           03910         RRF             IRAM + 20
Message[305]: Using default destination of 1 (file).
Message[302]: Register in operand not in bank 0.  Ensure that bank bits are correct.
0D91   0CC4           03911         RRF             IRAM + 24
MPASM  5.51                 HUB12_SCROLL3.ASM   5-30-2019  14:22:53         PAGE 91


LOC  OBJECT CODE     LINE SOURCE TEXT
  VALUE

Message[305]: Using default destination of 1 (file).
Message[302]: Register in operand not in bank 0.  Ensure that bank bits are correct.
0D92   0CC8           03912         RRF             IRAM + 28
Message[305]: Using default destination of 1 (file).
Message[302]: Register in operand not in bank 0.  Ensure that bank bits are correct.
0D93   0CCC           03913         RRF             IRAM + 2C
Message[305]: Using default destination of 1 (file).
Message[302]: Register in operand not in bank 0.  Ensure that bank bits are correct.
0D94   0BE5           03914         DECFSZ  ISHCNT
0D95   2D90           03915         GOTO    ISRA0D
                      03916 
Message[302]: Register in operand not in bank 0.  Ensure that bank bits are correct.
0D96   0864           03917         MOVF    ICURSORX,0
Message[302]: Register in operand not in bank 0.  Ensure that bank bits are correct.
0D97   00E5           03918         MOVWF   ISHCNT
                      03919 
0D98                  03920 ISRA0E
Message[305]: Using default destination of 1 (file).
Message[302]: Register in operand not in bank 0.  Ensure that bank bits are correct.
0D98   0CB0           03921         RRF             IRAM + 10
Message[305]: Using default destination of 1 (file).
Message[302]: Register in operand not in bank 0.  Ensure that bank bits are correct.
0D99   0CB4           03922         RRF             IRAM + 14
Message[305]: Using default destination of 1 (file).
Message[302]: Register in operand not in bank 0.  Ensure that bank bits are correct.
0D9A   0CB8           03923         RRF             IRAM + 18
Message[305]: Using default destination of 1 (file).
Message[302]: Register in operand not in bank 0.  Ensure that bank bits are correct.
0D9B   0CBC           03924         RRF             IRAM + 1C
Message[305]: Using default destination of 1 (file).
Message[302]: Register in operand not in bank 0.  Ensure that bank bits are correct.
0D9C   0BE5           03925         DECFSZ  ISHCNT
0D9D   2D98           03926         GOTO    ISRA0E
                      03927         
Message[302]: Register in operand not in bank 0.  Ensure that bank bits are correct.
0D9E   0864           03928         MOVF    ICURSORX,0
Message[302]: Register in operand not in bank 0.  Ensure that bank bits are correct.
0D9F   00E5           03929         MOVWF   ISHCNT
0DA0                  03930 ISRA0F
Message[305]: Using default destination of 1 (file).
Message[302]: Register in operand not in bank 0.  Ensure that bank bits are correct.
0DA0   0CA0           03931         RRF             IRAM + 00
Message[305]: Using default destination of 1 (file).
Message[302]: Register in operand not in bank 0.  Ensure that bank bits are correct.
0DA1   0CA4           03932         RRF             IRAM + 04
Message[305]: Using default destination of 1 (file).
Message[302]: Register in operand not in bank 0.  Ensure that bank bits are correct.
0DA2   0CA8           03933         RRF             IRAM + 08
Message[305]: Using default destination of 1 (file).
Message[302]: Register in operand not in bank 0.  Ensure that bank bits are correct.
0DA3   0CAC           03934         RRF             IRAM + 0C
Message[305]: Using default destination of 1 (file).
Message[302]: Register in operand not in bank 0.  Ensure that bank bits are correct.
MPASM  5.51                 HUB12_SCROLL3.ASM   5-30-2019  14:22:53         PAGE 92


LOC  OBJECT CODE     LINE SOURCE TEXT
  VALUE

0DA4   0BE5           03935         DECFSZ  ISHCNT
0DA5   2DA0           03936         GOTO    ISRA0F
                      03937 
Warning[203]: Found opcode in column 1. (RETURN)
0DA6   0008           03938 RETURN
                      03939 
0DA7                  03940 IGRP_B
                      03941 
                      03942 ;--------------------
Message[302]: Register in operand not in bank 0.  Ensure that bank bits are correct.
0DA7   0864           03943         MOVFW   ICURSORX
Message[302]: Register in operand not in bank 0.  Ensure that bank bits are correct.
0DA8   00E5           03944         MOVWF   ISHCNT
                      03945 
0DA9   3001           03946         MOVLW   .1
Message[302]: Register in operand not in bank 0.  Ensure that bank bits are correct.
0DAA   00E3           03947         MOVWF   ITESTER
                      03948 
Message[302]: Register in operand not in bank 0.  Ensure that bank bits are correct.
0DAB   0866           03949         MOVFW   IROW
Message[302]: Register in operand not in bank 0.  Ensure that bank bits are correct.
0DAC   0263           03950         SUBWF   ITESTER,W
0DAD   1903           03951         BTFSC   STATUS,Z
0DAE   2DEA           03952         GOTO    ISRB08
                      03953 
                      03954 
                      03955         
0DAF                  03956 ISRB00
Warning[211]: Extraneous arguments on the line.
0DAF   1403           03957         SETC    1
Message[305]: Using default destination of 1 (file).
Message[302]: Register in operand not in bank 0.  Ensure that bank bits are correct.
0DB0   0CD3           03958         RRF             IRAM + 33
Message[305]: Using default destination of 1 (file).
Message[302]: Register in operand not in bank 0.  Ensure that bank bits are correct.
0DB1   0CD7           03959         RRF             IRAM + 37
Message[305]: Using default destination of 1 (file).
Message[302]: Register in operand not in bank 0.  Ensure that bank bits are correct.
0DB2   0CDB           03960         RRF             IRAM + 3B
                      03961 
Message[305]: Using default destination of 1 (file).
Message[302]: Register in operand not in bank 0.  Ensure that bank bits are correct.
0DB3   0BE5           03962         DECFSZ  ISHCNT
0DB4   2DAF           03963         GOTO    ISRB00
                      03964 
Message[302]: Register in operand not in bank 0.  Ensure that bank bits are correct.
0DB5   0864           03965         MOVF    ICURSORX,0
Message[302]: Register in operand not in bank 0.  Ensure that bank bits are correct.
0DB6   00E5           03966         MOVWF   ISHCNT
                      03967 
0DB7                  03968 ISRB01
Message[305]: Using default destination of 1 (file).
Message[302]: Register in operand not in bank 0.  Ensure that bank bits are correct.
MPASM  5.51                 HUB12_SCROLL3.ASM   5-30-2019  14:22:53         PAGE 93


LOC  OBJECT CODE     LINE SOURCE TEXT
  VALUE

0DB7   0CC3           03969         RRF             IRAM + 23
Message[305]: Using default destination of 1 (file).
Message[302]: Register in operand not in bank 0.  Ensure that bank bits are correct.
0DB8   0CC7           03970         RRF             IRAM + 27
Message[305]: Using default destination of 1 (file).
Message[302]: Register in operand not in bank 0.  Ensure that bank bits are correct.
0DB9   0CCB           03971         RRF             IRAM + 2B
                      03972 
Message[305]: Using default destination of 1 (file).
Message[302]: Register in operand not in bank 0.  Ensure that bank bits are correct.
0DBA   0BE5           03973         DECFSZ  ISHCNT
0DBB   2DB7           03974         GOTO    ISRB01
                      03975 
Message[302]: Register in operand not in bank 0.  Ensure that bank bits are correct.
0DBC   0864           03976         MOVF    ICURSORX,0
Message[302]: Register in operand not in bank 0.  Ensure that bank bits are correct.
0DBD   00E5           03977         MOVWF   ISHCNT
                      03978 
0DBE                  03979 ISRB02
Message[305]: Using default destination of 1 (file).
Message[302]: Register in operand not in bank 0.  Ensure that bank bits are correct.
0DBE   0CB3           03980         RRF             IRAM + 13
Message[305]: Using default destination of 1 (file).
Message[302]: Register in operand not in bank 0.  Ensure that bank bits are correct.
0DBF   0CB7           03981         RRF             IRAM + 17
Message[305]: Using default destination of 1 (file).
Message[302]: Register in operand not in bank 0.  Ensure that bank bits are correct.
0DC0   0CBB           03982         RRF             IRAM + 1B
                      03983 
Message[305]: Using default destination of 1 (file).
Message[302]: Register in operand not in bank 0.  Ensure that bank bits are correct.
0DC1   0BE5           03984         DECFSZ  ISHCNT
0DC2   2DBE           03985         GOTO    ISRB02
                      03986 
Message[302]: Register in operand not in bank 0.  Ensure that bank bits are correct.
0DC3   0864           03987         MOVF    ICURSORX,0
Message[302]: Register in operand not in bank 0.  Ensure that bank bits are correct.
0DC4   00E5           03988         MOVWF   ISHCNT
                      03989 
0DC5                  03990 ISRB03
Message[305]: Using default destination of 1 (file).
Message[302]: Register in operand not in bank 0.  Ensure that bank bits are correct.
0DC5   0CA3           03991         RRF             IRAM + 03
Message[305]: Using default destination of 1 (file).
Message[302]: Register in operand not in bank 0.  Ensure that bank bits are correct.
0DC6   0CA7           03992         RRF             IRAM + 07
Message[305]: Using default destination of 1 (file).
Message[302]: Register in operand not in bank 0.  Ensure that bank bits are correct.
0DC7   0CAB           03993         RRF             IRAM + 0B
                      03994 
Message[305]: Using default destination of 1 (file).
Message[302]: Register in operand not in bank 0.  Ensure that bank bits are correct.
0DC8   0BE5           03995         DECFSZ  ISHCNT
MPASM  5.51                 HUB12_SCROLL3.ASM   5-30-2019  14:22:53         PAGE 94


LOC  OBJECT CODE     LINE SOURCE TEXT
  VALUE

0DC9   2DC5           03996         GOTO    ISRB03
                      03997 
Message[302]: Register in operand not in bank 0.  Ensure that bank bits are correct.
0DCA   0864           03998         MOVF    ICURSORX,0
Message[302]: Register in operand not in bank 0.  Ensure that bank bits are correct.
0DCB   00E5           03999         MOVWF   ISHCNT
                      04000 
0DCC                  04001 ISRB04
Message[305]: Using default destination of 1 (file).
Message[302]: Register in operand not in bank 0.  Ensure that bank bits are correct.
0DCC   0CD2           04002         RRF             IRAM + 32
Message[305]: Using default destination of 1 (file).
Message[302]: Register in operand not in bank 0.  Ensure that bank bits are correct.
0DCD   0CD6           04003         RRF             IRAM + 36
Message[305]: Using default destination of 1 (file).
Message[302]: Register in operand not in bank 0.  Ensure that bank bits are correct.
0DCE   0CDA           04004         RRF             IRAM + 3A
                      04005 
Message[305]: Using default destination of 1 (file).
Message[302]: Register in operand not in bank 0.  Ensure that bank bits are correct.
0DCF   0BE5           04006         DECFSZ  ISHCNT
0DD0   2DCC           04007         GOTO    ISRB04
                      04008 
Message[302]: Register in operand not in bank 0.  Ensure that bank bits are correct.
0DD1   0864           04009         MOVF    ICURSORX,0
Message[302]: Register in operand not in bank 0.  Ensure that bank bits are correct.
0DD2   00E5           04010         MOVWF   ISHCNT
                      04011 
0DD3                  04012 ISRB05
Message[305]: Using default destination of 1 (file).
Message[302]: Register in operand not in bank 0.  Ensure that bank bits are correct.
0DD3   0CC2           04013         RRF             IRAM + 22
Message[305]: Using default destination of 1 (file).
Message[302]: Register in operand not in bank 0.  Ensure that bank bits are correct.
0DD4   0CC6           04014         RRF             IRAM + 26
Message[305]: Using default destination of 1 (file).
Message[302]: Register in operand not in bank 0.  Ensure that bank bits are correct.
0DD5   0CCA           04015         RRF             IRAM + 2A
                      04016 
Message[305]: Using default destination of 1 (file).
Message[302]: Register in operand not in bank 0.  Ensure that bank bits are correct.
0DD6   0BE5           04017         DECFSZ  ISHCNT
0DD7   2DD3           04018         GOTO    ISRB05
                      04019 
Message[302]: Register in operand not in bank 0.  Ensure that bank bits are correct.
0DD8   0864           04020         MOVF    ICURSORX,0
Message[302]: Register in operand not in bank 0.  Ensure that bank bits are correct.
0DD9   00E5           04021         MOVWF   ISHCNT
                      04022 
0DDA                  04023 ISRB06
Message[305]: Using default destination of 1 (file).
Message[302]: Register in operand not in bank 0.  Ensure that bank bits are correct.
0DDA   0CB2           04024         RRF             IRAM + 12
MPASM  5.51                 HUB12_SCROLL3.ASM   5-30-2019  14:22:53         PAGE 95


LOC  OBJECT CODE     LINE SOURCE TEXT
  VALUE

Message[305]: Using default destination of 1 (file).
Message[302]: Register in operand not in bank 0.  Ensure that bank bits are correct.
0DDB   0CB6           04025         RRF             IRAM + 16
Message[305]: Using default destination of 1 (file).
Message[302]: Register in operand not in bank 0.  Ensure that bank bits are correct.
0DDC   0CBA           04026         RRF             IRAM + 1A
                      04027 
Message[305]: Using default destination of 1 (file).
Message[302]: Register in operand not in bank 0.  Ensure that bank bits are correct.
0DDD   0BE5           04028         DECFSZ  ISHCNT
0DDE   2DDA           04029         GOTO    ISRB06
                      04030 
                      04031 
Message[302]: Register in operand not in bank 0.  Ensure that bank bits are correct.
0DDF   0864           04032         MOVF    ICURSORX,0
Message[302]: Register in operand not in bank 0.  Ensure that bank bits are correct.
0DE0   00E5           04033         MOVWF   ISHCNT
                      04034 
0DE1                  04035 ISRB07
Message[305]: Using default destination of 1 (file).
Message[302]: Register in operand not in bank 0.  Ensure that bank bits are correct.
0DE1   0CA2           04036         RRF             IRAM + 02
Message[305]: Using default destination of 1 (file).
Message[302]: Register in operand not in bank 0.  Ensure that bank bits are correct.
0DE2   0CA6           04037         RRF             IRAM + 06
Message[305]: Using default destination of 1 (file).
Message[302]: Register in operand not in bank 0.  Ensure that bank bits are correct.
0DE3   0CAA           04038         RRF             IRAM + 0A
                      04039 
Message[305]: Using default destination of 1 (file).
Message[302]: Register in operand not in bank 0.  Ensure that bank bits are correct.
0DE4   0BE5           04040         DECFSZ  ISHCNT
0DE5   2DE1           04041         GOTO    ISRB07
                      04042 
Message[302]: Register in operand not in bank 0.  Ensure that bank bits are correct.
0DE6   0864           04043         MOVF    ICURSORX,0
Message[302]: Register in operand not in bank 0.  Ensure that bank bits are correct.
0DE7   00E5           04044         MOVWF   ISHCNT
Warning[203]: Found opcode in column 1. (RETURN)
0DE8   0008           04045 RETURN
0DE9                  04046 ISRB08_R1
Warning[211]: Extraneous arguments on the line.
0DE9   1403           04047         SETC    1
0DEA                  04048 ISRB08
Message[305]: Using default destination of 1 (file).
Message[302]: Register in operand not in bank 0.  Ensure that bank bits are correct.
0DEA   0CD1           04049         RRF             IRAM + 31
Message[305]: Using default destination of 1 (file).
Message[302]: Register in operand not in bank 0.  Ensure that bank bits are correct.
0DEB   0CD5           04050         RRF             IRAM + 35
Message[305]: Using default destination of 1 (file).
Message[302]: Register in operand not in bank 0.  Ensure that bank bits are correct.
0DEC   0CD9           04051         RRF             IRAM + 39
MPASM  5.51                 HUB12_SCROLL3.ASM   5-30-2019  14:22:53         PAGE 96


LOC  OBJECT CODE     LINE SOURCE TEXT
  VALUE

                      04052 
Message[305]: Using default destination of 1 (file).
Message[302]: Register in operand not in bank 0.  Ensure that bank bits are correct.
0DED   0BE5           04053         DECFSZ  ISHCNT
0DEE   2DEA           04054         GOTO    ISRB08
                      04055 
Message[302]: Register in operand not in bank 0.  Ensure that bank bits are correct.
0DEF   0864           04056         MOVF    ICURSORX,0
Message[302]: Register in operand not in bank 0.  Ensure that bank bits are correct.
0DF0   00E5           04057         MOVWF   ISHCNT
                      04058 
0DF1                  04059 ISRB09
Message[305]: Using default destination of 1 (file).
Message[302]: Register in operand not in bank 0.  Ensure that bank bits are correct.
0DF1   0CC1           04060         RRF             IRAM + 21
Message[305]: Using default destination of 1 (file).
Message[302]: Register in operand not in bank 0.  Ensure that bank bits are correct.
0DF2   0CC5           04061         RRF             IRAM + 25
Message[305]: Using default destination of 1 (file).
Message[302]: Register in operand not in bank 0.  Ensure that bank bits are correct.
0DF3   0CC9           04062         RRF             IRAM + 29
                      04063 
Message[305]: Using default destination of 1 (file).
Message[302]: Register in operand not in bank 0.  Ensure that bank bits are correct.
0DF4   0BE5           04064         DECFSZ  ISHCNT
0DF5   2DF1           04065         GOTO    ISRB09
                      04066 
Message[302]: Register in operand not in bank 0.  Ensure that bank bits are correct.
0DF6   0864           04067         MOVF    ICURSORX,0
Message[302]: Register in operand not in bank 0.  Ensure that bank bits are correct.
0DF7   00E5           04068         MOVWF   ISHCNT
                      04069 
0DF8                  04070 ISRB0A
Message[305]: Using default destination of 1 (file).
Message[302]: Register in operand not in bank 0.  Ensure that bank bits are correct.
0DF8   0CB1           04071         RRF             IRAM + 11
Message[305]: Using default destination of 1 (file).
Message[302]: Register in operand not in bank 0.  Ensure that bank bits are correct.
0DF9   0CB5           04072         RRF             IRAM + 15
Message[305]: Using default destination of 1 (file).
Message[302]: Register in operand not in bank 0.  Ensure that bank bits are correct.
0DFA   0CB9           04073         RRF             IRAM + 19
                      04074 
Message[305]: Using default destination of 1 (file).
Message[302]: Register in operand not in bank 0.  Ensure that bank bits are correct.
0DFB   0BE5           04075         DECFSZ  ISHCNT
0DFC   2DF8           04076         GOTO    ISRB0A
Message[305]: Using default destination of 1 (file).
0DFD   0A8A           04077         INCF    PCLATH
                      04078 
Warning[205]: Found directive in column 1. (ORG)
0E00                  04079 ORG     0XE00
                      04080 
MPASM  5.51                 HUB12_SCROLL3.ASM   5-30-2019  14:22:53         PAGE 97


LOC  OBJECT CODE     LINE SOURCE TEXT
  VALUE

Message[302]: Register in operand not in bank 0.  Ensure that bank bits are correct.
0E00   0864           04081         MOVF    ICURSORX,0
Message[302]: Register in operand not in bank 0.  Ensure that bank bits are correct.
0E01   00E5           04082         MOVWF   ISHCNT
                      04083 
0E02                  04084 ISRB0B
Message[305]: Using default destination of 1 (file).
Message[302]: Register in operand not in bank 0.  Ensure that bank bits are correct.
0E02   0CA1           04085         RRF             IRAM + 01
Message[305]: Using default destination of 1 (file).
Message[302]: Register in operand not in bank 0.  Ensure that bank bits are correct.
0E03   0CA5           04086         RRF             IRAM + 05
Message[305]: Using default destination of 1 (file).
Message[302]: Register in operand not in bank 0.  Ensure that bank bits are correct.
0E04   0CA9           04087         RRF             IRAM + 09
                      04088 
Message[305]: Using default destination of 1 (file).
Message[302]: Register in operand not in bank 0.  Ensure that bank bits are correct.
0E05   0BE5           04089         DECFSZ  ISHCNT
0E06   2E02           04090         GOTO    ISRB0B
                      04091 
Message[302]: Register in operand not in bank 0.  Ensure that bank bits are correct.
0E07   0864           04092         MOVF    ICURSORX,0
Message[302]: Register in operand not in bank 0.  Ensure that bank bits are correct.
0E08   00E5           04093         MOVWF   ISHCNT
                      04094 
0E09                  04095 ISRB0C
Message[305]: Using default destination of 1 (file).
Message[302]: Register in operand not in bank 0.  Ensure that bank bits are correct.
0E09   0CD0           04096         RRF             IRAM + 30
Message[305]: Using default destination of 1 (file).
Message[302]: Register in operand not in bank 0.  Ensure that bank bits are correct.
0E0A   0CD4           04097         RRF             IRAM + 34
Message[305]: Using default destination of 1 (file).
Message[302]: Register in operand not in bank 0.  Ensure that bank bits are correct.
0E0B   0CD8           04098         RRF             IRAM + 38
                      04099 
Message[305]: Using default destination of 1 (file).
Message[302]: Register in operand not in bank 0.  Ensure that bank bits are correct.
0E0C   0BE5           04100         DECFSZ  ISHCNT
0E0D   2E09           04101         GOTO    ISRB0C
                      04102 
Message[302]: Register in operand not in bank 0.  Ensure that bank bits are correct.
0E0E   0864           04103         MOVF    ICURSORX,0
Message[302]: Register in operand not in bank 0.  Ensure that bank bits are correct.
0E0F   00E5           04104         MOVWF   ISHCNT
                      04105 
0E10                  04106 ISRB0D
Message[305]: Using default destination of 1 (file).
Message[302]: Register in operand not in bank 0.  Ensure that bank bits are correct.
0E10   0CC0           04107         RRF             IRAM + 20
Message[305]: Using default destination of 1 (file).
Message[302]: Register in operand not in bank 0.  Ensure that bank bits are correct.
MPASM  5.51                 HUB12_SCROLL3.ASM   5-30-2019  14:22:53         PAGE 98


LOC  OBJECT CODE     LINE SOURCE TEXT
  VALUE

0E11   0CC4           04108         RRF             IRAM + 24
Message[305]: Using default destination of 1 (file).
Message[302]: Register in operand not in bank 0.  Ensure that bank bits are correct.
0E12   0CC8           04109         RRF             IRAM + 28
                      04110 
Message[305]: Using default destination of 1 (file).
Message[302]: Register in operand not in bank 0.  Ensure that bank bits are correct.
0E13   0BE5           04111         DECFSZ  ISHCNT
0E14   2E10           04112         GOTO    ISRB0D
                      04113 
Message[302]: Register in operand not in bank 0.  Ensure that bank bits are correct.
0E15   0864           04114         MOVF    ICURSORX,0
Message[302]: Register in operand not in bank 0.  Ensure that bank bits are correct.
0E16   00E5           04115         MOVWF   ISHCNT
                      04116 
0E17                  04117 ISRB0E
Message[305]: Using default destination of 1 (file).
Message[302]: Register in operand not in bank 0.  Ensure that bank bits are correct.
0E17   0CB0           04118         RRF             IRAM + 10
Message[305]: Using default destination of 1 (file).
Message[302]: Register in operand not in bank 0.  Ensure that bank bits are correct.
0E18   0CB4           04119         RRF             IRAM + 14
Message[305]: Using default destination of 1 (file).
Message[302]: Register in operand not in bank 0.  Ensure that bank bits are correct.
0E19   0CB8           04120         RRF             IRAM + 18
                      04121 
Message[305]: Using default destination of 1 (file).
Message[302]: Register in operand not in bank 0.  Ensure that bank bits are correct.
0E1A   0BE5           04122         DECFSZ  ISHCNT
0E1B   2E17           04123         GOTO    ISRB0E
                      04124         
Message[302]: Register in operand not in bank 0.  Ensure that bank bits are correct.
0E1C   0864           04125         MOVF    ICURSORX,0
Message[302]: Register in operand not in bank 0.  Ensure that bank bits are correct.
0E1D   00E5           04126         MOVWF   ISHCNT
0E1E                  04127 ISRB0F
Message[305]: Using default destination of 1 (file).
Message[302]: Register in operand not in bank 0.  Ensure that bank bits are correct.
0E1E   0CA0           04128         RRF             IRAM + 00
Message[305]: Using default destination of 1 (file).
Message[302]: Register in operand not in bank 0.  Ensure that bank bits are correct.
0E1F   0CA4           04129         RRF             IRAM + 04
Message[305]: Using default destination of 1 (file).
Message[302]: Register in operand not in bank 0.  Ensure that bank bits are correct.
0E20   0CA8           04130         RRF             IRAM + 08
                      04131 
Message[305]: Using default destination of 1 (file).
Message[302]: Register in operand not in bank 0.  Ensure that bank bits are correct.
0E21   0BE5           04132         DECFSZ  ISHCNT
0E22   2E1E           04133         GOTO    ISRB0F
                      04134 
Warning[203]: Found opcode in column 1. (RETURN)
0E23   0008           04135 RETURN
MPASM  5.51                 HUB12_SCROLL3.ASM   5-30-2019  14:22:53         PAGE 99


LOC  OBJECT CODE     LINE SOURCE TEXT
  VALUE

                      04136 
                      04137 
0E24                  04138 IGRP_C
                      04139         ;--------------------
Message[302]: Register in operand not in bank 0.  Ensure that bank bits are correct.
0E24   0864           04140         MOVFW   ICURSORX
Message[302]: Register in operand not in bank 0.  Ensure that bank bits are correct.
0E25   00E5           04141         MOVWF   ISHCNT
                      04142 
0E26   3001           04143         MOVLW   .1
Message[302]: Register in operand not in bank 0.  Ensure that bank bits are correct.
0E27   00E3           04144         MOVWF   ITESTER
                      04145 
Message[302]: Register in operand not in bank 0.  Ensure that bank bits are correct.
0E28   0866           04146         MOVFW   IROW
Message[302]: Register in operand not in bank 0.  Ensure that bank bits are correct.
0E29   0263           04147         SUBWF   ITESTER,W
0E2A   1903           04148         BTFSC   STATUS,Z
0E2B   2E5F           04149         GOTO    ISRC08
                      04150 
                      04151 
                      04152         
0E2C                  04153 ISRC00
Warning[211]: Extraneous arguments on the line.
0E2C   1403           04154         SETC    1
Message[305]: Using default destination of 1 (file).
Message[302]: Register in operand not in bank 0.  Ensure that bank bits are correct.
0E2D   0CD3           04155         RRF             IRAM + 33
Message[305]: Using default destination of 1 (file).
Message[302]: Register in operand not in bank 0.  Ensure that bank bits are correct.
0E2E   0CD7           04156         RRF             IRAM + 37
                      04157 
                      04158 
Message[305]: Using default destination of 1 (file).
Message[302]: Register in operand not in bank 0.  Ensure that bank bits are correct.
0E2F   0BE5           04159         DECFSZ  ISHCNT
0E30   2E2C           04160         GOTO    ISRC00
                      04161 
Message[302]: Register in operand not in bank 0.  Ensure that bank bits are correct.
0E31   0864           04162         MOVF    ICURSORX,0
Message[302]: Register in operand not in bank 0.  Ensure that bank bits are correct.
0E32   00E5           04163         MOVWF   ISHCNT
                      04164 
0E33                  04165 ISRC01
Message[305]: Using default destination of 1 (file).
Message[302]: Register in operand not in bank 0.  Ensure that bank bits are correct.
0E33   0CC3           04166         RRF             IRAM + 23
Message[305]: Using default destination of 1 (file).
Message[302]: Register in operand not in bank 0.  Ensure that bank bits are correct.
0E34   0CC7           04167         RRF             IRAM + 27
                      04168 
                      04169 
Message[305]: Using default destination of 1 (file).
MPASM  5.51                 HUB12_SCROLL3.ASM   5-30-2019  14:22:53         PAGE 100


LOC  OBJECT CODE     LINE SOURCE TEXT
  VALUE

Message[302]: Register in operand not in bank 0.  Ensure that bank bits are correct.
0E35   0BE5           04170         DECFSZ  ISHCNT
0E36   2E33           04171         GOTO    ISRC01
                      04172 
Message[302]: Register in operand not in bank 0.  Ensure that bank bits are correct.
0E37   0864           04173         MOVF    ICURSORX,0
Message[302]: Register in operand not in bank 0.  Ensure that bank bits are correct.
0E38   00E5           04174         MOVWF   ISHCNT
                      04175 
0E39                  04176 ISRC02
Message[305]: Using default destination of 1 (file).
Message[302]: Register in operand not in bank 0.  Ensure that bank bits are correct.
0E39   0CB3           04177         RRF             IRAM + 13
Message[305]: Using default destination of 1 (file).
Message[302]: Register in operand not in bank 0.  Ensure that bank bits are correct.
0E3A   0CB7           04178         RRF             IRAM + 17
                      04179 
                      04180 
Message[305]: Using default destination of 1 (file).
Message[302]: Register in operand not in bank 0.  Ensure that bank bits are correct.
0E3B   0BE5           04181         DECFSZ  ISHCNT
0E3C   2E39           04182         GOTO    ISRC02
                      04183 
Message[302]: Register in operand not in bank 0.  Ensure that bank bits are correct.
0E3D   0864           04184         MOVF    ICURSORX,0
Message[302]: Register in operand not in bank 0.  Ensure that bank bits are correct.
0E3E   00E5           04185         MOVWF   ISHCNT
                      04186 
0E3F                  04187 ISRC03
Message[305]: Using default destination of 1 (file).
Message[302]: Register in operand not in bank 0.  Ensure that bank bits are correct.
0E3F   0CA3           04188         RRF             IRAM + 03
Message[305]: Using default destination of 1 (file).
Message[302]: Register in operand not in bank 0.  Ensure that bank bits are correct.
0E40   0CA7           04189         RRF             IRAM + 07
                      04190 
                      04191 
Message[305]: Using default destination of 1 (file).
Message[302]: Register in operand not in bank 0.  Ensure that bank bits are correct.
0E41   0BE5           04192         DECFSZ  ISHCNT
0E42   2E3F           04193         GOTO    ISRC03
                      04194 
Message[302]: Register in operand not in bank 0.  Ensure that bank bits are correct.
0E43   0864           04195         MOVF    ICURSORX,0
Message[302]: Register in operand not in bank 0.  Ensure that bank bits are correct.
0E44   00E5           04196         MOVWF   ISHCNT
                      04197 
0E45                  04198 ISRC04
Message[305]: Using default destination of 1 (file).
Message[302]: Register in operand not in bank 0.  Ensure that bank bits are correct.
0E45   0CD2           04199         RRF             IRAM + 32
Message[305]: Using default destination of 1 (file).
Message[302]: Register in operand not in bank 0.  Ensure that bank bits are correct.
MPASM  5.51                 HUB12_SCROLL3.ASM   5-30-2019  14:22:53         PAGE 101


LOC  OBJECT CODE     LINE SOURCE TEXT
  VALUE

0E46   0CD6           04200         RRF             IRAM + 36
                      04201 
                      04202 
Message[305]: Using default destination of 1 (file).
Message[302]: Register in operand not in bank 0.  Ensure that bank bits are correct.
0E47   0BE5           04203         DECFSZ  ISHCNT
0E48   2E45           04204         GOTO    ISRC04
                      04205 
Message[302]: Register in operand not in bank 0.  Ensure that bank bits are correct.
0E49   0864           04206         MOVF    ICURSORX,0
Message[302]: Register in operand not in bank 0.  Ensure that bank bits are correct.
0E4A   00E5           04207         MOVWF   ISHCNT
                      04208 
0E4B                  04209 ISRC05
Message[305]: Using default destination of 1 (file).
Message[302]: Register in operand not in bank 0.  Ensure that bank bits are correct.
0E4B   0CC2           04210         RRF             IRAM + 22
Message[305]: Using default destination of 1 (file).
Message[302]: Register in operand not in bank 0.  Ensure that bank bits are correct.
0E4C   0CC6           04211         RRF             IRAM + 26
                      04212 
                      04213 
Message[305]: Using default destination of 1 (file).
Message[302]: Register in operand not in bank 0.  Ensure that bank bits are correct.
0E4D   0BE5           04214         DECFSZ  ISHCNT
0E4E   2E4B           04215         GOTO    ISRC05
                      04216 
Message[302]: Register in operand not in bank 0.  Ensure that bank bits are correct.
0E4F   0864           04217         MOVF    ICURSORX,0
Message[302]: Register in operand not in bank 0.  Ensure that bank bits are correct.
0E50   00E5           04218         MOVWF   ISHCNT
                      04219 
0E51                  04220 ISRC06
Message[305]: Using default destination of 1 (file).
Message[302]: Register in operand not in bank 0.  Ensure that bank bits are correct.
0E51   0CB2           04221         RRF             IRAM + 12
Message[305]: Using default destination of 1 (file).
Message[302]: Register in operand not in bank 0.  Ensure that bank bits are correct.
0E52   0CB6           04222         RRF             IRAM + 16
                      04223 
                      04224 
Message[305]: Using default destination of 1 (file).
Message[302]: Register in operand not in bank 0.  Ensure that bank bits are correct.
0E53   0BE5           04225         DECFSZ  ISHCNT
0E54   2E51           04226         GOTO    ISRC06
                      04227 
                      04228 
Message[302]: Register in operand not in bank 0.  Ensure that bank bits are correct.
0E55   0864           04229         MOVF    ICURSORX,0
Message[302]: Register in operand not in bank 0.  Ensure that bank bits are correct.
0E56   00E5           04230         MOVWF   ISHCNT
                      04231 
0E57                  04232 ISRC07
MPASM  5.51                 HUB12_SCROLL3.ASM   5-30-2019  14:22:53         PAGE 102


LOC  OBJECT CODE     LINE SOURCE TEXT
  VALUE

Message[305]: Using default destination of 1 (file).
Message[302]: Register in operand not in bank 0.  Ensure that bank bits are correct.
0E57   0CA2           04233         RRF             IRAM + 02
Message[305]: Using default destination of 1 (file).
Message[302]: Register in operand not in bank 0.  Ensure that bank bits are correct.
0E58   0CA6           04234         RRF             IRAM + 06
                      04235 
                      04236 
Message[305]: Using default destination of 1 (file).
Message[302]: Register in operand not in bank 0.  Ensure that bank bits are correct.
0E59   0BE5           04237         DECFSZ  ISHCNT
0E5A   2E57           04238         GOTO    ISRC07
                      04239 
Message[302]: Register in operand not in bank 0.  Ensure that bank bits are correct.
0E5B   0864           04240         MOVF    ICURSORX,0
Message[302]: Register in operand not in bank 0.  Ensure that bank bits are correct.
0E5C   00E5           04241         MOVWF   ISHCNT
Warning[203]: Found opcode in column 1. (RETURN)
0E5D   0008           04242 RETURN
0E5E                  04243 ISRC08_R1
Warning[211]: Extraneous arguments on the line.
0E5E   1403           04244         SETC    1
0E5F                  04245 ISRC08
Message[305]: Using default destination of 1 (file).
Message[302]: Register in operand not in bank 0.  Ensure that bank bits are correct.
0E5F   0CD1           04246         RRF             IRAM + 31
Message[305]: Using default destination of 1 (file).
Message[302]: Register in operand not in bank 0.  Ensure that bank bits are correct.
0E60   0CD5           04247         RRF             IRAM + 35
                      04248 
                      04249 
Message[305]: Using default destination of 1 (file).
Message[302]: Register in operand not in bank 0.  Ensure that bank bits are correct.
0E61   0BE5           04250         DECFSZ  ISHCNT
0E62   2E5F           04251         GOTO    ISRC08
                      04252 
Message[302]: Register in operand not in bank 0.  Ensure that bank bits are correct.
0E63   0864           04253         MOVF    ICURSORX,0
Message[302]: Register in operand not in bank 0.  Ensure that bank bits are correct.
0E64   00E5           04254         MOVWF   ISHCNT
                      04255 
0E65                  04256 ISRC09
Message[305]: Using default destination of 1 (file).
Message[302]: Register in operand not in bank 0.  Ensure that bank bits are correct.
0E65   0CC1           04257         RRF             IRAM + 21
Message[305]: Using default destination of 1 (file).
Message[302]: Register in operand not in bank 0.  Ensure that bank bits are correct.
0E66   0CC5           04258         RRF             IRAM + 25
                      04259 
                      04260 
Message[305]: Using default destination of 1 (file).
Message[302]: Register in operand not in bank 0.  Ensure that bank bits are correct.
0E67   0BE5           04261         DECFSZ  ISHCNT
MPASM  5.51                 HUB12_SCROLL3.ASM   5-30-2019  14:22:53         PAGE 103


LOC  OBJECT CODE     LINE SOURCE TEXT
  VALUE

0E68   2E65           04262         GOTO    ISRC09
                      04263         
Message[302]: Register in operand not in bank 0.  Ensure that bank bits are correct.
0E69   0864           04264         MOVF    ICURSORX,0
Message[302]: Register in operand not in bank 0.  Ensure that bank bits are correct.
0E6A   00E5           04265         MOVWF   ISHCNT
                      04266 
0E6B                  04267 ISRC0A
Message[305]: Using default destination of 1 (file).
Message[302]: Register in operand not in bank 0.  Ensure that bank bits are correct.
0E6B   0CB1           04268         RRF             IRAM + 11
Message[305]: Using default destination of 1 (file).
Message[302]: Register in operand not in bank 0.  Ensure that bank bits are correct.
0E6C   0CB5           04269         RRF             IRAM + 15
                      04270 
                      04271 
Message[305]: Using default destination of 1 (file).
Message[302]: Register in operand not in bank 0.  Ensure that bank bits are correct.
0E6D   0BE5           04272         DECFSZ  ISHCNT
0E6E   2E6B           04273         GOTO    ISRC0A
                      04274 
Message[302]: Register in operand not in bank 0.  Ensure that bank bits are correct.
0E6F   0864           04275         MOVF    ICURSORX,0
Message[302]: Register in operand not in bank 0.  Ensure that bank bits are correct.
0E70   00E5           04276         MOVWF   ISHCNT
                      04277 
0E71                  04278 ISRC0B
Message[305]: Using default destination of 1 (file).
Message[302]: Register in operand not in bank 0.  Ensure that bank bits are correct.
0E71   0CA1           04279         RRF             IRAM + 01
Message[305]: Using default destination of 1 (file).
Message[302]: Register in operand not in bank 0.  Ensure that bank bits are correct.
0E72   0CA5           04280         RRF             IRAM + 05
                      04281 
                      04282 
Message[305]: Using default destination of 1 (file).
Message[302]: Register in operand not in bank 0.  Ensure that bank bits are correct.
0E73   0BE5           04283         DECFSZ  ISHCNT
0E74   2E71           04284         GOTO    ISRC0B
                      04285 
Message[302]: Register in operand not in bank 0.  Ensure that bank bits are correct.
0E75   0864           04286         MOVF    ICURSORX,0
Message[302]: Register in operand not in bank 0.  Ensure that bank bits are correct.
0E76   00E5           04287         MOVWF   ISHCNT
                      04288 
0E77                  04289 ISRC0C
Message[305]: Using default destination of 1 (file).
Message[302]: Register in operand not in bank 0.  Ensure that bank bits are correct.
0E77   0CD0           04290         RRF             IRAM + 30
Message[305]: Using default destination of 1 (file).
Message[302]: Register in operand not in bank 0.  Ensure that bank bits are correct.
0E78   0CD4           04291         RRF             IRAM + 34
                      04292 
MPASM  5.51                 HUB12_SCROLL3.ASM   5-30-2019  14:22:53         PAGE 104


LOC  OBJECT CODE     LINE SOURCE TEXT
  VALUE

                      04293 
Message[305]: Using default destination of 1 (file).
Message[302]: Register in operand not in bank 0.  Ensure that bank bits are correct.
0E79   0BE5           04294         DECFSZ  ISHCNT
0E7A   2E77           04295         GOTO    ISRC0C
                      04296 
Message[302]: Register in operand not in bank 0.  Ensure that bank bits are correct.
0E7B   0864           04297         MOVF    ICURSORX,0
Message[302]: Register in operand not in bank 0.  Ensure that bank bits are correct.
0E7C   00E5           04298         MOVWF   ISHCNT
                      04299 
0E7D                  04300 ISRC0D
Message[305]: Using default destination of 1 (file).
Message[302]: Register in operand not in bank 0.  Ensure that bank bits are correct.
0E7D   0CC0           04301         RRF             IRAM + 20
Message[305]: Using default destination of 1 (file).
Message[302]: Register in operand not in bank 0.  Ensure that bank bits are correct.
0E7E   0CC4           04302         RRF             IRAM + 24
                      04303 
                      04304 
Message[305]: Using default destination of 1 (file).
Message[302]: Register in operand not in bank 0.  Ensure that bank bits are correct.
0E7F   0BE5           04305         DECFSZ  ISHCNT
0E80   2E7D           04306         GOTO    ISRC0D
                      04307 
Message[302]: Register in operand not in bank 0.  Ensure that bank bits are correct.
0E81   0864           04308         MOVF    ICURSORX,0
Message[302]: Register in operand not in bank 0.  Ensure that bank bits are correct.
0E82   00E5           04309         MOVWF   ISHCNT
                      04310 
0E83                  04311 ISRC0E
Message[305]: Using default destination of 1 (file).
Message[302]: Register in operand not in bank 0.  Ensure that bank bits are correct.
0E83   0CB0           04312         RRF             IRAM + 10
Message[305]: Using default destination of 1 (file).
Message[302]: Register in operand not in bank 0.  Ensure that bank bits are correct.
0E84   0CB4           04313         RRF             IRAM + 14
                      04314 
                      04315 
Message[305]: Using default destination of 1 (file).
Message[302]: Register in operand not in bank 0.  Ensure that bank bits are correct.
0E85   0BE5           04316         DECFSZ  ISHCNT
0E86   2E83           04317         GOTO    ISRC0E
                      04318         
Message[302]: Register in operand not in bank 0.  Ensure that bank bits are correct.
0E87   0864           04319         MOVF    ICURSORX,0
Message[302]: Register in operand not in bank 0.  Ensure that bank bits are correct.
0E88   00E5           04320         MOVWF   ISHCNT
0E89                  04321 ISRC0F
Message[305]: Using default destination of 1 (file).
Message[302]: Register in operand not in bank 0.  Ensure that bank bits are correct.
0E89   0CA0           04322         RRF             IRAM + 00
Message[305]: Using default destination of 1 (file).
MPASM  5.51                 HUB12_SCROLL3.ASM   5-30-2019  14:22:53         PAGE 105


LOC  OBJECT CODE     LINE SOURCE TEXT
  VALUE

Message[302]: Register in operand not in bank 0.  Ensure that bank bits are correct.
0E8A   0CA4           04323         RRF             IRAM + 04
                      04324 
                      04325 
Message[305]: Using default destination of 1 (file).
Message[302]: Register in operand not in bank 0.  Ensure that bank bits are correct.
0E8B   0BE5           04326         DECFSZ  ISHCNT
0E8C   2E89           04327         GOTO    ISRC0F
                      04328 
Warning[203]: Found opcode in column 1. (RETURN)
0E8D   0008           04329 RETURN
                      04330 
0E8E                  04331 IGRP_D
                      04332 
0E8E   0000           04333         NOP
0E8F   0000           04334         NOP
                      04335 
Warning[203]: Found opcode in column 1. (RETURN)
0E90   0008           04336 RETURN
                      04337 ;###############################################################
                      04338 
                      04339 ;############## IRAM SHIFT Y DOWN GROUP A ######################
0E91                  04340 ISHIFT_DOWN_GRPA
0E91   1683 1303      04341         BANK1
Message[302]: Register in operand not in bank 0.  Ensure that bank bits are correct.
0E93   0820           04342         MOVFW   IRAM+00
0E94   1283 1303      04343         BANK0
0E96   00AA           04344         MOVWF   TEMPFILE
0E97   1683 1303      04345         BANK1
Message[302]: Register in operand not in bank 0.  Ensure that bank bits are correct.
0E99   0830           04346         MOVFW   IRAM+10
Message[302]: Register in operand not in bank 0.  Ensure that bank bits are correct.
0E9A   00A0           04347         MOVWF   IRAM+00
                      04348 
Message[302]: Register in operand not in bank 0.  Ensure that bank bits are correct.
0E9B   0840           04349         MOVFW   IRAM+20
Message[302]: Register in operand not in bank 0.  Ensure that bank bits are correct.
0E9C   00B0           04350         MOVWF   IRAM+10
                      04351 
Message[302]: Register in operand not in bank 0.  Ensure that bank bits are correct.
0E9D   0850           04352         MOVFW   IRAM+30
Message[302]: Register in operand not in bank 0.  Ensure that bank bits are correct.
0E9E   00C0           04353         MOVWF   IRAM+20
                      04354 
Message[302]: Register in operand not in bank 0.  Ensure that bank bits are correct.
0E9F   0821           04355         MOVFW   IRAM+01
Message[302]: Register in operand not in bank 0.  Ensure that bank bits are correct.
0EA0   00D0           04356         MOVWF   IRAM+30
                      04357 
Message[302]: Register in operand not in bank 0.  Ensure that bank bits are correct.
0EA1   0831           04358         MOVFW   IRAM+11
Message[302]: Register in operand not in bank 0.  Ensure that bank bits are correct.
0EA2   00A1           04359         MOVWF   IRAM+01
MPASM  5.51                 HUB12_SCROLL3.ASM   5-30-2019  14:22:53         PAGE 106


LOC  OBJECT CODE     LINE SOURCE TEXT
  VALUE

                      04360 
Message[302]: Register in operand not in bank 0.  Ensure that bank bits are correct.
0EA3   0841           04361         MOVFW   IRAM+21
Message[302]: Register in operand not in bank 0.  Ensure that bank bits are correct.
0EA4   00B1           04362         MOVWF   IRAM+11
                      04363 
Message[302]: Register in operand not in bank 0.  Ensure that bank bits are correct.
0EA5   0851           04364         MOVFW   IRAM+31
Message[302]: Register in operand not in bank 0.  Ensure that bank bits are correct.
0EA6   00C1           04365         MOVWF   IRAM+21
                      04366 
Message[302]: Register in operand not in bank 0.  Ensure that bank bits are correct.
0EA7   0822           04367         MOVFW   IRAM+02
Message[302]: Register in operand not in bank 0.  Ensure that bank bits are correct.
0EA8   00D1           04368         MOVWF   IRAM+31
                      04369 
Message[302]: Register in operand not in bank 0.  Ensure that bank bits are correct.
0EA9   0832           04370         MOVFW   IRAM+12
Message[302]: Register in operand not in bank 0.  Ensure that bank bits are correct.
0EAA   00A2           04371         MOVWF   IRAM+02
                      04372 
Message[302]: Register in operand not in bank 0.  Ensure that bank bits are correct.
0EAB   0842           04373         MOVFW   IRAM+22
Message[302]: Register in operand not in bank 0.  Ensure that bank bits are correct.
0EAC   00B2           04374         MOVWF   IRAM+12
                      04375 
Message[302]: Register in operand not in bank 0.  Ensure that bank bits are correct.
0EAD   0852           04376         MOVFW   IRAM+32
Message[302]: Register in operand not in bank 0.  Ensure that bank bits are correct.
0EAE   00C2           04377         MOVWF   IRAM+22
                      04378 
Message[302]: Register in operand not in bank 0.  Ensure that bank bits are correct.
0EAF   0823           04379         MOVFW   IRAM+03
Message[302]: Register in operand not in bank 0.  Ensure that bank bits are correct.
0EB0   00D2           04380         MOVWF   IRAM+32
                      04381 
Message[302]: Register in operand not in bank 0.  Ensure that bank bits are correct.
0EB1   0833           04382         MOVFW   IRAM+13
Message[302]: Register in operand not in bank 0.  Ensure that bank bits are correct.
0EB2   00A3           04383         MOVWF   IRAM+03
                      04384 
Message[302]: Register in operand not in bank 0.  Ensure that bank bits are correct.
0EB3   0843           04385         MOVFW   IRAM+23
Message[302]: Register in operand not in bank 0.  Ensure that bank bits are correct.
0EB4   00B3           04386         MOVWF   IRAM+13
                      04387 
Message[302]: Register in operand not in bank 0.  Ensure that bank bits are correct.
0EB5   0853           04388         MOVFW   IRAM+33
Message[302]: Register in operand not in bank 0.  Ensure that bank bits are correct.
0EB6   00C3           04389         MOVWF   IRAM+23
                      04390 
0EB7   0008           04391         RETURN
                      04392 ;###############################################################
MPASM  5.51                 HUB12_SCROLL3.ASM   5-30-2019  14:22:53         PAGE 107


LOC  OBJECT CODE     LINE SOURCE TEXT
  VALUE

                      04393 
                      04394 ;############## IRAM SHIFT Y DOWN GROUP B ######################
0EB8                  04395 ISHIFT_DOWN_GRPB
0EB8   1683 1303      04396         BANK1
Message[302]: Register in operand not in bank 0.  Ensure that bank bits are correct.
0EBA   0824           04397         MOVFW   IRAM+04
0EBB   1283 1303      04398         BANK0
0EBD   00F9           04399         MOVWF   TEMPFILEB
0EBE   1683 1303      04400         BANK1
Message[302]: Register in operand not in bank 0.  Ensure that bank bits are correct.
0EC0   0834           04401         MOVFW   IRAM+14
Message[302]: Register in operand not in bank 0.  Ensure that bank bits are correct.
0EC1   00A4           04402         MOVWF   IRAM+04
                      04403 
Message[302]: Register in operand not in bank 0.  Ensure that bank bits are correct.
0EC2   0844           04404         MOVFW   IRAM+24
Message[302]: Register in operand not in bank 0.  Ensure that bank bits are correct.
0EC3   00B4           04405         MOVWF   IRAM+14
                      04406 
Message[302]: Register in operand not in bank 0.  Ensure that bank bits are correct.
0EC4   0854           04407         MOVFW   IRAM+34
Message[302]: Register in operand not in bank 0.  Ensure that bank bits are correct.
0EC5   00C4           04408         MOVWF   IRAM+24
                      04409 
Message[302]: Register in operand not in bank 0.  Ensure that bank bits are correct.
0EC6   0825           04410         MOVFW   IRAM+05
Message[302]: Register in operand not in bank 0.  Ensure that bank bits are correct.
0EC7   00D4           04411         MOVWF   IRAM+34
                      04412 
Message[302]: Register in operand not in bank 0.  Ensure that bank bits are correct.
0EC8   0835           04413         MOVFW   IRAM+15
Message[302]: Register in operand not in bank 0.  Ensure that bank bits are correct.
0EC9   00A5           04414         MOVWF   IRAM+05
                      04415 
Message[302]: Register in operand not in bank 0.  Ensure that bank bits are correct.
0ECA   0845           04416         MOVFW   IRAM+25
Message[302]: Register in operand not in bank 0.  Ensure that bank bits are correct.
0ECB   00B5           04417         MOVWF   IRAM+15
                      04418 
Message[302]: Register in operand not in bank 0.  Ensure that bank bits are correct.
0ECC   0855           04419         MOVFW   IRAM+35
Message[302]: Register in operand not in bank 0.  Ensure that bank bits are correct.
0ECD   00C5           04420         MOVWF   IRAM+25
                      04421 
Message[302]: Register in operand not in bank 0.  Ensure that bank bits are correct.
0ECE   0826           04422         MOVFW   IRAM+06
Message[302]: Register in operand not in bank 0.  Ensure that bank bits are correct.
0ECF   00D5           04423         MOVWF   IRAM+35
                      04424 
Message[302]: Register in operand not in bank 0.  Ensure that bank bits are correct.
0ED0   0836           04425         MOVFW   IRAM+16
Message[302]: Register in operand not in bank 0.  Ensure that bank bits are correct.
0ED1   00A6           04426         MOVWF   IRAM+06
MPASM  5.51                 HUB12_SCROLL3.ASM   5-30-2019  14:22:53         PAGE 108


LOC  OBJECT CODE     LINE SOURCE TEXT
  VALUE

                      04427 
Message[302]: Register in operand not in bank 0.  Ensure that bank bits are correct.
0ED2   0846           04428         MOVFW   IRAM+26
Message[302]: Register in operand not in bank 0.  Ensure that bank bits are correct.
0ED3   00B6           04429         MOVWF   IRAM+16
                      04430 
Message[302]: Register in operand not in bank 0.  Ensure that bank bits are correct.
0ED4   0856           04431         MOVFW   IRAM+36
Message[302]: Register in operand not in bank 0.  Ensure that bank bits are correct.
0ED5   00C6           04432         MOVWF   IRAM+26
                      04433 
Message[302]: Register in operand not in bank 0.  Ensure that bank bits are correct.
0ED6   0827           04434         MOVFW   IRAM+07
Message[302]: Register in operand not in bank 0.  Ensure that bank bits are correct.
0ED7   00D6           04435         MOVWF   IRAM+36
                      04436 
Message[302]: Register in operand not in bank 0.  Ensure that bank bits are correct.
0ED8   0837           04437         MOVFW   IRAM+17
Message[302]: Register in operand not in bank 0.  Ensure that bank bits are correct.
0ED9   00A7           04438         MOVWF   IRAM+07
                      04439 
Message[302]: Register in operand not in bank 0.  Ensure that bank bits are correct.
0EDA   0847           04440         MOVFW   IRAM+27
Message[302]: Register in operand not in bank 0.  Ensure that bank bits are correct.
0EDB   00B7           04441         MOVWF   IRAM+17
                      04442 
Message[302]: Register in operand not in bank 0.  Ensure that bank bits are correct.
0EDC   0857           04443         MOVFW   IRAM+37
Message[302]: Register in operand not in bank 0.  Ensure that bank bits are correct.
0EDD   00C7           04444         MOVWF   IRAM+27
                      04445 
0EDE   0008           04446         RETURN
                      04447 
                      04448 
                      04449 
                      04450 ;################# IRAM SHIFT Y DOWN GROUP C ###################
0EDF                  04451 ISHIFT_DOWN_GRPC
0EDF   1683 1303      04452         BANK1
Message[302]: Register in operand not in bank 0.  Ensure that bank bits are correct.
0EE1   0828           04453         MOVFW   IRAM+08
0EE2   1283 1303      04454         BANK0
0EE4   00FA           04455         MOVWF   TEMPFILEC
0EE5   1683 1303      04456         BANK1
Message[302]: Register in operand not in bank 0.  Ensure that bank bits are correct.
0EE7   0838           04457         MOVFW   IRAM+18
Message[302]: Register in operand not in bank 0.  Ensure that bank bits are correct.
0EE8   00A8           04458         MOVWF   IRAM+08
                      04459 
Message[302]: Register in operand not in bank 0.  Ensure that bank bits are correct.
0EE9   0848           04460         MOVFW   IRAM+28
Message[302]: Register in operand not in bank 0.  Ensure that bank bits are correct.
0EEA   00B8           04461         MOVWF   IRAM+18
                      04462 
MPASM  5.51                 HUB12_SCROLL3.ASM   5-30-2019  14:22:53         PAGE 109


LOC  OBJECT CODE     LINE SOURCE TEXT
  VALUE

Message[302]: Register in operand not in bank 0.  Ensure that bank bits are correct.
0EEB   0858           04463         MOVFW   IRAM+38
Message[302]: Register in operand not in bank 0.  Ensure that bank bits are correct.
0EEC   00C8           04464         MOVWF   IRAM+28
                      04465 
Message[302]: Register in operand not in bank 0.  Ensure that bank bits are correct.
0EED   0829           04466         MOVFW   IRAM+09
Message[302]: Register in operand not in bank 0.  Ensure that bank bits are correct.
0EEE   00D8           04467         MOVWF   IRAM+38
                      04468 
Message[302]: Register in operand not in bank 0.  Ensure that bank bits are correct.
0EEF   0839           04469         MOVFW   IRAM+19
Message[302]: Register in operand not in bank 0.  Ensure that bank bits are correct.
0EF0   00A9           04470         MOVWF   IRAM+09
                      04471 
Message[302]: Register in operand not in bank 0.  Ensure that bank bits are correct.
0EF1   0849           04472         MOVFW   IRAM+29
Message[302]: Register in operand not in bank 0.  Ensure that bank bits are correct.
0EF2   00B9           04473         MOVWF   IRAM+19
                      04474 
Message[302]: Register in operand not in bank 0.  Ensure that bank bits are correct.
0EF3   0859           04475         MOVFW   IRAM+39
Message[302]: Register in operand not in bank 0.  Ensure that bank bits are correct.
0EF4   00C9           04476         MOVWF   IRAM+29
                      04477 
Message[302]: Register in operand not in bank 0.  Ensure that bank bits are correct.
0EF5   082A           04478         MOVFW   IRAM+0A
Message[302]: Register in operand not in bank 0.  Ensure that bank bits are correct.
0EF6   00D9           04479         MOVWF   IRAM+39
                      04480 
Message[302]: Register in operand not in bank 0.  Ensure that bank bits are correct.
0EF7   083A           04481         MOVFW   IRAM+1A
Message[302]: Register in operand not in bank 0.  Ensure that bank bits are correct.
0EF8   00AA           04482         MOVWF   IRAM+0A
                      04483 
Message[302]: Register in operand not in bank 0.  Ensure that bank bits are correct.
0EF9   084A           04484         MOVFW   IRAM+2A
Message[302]: Register in operand not in bank 0.  Ensure that bank bits are correct.
0EFA   00BA           04485         MOVWF   IRAM+1A
                      04486 
Message[302]: Register in operand not in bank 0.  Ensure that bank bits are correct.
0EFB   085A           04487         MOVFW   IRAM+3A
Message[302]: Register in operand not in bank 0.  Ensure that bank bits are correct.
0EFC   00CA           04488         MOVWF   IRAM+2A
                      04489 
Message[302]: Register in operand not in bank 0.  Ensure that bank bits are correct.
0EFD   082B           04490         MOVFW   IRAM+0B
Message[302]: Register in operand not in bank 0.  Ensure that bank bits are correct.
0EFE   00DA           04491         MOVWF   IRAM+3A
                      04492 
Message[302]: Register in operand not in bank 0.  Ensure that bank bits are correct.
0EFF   083B           04493         MOVFW   IRAM+1B
Message[302]: Register in operand not in bank 0.  Ensure that bank bits are correct.
MPASM  5.51                 HUB12_SCROLL3.ASM   5-30-2019  14:22:53         PAGE 110


LOC  OBJECT CODE     LINE SOURCE TEXT
  VALUE

0F00   00AB           04494         MOVWF   IRAM+0B
                      04495 
Message[302]: Register in operand not in bank 0.  Ensure that bank bits are correct.
0F01   084B           04496         MOVFW   IRAM+2B
Message[302]: Register in operand not in bank 0.  Ensure that bank bits are correct.
0F02   00BB           04497         MOVWF   IRAM+1B
                      04498 
Message[302]: Register in operand not in bank 0.  Ensure that bank bits are correct.
0F03   085B           04499         MOVFW   IRAM+3B
Message[302]: Register in operand not in bank 0.  Ensure that bank bits are correct.
0F04   00CB           04500         MOVWF   IRAM+2B
                      04501 
0F05   0008           04502         RETURN
                      04503 ;###############################################################
                      04504 
                      04505 
                      04506 ;################# IRAM SHIFT Y DOWN GROUP D ###################
0F06                  04507 ISHIFT_DOWN_GRPD
0F06   1683 1303      04508         BANK1
Message[302]: Register in operand not in bank 0.  Ensure that bank bits are correct.
0F08   082C           04509         MOVFW   IRAM+0C
0F09   1283 1303      04510         BANK0
0F0B   00FB           04511         MOVWF   TEMPFILED
0F0C   1683 1303      04512         BANK1
Message[302]: Register in operand not in bank 0.  Ensure that bank bits are correct.
0F0E   083C           04513         MOVFW   IRAM+1C
Message[302]: Register in operand not in bank 0.  Ensure that bank bits are correct.
0F0F   00AC           04514         MOVWF   IRAM+0C
                      04515 
Message[302]: Register in operand not in bank 0.  Ensure that bank bits are correct.
0F10   084C           04516         MOVFW   IRAM+2C
Message[302]: Register in operand not in bank 0.  Ensure that bank bits are correct.
0F11   00BC           04517         MOVWF   IRAM+1C
                      04518 
Message[302]: Register in operand not in bank 0.  Ensure that bank bits are correct.
0F12   085C           04519         MOVFW   IRAM+3C
Message[302]: Register in operand not in bank 0.  Ensure that bank bits are correct.
0F13   00CC           04520         MOVWF   IRAM+2C
                      04521 
Message[302]: Register in operand not in bank 0.  Ensure that bank bits are correct.
0F14   082D           04522         MOVFW   IRAM+0D
Message[302]: Register in operand not in bank 0.  Ensure that bank bits are correct.
0F15   00DC           04523         MOVWF   IRAM+3C
                      04524 
Message[302]: Register in operand not in bank 0.  Ensure that bank bits are correct.
0F16   083D           04525         MOVFW   IRAM+1D
Message[302]: Register in operand not in bank 0.  Ensure that bank bits are correct.
0F17   00AD           04526         MOVWF   IRAM+0D
                      04527 
Message[302]: Register in operand not in bank 0.  Ensure that bank bits are correct.
0F18   084D           04528         MOVFW   IRAM+2D
Message[302]: Register in operand not in bank 0.  Ensure that bank bits are correct.
0F19   00BD           04529         MOVWF   IRAM+1D
MPASM  5.51                 HUB12_SCROLL3.ASM   5-30-2019  14:22:53         PAGE 111


LOC  OBJECT CODE     LINE SOURCE TEXT
  VALUE

                      04530 
Message[302]: Register in operand not in bank 0.  Ensure that bank bits are correct.
0F1A   085D           04531         MOVFW   IRAM+3D
Message[302]: Register in operand not in bank 0.  Ensure that bank bits are correct.
0F1B   00CD           04532         MOVWF   IRAM+2D
                      04533 
Message[302]: Register in operand not in bank 0.  Ensure that bank bits are correct.
0F1C   082E           04534         MOVFW   IRAM+0E
Message[302]: Register in operand not in bank 0.  Ensure that bank bits are correct.
0F1D   00DD           04535         MOVWF   IRAM+3D
                      04536 
Message[302]: Register in operand not in bank 0.  Ensure that bank bits are correct.
0F1E   083E           04537         MOVFW   IRAM+1E
Message[302]: Register in operand not in bank 0.  Ensure that bank bits are correct.
0F1F   00AE           04538         MOVWF   IRAM+0E
                      04539 
Message[302]: Register in operand not in bank 0.  Ensure that bank bits are correct.
0F20   084E           04540         MOVFW   IRAM+2E
Message[302]: Register in operand not in bank 0.  Ensure that bank bits are correct.
0F21   00BE           04541         MOVWF   IRAM+1E
                      04542 
Message[302]: Register in operand not in bank 0.  Ensure that bank bits are correct.
0F22   085E           04543         MOVFW   IRAM+3E
Message[302]: Register in operand not in bank 0.  Ensure that bank bits are correct.
0F23   00CE           04544         MOVWF   IRAM+2E
                      04545 
Message[302]: Register in operand not in bank 0.  Ensure that bank bits are correct.
0F24   082F           04546         MOVFW   IRAM+0F
Message[302]: Register in operand not in bank 0.  Ensure that bank bits are correct.
0F25   00DE           04547         MOVWF   IRAM+3E
                      04548 
Message[302]: Register in operand not in bank 0.  Ensure that bank bits are correct.
0F26   083F           04549         MOVFW   IRAM+1F
Message[302]: Register in operand not in bank 0.  Ensure that bank bits are correct.
0F27   00AF           04550         MOVWF   IRAM+0F
                      04551 
Message[302]: Register in operand not in bank 0.  Ensure that bank bits are correct.
0F28   084F           04552         MOVFW   IRAM+2F
Message[302]: Register in operand not in bank 0.  Ensure that bank bits are correct.
0F29   00BF           04553         MOVWF   IRAM+1F
                      04554 
Message[302]: Register in operand not in bank 0.  Ensure that bank bits are correct.
0F2A   085F           04555         MOVFW   IRAM+3F
Message[302]: Register in operand not in bank 0.  Ensure that bank bits are correct.
0F2B   00CF           04556         MOVWF   IRAM+2F
                      04557 
0F2C   0008           04558         RETURN
                      04559 ;###############################################################
                      04560 
                      04561 
0F2D                  04562 SCRL_A
0F2D   300E           04563         MOVLW   .14
0F2E   008A           04564         MOVWF   PCLATH
MPASM  5.51                 HUB12_SCROLL3.ASM   5-30-2019  14:22:53         PAGE 112


LOC  OBJECT CODE     LINE SOURCE TEXT
  VALUE

0F2F   2691           04565         CALL    ISHIFT_DOWN_GRPA
0F30   300C           04566         MOVLW   .12
0F31   008A           04567         MOVWF   PCLATH
0F32   242E           04568         CALL    DSHIFT_DOWN_GRPA
0F33   3000           04569         MOVLW   0
0F34   008A           04570         MOVWF   PCLATH
                      04571         
Warning[203]: Found opcode in column 1. (RETURN)
0F35   0008           04572 RETURN
                      04573 
0F36                  04574 SCRL_B
0F36   300E           04575         MOVLW   .14
0F37   008A           04576         MOVWF   PCLATH
0F38   26B8           04577         CALL    ISHIFT_DOWN_GRPB
0F39   300C           04578         MOVLW   .12
0F3A   008A           04579         MOVWF   PCLATH
0F3B   2451           04580         CALL    DSHIFT_DOWN_GRPB
0F3C   3000           04581         MOVLW   0
0F3D   008A           04582         MOVWF   PCLATH
Warning[203]: Found opcode in column 1. (RETURN)
0F3E   0008           04583 RETURN
                      04584 
0F3F                  04585 SCRL_C
0F3F   300E           04586         MOVLW   .14
0F40   008A           04587         MOVWF   PCLATH
0F41   26DF           04588         CALL    ISHIFT_DOWN_GRPC
0F42   300C           04589         MOVLW   .12
0F43   008A           04590         MOVWF   PCLATH
0F44   2474           04591         CALL    DSHIFT_DOWN_GRPC
0F45   3000           04592         MOVLW   0
0F46   008A           04593         MOVWF   PCLATH
Warning[203]: Found opcode in column 1. (RETURN)
0F47   0008           04594 RETURN
                      04595 
0F48                  04596 SCRL_D
0F48   300E           04597         MOVLW   .14
0F49   008A           04598         MOVWF   PCLATH
0F4A   2706           04599         CALL    ISHIFT_DOWN_GRPD
0F4B   300C           04600         MOVLW   .12
0F4C   008A           04601         MOVWF   PCLATH
0F4D   2497           04602         CALL    DSHIFT_DOWN_GRPD
0F4E   3000           04603         MOVLW   0
0F4F   008A           04604         MOVWF   PCLATH
Warning[203]: Found opcode in column 1. (RETURN)
0F50   0008           04605 RETURN
                      04606 
                      04607 
                      04608 
                      04609 
                      04610         
                      04611 
                      04612 
                      04613 
MPASM  5.51                 HUB12_SCROLL3.ASM   5-30-2019  14:22:53         PAGE 113


LOC  OBJECT CODE     LINE SOURCE TEXT
  VALUE

                      04614 
                      04615 
                      04616 
                      04617 
                      04618 
                      04619 
                      04620 
                      04621 
                      04622 
2100                  04623         ORG     0x2100                          ; data EEPROM location
2100   0001 0002 0003 04624         DE      1,2,3,4                         ; define first four EEPROM locations as 1, 2, 3, and 4
       0004 
                      04625 
                      04626 
                      04627 
                      04628 
                      04629         END                       ; directive 'end of program'
MPASM  5.51                 HUB12_SCROLL3.ASM   5-30-2019  14:22:53         PAGE 114


SYMBOL TABLE
  LABEL                             VALUE 

ABDEN                             00000000
ABDOVF                            00000007
ADCON0                            0000001F
ADCON1                            0000009F
ADCS0                             00000004
ADCS1                             00000005
ADCS2                             00000006
ADDEN                             00000003
ADFM                              00000007
ADIE                              00000006
ADIF                              00000006
ADON                              00000000
ADRESH                            0000001E
ADRESL                            0000009E
ANS0                              00000000
ANS1                              00000001
ANS10                             00000002
ANS11                             00000003
ANS2                              00000002
ANS3                              00000003
ANS4                              00000004
ANS5                              00000005
ANS6                              00000006
ANS7                              00000007
ANS8                              00000000
ANS9                              00000001
ANSEL                             0000011E
ANSELH                            0000011F
A_OFF                             BCF     PORTC,  0
A_ON                              BSF     PORTC,  0
BANK0                             BANKSEL PORTA
BANK1                             BANKSEL ADRESL
BAUDCTL                           0000009B
BF                                00000000
BRG0                              00000000
BRG1                              00000001
BRG10                             00000002
BRG11                             00000003
BRG12                             00000004
BRG13                             00000005
BRG14                             00000006
BRG15                             00000007
BRG16                             00000003
BRG2                              00000002
BRG3                              00000003
BRG4                              00000004
BRG5                              00000005
BRG6                              00000006
BRG7                              00000007
BRG8                              00000000
BRG9                              00000001
BRGH                              00000002
BTCOUNT                           00000074
MPASM  5.51                 HUB12_SCROLL3.ASM   5-30-2019  14:22:53         PAGE 115


SYMBOL TABLE
  LABEL                             VALUE 

B_OFF                             BCF     PORTC,  1
B_ON                              BSF     PORTC,  1
C                                 00000000
C1CH0                             00000000
C1CH1                             00000001
C1IE                              00000005
C1IF                              00000005
C1OE                              00000005
C1ON                              00000007
C1OUT                             00000006
C1POL                             00000004
C1R                               00000002
C1SEN                             00000005
C1VREN                            00000007
C2CH0                             00000000
C2CH1                             00000001
C2IE                              00000006
C2IF                              00000006
C2OE                              00000005
C2ON                              00000007
C2OUT                             00000006
C2POL                             00000004
C2R                               00000002
C2REN                             00000004
C2SYNC                            00000000
C2VREN                            00000006
CCP1CON                           00000017
CCP1IE                            00000002
CCP1IF                            00000002
CCP1M0                            00000000
CCP1M1                            00000001
CCP1M2                            00000002
CCP1M3                            00000003
CCPR                              00000015
CCPR1H                            00000016
CCPR1L                            00000015
CHAR                              000001AC
CHARB                             00000200
CHS0                              00000002
CHS1                              00000003
CHS2                              00000004
CHS3                              00000005
CKE                               00000006
CKP                               00000004
CLK_OFF                           BCF     PORTB,  6
CLK_ON                            BSF     PORTB,  6
CLRAM                             00000148
CLR_IRAM                          00000174
CM1CON0                           00000119
CM2CON0                           0000011A
CM2CON1                           0000011B
COUNT0                            00000025
COUNT1                            00000026
MPASM  5.51                 HUB12_SCROLL3.ASM   5-30-2019  14:22:53         PAGE 116


SYMBOL TABLE
  LABEL                             VALUE 

COUNT2                            00000027
COUNT3                            00000028
COUNT4                            0000006E
CREN                              00000004
CSRC                              00000007
CURSORX                           0000006F
CURSORY                           00000070
D                                 00000005
D0                                0000013D
D1                                0000013F
DATALATCH                         00000132
DATA_ADDRESS                      00000005
DAT_OFF                           BCF     PORTC,  7
DAT_ON                            BSF     PORTC,  7
DC                                00000001
DC1B0                             00000004
DC1B1                             00000005
DELAYMS                           00000021
DELAYS                            00000022
DELAYUS                           00000020
DELAY_MS                          00000163
DELAY_ONEMS                       0000015C
DELAY_ONESEC                      00000168
DELAY_SEC                         0000016F
DELAY_US                          00000154
DISP                              00000100
DISP0                             00000102
DISPLAY                           00000107
DL0                               00000139
DL1                               00000141
DRAM                              0000002C
DRM0                              0000014C
DSHIFT_DOWN_GRPA                  00000C2E
DSHIFT_DOWN_GRPB                  00000C51
DSHIFT_DOWN_GRPC                  00000C74
DSHIFT_DOWN_GRPD                  00000C97
DSP0                              0000010B
DSP1                              00000115
DSP2                              0000011F
DSP3                              00000129
DUMP                              00000499
D_A                               00000005
D_NOT_A                           00000005
ECCPAS                            0000001D
ECCPAS0                           00000004
ECCPAS1                           00000005
ECCPAS2                           00000006
ECCPASE                           00000007
EEADR                             0000010D
EEADRH                            0000010F
EECON1                            0000018C
EECON2                            0000018D
EEDAT                             0000010C
MPASM  5.51                 HUB12_SCROLL3.ASM   5-30-2019  14:22:53         PAGE 117


SYMBOL TABLE
  LABEL                             VALUE 

EEDATA                            0000010C
EEDATH                            0000010E
EEIE                              00000004
EEIF                              00000004
EEPGD                             00000007
EIGHT                             0000026B
F                                 00000001
FERR                              00000002
FIVE                              00000232
FONT                              0000002B
FONT_0                            000004A1
FONT_1                            00000500
FONT_2                            00000503
FOUR                              0000021F
FSR                               00000004
GIE                               00000007
GO                                00000001
GO_DONE                           00000001
GO_NOT_DONE                       00000001
GRP                               00000071
GRP_A                             0000061C
GRP_B                             000006A6
GRP_C                             00000724
GRP_D                             0000078E
HTS                               00000002
HUNDREDS                          000000EA
I2C_DATA                          00000005
I2C_READ                          00000002
I2C_START                         00000003
I2C_STOP                          00000004
ICOUNT                            000000E2
ICURSORX                          000000E4
IDUMP                             00000A00
IFONT_0                           00000A0A
IFONT_1                           00000A66
IFONT_2                           00000B00
IGRP_A                            00000D1D
IGRP_B                            00000DA7
IGRP_C                            00000E24
IGRP_D                            00000E8E
INDF                              00000000
INIT                              00000010
INTCON                            0000000B
INTE                              00000004
INTEDG                            00000006
INTF                              00000001
IOC                               00000096
IOC0                              00000000
IOC1                              00000001
IOC2                              00000002
IOC3                              00000003
IOC4                              00000004
IOC5                              00000005
MPASM  5.51                 HUB12_SCROLL3.ASM   5-30-2019  14:22:53         PAGE 118


SYMBOL TABLE
  LABEL                             VALUE 

IOCA                              00000096
IOCA0                             00000000
IOCA1                             00000001
IOCA2                             00000002
IOCA3                             00000003
IOCA4                             00000004
IOCA5                             00000005
IOCB                              00000116
IOCB4                             00000004
IOCB5                             00000005
IOCB6                             00000006
IOCB7                             00000007
IPOINTER                          000000E0
IPT                               000000E7
IPUTNUM                           00000A80
IRAM                              000000A0
IRCF0                             00000004
IRCF1                             00000005
IRCF2                             00000006
IRM0                              0000017A
IROW                              000000E6
IRP                               00000007
ISHCNT                            000000E5
ISHIFTR                           00000D00
ISHIFT_DOWN_GRPA                  00000E91
ISHIFT_DOWN_GRPB                  00000EB8
ISHIFT_DOWN_GRPC                  00000EDF
ISHIFT_DOWN_GRPD                  00000F06
ISRA00                            00000D25
ISRA01                            00000D2E
ISRA02                            00000D36
ISRA03                            00000D3E
ISRA04                            00000D46
ISRA05                            00000D4E
ISRA06                            00000D56
ISRA07                            00000D5E
ISRA08                            00000D68
ISRA08_R1                         00000D67
ISRA09                            00000D70
ISRA0A                            00000D78
ISRA0B                            00000D80
ISRA0C                            00000D88
ISRA0D                            00000D90
ISRA0E                            00000D98
ISRA0F                            00000DA0
ISRB00                            00000DAF
ISRB01                            00000DB7
ISRB02                            00000DBE
ISRB03                            00000DC5
ISRB04                            00000DCC
ISRB05                            00000DD3
ISRB06                            00000DDA
ISRB07                            00000DE1
MPASM  5.51                 HUB12_SCROLL3.ASM   5-30-2019  14:22:53         PAGE 119


SYMBOL TABLE
  LABEL                             VALUE 

ISRB08                            00000DEA
ISRB08_R1                         00000DE9
ISRB09                            00000DF1
ISRB0A                            00000DF8
ISRB0B                            00000E02
ISRB0C                            00000E09
ISRB0D                            00000E10
ISRB0E                            00000E17
ISRB0F                            00000E1E
ISRC00                            00000E2C
ISRC01                            00000E33
ISRC02                            00000E39
ISRC03                            00000E3F
ISRC04                            00000E45
ISRC05                            00000E4B
ISRC06                            00000E51
ISRC07                            00000E57
ISRC08                            00000E5F
ISRC08_R1                         00000E5E
ISRC09                            00000E65
ISRC0A                            00000E6B
ISRC0B                            00000E71
ISRC0C                            00000E77
ISRC0D                            00000E7D
ISRC0E                            00000E83
ISRC0F                            00000E89
ITESTER                           000000E3
IWIDTH                            000000E1
LOOP                              0000007C
LTS                               00000001
MAIN                              0000001E
MC1OUT                            00000007
MC2OUT                            00000006
MILSEC                            00000023
MSEC                              0000015E
MSEC0                             00000164
MSK                               00000093
MSK0                              00000000
MSK1                              00000001
MSK2                              00000002
MSK3                              00000003
MSK4                              00000004
MSK5                              00000005
MSK6                              00000006
MSK7                              00000007
NINE                              0000027E
NOT_A                             00000005
NOT_ADDRESS                       00000005
NOT_BOR                           00000000
NOT_DONE                          00000001
NOT_PD                            00000003
NOT_POR                           00000001
NOT_RABPU                         00000007
MPASM  5.51                 HUB12_SCROLL3.ASM   5-30-2019  14:22:53         PAGE 120


SYMBOL TABLE
  LABEL                             VALUE 

NOT_T1SYNC                        00000002
NOT_TO                            00000004
NOT_W                             00000002
NOT_WRITE                         00000002
NUMBER                            00000073
OERR                              00000001
OE_OFF                            BCF     PORTC,  5
OE_ON                             BSF     PORTC,  5
ONE                               000001CF
ONES                              000000E8
OPTION_REG                        00000081
OSCCON                            0000008F
OSCTUNE                           00000090
OSFIE                             00000007
OSFIF                             00000007
OSTS                              00000003
P                                 00000004
P1M0                              00000006
P1M1                              00000007
PCL                               00000002
PCLATH                            0000000A
PCON                              0000008E
PDC0                              00000000
PDC1                              00000001
PDC2                              00000002
PDC3                              00000003
PDC4                              00000004
PDC5                              00000005
PDC6                              00000006
PEIE                              00000006
PIE1                              0000008C
PIE2                              0000008D
PIR1                              0000000C
PIR2                              0000000D
POINTER                           0000006C
PORTA                             00000005
PORTB                             00000006
PORTC                             00000007
PR2                               00000092
PRSEN                             00000007
PS0                               00000000
PS1                               00000001
PS2                               00000002
PSA                               00000003
PSSAC0                            00000002
PSSAC1                            00000003
PSSBD0                            00000000
PSSBD1                            00000001
PSTRCON                           0000019D
PT                                00000078
PULSR                             00000002
PULSS                             00000003
PUTNUM                            00000A6B
MPASM  5.51                 HUB12_SCROLL3.ASM   5-30-2019  14:22:53         PAGE 121


SYMBOL TABLE
  LABEL                             VALUE 

PWM1CON                           0000001C
R                                 00000002
RA0                               00000000
RA1                               00000001
RA2                               00000002
RA3                               00000003
RA4                               00000004
RA5                               00000005
RABIE                             00000003
RABIF                             00000000
RB4                               00000004
RB5                               00000005
RB6                               00000006
RB7                               00000007
RC0                               00000000
RC1                               00000001
RC2                               00000002
RC3                               00000003
RC4                               00000004
RC5                               00000005
RC6                               00000006
RC7                               00000007
RCIDL                             00000006
RCIE                              00000005
RCIF                              00000005
RCREG                             0000001A
RCSTA                             00000018
RD                                00000000
READ_WRITE                        00000002
REG_OFF                           BCF     PORTC,  4
REG_ON                            BSF     PORTC,  4
ROW                               00000077
RP0                               00000005
RP1                               00000006
RX9                               00000006
RX9D                              00000000
R_NOT_W                           00000002
R_W                               00000002
S                                 00000003
SB00                              0000079B
SB01                              000007A6
SB02                              000007B1
SB03                              000007BC
SB04                              000007C7
SB05                              000007D2
SB06                              000007DD
SB07                              000007E8
SB08                              000007F4
SB08_FLAG                         000007F0
SB09                              00000800
SB0A                              0000080B
SB0B                              00000816
SB0C                              00000821
MPASM  5.51                 HUB12_SCROLL3.ASM   5-30-2019  14:22:53         PAGE 122


SYMBOL TABLE
  LABEL                             VALUE 

SB0D                              0000082C
SB0E                              00000837
SB0F                              00000842
SBOREN                            00000004
SC00                              00000852
SC01                              0000085D
SC02                              00000868
SC03                              00000873
SC04                              0000087E
SC05                              00000889
SC06                              00000894
SC07                              0000089F
SC08                              000008AB
SC08_FLAG                         000008A7
SC09                              000008B6
SC0A                              000008C1
SC0B                              000008CC
SC0C                              000008D7
SC0D                              000008E2
SC0E                              000008ED
SC0F                              000008F8
SCKP                              00000004
SCRL_A                            00000F2D
SCRL_B                            00000F36
SCRL_C                            00000F3F
SCRL_D                            00000F48
SCS                               00000000
SD00                              00000908
SD01                              00000913
SD02                              0000091E
SD03                              00000929
SD04                              00000934
SD05                              0000093F
SD06                              0000094A
SD07                              00000955
SD08                              00000961
SD08_FLAG                         0000095D
SD09                              0000096C
SD0A                              00000977
SD0B                              00000982
SD0C                              0000098D
SD0D                              00000998
SD0E                              000009A3
SD0F                              000009AE
SEC                               00000024
SEC0                              0000016A
SEC1                              00000170
SENB                              00000003
SENDB                             00000003
SEVEN                             00000258
SHCNT                             0000006D
SHIFTL_GRPA                       00000791
SHIFTL_GRPB                       00000791
MPASM  5.51                 HUB12_SCROLL3.ASM   5-30-2019  14:22:53         PAGE 123


SYMBOL TABLE
  LABEL                             VALUE 

SHIFTL_GRPC                       0000084A
SHIFTL_GRPD                       00000900
SHIFTR                            00000600
SHIFT_YU                          000009B6
SHIFT_YUB                         00000A96
SIX                               00000245
SLB0                              00000186
SLB1                              0000018A
SLB2                              00000192
SLICEB                            00000184
SLICET                            00000198
SLT0                              0000019A
SLT1                              0000019E
SLT2                              000001A6
SMP                               00000007
SPBRG                             00000099
SPBRGH                            0000009A
SPEN                              00000007
SR0                               00000006
SR1                               00000007
SRA00                             00000624
SRA01                             0000062D
SRA02                             00000635
SRA03                             0000063D
SRA04                             00000645
SRA05                             0000064D
SRA06                             00000655
SRA07                             0000065D
SRA08                             00000667
SRA08_R1                          00000666
SRA09                             0000066F
SRA0A                             00000677
SRA0B                             0000067F
SRA0C                             00000687
SRA0D                             0000068F
SRA0E                             00000697
SRA0F                             0000069F
SRB00                             000006AE
SRB01                             000006B6
SRB02                             000006BD
SRB03                             000006C4
SRB04                             000006CB
SRB05                             000006D2
SRB06                             000006D9
SRB07                             000006E0
SRB08                             000006E9
SRB08_R1                          000006E8
SRB09                             000006F0
SRB0A                             000006F7
SRB0B                             00000702
SRB0C                             00000709
SRB0D                             00000710
SRB0E                             00000717
MPASM  5.51                 HUB12_SCROLL3.ASM   5-30-2019  14:22:53         PAGE 124


SYMBOL TABLE
  LABEL                             VALUE 

SRB0F                             0000071E
SRC00                             0000072C
SRC01                             00000733
SRC02                             00000739
SRC03                             0000073F
SRC04                             00000745
SRC05                             0000074B
SRC06                             00000751
SRC07                             00000757
SRC08                             0000075F
SRC08_R1                          0000075E
SRC09                             00000765
SRC0A                             0000076B
SRC0B                             00000771
SRC0C                             00000777
SRC0D                             0000077D
SRC0E                             00000783
SRC0F                             00000789
SRCON                             0000019E
SREN                              00000005
SSPADD                            00000093
SSPBUF                            00000013
SSPCON                            00000014
SSPEN                             00000005
SSPIE                             00000003
SSPIF                             00000003
SSPM0                             00000000
SSPM1                             00000001
SSPM2                             00000002
SSPM3                             00000003
SSPMSK                            00000093
SSPOV                             00000006
SSPSTAT                           00000094
STATUS                            00000003
STRA                              00000000
STRB                              00000001
STRC                              00000002
STRD                              00000003
STRSYNC                           00000004
SWDTEN                            00000000
SYNC                              00000004
T0CS                              00000005
T0IE                              00000005
T0IF                              00000002
T0SE                              00000004
T1CKPS0                           00000004
T1CKPS1                           00000005
T1CON                             00000010
T1GINV                            00000007
T1GSS                             00000001
T1IE                              00000000
T1IF                              00000000
T1OSCEN                           00000003
MPASM  5.51                 HUB12_SCROLL3.ASM   5-30-2019  14:22:53         PAGE 125


SYMBOL TABLE
  LABEL                             VALUE 

T2CKPS0                           00000000
T2CKPS1                           00000001
T2CON                             00000012
T2IE                              00000001
T2IF                              00000001
TALL                              00000076
TEMPFILE                          0000002A
TEMPFILEB                         00000079
TEMPFILEC                         0000007A
TEMPFILED                         0000007B
TENS                              000000E9
TESTER                            00000072
THOUSANDS                         000000EB
THREE                             0000020C
TMR0                              00000001
TMR1                              0000000E
TMR1CS                            00000001
TMR1GE                            00000006
TMR1H                             0000000F
TMR1IE                            00000000
TMR1IF                            00000000
TMR1L                             0000000E
TMR1ON                            00000000
TMR2                              00000011
TMR2IE                            00000001
TMR2IF                            00000001
TMR2ON                            00000002
TOUTPS0                           00000003
TOUTPS1                           00000004
TOUTPS2                           00000005
TOUTPS3                           00000006
TRISA                             00000085
TRISA0                            00000000
TRISA1                            00000001
TRISA2                            00000002
TRISA3                            00000003
TRISA4                            00000004
TRISA5                            00000005
TRISB                             00000086
TRISB4                            00000004
TRISB5                            00000005
TRISB6                            00000006
TRISB7                            00000007
TRISC                             00000087
TRISC0                            00000000
TRISC1                            00000001
TRISC2                            00000002
TRISC3                            00000003
TRISC4                            00000004
TRISC5                            00000005
TRISC6                            00000006
TRISC7                            00000007
TRMT                              00000001
MPASM  5.51                 HUB12_SCROLL3.ASM   5-30-2019  14:22:53         PAGE 126


SYMBOL TABLE
  LABEL                             VALUE 

TUN0                              00000000
TUN1                              00000001
TUN2                              00000002
TUN3                              00000003
TUN4                              00000004
TWO                               000001E2
TX9                               00000006
TX9D                              00000000
TXEN                              00000005
TXIE                              00000004
TXIF                              00000004
TXREG                             00000019
TXSTA                             00000098
T_CHAR                            00000300
T_CHARB                           00000400
T_EIGHT                           00000452
T_FIVE                            000003BD
T_FOUR                            0000039A
T_NINE                            00000475
T_ONE                             00000331
T_SEVEN                           0000042F
T_SIX                             0000040C
T_THREE                           00000377
T_TWO                             00000354
T_ZERO                            0000030E
UA                                00000001
ULPWUE                            00000005
USEC                              00000155
VAR0                              00000029
VCFG                              00000006
VP6EN                             00000004
VR0                               00000000
VR1                               00000001
VR2                               00000002
VR3                               00000003
VRCON                             00000118
VRR                               00000005
W                                 00000000
WCOL                              00000007
WDTCON                            00000097
WDTPS0                            00000001
WDTPS1                            00000002
WDTPS2                            00000003
WDTPS3                            00000004
WIDTH                             00000075
WPU                               00000095
WPU0                              00000000
WPU1                              00000001
WPU2                              00000002
WPU4                              00000004
WPU5                              00000005
WPUA                              00000095
WPUA0                             00000000
MPASM  5.51                 HUB12_SCROLL3.ASM   5-30-2019  14:22:53         PAGE 127


SYMBOL TABLE
  LABEL                             VALUE 

WPUA1                             00000001
WPUA2                             00000002
WPUA4                             00000004
WPUA5                             00000005
WPUB                              00000115
WPUB4                             00000004
WPUB5                             00000005
WPUB6                             00000006
WPUB7                             00000007
WR                                00000001
WREN                              00000002
WRERR                             00000003
WUE                               00000001
YU0                               000009BD
YU1                               00000A9A
Z                                 00000002
ZERO                              000001BA
_BOD_NSLEEP                       00003EFF
_BOD_OFF                          00003CFF
_BOD_ON                           00003FFF
_BOD_SBODEN                       00003DFF
_BOREN_NSLEEP                     00003EFF
_BOREN_OFF                        00003CFF
_BOREN_ON                         00003FFF
_BOREN_SBODEN                     00003DFF
_BOR_NSLEEP                       00003EFF
_BOR_OFF                          00003CFF
_BOR_ON                           00003FFF
_BOR_SBODEN                       00003DFF
_CONFIG                           00002007
_CPD_OFF                          00003FFF
_CPD_ON                           00003F7F
_CP_OFF                           00003FFF
_CP_ON                            00003FBF
_DEVID1                           00002006
_EC_OSC                           00003FFB
_EXTRC                            00003FFF
_EXTRCIO                          00003FFE
_EXTRC_OSC_CLKOUT                 00003FFF
_EXTRC_OSC_NOCLKOUT               00003FFE
_FCMEN_OFF                        000037FF
_FCMEN_ON                         00003FFF
_FOSC_EC                          00003FFB
_FOSC_EXTRCCLK                    00003FFF
_FOSC_EXTRCIO                     00003FFE
_FOSC_HS                          00003FFA
_FOSC_INTRCCLK                    00003FFD
_FOSC_INTRCIO                     00003FFC
_FOSC_LP                          00003FF8
_FOSC_XT                          00003FF9
_HS_OSC                           00003FFA
_IDLOC0                           00002000
_IDLOC1                           00002001
MPASM  5.51                 HUB12_SCROLL3.ASM   5-30-2019  14:22:53         PAGE 128


SYMBOL TABLE
  LABEL                             VALUE 

_IDLOC2                           00002002
_IDLOC3                           00002003
_IESO_OFF                         00003BFF
_IESO_ON                          00003FFF
_INTOSC                           00003FFD
_INTOSCIO                         00003FFC
_INTRC_OSC_CLKOUT                 00003FFD
_INTRC_OSC_NOCLKOUT               00003FFC
_LP_OSC                           00003FF8
_MCLRE_OFF                        00003FDF
_MCLRE_ON                         00003FFF
_PWRTE_OFF                        00003FFF
_PWRTE_ON                         00003FEF
_WDTE_OFF                         00003FF7
_WDTE_ON                          00003FFF
_WDT_OFF                          00003FF7
_WDT_ON                           00003FFF
_XT_OSC                           00003FF9
__16F690                          00000001
__DEBUG                           1
pclath_temp                       0000007F
status_temp                       0000007E
w_temp                            0000007D


MEMORY USAGE MAP ('X' = Used,  '-' = Unused)

0000 : X---XXXXXXXXXXXX XXXXXXXXXXXXXXXX XXXXXXXXXXXXXXXX XX--------------
0100 : XXXXXXXXXXXXXXXX XXXXXXXXXXXXXXXX XXXXXXXXXXXXXXXX XXXXXXXXXXXXXXXX
0140 : XXXXXXXXXXXXXXXX XXXXXXXXXXXXXXXX XXXXXXXXXXXXXXXX XXXXXXXXXXXXXXXX
0180 : XXXXXXXXXXXXXXXX XXXXXXXXXXXXXXXX XXXXXXXXXXXXXXXX XXXXXXXXXXXXXXXX
01C0 : XXXXXXXXXXXXXXXX XXXXXXXXXXXXXXXX XXXXXXXXXXXXXXXX XXXXX-----------
0200 : XXXXXXXXXXXXXXXX XXXXXXXXXXXXXXXX XXXXXXXXXXXXXXXX XXXXXXXXXXXXXXXX
0240 : XXXXXXXXXXXXXXXX XXXXXXXXXXXXXXXX XXXXXXXXXXXXXXXX XXXXXXXXXXXXXXXX
0280 : XXXXXXXXXXXXXXXX X--------------- ---------------- ----------------
0300 : XXXXXXXXXXXXXXXX XXXXXXXXXXXXXXXX XXXXXXXXXXXXXXXX XXXXXXXXXXXXXXXX
0340 : XXXXXXXXXXXXXXXX XXXXXXXXXXXXXXXX XXXXXXXXXXXXXXXX XXXXXXXXXXXXXXXX
0380 : XXXXXXXXXXXXXXXX XXXXXXXXXXXXXXXX XXXXXXXXXXXXXXXX XXXXXXXXXXXXXXXX
03C0 : XXXXXXXXXXXXXXXX XXXXXXXXXXXXXXXX ---------------- ----------------
0400 : XXXXXXXXXXXXXXXX XXXXXXXXXXXXXXXX XXXXXXXXXXXXXXXX XXXXXXXXXXXXXXXX
0440 : XXXXXXXXXXXXXXXX XXXXXXXXXXXXXXXX XXXXXXXXXXXXXXXX XXXXXXXXXXXXXXXX
0480 : XXXXXXXXXXXXXXXX XXXXXXXXXXXXXXXX XXXXXXXXXXXXXXXX XXXXXXXXXXXXXXXX
04C0 : XXXXXXXXXXXXXXXX XXXXXXXXXXXXXXXX XXXXXXXXXXXXXXXX XXXXXXXXX-------
0500 : XXXXXXXXXXXXXXXX XXXXXXXXXXXXXXXX XXXXXXXXXXXXXXXX XXXXXXXXXXXXXXXX
0540 : XXXXXXXXXXXXXXXX XXXXXXXXXXXXXXXX XXXXXXXXXXXXXXXX XXXXXXXXXXXXXXXX
0580 : XXXXXXXXXXXXXXXX XXXXXXXXXXXXXXXX XXXXXXXXXXX----- ----------------
MPASM  5.51                 HUB12_SCROLL3.ASM   5-30-2019  14:22:53         PAGE 129


MEMORY USAGE MAP ('X' = Used,  '-' = Unused)


0600 : XXXXXXXXXXXXXXXX XXXXXXXXXXXXXXXX XXXXXXXXXXXXXXXX XXXXXXXXXXXXXXXX
0640 : XXXXXXXXXXXXXXXX XXXXXXXXXXXXXXXX XXXXXXXXXXXXXXXX XXXXXXXXXXXXXXXX
0680 : XXXXXXXXXXXXXXXX XXXXXXXXXXXXXXXX XXXXXXXXXXXXXXXX XXXXXXXXXXXXXXXX
06C0 : XXXXXXXXXXXXXXXX XXXXXXXXXXXXXXXX XXXXXXXXXXXXXXXX XXXXXXXXXXXXX---
0700 : XXXXXXXXXXXXXXXX XXXXXXXXXXXXXXXX XXXXXXXXXXXXXXXX XXXXXXXXXXXXXXXX
0740 : XXXXXXXXXXXXXXXX XXXXXXXXXXXXXXXX XXXXXXXXXXXXXXXX XXXXXXXXXXXXXXXX
0780 : XXXXXXXXXXXXXXXX XXXXXXXXXXXXXXXX XXXXXXXXXXXXXXXX XXXXXXXXXXXXXXXX
07C0 : XXXXXXXXXXXXXXXX XXXXXXXXXXXXXXXX XXXXXXXXXXXXXXXX XXXXXXXXXXXXXXXX
0800 : XXXXXXXXXXXXXXXX XXXXXXXXXXXXXXXX XXXXXXXXXXXXXXXX XXXXXXXXXXXXXXXX
0840 : XXXXXXXXXXXXXXXX XXXXXXXXXXXXXXXX XXXXXXXXXXXXXXXX XXXXXXXXXXXXXXXX
0880 : XXXXXXXXXXXXXXXX XXXXXXXXXXXXXXXX XXXXXXXXXXXXXXXX XXXXXXXXXXXXXXXX
08C0 : XXXXXXXXXXXXXXXX XXXXXXXXXXXXXXXX XXXXXXXXXXXXXXXX XXXXXXXXXXXXXXXX
0900 : XXXXXXXXXXXXXXXX XXXXXXXXXXXXXXXX XXXXXXXXXXXXXXXX XXXXXXXXXXXXXXXX
0940 : XXXXXXXXXXXXXXXX XXXXXXXXXXXXXXXX XXXXXXXXXXXXXXXX XXXXXXXXXXXXXXXX
0980 : XXXXXXXXXXXXXXXX XXXXXXXXXXXXXXXX XXXXXXXXXXXXXXXX XXXXXXXXXXXXXXXX
09C0 : XXXXXXXXXXXXXXXX XXXXXXXXXXXXXXXX XXXXXXXXXXXXX--- ----------------
0A00 : XXXXXXXXXXXXXXXX XXXXXXXXXXXXXXXX XXXXXXXXXXXXXXXX XXXXXXXXXXXXXXXX
0A40 : XXXXXXXXXXXXXXXX XXXXXXXXXXXXXXXX XXXXXXXXXXXXXXXX XXXXXXXXXXXXXXXX
0A80 : XXXXXXXXXXXXXXXX XXXXXXXXXXXXXXXX XXXXXXXXXXXXXXXX XXXXXXXXXXXXXXX-
0B00 : XXXXXXXXXXXXXXXX XXXXXXXXXXXXXXXX XXXXXXXXXXXXXXXX XXXXXXXXXXXXXXXX
0B40 : XXXXXXXXXXXXXXXX XXXXXXXXXXXXXXXX XXXXXXXXXXXXXXXX XXXXXXXXXXXXXXXX
0B80 : XXXXXXXXXXXXXXXX XXXXXXXXXXXXXXXX XXXXXXXXXXXXXXXX XXXXXXXXXXXXXXXX
0BC0 : XXXXXXXXXXXXXXXX XXXXXXXXXXXXXXXX XXXXXXXXXXXXXXXX XXXXXXXXXXXXXXXX
0C00 : XXXXXXXXXXXXXXXX XXXXXXXXXXXXXXXX XXXXXXXXXXXXXXXX XXXXXXXXXXXXXXXX
0C40 : XXXXXXXXXXXXXXXX XXXXXXXXXXXXXXXX XXXXXXXXXXXXXXXX XXXXXXXXXXXXXXXX
0C80 : XXXXXXXXXXXXXXXX XXXXXXXXXXXXXXXX XXXXXXXXXXXXXXXX XXXXXXXXXX------
0D00 : XXXXXXXXXXXXXXXX XXXXXXXXXXXXXXXX XXXXXXXXXXXXXXXX XXXXXXXXXXXXXXXX
0D40 : XXXXXXXXXXXXXXXX XXXXXXXXXXXXXXXX XXXXXXXXXXXXXXXX XXXXXXXXXXXXXXXX
0D80 : XXXXXXXXXXXXXXXX XXXXXXXXXXXXXXXX XXXXXXXXXXXXXXXX XXXXXXXXXXXXXXXX
0DC0 : XXXXXXXXXXXXXXXX XXXXXXXXXXXXXXXX XXXXXXXXXXXXXXXX XXXXXXXXXXXXXX--
0E00 : XXXXXXXXXXXXXXXX XXXXXXXXXXXXXXXX XXXXXXXXXXXXXXXX XXXXXXXXXXXXXXXX
0E40 : XXXXXXXXXXXXXXXX XXXXXXXXXXXXXXXX XXXXXXXXXXXXXXXX XXXXXXXXXXXXXXXX
0E80 : XXXXXXXXXXXXXXXX XXXXXXXXXXXXXXXX XXXXXXXXXXXXXXXX XXXXXXXXXXXXXXXX
0EC0 : XXXXXXXXXXXXXXXX XXXXXXXXXXXXXXXX XXXXXXXXXXXXXXXX XXXXXXXXXXXXXXXX
0F00 : XXXXXXXXXXXXXXXX XXXXXXXXXXXXXXXX XXXXXXXXXXXXXXXX XXXXXXXXXXXXXXXX
0F40 : XXXXXXXXXXXXXXXX X--------------- ---------------- ----------------
2000 : -------X-------- ---------------- ---------------- ----------------
2100 : XXXX------------ ---------------- ---------------- ----------------

All other memory blocks unused.

Program Memory Words Used:  3307
Program Memory Words Free:   789


Errors   :     0
Warnings :   162 reported,     0 suppressed
Messages :  1151 reported,     0 suppressed

