MPASM  5.51                     HUB12_SPI.ASM   6-13-2019  15:22:38         PAGE  1


LOC  OBJECT CODE     LINE SOURCE TEXT
  VALUE

                      00001 ;**********************************************************************
                      00002 ;                                                                     *
                      00003 ;    Filename:      HUB12_SPI.asm                                     *
                      00004 ;    Date:          2019.31.05                                        *
                      00005 ;    File Version:                                                    *
                      00006 ;                                                                     *
                      00007 ;    Author:                                                          *
                      00008 ;    Company:      GER-PER ENGINEERING                                *
                      00009 ;                                                                     * 
                      00010 ;                                                                     *
                      00011 ;**********************************************************************
                      00012 ;                                                                     *
                      00013 ;    Files Required: P16F690.INC                                      *
                      00014 ;                                                                     *
                      00015 ;**********************************************************************
                      00016 
                      00017 
                      00018 
                      00019 
                      00020         list            p=16f690                ; list directive to define processor
                      00021         #include        <P16F690.inc>           ; processor specific variable definitions
                      00001         LIST
                      00002 
                      00003 ;==========================================================================
                      00004 ;  MPASM PIC16F690 processor include
                      00005 ; 
                      00006 ;  (c) Copyright 1999-2013 Microchip Technology, All rights reserved
                      00007 ;==========================================================================
                      00008 
                      00756         LIST
                      00022         
2007   30C2           00023         __CONFIG    _CP_OFF & _CPD_OFF & _BOR_OFF & _PWRTE_ON & _WDT_OFF & _HS_OSC & _MCLRE_OFF & _FCMEN
                            _OFF & _IESO_OFF
                      00024 
                      00025 
                      00026 ; '__CONFIG' directive is used to embed configuration data within .asm file.
                      00027 ; The labels following the directive are located in the respective .inc file.
                      00028 ; See respective data sheet for additional information on configuration word.
                      00029 
                      00030 
                      00031 
                      00032 
                      00033 
                      00034 
                      00035 ;***** VARIABLE DEFINITIONS
  0000007D            00036 w_temp          EQU     0x7D                    ; variable used for context saving
  0000007E            00037 status_temp     EQU     0x7E                    ; variable used for context saving
  0000007F            00038 pclath_temp     EQU     0x7F                    ; variable used for context saving
                      00039         
                      00040 
                      00041         ;#DEFINE C0_ON          BSF PORTC,      0       PORTC0=====>HI
                      00042         ;#DEFINE C0_OFF         BCF PORTC,      0       PORTC0=====>LO
                      00043 
MPASM  5.51                     HUB12_SPI.ASM   6-13-2019  15:22:38         PAGE  2


LOC  OBJECT CODE     LINE SOURCE TEXT
  VALUE

                      00044         #DEFINE A_ON            BSF     PORTC,  0
                      00045         #DEFINE A_OFF           BCF     PORTC,  0
                      00046         
                      00047         #DEFINE B_ON            BSF     PORTC,  1
                      00048         #DEFINE B_OFF           BCF     PORTC,  1
                      00049 
                      00050         #DEFINE DAT_ON          BSF     PORTC,  2
                      00051         #DEFINE DAT_OFF         BCF     PORTC,  2
                      00052 
                      00053         #DEFINE CLK_ON          BSF     PORTC,  7
                      00054         #DEFINE CLK_OFF         BCF     PORTC,  7
                      00055         
                      00056         #DEFINE REG_ON          BSF     PORTC,  4
                      00057         #DEFINE REG_OFF         BCF     PORTC,  4
                      00058         
                      00059         #DEFINE OE_ON           BSF     PORTC,  5
                      00060         #DEFINE OE_OFF          BCF     PORTC,  5
                      00061 
                      00062 
                      00063         #DEFINE BANK0           BANKSEL PORTA
                      00064         #DEFINE BANK1           BANKSEL ADRESL
                      00065         
                      00066 
                      00067         CBLOCK 0x20
                      00068 
  00000020            00069                         DELAYUS, DELAYMS, DELAYS, MILSEC, SEC   ;DELAY VARIABLES
                      00070                         ;=======================================================
                      00071                         
  00000025            00072                         COUNT0, COUNT1,COUNT2,COUNT3
                      00073                         
  00000029            00074                         VAR0
  0000002A            00075                         TEMPFILE, FONT
  0000002C            00076                         DRAM : .64, POINTER
                      00077                         ;========================================================
                      00078 
                      00079 
  0000006D            00080                         SHCNT,COUNT4
  0000006F            00081                         CURSORX,CURSORY,GRP
  00000072            00082                         TESTER
  00000073            00083                         NUMBER,BTCOUNT,WIDTH,TALL
  00000077            00084                         ROW,BRIGHTNESS
  00000079            00085                         TEMPFILEB,TEMPFILEC,TEMPFILED,LOOP
                      00086 
                      00087         ENDC                                                                                            
                              
                      00088 
                      00089         CBLOCK 0XA0
                      00090 
  000000A0            00091                         IRAM : .64
  000000E0            00092                         IPOINTER,IWIDTH
  000000E2            00093                         ICOUNT,ITESTER,ICURSORX,ISHCNT,IROW,IPT
  000000E8            00094                         ITEMPFILE,ICOUNT0,ICOUNT1,ICOUNT2,ICOUNT3,ICOUNT4
                      00095 
MPASM  5.51                     HUB12_SPI.ASM   6-13-2019  15:22:38         PAGE  3


LOC  OBJECT CODE     LINE SOURCE TEXT
  VALUE

  000000EE            00096                         ONES,TENS,HUNDREDS,THOUSANDS
                      00097         ENDC
                      00098 ;********************************************************************** 
0000                  00099         ORG             0x000                           ; processor reset vector
                      00100 
0000   2810           00101         GOTO    INIT                            ; go to beginning of program    
                      00102 
0004                  00103         ORG             0x004                           ; interrupt vector location
0004   00FD           00104         movwf           w_temp                  ; save off current W register contents
0005   0803           00105         movf            STATUS,w                ; move status register into W register
0006   00FE           00106         movwf           status_temp             ; save off contents of STATUS register
0007   080A           00107         movf            PCLATH,w                ; move pclath register into W register
0008   00FF           00108         movwf           pclath_temp             ; save off contents of PCLATH register
                      00109 
                      00110 
                      00111 ; isr code can go here or be located as a call subroutine elsewhere
                      00112 
0009   087F           00113         movf            pclath_temp,w           ; retrieve copy of PCLATH registerz`
000A   008A           00114         movwf           PCLATH                  ; restore pre-isr PCLATH register contents      
000B   087E           00115         movf            status_temp,w           ; retrieve copy of STATUS register
000C   0083           00116         movwf           STATUS                  ; restore pre-isr STATUS register contents
000D   0EFD           00117         swapf           w_temp,f
000E   0E7D           00118         swapf           w_temp,w                ; restore pre-isr W register contents
000F   0009           00119         retfie                                  ; return from interrupt
                      00120 
                      00121 
                      00122 ;$$$$$$$$$$$$$$$$$$$$$  INITIALIZE      $$$$$$$$$$$$$$$$$$$$$$$$$$$$$$$$$
                      00123 
                      00124 ;DECLARE PORTC AS OUTPUT HERE:
0010                  00125 INIT
Warning[205]: Found directive in column 1. (BANKSEL)
0010   1283 1703      00126 BANKSEL ANSEL
Warning[203]: Found opcode in column 1. (CLRW)
0012   0103           00127 CLRW
Warning[203]: Found opcode in column 1. (MOVWF)
Message[302]: Register in operand not in bank 0.  Ensure that bank bits are correct.
0013   009E           00128 MOVWF   ANSEL
Warning[203]: Found opcode in column 1. (MOVWF)
Message[302]: Register in operand not in bank 0.  Ensure that bank bits are correct.
0014   009F           00129 MOVWF   ANSELH
                      00130 
Warning[205]: Found directive in column 1. (BANKSEL)
0015   1683 1303      00131 BANKSEL TRISB
                      00132 
Warning[203]: Found opcode in column 1. (MOVLW)
0017   30B0           00133 MOVLW   B'10110000'
Warning[203]: Found opcode in column 1. (MOVWF)
Message[302]: Register in operand not in bank 0.  Ensure that bank bits are correct.
0018   0086           00134 MOVWF   TRISB
                      00135 
Warning[203]: Found opcode in column 1. (MOVLW)
0019   3000           00136 MOVLW   0
Warning[203]: Found opcode in column 1. (MOVWF)
MPASM  5.51                     HUB12_SPI.ASM   6-13-2019  15:22:38         PAGE  4


LOC  OBJECT CODE     LINE SOURCE TEXT
  VALUE

Message[302]: Register in operand not in bank 0.  Ensure that bank bits are correct.
001A   0087           00137 MOVWF   TRISC
                      00138 
Warning[205]: Found directive in column 1. (BANKSEL)
001B   1283 1303      00139 BANKSEL SSPCON
                      00140 
Warning[203]: Found opcode in column 1. (MOVLW)
001D   3030           00141 MOVLW   B'00110000'
Warning[203]: Found opcode in column 1. (MOVWF)
001E   0094           00142 MOVWF   SSPCON
                      00143 
                      00144 
                      00145 
Warning[205]: Found directive in column 1. (BANKSEL)
001F   1283 1303      00146 BANK0
Warning[203]: Found opcode in column 1. (MOVLW)
0021   3064           00147 MOVLW   .100
Warning[203]: Found opcode in column 1. (MOVWF)
0022   00F8           00148 MOVWF   BRIGHTNESS
Warning[203]: Found opcode in column 1. (CALL)
0023   214C           00149 CALL    CLRAM
Warning[203]: Found opcode in column 1. (CALL)
0024   2176           00150 CALL    CLR_IRAM
                      00151 
Warning[203]: Found opcode in column 1. (GOTO)
0025   2826           00152 GOTO    MAIN
                      00153 ;$$$$$$$$$$$$$$$$$$$$$$$$$$$$$$$$$$$$$$$$$$$$$$$$$$$$$$$$$$$$$$$$$$$$
                      00154 
                      00155 
                      00156 
                      00157 
                      00158 
                      00159 
                      00160 ;#######################        MAIN    #################################
0026                  00161 MAIN
0026   1283 1303      00162         BANK0
0028   3002           00163         MOVLW   2
0029   00AB           00164         MOVWF   FONT
002A   1283 1303      00165         BANK0
002C   3006           00166         MOVLW   6
002D   00F3           00167         MOVWF   NUMBER
002E   1683 1303      00168         BANK1
0030   3011           00169         MOVLW   .17
Message[302]: Register in operand not in bank 0.  Ensure that bank bits are correct.
0031   00E4           00170         MOVWF   ICURSORX
                      00171 
                      00172 ;       MOVLW   0
                      00173 ;       MOVWF   CURSORY
                      00174 
0032   3008           00175         MOVLW   .8
0033   008A           00176         MOVWF   PCLATH
                      00177         
Message[306]: Crossing page boundary -- ensure page bits are set.
MPASM  5.51                     HUB12_SPI.ASM   6-13-2019  15:22:38         PAGE  5


LOC  OBJECT CODE     LINE SOURCE TEXT
  VALUE

0034   2000           00178         CALL    IPUTNUM
                      00179 ;----------------------
0035   1283 1303      00180         BANK0
0037   3005           00181         MOVLW   5
0038   00F3           00182         MOVWF   NUMBER
0039   1683 1303      00183         BANK1
003B   3000           00184         MOVLW   0
Message[302]: Register in operand not in bank 0.  Ensure that bank bits are correct.
003C   00E4           00185         MOVWF   ICURSORX
                      00186 
                      00187 ;       MOVLW   0
                      00188 ;       MOVWF   CURSORY
                      00189 
003D   3008           00190         MOVLW   .8
003E   008A           00191         MOVWF   PCLATH
                      00192         
Message[306]: Crossing page boundary -- ensure page bits are set.
003F   2000           00193         CALL    IPUTNUM
                      00194 ;----------------------
                      00195 
                      00196 
                      00197 
0040   30FF           00198         MOVLW   0XFF
0041   00FB           00199         MOVWF   TEMPFILED
0042   00FA           00200         MOVWF   TEMPFILEC
0043   300A           00201         MOVLW   0X0A
0044   008A           00202         MOVWF   PCLATH
Message[306]: Crossing page boundary -- ensure page bits are set.
0045   2269           00203         CALL    DSHIFT_DOWN_GRPD
Message[306]: Crossing page boundary -- ensure page bits are set.
0046   2246           00204         CALL    DSHIFT_DOWN_GRPC
0047   3000           00205         MOVLW   0
0048   008A           00206         MOVWF   PCLATH
                      00207 
0049   3010           00208         MOVLW   .16
004A   00FC           00209         MOVWF   LOOP
004B                  00210 MNDC
004B   1287           00211         OE_OFF
004C   300B           00212         MOVLW   0X0B
004D   008A           00213         MOVWF   PCLATH
Message[306]: Crossing page boundary -- ensure page bits are set.
004E   2327           00214         CALL    ISHIFT_DOWN_GRPD
Message[306]: Crossing page boundary -- ensure page bits are set.
004F   2300           00215         CALL    ISHIFT_DOWN_GRPC
0050   300C           00216         MOVLW   0X0C
0051   008A           00217         MOVWF   PCLATH
Message[306]: Crossing page boundary -- ensure page bits are set.
0052   2269           00218         CALL    DSHIFT_DOWN_GRPD
Message[306]: Crossing page boundary -- ensure page bits are set.
0053   2246           00219         CALL    DSHIFT_DOWN_GRPC
0054   3001           00220         MOVLW   1
0055   008A           00221         MOVWF   PCLATH
0056   2100           00222         CALL    DISP
MPASM  5.51                     HUB12_SPI.ASM   6-13-2019  15:22:38         PAGE  6


LOC  OBJECT CODE     LINE SOURCE TEXT
  VALUE

0057   3000           00223         MOVLW   0
0058   008A           00224         MOVWF   PCLATH
0059   0BFC           00225         DECFSZ  LOOP,F
005A   284B           00226         GOTO    MNDC
                      00227 
                      00228 
                      00229 
                      00230 
                      00231 
005B   30FF           00232         MOVLW   0XFF
005C   00F9           00233         MOVWF   TEMPFILEB
005D   00AA           00234         MOVWF   TEMPFILE
005E   300C           00235         MOVLW   0X0C
005F   008A           00236         MOVWF   PCLATH
Message[306]: Crossing page boundary -- ensure page bits are set.
0060   2223           00237         CALL    DSHIFT_DOWN_GRPB
Message[306]: Crossing page boundary -- ensure page bits are set.
0061   2200           00238         CALL    DSHIFT_DOWN_GRPA
0062   3000           00239         MOVLW   0
0063   008A           00240         MOVWF   PCLATH
0064   3010           00241         MOVLW   .16
0065   00FC           00242         MOVWF   LOOP
0066                  00243 MNBA
0066   1287           00244         OE_OFF
0067   300E           00245         MOVLW   0X0E
0068   008A           00246         MOVWF   PCLATH
Message[306]: Crossing page boundary -- ensure page bits are set.
0069   22B3           00247         CALL    ISHIFT_DOWN_GRPB
Message[306]: Crossing page boundary -- ensure page bits are set.
006A   228C           00248         CALL    ISHIFT_DOWN_GRPA
006B   300C           00249         MOVLW   0X0C
006C   008A           00250         MOVWF   PCLATH
Message[306]: Crossing page boundary -- ensure page bits are set.
006D   2223           00251         CALL    DSHIFT_DOWN_GRPB
Message[306]: Crossing page boundary -- ensure page bits are set.
006E   2200           00252         CALL    DSHIFT_DOWN_GRPA
006F   3001           00253         MOVLW   1
0070   008A           00254         MOVWF   PCLATH
0071   2100           00255         CALL    DISP
0072   3000           00256         MOVLW   0
0073   008A           00257         MOVWF   PCLATH
0074   0BFC           00258         DECFSZ  LOOP,F
0075   2866           00259         GOTO    MNBA
                      00260 
                      00261 
                      00262 
                      00263 
                      00264 
                      00265 
                      00266 
                      00267 
0076   2176           00268         CALL    CLR_IRAM
                      00269         
MPASM  5.51                     HUB12_SPI.ASM   6-13-2019  15:22:38         PAGE  7


LOC  OBJECT CODE     LINE SOURCE TEXT
  VALUE

                      00270 
                      00271 
                      00272 
Warning[203]: Found opcode in column 1. (GOTO)
0077   2826           00273 GOTO MAIN
                      00274 ;####################################################################
                      00275 
                      00276 
Warning[205]: Found directive in column 1. (ORG)
0100                  00277 ORG 0X100
                      00278 ;-------------------
0100                  00279 DISP
0100   3028           00280         MOVLW   .40
0101   00EE           00281         MOVWF   COUNT4
0102                  00282 DISP0
0102   1287           00283         OE_OFF
0103   211B           00284         CALL    DISPLAY
0104   0BEE           00285         DECFSZ  COUNT4,F
0105   2902           00286         GOTO    DISP0
0106   1287           00287         OE_OFF
Warning[203]: Found opcode in column 1. (RETURN)
0107   0008           00288 RETURN
                      00289 ;-------------------
                      00290 
                      00291 ;============   DATALATCH ========
0108                  00292 DATALATCH
Warning[203]: Found opcode in column 1. (BCF)
0108   1287           00293 OE_OFF
Warning[203]: Found opcode in column 1. (BCF)
0109   1207           00294 REG_OFF
                      00295 
Warning[203]: Found opcode in column 1. (MOVLW)
010A   3010           00296 MOVLW   .16
Warning[203]: Found opcode in column 1. (MOVWF)
010B   00EC           00297 MOVWF   POINTER
                      00298 
                      00299 
010C                  00300 DSP0
Warning[204]: Found pseudo-op in column 1. (MOVFW)
010C   0800           00301 MOVFW   INDF
Warning[203]: Found opcode in column 1. (MOVWF)
010D   0093           00302 MOVWF   SSPBUF
                      00303 
Warning[203]: Found opcode in column 1. (NOP)
010E   0000           00304 NOP
Warning[203]: Found opcode in column 1. (NOP)
010F   0000           00305 NOP
Warning[203]: Found opcode in column 1. (NOP)
0110   0000           00306 NOP
Warning[203]: Found opcode in column 1. (NOP)
0111   0000           00307 NOP
Warning[203]: Found opcode in column 1. (NOP)
0112   0000           00308 NOP
MPASM  5.51                     HUB12_SPI.ASM   6-13-2019  15:22:38         PAGE  8


LOC  OBJECT CODE     LINE SOURCE TEXT
  VALUE

Warning[203]: Found opcode in column 1. (NOP)
0113   0000           00309 NOP
Warning[203]: Found opcode in column 1. (NOP)
0114   0000           00310 NOP
                      00311 
Warning[203]: Found opcode in column 1. (BSF)
0115   1607           00312 REG_ON
Warning[203]: Found opcode in column 1. (BCF)
0116   1207           00313 REG_OFF
                      00314 
Warning[203]: Found opcode in column 1. (INCF)
Message[305]: Using default destination of 1 (file).
0117   0A84           00315 INCF    FSR
Warning[203]: Found opcode in column 1. (DECFSZ)
0118   0BEC           00316 DECFSZ  POINTER,F
Warning[203]: Found opcode in column 1. (GOTO)
0119   290C           00317 GOTO    DSP0
                      00318 
                      00319 
Warning[203]: Found opcode in column 1. (RETURN)
011A   0008           00320 RETURN
                      00321 ;=================================
                      00322 
                      00323 
                      00324 ;#######################        DISPLAY         ########################
011B                  00325 DISPLAY
011B   302C           00326         MOVLW   0X2C
011C   0084           00327         MOVWF   FSR
011D   2108           00328         CALL    DATALATCH
011E   302C           00329         MOVLW   0X2C
011F   0084           00330         MOVWF   FSR
0120   2108           00331         CALL    DATALATCH
0121   1407           00332         A_ON
0122   1487           00333         B_ON
0123   1687           00334         OE_ON
0124   0878           00335         MOVFW   BRIGHTNESS
0125   2156           00336         CALL    DELAY_US
0126   1287           00337         OE_OFF
                      00338         
0127   303C           00339         MOVLW   0X3C
0128   0084           00340         MOVWF   FSR
0129   2108           00341         CALL    DATALATCH
012A   303C           00342         MOVLW   0X3C
012B   0084           00343         MOVWF   FSR
012C   2108           00344         CALL    DATALATCH
012D   1007           00345         A_OFF
012E   1487           00346         B_ON
012F   1687           00347         OE_ON
0130   0878           00348         MOVFW   BRIGHTNESS
0131   2156           00349         CALL    DELAY_US
0132   1287           00350         OE_OFF
                      00351 
0133   304C           00352         MOVLW   0X4C
MPASM  5.51                     HUB12_SPI.ASM   6-13-2019  15:22:38         PAGE  9


LOC  OBJECT CODE     LINE SOURCE TEXT
  VALUE

0134   0084           00353         MOVWF   FSR
0135   2108           00354         CALL    DATALATCH
0136   304C           00355         MOVLW   0X4C
0137   0084           00356         MOVWF   FSR
0138   2108           00357         CALL    DATALATCH
0139   1407           00358         A_ON
013A   1087           00359         B_OFF
013B   1687           00360         OE_ON
013C   0878           00361         MOVFW   BRIGHTNESS
013D   2156           00362         CALL    DELAY_US
013E   1287           00363         OE_OFF
                      00364 
013F   305C           00365         MOVLW   0X5C
0140   0084           00366         MOVWF   FSR
0141   2108           00367         CALL    DATALATCH
0142   305C           00368         MOVLW   0X5C
0143   0084           00369         MOVWF   FSR
0144   2108           00370         CALL    DATALATCH
0145   1007           00371         A_OFF
0146   1087           00372         B_OFF
0147   1687           00373         OE_ON
0148   0878           00374         MOVFW   BRIGHTNESS
0149   2156           00375         CALL    DELAY_US
014A   1287           00376         OE_OFF
                      00377 
                      00378         
                      00379 
Warning[203]: Found opcode in column 1. (RETURN)
014B   0008           00380 RETURN
                      00381 ;###############################################################
                      00382 
                      00383 
                      00384 ;=======================        CLEAR   RAM             ===============
014C                  00385 CLRAM
014C   3040           00386         MOVLW           .64
014D   00EC           00387         MOVWF           POINTER
014E   302C           00388         MOVLW           DRAM
014F   0084           00389         MOVWF           FSR
                      00390 
0150                  00391 CLR0
0150   30FF           00392         MOVLW           0XFF
0151   0080           00393         MOVWF           INDF
                      00394 
0152   0A84           00395         INCF            FSR, F
0153   0BEC           00396         DECFSZ          POINTER, F
0154   2950           00397         GOTO            CLR0
                      00398 
                      00399          
0155   0008           00400         RETURN
                      00401 ;==========================================================
                      00402 
                      00403 ;==========     DELAY USEC =========
0156                  00404 DELAY_US
MPASM  5.51                     HUB12_SPI.ASM   6-13-2019  15:22:38         PAGE 10


LOC  OBJECT CODE     LINE SOURCE TEXT
  VALUE

                      00405 
0156   00A0           00406         MOVWF   DELAYUS
                      00407 
0157                  00408 USEC
                      00409 
0157   0000           00410         NOP
0158   0000           00411         NOP
0159   0000           00412         NOP
015A   0000           00413         NOP
Warning[203]: Found opcode in column 1. (DECFSZ)
015B   0BA0           00414 DECFSZ  DELAYUS,F
                      00415 
Warning[203]: Found opcode in column 1. (GOTO)
015C   2957           00416 GOTO    USEC
                      00417 
Warning[203]: Found opcode in column 1. (RETURN)
015D   0008           00418 RETURN
                      00419 ;=================================
                      00420 
                      00421 
                      00422 
                      00423 ;=========== DELAY ONE MS ========
015E                  00424 DELAY_ONEMS
                      00425 
015E   3005           00426         MOVLW   .5
015F   00A3           00427         MOVWF   MILSEC
                      00428 
0160                  00429 MSEC
0160   30C8           00430         MOVLW   .200
0161   2156           00431         CALL    DELAY_US
0162   0BA3           00432         DECFSZ  MILSEC,F
0163   2960           00433         GOTO    MSEC
                      00434 
Warning[203]: Found opcode in column 1. (RETURN)
0164   0008           00435 RETURN
                      00436 ;==================================
                      00437 
                      00438 
                      00439 ;=========== DELAY MS   ==========
0165                  00440 DELAY_MS
                      00441         
0165   00A1           00442         MOVWF   DELAYMS
0166                  00443 MSEC0
0166   215E           00444         CALL    DELAY_ONEMS
0167   0BA1           00445         DECFSZ  DELAYMS,F
0168   2966           00446         GOTO    MSEC0
Warning[203]: Found opcode in column 1. (RETURN)
0169   0008           00447 RETURN
                      00448 ;=================================
                      00449 
                      00450 ;=========== DELAY      ONE     SECOND ===
016A                  00451 DELAY_ONESEC
                      00452 
MPASM  5.51                     HUB12_SPI.ASM   6-13-2019  15:22:38         PAGE 11


LOC  OBJECT CODE     LINE SOURCE TEXT
  VALUE

016A   3005           00453         MOVLW   .5
016B   00A4           00454         MOVWF   SEC
016C                  00455 SEC0
016C   30C8           00456         MOVLW   .200
016D   2165           00457         CALL    DELAY_MS
016E   0BA4           00458         DECFSZ  SEC,F
016F   296C           00459         GOTO    SEC0
Warning[203]: Found opcode in column 1. (RETURN)
0170   0008           00460 RETURN
                      00461 ;=================================
                      00462 
                      00463 ;==========     DELAY SEC ============
0171                  00464 DELAY_SEC
                      00465 
0171   00A2           00466         MOVWF   DELAYS
0172                  00467 SEC1
0172   216A           00468         CALL    DELAY_ONESEC
0173   0BA2           00469         DECFSZ  DELAYS,F
0174   2972           00470         GOTO    SEC1
Warning[203]: Found opcode in column 1. (RETURN)
0175   0008           00471 RETURN
                      00472 ;=================================
                      00473 
                      00474 
                      00475 ;############   CLEAR   IRAM  #################
0176                  00476 CLR_IRAM
                      00477         
0176   1683 1303      00478         BANK1
0178   3040           00479         MOVLW           .64
Message[302]: Register in operand not in bank 0.  Ensure that bank bits are correct.
0179   00E0           00480         MOVWF           IPOINTER
017A   30A0           00481         MOVLW           IRAM
017B   0084           00482         MOVWF           FSR
                      00483 
017C                  00484 IRM0
017C   30FF           00485         MOVLW           0XFF
017D   0080           00486         MOVWF           INDF
017E   3000           00487         MOVLW           INDF
                      00488         
017F   0A84           00489         INCF            FSR, F
Message[302]: Register in operand not in bank 0.  Ensure that bank bits are correct.
0180   0BE0           00490         DECFSZ          IPOINTER, F
0181   297C           00491         GOTO            IRM0
                      00492          
0182   0008           00493         RETURN
                      00494 
0183   3000           00495         MOVLW           0
0184   008A           00496         MOVWF           PCLATH 
                      00497 
Warning[203]: Found opcode in column 1. (RETURN)
0185   0008           00498 RETURN
                      00499 ;#################################################
                      00500 
MPASM  5.51                     HUB12_SPI.ASM   6-13-2019  15:22:38         PAGE 12


LOC  OBJECT CODE     LINE SOURCE TEXT
  VALUE

                      00501 
                      00502 
                      00503 ;#################      CUTTING CHARACTERS FROM BOT ##################
0186                  00504 SLICEB
0186   301F           00505         MOVLW           0X1F
0187   0084           00506         MOVWF           FSR
                      00507 
0188                  00508 SLB0
0188   3004           00509         MOVLW           .4
0189   00EC           00510         MOVWF           POINTER
                      00511                         
018A   300D           00512         MOVLW           0XD
Message[305]: Using default destination of 1 (file).
018B   0784           00513         ADDWF           FSR
                      00514 
018C                  00515 SLB1
018C   30FF           00516         MOVLW           0XFF
018D   0080           00517         MOVWF           INDF
018E   3000           00518         MOVLW           INDF
                      00519 
018F   3010           00520         MOVLW           0X10
Message[305]: Using default destination of 1 (file).
0190   0784           00521         ADDWF           FSR
0191   0BF6           00522         DECFSZ          TALL,F
0192   2994           00523         GOTO            SLB2
0193   0008           00524         RETURN          ;EXIT IF ZERO
                      00525 
0194                  00526 SLB2
0194   0BEC           00527         DECFSZ          POINTER,F
0195   298C           00528         GOTO            SLB1
0196   304C           00529         MOVLW           0X4C
Message[305]: Using default destination of 1 (file).
0197   0284           00530         SUBWF           FSR
0198   2988           00531         GOTO            SLB0
                      00532 
Warning[203]: Found opcode in column 1. (RETURN)
0199   0008           00533 RETURN
                      00534 ;#################################################################
                      00535 
                      00536 
                      00537 
                      00538 ;#################      CUTTING CHARACTERS FROM TOP ##################
019A                  00539 SLICET
019A   306C           00540         MOVLW           0X6C
019B   0084           00541         MOVWF           FSR
                      00542         
019C                  00543 SLT0
019C   3004           00544         MOVLW           .4
019D   00EC           00545         MOVWF           POINTER
019E   300D           00546         MOVLW           0XD
Message[305]: Using default destination of 1 (file).
019F   0284           00547         SUBWF           FSR
                      00548 
MPASM  5.51                     HUB12_SPI.ASM   6-13-2019  15:22:38         PAGE 13


LOC  OBJECT CODE     LINE SOURCE TEXT
  VALUE

01A0                  00549 SLT1
01A0   30FF           00550         MOVLW           0XFF
01A1   0080           00551         MOVWF           INDF
01A2   3000           00552         MOVLW           INDF
                      00553         
01A3   3010           00554         MOVLW           0X10
Message[305]: Using default destination of 1 (file).
01A4   0284           00555         SUBWF           FSR
01A5   0BF6           00556         DECFSZ          TALL,F
01A6   29A8           00557         GOTO            SLT2
01A7   0008           00558         RETURN          ;EXIT IF ZERO
                      00559 
01A8                  00560 SLT2
01A8   0BEC           00561         DECFSZ          POINTER,F
01A9   29A0           00562         GOTO            SLT1
01AA   304C           00563         MOVLW           0X4C
Message[305]: Using default destination of 1 (file).
01AB   0784           00564         ADDWF           FSR
01AC   299C           00565         GOTO            SLT0
                      00566         
                      00567 
Warning[203]: Found opcode in column 1. (RETURN)
01AD   0008           00568 RETURN
                      00569 ;#################################################################
01AE                  00570 CHAR
                      00571 
                      00572 
                      00573 
01AE   0873           00574         MOVFW   NUMBER
01AF   0782           00575         ADDWF   PCL,F
                      00576 
01B0   29BC           00577         GOTO    ZERO
                      00578         
01B1   29D1           00579         GOTO    ONE
                      00580         
01B2   29E4           00581         GOTO    TWO
                      00582 
01B3   0000           00583         NOP
01B4   0000           00584         NOP
01B5   0000           00585         NOP
01B6   0000           00586         NOP
01B7   0000           00587         NOP
01B8   0000           00588         NOP
01B9   0000           00589         NOP
                      00590 
Message[305]: Using default destination of 1 (file).
01BA   0A8A           00591         INCF    PCLATH
01BB   2A00           00592         GOTO    CHARB
                      00593 
                      00594 
                      00595 
                      00596 
                      00597 
MPASM  5.51                     HUB12_SPI.ASM   6-13-2019  15:22:38         PAGE 14


LOC  OBJECT CODE     LINE SOURCE TEXT
  VALUE

Warning[207]: Found label after column 1. (ZERO)
01BC                  00598         ZERO
01BC   0874           00599                         MOVFW   BTCOUNT
01BD   0782           00600                         ADDWF   PCL, F
                      00601 
01BE   3408           00602                         DT      8
01BF   34C7           00603                         DT      B'11000111'
01C0   3483           00604                         DT      B'10000011'
01C1   3411           00605                         DT      B'00010001'
01C2   3439           00606                         DT      B'00111001'
01C3   3439           00607                         DT      B'00111001'
01C4   3439           00608                         DT      B'00111001'
01C5   3439           00609                         DT      B'00111001'
01C6   3439           00610                         DT      B'00111001'
01C7   3439           00611                         DT      B'00111001'
01C8   3439           00612                         DT      B'00111001'
01C9   3439           00613                         DT      B'00111001'
01CA   3439           00614                         DT      B'00111001'
01CB   3439           00615                         DT      B'00111001'
01CC   3411           00616                         DT      B'00010001'
01CD   3483           00617                         DT      B'10000011'
01CE   34C7           00618                         DT      B'11000111'
01CF   3000           00619                         MOVLW   .0
01D0   008A           00620                         MOVWF   PCLATH
                      00621 
                      00622 
Warning[207]: Found label after column 1. (ONE)
01D1                  00623         ONE
01D1   0874           00624                         MOVFW   BTCOUNT
01D2   0782           00625                         ADDWF   PCL, F
                      00626 
01D3   3407           00627                         DT      7
01D4   34CF           00628                         DT      B'11001111'
01D5   34CF           00629                         DT      B'11001111'
01D6   348F           00630                         DT      B'10001111'
01D7   340F           00631                         DT      B'00001111'
01D8   344F           00632                         DT      B'01001111'
01D9   34CF           00633                         DT      B'11001111'
01DA   34CF           00634                         DT      B'11001111'
01DB   34CF           00635                         DT      B'11001111'
01DC   34CF           00636                         DT      B'11001111'
01DD   34CF           00637                         DT      B'11001111'
01DE   34CF           00638                         DT      B'11001111'
01DF   34CF           00639                         DT      B'11001111'
01E0   34CF           00640                         DT      B'11001111'
01E1   34CF           00641                         DT      B'11001111'
01E2   3403           00642                         DT      B'00000011'
01E3   3403           00643                         DT      B'00000011'
                      00644 
                      00645 
Warning[207]: Found label after column 1. (TWO)
01E4                  00646         TWO
01E4   0874           00647                         MOVFW   BTCOUNT
MPASM  5.51                     HUB12_SPI.ASM   6-13-2019  15:22:38         PAGE 15


LOC  OBJECT CODE     LINE SOURCE TEXT
  VALUE

01E5   0782           00648                         ADDWF   PCL, F
                      00649 
01E6   3408           00650                         DT      8
01E7   3487           00651                         DT      B'10000111'
01E8   3403           00652                         DT      B'00000011'
01E9   3431           00653                         DT      B'00110001'
01EA   34F9           00654                         DT      B'11111001'
01EB   34F9           00655                         DT      B'11111001'
01EC   34F9           00656                         DT      B'11111001'
01ED   34F9           00657                         DT      B'11111001'
01EE   34F1           00658                         DT      B'11110001'
01EF   3483           00659                         DT      B'10000011'
01F0   3407           00660                         DT      B'00000111'
01F1   343F           00661                         DT      B'00111111'
01F2   343D           00662                         DT      B'00111101'
01F3   3439           00663                         DT      B'00111001'
01F4   3439           00664                         DT      B'00111001'
01F5   3401           00665                         DT      B'00000001'
01F6   3401           00666                         DT      B'00000001'
Warning[205]: Found directive in column 1. (ORG)
0200                  00667 ORG 0X200
0200                  00668 CHARB
                      00669 
                      00670 
                      00671 
0200   0873           00672         MOVFW   NUMBER
0201   0782           00673         ADDWF   PCL,F
                      00674 
                      00675 
0202   0008           00676         RETURN
                      00677 
0203   0008           00678         RETURN
                      00679 
0204   0008           00680         RETURN
                      00681 
0205   2A0C           00682         GOTO    THREE
                      00683         
0206   2A1F           00684         GOTO    FOUR
                      00685         
0207   2A32           00686         GOTO    FIVE
                      00687         
0208   2A45           00688         GOTO    SIX
                      00689         
0209   2A58           00690         GOTO    SEVEN
                      00691 
020A   2A6B           00692         GOTO    EIGHT
                      00693 
020B   2A7E           00694         GOTO    NINE
                      00695                                 
                      00696 
Warning[207]: Found label after column 1. (THREE)
020C                  00697         THREE
020C   0874           00698                         MOVFW   BTCOUNT
MPASM  5.51                     HUB12_SPI.ASM   6-13-2019  15:22:38         PAGE 16


LOC  OBJECT CODE     LINE SOURCE TEXT
  VALUE

020D   0782           00699                         ADDWF   PCL, F
                      00700 
020E   3408           00701                         DT      8
020F   3487           00702                         DT      B'10000111'
0210   3403           00703                         DT      B'00000011'
0211   3431           00704                         DT      B'00110001'
0212   34F9           00705                         DT      B'11111001'
0213   34F9           00706                         DT      B'11111001'
0214   34F9           00707                         DT      B'11111001'
0215   34F1           00708                         DT      B'11110001'
0216   34C3           00709                         DT      B'11000011'
0217   34C3           00710                         DT      B'11000011'
0218   34F1           00711                         DT      B'11110001'
0219   34F9           00712                         DT      B'11111001'
021A   34F9           00713                         DT      B'11111001'
021B   34F9           00714                         DT      B'11111001'
021C   3431           00715                         DT      B'00110001'
021D   3403           00716                         DT      B'00000011'
021E   3487           00717                         DT      B'10000111'
                      00718                         
                      00719 
Warning[207]: Found label after column 1. (FOUR)
021F                  00720         FOUR
021F   0874           00721                         MOVFW   BTCOUNT
0220   0782           00722                         ADDWF   PCL, F
                      00723 
0221   3408           00724                         DT      8
0222   34FD           00725                         DT      B'11111101'
0223   34F9           00726                         DT      B'11111001'
0224   34E9           00727                         DT      B'11101001'
0225   34C9           00728                         DT      B'11001001'
0226   34C9           00729                         DT      B'11001001'
0227   34C9           00730                         DT      B'11001001'
0228   3499           00731                         DT      B'10011001'
0229   3439           00732                         DT      B'00111001'
022A   3401           00733                         DT      B'00000001'
022B   3401           00734                         DT      B'00000001'
022C   34F9           00735                         DT      B'11111001'
022D   34F9           00736                         DT      B'11111001'
022E   34F9           00737                         DT      B'11111001'
022F   34F9           00738                         DT      B'11111001'
0230   34F9           00739                         DT      B'11111001'
0231   34FB           00740                         DT      B'11111011'
                      00741 
Warning[207]: Found label after column 1. (FIVE)
0232                  00742         FIVE
0232   0874           00743                         MOVFW   BTCOUNT
0233   0782           00744                         ADDWF   PCL, F
                      00745 
0234   3408           00746                         DT      8
0235   3401           00747                         DT      B'00000001'
0236   3401           00748                         DT      B'00000001'
0237   3439           00749                         DT      B'00111001'
MPASM  5.51                     HUB12_SPI.ASM   6-13-2019  15:22:38         PAGE 17


LOC  OBJECT CODE     LINE SOURCE TEXT
  VALUE

0238   343B           00750                         DT      B'00111011'
0239   343F           00751                         DT      B'00111111'
023A   343F           00752                         DT      B'00111111'
023B   343F           00753                         DT      B'00111111'
023C   3407           00754                         DT      B'00000111'
023D   3403           00755                         DT      B'00000011'
023E   34F1           00756                         DT      B'11110001'
023F   34F9           00757                         DT      B'11111001'
0240   34F9           00758                         DT      B'11111001'
0241   34F9           00759                         DT      B'11111001'
0242   34F1           00760                         DT      B'11110001'
0243   3403           00761                         DT      B'00000011'
0244   3407           00762                         DT      B'00000111'
                      00763 
                      00764 
Warning[207]: Found label after column 1. (SIX)
0245                  00765         SIX
0245   0874           00766                         MOVFW   BTCOUNT
0246   0782           00767                         ADDWF   PCL, F
                      00768 
0247   3408           00769                         DT      8
0248   34C7           00770                         DT      B'11000111'
0249   3483           00771                         DT      B'10000011'
024A   3411           00772                         DT      B'00010001'
024B   3439           00773                         DT      B'00111001'
024C   343F           00774                         DT      B'00111111'
024D   343F           00775                         DT      B'00111111'
024E   343F           00776                         DT      B'00111111'
024F   3427           00777                         DT      B'00100111'
0250   3403           00778                         DT      B'00000011'
0251   3411           00779                         DT      B'00010001'
0252   3439           00780                         DT      B'00111001'
0253   3439           00781                         DT      B'00111001'
0254   3439           00782                         DT      B'00111001'
0255   3411           00783                         DT      B'00010001'
0256   3483           00784                         DT      B'10000011'
0257   34C7           00785                         DT      B'11000111'
                      00786 
Warning[207]: Found label after column 1. (SEVEN)
0258                  00787         SEVEN   
0258   0874           00788                         MOVFW   BTCOUNT
0259   0782           00789                         ADDWF   PCL, F
                      00790 
025A   3408           00791                         DT      8       
025B   3401           00792                         DT      B'00000001'
025C   3401           00793                         DT      B'00000001'
025D   3439           00794                         DT      B'00111001'
025E   3439           00795                         DT      B'00111001'
025F   34F9           00796                         DT      B'11111001'
0260   34F9           00797                         DT      B'11111001'
0261   34F9           00798                         DT      B'11111001'
0262   34F3           00799                         DT      B'11110011'
0263   34E7           00800                         DT      B'11100111'
MPASM  5.51                     HUB12_SPI.ASM   6-13-2019  15:22:38         PAGE 18


LOC  OBJECT CODE     LINE SOURCE TEXT
  VALUE

0264   34CF           00801                         DT      B'11001111'
0265   34CF           00802                         DT      B'11001111'
0266   34CF           00803                         DT      B'11001111'
0267   34CF           00804                         DT      B'11001111'
0268   34CF           00805                         DT      B'11001111'
0269   34CF           00806                         DT      B'11001111'
026A   34CF           00807                         DT      B'11001111'
                      00808                                 
Warning[207]: Found label after column 1. (EIGHT)
026B                  00809         EIGHT
026B   0874           00810                         MOVFW   BTCOUNT
026C   0782           00811                         ADDWF   PCL, F
                      00812 
026D   3408           00813                         DT      8
026E   34C7           00814                         DT      B'11000111'
026F   3483           00815                         DT      B'10000011'
0270   3411           00816                         DT      B'00010001'
0271   3439           00817                         DT      B'00111001'
0272   3439           00818                         DT      B'00111001'
0273   3439           00819                         DT      B'00111001'
0274   3493           00820                         DT      B'10010011'
0275   34C7           00821                         DT      B'11000111'
0276   3483           00822                         DT      B'10000011'
0277   3411           00823                         DT      B'00010001'
0278   3439           00824                         DT      B'00111001'
0279   3439           00825                         DT      B'00111001'
027A   3439           00826                         DT      B'00111001'
027B   3411           00827                         DT      B'00010001'
027C   3483           00828                         DT      B'10000011'
027D   34C7           00829                         DT      B'11000111'
                      00830 
Warning[207]: Found label after column 1. (NINE)
027E                  00831         NINE
027E   0874           00832                         MOVFW   BTCOUNT
027F   0782           00833                         ADDWF   PCL, F
                      00834 
0280   3408           00835                         DT      8
0281   34C7           00836                         DT      B'11000111'
0282   3483           00837                         DT      B'10000011'
0283   3411           00838                         DT      B'00010001'
0284   3439           00839                         DT      B'00111001'
0285   3439           00840                         DT      B'00111001'
0286   3439           00841                         DT      B'00111001'
0287   3411           00842                         DT      B'00010001'
0288   3481           00843                         DT      B'10000001'
0289   34C9           00844                         DT      B'11001001'
028A   34F9           00845                         DT      B'11111001'
028B   34F9           00846                         DT      B'11111001'
028C   34F9           00847                         DT      B'11111001'
028D   3439           00848                         DT      B'00111001'
028E   3411           00849                         DT      B'00010001'
028F   3483           00850                         DT      B'10000011'
0290   34C7           00851                         DT      B'11000111'
MPASM  5.51                     HUB12_SPI.ASM   6-13-2019  15:22:38         PAGE 19


LOC  OBJECT CODE     LINE SOURCE TEXT
  VALUE

                      00852 
                      00853 
                      00854 
                      00855 
                      00856 
                      00857                         
Warning[205]: Found directive in column 1. (ORG)
0300                  00858 ORG 0X300
                      00859 
                      00860 
                      00861 
                      00862         
0300                  00863 T_CHAR
                      00864                 
0300   0873           00865         MOVFW   NUMBER
0301   0782           00866         ADDWF   PCL,F
                      00867         
0302   2B0E           00868         GOTO    T_ZERO
                      00869         
0303   2B31           00870         GOTO    T_ONE
                      00871 
0304   2B54           00872         GOTO    T_TWO
                      00873 
0305   2B77           00874         GOTO    T_THREE
                      00875 
0306   2B9A           00876         GOTO    T_FOUR
                      00877 
0307   2BBD           00878         GOTO    T_FIVE
                      00879 
Warning[203]: Found opcode in column 1. (NOP)
0308   0000           00880 NOP
Warning[203]: Found opcode in column 1. (NOP)
0309   0000           00881 NOP
Warning[203]: Found opcode in column 1. (NOP)
030A   0000           00882 NOP
Warning[203]: Found opcode in column 1. (NOP)
030B   0000           00883 NOP
                      00884 
Message[305]: Using default destination of 1 (file).
030C   0A8A           00885         INCF    PCLATH
030D   2C00           00886         GOTO    T_CHARB
                      00887 
                      00888 
Warning[207]: Found label after column 1. (T_ZERO)
030E                  00889         T_ZERO
030E   0874           00890                         MOVFW   BTCOUNT
Message[305]: Using default destination of 1 (file).
030F   0782           00891                         ADDWF   PCL
                      00892 
0310   340C           00893                         DT      .12
0311   34C0 34FF      00894                         DT      B'11000000',B'11111111'
0313   3480 347F      00895                         DT      B'10000000',B'01111111'
0315   341E 343F      00896                         DT      B'00011110',B'00111111'
MPASM  5.51                     HUB12_SPI.ASM   6-13-2019  15:22:38         PAGE 20


LOC  OBJECT CODE     LINE SOURCE TEXT
  VALUE

0317   343F 343F      00897                         DT      B'00111111',B'00111111'
0319   343F 343F      00898                         DT      B'00111111',B'00111111'
031B   343F 343F      00899                         DT      B'00111111',B'00111111'
031D   343F 343F      00900                         DT      B'00111111',B'00111111'
031F   343F 343F      00901                         DT      B'00111111',B'00111111';
0321   343F 343F      00902                         DT      B'00111111',B'00111111';
0323   343F 343F      00903                         DT      B'00111111',B'00111111'
0325   343F 343F      00904                         DT      B'00111111',B'00111111'
0327   343F 343F      00905                         DT      B'00111111',B'00111111'
0329   343F 343F      00906                         DT      B'00111111',B'00111111'
032B   341E 343F      00907                         DT      B'00011110',B'00111111'
032D   3480 347F      00908                         DT      B'10000000',B'01111111'
032F   34C0 34FF      00909                         DT      B'11000000',B'11111111'
                      00910 
Warning[207]: Found label after column 1. (T_ONE)
0331                  00911         T_ONE
0331   0874           00912                         MOVFW   BTCOUNT
Message[305]: Using default destination of 1 (file).
0332   0782           00913                         ADDWF   PCL
                      00914 
0333   340C           00915                         DT      .12
0334   34CF 34FF      00916                         DT      B'11001111',B'11111111'
0336   34CF 34FF      00917                         DT      B'11001111',B'11111111'
0338   348F 34FF      00918                         DT      B'10001111',B'11111111'
033A   340F 34FF      00919                         DT      B'00001111',B'11111111'
033C   344F 34FF      00920                         DT      B'01001111',B'11111111'
033E   34CF 34FF      00921                         DT      B'11001111',B'11111111'
0340   34CF 34FF      00922                         DT      B'11001111',B'11111111'
0342   34CF 34FF      00923                         DT      B'11001111',B'11111111';
0344   34CF 34FF      00924                         DT      B'11001111',B'11111111';
0346   34CF 34FF      00925                         DT      B'11001111',B'11111111'
0348   34CF 34FF      00926                         DT      B'11001111',B'11111111'
034A   34CF 34FF      00927                         DT      B'11001111',B'11111111'
034C   34CF 34FF      00928                         DT      B'11001111',B'11111111'
034E   34CF 34FF      00929                         DT      B'11001111',B'11111111'
0350   3403 34FF      00930                         DT      B'00000011',B'11111111'
0352   3403 34FF      00931                         DT      B'00000011',B'11111111' 
                      00932 
Warning[207]: Found label after column 1. (T_TWO)
0354                  00933         T_TWO
0354   0874           00934                         MOVFW   BTCOUNT
0355   0782           00935                         ADDWF   PCL,F
                      00936                         
0356   340C           00937                         DT      .12
0357   34C0 34FF      00938                         DT      B'11000000',B'11111111'
0359   3480 347F      00939                         DT      B'10000000',B'01111111'
035B   343E 343F      00940                         DT      B'00111110',B'00111111'
035D   34FF 343F      00941                         DT      B'11111111',B'00111111'
035F   34FF 343F      00942                         DT      B'11111111',B'00111111'
0361   34FF 343F      00943                         DT      B'11111111',B'00111111'
0363   34FF 343F      00944                         DT      B'11111111',B'00111111'
0365   34FE 343F      00945                         DT      B'11111110',B'00111111'
0367   34C0 347F      00946                         DT      B'11000000',B'01111111'
MPASM  5.51                     HUB12_SPI.ASM   6-13-2019  15:22:38         PAGE 21


LOC  OBJECT CODE     LINE SOURCE TEXT
  VALUE

0369   3480 34FF      00947                         DT      B'10000000',B'11111111'
036B   343F 34FF      00948                         DT      B'00111111',B'11111111'
036D   343F 34FF      00949                         DT      B'00111111',B'11111111'
036F   343F 34FF      00950                         DT      B'00111111',B'11111111'
0371   343F 343F      00951                         DT      B'00111111',B'00111111'
0373   3400 343F      00952                         DT      B'00000000',B'00111111'
0375   3400 343F      00953                         DT      B'00000000',B'00111111'
                      00954         
Warning[207]: Found label after column 1. (T_THREE)
0377                  00955         T_THREE
0377   0874           00956                         MOVFW   BTCOUNT
Message[305]: Using default destination of 1 (file).
0378   0782           00957                         ADDWF   PCL
                      00958 
0379   340C           00959                         DT      .12
037A   34C0 34FF      00960                         DT      B'11000000',B'11111111'
037C   3480 347F      00961                         DT      B'10000000',B'01111111'
037E   341E 343F      00962                         DT      B'00011110',B'00111111'
0380   343F 343F      00963                         DT      B'00111111',B'00111111'
0382   34FF 343F      00964                         DT      B'11111111',B'00111111'
0384   34FF 343F      00965                         DT      B'11111111',B'00111111'
0386   34FE 343F      00966                         DT      B'11111110',B'00111111'
0388   34E0 347F      00967                         DT      B'11100000',B'01111111';
038A   34E0 347F      00968                         DT      B'11100000',B'01111111';
038C   34FE 343F      00969                         DT      B'11111110',B'00111111'
038E   34FF 343F      00970                         DT      B'11111111',B'00111111'
0390   34FF 343F      00971                         DT      B'11111111',B'00111111'
0392   343F 343F      00972                         DT      B'00111111',B'00111111'
0394   341E 343F      00973                         DT      B'00011110',B'00111111'
0396   3480 347F      00974                         DT      B'10000000',B'01111111'
0398   34C0 34FF      00975                         DT      B'11000000',B'11111111'
                      00976         
Warning[207]: Found label after column 1. (T_FOUR)
039A                  00977         T_FOUR
039A   0874           00978                         MOVFW   BTCOUNT
Message[305]: Using default destination of 1 (file).
039B   0782           00979                         ADDWF   PCL
                      00980 
039C   340C           00981                         DT      .12
039D   34FF 34BF      00982                         DT      B'11111111',B'10111111'
039F   34F9 343F      00983                         DT      B'11111001',B'00111111'
03A1   34F9 343F      00984                         DT      B'11111001',B'00111111'
03A3   34F9 343F      00985                         DT      B'11111001',B'00111111'
03A5   34F3 343F      00986                         DT      B'11110011',B'00111111'
03A7   34E7 343F      00987                         DT      B'11100111',B'00111111'
03A9   34CF 343F      00988                         DT      B'11001111',B'00111111'
03AB   349F 343F      00989                         DT      B'10011111',B'00111111';
03AD   343F 343F      00990                         DT      B'00111111',B'00111111';
03AF   343F 343F      00991                         DT      B'00111111',B'00111111'
03B1   3400 343F      00992                         DT      B'00000000',B'00111111'
03B3   3400 343F      00993                         DT      B'00000000',B'00111111'
03B5   34FF 343F      00994                         DT      B'11111111',B'00111111'
03B7   34FF 343F      00995                         DT      B'11111111',B'00111111'
MPASM  5.51                     HUB12_SPI.ASM   6-13-2019  15:22:38         PAGE 22


LOC  OBJECT CODE     LINE SOURCE TEXT
  VALUE

03B9   34FF 343F      00996                         DT      B'11111111',B'00111111'
03BB   34FF 347F      00997                         DT      B'11111111',B'01111111' 
                      00998 
Warning[207]: Found label after column 1. (T_FIVE)
03BD                  00999         T_FIVE
03BD   0874           01000                         MOVFW   BTCOUNT
Message[305]: Using default destination of 1 (file).
03BE   0782           01001                         ADDWF   PCL
                      01002 
03BF   340C           01003                         DT      .12
03C0   3400 343F      01004                         DT      B'00000000',B'00111111'
03C2   3400 343F      01005                         DT      B'00000000',B'00111111'
03C4   343F 343F      01006                         DT      B'00111111',B'00111111'
03C6   343F 347F      01007                         DT      B'00111111',B'01111111'
03C8   343F 34FF      01008                         DT      B'00111111',B'11111111'
03CA   343F 34FF      01009                         DT      B'00111111',B'11111111'
03CC   343F 34FF      01010                         DT      B'00111111',B'11111111'
03CE   3400 34FF      01011                         DT      B'00000000',B'11111111';
03D0   3400 347F      01012                         DT      B'00000000',B'01111111';
03D2   34FE 343F      01013                         DT      B'11111110',B'00111111'
03D4   34FF 343F      01014                         DT      B'11111111',B'00111111'
03D6   34FF 343F      01015                         DT      B'11111111',B'00111111'
03D8   343F 343F      01016                         DT      B'00111111',B'00111111'
03DA   341E 343F      01017                         DT      B'00011110',B'00111111'
03DC   3480 347F      01018                         DT      B'10000000',B'01111111'
03DE   34C0 34FF      01019                         DT      B'11000000',B'11111111'
                      01020 
                      01021 
                      01022 
Warning[205]: Found directive in column 1. (ORG)
0400                  01023 ORG 0X400
0400                  01024 T_CHARB
                      01025 
0400   0873           01026                         MOVFW   NUMBER
0401   0782           01027                         ADDWF   PCL,F
                      01028 
0402   0008           01029                                 RETURN  
                      01030 
0403   0008           01031                                 RETURN
                      01032 
0404   0008           01033                                 RETURN
                      01034 
0405   0008           01035                                 RETURN
                      01036 
0406   0008           01037                                 RETURN
                      01038 
0407   0008           01039                                 RETURN
                      01040                                 
0408   2C0C           01041                                 GOTO    T_SIX
                      01042         
0409   2C2F           01043                                 GOTO    T_SEVEN
                      01044                 
040A   2C52           01045                                 GOTO    T_EIGHT
MPASM  5.51                     HUB12_SPI.ASM   6-13-2019  15:22:38         PAGE 23


LOC  OBJECT CODE     LINE SOURCE TEXT
  VALUE

                      01046                 
040B   2C75           01047                                 GOTO    T_NINE
                      01048 
                      01049 
                      01050                         
Warning[207]: Found label after column 1. (T_SIX)
040C                  01051         T_SIX
040C   0874           01052                         MOVFW   BTCOUNT
Message[305]: Using default destination of 1 (file).
040D   0782           01053                         ADDWF   PCL
                      01054 
040E   340C           01055                         DT      .12
040F   34C0 347F      01056                         DT      B'11000000',B'01111111'
0411   3480 343F      01057                         DT      B'10000000',B'00111111'
0413   341E 343F      01058                         DT      B'00011110',B'00111111'
0415   343F 343F      01059                         DT      B'00111111',B'00111111'
0417   343F 34FF      01060                         DT      B'00111111',B'11111111'
0419   343F 34FF      01061                         DT      B'00111111',B'11111111'
041B   341F 34FF      01062                         DT      B'00011111',B'11111111'
041D   3400 34FF      01063                         DT      B'00000000',B'11111111';
041F   3400 347F      01064                         DT      B'00000000',B'01111111';
0421   341E 343F      01065                         DT      B'00011110',B'00111111'
0423   343F 343F      01066                         DT      B'00111111',B'00111111'
0425   343F 343F      01067                         DT      B'00111111',B'00111111'
0427   343F 343F      01068                         DT      B'00111111',B'00111111'
0429   341E 343F      01069                         DT      B'00011110',B'00111111'
042B   3480 347F      01070                         DT      B'10000000',B'01111111'
042D   34C0 34FF      01071                         DT      B'11000000',B'11111111'
                      01072         
                      01073                         
Warning[207]: Found label after column 1. (T_SEVEN)
042F                  01074         T_SEVEN
042F   0874           01075                         MOVFW   BTCOUNT
Message[305]: Using default destination of 1 (file).
0430   0782           01076                         ADDWF   PCL
                      01077 
0431   340C           01078                         DT      .12
0432   3400 343F      01079                         DT      B'00000000',B'00111111'
0434   3400 343F      01080                         DT      B'00000000',B'00111111'
0436   343F 343F      01081                         DT      B'00111111',B'00111111'
0438   343F 343F      01082                         DT      B'00111111',B'00111111'
043A   34FF 343F      01083                         DT      B'11111111',B'00111111'
043C   34FF 343F      01084                         DT      B'11111111',B'00111111'
043E   34FE 343F      01085                         DT      B'11111110',B'00111111'
0440   34FC 347F      01086                         DT      B'11111100',B'01111111';
0442   34F8 34FF      01087                         DT      B'11111000',B'11111111';
0444   34F1 34FF      01088                         DT      B'11110001',B'11111111'
0446   34E3 34FF      01089                         DT      B'11100011',B'11111111'
0448   34E7 34FF      01090                         DT      B'11100111',B'11111111'
044A   34E7 34FF      01091                         DT      B'11100111',B'11111111'
044C   34E7 34FF      01092                         DT      B'11100111',B'11111111'
044E   34E7 34FF      01093                         DT      B'11100111',B'11111111'
0450   34E7 34FF      01094                         DT      B'11100111',B'11111111' 
MPASM  5.51                     HUB12_SPI.ASM   6-13-2019  15:22:38         PAGE 24


LOC  OBJECT CODE     LINE SOURCE TEXT
  VALUE

                      01095         
Warning[207]: Found label after column 1. (T_EIGHT)
0452                  01096         T_EIGHT
0452   0874           01097                         MOVFW   BTCOUNT
Message[305]: Using default destination of 1 (file).
0453   0782           01098                         ADDWF   PCL
                      01099 
0454   340C           01100                         DT      .12
0455   34C0 34FF      01101                         DT      B'11000000',B'11111111'
0457   3480 347F      01102                         DT      B'10000000',B'01111111'
0459   341E 343F      01103                         DT      B'00011110',B'00111111'
045B   343F 343F      01104                         DT      B'00111111',B'00111111'
045D   343F 343F      01105                         DT      B'00111111',B'00111111'
045F   341E 343F      01106                         DT      B'00011110',B'00111111'
0461   3480 347F      01107                         DT      B'10000000',B'01111111'
0463   3480 347F      01108                         DT      B'10000000',B'01111111';
0465   341E 343F      01109                         DT      B'00011110',B'00111111';
0467   343F 343F      01110                         DT      B'00111111',B'00111111'
0469   343F 343F      01111                         DT      B'00111111',B'00111111'
046B   343F 343F      01112                         DT      B'00111111',B'00111111'
046D   343F 343F      01113                         DT      B'00111111',B'00111111'
046F   341E 343F      01114                         DT      B'00011110',B'00111111'
0471   3480 347F      01115                         DT      B'10000000',B'01111111'
0473   34C0 34FF      01116                         DT      B'11000000',B'11111111' 
                      01117 
Warning[207]: Found label after column 1. (T_NINE)
0475                  01118         T_NINE
0475   0874           01119                         MOVFW   BTCOUNT
Message[305]: Using default destination of 1 (file).
0476   0782           01120                         ADDWF   PCL
                      01121 
0477   340C           01122                         DT      .12
0478   34C0 34FF      01123                         DT      B'11000000',B'11111111'
047A   3480 347F      01124                         DT      B'10000000',B'01111111'
047C   341E 343F      01125                         DT      B'00011110',B'00111111'
047E   343F 343F      01126                         DT      B'00111111',B'00111111'
0480   343F 343F      01127                         DT      B'00111111',B'00111111'
0482   343F 343F      01128                         DT      B'00111111',B'00111111'
0484   341E 343F      01129                         DT      B'00011110',B'00111111'
0486   3480 343F      01130                         DT      B'10000000',B'00111111';
0488   34C0 343F      01131                         DT      B'11000000',B'00111111';
048A   34FE 343F      01132                         DT      B'11111110',B'00111111'
048C   34FF 343F      01133                         DT      B'11111111',B'00111111'
048E   34FF 343F      01134                         DT      B'11111111',B'00111111'
0490   343F 343F      01135                         DT      B'00111111',B'00111111'
0492   341E 343F      01136                         DT      B'00011110',B'00111111'
0494   3480 347F      01137                         DT      B'10000000',B'01111111'
0496   34C0 34FF      01138                         DT      B'11000000',B'11111111'
                      01139 
Warning[203]: Found opcode in column 1. (RETURN)
0498   0008           01140 RETURN
                      01141 
                      01142 ;#################### DUMPING OF DATA #######################
MPASM  5.51                     HUB12_SPI.ASM   6-13-2019  15:22:38         PAGE 25


LOC  OBJECT CODE     LINE SOURCE TEXT
  VALUE

                      01143 
0499                  01144 DUMP
0499   1283 1303      01145         BANK0
049B   3000           01146         MOVLW   .0
049C   00F4           01147         MOVWF   BTCOUNT
                      01148                 
049D   082B           01149         MOVFW   FONT
049E   0782           01150         ADDWF   PCL,F
                      01151 
049F   2CA4           01152         GOTO    FONT_0
                      01153         
04A0   2CC4           01154         GOTO    FONT_1
                      01155         
04A1   3005           01156         MOVLW   5
04A2   008A           01157         MOVWF   PCLATH
04A3   2CDA           01158         GOTO    FONT_2
                      01159 
                      01160 
                      01161 
04A4                  01162 FONT_0
04A4   3001           01163         MOVLW   1
04A5   008A           01164         MOVWF   PCLATH
04A6   21AE           01165         CALL    CHAR
04A7   00F5           01166         MOVWF   WIDTH
Message[305]: Using default destination of 1 (file).
04A8   0AF4           01167         INCF    BTCOUNT
                      01168 
04A9   305F           01169         MOVLW   0X5F
04AA   0084           01170         MOVWF   FSR
04AB   24B8           01171         CALL    DMP_FONT0
                      01172         
04AC   305E           01173         MOVLW   0X5E
04AD   0084           01174         MOVWF   FSR
04AE   24B8           01175         CALL    DMP_FONT0
                      01176 
04AF   305D           01177         MOVLW   0X5D
04B0   0084           01178         MOVWF   FSR
04B1   24B8           01179         CALL    DMP_FONT0
                      01180 
04B2   305C           01181         MOVLW   0X5C
04B3   0084           01182         MOVWF   FSR
04B4   24B8           01183         CALL    DMP_FONT0
                      01184 
                      01185 
                      01186 
04B5   3000           01187         MOVLW   .0                      ;BACK TO PAGE1
04B6   008A           01188         MOVWF   PCLATH
Warning[203]: Found opcode in column 1. (RETURN)
04B7   0008           01189 RETURN
                      01190 
04B8                  01191 DMP_FONT0
04B8   3004           01192         MOVLW   4
04B9   00EC           01193         MOVWF   POINTER
MPASM  5.51                     HUB12_SPI.ASM   6-13-2019  15:22:38         PAGE 26


LOC  OBJECT CODE     LINE SOURCE TEXT
  VALUE

04BA                  01194 DMPF0
04BA   3001           01195         MOVLW   1
04BB   008A           01196         MOVWF   PCLATH
04BC   21AE           01197         CALL    CHAR
04BD   0080           01198         MOVWF   INDF
04BE   3010           01199         MOVLW   0X10
04BF   0284           01200         SUBWF   FSR,F
Message[305]: Using default destination of 1 (file).
04C0   0AF4           01201         INCF    BTCOUNT
04C1   0BEC           01202         DECFSZ  POINTER,F
04C2   2CBA           01203         GOTO    DMPF0
Warning[203]: Found opcode in column 1. (RETURN)
04C3   0008           01204 RETURN
                      01205 
04C4                  01206 FONT_1
                      01207 
04C4   3000           01208         MOVLW   .0                      ;BACK TO PAGE1
04C5   008A           01209         MOVWF   PCLATH
                      01210 
04C6   0008           01211         RETURN
                      01212 
                      01213 
04C7                  01214 DMP_FONT2
                      01215 
04C7   3004           01216         MOVLW   4
04C8   00EC           01217         MOVWF   POINTER
04C9                  01218 DMPF2
04C9   3003           01219         MOVLW   3
04CA   008A           01220         MOVWF   PCLATH
04CB   2300           01221         CALL    T_CHAR
04CC   0080           01222         MOVWF   INDF
04CD   3004           01223         MOVLW   4
04CE   0784           01224         ADDWF   FSR,F
Message[305]: Using default destination of 1 (file).
04CF   0AF4           01225         INCF    BTCOUNT
04D0   3003           01226         MOVLW   3
04D1   008A           01227         MOVWF   PCLATH
04D2   2300           01228         CALL    T_CHAR
04D3   0080           01229         MOVWF   INDF
04D4   3014           01230         MOVLW   0X14
04D5   0284           01231         SUBWF   FSR,F
Message[305]: Using default destination of 1 (file).
04D6   0AF4           01232         INCF    BTCOUNT
04D7   0BEC           01233         DECFSZ  POINTER,F
04D8   2CC9           01234         GOTO    DMPF2
Warning[203]: Found opcode in column 1. (RETURN)
04D9   0008           01235 RETURN
                      01236 
04DA                  01237 FONT_2
                      01238 
04DA   3003           01239         MOVLW   3
04DB   008A           01240         MOVWF   PCLATH
04DC   2300           01241         CALL    T_CHAR
MPASM  5.51                     HUB12_SPI.ASM   6-13-2019  15:22:38         PAGE 27


LOC  OBJECT CODE     LINE SOURCE TEXT
  VALUE

04DD   00F5           01242         MOVWF   WIDTH
Message[305]: Using default destination of 1 (file).
04DE   0AF4           01243         INCF    BTCOUNT
                      01244         
04DF   305F           01245         MOVLW   0X5F
04E0   0084           01246         MOVWF   FSR
04E1   24C7           01247         CALL    DMP_FONT2
                      01248         
04E2   305E           01249         MOVLW   0X5E
04E3   0084           01250         MOVWF   FSR
04E4   24C7           01251         CALL    DMP_FONT2
                      01252 
04E5   305D           01253         MOVLW   0X5D
04E6   0084           01254         MOVWF   FSR
04E7   24C7           01255         CALL    DMP_FONT2
                      01256 
04E8   305C           01257         MOVLW   0X5C
04E9   0084           01258         MOVWF   FSR
04EA   24C7           01259         CALL    DMP_FONT2
                      01260 
04EB   3000           01261         MOVLW   .0                      ;BACK TO PAGE1
04EC   008A           01262         MOVWF   PCLATH
Warning[203]: Found opcode in column 1. (RETURN)
04ED   0008           01263 RETURN
                      01264 ;###############################################################
                      01265 
Warning[205]: Found directive in column 1. (ORG)
0500                  01266 ORG     0X500
                      01267 ;#################      ISHIFT X        RIGHT ##########################
                      01268 
0500                  01269 ISHIFTR
0500   1683 1303      01270         BANK1
Message[302]: Register in operand not in bank 0.  Ensure that bank bits are correct.
0502   0864           01271         MOVFW   ICURSORX
0503   0782           01272         ADDWF   PCL,F
                      01273         
                      01274 
0504   0008           01275                 RETURN
0505   2DB1           01276         GOTO    IGRP_C;1
0506   2DB1           01277         GOTO    IGRP_C;2
0507   2DB1           01278         GOTO    IGRP_C;3
0508   2DB1           01279         GOTO    IGRP_C;4
0509   2DB1           01280         GOTO    IGRP_C;5
050A   2DB1           01281         GOTO    IGRP_C;6
050B   2DB1           01282         GOTO    IGRP_C;7
050C   2DB1           01283         GOTO    IGRP_C;8
050D   2D6F           01284                 GOTO    IGRP_B;9
050E   2D6F           01285         GOTO    IGRP_B;10
050F   2D6F           01286         GOTO    IGRP_B;11
0510   2D6F           01287         GOTO    IGRP_B;12
0511   2D6F           01288         GOTO    IGRP_B;13
0512   2D6F           01289         GOTO    IGRP_B;14
0513   2D6F           01290         GOTO    IGRP_B;15
MPASM  5.51                     HUB12_SPI.ASM   6-13-2019  15:22:38         PAGE 28


LOC  OBJECT CODE     LINE SOURCE TEXT
  VALUE

0514   2D6F           01291         GOTO    IGRP_B;16
0515   2D1D           01292                 GOTO    IGRP_A;17
0516   2D1D           01293         GOTO    IGRP_A;18
0517   2D1D           01294         GOTO    IGRP_A;19
0518   2D1D           01295         GOTO    IGRP_A;20
0519   2D1D           01296         GOTO    IGRP_A;21
051A   2D1D           01297         GOTO    IGRP_A;22
051B   2D1D           01298         GOTO    IGRP_A;23
051C   2D1D           01299         GOTO    IGRP_A;24
                      01300 
051D                  01301 IGRP_A
                      01302 ;--------------------
Message[302]: Register in operand not in bank 0.  Ensure that bank bits are correct.
051D   0864           01303         MOVFW   ICURSORX
Message[302]: Register in operand not in bank 0.  Ensure that bank bits are correct.
051E   00E5           01304         MOVWF   ISHCNT
                      01305 
051F   3001           01306         MOVLW   .1
Message[302]: Register in operand not in bank 0.  Ensure that bank bits are correct.
0520   00E3           01307         MOVWF   ITESTER
                      01308 
Message[302]: Register in operand not in bank 0.  Ensure that bank bits are correct.
0521   0866           01309         MOVFW   IROW
Message[302]: Register in operand not in bank 0.  Ensure that bank bits are correct.
0522   0263           01310         SUBWF   ITESTER,W
0523   1903           01311         BTFSC   STATUS,Z
0524   2D4B           01312         GOTO    ISRA08_R1
                      01313         
0525                  01314 ISRA00
Warning[211]: Extraneous arguments on the line.
0525   1403           01315         SETC    1
Message[305]: Using default destination of 1 (file).
Message[302]: Register in operand not in bank 0.  Ensure that bank bits are correct.
0526   0CD3           01316         RRF             IRAM + 33
Message[305]: Using default destination of 1 (file).
Message[302]: Register in operand not in bank 0.  Ensure that bank bits are correct.
0527   0CD7           01317         RRF             IRAM + 37
Message[305]: Using default destination of 1 (file).
Message[302]: Register in operand not in bank 0.  Ensure that bank bits are correct.
0528   0CDB           01318         RRF             IRAM + 3B
Message[305]: Using default destination of 1 (file).
Message[302]: Register in operand not in bank 0.  Ensure that bank bits are correct.
0529   0CDF           01319         RRF             IRAM + 3F
                      01320 
Message[305]: Using default destination of 1 (file).
Message[302]: Register in operand not in bank 0.  Ensure that bank bits are correct.
052A   0CC3           01321         RRF             IRAM + 23
Message[305]: Using default destination of 1 (file).
Message[302]: Register in operand not in bank 0.  Ensure that bank bits are correct.
052B   0CC7           01322         RRF             IRAM + 27
Message[305]: Using default destination of 1 (file).
Message[302]: Register in operand not in bank 0.  Ensure that bank bits are correct.
052C   0CCB           01323         RRF             IRAM + 2B
MPASM  5.51                     HUB12_SPI.ASM   6-13-2019  15:22:38         PAGE 29


LOC  OBJECT CODE     LINE SOURCE TEXT
  VALUE

Message[305]: Using default destination of 1 (file).
Message[302]: Register in operand not in bank 0.  Ensure that bank bits are correct.
052D   0CCF           01324         RRF             IRAM + 2F
                      01325 
Message[305]: Using default destination of 1 (file).
Message[302]: Register in operand not in bank 0.  Ensure that bank bits are correct.
052E   0CB3           01326         RRF             IRAM + 13
Message[305]: Using default destination of 1 (file).
Message[302]: Register in operand not in bank 0.  Ensure that bank bits are correct.
052F   0CB7           01327         RRF             IRAM + 17
Message[305]: Using default destination of 1 (file).
Message[302]: Register in operand not in bank 0.  Ensure that bank bits are correct.
0530   0CBB           01328         RRF             IRAM + 1B
Message[305]: Using default destination of 1 (file).
Message[302]: Register in operand not in bank 0.  Ensure that bank bits are correct.
0531   0CBF           01329         RRF             IRAM + 1F
                      01330 
Message[305]: Using default destination of 1 (file).
Message[302]: Register in operand not in bank 0.  Ensure that bank bits are correct.
0532   0CA3           01331         RRF             IRAM + 03
Message[305]: Using default destination of 1 (file).
Message[302]: Register in operand not in bank 0.  Ensure that bank bits are correct.
0533   0CA7           01332         RRF             IRAM + 07
Message[305]: Using default destination of 1 (file).
Message[302]: Register in operand not in bank 0.  Ensure that bank bits are correct.
0534   0CAB           01333         RRF             IRAM + 0B
Message[305]: Using default destination of 1 (file).
Message[302]: Register in operand not in bank 0.  Ensure that bank bits are correct.
0535   0CAF           01334         RRF             IRAM + 0F
                      01335 
Message[305]: Using default destination of 1 (file).
Message[302]: Register in operand not in bank 0.  Ensure that bank bits are correct.
0536   0CD2           01336         RRF             IRAM + 32
Message[305]: Using default destination of 1 (file).
Message[302]: Register in operand not in bank 0.  Ensure that bank bits are correct.
0537   0CD6           01337         RRF             IRAM + 36
Message[305]: Using default destination of 1 (file).
Message[302]: Register in operand not in bank 0.  Ensure that bank bits are correct.
0538   0CDA           01338         RRF             IRAM + 3A
Message[305]: Using default destination of 1 (file).
Message[302]: Register in operand not in bank 0.  Ensure that bank bits are correct.
0539   0CDE           01339         RRF             IRAM + 3E
                      01340 
Message[305]: Using default destination of 1 (file).
Message[302]: Register in operand not in bank 0.  Ensure that bank bits are correct.
053A   0CC2           01341         RRF             IRAM + 22
Message[305]: Using default destination of 1 (file).
Message[302]: Register in operand not in bank 0.  Ensure that bank bits are correct.
053B   0CC6           01342         RRF             IRAM + 26
Message[305]: Using default destination of 1 (file).
Message[302]: Register in operand not in bank 0.  Ensure that bank bits are correct.
053C   0CCA           01343         RRF             IRAM + 2A
Message[305]: Using default destination of 1 (file).
MPASM  5.51                     HUB12_SPI.ASM   6-13-2019  15:22:38         PAGE 30


LOC  OBJECT CODE     LINE SOURCE TEXT
  VALUE

Message[302]: Register in operand not in bank 0.  Ensure that bank bits are correct.
053D   0CCE           01344         RRF             IRAM + 2E
                      01345 
Message[305]: Using default destination of 1 (file).
Message[302]: Register in operand not in bank 0.  Ensure that bank bits are correct.
053E   0CB2           01346         RRF             IRAM + 12
Message[305]: Using default destination of 1 (file).
Message[302]: Register in operand not in bank 0.  Ensure that bank bits are correct.
053F   0CB6           01347         RRF             IRAM + 16
Message[305]: Using default destination of 1 (file).
Message[302]: Register in operand not in bank 0.  Ensure that bank bits are correct.
0540   0CBA           01348         RRF             IRAM + 1A
Message[305]: Using default destination of 1 (file).
Message[302]: Register in operand not in bank 0.  Ensure that bank bits are correct.
0541   0CBE           01349         RRF             IRAM + 1E
                      01350 
Message[305]: Using default destination of 1 (file).
Message[302]: Register in operand not in bank 0.  Ensure that bank bits are correct.
0542   0CA2           01351         RRF             IRAM + 02
Message[305]: Using default destination of 1 (file).
Message[302]: Register in operand not in bank 0.  Ensure that bank bits are correct.
0543   0CA6           01352         RRF             IRAM + 06
Message[305]: Using default destination of 1 (file).
Message[302]: Register in operand not in bank 0.  Ensure that bank bits are correct.
0544   0CAA           01353         RRF             IRAM + 0A
Message[305]: Using default destination of 1 (file).
Message[302]: Register in operand not in bank 0.  Ensure that bank bits are correct.
0545   0CAE           01354         RRF             IRAM + 0E
Message[305]: Using default destination of 1 (file).
Message[302]: Register in operand not in bank 0.  Ensure that bank bits are correct.
0546   0BE5           01355         DECFSZ  ISHCNT
0547   2D25           01356         GOTO    ISRA00
                      01357 
Message[302]: Register in operand not in bank 0.  Ensure that bank bits are correct.
0548   0864           01358         MOVF    ICURSORX,0
Message[302]: Register in operand not in bank 0.  Ensure that bank bits are correct.
0549   00E5           01359         MOVWF   ISHCNT
Warning[203]: Found opcode in column 1. (RETURN)
054A   0008           01360 RETURN
054B                  01361 ISRA08_R1
Warning[211]: Extraneous arguments on the line.
054B   1403           01362         SETC    1
054C                  01363 ISRA08
Message[305]: Using default destination of 1 (file).
Message[302]: Register in operand not in bank 0.  Ensure that bank bits are correct.
054C   0CD1           01364         RRF             IRAM + 31
Message[305]: Using default destination of 1 (file).
Message[302]: Register in operand not in bank 0.  Ensure that bank bits are correct.
054D   0CD5           01365         RRF             IRAM + 35
Message[305]: Using default destination of 1 (file).
Message[302]: Register in operand not in bank 0.  Ensure that bank bits are correct.
054E   0CD9           01366         RRF             IRAM + 39
Message[305]: Using default destination of 1 (file).
MPASM  5.51                     HUB12_SPI.ASM   6-13-2019  15:22:38         PAGE 31


LOC  OBJECT CODE     LINE SOURCE TEXT
  VALUE

Message[302]: Register in operand not in bank 0.  Ensure that bank bits are correct.
054F   0CDD           01367         RRF             IRAM + 3D
                      01368 
Message[305]: Using default destination of 1 (file).
Message[302]: Register in operand not in bank 0.  Ensure that bank bits are correct.
0550   0CC1           01369         RRF             IRAM + 21
Message[305]: Using default destination of 1 (file).
Message[302]: Register in operand not in bank 0.  Ensure that bank bits are correct.
0551   0CC5           01370         RRF             IRAM + 25
Message[305]: Using default destination of 1 (file).
Message[302]: Register in operand not in bank 0.  Ensure that bank bits are correct.
0552   0CC9           01371         RRF             IRAM + 29
Message[305]: Using default destination of 1 (file).
Message[302]: Register in operand not in bank 0.  Ensure that bank bits are correct.
0553   0CCD           01372         RRF             IRAM + 2D
                      01373 
                      01374 
Message[305]: Using default destination of 1 (file).
Message[302]: Register in operand not in bank 0.  Ensure that bank bits are correct.
0554   0CB1           01375         RRF             IRAM + 11
Message[305]: Using default destination of 1 (file).
Message[302]: Register in operand not in bank 0.  Ensure that bank bits are correct.
0555   0CB5           01376         RRF             IRAM + 15
Message[305]: Using default destination of 1 (file).
Message[302]: Register in operand not in bank 0.  Ensure that bank bits are correct.
0556   0CB9           01377         RRF             IRAM + 19
Message[305]: Using default destination of 1 (file).
Message[302]: Register in operand not in bank 0.  Ensure that bank bits are correct.
0557   0CBD           01378         RRF             IRAM + 1D
                      01379 
Message[305]: Using default destination of 1 (file).
Message[302]: Register in operand not in bank 0.  Ensure that bank bits are correct.
0558   0CA1           01380         RRF             IRAM + 01
Message[305]: Using default destination of 1 (file).
Message[302]: Register in operand not in bank 0.  Ensure that bank bits are correct.
0559   0CA5           01381         RRF             IRAM + 05
Message[305]: Using default destination of 1 (file).
Message[302]: Register in operand not in bank 0.  Ensure that bank bits are correct.
055A   0CA9           01382         RRF             IRAM + 09
Message[305]: Using default destination of 1 (file).
Message[302]: Register in operand not in bank 0.  Ensure that bank bits are correct.
055B   0CAD           01383         RRF             IRAM + 0D
                      01384 
Message[305]: Using default destination of 1 (file).
Message[302]: Register in operand not in bank 0.  Ensure that bank bits are correct.
055C   0CD0           01385         RRF             IRAM + 30
Message[305]: Using default destination of 1 (file).
Message[302]: Register in operand not in bank 0.  Ensure that bank bits are correct.
055D   0CD4           01386         RRF             IRAM + 34
Message[305]: Using default destination of 1 (file).
Message[302]: Register in operand not in bank 0.  Ensure that bank bits are correct.
055E   0CD8           01387         RRF             IRAM + 38
Message[305]: Using default destination of 1 (file).
MPASM  5.51                     HUB12_SPI.ASM   6-13-2019  15:22:38         PAGE 32


LOC  OBJECT CODE     LINE SOURCE TEXT
  VALUE

Message[302]: Register in operand not in bank 0.  Ensure that bank bits are correct.
055F   0CDC           01388         RRF             IRAM + 3C
                      01389 
                      01390 
Message[305]: Using default destination of 1 (file).
Message[302]: Register in operand not in bank 0.  Ensure that bank bits are correct.
0560   0CC0           01391         RRF             IRAM + 20
Message[305]: Using default destination of 1 (file).
Message[302]: Register in operand not in bank 0.  Ensure that bank bits are correct.
0561   0CC4           01392         RRF             IRAM + 24
Message[305]: Using default destination of 1 (file).
Message[302]: Register in operand not in bank 0.  Ensure that bank bits are correct.
0562   0CC8           01393         RRF             IRAM + 28
Message[305]: Using default destination of 1 (file).
Message[302]: Register in operand not in bank 0.  Ensure that bank bits are correct.
0563   0CCC           01394         RRF             IRAM + 2C
                      01395 
Message[305]: Using default destination of 1 (file).
Message[302]: Register in operand not in bank 0.  Ensure that bank bits are correct.
0564   0CB0           01396         RRF             IRAM + 10
Message[305]: Using default destination of 1 (file).
Message[302]: Register in operand not in bank 0.  Ensure that bank bits are correct.
0565   0CB4           01397         RRF             IRAM + 14
Message[305]: Using default destination of 1 (file).
Message[302]: Register in operand not in bank 0.  Ensure that bank bits are correct.
0566   0CB8           01398         RRF             IRAM + 18
Message[305]: Using default destination of 1 (file).
Message[302]: Register in operand not in bank 0.  Ensure that bank bits are correct.
0567   0CBC           01399         RRF             IRAM + 1C
                      01400 
Message[305]: Using default destination of 1 (file).
Message[302]: Register in operand not in bank 0.  Ensure that bank bits are correct.
0568   0CA0           01401         RRF             IRAM + 00
Message[305]: Using default destination of 1 (file).
Message[302]: Register in operand not in bank 0.  Ensure that bank bits are correct.
0569   0CA4           01402         RRF             IRAM + 04
Message[305]: Using default destination of 1 (file).
Message[302]: Register in operand not in bank 0.  Ensure that bank bits are correct.
056A   0CA8           01403         RRF             IRAM + 08
Message[305]: Using default destination of 1 (file).
Message[302]: Register in operand not in bank 0.  Ensure that bank bits are correct.
056B   0CAC           01404         RRF             IRAM + 0C
Message[305]: Using default destination of 1 (file).
Message[302]: Register in operand not in bank 0.  Ensure that bank bits are correct.
056C   0BE5           01405         DECFSZ  ISHCNT
056D   2D4C           01406         GOTO    ISRA08
                      01407 
Warning[203]: Found opcode in column 1. (RETURN)
056E   0008           01408 RETURN
                      01409 
056F                  01410 IGRP_B
                      01411 
                      01412 ;--------------------
MPASM  5.51                     HUB12_SPI.ASM   6-13-2019  15:22:38         PAGE 33


LOC  OBJECT CODE     LINE SOURCE TEXT
  VALUE

Message[302]: Register in operand not in bank 0.  Ensure that bank bits are correct.
056F   0864           01413         MOVFW   ICURSORX
Message[302]: Register in operand not in bank 0.  Ensure that bank bits are correct.
0570   00E5           01414         MOVWF   ISHCNT
                      01415 
0571   3001           01416         MOVLW   .1
Message[302]: Register in operand not in bank 0.  Ensure that bank bits are correct.
0572   00E3           01417         MOVWF   ITESTER
                      01418 
Message[302]: Register in operand not in bank 0.  Ensure that bank bits are correct.
0573   0866           01419         MOVFW   IROW
Message[302]: Register in operand not in bank 0.  Ensure that bank bits are correct.
0574   0263           01420         SUBWF   ITESTER,W
0575   1903           01421         BTFSC   STATUS,Z
0576   2D96           01422         GOTO    ISRB08
                      01423 
                      01424 
                      01425         
0577                  01426 ISRB00
Warning[211]: Extraneous arguments on the line.
0577   1403           01427         SETC    1
Message[305]: Using default destination of 1 (file).
Message[302]: Register in operand not in bank 0.  Ensure that bank bits are correct.
0578   0CD3           01428         RRF             IRAM + 33
Message[305]: Using default destination of 1 (file).
Message[302]: Register in operand not in bank 0.  Ensure that bank bits are correct.
0579   0CD7           01429         RRF             IRAM + 37
Message[305]: Using default destination of 1 (file).
Message[302]: Register in operand not in bank 0.  Ensure that bank bits are correct.
057A   0CDB           01430         RRF             IRAM + 3B
                      01431 
Message[305]: Using default destination of 1 (file).
Message[302]: Register in operand not in bank 0.  Ensure that bank bits are correct.
057B   0CC3           01432         RRF             IRAM + 23
Message[305]: Using default destination of 1 (file).
Message[302]: Register in operand not in bank 0.  Ensure that bank bits are correct.
057C   0CC7           01433         RRF             IRAM + 27
Message[305]: Using default destination of 1 (file).
Message[302]: Register in operand not in bank 0.  Ensure that bank bits are correct.
057D   0CCB           01434         RRF             IRAM + 2B
                      01435 
Message[305]: Using default destination of 1 (file).
Message[302]: Register in operand not in bank 0.  Ensure that bank bits are correct.
057E   0CB3           01436         RRF             IRAM + 13
Message[305]: Using default destination of 1 (file).
Message[302]: Register in operand not in bank 0.  Ensure that bank bits are correct.
057F   0CB7           01437         RRF             IRAM + 17
Message[305]: Using default destination of 1 (file).
Message[302]: Register in operand not in bank 0.  Ensure that bank bits are correct.
0580   0CBB           01438         RRF             IRAM + 1B
                      01439 
                      01440 
Message[305]: Using default destination of 1 (file).
MPASM  5.51                     HUB12_SPI.ASM   6-13-2019  15:22:38         PAGE 34


LOC  OBJECT CODE     LINE SOURCE TEXT
  VALUE

Message[302]: Register in operand not in bank 0.  Ensure that bank bits are correct.
0581   0CA3           01441         RRF             IRAM + 03
Message[305]: Using default destination of 1 (file).
Message[302]: Register in operand not in bank 0.  Ensure that bank bits are correct.
0582   0CA7           01442         RRF             IRAM + 07
Message[305]: Using default destination of 1 (file).
Message[302]: Register in operand not in bank 0.  Ensure that bank bits are correct.
0583   0CAB           01443         RRF             IRAM + 0B
                      01444 
                      01445 
Message[305]: Using default destination of 1 (file).
Message[302]: Register in operand not in bank 0.  Ensure that bank bits are correct.
0584   0CD2           01446         RRF             IRAM + 32
Message[305]: Using default destination of 1 (file).
Message[302]: Register in operand not in bank 0.  Ensure that bank bits are correct.
0585   0CD6           01447         RRF             IRAM + 36
Message[305]: Using default destination of 1 (file).
Message[302]: Register in operand not in bank 0.  Ensure that bank bits are correct.
0586   0CDA           01448         RRF             IRAM + 3A
                      01449 
Message[305]: Using default destination of 1 (file).
Message[302]: Register in operand not in bank 0.  Ensure that bank bits are correct.
0587   0CC2           01450         RRF             IRAM + 22
Message[305]: Using default destination of 1 (file).
Message[302]: Register in operand not in bank 0.  Ensure that bank bits are correct.
0588   0CC6           01451         RRF             IRAM + 26
Message[305]: Using default destination of 1 (file).
Message[302]: Register in operand not in bank 0.  Ensure that bank bits are correct.
0589   0CCA           01452         RRF             IRAM + 2A
                      01453 
                      01454 
Message[305]: Using default destination of 1 (file).
Message[302]: Register in operand not in bank 0.  Ensure that bank bits are correct.
058A   0CB2           01455         RRF             IRAM + 12
Message[305]: Using default destination of 1 (file).
Message[302]: Register in operand not in bank 0.  Ensure that bank bits are correct.
058B   0CB6           01456         RRF             IRAM + 16
Message[305]: Using default destination of 1 (file).
Message[302]: Register in operand not in bank 0.  Ensure that bank bits are correct.
058C   0CBA           01457         RRF             IRAM + 1A
                      01458 
Message[305]: Using default destination of 1 (file).
Message[302]: Register in operand not in bank 0.  Ensure that bank bits are correct.
058D   0CA2           01459         RRF             IRAM + 02
Message[305]: Using default destination of 1 (file).
Message[302]: Register in operand not in bank 0.  Ensure that bank bits are correct.
058E   0CA6           01460         RRF             IRAM + 06
Message[305]: Using default destination of 1 (file).
Message[302]: Register in operand not in bank 0.  Ensure that bank bits are correct.
058F   0CAA           01461         RRF             IRAM + 0A
                      01462 
Message[305]: Using default destination of 1 (file).
Message[302]: Register in operand not in bank 0.  Ensure that bank bits are correct.
MPASM  5.51                     HUB12_SPI.ASM   6-13-2019  15:22:38         PAGE 35


LOC  OBJECT CODE     LINE SOURCE TEXT
  VALUE

0590   0BE5           01463         DECFSZ  ISHCNT
0591   2D77           01464         GOTO    ISRB00
                      01465 
Message[302]: Register in operand not in bank 0.  Ensure that bank bits are correct.
0592   0864           01466         MOVF    ICURSORX,0
Message[302]: Register in operand not in bank 0.  Ensure that bank bits are correct.
0593   00E5           01467         MOVWF   ISHCNT
Warning[203]: Found opcode in column 1. (RETURN)
0594   0008           01468 RETURN
0595                  01469 ISRB08_R1
Warning[211]: Extraneous arguments on the line.
0595   1403           01470         SETC    1
0596                  01471 ISRB08
Message[305]: Using default destination of 1 (file).
Message[302]: Register in operand not in bank 0.  Ensure that bank bits are correct.
0596   0CD1           01472         RRF             IRAM + 31
Message[305]: Using default destination of 1 (file).
Message[302]: Register in operand not in bank 0.  Ensure that bank bits are correct.
0597   0CD5           01473         RRF             IRAM + 35
Message[305]: Using default destination of 1 (file).
Message[302]: Register in operand not in bank 0.  Ensure that bank bits are correct.
0598   0CD9           01474         RRF             IRAM + 39
                      01475 
Message[305]: Using default destination of 1 (file).
Message[302]: Register in operand not in bank 0.  Ensure that bank bits are correct.
0599   0CC1           01476         RRF             IRAM + 21
Message[305]: Using default destination of 1 (file).
Message[302]: Register in operand not in bank 0.  Ensure that bank bits are correct.
059A   0CC5           01477         RRF             IRAM + 25
Message[305]: Using default destination of 1 (file).
Message[302]: Register in operand not in bank 0.  Ensure that bank bits are correct.
059B   0CC9           01478         RRF             IRAM + 29
                      01479 
Message[305]: Using default destination of 1 (file).
Message[302]: Register in operand not in bank 0.  Ensure that bank bits are correct.
059C   0CB1           01480         RRF             IRAM + 11
Message[305]: Using default destination of 1 (file).
Message[302]: Register in operand not in bank 0.  Ensure that bank bits are correct.
059D   0CB5           01481         RRF             IRAM + 15
Message[305]: Using default destination of 1 (file).
Message[302]: Register in operand not in bank 0.  Ensure that bank bits are correct.
059E   0CB9           01482         RRF             IRAM + 19
                      01483 
                      01484 
Message[305]: Using default destination of 1 (file).
Message[302]: Register in operand not in bank 0.  Ensure that bank bits are correct.
059F   0CA1           01485         RRF             IRAM + 01
Message[305]: Using default destination of 1 (file).
Message[302]: Register in operand not in bank 0.  Ensure that bank bits are correct.
05A0   0CA5           01486         RRF             IRAM + 05
Message[305]: Using default destination of 1 (file).
Message[302]: Register in operand not in bank 0.  Ensure that bank bits are correct.
05A1   0CA9           01487         RRF             IRAM + 09
MPASM  5.51                     HUB12_SPI.ASM   6-13-2019  15:22:38         PAGE 36


LOC  OBJECT CODE     LINE SOURCE TEXT
  VALUE

                      01488 
Message[305]: Using default destination of 1 (file).
Message[302]: Register in operand not in bank 0.  Ensure that bank bits are correct.
05A2   0CD0           01489         RRF             IRAM + 30
Message[305]: Using default destination of 1 (file).
Message[302]: Register in operand not in bank 0.  Ensure that bank bits are correct.
05A3   0CD4           01490         RRF             IRAM + 34
Message[305]: Using default destination of 1 (file).
Message[302]: Register in operand not in bank 0.  Ensure that bank bits are correct.
05A4   0CD8           01491         RRF             IRAM + 38
                      01492 
Message[305]: Using default destination of 1 (file).
Message[302]: Register in operand not in bank 0.  Ensure that bank bits are correct.
05A5   0CC0           01493         RRF             IRAM + 20
Message[305]: Using default destination of 1 (file).
Message[302]: Register in operand not in bank 0.  Ensure that bank bits are correct.
05A6   0CC4           01494         RRF             IRAM + 24
Message[305]: Using default destination of 1 (file).
Message[302]: Register in operand not in bank 0.  Ensure that bank bits are correct.
05A7   0CC8           01495         RRF             IRAM + 28
                      01496 
Message[305]: Using default destination of 1 (file).
Message[302]: Register in operand not in bank 0.  Ensure that bank bits are correct.
05A8   0CB0           01497         RRF             IRAM + 10
Message[305]: Using default destination of 1 (file).
Message[302]: Register in operand not in bank 0.  Ensure that bank bits are correct.
05A9   0CB4           01498         RRF             IRAM + 14
Message[305]: Using default destination of 1 (file).
Message[302]: Register in operand not in bank 0.  Ensure that bank bits are correct.
05AA   0CB8           01499         RRF             IRAM + 18
                      01500 
Message[305]: Using default destination of 1 (file).
Message[302]: Register in operand not in bank 0.  Ensure that bank bits are correct.
05AB   0CA0           01501         RRF             IRAM + 00
Message[305]: Using default destination of 1 (file).
Message[302]: Register in operand not in bank 0.  Ensure that bank bits are correct.
05AC   0CA4           01502         RRF             IRAM + 04
Message[305]: Using default destination of 1 (file).
Message[302]: Register in operand not in bank 0.  Ensure that bank bits are correct.
05AD   0CA8           01503         RRF             IRAM + 08
                      01504 
Message[305]: Using default destination of 1 (file).
Message[302]: Register in operand not in bank 0.  Ensure that bank bits are correct.
05AE   0BE5           01505         DECFSZ  ISHCNT
05AF   2D96           01506         GOTO    ISRB08
                      01507 
Warning[203]: Found opcode in column 1. (RETURN)
05B0   0008           01508 RETURN
                      01509 
05B1                  01510 IGRP_C
                      01511         ;--------------------
Message[302]: Register in operand not in bank 0.  Ensure that bank bits are correct.
05B1   0864           01512         MOVFW   ICURSORX
MPASM  5.51                     HUB12_SPI.ASM   6-13-2019  15:22:38         PAGE 37


LOC  OBJECT CODE     LINE SOURCE TEXT
  VALUE

Message[302]: Register in operand not in bank 0.  Ensure that bank bits are correct.
05B2   00E5           01513         MOVWF   ISHCNT
                      01514 
05B3   3001           01515         MOVLW   .1
Message[302]: Register in operand not in bank 0.  Ensure that bank bits are correct.
05B4   00E3           01516         MOVWF   ITESTER
                      01517 
Message[302]: Register in operand not in bank 0.  Ensure that bank bits are correct.
05B5   0866           01518         MOVFW   IROW
Message[302]: Register in operand not in bank 0.  Ensure that bank bits are correct.
05B6   0263           01519         SUBWF   ITESTER,W
05B7   1903           01520         BTFSC   STATUS,Z
05B8   2DD0           01521         GOTO    ISRC08
                      01522 
                      01523 
                      01524         
05B9                  01525 ISRC00
Warning[211]: Extraneous arguments on the line.
05B9   1403           01526         SETC    1
Message[305]: Using default destination of 1 (file).
Message[302]: Register in operand not in bank 0.  Ensure that bank bits are correct.
05BA   0CD3           01527         RRF             IRAM + 33
Message[305]: Using default destination of 1 (file).
Message[302]: Register in operand not in bank 0.  Ensure that bank bits are correct.
05BB   0CD7           01528         RRF             IRAM + 37
                      01529 
                      01530 
Message[305]: Using default destination of 1 (file).
Message[302]: Register in operand not in bank 0.  Ensure that bank bits are correct.
05BC   0CC3           01531         RRF             IRAM + 23
Message[305]: Using default destination of 1 (file).
Message[302]: Register in operand not in bank 0.  Ensure that bank bits are correct.
05BD   0CC7           01532         RRF             IRAM + 27
                      01533 
                      01534 
Message[305]: Using default destination of 1 (file).
Message[302]: Register in operand not in bank 0.  Ensure that bank bits are correct.
05BE   0CB3           01535         RRF             IRAM + 13
Message[305]: Using default destination of 1 (file).
Message[302]: Register in operand not in bank 0.  Ensure that bank bits are correct.
05BF   0CB7           01536         RRF             IRAM + 17
                      01537 
                      01538 
Message[305]: Using default destination of 1 (file).
Message[302]: Register in operand not in bank 0.  Ensure that bank bits are correct.
05C0   0CA3           01539         RRF             IRAM + 03
Message[305]: Using default destination of 1 (file).
Message[302]: Register in operand not in bank 0.  Ensure that bank bits are correct.
05C1   0CA7           01540         RRF             IRAM + 07
                      01541 
                      01542 
Message[305]: Using default destination of 1 (file).
Message[302]: Register in operand not in bank 0.  Ensure that bank bits are correct.
MPASM  5.51                     HUB12_SPI.ASM   6-13-2019  15:22:38         PAGE 38


LOC  OBJECT CODE     LINE SOURCE TEXT
  VALUE

05C2   0CD2           01543         RRF             IRAM + 32
Message[305]: Using default destination of 1 (file).
Message[302]: Register in operand not in bank 0.  Ensure that bank bits are correct.
05C3   0CD6           01544         RRF             IRAM + 36
                      01545 
                      01546 
                      01547 
Message[305]: Using default destination of 1 (file).
Message[302]: Register in operand not in bank 0.  Ensure that bank bits are correct.
05C4   0CC2           01548         RRF             IRAM + 22
Message[305]: Using default destination of 1 (file).
Message[302]: Register in operand not in bank 0.  Ensure that bank bits are correct.
05C5   0CC6           01549         RRF             IRAM + 26
                      01550 
                      01551 
                      01552 
Message[305]: Using default destination of 1 (file).
Message[302]: Register in operand not in bank 0.  Ensure that bank bits are correct.
05C6   0CB2           01553         RRF             IRAM + 12
Message[305]: Using default destination of 1 (file).
Message[302]: Register in operand not in bank 0.  Ensure that bank bits are correct.
05C7   0CB6           01554         RRF             IRAM + 16
                      01555 
Message[305]: Using default destination of 1 (file).
Message[302]: Register in operand not in bank 0.  Ensure that bank bits are correct.
05C8   0CA2           01556         RRF             IRAM + 02
Message[305]: Using default destination of 1 (file).
Message[302]: Register in operand not in bank 0.  Ensure that bank bits are correct.
05C9   0CA6           01557         RRF             IRAM + 06
                      01558 
                      01559 
Message[305]: Using default destination of 1 (file).
Message[302]: Register in operand not in bank 0.  Ensure that bank bits are correct.
05CA   0BE5           01560         DECFSZ  ISHCNT
05CB   2DB9           01561         GOTO    ISRC00
                      01562 
Message[302]: Register in operand not in bank 0.  Ensure that bank bits are correct.
05CC   0864           01563         MOVF    ICURSORX,0
Message[302]: Register in operand not in bank 0.  Ensure that bank bits are correct.
05CD   00E5           01564         MOVWF   ISHCNT
Warning[203]: Found opcode in column 1. (RETURN)
05CE   0008           01565 RETURN
05CF                  01566 ISRC08_R1
Warning[211]: Extraneous arguments on the line.
05CF   1403           01567         SETC    1
05D0                  01568 ISRC08
Message[305]: Using default destination of 1 (file).
Message[302]: Register in operand not in bank 0.  Ensure that bank bits are correct.
05D0   0CD1           01569         RRF             IRAM + 31
Message[305]: Using default destination of 1 (file).
Message[302]: Register in operand not in bank 0.  Ensure that bank bits are correct.
05D1   0CD5           01570         RRF             IRAM + 35
                      01571 
MPASM  5.51                     HUB12_SPI.ASM   6-13-2019  15:22:38         PAGE 39


LOC  OBJECT CODE     LINE SOURCE TEXT
  VALUE

                      01572 
Message[305]: Using default destination of 1 (file).
Message[302]: Register in operand not in bank 0.  Ensure that bank bits are correct.
05D2   0CC1           01573         RRF             IRAM + 21
Message[305]: Using default destination of 1 (file).
Message[302]: Register in operand not in bank 0.  Ensure that bank bits are correct.
05D3   0CC5           01574         RRF             IRAM + 25
                      01575 
                      01576 
Message[305]: Using default destination of 1 (file).
Message[302]: Register in operand not in bank 0.  Ensure that bank bits are correct.
05D4   0CB1           01577         RRF             IRAM + 11
Message[305]: Using default destination of 1 (file).
Message[302]: Register in operand not in bank 0.  Ensure that bank bits are correct.
05D5   0CB5           01578         RRF             IRAM + 15
                      01579 
                      01580 
Message[305]: Using default destination of 1 (file).
Message[302]: Register in operand not in bank 0.  Ensure that bank bits are correct.
05D6   0CA1           01581         RRF             IRAM + 01
Message[305]: Using default destination of 1 (file).
Message[302]: Register in operand not in bank 0.  Ensure that bank bits are correct.
05D7   0CA5           01582         RRF             IRAM + 05
                      01583 
                      01584 
                      01585 
Message[305]: Using default destination of 1 (file).
Message[302]: Register in operand not in bank 0.  Ensure that bank bits are correct.
05D8   0CD0           01586         RRF             IRAM + 30
Message[305]: Using default destination of 1 (file).
Message[302]: Register in operand not in bank 0.  Ensure that bank bits are correct.
05D9   0CD4           01587         RRF             IRAM + 34
                      01588 
                      01589 
Message[305]: Using default destination of 1 (file).
Message[302]: Register in operand not in bank 0.  Ensure that bank bits are correct.
05DA   0CC0           01590         RRF             IRAM + 20
Message[305]: Using default destination of 1 (file).
Message[302]: Register in operand not in bank 0.  Ensure that bank bits are correct.
05DB   0CC4           01591         RRF             IRAM + 24
                      01592 
                      01593 
Message[305]: Using default destination of 1 (file).
Message[302]: Register in operand not in bank 0.  Ensure that bank bits are correct.
05DC   0CB0           01594         RRF             IRAM + 10
Message[305]: Using default destination of 1 (file).
Message[302]: Register in operand not in bank 0.  Ensure that bank bits are correct.
05DD   0CB4           01595         RRF             IRAM + 14
                      01596 
                      01597 
                      01598 
Message[305]: Using default destination of 1 (file).
Message[302]: Register in operand not in bank 0.  Ensure that bank bits are correct.
MPASM  5.51                     HUB12_SPI.ASM   6-13-2019  15:22:38         PAGE 40


LOC  OBJECT CODE     LINE SOURCE TEXT
  VALUE

05DE   0CA0           01599         RRF             IRAM + 00
Message[305]: Using default destination of 1 (file).
Message[302]: Register in operand not in bank 0.  Ensure that bank bits are correct.
05DF   0CA4           01600         RRF             IRAM + 04
                      01601 
                      01602 
Message[305]: Using default destination of 1 (file).
Message[302]: Register in operand not in bank 0.  Ensure that bank bits are correct.
05E0   0BE5           01603         DECFSZ  ISHCNT
05E1   2DD0           01604         GOTO    ISRC08
                      01605 
Warning[203]: Found opcode in column 1. (RETURN)
05E2   0008           01606 RETURN
                      01607 
05E3                  01608 IGRP_D
                      01609 
05E3   0000           01610         NOP
05E4   0000           01611         NOP
                      01612 
Warning[203]: Found opcode in column 1. (RETURN)
05E5   0008           01613 RETURN
                      01614 ;###############################################################
                      01615 
                      01616 
                      01617 
                      01618 
                      01619 
                      01620 
                      01621 
                      01622 ;#################      SHIFT X RIGHT ##############################
                      01623 
Warning[205]: Found directive in column 1. (ORG)
0600                  01624 ORG 0X600
0600                  01625 SHIFTR
0600   086F           01626         MOVFW   CURSORX
0601   0782           01627         ADDWF   PCL,F
                      01628         
                      01629 
0602   0008           01630                 RETURN;0
0603   2EB0           01631         GOTO    GRP_C;1
0604   2EB0           01632         GOTO    GRP_C;2
0605   2EB0           01633         GOTO    GRP_C;3
0606   2EB0           01634         GOTO    GRP_C;4
0607   2EB0           01635         GOTO    GRP_C;5
0608   2EB0           01636         GOTO    GRP_C;6
0609   2EB0           01637         GOTO    GRP_C;7
060A   2EB0           01638         GOTO    GRP_C;8
060B   2E6E           01639                 GOTO    GRP_B;9
060C   2E6E           01640         GOTO    GRP_B;10
060D   2E6E           01641         GOTO    GRP_B;11
060E   2E6E           01642         GOTO    GRP_B;12
060F   2E6E           01643         GOTO    GRP_B;13
0610   2E6E           01644         GOTO    GRP_B;14
MPASM  5.51                     HUB12_SPI.ASM   6-13-2019  15:22:38         PAGE 41


LOC  OBJECT CODE     LINE SOURCE TEXT
  VALUE

0611   2E6E           01645         GOTO    GRP_B;15
0612   2E6E           01646         GOTO    GRP_B;16
0613   2E1C           01647                 GOTO    GRP_A;17
0614   2E1C           01648         GOTO    GRP_A;18
0615   2E1C           01649         GOTO    GRP_A;19
0616   2E1C           01650         GOTO    GRP_A;20
0617   2E1C           01651         GOTO    GRP_A;21
0618   2E1C           01652         GOTO    GRP_A;22
0619   2E1C           01653         GOTO    GRP_A;23
061A   2E1C           01654         GOTO    GRP_A;24
061B   2E1C           01655         GOTO    GRP_A;25
                      01656 
061C                  01657 GRP_A
                      01658 ;--------------------
061C   086F           01659         MOVFW   CURSORX
061D   00ED           01660         MOVWF   SHCNT
                      01661 
061E   3001           01662         MOVLW   .1
061F   00F2           01663         MOVWF   TESTER
                      01664 
0620   0877           01665         MOVFW   ROW
0621   0272           01666         SUBWF   TESTER,W
0622   1903           01667         BTFSC   STATUS,Z
0623   2E4A           01668         GOTO    SRA08_R1
                      01669         
0624                  01670 SRA00
Warning[211]: Extraneous arguments on the line.
0624   1403           01671         SETC    1
Message[305]: Using default destination of 1 (file).
0625   0CDF           01672         RRF             DRAM + 33
Message[305]: Using default destination of 1 (file).
0626   0CE3           01673         RRF             DRAM + 37
Message[305]: Using default destination of 1 (file).
0627   0CE7           01674         RRF             DRAM + 3B
Message[305]: Using default destination of 1 (file).
0628   0CEB           01675         RRF             DRAM + 3F
                      01676 
Message[305]: Using default destination of 1 (file).
0629   0CCF           01677         RRF             DRAM + 23
Message[305]: Using default destination of 1 (file).
062A   0CD3           01678         RRF             DRAM + 27
Message[305]: Using default destination of 1 (file).
062B   0CD7           01679         RRF             DRAM + 2B
Message[305]: Using default destination of 1 (file).
062C   0CDB           01680         RRF             DRAM + 2F
                      01681 
Message[305]: Using default destination of 1 (file).
062D   0CBF           01682         RRF             DRAM + 13
Message[305]: Using default destination of 1 (file).
062E   0CC3           01683         RRF             DRAM + 17
Message[305]: Using default destination of 1 (file).
062F   0CC7           01684         RRF             DRAM + 1B
Message[305]: Using default destination of 1 (file).
MPASM  5.51                     HUB12_SPI.ASM   6-13-2019  15:22:38         PAGE 42


LOC  OBJECT CODE     LINE SOURCE TEXT
  VALUE

0630   0CCB           01685         RRF             DRAM + 1F
                      01686 
Message[305]: Using default destination of 1 (file).
0631   0CAF           01687         RRF             DRAM + 03
Message[305]: Using default destination of 1 (file).
0632   0CB3           01688         RRF             DRAM + 07
Message[305]: Using default destination of 1 (file).
0633   0CB7           01689         RRF             DRAM + 0B
Message[305]: Using default destination of 1 (file).
0634   0CBB           01690         RRF             DRAM + 0F
                      01691 
Message[305]: Using default destination of 1 (file).
0635   0CDE           01692         RRF             DRAM + 32
Message[305]: Using default destination of 1 (file).
0636   0CE2           01693         RRF             DRAM + 36
Message[305]: Using default destination of 1 (file).
0637   0CE6           01694         RRF             DRAM + 3A
Message[305]: Using default destination of 1 (file).
0638   0CEA           01695         RRF             DRAM + 3E
                      01696 
Message[305]: Using default destination of 1 (file).
0639   0CCE           01697         RRF             DRAM + 22
Message[305]: Using default destination of 1 (file).
063A   0CD2           01698         RRF             DRAM + 26
Message[305]: Using default destination of 1 (file).
063B   0CD6           01699         RRF             DRAM + 2A
Message[305]: Using default destination of 1 (file).
063C   0CDA           01700         RRF             DRAM + 2E
                      01701 
Message[305]: Using default destination of 1 (file).
063D   0CBE           01702         RRF             DRAM + 12
Message[305]: Using default destination of 1 (file).
063E   0CC2           01703         RRF             DRAM + 16
Message[305]: Using default destination of 1 (file).
063F   0CC6           01704         RRF             DRAM + 1A
Message[305]: Using default destination of 1 (file).
0640   0CCA           01705         RRF             DRAM + 1E
                      01706 
Message[305]: Using default destination of 1 (file).
0641   0CAE           01707         RRF             DRAM + 02
Message[305]: Using default destination of 1 (file).
0642   0CB2           01708         RRF             DRAM + 06
Message[305]: Using default destination of 1 (file).
0643   0CB6           01709         RRF             DRAM + 0A
Message[305]: Using default destination of 1 (file).
0644   0CBA           01710         RRF             DRAM + 0E
Message[305]: Using default destination of 1 (file).
0645   0BED           01711         DECFSZ  SHCNT
0646   2E24           01712         GOTO    SRA00
                      01713 
0647   086F           01714         MOVF    CURSORX,0
0648   00ED           01715         MOVWF   SHCNT
Warning[203]: Found opcode in column 1. (RETURN)
MPASM  5.51                     HUB12_SPI.ASM   6-13-2019  15:22:38         PAGE 43


LOC  OBJECT CODE     LINE SOURCE TEXT
  VALUE

0649   0008           01716 RETURN
064A                  01717 SRA08_R1
Warning[211]: Extraneous arguments on the line.
064A   1403           01718         SETC    1
064B                  01719 SRA08
Message[305]: Using default destination of 1 (file).
064B   0CDD           01720         RRF             DRAM + 31
Message[305]: Using default destination of 1 (file).
064C   0CE1           01721         RRF             DRAM + 35
Message[305]: Using default destination of 1 (file).
064D   0CE5           01722         RRF             DRAM + 39
Message[305]: Using default destination of 1 (file).
064E   0CE9           01723         RRF             DRAM + 3D
                      01724 
Message[305]: Using default destination of 1 (file).
064F   0CCD           01725         RRF             DRAM + 21
Message[305]: Using default destination of 1 (file).
0650   0CD1           01726         RRF             DRAM + 25
Message[305]: Using default destination of 1 (file).
0651   0CD5           01727         RRF             DRAM + 29
Message[305]: Using default destination of 1 (file).
0652   0CD9           01728         RRF             DRAM + 2D
                      01729 
Message[305]: Using default destination of 1 (file).
0653   0CBD           01730         RRF             DRAM + 11
Message[305]: Using default destination of 1 (file).
0654   0CC1           01731         RRF             DRAM + 15
Message[305]: Using default destination of 1 (file).
0655   0CC5           01732         RRF             DRAM + 19
Message[305]: Using default destination of 1 (file).
0656   0CC9           01733         RRF             DRAM + 1D
                      01734 
Message[305]: Using default destination of 1 (file).
0657   0CAD           01735         RRF             DRAM + 01
Message[305]: Using default destination of 1 (file).
0658   0CB1           01736         RRF             DRAM + 05
Message[305]: Using default destination of 1 (file).
0659   0CB5           01737         RRF             DRAM + 09
Message[305]: Using default destination of 1 (file).
065A   0CB9           01738         RRF             DRAM + 0D
                      01739 
Message[305]: Using default destination of 1 (file).
065B   0CDC           01740         RRF             DRAM + 30
Message[305]: Using default destination of 1 (file).
065C   0CE0           01741         RRF             DRAM + 34
Message[305]: Using default destination of 1 (file).
065D   0CE4           01742         RRF             DRAM + 38
Message[305]: Using default destination of 1 (file).
065E   0CE8           01743         RRF             DRAM + 3C
                      01744 
Message[305]: Using default destination of 1 (file).
065F   0CCC           01745         RRF             DRAM + 20
Message[305]: Using default destination of 1 (file).
MPASM  5.51                     HUB12_SPI.ASM   6-13-2019  15:22:38         PAGE 44


LOC  OBJECT CODE     LINE SOURCE TEXT
  VALUE

0660   0CD0           01746         RRF             DRAM + 24
Message[305]: Using default destination of 1 (file).
0661   0CD4           01747         RRF             DRAM + 28
Message[305]: Using default destination of 1 (file).
0662   0CD8           01748         RRF             DRAM + 2C
                      01749 
Message[305]: Using default destination of 1 (file).
0663   0CBC           01750         RRF             DRAM + 10
Message[305]: Using default destination of 1 (file).
0664   0CC0           01751         RRF             DRAM + 14
Message[305]: Using default destination of 1 (file).
0665   0CC4           01752         RRF             DRAM + 18
Message[305]: Using default destination of 1 (file).
0666   0CC8           01753         RRF             DRAM + 1C
                      01754 
Message[305]: Using default destination of 1 (file).
0667   0CAC           01755         RRF             DRAM + 00
Message[305]: Using default destination of 1 (file).
0668   0CB0           01756         RRF             DRAM + 04
Message[305]: Using default destination of 1 (file).
0669   0CB4           01757         RRF             DRAM + 08
Message[305]: Using default destination of 1 (file).
066A   0CB8           01758         RRF             DRAM + 0C
Message[305]: Using default destination of 1 (file).
066B   0BED           01759         DECFSZ  SHCNT
066C   2E4B           01760         GOTO    SRA08
                      01761 
Warning[203]: Found opcode in column 1. (RETURN)
066D   0008           01762 RETURN
                      01763 
066E                  01764 GRP_B
                      01765 
                      01766 ;--------------------
066E   086F           01767         MOVFW   CURSORX
066F   00ED           01768         MOVWF   SHCNT
                      01769 
0670   3001           01770         MOVLW   .1
0671   00F2           01771         MOVWF   TESTER
                      01772 
0672   0877           01773         MOVFW   ROW
0673   0272           01774         SUBWF   TESTER,W
0674   1903           01775         BTFSC   STATUS,Z
0675   2E95           01776         GOTO    SRB08
                      01777 
                      01778         
0676                  01779 SRB00
Warning[211]: Extraneous arguments on the line.
0676   1403           01780         SETC    1
Message[305]: Using default destination of 1 (file).
0677   0CDF           01781         RRF             DRAM + 33
Message[305]: Using default destination of 1 (file).
0678   0CE3           01782         RRF             DRAM + 37
Message[305]: Using default destination of 1 (file).
MPASM  5.51                     HUB12_SPI.ASM   6-13-2019  15:22:38         PAGE 45


LOC  OBJECT CODE     LINE SOURCE TEXT
  VALUE

0679   0CE7           01783         RRF             DRAM + 3B
                      01784 
Message[305]: Using default destination of 1 (file).
067A   0CCF           01785         RRF             DRAM + 23
Message[305]: Using default destination of 1 (file).
067B   0CD3           01786         RRF             DRAM + 27
Message[305]: Using default destination of 1 (file).
067C   0CD7           01787         RRF             DRAM + 2B
                      01788 
                      01789 
Message[305]: Using default destination of 1 (file).
067D   0CBF           01790         RRF             DRAM + 13
Message[305]: Using default destination of 1 (file).
067E   0CC3           01791         RRF             DRAM + 17
Message[305]: Using default destination of 1 (file).
067F   0CC7           01792         RRF             DRAM + 1B
                      01793 
                      01794 
Message[305]: Using default destination of 1 (file).
0680   0CAF           01795         RRF             DRAM + 03
Message[305]: Using default destination of 1 (file).
0681   0CB3           01796         RRF             DRAM + 07
Message[305]: Using default destination of 1 (file).
0682   0CB7           01797         RRF             DRAM + 0B
                      01798 
                      01799 
Message[305]: Using default destination of 1 (file).
0683   0CDE           01800         RRF             DRAM + 32
Message[305]: Using default destination of 1 (file).
0684   0CE2           01801         RRF             DRAM + 36
Message[305]: Using default destination of 1 (file).
0685   0CE6           01802         RRF             DRAM + 3A
                      01803 
                      01804 
Message[305]: Using default destination of 1 (file).
0686   0CCE           01805         RRF             DRAM + 22
Message[305]: Using default destination of 1 (file).
0687   0CD2           01806         RRF             DRAM + 26
Message[305]: Using default destination of 1 (file).
0688   0CD6           01807         RRF             DRAM + 2A
                      01808 
Message[305]: Using default destination of 1 (file).
0689   0CBE           01809         RRF             DRAM + 12
Message[305]: Using default destination of 1 (file).
068A   0CC2           01810         RRF             DRAM + 16
Message[305]: Using default destination of 1 (file).
068B   0CC6           01811         RRF             DRAM + 1A
                      01812 
                      01813 
Message[305]: Using default destination of 1 (file).
068C   0CAE           01814         RRF             DRAM + 02
Message[305]: Using default destination of 1 (file).
068D   0CB2           01815         RRF             DRAM + 06
MPASM  5.51                     HUB12_SPI.ASM   6-13-2019  15:22:38         PAGE 46


LOC  OBJECT CODE     LINE SOURCE TEXT
  VALUE

Message[305]: Using default destination of 1 (file).
068E   0CB6           01816         RRF             DRAM + 0A
                      01817 
Message[305]: Using default destination of 1 (file).
068F   0BED           01818         DECFSZ  SHCNT
0690   2E76           01819         GOTO    SRB00
                      01820 
0691   086F           01821         MOVF    CURSORX,0
0692   00ED           01822         MOVWF   SHCNT
Warning[203]: Found opcode in column 1. (RETURN)
0693   0008           01823 RETURN
0694                  01824 SRB08_R1
Warning[211]: Extraneous arguments on the line.
0694   1403           01825         SETC    1
0695                  01826 SRB08
Message[305]: Using default destination of 1 (file).
0695   0CDD           01827         RRF             DRAM + 31
Message[305]: Using default destination of 1 (file).
0696   0CE1           01828         RRF             DRAM + 35
Message[305]: Using default destination of 1 (file).
0697   0CE5           01829         RRF             DRAM + 39
                      01830 
Message[305]: Using default destination of 1 (file).
0698   0CCD           01831         RRF             DRAM + 21
Message[305]: Using default destination of 1 (file).
0699   0CD1           01832         RRF             DRAM + 25
Message[305]: Using default destination of 1 (file).
069A   0CD5           01833         RRF             DRAM + 29
                      01834 
                      01835 
Message[305]: Using default destination of 1 (file).
069B   0CBD           01836         RRF             DRAM + 11
Message[305]: Using default destination of 1 (file).
069C   0CC1           01837         RRF             DRAM + 15
Message[305]: Using default destination of 1 (file).
069D   0CC5           01838         RRF             DRAM + 19
                      01839 
                      01840 
                      01841 
Message[305]: Using default destination of 1 (file).
069E   0CAD           01842         RRF             DRAM + 01
Message[305]: Using default destination of 1 (file).
069F   0CB1           01843         RRF             DRAM + 05
Message[305]: Using default destination of 1 (file).
06A0   0CB5           01844         RRF             DRAM + 09
                      01845 
                      01846 
Message[305]: Using default destination of 1 (file).
06A1   0CDC           01847         RRF             DRAM + 30
Message[305]: Using default destination of 1 (file).
06A2   0CE0           01848         RRF             DRAM + 34
Message[305]: Using default destination of 1 (file).
06A3   0CE4           01849         RRF             DRAM + 38
MPASM  5.51                     HUB12_SPI.ASM   6-13-2019  15:22:38         PAGE 47


LOC  OBJECT CODE     LINE SOURCE TEXT
  VALUE

                      01850 
Message[305]: Using default destination of 1 (file).
06A4   0CCC           01851         RRF             DRAM + 20
Message[305]: Using default destination of 1 (file).
06A5   0CD0           01852         RRF             DRAM + 24
Message[305]: Using default destination of 1 (file).
06A6   0CD4           01853         RRF             DRAM + 28
                      01854 
                      01855 
Message[305]: Using default destination of 1 (file).
06A7   0CBC           01856         RRF             DRAM + 10
Message[305]: Using default destination of 1 (file).
06A8   0CC0           01857         RRF             DRAM + 14
Message[305]: Using default destination of 1 (file).
06A9   0CC4           01858         RRF             DRAM + 18
                      01859 
Message[305]: Using default destination of 1 (file).
06AA   0CAC           01860         RRF             DRAM + 00
Message[305]: Using default destination of 1 (file).
06AB   0CB0           01861         RRF             DRAM + 04
Message[305]: Using default destination of 1 (file).
06AC   0CB4           01862         RRF             DRAM + 08
                      01863 
Message[305]: Using default destination of 1 (file).
06AD   0BED           01864         DECFSZ  SHCNT
06AE   2E95           01865         GOTO    SRB08
                      01866 
Warning[203]: Found opcode in column 1. (RETURN)
06AF   0008           01867 RETURN
                      01868 
06B0                  01869 GRP_C
                      01870         ;--------------------
06B0   086F           01871         MOVFW   CURSORX
06B1   00ED           01872         MOVWF   SHCNT
                      01873 
06B2   3001           01874         MOVLW   .1
06B3   00F2           01875         MOVWF   TESTER
                      01876 
06B4   0877           01877         MOVFW   ROW
06B5   0272           01878         SUBWF   TESTER,W
06B6   1903           01879         BTFSC   STATUS,Z
06B7   2ECF           01880         GOTO    SRC08
                      01881 
                      01882 
                      01883         
06B8                  01884 SRC00
Warning[211]: Extraneous arguments on the line.
06B8   1403           01885         SETC    1
Message[305]: Using default destination of 1 (file).
06B9   0CDF           01886         RRF             DRAM + 33
Message[305]: Using default destination of 1 (file).
06BA   0CE3           01887         RRF             DRAM + 37
                      01888 
MPASM  5.51                     HUB12_SPI.ASM   6-13-2019  15:22:38         PAGE 48


LOC  OBJECT CODE     LINE SOURCE TEXT
  VALUE

                      01889 
Message[305]: Using default destination of 1 (file).
06BB   0CCF           01890         RRF             DRAM + 23
Message[305]: Using default destination of 1 (file).
06BC   0CD3           01891         RRF             DRAM + 27
                      01892 
                      01893 
                      01894 
Message[305]: Using default destination of 1 (file).
06BD   0CBF           01895         RRF             DRAM + 13
Message[305]: Using default destination of 1 (file).
06BE   0CC3           01896         RRF             DRAM + 17
                      01897 
                      01898 
                      01899 
Message[305]: Using default destination of 1 (file).
06BF   0CAF           01900         RRF             DRAM + 03
Message[305]: Using default destination of 1 (file).
06C0   0CB3           01901         RRF             DRAM + 07
                      01902 
                      01903 
                      01904 
Message[305]: Using default destination of 1 (file).
06C1   0CDE           01905         RRF             DRAM + 32
Message[305]: Using default destination of 1 (file).
06C2   0CE2           01906         RRF             DRAM + 36
                      01907 
                      01908 
                      01909 
Message[305]: Using default destination of 1 (file).
06C3   0CCE           01910         RRF             DRAM + 22
Message[305]: Using default destination of 1 (file).
06C4   0CD2           01911         RRF             DRAM + 26
                      01912 
                      01913 
Message[305]: Using default destination of 1 (file).
06C5   0CBE           01914         RRF             DRAM + 12
Message[305]: Using default destination of 1 (file).
06C6   0CC2           01915         RRF             DRAM + 16
                      01916 
                      01917 
Message[305]: Using default destination of 1 (file).
06C7   0CAE           01918         RRF             DRAM + 02
Message[305]: Using default destination of 1 (file).
06C8   0CB2           01919         RRF             DRAM + 06
                      01920 
                      01921 
Message[305]: Using default destination of 1 (file).
06C9   0BED           01922         DECFSZ  SHCNT
06CA   2EB8           01923         GOTO    SRC00
                      01924 
06CB   086F           01925         MOVF    CURSORX,0
06CC   00ED           01926         MOVWF   SHCNT
MPASM  5.51                     HUB12_SPI.ASM   6-13-2019  15:22:38         PAGE 49


LOC  OBJECT CODE     LINE SOURCE TEXT
  VALUE

Warning[203]: Found opcode in column 1. (RETURN)
06CD   0008           01927 RETURN
06CE                  01928 SRC08_R1
Warning[211]: Extraneous arguments on the line.
06CE   1403           01929         SETC    1
06CF                  01930 SRC08
Message[305]: Using default destination of 1 (file).
06CF   0CDD           01931         RRF             DRAM + 31
Message[305]: Using default destination of 1 (file).
06D0   0CE1           01932         RRF             DRAM + 35
                      01933 
                      01934 
                      01935 
Message[305]: Using default destination of 1 (file).
06D1   0CCD           01936         RRF             DRAM + 21
Message[305]: Using default destination of 1 (file).
06D2   0CD1           01937         RRF             DRAM + 25
                      01938 
                      01939 
                      01940 
Message[305]: Using default destination of 1 (file).
06D3   0CBD           01941         RRF             DRAM + 11
Message[305]: Using default destination of 1 (file).
06D4   0CC1           01942         RRF             DRAM + 15
                      01943 
                      01944 
Message[305]: Using default destination of 1 (file).
06D5   0CAD           01945         RRF             DRAM + 01
Message[305]: Using default destination of 1 (file).
06D6   0CB1           01946         RRF             DRAM + 05
                      01947 
                      01948 
                      01949 
Message[305]: Using default destination of 1 (file).
06D7   0CDC           01950         RRF             DRAM + 30
Message[305]: Using default destination of 1 (file).
06D8   0CE0           01951         RRF             DRAM + 34
                      01952 
                      01953 
Message[305]: Using default destination of 1 (file).
06D9   0CCC           01954         RRF             DRAM + 20
Message[305]: Using default destination of 1 (file).
06DA   0CD0           01955         RRF             DRAM + 24
                      01956 
                      01957 
Message[305]: Using default destination of 1 (file).
06DB   0CBC           01958         RRF             DRAM + 10
Message[305]: Using default destination of 1 (file).
06DC   0CC0           01959         RRF             DRAM + 14
                      01960 
                      01961 
Message[305]: Using default destination of 1 (file).
06DD   0CAC           01962         RRF             DRAM + 00
MPASM  5.51                     HUB12_SPI.ASM   6-13-2019  15:22:38         PAGE 50


LOC  OBJECT CODE     LINE SOURCE TEXT
  VALUE

Message[305]: Using default destination of 1 (file).
06DE   0CB0           01963         RRF             DRAM + 04
                      01964 
                      01965 
Message[305]: Using default destination of 1 (file).
06DF   0BED           01966         DECFSZ  SHCNT
06E0   2ECF           01967         GOTO    SRC08
                      01968 
Warning[203]: Found opcode in column 1. (RETURN)
06E1   0008           01969 RETURN
                      01970 
06E2                  01971 GRP_D
                      01972 
06E2   0000           01973         NOP
06E3   0000           01974         NOP
                      01975 
Warning[203]: Found opcode in column 1. (RETURN)
06E4   0008           01976 RETURN
                      01977 
                      01978 
                      01979 
Warning[205]: Found directive in column 1. (ORG)
0700                  01980 ORG 0X700
                      01981 
                      01982 ;########################### SHIFT LEFT ########################
0700                  01983 SHFTL
0700   30FF           01984         MOVLW           0XFF
0701   00AA           01985         MOVWF           TEMPFILE
                      01986 
0702   086D           01987         MOVFW           SHCNT
0703   00EE           01988         MOVWF           COUNT4
0704                  01989 SHFTL00 
Warning[211]: Extraneous arguments on the line.
0704   1403           01990         SETC            1
Message[305]: Using default destination of 1 (file).
0705   0D80           01991         RLF                     INDF
Message[305]: Using default destination of 1 (file).
0706   0DAA           01992         RLF                     TEMPFILE
0707   0BEE           01993         DECFSZ          COUNT4,F
0708   2F04           01994         GOTO            SHFTL00
                      01995 
0709   3004           01996         MOVLW           4
070A   0284           01997         SUBWF           FSR,F
070B   082A           01998         MOVFW           TEMPFILE
070C   0580           01999         ANDWF           INDF,F
                      02000 
                      02001         
                      02002         
                      02003         
Warning[203]: Found opcode in column 1. (RETURN)
070D   0008           02004 RETURN
                      02005 
070E                  02006 SHIFTL_GRPA
MPASM  5.51                     HUB12_SPI.ASM   6-13-2019  15:22:38         PAGE 51


LOC  OBJECT CODE     LINE SOURCE TEXT
  VALUE

                      02007 
070E                  02008 SHIFTL_GRPB
                      02009         
070E   0877           02010         MOVFW           ROW
070F   0782           02011         ADDWF           PCL,F
0710   2F12           02012         GOTO            SBR0
0711   2F15           02013         GOTO            SBR1
                      02014 
0712                  02015 SBR0
0712   3063           02016         MOVLW           63
0713   0084           02017         MOVWF           FSR
0714   2F17           02018         GOTO            SB_BEGIN
0715                  02019 SBR1
0715   3061           02020         MOVLW           61
0716   0084           02021         MOVWF           FSR
                      02022 
                      02023 
0717                  02024 SB_BEGIN
                      02025 
0717   3002           02026         MOVLW           2
0718   00A7           02027         MOVWF           COUNT2
0719                  02028 SB00
0719   3004           02029         MOVLW           4
071A   00A8           02030         MOVWF           COUNT3
071B                  02031 SB01
071B   2700           02032         CALL            SHFTL
071C   300C           02033         MOVLW           0X0C
                      02034 
071D   0284           02035         SUBWF           FSR,F
071E   0BA8           02036         DECFSZ          COUNT3,F
071F   2F1B           02037         GOTO            SB01
0720   303F           02038         MOVLW           0X3F
0721   0784           02039         ADDWF           FSR,F
0722   0BA7           02040         DECFSZ          COUNT2,F
0723   2F19           02041         GOTO            SB00
                      02042 
Warning[203]: Found opcode in column 1. (RETURN)
0724   0008           02043 RETURN
                      02044 
                      02045 
                      02046 
0725                  02047 SHIFTL_GRPC
                      02048 
0725   0877           02049         MOVFW           ROW
0726   0782           02050         ADDWF           PCL,F
0727   2F29           02051         GOTO            SCR0
0728   2F2C           02052         GOTO            SCR1
                      02053 
0729                  02054 SCR0
0729   3067           02055         MOVLW           67
072A   0084           02056         MOVWF           FSR
072B   2F2E           02057         GOTO            SC_BEGIN
072C                  02058 SCR1
MPASM  5.51                     HUB12_SPI.ASM   6-13-2019  15:22:38         PAGE 52


LOC  OBJECT CODE     LINE SOURCE TEXT
  VALUE

072C   3065           02059         MOVLW           65
072D   0084           02060         MOVWF           FSR
                      02061 
                      02062 
072E                  02063 SC_BEGIN
                      02064 
072E   3002           02065         MOVLW           2
072F   00A7           02066         MOVWF           COUNT2
0730                  02067 SC00
0730   3004           02068         MOVLW           4
0731   00A8           02069         MOVWF           COUNT3
0732                  02070 SC01
0732   2700           02071         CALL            SHFTL
0733   300C           02072         MOVLW           0X0C
                      02073 
0734   0284           02074         SUBWF           FSR,F
0735   0BA8           02075         DECFSZ          COUNT3,F
0736   2F32           02076         GOTO            SC01
0737   303F           02077         MOVLW           0X3F
0738   0784           02078         ADDWF           FSR,F
0739   0BA7           02079         DECFSZ          COUNT2,F
073A   2F30           02080         GOTO            SC00
                      02081 
Warning[203]: Found opcode in column 1. (RETURN)
073B   0008           02082 RETURN
                      02083 
073C                  02084 SHIFTL_GRPD
                      02085 
073C   0877           02086         MOVFW           ROW
073D   0782           02087         ADDWF           PCL,F
073E   2F40           02088         GOTO            SDR0
073F   2F43           02089         GOTO            SDR1
                      02090 
0740                  02091 SDR0
0740   306B           02092         MOVLW           6B
0741   0084           02093         MOVWF           FSR
0742   2F45           02094         GOTO            SD_BEGIN
0743                  02095 SDR1
0743   3069           02096         MOVLW           69
0744   0084           02097         MOVWF           FSR
                      02098 
                      02099 
0745                  02100 SD_BEGIN
                      02101 
0745   3002           02102         MOVLW           2
0746   00A7           02103         MOVWF           COUNT2
0747                  02104 SD00
0747   3004           02105         MOVLW           4
0748   00A8           02106         MOVWF           COUNT3
0749                  02107 SD01
0749   2700           02108         CALL            SHFTL
074A   300C           02109         MOVLW           0X0C
                      02110 
MPASM  5.51                     HUB12_SPI.ASM   6-13-2019  15:22:38         PAGE 53


LOC  OBJECT CODE     LINE SOURCE TEXT
  VALUE

074B   0284           02111         SUBWF           FSR,F
074C   0BA8           02112         DECFSZ          COUNT3,F
074D   2F49           02113         GOTO            SD01
074E   303F           02114         MOVLW           0X3F
074F   0784           02115         ADDWF           FSR,F
0750   0BA7           02116         DECFSZ          COUNT2,F
0751   2F47           02117         GOTO            SD00
                      02118 
Warning[203]: Found opcode in column 1. (RETURN)
0752   0008           02119 RETURN
                      02120 ;###############################################################
                      02121 
                      02122 
                      02123 
                      02124 
                      02125 
                      02126 ;#################      SHIFT Y UPWARD ###############################
0753                  02127 SHIFT_YU
                      02128         
                      02129 
0753   0870           02130         MOVFW   CURSORY
0754   1903           02131         BTFSC   STATUS,Z
0755   0008           02132         RETURN
                      02133         
0756   1283 1303      02134         BANK0
0758   0870           02135         MOVFW   CURSORY
0759   00EC           02136         MOVWF   POINTER
075A                  02137 YU0
075A   085F           02138         MOVFW   DRAM + 33
075B   00AA           02139         MOVWF   TEMPFILE
                      02140         
075C   084F           02141         MOVFW   DRAM + 23
075D   00DF           02142         MOVWF   DRAM + 33
                      02143 
075E   083F           02144         MOVFW   DRAM + 13
075F   00CF           02145         MOVWF   DRAM + 23
                      02146 
0760   082F           02147         MOVFW   DRAM + 03
0761   00BF           02148         MOVWF   DRAM + 13
                      02149 
0762   085E           02150         MOVFW   DRAM + 32
0763   00AF           02151         MOVWF   DRAM + 03
                      02152 
0764   084E           02153         MOVFW   DRAM + 22
0765   00DE           02154         MOVWF   DRAM + 32
                      02155 
0766   083E           02156         MOVFW   DRAM + 12
0767   00CE           02157         MOVWF   DRAM + 22
                      02158 
0768   082E           02159         MOVFW   DRAM + 02
0769   00BE           02160         MOVWF   DRAM + 12
                      02161 
076A   085D           02162         MOVFW   DRAM + 31
MPASM  5.51                     HUB12_SPI.ASM   6-13-2019  15:22:38         PAGE 54


LOC  OBJECT CODE     LINE SOURCE TEXT
  VALUE

076B   00AE           02163         MOVWF   DRAM + 02
                      02164 
076C   084D           02165         MOVFW   DRAM + 21
076D   00DD           02166         MOVWF   DRAM + 31
                      02167 
076E   083D           02168         MOVFW   DRAM + 11
076F   00CD           02169         MOVWF   DRAM + 21
                      02170 
0770   082D           02171         MOVFW   DRAM + 01
0771   00BD           02172         MOVWF   DRAM + 11
                      02173 
0772   085C           02174         MOVFW   DRAM + 30
0773   00AD           02175         MOVWF   DRAM + 01
                      02176 
0774   084C           02177         MOVFW   DRAM + 20
0775   00DC           02178         MOVWF   DRAM + 30
                      02179 
0776   083C           02180         MOVFW   DRAM + 10
0777   00CC           02181         MOVWF   DRAM + 20
                      02182 
0778   082C           02183         MOVFW   DRAM + 00
0779   00BC           02184         MOVWF   DRAM + 10
                      02185         
077A   30FF           02186         MOVLW   0XFF
077B   00AC           02187         MOVWF   DRAM+00
                      02188 
                      02189 
077C   0BEC           02190         DECFSZ  POINTER,F
077D   2F5A           02191         GOTO    YU0
                      02192 
077E   3002           02193         MOVLW   .2
077F   00F2           02194         MOVWF   TESTER
                      02195 
0780   082B           02196         MOVFW   FONT
0781   0272           02197         SUBWF   TESTER,W
0782   1D03           02198         BTFSS   STATUS,Z
0783   0008           02199         RETURN
                      02200 
0784   3009           02201         MOVLW   .9
0785   008A           02202         MOVWF   PCLATH
                      02203 
Message[306]: Crossing page boundary -- ensure page bits are set.
0786   2016           02204         CALL    SHIFT_YUB
                      02205 
0787   3009           02206         MOVLW   9
0788   008A           02207         MOVWF   PCLATH
                      02208         
                      02209 
                      02210         
                      02211 
Warning[203]: Found opcode in column 1. (RETURN)
0789   0008           02212 RETURN
                      02213 ;#################################################################
MPASM  5.51                     HUB12_SPI.ASM   6-13-2019  15:22:38         PAGE 55


LOC  OBJECT CODE     LINE SOURCE TEXT
  VALUE

                      02214 
                      02215 
                      02216 
                      02217 
                      02218 
                      02219 ;###################  DUMPING OF DATA IN IRAM ##################
                      02220 
078A                  02221 IDUMP
078A   3000           02222         MOVLW   .0
078B   00F4           02223         MOVWF   BTCOUNT
                      02224                 
078C   1283 1303      02225         BANK0
078E   082B           02226         MOVFW   FONT
078F   0782           02227         ADDWF   PCL,F
                      02228 
0790   2F93           02229         GOTO    IFONT_0
                      02230         
0791   2FAB           02231         GOTO    IFONT_1
                      02232         
0792   2FC5           02233         GOTO    IFONT_2
                      02234 
                      02235 
                      02236 
0793                  02237 IFONT_0
0793   1683 1303      02238         BANK1
                      02239 
0795   3001           02240         MOVLW   1
0796   008A           02241         MOVWF   PCLATH
0797   21AE           02242         CALL    CHAR
Message[302]: Register in operand not in bank 0.  Ensure that bank bits are correct.
0798   00E1           02243         MOVWF   IWIDTH
Message[305]: Using default destination of 1 (file).
0799   0AF4           02244         INCF    BTCOUNT
                      02245 
079A   30D3           02246         MOVLW   0XD3
079B   0084           02247         MOVWF   FSR
079C   24B8           02248         CALL    DMP_FONT0
                      02249         
079D   30D2           02250         MOVLW   0XD2
079E   0084           02251         MOVWF   FSR
079F   24B8           02252         CALL    DMP_FONT0
                      02253 
07A0   30D1           02254         MOVLW   0XD1
07A1   0084           02255         MOVWF   FSR
07A2   24B8           02256         CALL    DMP_FONT0
                      02257 
07A3   30D0           02258         MOVLW   0XD0
07A4   0084           02259         MOVWF   FSR
07A5   24B8           02260         CALL    DMP_FONT0
                      02261 
07A6   3000           02262         MOVLW   .0                      ;BACK TO PAGE1
07A7   008A           02263         MOVWF   PCLATH
07A8   1283 1303      02264         BANK0
MPASM  5.51                     HUB12_SPI.ASM   6-13-2019  15:22:38         PAGE 56


LOC  OBJECT CODE     LINE SOURCE TEXT
  VALUE

Warning[203]: Found opcode in column 1. (RETURN)
07AA   0008           02265 RETURN
                      02266 
07AB                  02267 IFONT_1
                      02268         
07AB   3000           02269         MOVLW   .0                      ;BACK TO PAGE1
07AC   008A           02270         MOVWF   PCLATH
07AD   1283 1303      02271         BANK0
07AF   0008           02272         RETURN
                      02273 ;###################### PLACING DISPLAY NUM ####################
07B0                  02274 PUTNUM
07B0   3004           02275         MOVLW   4
07B1   008A           02276         MOVWF   PCLATH
                      02277         
07B2   2499           02278         CALL    DUMP
                      02279         
07B3   3007           02280         MOVLW   7
07B4   008A           02281         MOVWF   PCLATH
                      02282 
07B5   2753           02283         CALL    SHIFT_YU
                      02284         
                      02285 
07B6   3000           02286         MOVLW   0
07B7   00F7           02287         MOVWF   ROW
                      02288 
07B8   3006           02289         MOVLW   6
07B9   008A           02290         MOVWF   PCLATH
                      02291         
07BA   2600           02292         CALL    SHIFTR
                      02293         
07BB   3000           02294         MOVLW   0
07BC   008A           02295         MOVWF   PCLATH
                      02296         
07BD   3001           02297         MOVLW   1
07BE   00F7           02298         MOVWF   ROW
                      02299 
07BF   3006           02300         MOVLW   6
07C0   008A           02301         MOVWF   PCLATH
                      02302         
07C1   2600           02303         CALL    SHIFTR
                      02304         
07C2   3000           02305         MOVLW   0
07C3   008A           02306         MOVWF   PCLATH
Warning[203]: Found opcode in column 1. (RETURN)
07C4   0008           02307 RETURN
                      02308 
07C5                  02309 IFONT_2
07C5   1683 1303      02310         BANK1
                      02311 
07C7   3003           02312         MOVLW   3
07C8   008A           02313         MOVWF   PCLATH
07C9   2300           02314         CALL    T_CHAR
Message[302]: Register in operand not in bank 0.  Ensure that bank bits are correct.
MPASM  5.51                     HUB12_SPI.ASM   6-13-2019  15:22:38         PAGE 57


LOC  OBJECT CODE     LINE SOURCE TEXT
  VALUE

07CA   00E1           02315         MOVWF   IWIDTH
Message[305]: Using default destination of 1 (file).
07CB   0AF4           02316         INCF    BTCOUNT
                      02317 
07CC   30D3           02318         MOVLW   0XD3
07CD   0084           02319         MOVWF   FSR
07CE   3004           02320         MOVLW   4
07CF   008A           02321         MOVWF   PCLATH
07D0   24C7           02322         CALL    DMP_FONT2
                      02323         
07D1   30D2           02324         MOVLW   0XD2
07D2   0084           02325         MOVWF   FSR
07D3   3004           02326         MOVLW   4
07D4   008A           02327         MOVWF   PCLATH
07D5   24C7           02328         CALL    DMP_FONT2
                      02329 
07D6   30D1           02330         MOVLW   0XD1
07D7   0084           02331         MOVWF   FSR
07D8   3004           02332         MOVLW   4
07D9   008A           02333         MOVWF   PCLATH
07DA   24C7           02334         CALL    DMP_FONT2
                      02335 
07DB   30D0           02336         MOVLW   0XD0
07DC   0084           02337         MOVWF   FSR
07DD   3004           02338         MOVLW   4
07DE   008A           02339         MOVWF   PCLATH
07DF   24C7           02340         CALL    DMP_FONT2
                      02341 
07E0   3000           02342         MOVLW   .0                      ;BACK TO PAGE1
07E1   008A           02343         MOVWF   PCLATH
07E2   1283 1303      02344         BANK0
Warning[203]: Found opcode in column 1. (RETURN)
07E4   0008           02345 RETURN
                      02346 
                      02347 ;###############################################################
                      02348 
Warning[205]: Found directive in column 1. (ORG)
0800                  02349 ORG     0X800
                      02350 
0800                  02351 IPUTNUM
0800   3007           02352         MOVLW   7
0801   008A           02353         MOVWF   PCLATH
                      02354         
Message[306]: Crossing page boundary -- ensure page bits are set.
0802   278A           02355         CALL    IDUMP
                      02356         
0803   1683 1303      02357         BANK1
0805   3000           02358         MOVLW   0
Message[302]: Register in operand not in bank 0.  Ensure that bank bits are correct.
0806   00E6           02359         MOVWF   IROW
                      02360 
0807   3005           02361         MOVLW   5
0808   008A           02362         MOVWF   PCLATH
MPASM  5.51                     HUB12_SPI.ASM   6-13-2019  15:22:38         PAGE 58


LOC  OBJECT CODE     LINE SOURCE TEXT
  VALUE

                      02363         
Message[306]: Crossing page boundary -- ensure page bits are set.
0809   2500           02364         CALL    ISHIFTR
                      02365         
080A   3000           02366         MOVLW   0
080B   008A           02367         MOVWF   PCLATH
                      02368         
080C   1683 1303      02369         BANK1
080E   3001           02370         MOVLW   1
Message[302]: Register in operand not in bank 0.  Ensure that bank bits are correct.
080F   00E6           02371         MOVWF   IROW
                      02372 
0810   3005           02373         MOVLW   5
0811   008A           02374         MOVWF   PCLATH
                      02375         
Message[306]: Crossing page boundary -- ensure page bits are set.
0812   2500           02376         CALL    ISHIFTR
                      02377         
0813   3000           02378         MOVLW   0
0814   008A           02379         MOVWF   PCLATH
Warning[203]: Found opcode in column 1. (RETURN)
0815   0008           02380 RETURN
                      02381 ;###############################################################
                      02382 
0816                  02383 SHIFT_YUB
0816   1283 1303      02384         BANK0
0818   0870           02385         MOVFW   CURSORY
0819   00EC           02386         MOVWF   POINTER
081A                  02387 YU1
081A   0863           02388         MOVFW   DRAM + 37
081B   00F9           02389         MOVWF   TEMPFILEB
                      02390         
081C   0853           02391         MOVFW   DRAM + 27
081D   00E3           02392         MOVWF   DRAM + 37
                      02393 
081E   0843           02394         MOVFW   DRAM + 17
081F   00D3           02395         MOVWF   DRAM + 27
                      02396 
0820   0833           02397         MOVFW   DRAM + 07
0821   00C3           02398         MOVWF   DRAM + 17
                      02399 
0822   0862           02400         MOVFW   DRAM + 36
0823   00B3           02401         MOVWF   DRAM + 07
                      02402 
0824   0852           02403         MOVFW   DRAM + 26
0825   00E2           02404         MOVWF   DRAM + 36
                      02405 
0826   0842           02406         MOVFW   DRAM + 16
0827   00D2           02407         MOVWF   DRAM + 26
                      02408 
0828   0832           02409         MOVFW   DRAM + 06
0829   00C2           02410         MOVWF   DRAM + 16
                      02411 
MPASM  5.51                     HUB12_SPI.ASM   6-13-2019  15:22:38         PAGE 59


LOC  OBJECT CODE     LINE SOURCE TEXT
  VALUE

082A   0861           02412         MOVFW   DRAM + 35
082B   00B2           02413         MOVWF   DRAM + 06
                      02414 
082C   0851           02415         MOVFW   DRAM + 25
082D   00E1           02416         MOVWF   DRAM + 35
                      02417 
082E   0841           02418         MOVFW   DRAM + 15
082F   00D1           02419         MOVWF   DRAM + 25
                      02420 
0830   0831           02421         MOVFW   DRAM + 05
0831   00C1           02422         MOVWF   DRAM + 15
                      02423 
0832   0860           02424         MOVFW   DRAM + 34
0833   00B1           02425         MOVWF   DRAM + 05
                      02426 
0834   0850           02427         MOVFW   DRAM + 24
0835   00E0           02428         MOVWF   DRAM + 34
                      02429 
0836   0840           02430         MOVFW   DRAM + 14
0837   00D0           02431         MOVWF   DRAM + 24
                      02432 
0838   0830           02433         MOVFW   DRAM + 04
0839   00C0           02434         MOVWF   DRAM + 14
                      02435         
083A   30FF           02436         MOVLW   0XFF
083B   00B0           02437         MOVWF   DRAM+04
                      02438 
                      02439 
083C   0BEC           02440         DECFSZ  POINTER,F
083D   281A           02441         GOTO    YU1
                      02442 
Warning[203]: Found opcode in column 1. (RETURN)
083E   0008           02443 RETURN
                      02444 ;###############################################################
                      02445 
                      02446 ;##################     IRAM SHIFT LEFT ############################
083F                  02447 ISHIFTL
083F                  02448 ISHFTL
083F   1683 1303      02449         BANK1
0841   30FF           02450         MOVLW           0XFF
Message[302]: Register in operand not in bank 0.  Ensure that bank bits are correct.
0842   00E8           02451         MOVWF           ITEMPFILE
                      02452 
Message[302]: Register in operand not in bank 0.  Ensure that bank bits are correct.
0843   0865           02453         MOVFW           ISHCNT
Message[302]: Register in operand not in bank 0.  Ensure that bank bits are correct.
0844   00ED           02454         MOVWF           ICOUNT4
0845                  02455 ISHFTL00        
Warning[211]: Extraneous arguments on the line.
0845   1403           02456         SETC            1
Message[305]: Using default destination of 1 (file).
0846   0D80           02457         RLF                     INDF
Message[305]: Using default destination of 1 (file).
MPASM  5.51                     HUB12_SPI.ASM   6-13-2019  15:22:38         PAGE 60


LOC  OBJECT CODE     LINE SOURCE TEXT
  VALUE

0847   0DAA           02458         RLF                     TEMPFILE
Message[302]: Register in operand not in bank 0.  Ensure that bank bits are correct.
0848   0BED           02459         DECFSZ          ICOUNT4,F
0849   2845           02460         GOTO            ISHFTL00
                      02461 
084A   3004           02462         MOVLW           4
084B   0284           02463         SUBWF           FSR,F
084C   082A           02464         MOVFW           TEMPFILE
084D   0580           02465         ANDWF           INDF,F
                      02466 
                      02467         
                      02468         
                      02469         
Warning[203]: Found opcode in column 1. (RETURN)
084E   0008           02470 RETURN
                      02471 
084F                  02472 ISHIFTL_GRPA
                      02473 
084F                  02474 ISHIFTL_GRPB
                      02475         
Message[302]: Register in operand not in bank 0.  Ensure that bank bits are correct.
084F   0866           02476         MOVFW           IROW
0850   0782           02477         ADDWF           PCL,F
0851   2853           02478         GOTO            ISBR0
0852   2856           02479         GOTO            ISBR1
                      02480 
0853                  02481 ISBR0
0853   30D7           02482         MOVLW           0XD7
0854   0084           02483         MOVWF           FSR
0855   2858           02484         GOTO            ISB_BEGIN
0856                  02485 ISBR1
0856   30D5           02486         MOVLW           0XD5
0857   0084           02487         MOVWF           FSR
                      02488 
                      02489 
0858                  02490 ISB_BEGIN
                      02491 
0858   3002           02492         MOVLW           2
Message[302]: Register in operand not in bank 0.  Ensure that bank bits are correct.
0859   00EB           02493         MOVWF           ICOUNT2
085A                  02494 ISB00
085A   3004           02495         MOVLW           4
Message[302]: Register in operand not in bank 0.  Ensure that bank bits are correct.
085B   00EC           02496         MOVWF           ICOUNT3
085C                  02497 ISB01
085C   203F           02498         CALL            ISHFTL
085D   300C           02499         MOVLW           0X0C
                      02500 
085E   0284           02501         SUBWF           FSR,F
Message[302]: Register in operand not in bank 0.  Ensure that bank bits are correct.
085F   0BEC           02502         DECFSZ          ICOUNT3,F
0860   285C           02503         GOTO            ISB01
0861   303F           02504         MOVLW           0X3F
MPASM  5.51                     HUB12_SPI.ASM   6-13-2019  15:22:38         PAGE 61


LOC  OBJECT CODE     LINE SOURCE TEXT
  VALUE

0862   0784           02505         ADDWF           FSR,F
Message[302]: Register in operand not in bank 0.  Ensure that bank bits are correct.
0863   0BEB           02506         DECFSZ          ICOUNT2,F
0864   285A           02507         GOTO            ISB00
Warning[203]: Found opcode in column 1. (RETURN)
0865   0008           02508 RETURN
                      02509 
0866                  02510 ISHIFTL_GRPC
                      02511         
Message[302]: Register in operand not in bank 0.  Ensure that bank bits are correct.
0866   0866           02512         MOVFW           IROW
0867   0782           02513         ADDWF           PCL,F
0868   286A           02514         GOTO            ISCR0
0869   286D           02515         GOTO            ISCR1
                      02516 
086A                  02517 ISCR0
086A   30DB           02518         MOVLW           0XDB
086B   0084           02519         MOVWF           FSR
086C   286F           02520         GOTO            ISC_BEGIN
086D                  02521 ISCR1
086D   30D9           02522         MOVLW           0XD9
086E   0084           02523         MOVWF           FSR
                      02524 
                      02525 
086F                  02526 ISC_BEGIN
                      02527 
086F   3002           02528         MOVLW           2
Message[302]: Register in operand not in bank 0.  Ensure that bank bits are correct.
0870   00EB           02529         MOVWF           ICOUNT2
0871                  02530 ISC00
0871   3004           02531         MOVLW           4
Message[302]: Register in operand not in bank 0.  Ensure that bank bits are correct.
0872   00EC           02532         MOVWF           ICOUNT3
0873                  02533 ISC01
0873   203F           02534         CALL            ISHFTL
0874   300C           02535         MOVLW           0X0C
                      02536 
0875   0284           02537         SUBWF           FSR,F
Message[302]: Register in operand not in bank 0.  Ensure that bank bits are correct.
0876   0BEC           02538         DECFSZ          ICOUNT3,F
0877   2873           02539         GOTO            ISC01
0878   303F           02540         MOVLW           0X3F
0879   0784           02541         ADDWF           FSR,F
Message[302]: Register in operand not in bank 0.  Ensure that bank bits are correct.
087A   0BEB           02542         DECFSZ          ICOUNT2,F
087B   2871           02543         GOTO            ISC00
Warning[203]: Found opcode in column 1. (RETURN)
087C   0008           02544 RETURN
                      02545 
087D                  02546 ISHIFTL_GRPD
                      02547         
Message[302]: Register in operand not in bank 0.  Ensure that bank bits are correct.
087D   0866           02548         MOVFW           IROW
MPASM  5.51                     HUB12_SPI.ASM   6-13-2019  15:22:38         PAGE 62


LOC  OBJECT CODE     LINE SOURCE TEXT
  VALUE

087E   0782           02549         ADDWF           PCL,F
087F   2881           02550         GOTO            ISDR0
0880   2884           02551         GOTO            ISDR1
                      02552 
0881                  02553 ISDR0
0881   30DF           02554         MOVLW           0XDF
0882   0084           02555         MOVWF           FSR
0883   2886           02556         GOTO            ISD_BEGIN
0884                  02557 ISDR1
0884   30DD           02558         MOVLW           0XDD
0885   0084           02559         MOVWF           FSR
                      02560 
                      02561 
0886                  02562 ISD_BEGIN
                      02563 
0886   3002           02564         MOVLW           2
Message[302]: Register in operand not in bank 0.  Ensure that bank bits are correct.
0887   00EB           02565         MOVWF           ICOUNT2
0888                  02566 ISD00
0888   3004           02567         MOVLW           4
Message[302]: Register in operand not in bank 0.  Ensure that bank bits are correct.
0889   00EC           02568         MOVWF           ICOUNT3
088A                  02569 ISD01
088A   203F           02570         CALL            ISHFTL
088B   300C           02571         MOVLW           0X0C
                      02572 
088C   0284           02573         SUBWF           FSR,F
Message[302]: Register in operand not in bank 0.  Ensure that bank bits are correct.
088D   0BEC           02574         DECFSZ          ICOUNT3,F
088E   288A           02575         GOTO            ISD01
088F   303F           02576         MOVLW           0X3F
0890   0784           02577         ADDWF           FSR,F
Message[302]: Register in operand not in bank 0.  Ensure that bank bits are correct.
0891   0BEB           02578         DECFSZ          ICOUNT2,F
0892   2888           02579         GOTO            ISD00
Warning[203]: Found opcode in column 1. (RETURN)
0893   0008           02580 RETURN
                      02581 
                      02582 
Warning[203]: Found opcode in column 1. (RETURN)
0894   0008           02583 RETURN
                      02584 ;###############################################################
                      02585 
Warning[203]: Found opcode in column 1. (RETURN)
0895   0008           02586 RETURN
                      02587 
                      02588 
                      02589 
Warning[205]: Found directive in column 1. (ORG)
0A00                  02590 ORG 0XA00
                      02591         
                      02592 ;############## DRAM SHIFT Y DOWN GROUPA #######################
0A00                  02593 DSHIFT_DOWN_GRPA
MPASM  5.51                     HUB12_SPI.ASM   6-13-2019  15:22:38         PAGE 63


LOC  OBJECT CODE     LINE SOURCE TEXT
  VALUE

0A00   1283 1303      02594         BANK0
0A02   083C           02595         MOVFW   DRAM+10
0A03   00AC           02596         MOVWF   DRAM+00
                      02597 
0A04   084C           02598         MOVFW   DRAM+20
0A05   00BC           02599         MOVWF   DRAM+10
                      02600 
0A06   085C           02601         MOVFW   DRAM+30
0A07   00CC           02602         MOVWF   DRAM+20
                      02603 
0A08   082D           02604         MOVFW   DRAM+01
0A09   00DC           02605         MOVWF   DRAM+30
                      02606 
0A0A   083D           02607         MOVFW   DRAM+11
0A0B   00AD           02608         MOVWF   DRAM+01
                      02609 
0A0C   084D           02610         MOVFW   DRAM+21
0A0D   00BD           02611         MOVWF   DRAM+11
                      02612 
0A0E   085D           02613         MOVFW   DRAM+31
0A0F   00CD           02614         MOVWF   DRAM+21
                      02615 
0A10   082E           02616         MOVFW   DRAM+02
0A11   00DD           02617         MOVWF   DRAM+31
                      02618 
0A12   083E           02619         MOVFW   DRAM+12
0A13   00AE           02620         MOVWF   DRAM+02
                      02621 
0A14   084E           02622         MOVFW   DRAM+22
0A15   00BE           02623         MOVWF   DRAM+12
                      02624 
0A16   085E           02625         MOVFW   DRAM+32
0A17   00CE           02626         MOVWF   DRAM+22
                      02627 
0A18   082F           02628         MOVFW   DRAM+03
0A19   00DE           02629         MOVWF   DRAM+32
                      02630 
0A1A   083F           02631         MOVFW   DRAM+13
0A1B   00AF           02632         MOVWF   DRAM+03
                      02633 
0A1C   084F           02634         MOVFW   DRAM+23
0A1D   00BF           02635         MOVWF   DRAM+13
                      02636 
0A1E   085F           02637         MOVFW   DRAM+33
0A1F   00CF           02638         MOVWF   DRAM+23
                      02639 
0A20   082A           02640         MOVFW   TEMPFILE
0A21   00DF           02641         MOVWF   DRAM+33
Warning[203]: Found opcode in column 1. (RETURN)
0A22   0008           02642 RETURN
                      02643 
                      02644 ;############## DRAM SHIFT Y DOWN GROUPB #############
0A23                  02645 DSHIFT_DOWN_GRPB
MPASM  5.51                     HUB12_SPI.ASM   6-13-2019  15:22:38         PAGE 64


LOC  OBJECT CODE     LINE SOURCE TEXT
  VALUE

0A23   1283 1303      02646         BANK0
0A25   0840           02647         MOVFW   DRAM+14
0A26   00B0           02648         MOVWF   DRAM+04
                      02649 
0A27   0850           02650         MOVFW   DRAM+24
0A28   00C0           02651         MOVWF   DRAM+14
                      02652 
0A29   0860           02653         MOVFW   DRAM+34
0A2A   00D0           02654         MOVWF   DRAM+24
                      02655 
0A2B   0831           02656         MOVFW   DRAM+05
0A2C   00E0           02657         MOVWF   DRAM+34
                      02658 
0A2D   0841           02659         MOVFW   DRAM+15
0A2E   00B1           02660         MOVWF   DRAM+05
                      02661 
0A2F   0851           02662         MOVFW   DRAM+25
0A30   00C1           02663         MOVWF   DRAM+15
                      02664 
0A31   0861           02665         MOVFW   DRAM+35
0A32   00D1           02666         MOVWF   DRAM+25
                      02667 
0A33   0832           02668         MOVFW   DRAM+06
0A34   00E1           02669         MOVWF   DRAM+35
                      02670 
0A35   0842           02671         MOVFW   DRAM+16
0A36   00B2           02672         MOVWF   DRAM+06
                      02673 
0A37   0852           02674         MOVFW   DRAM+26
0A38   00C2           02675         MOVWF   DRAM+16
                      02676 
0A39   0862           02677         MOVFW   DRAM+36
0A3A   00D2           02678         MOVWF   DRAM+26
                      02679 
0A3B   0833           02680         MOVFW   DRAM+07
0A3C   00E2           02681         MOVWF   DRAM+36
                      02682 
0A3D   0843           02683         MOVFW   DRAM+17
0A3E   00B3           02684         MOVWF   DRAM+07
                      02685 
0A3F   0853           02686         MOVFW   DRAM+27
0A40   00C3           02687         MOVWF   DRAM+17
                      02688 
0A41   0863           02689         MOVFW   DRAM+37
0A42   00D3           02690         MOVWF   DRAM+27
                      02691 
0A43   0879           02692         MOVFW   TEMPFILEB
0A44   00E3           02693         MOVWF   DRAM+37
Warning[203]: Found opcode in column 1. (RETURN)
0A45   0008           02694 RETURN
                      02695 
                      02696 ;############## DRAM SHIFT Y DOWN GROUPC #############
0A46                  02697 DSHIFT_DOWN_GRPC
MPASM  5.51                     HUB12_SPI.ASM   6-13-2019  15:22:38         PAGE 65


LOC  OBJECT CODE     LINE SOURCE TEXT
  VALUE

0A46   1283 1303      02698         BANK0
0A48   0844           02699         MOVFW   DRAM+18
0A49   00B4           02700         MOVWF   DRAM+08
                      02701 
0A4A   0854           02702         MOVFW   DRAM+28
0A4B   00C4           02703         MOVWF   DRAM+18
                      02704 
0A4C   0864           02705         MOVFW   DRAM+38
0A4D   00D4           02706         MOVWF   DRAM+28
                      02707 
0A4E   0835           02708         MOVFW   DRAM+09
0A4F   00E4           02709         MOVWF   DRAM+38
                      02710 
0A50   0845           02711         MOVFW   DRAM+19
0A51   00B5           02712         MOVWF   DRAM+09
                      02713 
0A52   0855           02714         MOVFW   DRAM+29
0A53   00C5           02715         MOVWF   DRAM+19
                      02716 
0A54   0865           02717         MOVFW   DRAM+39
0A55   00D5           02718         MOVWF   DRAM+29
                      02719 
0A56   0836           02720         MOVFW   DRAM+0A
0A57   00E5           02721         MOVWF   DRAM+39
                      02722 
0A58   0846           02723         MOVFW   DRAM+1A
0A59   00B6           02724         MOVWF   DRAM+0A
                      02725 
0A5A   0856           02726         MOVFW   DRAM+2A
0A5B   00C6           02727         MOVWF   DRAM+1A
                      02728 
0A5C   0866           02729         MOVFW   DRAM+3A
0A5D   00D6           02730         MOVWF   DRAM+2A
                      02731 
0A5E   0837           02732         MOVFW   DRAM+0B
0A5F   00E6           02733         MOVWF   DRAM+3A
                      02734 
0A60   0847           02735         MOVFW   DRAM+1B
0A61   00B7           02736         MOVWF   DRAM+0B
                      02737 
0A62   0857           02738         MOVFW   DRAM+2B
0A63   00C7           02739         MOVWF   DRAM+1B
                      02740 
0A64   0867           02741         MOVFW   DRAM+3B
0A65   00D7           02742         MOVWF   DRAM+2B
                      02743 
0A66   087A           02744         MOVFW   TEMPFILEC
0A67   00E7           02745         MOVWF   DRAM+3B
Warning[203]: Found opcode in column 1. (RETURN)
0A68   0008           02746 RETURN
                      02747 
                      02748 ;############## DRAM SHIFT Y DOWN GROUPD #############
0A69                  02749 DSHIFT_DOWN_GRPD
MPASM  5.51                     HUB12_SPI.ASM   6-13-2019  15:22:38         PAGE 66


LOC  OBJECT CODE     LINE SOURCE TEXT
  VALUE

0A69   1283 1303      02750         BANK0
0A6B   0848           02751         MOVFW   DRAM+1C
0A6C   00B8           02752         MOVWF   DRAM+0C
                      02753 
0A6D   0858           02754         MOVFW   DRAM+2C
0A6E   00C8           02755         MOVWF   DRAM+1C
                      02756 
0A6F   0868           02757         MOVFW   DRAM+3C
0A70   00D8           02758         MOVWF   DRAM+2C
                      02759 
0A71   0839           02760         MOVFW   DRAM+0D
0A72   00E8           02761         MOVWF   DRAM+3C
                      02762 
0A73   0849           02763         MOVFW   DRAM+1D
0A74   00B9           02764         MOVWF   DRAM+0D
                      02765 
0A75   0859           02766         MOVFW   DRAM+2D
0A76   00C9           02767         MOVWF   DRAM+1D
                      02768 
0A77   0869           02769         MOVFW   DRAM+3D
0A78   00D9           02770         MOVWF   DRAM+2D
                      02771 
0A79   083A           02772         MOVFW   DRAM+0E
0A7A   00E9           02773         MOVWF   DRAM+3D
                      02774 
0A7B   084A           02775         MOVFW   DRAM+1E
0A7C   00BA           02776         MOVWF   DRAM+0E
                      02777 
0A7D   085A           02778         MOVFW   DRAM+2E
0A7E   00CA           02779         MOVWF   DRAM+1E
                      02780 
0A7F   086A           02781         MOVFW   DRAM+3E
0A80   00DA           02782         MOVWF   DRAM+2E
                      02783 
0A81   083B           02784         MOVFW   DRAM+0F
0A82   00EA           02785         MOVWF   DRAM+3E
                      02786 
0A83   084B           02787         MOVFW   DRAM+1F
0A84   00BB           02788         MOVWF   DRAM+0F
                      02789 
0A85   085B           02790         MOVFW   DRAM+2F
0A86   00CB           02791         MOVWF   DRAM+1F
                      02792 
0A87   086B           02793         MOVFW   DRAM+3F
0A88   00DB           02794         MOVWF   DRAM+2F
                      02795 
0A89   087B           02796         MOVFW   TEMPFILED
0A8A   00EB           02797         MOVWF   DRAM+3F
Warning[203]: Found opcode in column 1. (RETURN)
0A8B   0008           02798 RETURN
                      02799 
                      02800 ;############## IRAM SHIFT Y DOWN GROUP A ######################
0A8C                  02801 ISHIFT_DOWN_GRPA
MPASM  5.51                     HUB12_SPI.ASM   6-13-2019  15:22:38         PAGE 67


LOC  OBJECT CODE     LINE SOURCE TEXT
  VALUE

0A8C   1683 1303      02802         BANK1
Message[302]: Register in operand not in bank 0.  Ensure that bank bits are correct.
0A8E   0820           02803         MOVFW   IRAM+00
0A8F   1283 1303      02804         BANK0
0A91   00AA           02805         MOVWF   TEMPFILE
0A92   1683 1303      02806         BANK1
Message[302]: Register in operand not in bank 0.  Ensure that bank bits are correct.
0A94   0830           02807         MOVFW   IRAM+10
Message[302]: Register in operand not in bank 0.  Ensure that bank bits are correct.
0A95   00A0           02808         MOVWF   IRAM+00
                      02809 
Message[302]: Register in operand not in bank 0.  Ensure that bank bits are correct.
0A96   0840           02810         MOVFW   IRAM+20
Message[302]: Register in operand not in bank 0.  Ensure that bank bits are correct.
0A97   00B0           02811         MOVWF   IRAM+10
                      02812 
Message[302]: Register in operand not in bank 0.  Ensure that bank bits are correct.
0A98   0850           02813         MOVFW   IRAM+30
Message[302]: Register in operand not in bank 0.  Ensure that bank bits are correct.
0A99   00C0           02814         MOVWF   IRAM+20
                      02815 
Message[302]: Register in operand not in bank 0.  Ensure that bank bits are correct.
0A9A   0821           02816         MOVFW   IRAM+01
Message[302]: Register in operand not in bank 0.  Ensure that bank bits are correct.
0A9B   00D0           02817         MOVWF   IRAM+30
                      02818 
Message[302]: Register in operand not in bank 0.  Ensure that bank bits are correct.
0A9C   0831           02819         MOVFW   IRAM+11
Message[302]: Register in operand not in bank 0.  Ensure that bank bits are correct.
0A9D   00A1           02820         MOVWF   IRAM+01
                      02821 
Message[302]: Register in operand not in bank 0.  Ensure that bank bits are correct.
0A9E   0841           02822         MOVFW   IRAM+21
Message[302]: Register in operand not in bank 0.  Ensure that bank bits are correct.
0A9F   00B1           02823         MOVWF   IRAM+11
                      02824 
Message[302]: Register in operand not in bank 0.  Ensure that bank bits are correct.
0AA0   0851           02825         MOVFW   IRAM+31
Message[302]: Register in operand not in bank 0.  Ensure that bank bits are correct.
0AA1   00C1           02826         MOVWF   IRAM+21
                      02827 
Message[302]: Register in operand not in bank 0.  Ensure that bank bits are correct.
0AA2   0822           02828         MOVFW   IRAM+02
Message[302]: Register in operand not in bank 0.  Ensure that bank bits are correct.
0AA3   00D1           02829         MOVWF   IRAM+31
                      02830 
Message[302]: Register in operand not in bank 0.  Ensure that bank bits are correct.
0AA4   0832           02831         MOVFW   IRAM+12
Message[302]: Register in operand not in bank 0.  Ensure that bank bits are correct.
0AA5   00A2           02832         MOVWF   IRAM+02
                      02833 
Message[302]: Register in operand not in bank 0.  Ensure that bank bits are correct.
0AA6   0842           02834         MOVFW   IRAM+22
MPASM  5.51                     HUB12_SPI.ASM   6-13-2019  15:22:38         PAGE 68


LOC  OBJECT CODE     LINE SOURCE TEXT
  VALUE

Message[302]: Register in operand not in bank 0.  Ensure that bank bits are correct.
0AA7   00B2           02835         MOVWF   IRAM+12
                      02836 
Message[302]: Register in operand not in bank 0.  Ensure that bank bits are correct.
0AA8   0852           02837         MOVFW   IRAM+32
Message[302]: Register in operand not in bank 0.  Ensure that bank bits are correct.
0AA9   00C2           02838         MOVWF   IRAM+22
                      02839 
Message[302]: Register in operand not in bank 0.  Ensure that bank bits are correct.
0AAA   0823           02840         MOVFW   IRAM+03
Message[302]: Register in operand not in bank 0.  Ensure that bank bits are correct.
0AAB   00D2           02841         MOVWF   IRAM+32
                      02842 
Message[302]: Register in operand not in bank 0.  Ensure that bank bits are correct.
0AAC   0833           02843         MOVFW   IRAM+13
Message[302]: Register in operand not in bank 0.  Ensure that bank bits are correct.
0AAD   00A3           02844         MOVWF   IRAM+03
                      02845 
Message[302]: Register in operand not in bank 0.  Ensure that bank bits are correct.
0AAE   0843           02846         MOVFW   IRAM+23
Message[302]: Register in operand not in bank 0.  Ensure that bank bits are correct.
0AAF   00B3           02847         MOVWF   IRAM+13
                      02848 
Message[302]: Register in operand not in bank 0.  Ensure that bank bits are correct.
0AB0   0853           02849         MOVFW   IRAM+33
Message[302]: Register in operand not in bank 0.  Ensure that bank bits are correct.
0AB1   00C3           02850         MOVWF   IRAM+23
                      02851 
0AB2   0008           02852         RETURN
                      02853 ;###############################################################
                      02854 
                      02855 ;############## IRAM SHIFT Y DOWN GROUP B ######################
0AB3                  02856 ISHIFT_DOWN_GRPB
0AB3   1683 1303      02857         BANK1
Message[302]: Register in operand not in bank 0.  Ensure that bank bits are correct.
0AB5   0824           02858         MOVFW   IRAM+04
0AB6   1283 1303      02859         BANK0
0AB8   00F9           02860         MOVWF   TEMPFILEB
0AB9   1683 1303      02861         BANK1
Message[302]: Register in operand not in bank 0.  Ensure that bank bits are correct.
0ABB   0834           02862         MOVFW   IRAM+14
Message[302]: Register in operand not in bank 0.  Ensure that bank bits are correct.
0ABC   00A4           02863         MOVWF   IRAM+04
                      02864 
Message[302]: Register in operand not in bank 0.  Ensure that bank bits are correct.
0ABD   0844           02865         MOVFW   IRAM+24
Message[302]: Register in operand not in bank 0.  Ensure that bank bits are correct.
0ABE   00B4           02866         MOVWF   IRAM+14
                      02867 
Message[302]: Register in operand not in bank 0.  Ensure that bank bits are correct.
0ABF   0854           02868         MOVFW   IRAM+34
Message[302]: Register in operand not in bank 0.  Ensure that bank bits are correct.
0AC0   00C4           02869         MOVWF   IRAM+24
MPASM  5.51                     HUB12_SPI.ASM   6-13-2019  15:22:38         PAGE 69


LOC  OBJECT CODE     LINE SOURCE TEXT
  VALUE

                      02870 
Message[302]: Register in operand not in bank 0.  Ensure that bank bits are correct.
0AC1   0825           02871         MOVFW   IRAM+05
Message[302]: Register in operand not in bank 0.  Ensure that bank bits are correct.
0AC2   00D4           02872         MOVWF   IRAM+34
                      02873 
Message[302]: Register in operand not in bank 0.  Ensure that bank bits are correct.
0AC3   0835           02874         MOVFW   IRAM+15
Message[302]: Register in operand not in bank 0.  Ensure that bank bits are correct.
0AC4   00A5           02875         MOVWF   IRAM+05
                      02876 
Message[302]: Register in operand not in bank 0.  Ensure that bank bits are correct.
0AC5   0845           02877         MOVFW   IRAM+25
Message[302]: Register in operand not in bank 0.  Ensure that bank bits are correct.
0AC6   00B5           02878         MOVWF   IRAM+15
                      02879 
Message[302]: Register in operand not in bank 0.  Ensure that bank bits are correct.
0AC7   0855           02880         MOVFW   IRAM+35
Message[302]: Register in operand not in bank 0.  Ensure that bank bits are correct.
0AC8   00C5           02881         MOVWF   IRAM+25
                      02882 
Message[302]: Register in operand not in bank 0.  Ensure that bank bits are correct.
0AC9   0826           02883         MOVFW   IRAM+06
Message[302]: Register in operand not in bank 0.  Ensure that bank bits are correct.
0ACA   00D5           02884         MOVWF   IRAM+35
                      02885 
Message[302]: Register in operand not in bank 0.  Ensure that bank bits are correct.
0ACB   0836           02886         MOVFW   IRAM+16
Message[302]: Register in operand not in bank 0.  Ensure that bank bits are correct.
0ACC   00A6           02887         MOVWF   IRAM+06
                      02888 
Message[302]: Register in operand not in bank 0.  Ensure that bank bits are correct.
0ACD   0846           02889         MOVFW   IRAM+26
Message[302]: Register in operand not in bank 0.  Ensure that bank bits are correct.
0ACE   00B6           02890         MOVWF   IRAM+16
                      02891 
Message[302]: Register in operand not in bank 0.  Ensure that bank bits are correct.
0ACF   0856           02892         MOVFW   IRAM+36
Message[302]: Register in operand not in bank 0.  Ensure that bank bits are correct.
0AD0   00C6           02893         MOVWF   IRAM+26
                      02894 
Message[302]: Register in operand not in bank 0.  Ensure that bank bits are correct.
0AD1   0827           02895         MOVFW   IRAM+07
Message[302]: Register in operand not in bank 0.  Ensure that bank bits are correct.
0AD2   00D6           02896         MOVWF   IRAM+36
                      02897 
Message[302]: Register in operand not in bank 0.  Ensure that bank bits are correct.
0AD3   0837           02898         MOVFW   IRAM+17
Message[302]: Register in operand not in bank 0.  Ensure that bank bits are correct.
0AD4   00A7           02899         MOVWF   IRAM+07
                      02900 
Message[302]: Register in operand not in bank 0.  Ensure that bank bits are correct.
0AD5   0847           02901         MOVFW   IRAM+27
MPASM  5.51                     HUB12_SPI.ASM   6-13-2019  15:22:38         PAGE 70


LOC  OBJECT CODE     LINE SOURCE TEXT
  VALUE

Message[302]: Register in operand not in bank 0.  Ensure that bank bits are correct.
0AD6   00B7           02902         MOVWF   IRAM+17
                      02903 
Message[302]: Register in operand not in bank 0.  Ensure that bank bits are correct.
0AD7   0857           02904         MOVFW   IRAM+37
Message[302]: Register in operand not in bank 0.  Ensure that bank bits are correct.
0AD8   00C7           02905         MOVWF   IRAM+27
                      02906 
0AD9   0008           02907         RETURN
                      02908 
0ADA                  02909 SCRL_A
0ADA   300A           02910         MOVLW   0X0A
0ADB   008A           02911         MOVWF   PCLATH
0ADC   228C           02912         CALL    ISHIFT_DOWN_GRPA
0ADD   2200           02913         CALL    DSHIFT_DOWN_GRPA
0ADE   3000           02914         MOVLW   0
0ADF   008A           02915         MOVWF   PCLATH
                      02916         
Warning[203]: Found opcode in column 1. (RETURN)
0AE0   0008           02917 RETURN
                      02918 
0AE1                  02919 SCRL_B
0AE1   300A           02920         MOVLW   0X0A
0AE2   008A           02921         MOVWF   PCLATH
0AE3   22B3           02922         CALL    ISHIFT_DOWN_GRPB
0AE4   2223           02923         CALL    DSHIFT_DOWN_GRPB
0AE5   3000           02924         MOVLW   0
0AE6   008A           02925         MOVWF   PCLATH
Warning[203]: Found opcode in column 1. (RETURN)
0AE7   0008           02926 RETURN
                      02927 
0AE8                  02928 SCRL_C
0AE8   300B           02929         MOVLW   0X0B
0AE9   008A           02930         MOVWF   PCLATH
0AEA   2300           02931         CALL    ISHIFT_DOWN_GRPC
0AEB   300A           02932         MOVLW   0X0A
0AEC   008A           02933         MOVWF   PCLATH
0AED   2246           02934         CALL    DSHIFT_DOWN_GRPC
0AEE   3000           02935         MOVLW   0
0AEF   008A           02936         MOVWF   PCLATH
Warning[203]: Found opcode in column 1. (RETURN)
0AF0   0008           02937 RETURN
                      02938 
0AF1                  02939 SCRL_D
0AF1   300B           02940         MOVLW   0X0B
0AF2   008A           02941         MOVWF   PCLATH
0AF3   2327           02942         CALL    ISHIFT_DOWN_GRPD
0AF4   300A           02943         MOVLW   0X0A
0AF5   008A           02944         MOVWF   PCLATH
0AF6   2269           02945         CALL    DSHIFT_DOWN_GRPD
0AF7   3000           02946         MOVLW   0
0AF8   008A           02947         MOVWF   PCLATH
Warning[203]: Found opcode in column 1. (RETURN)
MPASM  5.51                     HUB12_SPI.ASM   6-13-2019  15:22:38         PAGE 71


LOC  OBJECT CODE     LINE SOURCE TEXT
  VALUE

0AF9   0008           02948 RETURN
                      02949 
Warning[205]: Found directive in column 1. (ORG)
0B00                  02950 ORG     0XB00
                      02951 
                      02952 ;################# IRAM SHIFT Y DOWN GROUP C ###################
0B00                  02953 ISHIFT_DOWN_GRPC
0B00   1683 1303      02954         BANK1
Message[302]: Register in operand not in bank 0.  Ensure that bank bits are correct.
0B02   0828           02955         MOVFW   IRAM+08
0B03   1283 1303      02956         BANK0
0B05   00FA           02957         MOVWF   TEMPFILEC
0B06   1683 1303      02958         BANK1
Message[302]: Register in operand not in bank 0.  Ensure that bank bits are correct.
0B08   0838           02959         MOVFW   IRAM+18
Message[302]: Register in operand not in bank 0.  Ensure that bank bits are correct.
0B09   00A8           02960         MOVWF   IRAM+08
                      02961 
Message[302]: Register in operand not in bank 0.  Ensure that bank bits are correct.
0B0A   0848           02962         MOVFW   IRAM+28
Message[302]: Register in operand not in bank 0.  Ensure that bank bits are correct.
0B0B   00B8           02963         MOVWF   IRAM+18
                      02964 
Message[302]: Register in operand not in bank 0.  Ensure that bank bits are correct.
0B0C   0858           02965         MOVFW   IRAM+38
Message[302]: Register in operand not in bank 0.  Ensure that bank bits are correct.
0B0D   00C8           02966         MOVWF   IRAM+28
                      02967 
Message[302]: Register in operand not in bank 0.  Ensure that bank bits are correct.
0B0E   0829           02968         MOVFW   IRAM+09
Message[302]: Register in operand not in bank 0.  Ensure that bank bits are correct.
0B0F   00D8           02969         MOVWF   IRAM+38
                      02970 
Message[302]: Register in operand not in bank 0.  Ensure that bank bits are correct.
0B10   0839           02971         MOVFW   IRAM+19
Message[302]: Register in operand not in bank 0.  Ensure that bank bits are correct.
0B11   00A9           02972         MOVWF   IRAM+09
                      02973 
Message[302]: Register in operand not in bank 0.  Ensure that bank bits are correct.
0B12   0849           02974         MOVFW   IRAM+29
Message[302]: Register in operand not in bank 0.  Ensure that bank bits are correct.
0B13   00B9           02975         MOVWF   IRAM+19
                      02976 
Message[302]: Register in operand not in bank 0.  Ensure that bank bits are correct.
0B14   0859           02977         MOVFW   IRAM+39
Message[302]: Register in operand not in bank 0.  Ensure that bank bits are correct.
0B15   00C9           02978         MOVWF   IRAM+29
                      02979 
Message[302]: Register in operand not in bank 0.  Ensure that bank bits are correct.
0B16   082A           02980         MOVFW   IRAM+0A
Message[302]: Register in operand not in bank 0.  Ensure that bank bits are correct.
0B17   00D9           02981         MOVWF   IRAM+39
                      02982 
MPASM  5.51                     HUB12_SPI.ASM   6-13-2019  15:22:38         PAGE 72


LOC  OBJECT CODE     LINE SOURCE TEXT
  VALUE

Message[302]: Register in operand not in bank 0.  Ensure that bank bits are correct.
0B18   083A           02983         MOVFW   IRAM+1A
Message[302]: Register in operand not in bank 0.  Ensure that bank bits are correct.
0B19   00AA           02984         MOVWF   IRAM+0A
                      02985 
Message[302]: Register in operand not in bank 0.  Ensure that bank bits are correct.
0B1A   084A           02986         MOVFW   IRAM+2A
Message[302]: Register in operand not in bank 0.  Ensure that bank bits are correct.
0B1B   00BA           02987         MOVWF   IRAM+1A
                      02988 
Message[302]: Register in operand not in bank 0.  Ensure that bank bits are correct.
0B1C   085A           02989         MOVFW   IRAM+3A
Message[302]: Register in operand not in bank 0.  Ensure that bank bits are correct.
0B1D   00CA           02990         MOVWF   IRAM+2A
                      02991 
Message[302]: Register in operand not in bank 0.  Ensure that bank bits are correct.
0B1E   082B           02992         MOVFW   IRAM+0B
Message[302]: Register in operand not in bank 0.  Ensure that bank bits are correct.
0B1F   00DA           02993         MOVWF   IRAM+3A
                      02994 
Message[302]: Register in operand not in bank 0.  Ensure that bank bits are correct.
0B20   083B           02995         MOVFW   IRAM+1B
Message[302]: Register in operand not in bank 0.  Ensure that bank bits are correct.
0B21   00AB           02996         MOVWF   IRAM+0B
                      02997 
Message[302]: Register in operand not in bank 0.  Ensure that bank bits are correct.
0B22   084B           02998         MOVFW   IRAM+2B
Message[302]: Register in operand not in bank 0.  Ensure that bank bits are correct.
0B23   00BB           02999         MOVWF   IRAM+1B
                      03000 
Message[302]: Register in operand not in bank 0.  Ensure that bank bits are correct.
0B24   085B           03001         MOVFW   IRAM+3B
Message[302]: Register in operand not in bank 0.  Ensure that bank bits are correct.
0B25   00CB           03002         MOVWF   IRAM+2B
                      03003 
0B26   0008           03004         RETURN
                      03005 ;###############################################################
                      03006 
                      03007 
                      03008 ;################# IRAM SHIFT Y DOWN GROUP D ###################
0B27                  03009 ISHIFT_DOWN_GRPD
0B27   1683 1303      03010         BANK1
Message[302]: Register in operand not in bank 0.  Ensure that bank bits are correct.
0B29   082C           03011         MOVFW   IRAM+0C
0B2A   1283 1303      03012         BANK0
0B2C   00FB           03013         MOVWF   TEMPFILED
0B2D   1683 1303      03014         BANK1
Message[302]: Register in operand not in bank 0.  Ensure that bank bits are correct.
0B2F   083C           03015         MOVFW   IRAM+1C
Message[302]: Register in operand not in bank 0.  Ensure that bank bits are correct.
0B30   00AC           03016         MOVWF   IRAM+0C
                      03017 
Message[302]: Register in operand not in bank 0.  Ensure that bank bits are correct.
MPASM  5.51                     HUB12_SPI.ASM   6-13-2019  15:22:38         PAGE 73


LOC  OBJECT CODE     LINE SOURCE TEXT
  VALUE

0B31   084C           03018         MOVFW   IRAM+2C
Message[302]: Register in operand not in bank 0.  Ensure that bank bits are correct.
0B32   00BC           03019         MOVWF   IRAM+1C
                      03020 
Message[302]: Register in operand not in bank 0.  Ensure that bank bits are correct.
0B33   085C           03021         MOVFW   IRAM+3C
Message[302]: Register in operand not in bank 0.  Ensure that bank bits are correct.
0B34   00CC           03022         MOVWF   IRAM+2C
                      03023 
Message[302]: Register in operand not in bank 0.  Ensure that bank bits are correct.
0B35   082D           03024         MOVFW   IRAM+0D
Message[302]: Register in operand not in bank 0.  Ensure that bank bits are correct.
0B36   00DC           03025         MOVWF   IRAM+3C
                      03026 
Message[302]: Register in operand not in bank 0.  Ensure that bank bits are correct.
0B37   083D           03027         MOVFW   IRAM+1D
Message[302]: Register in operand not in bank 0.  Ensure that bank bits are correct.
0B38   00AD           03028         MOVWF   IRAM+0D
                      03029 
Message[302]: Register in operand not in bank 0.  Ensure that bank bits are correct.
0B39   084D           03030         MOVFW   IRAM+2D
Message[302]: Register in operand not in bank 0.  Ensure that bank bits are correct.
0B3A   00BD           03031         MOVWF   IRAM+1D
                      03032 
Message[302]: Register in operand not in bank 0.  Ensure that bank bits are correct.
0B3B   085D           03033         MOVFW   IRAM+3D
Message[302]: Register in operand not in bank 0.  Ensure that bank bits are correct.
0B3C   00CD           03034         MOVWF   IRAM+2D
                      03035 
Message[302]: Register in operand not in bank 0.  Ensure that bank bits are correct.
0B3D   082E           03036         MOVFW   IRAM+0E
Message[302]: Register in operand not in bank 0.  Ensure that bank bits are correct.
0B3E   00DD           03037         MOVWF   IRAM+3D
                      03038 
Message[302]: Register in operand not in bank 0.  Ensure that bank bits are correct.
0B3F   083E           03039         MOVFW   IRAM+1E
Message[302]: Register in operand not in bank 0.  Ensure that bank bits are correct.
0B40   00AE           03040         MOVWF   IRAM+0E
                      03041 
Message[302]: Register in operand not in bank 0.  Ensure that bank bits are correct.
0B41   084E           03042         MOVFW   IRAM+2E
Message[302]: Register in operand not in bank 0.  Ensure that bank bits are correct.
0B42   00BE           03043         MOVWF   IRAM+1E
                      03044 
Message[302]: Register in operand not in bank 0.  Ensure that bank bits are correct.
0B43   085E           03045         MOVFW   IRAM+3E
Message[302]: Register in operand not in bank 0.  Ensure that bank bits are correct.
0B44   00CE           03046         MOVWF   IRAM+2E
                      03047 
Message[302]: Register in operand not in bank 0.  Ensure that bank bits are correct.
0B45   082F           03048         MOVFW   IRAM+0F
Message[302]: Register in operand not in bank 0.  Ensure that bank bits are correct.
0B46   00DE           03049         MOVWF   IRAM+3E
MPASM  5.51                     HUB12_SPI.ASM   6-13-2019  15:22:38         PAGE 74


LOC  OBJECT CODE     LINE SOURCE TEXT
  VALUE

                      03050 
Message[302]: Register in operand not in bank 0.  Ensure that bank bits are correct.
0B47   083F           03051         MOVFW   IRAM+1F
Message[302]: Register in operand not in bank 0.  Ensure that bank bits are correct.
0B48   00AF           03052         MOVWF   IRAM+0F
                      03053 
Message[302]: Register in operand not in bank 0.  Ensure that bank bits are correct.
0B49   084F           03054         MOVFW   IRAM+2F
Message[302]: Register in operand not in bank 0.  Ensure that bank bits are correct.
0B4A   00BF           03055         MOVWF   IRAM+1F
                      03056 
Message[302]: Register in operand not in bank 0.  Ensure that bank bits are correct.
0B4B   085F           03057         MOVFW   IRAM+3F
Message[302]: Register in operand not in bank 0.  Ensure that bank bits are correct.
0B4C   00CF           03058         MOVWF   IRAM+2F
                      03059 
0B4D   0008           03060         RETURN
                      03061 ;###############################################################
                      03062 
                      03063 
                      03064 
                      03065 
                      03066 
                      03067 
                      03068 
                      03069 
                      03070 
                      03071 
                      03072 
2100                  03073         ORG     0x2100                          ; data EEPROM location
2100   0001 0002 0003 03074         DE      1,2,3,4                         ; define first four EEPROM locations as 1, 2, 3, and 4
       0004 
                      03075 
                      03076 
                      03077 
                      03078 
                      03079         END                       ; directive 'end of program'
MPASM  5.51                     HUB12_SPI.ASM   6-13-2019  15:22:38         PAGE 75


SYMBOL TABLE
  LABEL                             VALUE 

ABDEN                             00000000
ABDOVF                            00000007
ADCON0                            0000001F
ADCON1                            0000009F
ADCS0                             00000004
ADCS1                             00000005
ADCS2                             00000006
ADDEN                             00000003
ADFM                              00000007
ADIE                              00000006
ADIF                              00000006
ADON                              00000000
ADRESH                            0000001E
ADRESL                            0000009E
ANS0                              00000000
ANS1                              00000001
ANS10                             00000002
ANS11                             00000003
ANS2                              00000002
ANS3                              00000003
ANS4                              00000004
ANS5                              00000005
ANS6                              00000006
ANS7                              00000007
ANS8                              00000000
ANS9                              00000001
ANSEL                             0000011E
ANSELH                            0000011F
A_OFF                             BCF     PORTC,  0
A_ON                              BSF     PORTC,  0
BANK0                             BANKSEL PORTA
BANK1                             BANKSEL ADRESL
BAUDCTL                           0000009B
BF                                00000000
BRG0                              00000000
BRG1                              00000001
BRG10                             00000002
BRG11                             00000003
BRG12                             00000004
BRG13                             00000005
BRG14                             00000006
BRG15                             00000007
BRG16                             00000003
BRG2                              00000002
BRG3                              00000003
BRG4                              00000004
BRG5                              00000005
BRG6                              00000006
BRG7                              00000007
BRG8                              00000000
BRG9                              00000001
BRGH                              00000002
BRIGHTNESS                        00000078
MPASM  5.51                     HUB12_SPI.ASM   6-13-2019  15:22:38         PAGE 76


SYMBOL TABLE
  LABEL                             VALUE 

BTCOUNT                           00000074
B_OFF                             BCF     PORTC,  1
B_ON                              BSF     PORTC,  1
C                                 00000000
C1CH0                             00000000
C1CH1                             00000001
C1IE                              00000005
C1IF                              00000005
C1OE                              00000005
C1ON                              00000007
C1OUT                             00000006
C1POL                             00000004
C1R                               00000002
C1SEN                             00000005
C1VREN                            00000007
C2CH0                             00000000
C2CH1                             00000001
C2IE                              00000006
C2IF                              00000006
C2OE                              00000005
C2ON                              00000007
C2OUT                             00000006
C2POL                             00000004
C2R                               00000002
C2REN                             00000004
C2SYNC                            00000000
C2VREN                            00000006
CCP1CON                           00000017
CCP1IE                            00000002
CCP1IF                            00000002
CCP1M0                            00000000
CCP1M1                            00000001
CCP1M2                            00000002
CCP1M3                            00000003
CCPR                              00000015
CCPR1H                            00000016
CCPR1L                            00000015
CHAR                              000001AE
CHARB                             00000200
CHS0                              00000002
CHS1                              00000003
CHS2                              00000004
CHS3                              00000005
CKE                               00000006
CKP                               00000004
CLK_OFF                           BCF     PORTC,  7
CLK_ON                            BSF     PORTC,  7
CLR0                              00000150
CLRAM                             0000014C
CLR_IRAM                          00000176
CM1CON0                           00000119
CM2CON0                           0000011A
CM2CON1                           0000011B
MPASM  5.51                     HUB12_SPI.ASM   6-13-2019  15:22:38         PAGE 77


SYMBOL TABLE
  LABEL                             VALUE 

COUNT0                            00000025
COUNT1                            00000026
COUNT2                            00000027
COUNT3                            00000028
COUNT4                            0000006E
CREN                              00000004
CSRC                              00000007
CURSORX                           0000006F
CURSORY                           00000070
D                                 00000005
DATALATCH                         00000108
DATA_ADDRESS                      00000005
DAT_OFF                           BCF     PORTC,  2
DAT_ON                            BSF     PORTC,  2
DC                                00000001
DC1B0                             00000004
DC1B1                             00000005
DELAYMS                           00000021
DELAYS                            00000022
DELAYUS                           00000020
DELAY_MS                          00000165
DELAY_ONEMS                       0000015E
DELAY_ONESEC                      0000016A
DELAY_SEC                         00000171
DELAY_US                          00000156
DISP                              00000100
DISP0                             00000102
DISPLAY                           0000011B
DMPF0                             000004BA
DMPF2                             000004C9
DMP_FONT0                         000004B8
DMP_FONT2                         000004C7
DRAM                              0000002C
DSHIFT_DOWN_GRPA                  00000A00
DSHIFT_DOWN_GRPB                  00000A23
DSHIFT_DOWN_GRPC                  00000A46
DSHIFT_DOWN_GRPD                  00000A69
DSP0                              0000010C
DUMP                              00000499
D_A                               00000005
D_NOT_A                           00000005
ECCPAS                            0000001D
ECCPAS0                           00000004
ECCPAS1                           00000005
ECCPAS2                           00000006
ECCPASE                           00000007
EEADR                             0000010D
EEADRH                            0000010F
EECON1                            0000018C
EECON2                            0000018D
EEDAT                             0000010C
EEDATA                            0000010C
EEDATH                            0000010E
MPASM  5.51                     HUB12_SPI.ASM   6-13-2019  15:22:38         PAGE 78


SYMBOL TABLE
  LABEL                             VALUE 

EEIE                              00000004
EEIF                              00000004
EEPGD                             00000007
EIGHT                             0000026B
F                                 00000001
FERR                              00000002
FIVE                              00000232
FONT                              0000002B
FONT_0                            000004A4
FONT_1                            000004C4
FONT_2                            000004DA
FOUR                              0000021F
FSR                               00000004
GIE                               00000007
GO                                00000001
GO_DONE                           00000001
GO_NOT_DONE                       00000001
GRP                               00000071
GRP_A                             0000061C
GRP_B                             0000066E
GRP_C                             000006B0
GRP_D                             000006E2
HTS                               00000002
HUNDREDS                          000000F0
I2C_DATA                          00000005
I2C_READ                          00000002
I2C_START                         00000003
I2C_STOP                          00000004
ICOUNT                            000000E2
ICOUNT0                           000000E9
ICOUNT1                           000000EA
ICOUNT2                           000000EB
ICOUNT3                           000000EC
ICOUNT4                           000000ED
ICURSORX                          000000E4
IDUMP                             0000078A
IFONT_0                           00000793
IFONT_1                           000007AB
IFONT_2                           000007C5
IGRP_A                            0000051D
IGRP_B                            0000056F
IGRP_C                            000005B1
IGRP_D                            000005E3
INDF                              00000000
INIT                              00000010
INTCON                            0000000B
INTE                              00000004
INTEDG                            00000006
INTF                              00000001
IOC                               00000096
IOC0                              00000000
IOC1                              00000001
IOC2                              00000002
MPASM  5.51                     HUB12_SPI.ASM   6-13-2019  15:22:38         PAGE 79


SYMBOL TABLE
  LABEL                             VALUE 

IOC3                              00000003
IOC4                              00000004
IOC5                              00000005
IOCA                              00000096
IOCA0                             00000000
IOCA1                             00000001
IOCA2                             00000002
IOCA3                             00000003
IOCA4                             00000004
IOCA5                             00000005
IOCB                              00000116
IOCB4                             00000004
IOCB5                             00000005
IOCB6                             00000006
IOCB7                             00000007
IPOINTER                          000000E0
IPT                               000000E7
IPUTNUM                           00000800
IRAM                              000000A0
IRCF0                             00000004
IRCF1                             00000005
IRCF2                             00000006
IRM0                              0000017C
IROW                              000000E6
IRP                               00000007
ISB00                             0000085A
ISB01                             0000085C
ISBR0                             00000853
ISBR1                             00000856
ISB_BEGIN                         00000858
ISC00                             00000871
ISC01                             00000873
ISCR0                             0000086A
ISCR1                             0000086D
ISC_BEGIN                         0000086F
ISD00                             00000888
ISD01                             0000088A
ISDR0                             00000881
ISDR1                             00000884
ISD_BEGIN                         00000886
ISHCNT                            000000E5
ISHFTL                            0000083F
ISHFTL00                          00000845
ISHIFTL                           0000083F
ISHIFTL_GRPA                      0000084F
ISHIFTL_GRPB                      0000084F
ISHIFTL_GRPC                      00000866
ISHIFTL_GRPD                      0000087D
ISHIFTR                           00000500
ISHIFT_DOWN_GRPA                  00000A8C
ISHIFT_DOWN_GRPB                  00000AB3
ISHIFT_DOWN_GRPC                  00000B00
ISHIFT_DOWN_GRPD                  00000B27
MPASM  5.51                     HUB12_SPI.ASM   6-13-2019  15:22:38         PAGE 80


SYMBOL TABLE
  LABEL                             VALUE 

ISRA00                            00000525
ISRA08                            0000054C
ISRA08_R1                         0000054B
ISRB00                            00000577
ISRB08                            00000596
ISRB08_R1                         00000595
ISRC00                            000005B9
ISRC08                            000005D0
ISRC08_R1                         000005CF
ITEMPFILE                         000000E8
ITESTER                           000000E3
IWIDTH                            000000E1
LOOP                              0000007C
LTS                               00000001
MAIN                              00000026
MC1OUT                            00000007
MC2OUT                            00000006
MILSEC                            00000023
MNBA                              00000066
MNDC                              0000004B
MSEC                              00000160
MSEC0                             00000166
MSK                               00000093
MSK0                              00000000
MSK1                              00000001
MSK2                              00000002
MSK3                              00000003
MSK4                              00000004
MSK5                              00000005
MSK6                              00000006
MSK7                              00000007
NINE                              0000027E
NOT_A                             00000005
NOT_ADDRESS                       00000005
NOT_BOR                           00000000
NOT_DONE                          00000001
NOT_PD                            00000003
NOT_POR                           00000001
NOT_RABPU                         00000007
NOT_T1SYNC                        00000002
NOT_TO                            00000004
NOT_W                             00000002
NOT_WRITE                         00000002
NUMBER                            00000073
OERR                              00000001
OE_OFF                            BCF     PORTC,  5
OE_ON                             BSF     PORTC,  5
ONE                               000001D1
ONES                              000000EE
OPTION_REG                        00000081
OSCCON                            0000008F
OSCTUNE                           00000090
OSFIE                             00000007
MPASM  5.51                     HUB12_SPI.ASM   6-13-2019  15:22:38         PAGE 81


SYMBOL TABLE
  LABEL                             VALUE 

OSFIF                             00000007
OSTS                              00000003
P                                 00000004
P1M0                              00000006
P1M1                              00000007
PCL                               00000002
PCLATH                            0000000A
PCON                              0000008E
PDC0                              00000000
PDC1                              00000001
PDC2                              00000002
PDC3                              00000003
PDC4                              00000004
PDC5                              00000005
PDC6                              00000006
PEIE                              00000006
PIE1                              0000008C
PIE2                              0000008D
PIR1                              0000000C
PIR2                              0000000D
POINTER                           0000006C
PORTA                             00000005
PORTB                             00000006
PORTC                             00000007
PR2                               00000092
PRSEN                             00000007
PS0                               00000000
PS1                               00000001
PS2                               00000002
PSA                               00000003
PSSAC0                            00000002
PSSAC1                            00000003
PSSBD0                            00000000
PSSBD1                            00000001
PSTRCON                           0000019D
PULSR                             00000002
PULSS                             00000003
PUTNUM                            000007B0
PWM1CON                           0000001C
R                                 00000002
RA0                               00000000
RA1                               00000001
RA2                               00000002
RA3                               00000003
RA4                               00000004
RA5                               00000005
RABIE                             00000003
RABIF                             00000000
RB4                               00000004
RB5                               00000005
RB6                               00000006
RB7                               00000007
RC0                               00000000
MPASM  5.51                     HUB12_SPI.ASM   6-13-2019  15:22:38         PAGE 82


SYMBOL TABLE
  LABEL                             VALUE 

RC1                               00000001
RC2                               00000002
RC3                               00000003
RC4                               00000004
RC5                               00000005
RC6                               00000006
RC7                               00000007
RCIDL                             00000006
RCIE                              00000005
RCIF                              00000005
RCREG                             0000001A
RCSTA                             00000018
RD                                00000000
READ_WRITE                        00000002
REG_OFF                           BCF     PORTC,  4
REG_ON                            BSF     PORTC,  4
ROW                               00000077
RP0                               00000005
RP1                               00000006
RX9                               00000006
RX9D                              00000000
R_NOT_W                           00000002
R_W                               00000002
S                                 00000003
SB00                              00000719
SB01                              0000071B
SBOREN                            00000004
SBR0                              00000712
SBR1                              00000715
SB_BEGIN                          00000717
SC00                              00000730
SC01                              00000732
SCKP                              00000004
SCR0                              00000729
SCR1                              0000072C
SCRL_A                            00000ADA
SCRL_B                            00000AE1
SCRL_C                            00000AE8
SCRL_D                            00000AF1
SCS                               00000000
SC_BEGIN                          0000072E
SD00                              00000747
SD01                              00000749
SDR0                              00000740
SDR1                              00000743
SD_BEGIN                          00000745
SEC                               00000024
SEC0                              0000016C
SEC1                              00000172
SENB                              00000003
SENDB                             00000003
SEVEN                             00000258
SHCNT                             0000006D
MPASM  5.51                     HUB12_SPI.ASM   6-13-2019  15:22:38         PAGE 83


SYMBOL TABLE
  LABEL                             VALUE 

SHFTL                             00000700
SHFTL00                           00000704
SHIFTL_GRPA                       0000070E
SHIFTL_GRPB                       0000070E
SHIFTL_GRPC                       00000725
SHIFTL_GRPD                       0000073C
SHIFTR                            00000600
SHIFT_YU                          00000753
SHIFT_YUB                         00000816
SIX                               00000245
SLB0                              00000188
SLB1                              0000018C
SLB2                              00000194
SLICEB                            00000186
SLICET                            0000019A
SLT0                              0000019C
SLT1                              000001A0
SLT2                              000001A8
SMP                               00000007
SPBRG                             00000099
SPBRGH                            0000009A
SPEN                              00000007
SR0                               00000006
SR1                               00000007
SRA00                             00000624
SRA08                             0000064B
SRA08_R1                          0000064A
SRB00                             00000676
SRB08                             00000695
SRB08_R1                          00000694
SRC00                             000006B8
SRC08                             000006CF
SRC08_R1                          000006CE
SRCON                             0000019E
SREN                              00000005
SSPADD                            00000093
SSPBUF                            00000013
SSPCON                            00000014
SSPEN                             00000005
SSPIE                             00000003
SSPIF                             00000003
SSPM0                             00000000
SSPM1                             00000001
SSPM2                             00000002
SSPM3                             00000003
SSPMSK                            00000093
SSPOV                             00000006
SSPSTAT                           00000094
STATUS                            00000003
STRA                              00000000
STRB                              00000001
STRC                              00000002
STRD                              00000003
MPASM  5.51                     HUB12_SPI.ASM   6-13-2019  15:22:38         PAGE 84


SYMBOL TABLE
  LABEL                             VALUE 

STRSYNC                           00000004
SWDTEN                            00000000
SYNC                              00000004
T0CS                              00000005
T0IE                              00000005
T0IF                              00000002
T0SE                              00000004
T1CKPS0                           00000004
T1CKPS1                           00000005
T1CON                             00000010
T1GINV                            00000007
T1GSS                             00000001
T1IE                              00000000
T1IF                              00000000
T1OSCEN                           00000003
T2CKPS0                           00000000
T2CKPS1                           00000001
T2CON                             00000012
T2IE                              00000001
T2IF                              00000001
TALL                              00000076
TEMPFILE                          0000002A
TEMPFILEB                         00000079
TEMPFILEC                         0000007A
TEMPFILED                         0000007B
TENS                              000000EF
TESTER                            00000072
THOUSANDS                         000000F1
THREE                             0000020C
TMR0                              00000001
TMR1                              0000000E
TMR1CS                            00000001
TMR1GE                            00000006
TMR1H                             0000000F
TMR1IE                            00000000
TMR1IF                            00000000
TMR1L                             0000000E
TMR1ON                            00000000
TMR2                              00000011
TMR2IE                            00000001
TMR2IF                            00000001
TMR2ON                            00000002
TOUTPS0                           00000003
TOUTPS1                           00000004
TOUTPS2                           00000005
TOUTPS3                           00000006
TRISA                             00000085
TRISA0                            00000000
TRISA1                            00000001
TRISA2                            00000002
TRISA3                            00000003
TRISA4                            00000004
TRISA5                            00000005
MPASM  5.51                     HUB12_SPI.ASM   6-13-2019  15:22:38         PAGE 85


SYMBOL TABLE
  LABEL                             VALUE 

TRISB                             00000086
TRISB4                            00000004
TRISB5                            00000005
TRISB6                            00000006
TRISB7                            00000007
TRISC                             00000087
TRISC0                            00000000
TRISC1                            00000001
TRISC2                            00000002
TRISC3                            00000003
TRISC4                            00000004
TRISC5                            00000005
TRISC6                            00000006
TRISC7                            00000007
TRMT                              00000001
TUN0                              00000000
TUN1                              00000001
TUN2                              00000002
TUN3                              00000003
TUN4                              00000004
TWO                               000001E4
TX9                               00000006
TX9D                              00000000
TXEN                              00000005
TXIE                              00000004
TXIF                              00000004
TXREG                             00000019
TXSTA                             00000098
T_CHAR                            00000300
T_CHARB                           00000400
T_EIGHT                           00000452
T_FIVE                            000003BD
T_FOUR                            0000039A
T_NINE                            00000475
T_ONE                             00000331
T_SEVEN                           0000042F
T_SIX                             0000040C
T_THREE                           00000377
T_TWO                             00000354
T_ZERO                            0000030E
UA                                00000001
ULPWUE                            00000005
USEC                              00000157
VAR0                              00000029
VCFG                              00000006
VP6EN                             00000004
VR0                               00000000
VR1                               00000001
VR2                               00000002
VR3                               00000003
VRCON                             00000118
VRR                               00000005
W                                 00000000
MPASM  5.51                     HUB12_SPI.ASM   6-13-2019  15:22:38         PAGE 86


SYMBOL TABLE
  LABEL                             VALUE 

WCOL                              00000007
WDTCON                            00000097
WDTPS0                            00000001
WDTPS1                            00000002
WDTPS2                            00000003
WDTPS3                            00000004
WIDTH                             00000075
WPU                               00000095
WPU0                              00000000
WPU1                              00000001
WPU2                              00000002
WPU4                              00000004
WPU5                              00000005
WPUA                              00000095
WPUA0                             00000000
WPUA1                             00000001
WPUA2                             00000002
WPUA4                             00000004
WPUA5                             00000005
WPUB                              00000115
WPUB4                             00000004
WPUB5                             00000005
WPUB6                             00000006
WPUB7                             00000007
WR                                00000001
WREN                              00000002
WRERR                             00000003
WUE                               00000001
YU0                               0000075A
YU1                               0000081A
Z                                 00000002
ZERO                              000001BC
_BOD_NSLEEP                       00003EFF
_BOD_OFF                          00003CFF
_BOD_ON                           00003FFF
_BOD_SBODEN                       00003DFF
_BOREN_NSLEEP                     00003EFF
_BOREN_OFF                        00003CFF
_BOREN_ON                         00003FFF
_BOREN_SBODEN                     00003DFF
_BOR_NSLEEP                       00003EFF
_BOR_OFF                          00003CFF
_BOR_ON                           00003FFF
_BOR_SBODEN                       00003DFF
_CONFIG                           00002007
_CPD_OFF                          00003FFF
_CPD_ON                           00003F7F
_CP_OFF                           00003FFF
_CP_ON                            00003FBF
_DEVID1                           00002006
_EC_OSC                           00003FFB
_EXTRC                            00003FFF
_EXTRCIO                          00003FFE
MPASM  5.51                     HUB12_SPI.ASM   6-13-2019  15:22:38         PAGE 87


SYMBOL TABLE
  LABEL                             VALUE 

_EXTRC_OSC_CLKOUT                 00003FFF
_EXTRC_OSC_NOCLKOUT               00003FFE
_FCMEN_OFF                        000037FF
_FCMEN_ON                         00003FFF
_FOSC_EC                          00003FFB
_FOSC_EXTRCCLK                    00003FFF
_FOSC_EXTRCIO                     00003FFE
_FOSC_HS                          00003FFA
_FOSC_INTRCCLK                    00003FFD
_FOSC_INTRCIO                     00003FFC
_FOSC_LP                          00003FF8
_FOSC_XT                          00003FF9
_HS_OSC                           00003FFA
_IDLOC0                           00002000
_IDLOC1                           00002001
_IDLOC2                           00002002
_IDLOC3                           00002003
_IESO_OFF                         00003BFF
_IESO_ON                          00003FFF
_INTOSC                           00003FFD
_INTOSCIO                         00003FFC
_INTRC_OSC_CLKOUT                 00003FFD
_INTRC_OSC_NOCLKOUT               00003FFC
_LP_OSC                           00003FF8
_MCLRE_OFF                        00003FDF
_MCLRE_ON                         00003FFF
_PWRTE_OFF                        00003FFF
_PWRTE_ON                         00003FEF
_WDTE_OFF                         00003FF7
_WDTE_ON                          00003FFF
_WDT_OFF                          00003FF7
_WDT_ON                           00003FFF
_XT_OSC                           00003FF9
__16F690                          00000001
__DEBUG                           1
pclath_temp                       0000007F
status_temp                       0000007E
w_temp                            0000007D


MEMORY USAGE MAP ('X' = Used,  '-' = Unused)

0000 : X---XXXXXXXXXXXX XXXXXXXXXXXXXXXX XXXXXXXXXXXXXXXX XXXXXXXXXXXXXXXX
0040 : XXXXXXXXXXXXXXXX XXXXXXXXXXXXXXXX XXXXXXXXXXXXXXXX XXXXXXXX--------
0100 : XXXXXXXXXXXXXXXX XXXXXXXXXXXXXXXX XXXXXXXXXXXXXXXX XXXXXXXXXXXXXXXX
0140 : XXXXXXXXXXXXXXXX XXXXXXXXXXXXXXXX XXXXXXXXXXXXXXXX XXXXXXXXXXXXXXXX
MPASM  5.51                     HUB12_SPI.ASM   6-13-2019  15:22:38         PAGE 88


MEMORY USAGE MAP ('X' = Used,  '-' = Unused)


0180 : XXXXXXXXXXXXXXXX XXXXXXXXXXXXXXXX XXXXXXXXXXXXXXXX XXXXXXXXXXXXXXXX
01C0 : XXXXXXXXXXXXXXXX XXXXXXXXXXXXXXXX XXXXXXXXXXXXXXXX XXXXXXX---------
0200 : XXXXXXXXXXXXXXXX XXXXXXXXXXXXXXXX XXXXXXXXXXXXXXXX XXXXXXXXXXXXXXXX
0240 : XXXXXXXXXXXXXXXX XXXXXXXXXXXXXXXX XXXXXXXXXXXXXXXX XXXXXXXXXXXXXXXX
0280 : XXXXXXXXXXXXXXXX X--------------- ---------------- ----------------
0300 : XXXXXXXXXXXXXXXX XXXXXXXXXXXXXXXX XXXXXXXXXXXXXXXX XXXXXXXXXXXXXXXX
0340 : XXXXXXXXXXXXXXXX XXXXXXXXXXXXXXXX XXXXXXXXXXXXXXXX XXXXXXXXXXXXXXXX
0380 : XXXXXXXXXXXXXXXX XXXXXXXXXXXXXXXX XXXXXXXXXXXXXXXX XXXXXXXXXXXXXXXX
03C0 : XXXXXXXXXXXXXXXX XXXXXXXXXXXXXXXX ---------------- ----------------
0400 : XXXXXXXXXXXXXXXX XXXXXXXXXXXXXXXX XXXXXXXXXXXXXXXX XXXXXXXXXXXXXXXX
0440 : XXXXXXXXXXXXXXXX XXXXXXXXXXXXXXXX XXXXXXXXXXXXXXXX XXXXXXXXXXXXXXXX
0480 : XXXXXXXXXXXXXXXX XXXXXXXXXXXXXXXX XXXXXXXXXXXXXXXX XXXXXXXXXXXXXXXX
04C0 : XXXXXXXXXXXXXXXX XXXXXXXXXXXXXXXX XXXXXXXXXXXXXX-- ----------------
0500 : XXXXXXXXXXXXXXXX XXXXXXXXXXXXXXXX XXXXXXXXXXXXXXXX XXXXXXXXXXXXXXXX
0540 : XXXXXXXXXXXXXXXX XXXXXXXXXXXXXXXX XXXXXXXXXXXXXXXX XXXXXXXXXXXXXXXX
0580 : XXXXXXXXXXXXXXXX XXXXXXXXXXXXXXXX XXXXXXXXXXXXXXXX XXXXXXXXXXXXXXXX
05C0 : XXXXXXXXXXXXXXXX XXXXXXXXXXXXXXXX XXXXXX---------- ----------------
0600 : XXXXXXXXXXXXXXXX XXXXXXXXXXXXXXXX XXXXXXXXXXXXXXXX XXXXXXXXXXXXXXXX
0640 : XXXXXXXXXXXXXXXX XXXXXXXXXXXXXXXX XXXXXXXXXXXXXXXX XXXXXXXXXXXXXXXX
0680 : XXXXXXXXXXXXXXXX XXXXXXXXXXXXXXXX XXXXXXXXXXXXXXXX XXXXXXXXXXXXXXXX
06C0 : XXXXXXXXXXXXXXXX XXXXXXXXXXXXXXXX XXXXX----------- ----------------
0700 : XXXXXXXXXXXXXXXX XXXXXXXXXXXXXXXX XXXXXXXXXXXXXXXX XXXXXXXXXXXXXXXX
0740 : XXXXXXXXXXXXXXXX XXXXXXXXXXXXXXXX XXXXXXXXXXXXXXXX XXXXXXXXXXXXXXXX
0780 : XXXXXXXXXXXXXXXX XXXXXXXXXXXXXXXX XXXXXXXXXXXXXXXX XXXXXXXXXXXXXXXX
07C0 : XXXXXXXXXXXXXXXX XXXXXXXXXXXXXXXX XXXXX----------- ----------------
0800 : XXXXXXXXXXXXXXXX XXXXXXXXXXXXXXXX XXXXXXXXXXXXXXXX XXXXXXXXXXXXXXXX
0840 : XXXXXXXXXXXXXXXX XXXXXXXXXXXXXXXX XXXXXXXXXXXXXXXX XXXXXXXXXXXXXXXX
0880 : XXXXXXXXXXXXXXXX XXXXXX---------- ---------------- ----------------
0A00 : XXXXXXXXXXXXXXXX XXXXXXXXXXXXXXXX XXXXXXXXXXXXXXXX XXXXXXXXXXXXXXXX
0A40 : XXXXXXXXXXXXXXXX XXXXXXXXXXXXXXXX XXXXXXXXXXXXXXXX XXXXXXXXXXXXXXXX
0A80 : XXXXXXXXXXXXXXXX XXXXXXXXXXXXXXXX XXXXXXXXXXXXXXXX XXXXXXXXXXXXXXXX
0AC0 : XXXXXXXXXXXXXXXX XXXXXXXXXXXXXXXX XXXXXXXXXXXXXXXX XXXXXXXXXX------
0B00 : XXXXXXXXXXXXXXXX XXXXXXXXXXXXXXXX XXXXXXXXXXXXXXXX XXXXXXXXXXXXXXXX
0B40 : XXXXXXXXXXXXXX-- ---------------- ---------------- ----------------
2000 : -------X-------- ---------------- ---------------- ----------------
2100 : XXXX------------ ---------------- ---------------- ----------------

All other memory blocks unused.

Program Memory Words Used:  2137
Program Memory Words Free:  1959


Errors   :     0
Warnings :   141 reported,     0 suppressed
Messages :   674 reported,     0 suppressed

