;/////////////////////////////////////////////////////////////////////////////////
;// Code Generator: BoostC Compiler - http://www.sourceboost.com
;// Version       : 7.03
;// License Type  : Pro License
;// Limitations   : PIC12,PIC16 max code size:Unlimited, max RAM banks:Unlimited
;/////////////////////////////////////////////////////////////////////////////////

	ORG 0x00000000
0000  28E9  	GOTO	_startup
	ORG 0x00000004
0004  00FF  	MOVWF Int1Context
0005  0E03  	SWAPF STATUS, W
0006  1283  	BCF STATUS, RP0
0007  1303  	BCF STATUS, RP1
0008  00B4  	MOVWF Int1BContext
0009  0E0A  	SWAPF PCLATH, W
000A  00B5  	MOVWF Int1BContext+D'1'
000B  0E04  	SWAPF FSR, W
000C  00B6  	MOVWF Int1BContext+D'2'
000D  118A  	BCF PCLATH,3
000E  120A  	BCF PCLATH,4
000F  291A  	GOTO	interrupt
	ORG 0x00000010
0010        delay_ms_00000
0010        ; { delay_ms ; function begin
0010  08CD  	MOVF delay_ms_00000_arg_del, F
0011  1D03  	BTFSS STATUS,Z
0012  2814  	GOTO	label1
0013  0008  	RETURN
0014        label1
0014  30F9  	MOVLW 0xF9
0015        label2
0015  3EFF  	ADDLW 0xFF
0016  1D03  	BTFSS STATUS,Z
0017  2815  	GOTO	label2
0018  0000  	NOP
0019  0BCD  	DECFSZ delay_ms_00000_arg_del, F
001A  2814  	GOTO	label1
001B  0008  	RETURN
001C        ; } delay_ms function end

	ORG 0x0000001C
001C        FCM_stored_00051
001C        ; { FCM_stored_values ; function begin
001C  1283  	BCF STATUS, RP0
001D  1303  	BCF STATUS, RP1
001E  0846  	MOVF gbl_FCV_DIGIT, W
001F  3A01  	XORLW 0x01
0020  1903  	BTFSC STATUS,Z
0021  283E  	GOTO	label3
0022  3A03  	XORLW 0x03
0023  1903  	BTFSC STATUS,Z
0024  2841  	GOTO	label4
0025  3A01  	XORLW 0x01
0026  1903  	BTFSC STATUS,Z
0027  2844  	GOTO	label5
0028  3A07  	XORLW 0x07
0029  1903  	BTFSC STATUS,Z
002A  2847  	GOTO	label6
002B  3A01  	XORLW 0x01
002C  1903  	BTFSC STATUS,Z
002D  284A  	GOTO	label7
002E  3A03  	XORLW 0x03
002F  1903  	BTFSC STATUS,Z
0030  284D  	GOTO	label8
0031  3A01  	XORLW 0x01
0032  1903  	BTFSC STATUS,Z
0033  2850  	GOTO	label9
0034  3A0F  	XORLW 0x0F
0035  1903  	BTFSC STATUS,Z
0036  2853  	GOTO	label10
0037  3A01  	XORLW 0x01
0038  1903  	BTFSC STATUS,Z
0039  2856  	GOTO	label11
003A  3A09  	XORLW 0x09
003B  1903  	BTFSC STATUS,Z
003C  2859  	GOTO	label12
003D  0008  	RETURN
003E        label3
003E  309F  	MOVLW 0x9F
003F  00C8  	MOVWF gbl_FCV_VALUE
0040  0008  	RETURN
0041        label4
0041  3024  	MOVLW 0x24
0042  00C8  	MOVWF gbl_FCV_VALUE
0043  0008  	RETURN
0044        label5
0044  300D  	MOVLW 0x0D
0045  00C8  	MOVWF gbl_FCV_VALUE
0046  0008  	RETURN
0047        label6
0047  3099  	MOVLW 0x99
0048  00C8  	MOVWF gbl_FCV_VALUE
0049  0008  	RETURN
004A        label7
004A  3049  	MOVLW 0x49
004B  00C8  	MOVWF gbl_FCV_VALUE
004C  0008  	RETURN
004D        label8
004D  3041  	MOVLW 0x41
004E  00C8  	MOVWF gbl_FCV_VALUE
004F  0008  	RETURN
0050        label9
0050  301F  	MOVLW 0x1F
0051  00C8  	MOVWF gbl_FCV_VALUE
0052  0008  	RETURN
0053        label10
0053  3001  	MOVLW 0x01
0054  00C8  	MOVWF gbl_FCV_VALUE
0055  0008  	RETURN
0056        label11
0056  3009  	MOVLW 0x09
0057  00C8  	MOVWF gbl_FCV_VALUE
0058  0008  	RETURN
0059        label12
0059  3003  	MOVLW 0x03
005A  00C8  	MOVWF gbl_FCV_VALUE
005B  0008  	RETURN
005C        ; } FCM_stored_values function end

	ORG 0x0000005C
005C        main
005C        ; { main ; function begin
005C  1283  	BCF STATUS, RP0
005D  1703  	BSF STATUS, RP1
005E  019E  	CLRF gbl_ansel
005F  019F  	CLRF gbl_anselh
0060  30C0  	MOVLW 0xC0
0061  1683  	BSF STATUS, RP0
0062  1303  	BCF STATUS, RP1
0063  0081  	MOVWF gbl_option_reg
0064  3002  	MOVLW 0x02
0065  1283  	BCF STATUS, RP0
0066  00C6  	MOVWF gbl_FCV_DIGIT
0067  30EF  	MOVLW 0xEF
0068  1683  	BSF STATUS, RP0
0069  0507  	ANDWF gbl_trisc, W
006A  0087  	MOVWF gbl_trisc
006B  30EF  	MOVLW 0xEF
006C  1283  	BCF STATUS, RP0
006D  0507  	ANDWF gbl_portc, W
006E  00CD  	MOVWF CompTempVar2244
006F  3010  	MOVLW 0x10
0070  044D  	IORWF CompTempVar2244, W
0071  0087  	MOVWF gbl_portc
0072  30F7  	MOVLW 0xF7
0073  1683  	BSF STATUS, RP0
0074  0507  	ANDWF gbl_trisc, W
0075  0087  	MOVWF gbl_trisc
0076  30F7  	MOVLW 0xF7
0077  1283  	BCF STATUS, RP0
0078  0507  	ANDWF gbl_portc, W
0079  0087  	MOVWF gbl_portc
007A  30FB  	MOVLW 0xFB
007B  1683  	BSF STATUS, RP0
007C  0507  	ANDWF gbl_trisc, W
007D  0087  	MOVWF gbl_trisc
007E  30FB  	MOVLW 0xFB
007F  1283  	BCF STATUS, RP0
0080  0507  	ANDWF gbl_portc, W
0081  0087  	MOVWF gbl_portc
0082  30EF  	MOVLW 0xEF
0083  1683  	BSF STATUS, RP0
0084  0505  	ANDWF gbl_trisa, W
0085  0085  	MOVWF gbl_trisa
0086  30EF  	MOVLW 0xEF
0087  1283  	BCF STATUS, RP0
0088  0505  	ANDWF gbl_porta, W
0089  0085  	MOVWF gbl_porta
008A  30DF  	MOVLW 0xDF
008B  1683  	BSF STATUS, RP0
008C  0505  	ANDWF gbl_trisa, W
008D  0085  	MOVWF gbl_trisa
008E  30DF  	MOVLW 0xDF
008F  1283  	BCF STATUS, RP0
0090  0505  	ANDWF gbl_porta, W
0091  00CD  	MOVWF CompTempVar2245
0092  3020  	MOVLW 0x20
0093  044D  	IORWF CompTempVar2245, W
0094  0085  	MOVWF gbl_porta
0095        label13
0095  201C  	CALL FCM_stored_00051
0096  01CC  	CLRF gbl_FCLV_LOOP1
0097        label14
0097  3008  	MOVLW 0x08
0098  024C  	SUBWF gbl_FCLV_LOOP1, W
0099  1803  	BTFSC STATUS,C
009A  28D2  	GOTO	label17
009B  3001  	MOVLW 0x01
009C  0548  	ANDWF gbl_FCV_VALUE, W
009D  00CD  	MOVWF CompTempVar2246
009E  01CE  	CLRF CompTempVar2247
009F  08CD  	MOVF CompTempVar2246, F
00A0  1D03  	BTFSS STATUS,Z
00A1  144E  	BSF CompTempVar2247,0
00A2  1044  	BCF gbl_FCV_DAT,0
00A3  084E  	MOVF CompTempVar2247, W
00A4  1D03  	BTFSS STATUS,Z
00A5  1444  	BSF gbl_FCV_DAT,0
00A6  08C8  	MOVF gbl_FCV_VALUE, F
00A7  1003  	BCF STATUS,C
00A8  0CC8  	RRF gbl_FCV_VALUE, F
00A9  30DF  	MOVLW 0xDF
00AA  1683  	BSF STATUS, RP0
00AB  0507  	ANDWF gbl_trisc, W
00AC  0087  	MOVWF gbl_trisc
00AD  1283  	BCF STATUS, RP0
00AE  1C44  	BTFSS gbl_FCV_DAT,0
00AF  28B7  	GOTO	label15
00B0  30DF  	MOVLW 0xDF
00B1  0507  	ANDWF gbl_portc, W
00B2  00CD  	MOVWF CompTempVar2249
00B3  3020  	MOVLW 0x20
00B4  044D  	IORWF CompTempVar2249, W
00B5  0087  	MOVWF gbl_portc
00B6  28BA  	GOTO	label16
00B7        label15
00B7  30DF  	MOVLW 0xDF
00B8  0507  	ANDWF gbl_portc, W
00B9  0087  	MOVWF gbl_portc
00BA        label16
00BA  30EF  	MOVLW 0xEF
00BB  1683  	BSF STATUS, RP0
00BC  0507  	ANDWF gbl_trisc, W
00BD  0087  	MOVWF gbl_trisc
00BE  30EF  	MOVLW 0xEF
00BF  1283  	BCF STATUS, RP0
00C0  0507  	ANDWF gbl_portc, W
00C1  0087  	MOVWF gbl_portc
00C2  300A  	MOVLW 0x0A
00C3  00CD  	MOVWF delay_ms_00000_arg_del
00C4  2010  	CALL delay_ms_00000
00C5  30EF  	MOVLW 0xEF
00C6  1683  	BSF STATUS, RP0
00C7  0507  	ANDWF gbl_trisc, W
00C8  0087  	MOVWF gbl_trisc
00C9  30EF  	MOVLW 0xEF
00CA  1283  	BCF STATUS, RP0
00CB  0507  	ANDWF gbl_portc, W
00CC  00CD  	MOVWF CompTempVar2250
00CD  3010  	MOVLW 0x10
00CE  044D  	IORWF CompTempVar2250, W
00CF  0087  	MOVWF gbl_portc
00D0  0ACC  	INCF gbl_FCLV_LOOP1, F
00D1  2897  	GOTO	label14
00D2        label17
00D2  30F7  	MOVLW 0xF7
00D3  1683  	BSF STATUS, RP0
00D4  0507  	ANDWF gbl_trisc, W
00D5  0087  	MOVWF gbl_trisc
00D6  30F7  	MOVLW 0xF7
00D7  1283  	BCF STATUS, RP0
00D8  0507  	ANDWF gbl_portc, W
00D9  00CD  	MOVWF CompTempVar2251
00DA  3008  	MOVLW 0x08
00DB  044D  	IORWF CompTempVar2251, W
00DC  0087  	MOVWF gbl_portc
00DD  3001  	MOVLW 0x01
00DE  00CD  	MOVWF delay_ms_00000_arg_del
00DF  2010  	CALL delay_ms_00000
00E0  30F7  	MOVLW 0xF7
00E1  1683  	BSF STATUS, RP0
00E2  0507  	ANDWF gbl_trisc, W
00E3  0087  	MOVWF gbl_trisc
00E4  30F7  	MOVLW 0xF7
00E5  1283  	BCF STATUS, RP0
00E6  0507  	ANDWF gbl_portc, W
00E7  0087  	MOVWF gbl_portc
00E8  2895  	GOTO	label13
00E9        ; } main function end

	ORG 0x000000E9
00E9        _startup
00E9  30D5  	MOVLW 0xD5
00EA  1283  	BCF STATUS, RP0
00EB  1303  	BCF STATUS, RP1
00EC  00A0  	MOVWF gbl_14_LSR
00ED  30C4  	MOVLW 0xC4
00EE  00A1  	MOVWF gbl_14_LSR+D'1'
00EF  30BB  	MOVLW 0xBB
00F0  00A2  	MOVWF gbl_14_LSR+D'2'
00F1  30DC  	MOVLW 0xDC
00F2  00A3  	MOVWF gbl_14_LSR+D'3'
00F3  01A4  	CLRF gbl_15_gbl_aSig
00F4  01A5  	CLRF gbl_15_gbl_aSig+D'1'
00F5  01A6  	CLRF gbl_15_gbl_aSig+D'2'
00F6  01A7  	CLRF gbl_15_gbl_aSig+D'3'
00F7  01A8  	CLRF gbl_15_gbl_bSig
00F8  01A9  	CLRF gbl_15_gbl_bSig+D'1'
00F9  01AA  	CLRF gbl_15_gbl_bSig+D'2'
00FA  01AB  	CLRF gbl_15_gbl_bSig+D'3'
00FB  01AC  	CLRF gbl_15_gbl_zSig
00FC  01AD  	CLRF gbl_15_gbl_zSig+D'1'
00FD  01AE  	CLRF gbl_15_gbl_zSig+D'2'
00FE  01AF  	CLRF gbl_15_gbl_zSig+D'3'
00FF  01BE  	CLRF gbl_15_gbl_aExp
0100  01BF  	CLRF gbl_15_gbl_bExp
0101  01B7  	CLRF gbl_15_gbl_zExp
0102  01B8  	CLRF gbl_15_gbl_zExp+D'1'
0103  01C0  	CLRF gbl_15_gbl_aSign
0104  01C1  	CLRF gbl_15_gbl_bSign
0105  01C2  	CLRF gbl_15_gbl_zSign
0106  01C3  	CLRF gbl_15_gbl_zSigZero
0107  01B0  	CLRF gbl_15_gbl_ret
0108  01B1  	CLRF gbl_15_gbl_ret+D'1'
0109  01B2  	CLRF gbl_15_gbl_ret+D'2'
010A  01B3  	CLRF gbl_15_gbl_ret+D'3'
010B  01BC  	CLRF gbl_float_rounding_mode
010C  01BD  	CLRF gbl_float_exception_flags
010D  01BB  	CLRF gbl_float_detect_tininess
010E  01B9  	CLRF gbl_FCV_VOLTAGE
010F  01BA  	CLRF gbl_FCV_VOLTAGE+D'1'
0110  10C4  	BCF gbl_FCV_SWITCH,1
0111  01C5  	CLRF gbl_FCV_EEPROMREAD_ANALOG
0112  01C7  	CLRF gbl_FCV_COUNT
0113  1144  	BCF gbl_FCV_FLAG,2
0114  01C9  	CLRF gbl_FCV_ANALOG2
0115  01CA  	CLRF gbl_FCV_INIT
0116  01CB  	CLRF gbl_FCV_ANALOG
0117  118A  	BCF PCLATH,3
0118  120A  	BCF PCLATH,4
0119  285C  	GOTO	main
	ORG 0x0000011A
011A        interrupt
011A        ; { interrupt ; function begin
011A  1283  	BCF STATUS, RP0
011B  1303  	BCF STATUS, RP1
011C  0E36  	SWAPF Int1BContext+D'2', W
011D  0084  	MOVWF FSR
011E  0E35  	SWAPF Int1BContext+D'1', W
011F  008A  	MOVWF PCLATH
0120  0E34  	SWAPF Int1BContext, W
0121  0083  	MOVWF STATUS
0122  0EFF  	SWAPF Int1Context, F
0123  0E7F  	SWAPF Int1Context, W
0124  0009  	RETFIE
0125        ; } interrupt function end

	ORG 0x00002007
2007  30F4  	DW 0x30F4
