;/////////////////////////////////////////////////////////////////////////////////
;// Code Generator: BoostC Compiler - http://www.sourceboost.com
;// Version       : 7.03
;// License Type  : Pro License
;// Limitations   : PIC12,PIC16 max code size:Unlimited, max RAM banks:Unlimited
;/////////////////////////////////////////////////////////////////////////////////

	ORG 0x00000000
0000  29BE  	GOTO	_startup
	ORG 0x00000004
0004  00FF  	MOVWF Int1Context
0005  0E03  	SWAPF STATUS, W
0006  1283  	BCF STATUS, RP0
0007  1303  	BCF STATUS, RP1
0008  00B9  	MOVWF Int1BContext
0009  0E0A  	SWAPF PCLATH, W
000A  00BA  	MOVWF Int1BContext+D'1'
000B  0E04  	SWAPF FSR, W
000C  00BB  	MOVWF Int1BContext+D'2'
000D  118A  	BCF PCLATH,3
000E  120A  	BCF PCLATH,4
000F  29ED  	GOTO	interrupt
	ORG 0x00000010
0010        delay_us_00000
0010        ; { delay_us ; function begin
0010  3003  	MOVLW 0x03
0011  07DC  	ADDWF delay_us_00000_arg_del, F
0012  0CDC  	RRF delay_us_00000_arg_del, F
0013  0CDC  	RRF delay_us_00000_arg_del, F
0014  307F  	MOVLW 0x7F
0015  05DC  	ANDWF delay_us_00000_arg_del, F
0016        label1
0016  0000  	NOP
0017  0BDC  	DECFSZ delay_us_00000_arg_del, F
0018  2816  	GOTO	label1
0019  0008  	RETURN
001A        ; } delay_us function end

	ORG 0x0000001A
001A        FC_CAL_UAR_00058
001A        ; { FC_CAL_UART_Receive_1 ; function begin
001A  30FF  	MOVLW 0xFF
001B  00D6  	MOVWF FC_CAL_UAR_00058_1_retVal
001C  01D7  	CLRF FC_CAL_UAR_00058_1_delay1
001D  01D8  	CLRF FC_CAL_UAR_00058_1_regcheck
001E  01D9  	CLRF FC_CAL_UAR_00058_1_bWaitForever
001F  01DA  	CLRF FC_CAL_UAR_00058_1_rxStatus
0020  01DB  	CLRF FC_CAL_UAR_00058_1_dummy
0021  0A55  	INCF FC_CAL_UAR_00058_arg_nTimeout, W
0022  1D03  	BTFSS STATUS,Z
0023  2826  	GOTO	label2
0024  3001  	MOVLW 0x01
0025  00D9  	MOVWF FC_CAL_UAR_00058_1_bWaitForever
0026        label2
0026  08DA  	MOVF FC_CAL_UAR_00058_1_rxStatus, F
0027  1D03  	BTFSS STATUS,Z
0028  2848  	GOTO	label5
0029  08D9  	MOVF FC_CAL_UAR_00058_1_bWaitForever, F
002A  1D03  	BTFSS STATUS,Z
002B  283F  	GOTO	label4
002C  08D5  	MOVF FC_CAL_UAR_00058_arg_nTimeout, F
002D  1D03  	BTFSS STATUS,Z
002E  2832  	GOTO	label3
002F  3001  	MOVLW 0x01
0030  00DA  	MOVWF FC_CAL_UAR_00058_1_rxStatus
0031  283F  	GOTO	label4
0032        label3
0032  300A  	MOVLW 0x0A
0033  00DC  	MOVWF delay_us_00000_arg_del
0034  2010  	CALL delay_us_00000
0035  0A57  	INCF FC_CAL_UAR_00058_1_delay1, W
0036  00D7  	MOVWF FC_CAL_UAR_00058_1_delay1
0037  0857  	MOVF FC_CAL_UAR_00058_1_delay1, W
0038  3A64  	XORLW 0x64
0039  1D03  	BTFSS STATUS,Z
003A  283F  	GOTO	label4
003B  0355  	DECF FC_CAL_UAR_00058_arg_nTimeout, W
003C  00D5  	MOVWF FC_CAL_UAR_00058_arg_nTimeout
003D  0064  	CLRWDT
003E  01D7  	CLRF FC_CAL_UAR_00058_1_delay1
003F        label4
003F  3020  	MOVLW 0x20
0040  050C  	ANDWF gbl_pir1, W
0041  00D8  	MOVWF FC_CAL_UAR_00058_1_regcheck
0042  08D8  	MOVF FC_CAL_UAR_00058_1_regcheck, F
0043  1903  	BTFSC STATUS,Z
0044  2826  	GOTO	label2
0045  3002  	MOVLW 0x02
0046  00DA  	MOVWF FC_CAL_UAR_00058_1_rxStatus
0047  2826  	GOTO	label2
0048        label5
0048  085A  	MOVF FC_CAL_UAR_00058_1_rxStatus, W
0049  3A02  	XORLW 0x02
004A  1D03  	BTFSS STATUS,Z
004B  2862  	GOTO	label8
004C  3004  	MOVLW 0x04
004D  0518  	ANDWF gbl_rcsta, W
004E  00D8  	MOVWF FC_CAL_UAR_00058_1_regcheck
004F  08D8  	MOVF FC_CAL_UAR_00058_1_regcheck, F
0050  1903  	BTFSC STATUS,Z
0051  2855  	GOTO	label6
0052  081A  	MOVF gbl_rcreg, W
0053  00DB  	MOVWF FC_CAL_UAR_00058_1_dummy
0054  2862  	GOTO	label8
0055        label6
0055  3002  	MOVLW 0x02
0056  0518  	ANDWF gbl_rcsta, W
0057  00D8  	MOVWF FC_CAL_UAR_00058_1_regcheck
0058  08D8  	MOVF FC_CAL_UAR_00058_1_regcheck, F
0059  1903  	BTFSC STATUS,Z
005A  285E  	GOTO	label7
005B  1218  	BCF gbl_rcsta,4
005C  1618  	BSF gbl_rcsta,4
005D  2862  	GOTO	label8
005E        label7
005E  01D6  	CLRF FC_CAL_UAR_00058_1_retVal
005F  081A  	MOVF gbl_rcreg, W
0060  0456  	IORWF FC_CAL_UAR_00058_1_retVal, W
0061  00D6  	MOVWF FC_CAL_UAR_00058_1_retVal
0062        label8
0062  0856  	MOVF FC_CAL_UAR_00058_1_retVal, W
0063  00DC  	MOVWF CompTempVarRet2204
0064  01DD  	CLRF CompTempVarRet2204+D'1'
0065  0008  	RETURN
0066        ; } FC_CAL_UART_Receive_1 function end

	ORG 0x00000066
0066        FC_CAL_UAR_00057
0066        ; { FC_CAL_UART_Send_1 ; function begin
0066        label9
0066  1E0C  	BTFSS gbl_pir1,4
0067  2866  	GOTO	label9
0068  0856  	MOVF FC_CAL_UAR_00057_arg_nChar, W
0069  0099  	MOVWF gbl_txreg
006A  0008  	RETURN
006B        ; } FC_CAL_UART_Send_1 function end

	ORG 0x0000006B
006B        FCM_databa_00051
006B        ; { FCM_databank ; function begin
006B  1283  	BCF STATUS, RP0
006C  1303  	BCF STATUS, RP1
006D  084D  	MOVF gbl_FCV_DIGIT, W
006E  3A01  	XORLW 0x01
006F  1903  	BTFSC STATUS,Z
0070  288D  	GOTO	label10
0071  3A03  	XORLW 0x03
0072  1903  	BTFSC STATUS,Z
0073  2890  	GOTO	label11
0074  3A01  	XORLW 0x01
0075  1903  	BTFSC STATUS,Z
0076  2893  	GOTO	label12
0077  3A07  	XORLW 0x07
0078  1903  	BTFSC STATUS,Z
0079  2896  	GOTO	label13
007A  3A01  	XORLW 0x01
007B  1903  	BTFSC STATUS,Z
007C  2899  	GOTO	label14
007D  3A03  	XORLW 0x03
007E  1903  	BTFSC STATUS,Z
007F  289C  	GOTO	label15
0080  3A01  	XORLW 0x01
0081  1903  	BTFSC STATUS,Z
0082  289F  	GOTO	label16
0083  3A0F  	XORLW 0x0F
0084  1903  	BTFSC STATUS,Z
0085  28A2  	GOTO	label17
0086  3A01  	XORLW 0x01
0087  1903  	BTFSC STATUS,Z
0088  28A5  	GOTO	label18
0089  3A09  	XORLW 0x09
008A  1903  	BTFSC STATUS,Z
008B  28A8  	GOTO	label19
008C  0008  	RETURN
008D        label10
008D  3030  	MOVLW 0x30
008E  00CA  	MOVWF gbl_FCV_BITS
008F  0008  	RETURN
0090        label11
0090  305B  	MOVLW 0x5B
0091  00CA  	MOVWF gbl_FCV_BITS
0092  0008  	RETURN
0093        label12
0093  3079  	MOVLW 0x79
0094  00CA  	MOVWF gbl_FCV_BITS
0095  0008  	RETURN
0096        label13
0096  3074  	MOVLW 0x74
0097  00CA  	MOVWF gbl_FCV_BITS
0098  0008  	RETURN
0099        label14
0099  306D  	MOVLW 0x6D
009A  00CA  	MOVWF gbl_FCV_BITS
009B  0008  	RETURN
009C        label15
009C  306F  	MOVLW 0x6F
009D  00CA  	MOVWF gbl_FCV_BITS
009E  0008  	RETURN
009F        label16
009F  3038  	MOVLW 0x38
00A0  00CA  	MOVWF gbl_FCV_BITS
00A1  0008  	RETURN
00A2        label17
00A2  307F  	MOVLW 0x7F
00A3  00CA  	MOVWF gbl_FCV_BITS
00A4  0008  	RETURN
00A5        label18
00A5  307D  	MOVLW 0x7D
00A6  00CA  	MOVWF gbl_FCV_BITS
00A7  0008  	RETURN
00A8        label19
00A8  303F  	MOVLW 0x3F
00A9  00CA  	MOVWF gbl_FCV_BITS
00AA  0008  	RETURN
00AB        ; } FCM_databank function end

	ORG 0x000000AB
00AB        FCM_displa_00052
00AB        ; { FCM_display ; function begin
00AB  3030  	MOVLW 0x30
00AC  1283  	BCF STATUS, RP0
00AD  1303  	BCF STATUS, RP1
00AE  024C  	SUBWF gbl_FCV_TENS, W
00AF  00CD  	MOVWF gbl_FCV_DIGIT
00B0  206B  	CALL FCM_databa_00051
00B1  01D1  	CLRF gbl_FCLV_LOOP1
00B2        label20
00B2  3008  	MOVLW 0x08
00B3  0251  	SUBWF gbl_FCLV_LOOP1, W
00B4  1803  	BTFSC STATUS,C
00B5  28F3  	GOTO	label23
00B6  3001  	MOVLW 0x01
00B7  054A  	ANDWF gbl_FCV_BITS, W
00B8  00D4  	MOVWF CompTempVar2188
00B9  01D5  	CLRF CompTempVar2189
00BA  08D4  	MOVF CompTempVar2188, F
00BB  1D03  	BTFSS STATUS,Z
00BC  1455  	BSF CompTempVar2189,0
00BD  1049  	BCF gbl_FCV_DAT,0
00BE  0855  	MOVF CompTempVar2189, W
00BF  1D03  	BTFSS STATUS,Z
00C0  1449  	BSF gbl_FCV_DAT,0
00C1  30FB  	MOVLW 0xFB
00C2  1683  	BSF STATUS, RP0
00C3  0507  	ANDWF gbl_trisc, W
00C4  0087  	MOVWF gbl_trisc
00C5  1283  	BCF STATUS, RP0
00C6  1C49  	BTFSS gbl_FCV_DAT,0
00C7  28CF  	GOTO	label21
00C8  30FB  	MOVLW 0xFB
00C9  0507  	ANDWF gbl_portc, W
00CA  00D4  	MOVWF CompTempVar2190
00CB  3004  	MOVLW 0x04
00CC  0454  	IORWF CompTempVar2190, W
00CD  0087  	MOVWF gbl_portc
00CE  28D2  	GOTO	label22
00CF        label21
00CF  30FB  	MOVLW 0xFB
00D0  0507  	ANDWF gbl_portc, W
00D1  0087  	MOVWF gbl_portc
00D2        label22
00D2  3001  	MOVLW 0x01
00D3  00DC  	MOVWF delay_us_00000_arg_del
00D4  2010  	CALL delay_us_00000
00D5  30FE  	MOVLW 0xFE
00D6  1683  	BSF STATUS, RP0
00D7  0507  	ANDWF gbl_trisc, W
00D8  0087  	MOVWF gbl_trisc
00D9  30FE  	MOVLW 0xFE
00DA  1283  	BCF STATUS, RP0
00DB  0507  	ANDWF gbl_portc, W
00DC  00D4  	MOVWF CompTempVar2191
00DD  3001  	MOVLW 0x01
00DE  0454  	IORWF CompTempVar2191, W
00DF  0087  	MOVWF gbl_portc
00E0  3001  	MOVLW 0x01
00E1  00DC  	MOVWF delay_us_00000_arg_del
00E2  2010  	CALL delay_us_00000
00E3  30FE  	MOVLW 0xFE
00E4  1683  	BSF STATUS, RP0
00E5  0507  	ANDWF gbl_trisc, W
00E6  0087  	MOVWF gbl_trisc
00E7  30FE  	MOVLW 0xFE
00E8  1283  	BCF STATUS, RP0
00E9  0507  	ANDWF gbl_portc, W
00EA  0087  	MOVWF gbl_portc
00EB  3001  	MOVLW 0x01
00EC  00DC  	MOVWF delay_us_00000_arg_del
00ED  2010  	CALL delay_us_00000
00EE  08CA  	MOVF gbl_FCV_BITS, F
00EF  1003  	BCF STATUS,C
00F0  0CCA  	RRF gbl_FCV_BITS, F
00F1  0AD1  	INCF gbl_FCLV_LOOP1, F
00F2  28B2  	GOTO	label20
00F3        label23
00F3  3030  	MOVLW 0x30
00F4  024F  	SUBWF gbl_FCV_ONES, W
00F5  00CD  	MOVWF gbl_FCV_DIGIT
00F6  206B  	CALL FCM_databa_00051
00F7  01D2  	CLRF gbl_FCLV_LOOP2
00F8        label24
00F8  3008  	MOVLW 0x08
00F9  0252  	SUBWF gbl_FCLV_LOOP2, W
00FA  1803  	BTFSC STATUS,C
00FB  2939  	GOTO	label27
00FC  3001  	MOVLW 0x01
00FD  054A  	ANDWF gbl_FCV_BITS, W
00FE  00D4  	MOVWF CompTempVar2193
00FF  01D5  	CLRF CompTempVar2194
0100  08D4  	MOVF CompTempVar2193, F
0101  1D03  	BTFSS STATUS,Z
0102  1455  	BSF CompTempVar2194,0
0103  1049  	BCF gbl_FCV_DAT,0
0104  0855  	MOVF CompTempVar2194, W
0105  1D03  	BTFSS STATUS,Z
0106  1449  	BSF gbl_FCV_DAT,0
0107  30FB  	MOVLW 0xFB
0108  1683  	BSF STATUS, RP0
0109  0507  	ANDWF gbl_trisc, W
010A  0087  	MOVWF gbl_trisc
010B  1283  	BCF STATUS, RP0
010C  1C49  	BTFSS gbl_FCV_DAT,0
010D  2915  	GOTO	label25
010E  30FB  	MOVLW 0xFB
010F  0507  	ANDWF gbl_portc, W
0110  00D4  	MOVWF CompTempVar2195
0111  3004  	MOVLW 0x04
0112  0454  	IORWF CompTempVar2195, W
0113  0087  	MOVWF gbl_portc
0114  2918  	GOTO	label26
0115        label25
0115  30FB  	MOVLW 0xFB
0116  0507  	ANDWF gbl_portc, W
0117  0087  	MOVWF gbl_portc
0118        label26
0118  3001  	MOVLW 0x01
0119  00DC  	MOVWF delay_us_00000_arg_del
011A  2010  	CALL delay_us_00000
011B  30FE  	MOVLW 0xFE
011C  1683  	BSF STATUS, RP0
011D  0507  	ANDWF gbl_trisc, W
011E  0087  	MOVWF gbl_trisc
011F  30FE  	MOVLW 0xFE
0120  1283  	BCF STATUS, RP0
0121  0507  	ANDWF gbl_portc, W
0122  00D4  	MOVWF CompTempVar2196
0123  3001  	MOVLW 0x01
0124  0454  	IORWF CompTempVar2196, W
0125  0087  	MOVWF gbl_portc
0126  3001  	MOVLW 0x01
0127  00DC  	MOVWF delay_us_00000_arg_del
0128  2010  	CALL delay_us_00000
0129  30FE  	MOVLW 0xFE
012A  1683  	BSF STATUS, RP0
012B  0507  	ANDWF gbl_trisc, W
012C  0087  	MOVWF gbl_trisc
012D  30FE  	MOVLW 0xFE
012E  1283  	BCF STATUS, RP0
012F  0507  	ANDWF gbl_portc, W
0130  0087  	MOVWF gbl_portc
0131  3001  	MOVLW 0x01
0132  00DC  	MOVWF delay_us_00000_arg_del
0133  2010  	CALL delay_us_00000
0134  08CA  	MOVF gbl_FCV_BITS, F
0135  1003  	BCF STATUS,C
0136  0CCA  	RRF gbl_FCV_BITS, F
0137  0AD2  	INCF gbl_FCLV_LOOP2, F
0138  28F8  	GOTO	label24
0139        label27
0139  30FD  	MOVLW 0xFD
013A  1683  	BSF STATUS, RP0
013B  0507  	ANDWF gbl_trisc, W
013C  0087  	MOVWF gbl_trisc
013D  30FD  	MOVLW 0xFD
013E  1283  	BCF STATUS, RP0
013F  0507  	ANDWF gbl_portc, W
0140  00D4  	MOVWF CompTempVar2198
0141  3002  	MOVLW 0x02
0142  0454  	IORWF CompTempVar2198, W
0143  0087  	MOVWF gbl_portc
0144  3001  	MOVLW 0x01
0145  00DC  	MOVWF delay_us_00000_arg_del
0146  2010  	CALL delay_us_00000
0147  30FD  	MOVLW 0xFD
0148  1683  	BSF STATUS, RP0
0149  0507  	ANDWF gbl_trisc, W
014A  0087  	MOVWF gbl_trisc
014B  30FD  	MOVLW 0xFD
014C  1283  	BCF STATUS, RP0
014D  0507  	ANDWF gbl_portc, W
014E  0087  	MOVWF gbl_portc
014F  3001  	MOVLW 0x01
0150  00DC  	MOVWF delay_us_00000_arg_del
0151  2010  	CALL delay_us_00000
0152  0008  	RETURN
0153        ; } FCM_display function end

	ORG 0x00000153
0153        FCD_RS2320_00055
0153        ; { FCD_RS2320_SendRS232Char ; function begin
0153  0854  	MOVF FCD_RS2320_00055_arg_nChar, W
0154  00D6  	MOVWF FC_CAL_UAR_00057_arg_nChar
0155  0855  	MOVF FCD_RS2320_00055_arg_nChar+D'1', W
0156  00D7  	MOVWF FC_CAL_UAR_00057_arg_nChar+D'1'
0157  2066  	CALL FC_CAL_UAR_00057
0158  0008  	RETURN
0159        ; } FCD_RS2320_SendRS232Char function end

	ORG 0x00000159
0159        FCD_RS2320_00054
0159        ; { FCD_RS2320_ReceiveRS232Char ; function begin
0159  0854  	MOVF FCD_RS2320_00054_arg_nTimeout, W
015A  00D5  	MOVWF FC_CAL_UAR_00058_arg_nTimeout
015B  201A  	CALL FC_CAL_UAR_00058
015C  085C  	MOVF CompTempVarRet2204, W
015D  00D6  	MOVWF CompTempVarRet2203
015E  085D  	MOVF CompTempVarRet2204+D'1', W
015F  00D7  	MOVWF CompTempVarRet2203+D'1'
0160  0008  	RETURN
0161        ; } FCD_RS2320_ReceiveRS232Char function end

	ORG 0x00000161
0161        FC_CAL_UAR_00056
0161        ; { FC_CAL_UART_Init_1 ; function begin
0161  1683  	BSF STATUS, RP0
0162  1303  	BCF STATUS, RP1
0163  1518  	BSF gbl_txsta,2
0164  3019  	MOVLW 0x19
0165  0099  	MOVWF gbl_spbrg
0166  1283  	BCF STATUS, RP0
0167  0198  	CLRF gbl_rcsta
0168  1798  	BSF gbl_rcsta,7
0169  1683  	BSF STATUS, RP0
016A  1698  	BSF gbl_txsta,5
016B  1283  	BCF STATUS, RP0
016C  1618  	BSF gbl_rcsta,4
016D  1683  	BSF STATUS, RP0
016E  128C  	BCF gbl_pie1,5
016F  0008  	RETURN
0170        ; } FC_CAL_UART_Init_1 function end

	ORG 0x00000170
0170        FCM_Data_r_00053
0170        ; { FCM_Data_recv ; function begin
0170  1283  	BCF STATUS, RP0
0171  1303  	BCF STATUS, RP1
0172  01D0  	CLRF gbl_FCV_RX_COUNT
0173  01D3  	CLRF gbl_FCLV_LOOP3
0174        label28
0174  3003  	MOVLW 0x03
0175  0253  	SUBWF gbl_FCLV_LOOP3, W
0176  1803  	BTFSC STATUS,C
0177  2988  	GOTO	label29
0178  3019  	MOVLW 0x19
0179  00D4  	MOVWF FCD_RS2320_00054_arg_nTimeout
017A  2159  	CALL FCD_RS2320_00054
017B  0856  	MOVF CompTempVarRet2203, W
017C  00C7  	MOVWF gbl_FCV_RECIEVE
017D  1383  	BCF	STATUS,IRP
017E  3020  	MOVLW LOW(gbl_FCV_RECV+D'0')
017F  0084  	MOVWF FSR
0180  0850  	MOVF gbl_FCV_RX_COUNT, W
0181  0784  	ADDWF FSR, F
0182  0847  	MOVF gbl_FCV_RECIEVE, W
0183  0080  	MOVWF INDF
0184  0A50  	INCF gbl_FCV_RX_COUNT, W
0185  00D0  	MOVWF gbl_FCV_RX_COUNT
0186  0AD3  	INCF gbl_FCLV_LOOP3, F
0187  2974  	GOTO	label28
0188        label29
0188  0821  	MOVF gbl_FCV_RECV+D'1', W
0189  3A6F  	XORLW 0x6F
018A  1D03  	BTFSS STATUS,Z
018B  0008  	RETURN
018C  0820  	MOVF gbl_FCV_RECV, W
018D  00CC  	MOVWF gbl_FCV_TENS
018E  0822  	MOVF gbl_FCV_RECV+D'2', W
018F  00CF  	MOVWF gbl_FCV_ONES
0190  084F  	MOVF gbl_FCV_ONES, W
0191  00D4  	MOVWF FCD_RS2320_00055_arg_nChar
0192  01D5  	CLRF FCD_RS2320_00055_arg_nChar+D'1'
0193  2153  	CALL FCD_RS2320_00055
0194  084C  	MOVF gbl_FCV_TENS, W
0195  00D4  	MOVWF FCD_RS2320_00055_arg_nChar
0196  01D5  	CLRF FCD_RS2320_00055_arg_nChar+D'1'
0197  2153  	CALL FCD_RS2320_00055
0198  20AB  	CALL FCM_displa_00052
0199  0008  	RETURN
019A        ; } FCM_Data_recv function end

	ORG 0x0000019A
019A        main
019A        ; { main ; function begin
019A  1283  	BCF STATUS, RP0
019B  1703  	BSF STATUS, RP1
019C  019E  	CLRF gbl_ansel
019D  019F  	CLRF gbl_anselh
019E  2161  	CALL FC_CAL_UAR_00056
019F  30C0  	MOVLW 0xC0
01A0  0081  	MOVWF gbl_option_reg
01A1  30FE  	MOVLW 0xFE
01A2  0507  	ANDWF gbl_trisc, W
01A3  0087  	MOVWF gbl_trisc
01A4  30FE  	MOVLW 0xFE
01A5  1283  	BCF STATUS, RP0
01A6  0507  	ANDWF gbl_portc, W
01A7  0087  	MOVWF gbl_portc
01A8  30FD  	MOVLW 0xFD
01A9  1683  	BSF STATUS, RP0
01AA  0507  	ANDWF gbl_trisc, W
01AB  0087  	MOVWF gbl_trisc
01AC  30FD  	MOVLW 0xFD
01AD  1283  	BCF STATUS, RP0
01AE  0507  	ANDWF gbl_portc, W
01AF  0087  	MOVWF gbl_portc
01B0  3009  	MOVLW 0x09
01B1  00CC  	MOVWF gbl_FCV_TENS
01B2  00CF  	MOVWF gbl_FCV_ONES
01B3  20AB  	CALL FCM_displa_00052
01B4        label30
01B4  3064  	MOVLW 0x64
01B5  00D4  	MOVWF FCD_RS2320_00054_arg_nTimeout
01B6  2159  	CALL FCD_RS2320_00054
01B7  0856  	MOVF CompTempVarRet2203, W
01B8  00C7  	MOVWF gbl_FCV_RECIEVE
01B9  0847  	MOVF gbl_FCV_RECIEVE, W
01BA  3A74  	XORLW 0x74
01BB  1903  	BTFSC STATUS,Z
01BC  2170  	CALL FCM_Data_r_00053
01BD  29B4  	GOTO	label30
01BE        ; } main function end

	ORG 0x000001BE
01BE        _startup
01BE  30D5  	MOVLW 0xD5
01BF  1283  	BCF STATUS, RP0
01C0  1303  	BCF STATUS, RP1
01C1  00A5  	MOVWF gbl_14_LSR
01C2  30C4  	MOVLW 0xC4
01C3  00A6  	MOVWF gbl_14_LSR+D'1'
01C4  30BB  	MOVLW 0xBB
01C5  00A7  	MOVWF gbl_14_LSR+D'2'
01C6  30DC  	MOVLW 0xDC
01C7  00A8  	MOVWF gbl_14_LSR+D'3'
01C8  01A9  	CLRF gbl_15_gbl_aSig
01C9  01AA  	CLRF gbl_15_gbl_aSig+D'1'
01CA  01AB  	CLRF gbl_15_gbl_aSig+D'2'
01CB  01AC  	CLRF gbl_15_gbl_aSig+D'3'
01CC  01AD  	CLRF gbl_15_gbl_bSig
01CD  01AE  	CLRF gbl_15_gbl_bSig+D'1'
01CE  01AF  	CLRF gbl_15_gbl_bSig+D'2'
01CF  01B0  	CLRF gbl_15_gbl_bSig+D'3'
01D0  01B1  	CLRF gbl_15_gbl_zSig
01D1  01B2  	CLRF gbl_15_gbl_zSig+D'1'
01D2  01B3  	CLRF gbl_15_gbl_zSig+D'2'
01D3  01B4  	CLRF gbl_15_gbl_zSig+D'3'
01D4  01C1  	CLRF gbl_15_gbl_aExp
01D5  01C2  	CLRF gbl_15_gbl_bExp
01D6  01BC  	CLRF gbl_15_gbl_zExp
01D7  01BD  	CLRF gbl_15_gbl_zExp+D'1'
01D8  01C3  	CLRF gbl_15_gbl_aSign
01D9  01C4  	CLRF gbl_15_gbl_bSign
01DA  01C5  	CLRF gbl_15_gbl_zSign
01DB  01C6  	CLRF gbl_15_gbl_zSigZero
01DC  01B5  	CLRF gbl_15_gbl_ret
01DD  01B6  	CLRF gbl_15_gbl_ret+D'1'
01DE  01B7  	CLRF gbl_15_gbl_ret+D'2'
01DF  01B8  	CLRF gbl_15_gbl_ret+D'3'
01E0  01BF  	CLRF gbl_float_rounding_mode
01E1  01C0  	CLRF gbl_float_exception_flags
01E2  01BE  	CLRF gbl_float_detect_tininess
01E3  01C8  	CLRF gbl_FCV_TEMO_TENS
01E4  1049  	BCF gbl_FCV_DAT,0
01E5  01CB  	CLRF gbl_FCV_TEMP_ONES
01E6  01CC  	CLRF gbl_FCV_TENS
01E7  01CE  	CLRF gbl_FCV_COUNT
01E8  01CF  	CLRF gbl_FCV_ONES
01E9  01D0  	CLRF gbl_FCV_RX_COUNT
01EA  118A  	BCF PCLATH,3
01EB  120A  	BCF PCLATH,4
01EC  299A  	GOTO	main
	ORG 0x000001ED
01ED        interrupt
01ED        ; { interrupt ; function begin
01ED  1283  	BCF STATUS, RP0
01EE  1303  	BCF STATUS, RP1
01EF  0E3B  	SWAPF Int1BContext+D'2', W
01F0  0084  	MOVWF FSR
01F1  0E3A  	SWAPF Int1BContext+D'1', W
01F2  008A  	MOVWF PCLATH
01F3  0E39  	SWAPF Int1BContext, W
01F4  0083  	MOVWF STATUS
01F5  0EFF  	SWAPF Int1Context, F
01F6  0E7F  	SWAPF Int1Context, W
01F7  0009  	RETFIE
01F8        ; } interrupt function end

	ORG 0x00002007
2007  30D4  	DW 0x30D4
