;/////////////////////////////////////////////////////////////////////////////////
;// Code Generator: BoostC Compiler - http://www.sourceboost.com
;// Version       : 7.03
;// License Type  : Pro License
;// Limitations   : PIC12,PIC16 max code size:Unlimited, max RAM banks:Unlimited
;/////////////////////////////////////////////////////////////////////////////////

	ORG 0x00000000
0000  2DCC  	GOTO	_startup
	ORG 0x00000004
0004  00FF  	MOVWF Int1Context
0005  0E03  	SWAPF STATUS, W
0006  1283  	BCF STATUS, RP0
0007  1303  	BCF STATUS, RP1
0008  00CF  	MOVWF Int1BContext
0009  0E0A  	SWAPF PCLATH, W
000A  00D0  	MOVWF Int1BContext+D'1'
000B  0E04  	SWAPF FSR, W
000C  00D1  	MOVWF Int1BContext+D'2'
000D  118A  	BCF PCLATH,3
000E  120A  	BCF PCLATH,4
000F  2E15  	GOTO	interrupt
	ORG 0x00000010
0010        delay_us_00000
0010        ; { delay_us ; function begin
0010        label1
0010  0000  	NOP
0011  0000  	NOP
0012  0BAE  	DECFSZ delay_us_00000_arg_del, F
0013  2810  	GOTO	label1
0014  0008  	RETURN
0015        ; } delay_us function end

	ORG 0x00000015
0015        delay_ms_00000
0015        ; { delay_ms ; function begin
0015  08FC  	MOVF delay_ms_00000_arg_del, F
0016  1D03  	BTFSS STATUS,Z
0017  2819  	GOTO	label2
0018  0008  	RETURN
0019        label2
0019  30F9  	MOVLW 0xF9
001A        label3
001A  0000  	NOP
001B  0000  	NOP
001C  0000  	NOP
001D  0000  	NOP
001E  0000  	NOP
001F  0000  	NOP
0020  0000  	NOP
0021  0000  	NOP
0022  0000  	NOP
0023  0000  	NOP
0024  0000  	NOP
0025  0000  	NOP
0026  0000  	NOP
0027  0000  	NOP
0028  0000  	NOP
0029  0000  	NOP
002A  3EFF  	ADDLW 0xFF
002B  1D03  	BTFSS STATUS,Z
002C  281A  	GOTO	label3
002D  0000  	NOP
002E  0000  	NOP
002F  0000  	NOP
0030  0000  	NOP
0031  0000  	NOP
0032  0000  	NOP
0033  0000  	NOP
0034  0000  	NOP
0035  0000  	NOP
0036  0000  	NOP
0037  0000  	NOP
0038  0000  	NOP
0039  0000  	NOP
003A  0000  	NOP
003B  0000  	NOP
003C  0000  	NOP
003D  0000  	NOP
003E  0BFC  	DECFSZ delay_ms_00000_arg_del, F
003F  2819  	GOTO	label2
0040  0008  	RETURN
0041        ; } delay_ms function end

	ORG 0x00000041
0041        __mul_32u__0000F
0041        ; { __mul_32u_32u ; function begin
0041  01B3  	CLRF __mul_32u__0000F_1_i
0042  01B4  	CLRF CompTempVarRet464
0043  01B5  	CLRF CompTempVarRet464+D'1'
0044  01B6  	CLRF CompTempVarRet464+D'2'
0045  01B7  	CLRF CompTempVarRet464+D'3'
0046        label4
0046  1AB3  	BTFSC __mul_32u__0000F_1_i,5
0047  0008  	RETURN
0048  1C2B  	BTFSS __mul_32u__0000F_arg_b,0
0049  2858  	GOTO	label5
004A  0827  	MOVF __mul_32u__0000F_arg_a, W
004B  07B4  	ADDWF CompTempVarRet464, F
004C  0828  	MOVF __mul_32u__0000F_arg_a+D'1', W
004D  1803  	BTFSC gbl_status,0
004E  0F28  	INCFSZ __mul_32u__0000F_arg_a+D'1', W
004F  07B5  	ADDWF CompTempVarRet464+D'1', F
0050  0829  	MOVF __mul_32u__0000F_arg_a+D'2', W
0051  1803  	BTFSC gbl_status,0
0052  0F29  	INCFSZ __mul_32u__0000F_arg_a+D'2', W
0053  07B6  	ADDWF CompTempVarRet464+D'2', F
0054  082A  	MOVF __mul_32u__0000F_arg_a+D'3', W
0055  1803  	BTFSC gbl_status,0
0056  0F2A  	INCFSZ __mul_32u__0000F_arg_a+D'3', W
0057  07B7  	ADDWF CompTempVarRet464+D'3', F
0058        label5
0058  1003  	BCF gbl_status,0
0059  0CAE  	RRF __mul_32u__0000F_arg_b+D'3', F
005A  0CAD  	RRF __mul_32u__0000F_arg_b+D'2', F
005B  0CAC  	RRF __mul_32u__0000F_arg_b+D'1', F
005C  0CAB  	RRF __mul_32u__0000F_arg_b, F
005D  1003  	BCF gbl_status,0
005E  0DA7  	RLF __mul_32u__0000F_arg_a, F
005F  0DA8  	RLF __mul_32u__0000F_arg_a+D'1', F
0060  0DA9  	RLF __mul_32u__0000F_arg_a+D'2', F
0061  0DAA  	RLF __mul_32u__0000F_arg_a+D'3', F
0062  0AB3  	INCF __mul_32u__0000F_1_i, F
0063  2846  	GOTO	label4
0064        ; } __mul_32u_32u function end

	ORG 0x00000064
0064        FC_CAL_UAR_0005D
0064        ; { FC_CAL_UART_Receive_1 ; function begin
0064  30FF  	MOVLW 0xFF
0065  00A8  	MOVWF FC_CAL_UAR_0005D_1_retVal
0066  01A9  	CLRF FC_CAL_UAR_0005D_1_delay1
0067  01AA  	CLRF FC_CAL_UAR_0005D_1_regcheck
0068  01AB  	CLRF FC_CAL_UAR_0005D_1_bWaitForever
0069  01AC  	CLRF FC_CAL_UAR_0005D_1_rxStatus
006A  01AD  	CLRF FC_CAL_UAR_0005D_1_dummy
006B  0A27  	INCF FC_CAL_UAR_0005D_arg_nTimeout, W
006C  1D03  	BTFSS STATUS,Z
006D  2870  	GOTO	label6
006E  3001  	MOVLW 0x01
006F  00AB  	MOVWF FC_CAL_UAR_0005D_1_bWaitForever
0070        label6
0070  08AC  	MOVF FC_CAL_UAR_0005D_1_rxStatus, F
0071  1D03  	BTFSS STATUS,Z
0072  2894  	GOTO	label9
0073  08AB  	MOVF FC_CAL_UAR_0005D_1_bWaitForever, F
0074  1D03  	BTFSS STATUS,Z
0075  2889  	GOTO	label8
0076  08A7  	MOVF FC_CAL_UAR_0005D_arg_nTimeout, F
0077  1D03  	BTFSS STATUS,Z
0078  287C  	GOTO	label7
0079  3001  	MOVLW 0x01
007A  00AC  	MOVWF FC_CAL_UAR_0005D_1_rxStatus
007B  2889  	GOTO	label8
007C        label7
007C  300A  	MOVLW 0x0A
007D  00AE  	MOVWF delay_us_00000_arg_del
007E  2010  	CALL delay_us_00000
007F  0A29  	INCF FC_CAL_UAR_0005D_1_delay1, W
0080  00A9  	MOVWF FC_CAL_UAR_0005D_1_delay1
0081  0829  	MOVF FC_CAL_UAR_0005D_1_delay1, W
0082  3A64  	XORLW 0x64
0083  1D03  	BTFSS STATUS,Z
0084  2889  	GOTO	label8
0085  0327  	DECF FC_CAL_UAR_0005D_arg_nTimeout, W
0086  00A7  	MOVWF FC_CAL_UAR_0005D_arg_nTimeout
0087  0064  	CLRWDT
0088  01A9  	CLRF FC_CAL_UAR_0005D_1_delay1
0089        label8
0089  3020  	MOVLW 0x20
008A  1283  	BCF STATUS, RP0
008B  050C  	ANDWF gbl_pir1, W
008C  1683  	BSF STATUS, RP0
008D  00AA  	MOVWF FC_CAL_UAR_0005D_1_regcheck
008E  08AA  	MOVF FC_CAL_UAR_0005D_1_regcheck, F
008F  1903  	BTFSC STATUS,Z
0090  2870  	GOTO	label6
0091  3002  	MOVLW 0x02
0092  00AC  	MOVWF FC_CAL_UAR_0005D_1_rxStatus
0093  2870  	GOTO	label6
0094        label9
0094  082C  	MOVF FC_CAL_UAR_0005D_1_rxStatus, W
0095  3A02  	XORLW 0x02
0096  1D03  	BTFSS STATUS,Z
0097  28B7  	GOTO	label12
0098  3004  	MOVLW 0x04
0099  1283  	BCF STATUS, RP0
009A  0518  	ANDWF gbl_rcsta, W
009B  1683  	BSF STATUS, RP0
009C  00AA  	MOVWF FC_CAL_UAR_0005D_1_regcheck
009D  08AA  	MOVF FC_CAL_UAR_0005D_1_regcheck, F
009E  1903  	BTFSC STATUS,Z
009F  28A5  	GOTO	label10
00A0  1283  	BCF STATUS, RP0
00A1  081A  	MOVF gbl_rcreg, W
00A2  1683  	BSF STATUS, RP0
00A3  00AD  	MOVWF FC_CAL_UAR_0005D_1_dummy
00A4  28B7  	GOTO	label12
00A5        label10
00A5  3002  	MOVLW 0x02
00A6  1283  	BCF STATUS, RP0
00A7  0518  	ANDWF gbl_rcsta, W
00A8  1683  	BSF STATUS, RP0
00A9  00AA  	MOVWF FC_CAL_UAR_0005D_1_regcheck
00AA  08AA  	MOVF FC_CAL_UAR_0005D_1_regcheck, F
00AB  1903  	BTFSC STATUS,Z
00AC  28B1  	GOTO	label11
00AD  1283  	BCF STATUS, RP0
00AE  1218  	BCF gbl_rcsta,4
00AF  1618  	BSF gbl_rcsta,4
00B0  28B7  	GOTO	label12
00B1        label11
00B1  01A8  	CLRF FC_CAL_UAR_0005D_1_retVal
00B2  1283  	BCF STATUS, RP0
00B3  081A  	MOVF gbl_rcreg, W
00B4  1683  	BSF STATUS, RP0
00B5  0428  	IORWF FC_CAL_UAR_0005D_1_retVal, W
00B6  00A8  	MOVWF FC_CAL_UAR_0005D_1_retVal
00B7        label12
00B7  1683  	BSF STATUS, RP0
00B8  0828  	MOVF FC_CAL_UAR_0005D_1_retVal, W
00B9  00AE  	MOVWF CompTempVarRet2225
00BA  01AF  	CLRF CompTempVarRet2225+D'1'
00BB  0008  	RETURN
00BC        ; } FC_CAL_UART_Receive_1 function end

	ORG 0x000000BC
00BC        FCM_reg_al_00059
00BC        ; { FCM_reg_all ; function begin
00BC  01FB  	CLRF gbl_FCLV_LOOP4
00BD        label13
00BD  3008  	MOVLW 0x08
00BE  027B  	SUBWF gbl_FCLV_LOOP4, W
00BF  1803  	BTFSC STATUS,C
00C0  0008  	RETURN
00C1  3001  	MOVLW 0x01
00C2  1283  	BCF STATUS, RP0
00C3  1303  	BCF STATUS, RP1
00C4  056B  	ANDWF gbl_FCV_BITS, W
00C5  00FC  	MOVWF CompTempVar2210
00C6  01FD  	CLRF CompTempVar2211
00C7  08FC  	MOVF CompTempVar2210, F
00C8  1D03  	BTFSS STATUS,Z
00C9  147D  	BSF CompTempVar2211,0
00CA  1064  	BCF gbl_FCV_DAT,0
00CB  087D  	MOVF CompTempVar2211, W
00CC  1D03  	BTFSS STATUS,Z
00CD  1464  	BSF gbl_FCV_DAT,0
00CE  3001  	MOVLW 0x01
00CF  0571  	ANDWF gbl_FCV_BITS2, W
00D0  00FC  	MOVWF CompTempVar2212
00D1  01FD  	CLRF CompTempVar2213
00D2  08FC  	MOVF CompTempVar2212, F
00D3  1D03  	BTFSS STATUS,Z
00D4  147D  	BSF CompTempVar2213,0
00D5  1264  	BCF gbl_FCV_DAT2,4
00D6  087D  	MOVF CompTempVar2213, W
00D7  1D03  	BTFSS STATUS,Z
00D8  1664  	BSF gbl_FCV_DAT2,4
00D9  3001  	MOVLW 0x01
00DA  0574  	ANDWF gbl_FCV_BITS3, W
00DB  00FC  	MOVWF CompTempVar2214
00DC  01FD  	CLRF CompTempVar2215
00DD  08FC  	MOVF CompTempVar2214, F
00DE  1D03  	BTFSS STATUS,Z
00DF  147D  	BSF CompTempVar2215,0
00E0  12E4  	BCF gbl_FCV_DAT3,5
00E1  087D  	MOVF CompTempVar2215, W
00E2  1D03  	BTFSS STATUS,Z
00E3  16E4  	BSF gbl_FCV_DAT3,5
00E4  30FB  	MOVLW 0xFB
00E5  1683  	BSF STATUS, RP0
00E6  0507  	ANDWF gbl_trisc, W
00E7  0087  	MOVWF gbl_trisc
00E8  1283  	BCF STATUS, RP0
00E9  1C64  	BTFSS gbl_FCV_DAT,0
00EA  28F2  	GOTO	label14
00EB  30FB  	MOVLW 0xFB
00EC  0507  	ANDWF gbl_portc, W
00ED  00FC  	MOVWF CompTempVar2216
00EE  3004  	MOVLW 0x04
00EF  047C  	IORWF CompTempVar2216, W
00F0  0087  	MOVWF gbl_portc
00F1  28F5  	GOTO	label15
00F2        label14
00F2  30FB  	MOVLW 0xFB
00F3  0507  	ANDWF gbl_portc, W
00F4  0087  	MOVWF gbl_portc
00F5        label15
00F5  30EF  	MOVLW 0xEF
00F6  1683  	BSF STATUS, RP0
00F7  0507  	ANDWF gbl_trisc, W
00F8  0087  	MOVWF gbl_trisc
00F9  1283  	BCF STATUS, RP0
00FA  1E64  	BTFSS gbl_FCV_DAT2,4
00FB  2903  	GOTO	label16
00FC  30EF  	MOVLW 0xEF
00FD  0507  	ANDWF gbl_portc, W
00FE  00FC  	MOVWF CompTempVar2217
00FF  3010  	MOVLW 0x10
0100  047C  	IORWF CompTempVar2217, W
0101  0087  	MOVWF gbl_portc
0102  2906  	GOTO	label17
0103        label16
0103  30EF  	MOVLW 0xEF
0104  0507  	ANDWF gbl_portc, W
0105  0087  	MOVWF gbl_portc
0106        label17
0106  30F7  	MOVLW 0xF7
0107  1683  	BSF STATUS, RP0
0108  0507  	ANDWF gbl_trisc, W
0109  0087  	MOVWF gbl_trisc
010A  1283  	BCF STATUS, RP0
010B  1EE4  	BTFSS gbl_FCV_DAT3,5
010C  2914  	GOTO	label18
010D  30F7  	MOVLW 0xF7
010E  0507  	ANDWF gbl_portc, W
010F  00FC  	MOVWF CompTempVar2218
0110  3008  	MOVLW 0x08
0111  047C  	IORWF CompTempVar2218, W
0112  0087  	MOVWF gbl_portc
0113  2917  	GOTO	label19
0114        label18
0114  30F7  	MOVLW 0xF7
0115  0507  	ANDWF gbl_portc, W
0116  0087  	MOVWF gbl_portc
0117        label19
0117  30FE  	MOVLW 0xFE
0118  1683  	BSF STATUS, RP0
0119  0507  	ANDWF gbl_trisc, W
011A  0087  	MOVWF gbl_trisc
011B  30FE  	MOVLW 0xFE
011C  1283  	BCF STATUS, RP0
011D  0507  	ANDWF gbl_portc, W
011E  00FC  	MOVWF CompTempVar2219
011F  3001  	MOVLW 0x01
0120  047C  	IORWF CompTempVar2219, W
0121  0087  	MOVWF gbl_portc
0122  30FE  	MOVLW 0xFE
0123  1683  	BSF STATUS, RP0
0124  0507  	ANDWF gbl_trisc, W
0125  0087  	MOVWF gbl_trisc
0126  30FE  	MOVLW 0xFE
0127  1283  	BCF STATUS, RP0
0128  0507  	ANDWF gbl_portc, W
0129  0087  	MOVWF gbl_portc
012A  08EB  	MOVF gbl_FCV_BITS, F
012B  1003  	BCF STATUS,C
012C  0CEB  	RRF gbl_FCV_BITS, F
012D  08F1  	MOVF gbl_FCV_BITS2, F
012E  1003  	BCF STATUS,C
012F  0CF1  	RRF gbl_FCV_BITS2, F
0130  08F4  	MOVF gbl_FCV_BITS3, F
0131  1003  	BCF STATUS,C
0132  0CF4  	RRF gbl_FCV_BITS3, F
0133  0AFB  	INCF gbl_FCLV_LOOP4, F
0134  28BD  	GOTO	label13
0135        ; } FCM_reg_all function end

	ORG 0x00000135
0135        FCM_off_al_00051
0135        ; { FCM_off_all ; function begin
0135  30FE  	MOVLW 0xFE
0136  1683  	BSF STATUS, RP0
0137  1303  	BCF STATUS, RP1
0138  0508  	ANDWF gbl_trisd, W
0139  0088  	MOVWF gbl_trisd
013A  30FE  	MOVLW 0xFE
013B  1283  	BCF STATUS, RP0
013C  0508  	ANDWF gbl_portd, W
013D  0088  	MOVWF gbl_portd
013E  30FD  	MOVLW 0xFD
013F  1683  	BSF STATUS, RP0
0140  0508  	ANDWF gbl_trisd, W
0141  0088  	MOVWF gbl_trisd
0142  30FD  	MOVLW 0xFD
0143  1283  	BCF STATUS, RP0
0144  0508  	ANDWF gbl_portd, W
0145  0088  	MOVWF gbl_portd
0146  0008  	RETURN
0147        ; } FCM_off_all function end

	ORG 0x00000147
0147        FCM_latch_00000
0147        ; { FCM_latch ; function begin
0147  30FD  	MOVLW 0xFD
0148  1683  	BSF STATUS, RP0
0149  1303  	BCF STATUS, RP1
014A  0507  	ANDWF gbl_trisc, W
014B  0087  	MOVWF gbl_trisc
014C  30FD  	MOVLW 0xFD
014D  1283  	BCF STATUS, RP0
014E  0507  	ANDWF gbl_portc, W
014F  00FC  	MOVWF CompTempVar2188
0150  3002  	MOVLW 0x02
0151  047C  	IORWF CompTempVar2188, W
0152  0087  	MOVWF gbl_portc
0153  30FD  	MOVLW 0xFD
0154  1683  	BSF STATUS, RP0
0155  0507  	ANDWF gbl_trisc, W
0156  0087  	MOVWF gbl_trisc
0157  30FD  	MOVLW 0xFD
0158  1283  	BCF STATUS, RP0
0159  0507  	ANDWF gbl_portc, W
015A  0087  	MOVWF gbl_portc
015B  0008  	RETURN
015C        ; } FCM_latch function end

	ORG 0x0000015C
015C        FCM_data_b_00052
015C        ; { FCM_data_bank ; function begin
015C  0870  	MOVF gbl_FCV_DIGIT, W
015D  3A01  	XORLW 0x01
015E  1903  	BTFSC STATUS,Z
015F  297C  	GOTO	label20
0160  3A03  	XORLW 0x03
0161  1903  	BTFSC STATUS,Z
0162  2981  	GOTO	label21
0163  3A01  	XORLW 0x01
0164  1903  	BTFSC STATUS,Z
0165  2986  	GOTO	label22
0166  3A07  	XORLW 0x07
0167  1903  	BTFSC STATUS,Z
0168  298B  	GOTO	label23
0169  3A01  	XORLW 0x01
016A  1903  	BTFSC STATUS,Z
016B  2990  	GOTO	label24
016C  3A03  	XORLW 0x03
016D  1903  	BTFSC STATUS,Z
016E  2995  	GOTO	label25
016F  3A01  	XORLW 0x01
0170  1903  	BTFSC STATUS,Z
0171  299A  	GOTO	label26
0172  3A0F  	XORLW 0x0F
0173  1903  	BTFSC STATUS,Z
0174  299F  	GOTO	label27
0175  3A01  	XORLW 0x01
0176  1903  	BTFSC STATUS,Z
0177  29A4  	GOTO	label28
0178  3A09  	XORLW 0x09
0179  1903  	BTFSC STATUS,Z
017A  29A9  	GOTO	label29
017B  29AD  	GOTO	label30
017C        label20
017C  3006  	MOVLW 0x06
017D  1283  	BCF STATUS, RP0
017E  1303  	BCF STATUS, RP1
017F  00EB  	MOVWF gbl_FCV_BITS
0180  29AD  	GOTO	label30
0181        label21
0181  305B  	MOVLW 0x5B
0182  1283  	BCF STATUS, RP0
0183  1303  	BCF STATUS, RP1
0184  00EB  	MOVWF gbl_FCV_BITS
0185  29AD  	GOTO	label30
0186        label22
0186  304F  	MOVLW 0x4F
0187  1283  	BCF STATUS, RP0
0188  1303  	BCF STATUS, RP1
0189  00EB  	MOVWF gbl_FCV_BITS
018A  29AD  	GOTO	label30
018B        label23
018B  3066  	MOVLW 0x66
018C  1283  	BCF STATUS, RP0
018D  1303  	BCF STATUS, RP1
018E  00EB  	MOVWF gbl_FCV_BITS
018F  29AD  	GOTO	label30
0190        label24
0190  306D  	MOVLW 0x6D
0191  1283  	BCF STATUS, RP0
0192  1303  	BCF STATUS, RP1
0193  00EB  	MOVWF gbl_FCV_BITS
0194  29AD  	GOTO	label30
0195        label25
0195  307D  	MOVLW 0x7D
0196  1283  	BCF STATUS, RP0
0197  1303  	BCF STATUS, RP1
0198  00EB  	MOVWF gbl_FCV_BITS
0199  29AD  	GOTO	label30
019A        label26
019A  3007  	MOVLW 0x07
019B  1283  	BCF STATUS, RP0
019C  1303  	BCF STATUS, RP1
019D  00EB  	MOVWF gbl_FCV_BITS
019E  29AD  	GOTO	label30
019F        label27
019F  307F  	MOVLW 0x7F
01A0  1283  	BCF STATUS, RP0
01A1  1303  	BCF STATUS, RP1
01A2  00EB  	MOVWF gbl_FCV_BITS
01A3  29AD  	GOTO	label30
01A4        label28
01A4  306F  	MOVLW 0x6F
01A5  1283  	BCF STATUS, RP0
01A6  1303  	BCF STATUS, RP1
01A7  00EB  	MOVWF gbl_FCV_BITS
01A8  29AD  	GOTO	label30
01A9        label29
01A9  303F  	MOVLW 0x3F
01AA  1283  	BCF STATUS, RP0
01AB  1303  	BCF STATUS, RP1
01AC  00EB  	MOVWF gbl_FCV_BITS
01AD        label30
01AD  1283  	BCF STATUS, RP0
01AE  1303  	BCF STATUS, RP1
01AF  086C  	MOVF gbl_FCV_DIGITB, W
01B0  3A01  	XORLW 0x01
01B1  1903  	BTFSC STATUS,Z
01B2  29CF  	GOTO	label31
01B3  3A03  	XORLW 0x03
01B4  1903  	BTFSC STATUS,Z
01B5  29D2  	GOTO	label32
01B6  3A01  	XORLW 0x01
01B7  1903  	BTFSC STATUS,Z
01B8  29D5  	GOTO	label33
01B9  3A07  	XORLW 0x07
01BA  1903  	BTFSC STATUS,Z
01BB  29D8  	GOTO	label34
01BC  3A01  	XORLW 0x01
01BD  1903  	BTFSC STATUS,Z
01BE  29DB  	GOTO	label35
01BF  3A03  	XORLW 0x03
01C0  1903  	BTFSC STATUS,Z
01C1  29DE  	GOTO	label36
01C2  3A01  	XORLW 0x01
01C3  1903  	BTFSC STATUS,Z
01C4  29E1  	GOTO	label37
01C5  3A0F  	XORLW 0x0F
01C6  1903  	BTFSC STATUS,Z
01C7  29E4  	GOTO	label38
01C8  3A01  	XORLW 0x01
01C9  1903  	BTFSC STATUS,Z
01CA  29E7  	GOTO	label39
01CB  3A09  	XORLW 0x09
01CC  1903  	BTFSC STATUS,Z
01CD  29EA  	GOTO	label40
01CE  29EC  	GOTO	label41
01CF        label31
01CF  3006  	MOVLW 0x06
01D0  00F1  	MOVWF gbl_FCV_BITS2
01D1  29EC  	GOTO	label41
01D2        label32
01D2  305B  	MOVLW 0x5B
01D3  00F1  	MOVWF gbl_FCV_BITS2
01D4  29EC  	GOTO	label41
01D5        label33
01D5  304F  	MOVLW 0x4F
01D6  00F1  	MOVWF gbl_FCV_BITS2
01D7  29EC  	GOTO	label41
01D8        label34
01D8  3066  	MOVLW 0x66
01D9  00F1  	MOVWF gbl_FCV_BITS2
01DA  29EC  	GOTO	label41
01DB        label35
01DB  306D  	MOVLW 0x6D
01DC  00F1  	MOVWF gbl_FCV_BITS2
01DD  29EC  	GOTO	label41
01DE        label36
01DE  307D  	MOVLW 0x7D
01DF  00F1  	MOVWF gbl_FCV_BITS2
01E0  29EC  	GOTO	label41
01E1        label37
01E1  3007  	MOVLW 0x07
01E2  00F1  	MOVWF gbl_FCV_BITS2
01E3  29EC  	GOTO	label41
01E4        label38
01E4  307F  	MOVLW 0x7F
01E5  00F1  	MOVWF gbl_FCV_BITS2
01E6  29EC  	GOTO	label41
01E7        label39
01E7  306F  	MOVLW 0x6F
01E8  00F1  	MOVWF gbl_FCV_BITS2
01E9  29EC  	GOTO	label41
01EA        label40
01EA  303F  	MOVLW 0x3F
01EB  00F1  	MOVWF gbl_FCV_BITS2
01EC        label41
01EC  086E  	MOVF gbl_FCV_DIGITC, W
01ED  3A01  	XORLW 0x01
01EE  1903  	BTFSC STATUS,Z
01EF  2A0C  	GOTO	label42
01F0  3A03  	XORLW 0x03
01F1  1903  	BTFSC STATUS,Z
01F2  2A0F  	GOTO	label43
01F3  3A01  	XORLW 0x01
01F4  1903  	BTFSC STATUS,Z
01F5  2A12  	GOTO	label44
01F6  3A07  	XORLW 0x07
01F7  1903  	BTFSC STATUS,Z
01F8  2A15  	GOTO	label45
01F9  3A01  	XORLW 0x01
01FA  1903  	BTFSC STATUS,Z
01FB  2A18  	GOTO	label46
01FC  3A03  	XORLW 0x03
01FD  1903  	BTFSC STATUS,Z
01FE  2A1B  	GOTO	label47
01FF  3A01  	XORLW 0x01
0200  1903  	BTFSC STATUS,Z
0201  2A1E  	GOTO	label48
0202  3A0F  	XORLW 0x0F
0203  1903  	BTFSC STATUS,Z
0204  2A21  	GOTO	label49
0205  3A01  	XORLW 0x01
0206  1903  	BTFSC STATUS,Z
0207  2A24  	GOTO	label50
0208  3A09  	XORLW 0x09
0209  1903  	BTFSC STATUS,Z
020A  2A27  	GOTO	label51
020B  0008  	RETURN
020C        label42
020C  3006  	MOVLW 0x06
020D  00F4  	MOVWF gbl_FCV_BITS3
020E  0008  	RETURN
020F        label43
020F  305B  	MOVLW 0x5B
0210  00F4  	MOVWF gbl_FCV_BITS3
0211  0008  	RETURN
0212        label44
0212  304F  	MOVLW 0x4F
0213  00F4  	MOVWF gbl_FCV_BITS3
0214  0008  	RETURN
0215        label45
0215  3066  	MOVLW 0x66
0216  00F4  	MOVWF gbl_FCV_BITS3
0217  0008  	RETURN
0218        label46
0218  306D  	MOVLW 0x6D
0219  00F4  	MOVWF gbl_FCV_BITS3
021A  0008  	RETURN
021B        label47
021B  307D  	MOVLW 0x7D
021C  00F4  	MOVWF gbl_FCV_BITS3
021D  0008  	RETURN
021E        label48
021E  3007  	MOVLW 0x07
021F  00F4  	MOVWF gbl_FCV_BITS3
0220  0008  	RETURN
0221        label49
0221  307F  	MOVLW 0x7F
0222  00F4  	MOVWF gbl_FCV_BITS3
0223  0008  	RETURN
0224        label50
0224  306F  	MOVLW 0x6F
0225  00F4  	MOVWF gbl_FCV_BITS3
0226  0008  	RETURN
0227        label51
0227  303F  	MOVLW 0x3F
0228  00F4  	MOVWF gbl_FCV_BITS3
0229  0008  	RETURN
022A        ; } FCM_data_bank function end

	ORG 0x0000022A
022A        __rem_8_8_00000
022A        ; { __rem_8_8 ; function begin
022A  1683  	BSF STATUS, RP0
022B  1303  	BCF STATUS, RP1
022C  01A1  	CLRF CompTempVarRet220
022D  01FE  	CLRF __rem_8_8_00000_1_c
022E  01A0  	CLRF __rem_8_8_00000_1_i
022F        label52
022F  19A0  	BTFSC __rem_8_8_00000_1_i,3
0230  0008  	RETURN
0231  1003  	BCF STATUS,C
0232  0DFE  	RLF __rem_8_8_00000_1_c, F
0233  0DFC  	RLF __rem_8_8_00000_arg_a, F
0234  0DA1  	RLF CompTempVarRet220, F
0235  087D  	MOVF __rem_8_8_00000_arg_b, W
0236  0221  	SUBWF CompTempVarRet220, W
0237  1C03  	BTFSS STATUS,C
0238  2A3B  	GOTO	label53
0239  00A1  	MOVWF CompTempVarRet220
023A  147E  	BSF __rem_8_8_00000_1_c,0
023B        label53
023B  0AA0  	INCF __rem_8_8_00000_1_i, F
023C  2A2F  	GOTO	label52
023D        ; } __rem_8_8 function end

	ORG 0x0000023D
023D        __rem_16_1_00004
023D        ; { __rem_16_16 ; function begin
023D  01A9  	CLRF CompTempVarRet216
023E  01AA  	CLRF CompTempVarRet216+D'1'
023F  01A6  	CLRF __rem_16_1_00004_1_c
0240  01A7  	CLRF __rem_16_1_00004_1_c+D'1'
0241  01A8  	CLRF __rem_16_1_00004_1_i
0242        label54
0242  1A28  	BTFSC __rem_16_1_00004_1_i,4
0243  0008  	RETURN
0244  1003  	BCF STATUS,C
0245  0DA6  	RLF __rem_16_1_00004_1_c, F
0246  0DA7  	RLF __rem_16_1_00004_1_c+D'1', F
0247  0DFC  	RLF __rem_16_1_00004_arg_a, F
0248  0DFD  	RLF __rem_16_1_00004_arg_a+D'1', F
0249  0DA9  	RLF CompTempVarRet216, F
024A  0DAA  	RLF CompTempVarRet216+D'1', F
024B  0821  	MOVF __rem_16_1_00004_arg_b+D'1', W
024C  022A  	SUBWF CompTempVarRet216+D'1', W
024D  1D03  	BTFSS STATUS,Z
024E  2A51  	GOTO	label55
024F  0820  	MOVF __rem_16_1_00004_arg_b, W
0250  0229  	SUBWF CompTempVarRet216, W
0251        label55
0251  1C03  	BTFSS STATUS,C
0252  2A5A  	GOTO	label56
0253  0820  	MOVF __rem_16_1_00004_arg_b, W
0254  02A9  	SUBWF CompTempVarRet216, F
0255  0821  	MOVF __rem_16_1_00004_arg_b+D'1', W
0256  1C03  	BTFSS STATUS,C
0257  03AA  	DECF CompTempVarRet216+D'1', F
0258  02AA  	SUBWF CompTempVarRet216+D'1', F
0259  1426  	BSF __rem_16_1_00004_1_c,0
025A        label56
025A  0AA8  	INCF __rem_16_1_00004_1_i, F
025B  2A42  	GOTO	label54
025C        ; } __rem_16_16 function end

	ORG 0x0000025C
025C        __div_8_8_00000
025C        ; { __div_8_8 ; function begin
025C  01FE  	CLRF __div_8_8_00000_1_r
025D  1683  	BSF STATUS, RP0
025E  1303  	BCF STATUS, RP1
025F  01A1  	CLRF CompTempVarRet218
0260  01A0  	CLRF __div_8_8_00000_1_i
0261        label57
0261  19A0  	BTFSC __div_8_8_00000_1_i,3
0262  0008  	RETURN
0263  1003  	BCF STATUS,C
0264  0DA1  	RLF CompTempVarRet218, F
0265  0DFC  	RLF __div_8_8_00000_arg_a, F
0266  0DFE  	RLF __div_8_8_00000_1_r, F
0267  087D  	MOVF __div_8_8_00000_arg_b, W
0268  027E  	SUBWF __div_8_8_00000_1_r, W
0269  1C03  	BTFSS STATUS,C
026A  2A6D  	GOTO	label58
026B  00FE  	MOVWF __div_8_8_00000_1_r
026C  1421  	BSF CompTempVarRet218,0
026D        label58
026D  0AA0  	INCF __div_8_8_00000_1_i, F
026E  2A61  	GOTO	label57
026F        ; } __div_8_8 function end

	ORG 0x0000026F
026F        __div_16_1_00003
026F        ; { __div_16_16 ; function begin
026F  01A7  	CLRF __div_16_1_00003_1_r
0270  01A8  	CLRF __div_16_1_00003_1_r+D'1'
0271  01AA  	CLRF CompTempVarRet214
0272  01AB  	CLRF CompTempVarRet214+D'1'
0273  01A9  	CLRF __div_16_1_00003_1_i
0274        label59
0274  1A29  	BTFSC __div_16_1_00003_1_i,4
0275  0008  	RETURN
0276  1003  	BCF STATUS,C
0277  0DAA  	RLF CompTempVarRet214, F
0278  0DAB  	RLF CompTempVarRet214+D'1', F
0279  0DA2  	RLF __div_16_1_00003_arg_a, F
027A  0DA3  	RLF __div_16_1_00003_arg_a+D'1', F
027B  0DA7  	RLF __div_16_1_00003_1_r, F
027C  0DA8  	RLF __div_16_1_00003_1_r+D'1', F
027D  0825  	MOVF __div_16_1_00003_arg_b+D'1', W
027E  0228  	SUBWF __div_16_1_00003_1_r+D'1', W
027F  1D03  	BTFSS STATUS,Z
0280  2A83  	GOTO	label60
0281  0824  	MOVF __div_16_1_00003_arg_b, W
0282  0227  	SUBWF __div_16_1_00003_1_r, W
0283        label60
0283  1C03  	BTFSS STATUS,C
0284  2A8C  	GOTO	label61
0285  0824  	MOVF __div_16_1_00003_arg_b, W
0286  02A7  	SUBWF __div_16_1_00003_1_r, F
0287  0825  	MOVF __div_16_1_00003_arg_b+D'1', W
0288  1C03  	BTFSS STATUS,C
0289  03A8  	DECF __div_16_1_00003_1_r+D'1', F
028A  02A8  	SUBWF __div_16_1_00003_1_r+D'1', F
028B  142A  	BSF CompTempVarRet214,0
028C        label61
028C  0AA9  	INCF __div_16_1_00003_1_i, F
028D  2A74  	GOTO	label59
028E        ; } __div_16_16 function end

	ORG 0x0000028E
028E        FC_CAL_UAR_0005B
028E        ; { FC_CAL_UART_Init_1 ; function begin
028E  1683  	BSF STATUS, RP0
028F  1303  	BCF STATUS, RP1
0290  1518  	BSF gbl_txsta,2
0291  301F  	MOVLW 0x1F
0292  0099  	MOVWF gbl_spbrg
0293  1283  	BCF STATUS, RP0
0294  0198  	CLRF gbl_rcsta
0295  1798  	BSF gbl_rcsta,7
0296  1683  	BSF STATUS, RP0
0297  1698  	BSF gbl_txsta,5
0298  1283  	BCF STATUS, RP0
0299  1618  	BSF gbl_rcsta,4
029A  1683  	BSF STATUS, RP0
029B  128C  	BCF gbl_pie1,5
029C  0008  	RETURN
029D        ; } FC_CAL_UART_Init_1 function end

	ORG 0x0000029D
029D        FCM_displa_0005A
029D        ; { FCM_display_all ; function begin
029D  1283  	BCF STATUS, RP0
029E  1303  	BCF STATUS, RP1
029F  1D64  	BTFSS gbl_FCV_FLAG,2
02A0  2ACD  	GOTO	label62
02A1  1164  	BCF gbl_FCV_FLAG,2
02A2  2135  	CALL FCM_off_al_00051
02A3  0873  	MOVF gbl_FCV_MINUTE_ONES, W
02A4  00F0  	MOVWF gbl_FCV_DIGIT
02A5  087A  	MOVF gbl_FCV_AWAY_FOUL, W
02A6  00EC  	MOVWF gbl_FCV_DIGITB
02A7  0872  	MOVF gbl_FCV_AWAY_ONES, W
02A8  00EE  	MOVWF gbl_FCV_DIGITC
02A9  215C  	CALL FCM_data_b_00052
02AA  20BC  	CALL FCM_reg_al_00059
02AB  0878  	MOVF gbl_FCV_SECONDS_ONES, W
02AC  00F0  	MOVWF gbl_FCV_DIGIT
02AD  1283  	BCF STATUS, RP0
02AE  1303  	BCF STATUS, RP1
02AF  0866  	MOVF gbl_FCV_PERIOD, W
02B0  00EC  	MOVWF gbl_FCV_DIGITB
02B1  0863  	MOVF gbl_FCV_HOME_ONES, W
02B2  00EE  	MOVWF gbl_FCV_DIGITC
02B3  215C  	CALL FCM_data_b_00052
02B4  20BC  	CALL FCM_reg_al_00059
02B5  2147  	CALL FCM_latch_00000
02B6  30FE  	MOVLW 0xFE
02B7  1683  	BSF STATUS, RP0
02B8  0508  	ANDWF gbl_trisd, W
02B9  0088  	MOVWF gbl_trisd
02BA  30FE  	MOVLW 0xFE
02BB  1283  	BCF STATUS, RP0
02BC  0508  	ANDWF gbl_portd, W
02BD  0088  	MOVWF gbl_portd
02BE  30FD  	MOVLW 0xFD
02BF  1683  	BSF STATUS, RP0
02C0  0508  	ANDWF gbl_trisd, W
02C1  0088  	MOVWF gbl_trisd
02C2  30FD  	MOVLW 0xFD
02C3  1283  	BCF STATUS, RP0
02C4  0508  	ANDWF gbl_portd, W
02C5  00FC  	MOVWF CompTempVar2223
02C6  3002  	MOVLW 0x02
02C7  047C  	IORWF CompTempVar2223, W
02C8  0088  	MOVWF gbl_portd
02C9  3001  	MOVLW 0x01
02CA  00FC  	MOVWF delay_ms_00000_arg_del
02CB  2015  	CALL delay_ms_00000
02CC  0008  	RETURN
02CD        label62
02CD  1564  	BSF gbl_FCV_FLAG,2
02CE  2135  	CALL FCM_off_al_00051
02CF  086A  	MOVF gbl_FCV_MINUTE_TENS, W
02D0  00F0  	MOVWF gbl_FCV_DIGIT
02D1  0868  	MOVF gbl_FCV_HOME_FOUL, W
02D2  00EC  	MOVWF gbl_FCV_DIGITB
02D3  0869  	MOVF gbl_FCV_AWAY_TENS, W
02D4  00EE  	MOVWF gbl_FCV_DIGITC
02D5  215C  	CALL FCM_data_b_00052
02D6  20BC  	CALL FCM_reg_al_00059
02D7  1283  	BCF STATUS, RP0
02D8  1303  	BCF STATUS, RP1
02D9  086D  	MOVF gbl_FCV_SECONDS_TENS, W
02DA  00F0  	MOVWF gbl_FCV_DIGIT
02DB  0866  	MOVF gbl_FCV_PERIOD, W
02DC  00EC  	MOVWF gbl_FCV_DIGITB
02DD  0875  	MOVF gbl_FCV_HOME_TENS, W
02DE  00EE  	MOVWF gbl_FCV_DIGITC
02DF  215C  	CALL FCM_data_b_00052
02E0  20BC  	CALL FCM_reg_al_00059
02E1  2147  	CALL FCM_latch_00000
02E2  30FE  	MOVLW 0xFE
02E3  1683  	BSF STATUS, RP0
02E4  0508  	ANDWF gbl_trisd, W
02E5  0088  	MOVWF gbl_trisd
02E6  30FE  	MOVLW 0xFE
02E7  1283  	BCF STATUS, RP0
02E8  0508  	ANDWF gbl_portd, W
02E9  00FC  	MOVWF CompTempVar2224
02EA  3001  	MOVLW 0x01
02EB  047C  	IORWF CompTempVar2224, W
02EC  0088  	MOVWF gbl_portd
02ED  30FD  	MOVLW 0xFD
02EE  1683  	BSF STATUS, RP0
02EF  0508  	ANDWF gbl_trisd, W
02F0  0088  	MOVWF gbl_trisd
02F1  30FD  	MOVLW 0xFD
02F2  1283  	BCF STATUS, RP0
02F3  0508  	ANDWF gbl_portd, W
02F4  0088  	MOVWF gbl_portd
02F5  3001  	MOVLW 0x01
02F6  00FC  	MOVWF delay_ms_00000_arg_del
02F7  2015  	CALL delay_ms_00000
02F8  0008  	RETURN
02F9        ; } FCM_display_all function end

	ORG 0x000002F9
02F9        FCI_STRING_0004F
02F9        ; { FCI_STRING_TO_INT ; function begin
02F9  1683  	BSF STATUS, RP0
02FA  1303  	BCF STATUS, RP1
02FB  01A0  	CLRF FCI_STRING_0004F_1_bNegative
02FC  01A1  	CLRF FCI_STRING_0004F_1_idx
02FD  01A2  	CLRF FCI_STRING_0004F_1_RetVal
02FE  01A3  	CLRF FCI_STRING_0004F_1_RetVal+D'1'
02FF  01A4  	CLRF FCI_STRING_0004F_1_RetVal+D'2'
0300  01A5  	CLRF FCI_STRING_0004F_1_RetVal+D'3'
0301  1383  	BCF STATUS,IRP
0302  187D  	BTFSC FCI_STRING_0004F_arg_String+D'1',0
0303  1783  	BSF STATUS,IRP
0304  087C  	MOVF FCI_STRING_0004F_arg_String, W
0305  0084  	MOVWF FSR
0306  01A6  	CLRF CompTempVar2058
0307  0826  	MOVF CompTempVar2058, W
0308  0784  	ADDWF FSR, F
0309  0800  	MOVF INDF, W
030A  3A2D  	XORLW 0x2D
030B  1D03  	BTFSS STATUS,Z
030C  2B10  	GOTO	label63
030D  3001  	MOVLW 0x01
030E  00A0  	MOVWF FCI_STRING_0004F_1_bNegative
030F  00A1  	MOVWF FCI_STRING_0004F_1_idx
0310        label63
0310  087E  	MOVF FCI_STRING_0004F_arg_MSZ_String, W
0311  0221  	SUBWF FCI_STRING_0004F_1_idx, W
0312  1803  	BTFSC STATUS,C
0313  2B6B  	GOTO	label64
0314  1383  	BCF STATUS,IRP
0315  187D  	BTFSC FCI_STRING_0004F_arg_String+D'1',0
0316  1783  	BSF STATUS,IRP
0317  087C  	MOVF FCI_STRING_0004F_arg_String, W
0318  0721  	ADDWF FCI_STRING_0004F_1_idx, W
0319  0084  	MOVWF FSR
031A  3030  	MOVLW 0x30
031B  0200  	SUBWF INDF, W
031C  1C03  	BTFSS STATUS,C
031D  2B6B  	GOTO	label64
031E  1383  	BCF STATUS,IRP
031F  187D  	BTFSC FCI_STRING_0004F_arg_String+D'1',0
0320  1783  	BSF STATUS,IRP
0321  087C  	MOVF FCI_STRING_0004F_arg_String, W
0322  0721  	ADDWF FCI_STRING_0004F_1_idx, W
0323  0084  	MOVWF FSR
0324  0800  	MOVF INDF, W
0325  3C39  	SUBLW 0x39
0326  1C03  	BTFSS STATUS,C
0327  2B6B  	GOTO	label64
0328  0822  	MOVF FCI_STRING_0004F_1_RetVal, W
0329  00A7  	MOVWF __mul_32u__0000F_arg_a
032A  0823  	MOVF FCI_STRING_0004F_1_RetVal+D'1', W
032B  00A8  	MOVWF __mul_32u__0000F_arg_a+D'1'
032C  0824  	MOVF FCI_STRING_0004F_1_RetVal+D'2', W
032D  00A9  	MOVWF __mul_32u__0000F_arg_a+D'2'
032E  0825  	MOVF FCI_STRING_0004F_1_RetVal+D'3', W
032F  00AA  	MOVWF __mul_32u__0000F_arg_a+D'3'
0330  300A  	MOVLW 0x0A
0331  00AB  	MOVWF __mul_32u__0000F_arg_b
0332  01AC  	CLRF __mul_32u__0000F_arg_b+D'1'
0333  01AD  	CLRF __mul_32u__0000F_arg_b+D'2'
0334  01AE  	CLRF __mul_32u__0000F_arg_b+D'3'
0335  2041  	CALL __mul_32u__0000F
0336  0834  	MOVF CompTempVarRet464, W
0337  00AF  	MOVWF CompTempVar2066
0338  0835  	MOVF CompTempVarRet464+D'1', W
0339  00B0  	MOVWF CompTempVar2067
033A  0836  	MOVF CompTempVarRet464+D'2', W
033B  00B1  	MOVWF CompTempVar2068
033C  0837  	MOVF CompTempVarRet464+D'3', W
033D  00B2  	MOVWF CompTempVar2069
033E  082F  	MOVF CompTempVar2066, W
033F  00A2  	MOVWF FCI_STRING_0004F_1_RetVal
0340  0830  	MOVF CompTempVar2067, W
0341  00A3  	MOVWF FCI_STRING_0004F_1_RetVal+D'1'
0342  0831  	MOVF CompTempVar2068, W
0343  00A4  	MOVWF FCI_STRING_0004F_1_RetVal+D'2'
0344  0832  	MOVF CompTempVar2069, W
0345  00A5  	MOVWF FCI_STRING_0004F_1_RetVal+D'3'
0346  1383  	BCF STATUS,IRP
0347  187D  	BTFSC FCI_STRING_0004F_arg_String+D'1',0
0348  1783  	BSF STATUS,IRP
0349  087C  	MOVF FCI_STRING_0004F_arg_String, W
034A  0721  	ADDWF FCI_STRING_0004F_1_idx, W
034B  0084  	MOVWF FSR
034C  3030  	MOVLW 0x30
034D  0200  	SUBWF INDF, W
034E  00A7  	MOVWF CompTempVar2072
034F  01A8  	CLRF CompTempVar2073
0350  01A9  	CLRF CompTempVar2074
0351  01AA  	CLRF CompTempVar2075
0352  0822  	MOVF FCI_STRING_0004F_1_RetVal, W
0353  07A7  	ADDWF CompTempVar2072, F
0354  0823  	MOVF FCI_STRING_0004F_1_RetVal+D'1', W
0355  1803  	BTFSC STATUS,C
0356  0F23  	INCFSZ FCI_STRING_0004F_1_RetVal+D'1', W
0357  07A8  	ADDWF CompTempVar2073, F
0358  0824  	MOVF FCI_STRING_0004F_1_RetVal+D'2', W
0359  1803  	BTFSC STATUS,C
035A  0F24  	INCFSZ FCI_STRING_0004F_1_RetVal+D'2', W
035B  07A9  	ADDWF CompTempVar2074, F
035C  0825  	MOVF FCI_STRING_0004F_1_RetVal+D'3', W
035D  1803  	BTFSC STATUS,C
035E  0F25  	INCFSZ FCI_STRING_0004F_1_RetVal+D'3', W
035F  07AA  	ADDWF CompTempVar2075, F
0360  0827  	MOVF CompTempVar2072, W
0361  00A2  	MOVWF FCI_STRING_0004F_1_RetVal
0362  0828  	MOVF CompTempVar2073, W
0363  00A3  	MOVWF FCI_STRING_0004F_1_RetVal+D'1'
0364  0829  	MOVF CompTempVar2074, W
0365  00A4  	MOVWF FCI_STRING_0004F_1_RetVal+D'2'
0366  082A  	MOVF CompTempVar2075, W
0367  00A5  	MOVWF FCI_STRING_0004F_1_RetVal+D'3'
0368  0A21  	INCF FCI_STRING_0004F_1_idx, W
0369  00A1  	MOVWF FCI_STRING_0004F_1_idx
036A  2B10  	GOTO	label63
036B        label64
036B  08A0  	MOVF FCI_STRING_0004F_1_bNegative, F
036C  1903  	BTFSC STATUS,Z
036D  2B89  	GOTO	label65
036E  0822  	MOVF FCI_STRING_0004F_1_RetVal, W
036F  3C00  	SUBLW 0x00
0370  00A7  	MOVWF CompTempVar2076
0371  3000  	MOVLW 0x00
0372  00A8  	MOVWF CompTempVar2077
0373  00A9  	MOVWF CompTempVar2078
0374  00AA  	MOVWF CompTempVar2079
0375  0823  	MOVF FCI_STRING_0004F_1_RetVal+D'1', W
0376  1C03  	BTFSS STATUS,C
0377  0F23  	INCFSZ FCI_STRING_0004F_1_RetVal+D'1', W
0378  02A8  	SUBWF CompTempVar2077, F
0379  0824  	MOVF FCI_STRING_0004F_1_RetVal+D'2', W
037A  1C03  	BTFSS STATUS,C
037B  0F24  	INCFSZ FCI_STRING_0004F_1_RetVal+D'2', W
037C  02A9  	SUBWF CompTempVar2078, F
037D  0825  	MOVF FCI_STRING_0004F_1_RetVal+D'3', W
037E  1C03  	BTFSS STATUS,C
037F  0F25  	INCFSZ FCI_STRING_0004F_1_RetVal+D'3', W
0380  02AA  	SUBWF CompTempVar2079, F
0381  0827  	MOVF CompTempVar2076, W
0382  00A2  	MOVWF FCI_STRING_0004F_1_RetVal
0383  0828  	MOVF CompTempVar2077, W
0384  00A3  	MOVWF FCI_STRING_0004F_1_RetVal+D'1'
0385  0829  	MOVF CompTempVar2078, W
0386  00A4  	MOVWF FCI_STRING_0004F_1_RetVal+D'2'
0387  082A  	MOVF CompTempVar2079, W
0388  00A5  	MOVWF FCI_STRING_0004F_1_RetVal+D'3'
0389        label65
0389  0822  	MOVF FCI_STRING_0004F_1_RetVal, W
038A  00A7  	MOVWF CompTempVarRet2056
038B  0823  	MOVF FCI_STRING_0004F_1_RetVal+D'1', W
038C  00A8  	MOVWF CompTempVarRet2056+D'1'
038D  0824  	MOVF FCI_STRING_0004F_1_RetVal+D'2', W
038E  00A9  	MOVWF CompTempVarRet2056+D'2'
038F  0825  	MOVF FCI_STRING_0004F_1_RetVal+D'3', W
0390  00AA  	MOVWF CompTempVarRet2056+D'3'
0391  0008  	RETURN
0392        ; } FCI_STRING_TO_INT function end

	ORG 0x00000392
0392        FCI_RIGHTS_00048
0392        ; { FCI_RIGHTSTRING ; function begin
0392  08A3  	MOVF FCI_RIGHTS_00048_arg_iDst_len, F
0393  1D03  	BTFSS STATUS,Z
0394  2B97  	GOTO	label66
0395  01A6  	CLRF CompTempVarRet2006
0396  0008  	RETURN
0397        label66
0397  01A4  	CLRF FCI_RIGHTS_00048_1_idx
0398        label67
0398  087E  	MOVF FCI_RIGHTS_00048_arg_iSrc_len, W
0399  0224  	SUBWF FCI_RIGHTS_00048_1_idx, W
039A  1803  	BTFSC STATUS,C
039B  2BA7  	GOTO	label68
039C  1383  	BCF STATUS,IRP
039D  187D  	BTFSC FCI_RIGHTS_00048_arg_sSrc+D'1',0
039E  1783  	BSF STATUS,IRP
039F  087C  	MOVF FCI_RIGHTS_00048_arg_sSrc, W
03A0  0724  	ADDWF FCI_RIGHTS_00048_1_idx, W
03A1  0084  	MOVWF FSR
03A2  0880  	MOVF INDF, F
03A3  1903  	BTFSC STATUS,Z
03A4  2BA7  	GOTO	label68
03A5  0AA4  	INCF FCI_RIGHTS_00048_1_idx, F
03A6  2B98  	GOTO	label67
03A7        label68
03A7  0820  	MOVF FCI_RIGHTS_00048_arg_iCount, W
03A8  0224  	SUBWF FCI_RIGHTS_00048_1_idx, W
03A9  1803  	BTFSC STATUS,C
03AA  2BAD  	GOTO	label69
03AB  0824  	MOVF FCI_RIGHTS_00048_1_idx, W
03AC  00A0  	MOVWF FCI_RIGHTS_00048_arg_iCount
03AD        label69
03AD  0820  	MOVF FCI_RIGHTS_00048_arg_iCount, W
03AE  0224  	SUBWF FCI_RIGHTS_00048_1_idx, W
03AF  00A5  	MOVWF FCI_RIGHTS_00048_1_delta
03B0  0820  	MOVF FCI_RIGHTS_00048_arg_iCount, W
03B1  0223  	SUBWF FCI_RIGHTS_00048_arg_iDst_len, W
03B2  1803  	BTFSC STATUS,C
03B3  2BB6  	GOTO	label70
03B4  0823  	MOVF FCI_RIGHTS_00048_arg_iDst_len, W
03B5  00A0  	MOVWF FCI_RIGHTS_00048_arg_iCount
03B6        label70
03B6  0825  	MOVF FCI_RIGHTS_00048_1_delta, W
03B7  07FC  	ADDWF FCI_RIGHTS_00048_arg_sSrc, F
03B8  1803  	BTFSC STATUS,C
03B9  0AFD  	INCF FCI_RIGHTS_00048_arg_sSrc+D'1', F
03BA  01A4  	CLRF FCI_RIGHTS_00048_1_idx
03BB        label71
03BB  0820  	MOVF FCI_RIGHTS_00048_arg_iCount, W
03BC  0224  	SUBWF FCI_RIGHTS_00048_1_idx, W
03BD  1803  	BTFSC STATUS,C
03BE  2BD5  	GOTO	label72
03BF  1383  	BCF STATUS,IRP
03C0  187D  	BTFSC FCI_RIGHTS_00048_arg_sSrc+D'1',0
03C1  1783  	BSF STATUS,IRP
03C2  087C  	MOVF FCI_RIGHTS_00048_arg_sSrc, W
03C3  0084  	MOVWF FSR
03C4  0800  	MOVF INDF, W
03C5  00A7  	MOVWF CompTempVar2008
03C6  1383  	BCF STATUS,IRP
03C7  1822  	BTFSC FCI_RIGHTS_00048_arg_sDst+D'1',0
03C8  1783  	BSF STATUS,IRP
03C9  0821  	MOVF FCI_RIGHTS_00048_arg_sDst, W
03CA  0084  	MOVWF FSR
03CB  0827  	MOVF CompTempVar2008, W
03CC  0080  	MOVWF INDF
03CD  0AA1  	INCF FCI_RIGHTS_00048_arg_sDst, F
03CE  1903  	BTFSC STATUS,Z
03CF  0AA2  	INCF FCI_RIGHTS_00048_arg_sDst+D'1', F
03D0  0AFC  	INCF FCI_RIGHTS_00048_arg_sSrc, F
03D1  1903  	BTFSC STATUS,Z
03D2  0AFD  	INCF FCI_RIGHTS_00048_arg_sSrc+D'1', F
03D3  0AA4  	INCF FCI_RIGHTS_00048_1_idx, F
03D4  2BBB  	GOTO	label71
03D5        label72
03D5  0823  	MOVF FCI_RIGHTS_00048_arg_iDst_len, W
03D6  0224  	SUBWF FCI_RIGHTS_00048_1_idx, W
03D7  1803  	BTFSC STATUS,C
03D8  2BE0  	GOTO	label73
03D9  1383  	BCF STATUS,IRP
03DA  1822  	BTFSC FCI_RIGHTS_00048_arg_sDst+D'1',0
03DB  1783  	BSF STATUS,IRP
03DC  0821  	MOVF FCI_RIGHTS_00048_arg_sDst, W
03DD  0084  	MOVWF FSR
03DE  3000  	MOVLW 0x00
03DF  0080  	MOVWF INDF
03E0        label73
03E0  0824  	MOVF FCI_RIGHTS_00048_1_idx, W
03E1  00A6  	MOVWF CompTempVarRet2006
03E2  0008  	RETURN
03E3        ; } FCI_RIGHTSTRING function end

	ORG 0x000003E3
03E3        FCD_RS2320_00063
03E3        ; { FCD_RS2320_ReceiveRS232String ; function begin
03E3  30FF  	MOVLW 0xFF
03E4  00A3  	MOVWF FCD_RS2320_00063_1_RS232_TO
03E5  01A4  	CLRF FCD_RS2320_00063_1_RS232_TO+D'1'
03E6  0821  	MOVF FCD_RS2320_00063_arg_NumBytes, W
03E7  027E  	SUBWF FCD_RS2320_00063_arg_FCR_R_00064, W
03E8  1803  	BTFSC STATUS,C
03E9  2BEC  	GOTO	label74
03EA  087E  	MOVF FCD_RS2320_00063_arg_FCR_R_00064, W
03EB  00A1  	MOVWF FCD_RS2320_00063_arg_NumBytes
03EC        label74
03EC  01A2  	CLRF FCD_RS2320_00063_1_idx
03ED        label75
03ED  0821  	MOVF FCD_RS2320_00063_arg_NumBytes, W
03EE  0222  	SUBWF FCD_RS2320_00063_1_idx, W
03EF  1803  	BTFSC STATUS,C
03F0  2C10  	GOTO	label77
03F1  0820  	MOVF FCD_RS2320_00063_arg_nTimeout, W
03F2  00A7  	MOVWF FC_CAL_UAR_0005D_arg_nTimeout
03F3  2064  	CALL FC_CAL_UAR_0005D
03F4  082E  	MOVF CompTempVarRet2225, W
03F5  00A5  	MOVWF FCD_RS2320_00063_1_in
03F6  082F  	MOVF CompTempVarRet2225+D'1', W
03F7  00A6  	MOVWF FCD_RS2320_00063_1_in+D'1'
03F8  0826  	MOVF FCD_RS2320_00063_1_in+D'1', W
03F9  3A80  	XORLW 0x80
03FA  00A7  	MOVWF CompTempVar2231
03FB  0824  	MOVF FCD_RS2320_00063_1_RS232_TO+D'1', W
03FC  3A80  	XORLW 0x80
03FD  0227  	SUBWF CompTempVar2231, W
03FE  1D03  	BTFSS STATUS,Z
03FF  2C02  	GOTO	label76
0400  0823  	MOVF FCD_RS2320_00063_1_RS232_TO, W
0401  0225  	SUBWF FCD_RS2320_00063_1_in, W
0402        label76
0402  1803  	BTFSC STATUS,C
0403  2C10  	GOTO	label77
0404  0825  	MOVF FCD_RS2320_00063_1_in, W
0405  00A7  	MOVWF CompTempVar2233
0406  1383  	BCF STATUS,IRP
0407  187D  	BTFSC FCD_RS2320_00063_arg_FCR_RETVAL+D'1',0
0408  1783  	BSF STATUS,IRP
0409  087C  	MOVF FCD_RS2320_00063_arg_FCR_RETVAL, W
040A  0722  	ADDWF FCD_RS2320_00063_1_idx, W
040B  0084  	MOVWF FSR
040C  0827  	MOVF CompTempVar2233, W
040D  0080  	MOVWF INDF
040E  0AA2  	INCF FCD_RS2320_00063_1_idx, F
040F  2BED  	GOTO	label75
0410        label77
0410  087E  	MOVF FCD_RS2320_00063_arg_FCR_R_00064, W
0411  0222  	SUBWF FCD_RS2320_00063_1_idx, W
0412  1803  	BTFSC STATUS,C
0413  0008  	RETURN
0414  1383  	BCF STATUS,IRP
0415  187D  	BTFSC FCD_RS2320_00063_arg_FCR_RETVAL+D'1',0
0416  1783  	BSF STATUS,IRP
0417  087C  	MOVF FCD_RS2320_00063_arg_FCR_RETVAL, W
0418  0722  	ADDWF FCD_RS2320_00063_1_idx, W
0419  0084  	MOVWF FSR
041A  3000  	MOVLW 0x00
041B  0080  	MOVWF INDF
041C  0008  	RETURN
041D        ; } FCD_RS2320_ReceiveRS232String function end

	ORG 0x0000041D
041D        FCD_RS2320_00062
041D        ; { FCD_RS2320_ReceiveRS232Char ; function begin
041D  087C  	MOVF FCD_RS2320_00062_arg_nTimeout, W
041E  1683  	BSF STATUS, RP0
041F  1303  	BCF STATUS, RP1
0420  00A7  	MOVWF FC_CAL_UAR_0005D_arg_nTimeout
0421  2064  	CALL FC_CAL_UAR_0005D
0422  082E  	MOVF CompTempVarRet2225, W
0423  00A0  	MOVWF CompTempVarRet2230
0424  082F  	MOVF CompTempVarRet2225+D'1', W
0425  00A1  	MOVWF CompTempVarRet2230+D'1'
0426  0008  	RETURN
0427        ; } FCD_RS2320_ReceiveRS232Char function end

	ORG 0x00000427
0427        main
0427        ; { main ; function begin
0427  1683  	BSF STATUS, RP0
0428  1703  	BSF STATUS, RP1
0429  0188  	CLRF gbl_ansel
042A  0189  	CLRF gbl_anselh
042B  228E  	CALL FC_CAL_UAR_0005B
042C  30C0  	MOVLW 0xC0
042D  0081  	MOVWF gbl_option_reg
042E  30FB  	MOVLW 0xFB
042F  0508  	ANDWF gbl_trisd, W
0430  0088  	MOVWF gbl_trisd
0431  30FB  	MOVLW 0xFB
0432  1283  	BCF STATUS, RP0
0433  0508  	ANDWF gbl_portd, W
0434  0088  	MOVWF gbl_portd
0435  30F7  	MOVLW 0xF7
0436  1683  	BSF STATUS, RP0
0437  0508  	ANDWF gbl_trisd, W
0438  0088  	MOVWF gbl_trisd
0439  30F7  	MOVLW 0xF7
043A  1283  	BCF STATUS, RP0
043B  0508  	ANDWF gbl_portd, W
043C  0088  	MOVWF gbl_portd
043D  30FE  	MOVLW 0xFE
043E  1683  	BSF STATUS, RP0
043F  0507  	ANDWF gbl_trisc, W
0440  0087  	MOVWF gbl_trisc
0441  30FE  	MOVLW 0xFE
0442  1283  	BCF STATUS, RP0
0443  0507  	ANDWF gbl_portc, W
0444  0087  	MOVWF gbl_portc
0445  30FD  	MOVLW 0xFD
0446  1683  	BSF STATUS, RP0
0447  0507  	ANDWF gbl_trisc, W
0448  0087  	MOVWF gbl_trisc
0449  30FD  	MOVLW 0xFD
044A  1283  	BCF STATUS, RP0
044B  0507  	ANDWF gbl_portc, W
044C  0087  	MOVWF gbl_portc
044D  30FE  	MOVLW 0xFE
044E  1683  	BSF STATUS, RP0
044F  0508  	ANDWF gbl_trisd, W
0450  0088  	MOVWF gbl_trisd
0451  30FE  	MOVLW 0xFE
0452  1283  	BCF STATUS, RP0
0453  0508  	ANDWF gbl_portd, W
0454  0088  	MOVWF gbl_portd
0455  30FD  	MOVLW 0xFD
0456  1683  	BSF STATUS, RP0
0457  0508  	ANDWF gbl_trisd, W
0458  0088  	MOVWF gbl_trisd
0459  30FD  	MOVLW 0xFD
045A  1283  	BCF STATUS, RP0
045B  0508  	ANDWF gbl_portd, W
045C  00FC  	MOVWF CompTempVar2235
045D  3002  	MOVLW 0x02
045E  047C  	IORWF CompTempVar2235, W
045F  0088  	MOVWF gbl_portd
0460  30DF  	MOVLW 0xDF
0461  1683  	BSF STATUS, RP0
0462  0508  	ANDWF gbl_trisd, W
0463  0088  	MOVWF gbl_trisd
0464  30DF  	MOVLW 0xDF
0465  1283  	BCF STATUS, RP0
0466  0508  	ANDWF gbl_portd, W
0467  0088  	MOVWF gbl_portd
0468  30EF  	MOVLW 0xEF
0469  1683  	BSF STATUS, RP0
046A  0508  	ANDWF gbl_trisd, W
046B  0088  	MOVWF gbl_trisd
046C  30EF  	MOVLW 0xEF
046D  1283  	BCF STATUS, RP0
046E  0508  	ANDWF gbl_portd, W
046F  00FC  	MOVWF CompTempVar2236
0470  3010  	MOVLW 0x10
0471  047C  	IORWF CompTempVar2236, W
0472  0088  	MOVWF gbl_portd
0473  30FB  	MOVLW 0xFB
0474  1683  	BSF STATUS, RP0
0475  0508  	ANDWF gbl_trisd, W
0476  0088  	MOVWF gbl_trisd
0477  30FB  	MOVLW 0xFB
0478  1283  	BCF STATUS, RP0
0479  0508  	ANDWF gbl_portd, W
047A  00FC  	MOVWF CompTempVar2237
047B  3004  	MOVLW 0x04
047C  047C  	IORWF CompTempVar2237, W
047D  0088  	MOVWF gbl_portd
047E  30F7  	MOVLW 0xF7
047F  1683  	BSF STATUS, RP0
0480  0508  	ANDWF gbl_trisd, W
0481  0088  	MOVWF gbl_trisd
0482  30F7  	MOVLW 0xF7
0483  1283  	BCF STATUS, RP0
0484  0508  	ANDWF gbl_portd, W
0485  00FC  	MOVWF CompTempVar2238
0486  3008  	MOVLW 0x08
0487  047C  	IORWF CompTempVar2238, W
0488  0088  	MOVWF gbl_portd
0489        label78
0489  229D  	CALL FCM_displa_0005A
048A  3001  	MOVLW 0x01
048B  00FC  	MOVWF FCD_RS2320_00062_arg_nTimeout
048C  241D  	CALL FCD_RS2320_00062
048D  0820  	MOVF CompTempVarRet2230, W
048E  00F6  	MOVWF gbl_FCV_HEADER
048F  0876  	MOVF gbl_FCV_HEADER, W
0490  3A3A  	XORLW 0x3A
0491  1D03  	BTFSS STATUS,Z
0492  2C89  	GOTO	label78
0493  3000  	MOVLW HIGH(gbl_FCV_RECV+D'0')
0494  00FD  	MOVWF FCD_RS2320_00063_arg_FCR_RETVAL+D'1'
0495  3020  	MOVLW LOW(gbl_FCV_RECV+D'0')
0496  00FC  	MOVWF FCD_RS2320_00063_arg_FCR_RETVAL
0497  3012  	MOVLW 0x12
0498  00FE  	MOVWF FCD_RS2320_00063_arg_FCR_R_00064
0499  3001  	MOVLW 0x01
049A  00A0  	MOVWF FCD_RS2320_00063_arg_nTimeout
049B  3012  	MOVLW 0x12
049C  00A1  	MOVWF FCD_RS2320_00063_arg_NumBytes
049D  23E3  	CALL FCD_RS2320_00063
049E  3000  	MOVLW HIGH(gbl_FCV_RECV+D'0')
049F  00FD  	MOVWF FCI_RIGHTS_00048_arg_sSrc+D'1'
04A0  3020  	MOVLW LOW(gbl_FCV_RECV+D'0')
04A1  00FC  	MOVWF FCI_RIGHTS_00048_arg_sSrc
04A2  3012  	MOVLW 0x12
04A3  00FE  	MOVWF FCI_RIGHTS_00048_arg_iSrc_len
04A4  3011  	MOVLW 0x11
04A5  00A0  	MOVWF FCI_RIGHTS_00048_arg_iCount
04A6  3000  	MOVLW HIGH(gbl_FCV_STRING_MINUTES+D'0')
04A7  00A2  	MOVWF FCI_RIGHTS_00048_arg_sDst+D'1'
04A8  3058  	MOVLW LOW(gbl_FCV_STRING_MINUTES+D'0')
04A9  00A1  	MOVWF FCI_RIGHTS_00048_arg_sDst
04AA  3002  	MOVLW 0x02
04AB  00A3  	MOVWF FCI_RIGHTS_00048_arg_iDst_len
04AC  2392  	CALL FCI_RIGHTS_00048
04AD  3000  	MOVLW HIGH(gbl_FCV_RECV+D'0')
04AE  00FD  	MOVWF FCI_RIGHTS_00048_arg_sSrc+D'1'
04AF  3020  	MOVLW LOW(gbl_FCV_RECV+D'0')
04B0  00FC  	MOVWF FCI_RIGHTS_00048_arg_sSrc
04B1  3012  	MOVLW 0x12
04B2  00FE  	MOVWF FCI_RIGHTS_00048_arg_iSrc_len
04B3  300E  	MOVLW 0x0E
04B4  00A0  	MOVWF FCI_RIGHTS_00048_arg_iCount
04B5  3000  	MOVLW HIGH(gbl_FCV_STRING_SECONDS+D'0')
04B6  00A2  	MOVWF FCI_RIGHTS_00048_arg_sDst+D'1'
04B7  3056  	MOVLW LOW(gbl_FCV_STRING_SECONDS+D'0')
04B8  00A1  	MOVWF FCI_RIGHTS_00048_arg_sDst
04B9  3002  	MOVLW 0x02
04BA  00A3  	MOVWF FCI_RIGHTS_00048_arg_iDst_len
04BB  2392  	CALL FCI_RIGHTS_00048
04BC  3000  	MOVLW HIGH(gbl_FCV_RECV+D'0')
04BD  00FD  	MOVWF FCI_RIGHTS_00048_arg_sSrc+D'1'
04BE  3020  	MOVLW LOW(gbl_FCV_RECV+D'0')
04BF  00FC  	MOVWF FCI_RIGHTS_00048_arg_sSrc
04C0  3012  	MOVLW 0x12
04C1  00FE  	MOVWF FCI_RIGHTS_00048_arg_iSrc_len
04C2  300B  	MOVLW 0x0B
04C3  00A0  	MOVWF FCI_RIGHTS_00048_arg_iCount
04C4  3000  	MOVLW HIGH(gbl_FCV_STRING_FOULPERIOD+D'0')
04C5  00A2  	MOVWF FCI_RIGHTS_00048_arg_sDst+D'1'
04C6  3049  	MOVLW LOW(gbl_FCV_STRING_FOULPERIOD+D'0')
04C7  00A1  	MOVWF FCI_RIGHTS_00048_arg_sDst
04C8  3003  	MOVLW 0x03
04C9  00A3  	MOVWF FCI_RIGHTS_00048_arg_iDst_len
04CA  2392  	CALL FCI_RIGHTS_00048
04CB  3000  	MOVLW HIGH(gbl_FCV_RECV+D'0')
04CC  00FD  	MOVWF FCI_RIGHTS_00048_arg_sSrc+D'1'
04CD  3020  	MOVLW LOW(gbl_FCV_RECV+D'0')
04CE  00FC  	MOVWF FCI_RIGHTS_00048_arg_sSrc
04CF  3012  	MOVLW 0x12
04D0  00FE  	MOVWF FCI_RIGHTS_00048_arg_iSrc_len
04D1  3007  	MOVLW 0x07
04D2  00A0  	MOVWF FCI_RIGHTS_00048_arg_iCount
04D3  3000  	MOVLW HIGH(gbl_FCV_STRING_SCORE_AWAY+D'0')
04D4  00A2  	MOVWF FCI_RIGHTS_00048_arg_sDst+D'1'
04D5  304C  	MOVLW LOW(gbl_FCV_STRING_SCORE_AWAY+D'0')
04D6  00A1  	MOVWF FCI_RIGHTS_00048_arg_sDst
04D7  3003  	MOVLW 0x03
04D8  00A3  	MOVWF FCI_RIGHTS_00048_arg_iDst_len
04D9  2392  	CALL FCI_RIGHTS_00048
04DA  3000  	MOVLW HIGH(gbl_FCV_RECV+D'0')
04DB  00FD  	MOVWF FCI_RIGHTS_00048_arg_sSrc+D'1'
04DC  3020  	MOVLW LOW(gbl_FCV_RECV+D'0')
04DD  00FC  	MOVWF FCI_RIGHTS_00048_arg_sSrc
04DE  3012  	MOVLW 0x12
04DF  00FE  	MOVWF FCI_RIGHTS_00048_arg_iSrc_len
04E0  3003  	MOVLW 0x03
04E1  00A0  	MOVWF FCI_RIGHTS_00048_arg_iCount
04E2  3000  	MOVLW HIGH(gbl_FCV_STRING_SCORE_HOME+D'0')
04E3  00A2  	MOVWF FCI_RIGHTS_00048_arg_sDst+D'1'
04E4  3046  	MOVLW LOW(gbl_FCV_STRING_SCORE_HOME+D'0')
04E5  00A1  	MOVWF FCI_RIGHTS_00048_arg_sDst
04E6  3003  	MOVLW 0x03
04E7  00A3  	MOVWF FCI_RIGHTS_00048_arg_iDst_len
04E8  2392  	CALL FCI_RIGHTS_00048
04E9  3000  	MOVLW HIGH(gbl_FCV_STRING_SCORE_AWAY+D'0')
04EA  00FD  	MOVWF FCI_STRING_0004F_arg_String+D'1'
04EB  304C  	MOVLW LOW(gbl_FCV_STRING_SCORE_AWAY+D'0')
04EC  00FC  	MOVWF FCI_STRING_0004F_arg_String
04ED  3003  	MOVLW 0x03
04EE  00FE  	MOVWF FCI_STRING_0004F_arg_MSZ_String
04EF  22F9  	CALL FCI_STRING_0004F
04F0  0827  	MOVF CompTempVarRet2056, W
04F1  00F7  	MOVWF gbl_FCV_SCORE_HOME
04F2  3000  	MOVLW HIGH(gbl_FCV_STRING_SCORE_HOME+D'0')
04F3  00FD  	MOVWF FCI_STRING_0004F_arg_String+D'1'
04F4  3046  	MOVLW LOW(gbl_FCV_STRING_SCORE_HOME+D'0')
04F5  00FC  	MOVWF FCI_STRING_0004F_arg_String
04F6  3003  	MOVLW 0x03
04F7  00FE  	MOVWF FCI_STRING_0004F_arg_MSZ_String
04F8  22F9  	CALL FCI_STRING_0004F
04F9  0827  	MOVF CompTempVarRet2056, W
04FA  1283  	BCF STATUS, RP0
04FB  00EF  	MOVWF gbl_FCV_SCORE_AWAY
04FC  3000  	MOVLW HIGH(gbl_FCV_STRING_FOULPERIOD+D'0')
04FD  00FD  	MOVWF FCI_STRING_0004F_arg_String+D'1'
04FE  3049  	MOVLW LOW(gbl_FCV_STRING_FOULPERIOD+D'0')
04FF  00FC  	MOVWF FCI_STRING_0004F_arg_String
0500  3003  	MOVLW 0x03
0501  00FE  	MOVWF FCI_STRING_0004F_arg_MSZ_String
0502  22F9  	CALL FCI_STRING_0004F
0503  0827  	MOVF CompTempVarRet2056, W
0504  1283  	BCF STATUS, RP0
0505  00D4  	MOVWF gbl_FCV_FOULPERIOD
0506  1683  	BSF STATUS, RP0
0507  0828  	MOVF CompTempVarRet2056+D'1', W
0508  1283  	BCF STATUS, RP0
0509  00D5  	MOVWF gbl_FCV_FOULPERIOD+D'1'
050A  3000  	MOVLW HIGH(gbl_FCV_STRING_MINUTES+D'0')
050B  00FD  	MOVWF FCI_STRING_0004F_arg_String+D'1'
050C  3058  	MOVLW LOW(gbl_FCV_STRING_MINUTES+D'0')
050D  00FC  	MOVWF FCI_STRING_0004F_arg_String
050E  3002  	MOVLW 0x02
050F  00FE  	MOVWF FCI_STRING_0004F_arg_MSZ_String
0510  22F9  	CALL FCI_STRING_0004F
0511  0827  	MOVF CompTempVarRet2056, W
0512  1283  	BCF STATUS, RP0
0513  00E7  	MOVWF gbl_FCV_MINUTES
0514  3000  	MOVLW HIGH(gbl_FCV_STRING_SECONDS+D'0')
0515  00FD  	MOVWF FCI_STRING_0004F_arg_String+D'1'
0516  3056  	MOVLW LOW(gbl_FCV_STRING_SECONDS+D'0')
0517  00FC  	MOVWF FCI_STRING_0004F_arg_String
0518  3002  	MOVLW 0x02
0519  00FE  	MOVWF FCI_STRING_0004F_arg_MSZ_String
051A  22F9  	CALL FCI_STRING_0004F
051B  0827  	MOVF CompTempVarRet2056, W
051C  1283  	BCF STATUS, RP0
051D  00E5  	MOVWF gbl_FCV_SECONDS
051E  086F  	MOVF gbl_FCV_SCORE_AWAY, W
051F  00FC  	MOVWF __div_8_8_00000_arg_a
0520  300A  	MOVLW 0x0A
0521  00FD  	MOVWF __div_8_8_00000_arg_b
0522  225C  	CALL __div_8_8_00000
0523  0821  	MOVF CompTempVarRet218, W
0524  1283  	BCF STATUS, RP0
0525  00E9  	MOVWF gbl_FCV_AWAY_TENS
0526  086F  	MOVF gbl_FCV_SCORE_AWAY, W
0527  00FC  	MOVWF __rem_8_8_00000_arg_a
0528  300A  	MOVLW 0x0A
0529  00FD  	MOVWF __rem_8_8_00000_arg_b
052A  222A  	CALL __rem_8_8_00000
052B  0821  	MOVF CompTempVarRet220, W
052C  00F2  	MOVWF gbl_FCV_AWAY_ONES
052D  0877  	MOVF gbl_FCV_SCORE_HOME, W
052E  00FC  	MOVWF __div_8_8_00000_arg_a
052F  300A  	MOVLW 0x0A
0530  00FD  	MOVWF __div_8_8_00000_arg_b
0531  225C  	CALL __div_8_8_00000
0532  0821  	MOVF CompTempVarRet218, W
0533  00F5  	MOVWF gbl_FCV_HOME_TENS
0534  0877  	MOVF gbl_FCV_SCORE_HOME, W
0535  00FC  	MOVWF __rem_8_8_00000_arg_a
0536  300A  	MOVLW 0x0A
0537  00FD  	MOVWF __rem_8_8_00000_arg_b
0538  222A  	CALL __rem_8_8_00000
0539  0821  	MOVF CompTempVarRet220, W
053A  1283  	BCF STATUS, RP0
053B  00E3  	MOVWF gbl_FCV_HOME_ONES
053C  01FC  	CLRF CompTempVar2256
053D  0854  	MOVF gbl_FCV_FOULPERIOD, W
053E  1683  	BSF STATUS, RP0
053F  00A2  	MOVWF __div_16_1_00003_arg_a
0540  1283  	BCF STATUS, RP0
0541  0855  	MOVF gbl_FCV_FOULPERIOD+D'1', W
0542  1683  	BSF STATUS, RP0
0543  00A3  	MOVWF __div_16_1_00003_arg_a+D'1'
0544  1283  	BCF STATUS, RP0
0545  1FD5  	BTFSS gbl_FCV_FOULPERIOD+D'1',7
0546  2D4E  	GOTO	label79
0547  1683  	BSF STATUS, RP0
0548  09A2  	COMF __div_16_1_00003_arg_a, F
0549  09A3  	COMF __div_16_1_00003_arg_a+D'1', F
054A  0AA2  	INCF __div_16_1_00003_arg_a, F
054B  1903  	BTFSC STATUS,Z
054C  0AA3  	INCF __div_16_1_00003_arg_a+D'1', F
054D  0AFC  	INCF CompTempVar2256, F
054E        label79
054E  3064  	MOVLW 0x64
054F  1683  	BSF STATUS, RP0
0550  00A4  	MOVWF __div_16_1_00003_arg_b
0551  01A5  	CLRF __div_16_1_00003_arg_b+D'1'
0552  226F  	CALL __div_16_1_00003
0553  082A  	MOVF CompTempVarRet214, W
0554  1283  	BCF STATUS, RP0
0555  00E8  	MOVWF gbl_FCV_HOME_FOUL
0556  1C7C  	BTFSS CompTempVar2256,0
0557  2D5A  	GOTO	label80
0558  09E8  	COMF gbl_FCV_HOME_FOUL, F
0559  0AE8  	INCF gbl_FCV_HOME_FOUL, F
055A        label80
055A  0854  	MOVF gbl_FCV_FOULPERIOD, W
055B  00FC  	MOVWF __rem_16_1_00004_arg_a
055C  0855  	MOVF gbl_FCV_FOULPERIOD+D'1', W
055D  00FD  	MOVWF __rem_16_1_00004_arg_a+D'1'
055E  1FD5  	BTFSS gbl_FCV_FOULPERIOD+D'1',7
055F  2D65  	GOTO	label81
0560  09FC  	COMF __rem_16_1_00004_arg_a, F
0561  09FD  	COMF __rem_16_1_00004_arg_a+D'1', F
0562  0AFC  	INCF __rem_16_1_00004_arg_a, F
0563  1903  	BTFSC STATUS,Z
0564  0AFD  	INCF __rem_16_1_00004_arg_a+D'1', F
0565        label81
0565  3064  	MOVLW 0x64
0566  1683  	BSF STATUS, RP0
0567  00A0  	MOVWF __rem_16_1_00004_arg_b
0568  01A1  	CLRF __rem_16_1_00004_arg_b+D'1'
0569  223D  	CALL __rem_16_1_00004
056A  0829  	MOVF CompTempVarRet216, W
056B  00A2  	MOVWF __div_16_1_00003_arg_a
056C  082A  	MOVF CompTempVarRet216+D'1', W
056D  00FE  	MOVWF CompTempVar2258
056E  1283  	BCF STATUS, RP0
056F  1FD5  	BTFSS gbl_FCV_FOULPERIOD+D'1',7
0570  2D77  	GOTO	label82
0571  1683  	BSF STATUS, RP0
0572  09A2  	COMF __div_16_1_00003_arg_a, F
0573  09FE  	COMF CompTempVar2258, F
0574  0AA2  	INCF __div_16_1_00003_arg_a, F
0575  1903  	BTFSC STATUS,Z
0576  0AFE  	INCF CompTempVar2258, F
0577        label82
0577  1683  	BSF STATUS, RP0
0578  01A6  	CLRF CompTempVar2260
0579  087E  	MOVF CompTempVar2258, W
057A  00A3  	MOVWF __div_16_1_00003_arg_a+D'1'
057B  1FFE  	BTFSS CompTempVar2258,7
057C  2D83  	GOTO	label83
057D  09A2  	COMF __div_16_1_00003_arg_a, F
057E  09A3  	COMF __div_16_1_00003_arg_a+D'1', F
057F  0AA2  	INCF __div_16_1_00003_arg_a, F
0580  1903  	BTFSC STATUS,Z
0581  0AA3  	INCF __div_16_1_00003_arg_a+D'1', F
0582  0AA6  	INCF CompTempVar2260, F
0583        label83
0583  300A  	MOVLW 0x0A
0584  00A4  	MOVWF __div_16_1_00003_arg_b
0585  01A5  	CLRF __div_16_1_00003_arg_b+D'1'
0586  226F  	CALL __div_16_1_00003
0587  082A  	MOVF CompTempVarRet214, W
0588  1283  	BCF STATUS, RP0
0589  00E6  	MOVWF gbl_FCV_PERIOD
058A  1683  	BSF STATUS, RP0
058B  1C26  	BTFSS CompTempVar2260,0
058C  2D90  	GOTO	label84
058D  1283  	BCF STATUS, RP0
058E  09E6  	COMF gbl_FCV_PERIOD, F
058F  0AE6  	INCF gbl_FCV_PERIOD, F
0590        label84
0590  1283  	BCF STATUS, RP0
0591  0854  	MOVF gbl_FCV_FOULPERIOD, W
0592  00FC  	MOVWF __rem_16_1_00004_arg_a
0593  0855  	MOVF gbl_FCV_FOULPERIOD+D'1', W
0594  00FD  	MOVWF __rem_16_1_00004_arg_a+D'1'
0595  1FD5  	BTFSS gbl_FCV_FOULPERIOD+D'1',7
0596  2D9C  	GOTO	label85
0597  09FC  	COMF __rem_16_1_00004_arg_a, F
0598  09FD  	COMF __rem_16_1_00004_arg_a+D'1', F
0599  0AFC  	INCF __rem_16_1_00004_arg_a, F
059A  1903  	BTFSC STATUS,Z
059B  0AFD  	INCF __rem_16_1_00004_arg_a+D'1', F
059C        label85
059C  300A  	MOVLW 0x0A
059D  1683  	BSF STATUS, RP0
059E  00A0  	MOVWF __rem_16_1_00004_arg_b
059F  01A1  	CLRF __rem_16_1_00004_arg_b+D'1'
05A0  223D  	CALL __rem_16_1_00004
05A1  0829  	MOVF CompTempVarRet216, W
05A2  00FA  	MOVWF gbl_FCV_AWAY_FOUL
05A3  1283  	BCF STATUS, RP0
05A4  1FD5  	BTFSS gbl_FCV_FOULPERIOD+D'1',7
05A5  2DA8  	GOTO	label86
05A6  09FA  	COMF gbl_FCV_AWAY_FOUL, F
05A7  0AFA  	INCF gbl_FCV_AWAY_FOUL, F
05A8        label86
05A8  0867  	MOVF gbl_FCV_MINUTES, W
05A9  00FC  	MOVWF __div_8_8_00000_arg_a
05AA  300A  	MOVLW 0x0A
05AB  00FD  	MOVWF __div_8_8_00000_arg_b
05AC  225C  	CALL __div_8_8_00000
05AD  0821  	MOVF CompTempVarRet218, W
05AE  1283  	BCF STATUS, RP0
05AF  00EA  	MOVWF gbl_FCV_MINUTE_TENS
05B0  0867  	MOVF gbl_FCV_MINUTES, W
05B1  00FC  	MOVWF __rem_8_8_00000_arg_a
05B2  300A  	MOVLW 0x0A
05B3  00FD  	MOVWF __rem_8_8_00000_arg_b
05B4  222A  	CALL __rem_8_8_00000
05B5  0821  	MOVF CompTempVarRet220, W
05B6  00F3  	MOVWF gbl_FCV_MINUTE_ONES
05B7  1283  	BCF STATUS, RP0
05B8  0865  	MOVF gbl_FCV_SECONDS, W
05B9  00FC  	MOVWF __div_8_8_00000_arg_a
05BA  300A  	MOVLW 0x0A
05BB  00FD  	MOVWF __div_8_8_00000_arg_b
05BC  225C  	CALL __div_8_8_00000
05BD  0821  	MOVF CompTempVarRet218, W
05BE  1283  	BCF STATUS, RP0
05BF  00ED  	MOVWF gbl_FCV_SECONDS_TENS
05C0  0865  	MOVF gbl_FCV_SECONDS, W
05C1  00FC  	MOVWF __rem_8_8_00000_arg_a
05C2  300A  	MOVLW 0x0A
05C3  00FD  	MOVWF __rem_8_8_00000_arg_b
05C4  222A  	CALL __rem_8_8_00000
05C5  0821  	MOVF CompTempVarRet220, W
05C6  00F8  	MOVWF gbl_FCV_SECONDS_ONES
05C7  1283  	BCF STATUS, RP0
05C8  1164  	BCF gbl_FCV_FLAG,2
05C9  229D  	CALL FCM_displa_0005A
05CA  229D  	CALL FCM_displa_0005A
05CB  2C89  	GOTO	label78
05CC        ; } main function end

	ORG 0x000005CC
05CC        _startup
05CC  30D5  	MOVLW 0xD5
05CD  1283  	BCF STATUS, RP0
05CE  1303  	BCF STATUS, RP1
05CF  00B2  	MOVWF gbl_14_LSR
05D0  30C4  	MOVLW 0xC4
05D1  00B3  	MOVWF gbl_14_LSR+D'1'
05D2  30BB  	MOVLW 0xBB
05D3  00B4  	MOVWF gbl_14_LSR+D'2'
05D4  30DC  	MOVLW 0xDC
05D5  00B5  	MOVWF gbl_14_LSR+D'3'
05D6  01B6  	CLRF gbl_15_gbl_aSig
05D7  01B7  	CLRF gbl_15_gbl_aSig+D'1'
05D8  01B8  	CLRF gbl_15_gbl_aSig+D'2'
05D9  01B9  	CLRF gbl_15_gbl_aSig+D'3'
05DA  01BA  	CLRF gbl_15_gbl_bSig
05DB  01BB  	CLRF gbl_15_gbl_bSig+D'1'
05DC  01BC  	CLRF gbl_15_gbl_bSig+D'2'
05DD  01BD  	CLRF gbl_15_gbl_bSig+D'3'
05DE  01BE  	CLRF gbl_15_gbl_zSig
05DF  01BF  	CLRF gbl_15_gbl_zSig+D'1'
05E0  01C0  	CLRF gbl_15_gbl_zSig+D'2'
05E1  01C1  	CLRF gbl_15_gbl_zSig+D'3'
05E2  01DD  	CLRF gbl_15_gbl_aExp
05E3  01DE  	CLRF gbl_15_gbl_bExp
05E4  01D2  	CLRF gbl_15_gbl_zExp
05E5  01D3  	CLRF gbl_15_gbl_zExp+D'1'
05E6  01DF  	CLRF gbl_15_gbl_aSign
05E7  01E0  	CLRF gbl_15_gbl_bSign
05E8  01E1  	CLRF gbl_15_gbl_zSign
05E9  01E2  	CLRF gbl_15_gbl_zSigZero
05EA  01C2  	CLRF gbl_15_gbl_ret
05EB  01C3  	CLRF gbl_15_gbl_ret+D'1'
05EC  01C4  	CLRF gbl_15_gbl_ret+D'2'
05ED  01C5  	CLRF gbl_15_gbl_ret+D'3'
05EE  01DB  	CLRF gbl_float_rounding_mode
05EF  01DC  	CLRF gbl_float_exception_flags
05F0  01DA  	CLRF gbl_float_detect_tininess
05F1  01C6  	CLRF gbl_FCV_STRING_SCORE_HOME
05F2  01E3  	CLRF gbl_FCV_HOME_ONES
05F3  01D4  	CLRF gbl_FCV_FOULPERIOD
05F4  01D5  	CLRF gbl_FCV_FOULPERIOD+D'1'
05F5  01E6  	CLRF gbl_FCV_PERIOD
05F6  01E7  	CLRF gbl_FCV_MINUTES
05F7  01E8  	CLRF gbl_FCV_HOME_FOUL
05F8  01E9  	CLRF gbl_FCV_AWAY_TENS
05F9  01EA  	CLRF gbl_FCV_MINUTE_TENS
05FA  01A0  	CLRF gbl_FCV_RECV
05FB  01EB  	CLRF gbl_FCV_BITS
05FC  01C9  	CLRF gbl_FCV_STRING_FOULPERIOD
05FD  01ED  	CLRF gbl_FCV_SECONDS_TENS
05FE  01EE  	CLRF gbl_FCV_DIGITC
05FF  01EF  	CLRF gbl_FCV_SCORE_AWAY
0600  01F0  	CLRF gbl_FCV_DIGIT
0601  10E4  	BCF gbl_FCV_HOME_HUNDRED,1
0602  01F1  	CLRF gbl_FCV_BITS2
0603  01F2  	CLRF gbl_FCV_AWAY_ONES
0604  01F3  	CLRF gbl_FCV_MINUTE_ONES
0605  01F4  	CLRF gbl_FCV_BITS3
0606  01F5  	CLRF gbl_FCV_HOME_TENS
0607  1164  	BCF gbl_FCV_FLAG,2
0608  01F6  	CLRF gbl_FCV_HEADER
0609  11E4  	BCF gbl_FCV_AWAY_HUNDREDS,3
060A  01F8  	CLRF gbl_FCV_SECONDS_ONES
060B  01CC  	CLRF gbl_FCV_STRING_SCORE_AWAY
060C  01F9  	CLRF gbl_FCV_IHAP
060D  1264  	BCF gbl_FCV_DAT2,4
060E  01D6  	CLRF gbl_FCV_STRING_SECONDS
060F  01FA  	CLRF gbl_FCV_AWAY_FOUL
0610  12E4  	BCF gbl_FCV_DAT3,5
0611  01D8  	CLRF gbl_FCV_STRING_MINUTES
0612  118A  	BCF PCLATH,3
0613  120A  	BCF PCLATH,4
0614  2C27  	GOTO	main
	ORG 0x00000615
0615        interrupt
0615        ; { interrupt ; function begin
0615  1283  	BCF STATUS, RP0
0616  1303  	BCF STATUS, RP1
0617  0E51  	SWAPF Int1BContext+D'2', W
0618  0084  	MOVWF FSR
0619  0E50  	SWAPF Int1BContext+D'1', W
061A  008A  	MOVWF PCLATH
061B  0E4F  	SWAPF Int1BContext, W
061C  0083  	MOVWF STATUS
061D  0EFF  	SWAPF Int1Context, F
061E  0E7F  	SWAPF Int1Context, W
061F  0009  	RETFIE
0620        ; } interrupt function end

	ORG 0x00002007
2007  20C2  	DW 0x20C2
2008  3EFF  	DW 0x3EFF
