MPASM  5.51         20191009HUB6DISPLAYV3.ASM   10-24-2019  18:15:29         PAGE  1


LOC  OBJECT CODE     LINE SOURCE TEXT
  VALUE

                      00001 ;**********************************************************************
                      00002 ;                                                                     *
                      00003 ;    FILENAME:      HUBDISPLAYV3.ASM                                  *
                      00004 ;    DATE:          20191018                                          *
                      00005 ;    FILE VERSION:                                                    *
                      00006 ;                                                                     *
                      00007 ;    AUTHOR:       KENNY NEUTRON                                      *
                      00008 ;    COMPANY:      GER-PER ENGINEERING                                *
                      00009 ;                                                                     * 
                      00010 ;                                                                     *
                      00011 ;**********************************************************************
                      00012 ;                                                                     *
                      00013 ;    FILES REQUIRED: P16F690.INC                                      *
                      00014 ;                                                                     *
                      00015 ;**********************************************************************
                      00016 
                      00017 
                      00018         LIST            P=16F690                ; LIST DIRECTIVE TO DEFINE PROCESSOR
                      00019         #INCLUDE        <P16F690.INC>           ; PROCESSOR SPECIFIC VARIABLE DEFINITIONS
                      00001         LIST
                      00002 
                      00003 ;==========================================================================
                      00004 ;  MPASM PIC16F690 processor include
                      00005 ; 
                      00006 ;  (c) Copyright 1999-2013 Microchip Technology, All rights reserved
                      00007 ;==========================================================================
                      00008 
                      00756         LIST
                      00020         
2007   30C2           00021         __CONFIG    _CP_OFF & _CPD_OFF & _BOR_OFF & _PWRTE_ON & _WDT_OFF & _HS_OSC & _MCLRE_OFF & _FCMEN
                            _OFF & _IESO_OFF
                      00022 
                      00023 ; '__CONFIG' DIRECTIVE IS USED TO EMBED CONFIGURATION DATA WITHIN .ASM FILE.
                      00024 ; THE LABELS FOLLOWING THE DIRECTIVE ARE LOCATED IN THE RESPECTIVE .INC FILE.
                      00025 ; SEE RESPECTIVE DATA SHEET FOR ADDITIONAL INFORMATION ON CONFIGURATION WORD.
                      00026 
                      00027 
                      00028 
                      00029 
                      00030 
                      00031 
                      00032 ;***** VARIABLE DEFINITIONS
  0000007D            00033 W_TEMP          EQU     0X7D                    ; VARIABLE USED FOR CONTEXT SAVING
  0000007E            00034 STATUS_TEMP     EQU     0X7E                    ; VARIABLE USED FOR CONTEXT SAVING
  0000007F            00035 PCLATH_TEMP     EQU     0X7F                    ; VARIABLE USED FOR CONTEXT SAVING
                      00036 
                      00037 
                      00038         ;#DEFINE C0_ON          BSF PORTC,      0       PORTC0=====>HI
                      00039         ;#DEFINE C0_OFF         BCF PORTC,      0       PORTC0=====>LO
                      00040 
                      00041         #DEFINE OE_ON           BCF     PORTA, 2
                      00042         #DEFINE OE_OFF          BSF     PORTA, 2
                      00043 
MPASM  5.51         20191009HUB6DISPLAYV3.ASM   10-24-2019  18:15:29         PAGE  2


LOC  OBJECT CODE     LINE SOURCE TEXT
  VALUE

                      00044         #DEFINE A_ON            BSF     PORTC, 0
                      00045         #DEFINE A_OFF           BCF     PORTC, 0
                      00046         
                      00047         #DEFINE B_ON            BSF     PORTC, 1
                      00048         #DEFINE B_OFF           BCF PORTC, 1
                      00049 
                      00050         #DEFINE C_ON            BSF     PORTC, 2
                      00051         #DEFINE C_OFF           BCF     PORTC, 2
                      00052         
                      00053         #DEFINE D_ON            BSF     PORTC, 3
                      00054         #DEFINE D_OFF           BCF     PORTC, 3
                      00055 
                      00056         #DEFINE LAT_ON          BSF     PORTB, 4
                      00057         #DEFINE LAT_OFF         BCF     PORTB, 4
                      00058 
                      00059         #DEFINE CLK_ON      BSF PORTB, 6
                      00060         #DEFINE CLK_OFF         BCF     PORTB, 6
                      00061 
                      00062 ;       #DEFINE CYC_ON          BSF     PORTB,7
                      00063 ;       #DEFINE CYC_OFF         BCF     PORTB,7
                      00064 
                      00065 
                      00066         #DEFINE R0_1            BSF     PORTC, 4
                      00067         #DEFINE R0_0            BCF     PORTC, 4
                      00068         
                      00069         #DEFINE R1_1            BSF     PORTC, 5
                      00070         #DEFINE R1_0            BCF     PORTC, 5
                      00071 
                      00072         #DEFINE G0_1            BSF     PORTC, 6
                      00073         #DEFINE G0_0            BCF     PORTC, 6
                      00074         
                      00075         #DEFINE G1_1            BSF     PORTC, 7
                      00076         #DEFINE G1_0            BCF     PORTC, 7
                      00077 
                      00078         #DEFINE WP_ON           BSF     PORTA,1
                      00079         #DEFINE WP_OFF          BCF     PORTA,1
                      00080 
                      00081         #DEFINE SDA_1           BSF     PORTB,7
                      00082         #DEFINE SDA_0           BCF     PORTB,7
                      00083 
                      00084         #DEFINE SCL_1           BSF     PORTB,5
                      00085         #DEFINE SCL_0           BCF     PORTB,5
                      00086 
                      00087         #DEFINE BANK0           BANKSEL PORTA
                      00088         #DEFINE BANK1           BANKSEL ADRESL
                      00089         #DEFINE BANK2           BANKSEL ANSELH
                      00090 
                      00091 ;============================   BANK    0       ===========================
Warning[205]: Found directive in column 1. (CBLOCK)
                      00092 CBLOCK 0X20
Warning[210]: Extra ","
  00000020            00093                         DELAYUS, DELAYMS,  MILSEC, ;SEC,DELAYS, ;DELAY VARIABLES
                      00094                         ;=======================================================
MPASM  5.51         20191009HUB6DISPLAYV3.ASM   10-24-2019  18:15:29         PAGE  3


LOC  OBJECT CODE     LINE SOURCE TEXT
  VALUE

  00000023            00095                         LOOP,COUNT0,COUNT1,COUNT2
  00000027            00096                         POINTER,BTCOUNT
  00000029            00097                         COLOR,NUMBER,ROW,FONT,STPT
  0000002E            00098                         CURSORX,CURSORY,CURSORY_TEMP
  00000031            00099                         REDHALF0,REDHALF1                       ;RED UPPER HALF : RED LOWER HALF RAMS
  00000033            00100                         GRNHALF0,GRNHALF1                       ;GRN UPPER HALF : GRN LOWER HAL
  00000035            00101                         TEMPRAM:.8
                      00102 
  0000003D            00103                         TESTNUM
  0000003E            00104                         TESTLOOP
  0000003F            00105                         PERIOD
  00000040            00106                         I2CREG,I2CLOOP
  00000042            00107                         HUB
  00000043            00108                         COLORA
  00000044            00109                         COLORB
  00000045            00110                         COLORC
  00000046            00111                         CCOUNT
Warning[205]: Found directive in column 1. (ENDC)
                      00112 ENDC
                      00113 ;======================================================================
                      00114 
                      00115 
                      00116 ;============================   BANK    1       ===========================
Warning[205]: Found directive in column 1. (CBLOCK)
                      00117 CBLOCK 0XA0
  000000A0            00118                         DRAM: .64
  000000E0            00119                         EB
Warning[205]: Found directive in column 1. (ENDC)
                      00120 ENDC
                      00121 ;======================================================================
                      00122 
                      00123 
                      00124 
                      00125 ;============================   BANK    2       ===========================
Warning[205]: Found directive in column 1. (CBLOCK)
                      00126 CBLOCK 0X120
                      00127 
                      00128 
Warning[205]: Found directive in column 1. (ENDC)
                      00129 ENDC
                      00130 ;======================================================================
                      00131 
                      00132 ;**************************************************     ********************
0000                  00133         ORG             0X000                           ; PROCESSOR RESET VECTOR
0000   2810           00134         GOTO    INIT                            ; GO TO BEGINNING OF PROGRAM
                      00135 
                      00136 
0004                  00137         ORG             0X004                           ; INTERRUPT VECTOR LOCATION
0004   00FD           00138         MOVWF           W_TEMP                  ; SAVE OFF CURRENT W REGISTER CONTENTS
0005   0803           00139         MOVF            STATUS,W                ; MOVE STATUS REGISTER INTO W REGISTER
0006   00FE           00140         MOVWF           STATUS_TEMP             ; SAVE OFF CONTENTS OF STATUS REGISTER
0007   080A           00141         MOVF            PCLATH,W                ; MOVE PCLATH REGISTER INTO W REGISTER
0008   00FF           00142         MOVWF           PCLATH_TEMP             ; SAVE OFF CONTENTS OF PCLATH REGISTER
MPASM  5.51         20191009HUB6DISPLAYV3.ASM   10-24-2019  18:15:29         PAGE  4


LOC  OBJECT CODE     LINE SOURCE TEXT
  VALUE

                      00143 
                      00144 ; ISR CODE CAN GO HERE OR BE LOCATED AS A CALL SUBROUTINE ELSEWHERE
                      00145 
0009   087F           00146         MOVF            PCLATH_TEMP,W   ; RETRIEVE COPY OF PCLATH REGISTER
000A   008A           00147         MOVWF           PCLATH                  ; RESTORE PRE-ISR PCLATH REGISTER CONTENTS      
000B   087E           00148         MOVF            STATUS_TEMP,W   ; RETRIEVE COPY OF STATUS REGISTER
000C   0083           00149         MOVWF           STATUS                  ; RESTORE PRE-ISR STATUS REGISTER CONTENTS
000D   0EFD           00150         SWAPF           W_TEMP,F
000E   0E7D           00151         SWAPF           W_TEMP,W                ; RESTORE PRE-ISR W REGISTER CONTENTS
000F   0009           00152         RETFIE                                          ; RETURN FROM INTERRUPT
                      00153 
                      00154 
                      00155 ;$$$$$$$$$$$$$$$$$$$$$  INITIALIZE      $$$$$$$$$$$$$$$$$$$$$$$$$$$$$$$$
0010                  00156 INIT
Warning[205]: Found directive in column 1. (BANKSEL)
0010   1283 1703      00157 BANKSEL ANSEL
Warning[203]: Found opcode in column 1. (CLRW)
0012   0103           00158 CLRW
Warning[203]: Found opcode in column 1. (MOVWF)
Message[302]: Register in operand not in bank 0.  Ensure that bank bits are correct.
0013   009E           00159 MOVWF   ANSEL
Warning[203]: Found opcode in column 1. (MOVWF)
Message[302]: Register in operand not in bank 0.  Ensure that bank bits are correct.
0014   009F           00160 MOVWF   ANSELH
                      00161 
Warning[205]: Found directive in column 1. (BANKSEL)
0015   1683 1303      00162 BANKSEL TRISA
                      00163 
Warning[203]: Found opcode in column 1. (MOVLW)
0017   3000           00164 MOVLW   0
Warning[203]: Found opcode in column 1. (MOVWF)
Message[302]: Register in operand not in bank 0.  Ensure that bank bits are correct.
0018   0085           00165 MOVWF   TRISA
                      00166 
Warning[203]: Found opcode in column 1. (MOVLW)
0019   3000           00167 MOVLW   0
Warning[203]: Found opcode in column 1. (MOVWF)
Message[302]: Register in operand not in bank 0.  Ensure that bank bits are correct.
001A   0086           00168 MOVWF   TRISB
                      00169 
Warning[203]: Found opcode in column 1. (MOVLW)
001B   3000           00170 MOVLW   0
Warning[203]: Found opcode in column 1. (MOVWF)
Message[302]: Register in operand not in bank 0.  Ensure that bank bits are correct.
001C   0087           00171 MOVWF   TRISC
                      00172 
                      00173 
                      00174 
Warning[205]: Found directive in column 1. (BANKSEL)
001D   1283 1303      00175 BANK0
Warning[203]: Found opcode in column 1. (BCF)
001F   1007           00176 A_OFF
Warning[203]: Found opcode in column 1. (BCF)
MPASM  5.51         20191009HUB6DISPLAYV3.ASM   10-24-2019  18:15:29         PAGE  5


LOC  OBJECT CODE     LINE SOURCE TEXT
  VALUE

0020   1087           00177 B_OFF
Warning[203]: Found opcode in column 1. (BCF)
0021   1107           00178 C_OFF
Warning[203]: Found opcode in column 1. (BCF)
0022   1187           00179 D_OFF
Warning[203]: Found opcode in column 1. (BCF)
0023   1306           00180 CLK_OFF
Warning[203]: Found opcode in column 1. (BCF)
0024   1206           00181 LAT_OFF
Warning[203]: Found opcode in column 1. (BCF)
0025   1287           00182 R1_0
0026                  00183 R2_0
Warning[203]: Found opcode in column 1. (BCF)
0026   1387           00184 G1_0
0027                  00185 G2_0
Warning[203]: Found opcode in column 1. (BCF)
0027   1105           00186 OE_ON
                      00187 
Warning[203]: Found opcode in column 1. (CALL)
0028   2097           00188 CALL    CLR_RAM
                      00189 
Warning[203]: Found opcode in column 1. (MOVLW)
0029   30AA           00190 MOVLW   0XAA
Warning[203]: Found opcode in column 1. (MOVWF)
Message[302]: Register in operand not in bank 0.  Ensure that bank bits are correct.
002A   00A8           00191 MOVWF   DRAM+08
                      00192 
Warning[203]: Found opcode in column 1. (MOVLW)
002B   3055           00193 MOVLW   0X55
Warning[203]: Found opcode in column 1. (MOVWF)
Message[302]: Register in operand not in bank 0.  Ensure that bank bits are correct.
002C   00A9           00194 MOVWF   DRAM+09
                      00195 
                      00196 
                      00197 
                      00198 
Warning[203]: Found opcode in column 1. (CALL)
002D   2097           00199 CALL    CLR_RAM
Warning[203]: Found opcode in column 1. (MOVLW)
002E   3000           00200 MOVLW   0
Warning[203]: Found opcode in column 1. (MOVWF)
002F   008A           00201 MOVWF   PCLATH
                      00202 ;#######################        MAIN PROGRAM  ##########################
0030                  00203 MAIN
0030   2047           00204                 CALL    SAMPLE
0031   3000           00205                 MOVLW   0
0032   00C3           00206                 MOVWF   COLORA
0033   3001           00207                 MOVLW   1
0034   00C4           00208                 MOVWF   COLORB
0035   3002           00209                 MOVLW   2
0036   00C5           00210                 MOVWF   COLORC
                      00211 
0037   204B           00212                 CALL    DISP
MPASM  5.51         20191009HUB6DISPLAYV3.ASM   10-24-2019  18:15:29         PAGE  6


LOC  OBJECT CODE     LINE SOURCE TEXT
  VALUE

                      00213 
0038   3002           00214                 MOVLW   2
0039   00C3           00215                 MOVWF   COLORA
003A   3000           00216                 MOVLW   0
003B   00C4           00217                 MOVWF   COLORB
003C   3001           00218                 MOVLW   1
003D   00C5           00219                 MOVWF   COLORC
                      00220 
003E   204B           00221                 CALL    DISP
                      00222 
003F   3001           00223                 MOVLW   1
0040   00C3           00224                 MOVWF   COLORA
0041   3002           00225                 MOVLW   2
0042   00C4           00226                 MOVWF   COLORB
0043   3000           00227                 MOVLW   0
0044   00C5           00228                 MOVWF   COLORC
                      00229 
0045   204B           00230                 CALL    DISP
                      00231         
                      00232 
Warning[203]: Found opcode in column 1. (GOTO)
0046   2830           00233 GOTO    MAIN
                      00234 ;###################################################################
                      00235 
0047                  00236 SAMPLE
0047   0000           00237         NOP
0048   0000           00238         NOP
0049   34AA           00239         RETLW   0XAA
                      00240 
Warning[203]: Found opcode in column 1. (RETURN)
004A   0008           00241 RETURN
                      00242 
004B                  00243 DISP
004B   3028           00244         MOVLW   .40
004C   00C6           00245         MOVWF   CCOUNT
004D                  00246 DDISP
004D   2051           00247         CALL    DISPLAY
004E   0BC6           00248         DECFSZ  CCOUNT,F
004F   284D           00249         GOTO    DDISP
Warning[203]: Found opcode in column 1. (RETURN)
0050   0008           00250 RETURN
                      00251 
0051                  00252 DISPLAY
                      00253 
0051   3011           00254                 MOVLW   .17
0052   00A6           00255                 MOVWF   COUNT2
0053   3000           00256                 MOVLW   0
0054   00AB           00257                 MOVWF   ROW
                      00258 
0055                  00259 DISP0   
0055   1606           00260                 LAT_ON
0056   1206           00261                 LAT_OFF
0057   1105           00262                 OE_ON
MPASM  5.51         20191009HUB6DISPLAYV3.ASM   10-24-2019  18:15:29         PAGE  7


LOC  OBJECT CODE     LINE SOURCE TEXT
  VALUE

0058   2097           00263                 CALL    CLR_RAM
                      00264 
                      00265 
0059   2062           00266                 CALL    COMMAND
                      00267 
005A   20A3           00268                 CALL    DATAREG
005B   1505           00269                 OE_OFF
005C   082B           00270                 MOVFW   ROW
005D   0087           00271                 MOVWF   PORTC
Message[305]: Using default destination of 1 (file).
005E   0AAB           00272                 INCF    ROW
005F   0BA6           00273                 DECFSZ  COUNT2,F
                      00274 
0060   2855           00275                 GOTO    DISP0
                      00276 
                      00277 
Warning[203]: Found opcode in column 1. (RETURN)
0061   0008           00278 RETURN
                      00279 
0062                  00280 COMMAND
0062   3002           00281                 MOVLW   2
0063   00AC           00282                 MOVWF   FONT
                      00283 
0064   3000           00284                 MOVLW   0X00
0065   00C2           00285                 MOVWF   HUB
                      00286 
0066   3001           00287                 MOVLW   01
0067   00AA           00288                 MOVWF   NUMBER
0068   3000           00289                 MOVLW   0
0069   00AE           00290                 MOVWF   CURSORX
006A   300F           00291                 MOVLW   .15
006B   00AF           00292                 MOVWF   CURSORY
006C   0843           00293                 MOVFW   COLORA
006D   00A9           00294                 MOVWF   COLOR
006E   20DE           00295                 CALL    DUMP
                      00296                 
                      00297 
                      00298 
006F   3000           00299                 MOVLW   00
0070   00AA           00300                 MOVWF   NUMBER
0071   3015           00301                 MOVLW   .21
0072   00AE           00302                 MOVWF   CURSORX
0073   0843           00303                 MOVFW   COLORA
0074   00A9           00304                 MOVWF   COLOR
0075   20DE           00305                 CALL    DUMP
                      00306 
0076   300C           00307                 MOVLW   0C
0077   00AA           00308                 MOVWF   NUMBER
0078   302A           00309                 MOVLW   .42
0079   00AE           00310                 MOVWF   CURSORX
007A   0844           00311                 MOVFW   COLORB
007B   00A9           00312                 MOVWF   COLOR
007C   20DE           00313                 CALL    DUMP
MPASM  5.51         20191009HUB6DISPLAYV3.ASM   10-24-2019  18:15:29         PAGE  8


LOC  OBJECT CODE     LINE SOURCE TEXT
  VALUE

                      00314 
                      00315 
                      00316 
007D   3020           00317                 MOVLW   0X20
007E   00C2           00318                 MOVWF   HUB
                      00319 
007F   3001           00320                 MOVLW   01
0080   00AA           00321                 MOVWF   NUMBER
0081   3000           00322                 MOVLW   0
0082   00AE           00323                 MOVWF   CURSORX
0083   300F           00324                 MOVLW   .15
0084   00AF           00325                 MOVWF   CURSORY
0085   0844           00326                 MOVFW   COLORB
0086   00A9           00327                 MOVWF   COLOR
0087   20DE           00328                 CALL    DUMP
                      00329 
                      00330 
0088   3000           00331                 MOVLW   00
0089   00AA           00332                 MOVWF   NUMBER
008A   3015           00333                 MOVLW   .21
008B   00AE           00334                 MOVWF   CURSORX
008C   0845           00335                 MOVFW   COLORC
008D   00A9           00336                 MOVWF   COLOR
008E   20DE           00337                 CALL    DUMP
                      00338 
008F   300C           00339                 MOVLW   0C
0090   00AA           00340                 MOVWF   NUMBER
0091   302A           00341                 MOVLW   .42
0092   00AE           00342                 MOVWF   CURSORX
0093   0845           00343                 MOVFW   COLORC
0094   00A9           00344                 MOVWF   COLOR
0095   20DE           00345                 CALL    DUMP
                      00346 
                      00347 
                      00348 
Warning[203]: Found opcode in column 1. (RETURN)
0096   0008           00349 RETURN
                      00350 
                      00351 
                      00352 
                      00353 ;=======================        CLEAR   RAM             ===================
0097                  00354 CLR_RAM
0097   1283 1303      00355         BANK0
0099   3040           00356         MOVLW           .64
009A   00A7           00357         MOVWF           POINTER
009B   30A0           00358         MOVLW           0XA0
009C   0084           00359         MOVWF           FSR  
                      00360 
009D                  00361 CLR0
009D   30FF           00362         MOVLW           0XFF
009E   0080           00363         MOVWF           INDF
                      00364 
009F   0A84           00365         INCF            FSR, F
MPASM  5.51         20191009HUB6DISPLAYV3.ASM   10-24-2019  18:15:29         PAGE  9


LOC  OBJECT CODE     LINE SOURCE TEXT
  VALUE

00A0   0BA7           00366         DECFSZ          POINTER, F
00A1   289D           00367         GOTO            CLR0
                      00368          
00A2   0008           00369         RETURN
                      00370 ;==============================================================
                      00371 
                      00372 
                      00373 
                      00374 ;=======================        REGISTER DATA           ===============
00A3                  00375 DATAREG
                      00376 
                      00377 
                      00378 
00A3   30A0           00379         MOVLW   0XA0
00A4   0084           00380         MOVWF   FSR
00A5   20AA           00381         CALL    DATAREGSUB
00A6   30C0           00382         MOVLW   0XC0
00A7   0084           00383         MOVWF   FSR
00A8   20AA           00384         CALL    DATAREGSUB
                      00385 
                      00386 
                      00387 
                      00388 
                      00389 
Warning[203]: Found opcode in column 1. (RETURN)
00A9   0008           00390 RETURN
                      00391 ;============================================================== 
                      00392 
                      00393 
00AA                  00394 DATAREGSUB
00AA   3008           00395         MOVLW   8
00AB   00A4           00396         MOVWF   COUNT0
                      00397         
                      00398 
00AC                  00399 DR0
00AC   0800           00400         MOVFW   INDF
00AD   00B1           00401         MOVWF   REDHALF0
                      00402 
                      00403         
                      00404 
00AE   1584           00405         BSF             FSR,3
                      00406         
00AF   0800           00407         MOVFW   INDF
00B0   00B2           00408         MOVWF   REDHALF1
                      00409 
                      00410 
00B1   1604           00411         BSF             FSR,4
                      00412         
00B2   0800           00413         MOVFW   INDF
00B3   00B4           00414         MOVWF   GRNHALF1
                      00415 
                      00416         
00B4   1184           00417         BCF             FSR,3
MPASM  5.51         20191009HUB6DISPLAYV3.ASM   10-24-2019  18:15:29         PAGE 10


LOC  OBJECT CODE     LINE SOURCE TEXT
  VALUE

                      00418 
00B5   0800           00419         MOVFW   INDF
00B6   00B3           00420         MOVWF   GRNHALF0
                      00421 
00B7   3008           00422         MOVLW   8
00B8   00A5           00423         MOVWF   COUNT1
                      00424 
00B9                  00425 DR1
Message[305]: Using default destination of 1 (file).
00B9   0DB1           00426         RLF             REDHALF0
                      00427         
00BA   1C03           00428         BTFSS   STATUS,C
00BB   28BD           00429         GOTO    R0LO
00BC   28BF           00430         GOTO    R0HI
                      00431 
00BD                  00432 R0LO
00BD   1607           00433         R0_1
00BE   28C0           00434         GOTO    DR2
00BF                  00435 R0HI
00BF   1207           00436         R0_0
                      00437 ;-------------------
00C0                  00438 DR2
Message[305]: Using default destination of 1 (file).
00C0   0DB2           00439         RLF             REDHALF1
                      00440         
00C1   1C03           00441         BTFSS   STATUS,C
00C2   28C4           00442         GOTO    R1LO
00C3   28C6           00443         GOTO    R1HI
                      00444 
00C4                  00445 R1LO
00C4   1687           00446         R1_1
00C5   28C7           00447         GOTO    DR3
                      00448 
00C6                  00449 R1HI
00C6   1287           00450         R1_0
                      00451 ;-------------------
00C7                  00452 DR3
                      00453         
Message[305]: Using default destination of 1 (file).
00C7   0DB3           00454         RLF             GRNHALF0
                      00455         
00C8   1C03           00456         BTFSS   STATUS,C
00C9   28CB           00457         GOTO    G0LO
00CA   28CD           00458         GOTO    G0HI
                      00459 
                      00460 
00CB                  00461 G0LO
00CB   1707           00462         G0_1
00CC   28CE           00463         GOTO    DR4
                      00464 
00CD                  00465 G0HI
00CD   1307           00466         G0_0
                      00467 ;-------------------
MPASM  5.51         20191009HUB6DISPLAYV3.ASM   10-24-2019  18:15:29         PAGE 11


LOC  OBJECT CODE     LINE SOURCE TEXT
  VALUE

00CE                  00468 DR4
                      00469 
Message[305]: Using default destination of 1 (file).
00CE   0DB4           00470         RLF             GRNHALF1
                      00471 
00CF   1C03           00472         BTFSS   STATUS,C
00D0   28D2           00473         GOTO    G1LO
00D1   28D4           00474         GOTO    G1HI
                      00475 
                      00476 
00D2                  00477 G1LO
00D2   1787           00478         G1_1
00D3   28D5           00479         GOTO    DR5
00D4                  00480 G1HI
00D4   1387           00481         G1_0
                      00482 ;-------------------
00D5                  00483 DR5
                      00484         
                      00485 
00D5   1706           00486         CLK_ON
00D6   1306           00487         CLK_OFF
                      00488 
00D7   0BA5           00489         DECFSZ  COUNT1,F
00D8   28B9           00490         GOTO    DR1
                      00491 
00D9   1204           00492         BCF             FSR,4
Message[305]: Using default destination of 1 (file).
00DA   0A84           00493         INCF    FSR
                      00494         
00DB   0BA4           00495         DECFSZ  COUNT0,F
00DC   28AC           00496         GOTO    DR0
Warning[203]: Found opcode in column 1. (RETURN)
00DD   0008           00497 RETURN
                      00498 
                      00499 
                      00500 
                      00501 
                      00502 
                      00503 
                      00504 ;=======================        DUMP DATA               ===============
00DE                  00505 DUMP
00DE   082B           00506                 MOVFW   ROW
00DF   00A8           00507                 MOVWF   BTCOUNT
                      00508 
00E0   080A           00509                 MOVFW   PCLATH
00E1   00FF           00510                 MOVWF   PCLATH_TEMP
00E2   3000           00511                 MOVLW   0
00E3   00A7           00512                 MOVWF   POINTER
                      00513 
                      00514 
                      00515 
00E4                  00516 DMP_FONT02
                      00517 
MPASM  5.51         20191009HUB6DISPLAYV3.ASM   10-24-2019  18:15:29         PAGE 12


LOC  OBJECT CODE     LINE SOURCE TEXT
  VALUE

                      00518 
00E4   0828           00519                 MOVFW   BTCOUNT
00E5   1903           00520                 BTFSC   STATUS,Z
00E6   28E9           00521                 GOTO    DMP_FONT02CONT
                      00522 
                      00523 
Message[305]: Using default destination of 1 (file).
00E7   07A8           00524                 ADDWF   BTCOUNT
Message[305]: Using default destination of 1 (file).
00E8   07A8           00525                 ADDWF   BTCOUNT
00E9                  00526 DMP_FONT02CONT
                      00527 
00E9   3003           00528                 MOVLW   3
00EA   008A           00529                 MOVWF   PCLATH
                      00530 
00EB   2300           00531                 CALL    FONT02
00EC   00B5           00532                 MOVWF   TEMPRAM+00
Message[305]: Using default destination of 1 (file).
00ED   0AA8           00533                 INCF    BTCOUNT
                      00534 
00EE   3003           00535                 MOVLW   3
00EF   008A           00536                 MOVWF   PCLATH
                      00537 
00F0   2300           00538                 CALL    FONT02
00F1   00B6           00539                 MOVWF   TEMPRAM+01
Message[305]: Using default destination of 1 (file).
00F2   0AA8           00540                 INCF    BTCOUNT
                      00541 
00F3   3003           00542                 MOVLW   3
00F4   008A           00543                 MOVWF   PCLATH
                      00544 
00F5   2300           00545                 CALL    FONT02
00F6   00B7           00546                 MOVWF   TEMPRAM+02
                      00547 
Message[305]: Using default destination of 1 (file).
00F7   03A8           00548                 DECF    BTCOUNT
Message[305]: Using default destination of 1 (file).
00F8   03A8           00549                 DECF    BTCOUNT
                      00550 
00F9   3030           00551                 MOVLW   0X30
Message[305]: Using default destination of 1 (file).
00FA   07A8           00552                 ADDWF   BTCOUNT
                      00553 
00FB   3003           00554                 MOVLW   3
00FC   008A           00555                 MOVWF   PCLATH
                      00556                 
                      00557                 
00FD   2300           00558                 CALL    FONT02
00FE   00B8           00559                 MOVWF   TEMPRAM+03
Message[305]: Using default destination of 1 (file).
00FF   0AA8           00560                 INCF    BTCOUNT
                      00561 
0100   3003           00562                 MOVLW   3
MPASM  5.51         20191009HUB6DISPLAYV3.ASM   10-24-2019  18:15:29         PAGE 13


LOC  OBJECT CODE     LINE SOURCE TEXT
  VALUE

0101   008A           00563                 MOVWF   PCLATH
                      00564 
0102   2300           00565                 CALL    FONT02
0103   00B9           00566                 MOVWF   TEMPRAM+04
Message[305]: Using default destination of 1 (file).
0104   0AA8           00567                 INCF    BTCOUNT
                      00568 
0105   3003           00569                 MOVLW   3
0106   008A           00570                 MOVWF   PCLATH
                      00571 
0107   2300           00572                 CALL    FONT02
0108   00BA           00573                 MOVWF   TEMPRAM+05
                      00574 
                      00575 
                      00576 
                      00577 
0109   087F           00578                 MOVFW   PCLATH_TEMP
010A   008A           00579                 MOVWF   PCLATH
010B   290C           00580                 GOTO    DMP0
                      00581 
                      00582 
010C                  00583 DMP0
                      00584                 
                      00585 
010C   087F           00586                 MOVFW   PCLATH_TEMP
010D   008A           00587                 MOVWF   PCLATH
010E   2110           00588                 CALL    DATAINRAM
                      00589 
Warning[203]: Found opcode in column 1. (RETURN)
010F   0008           00590 RETURN
                      00591 ;==========================================================     
                      00592 
                      00593 
                      00594 ;=======================        PUT DATA IN RAM         ===============
0110                  00595 DATAINRAM
                      00596 
0110   082E           00597                 MOVFW   CURSORX
0111   1903           00598                 BTFSC   STATUS,Z
0112   2921           00599                 GOTO    DIR1   ;DIR2(0)
0113   216B           00600                 CALL    CURSORX_TEST
0114   0823           00601                 MOVFW   LOOP
0115   1903           00602                 BTFSC   STATUS,Z
0116   2921           00603                 GOTO    DIR1
0117                  00604 DIR0
0117   1403           00605                 SETC
Message[305]: Using default destination of 1 (file).
0118   0CB5           00606                 RRF             TEMPRAM+00
Message[305]: Using default destination of 1 (file).
0119   0CB6           00607                 RRF             TEMPRAM+01
Message[305]: Using default destination of 1 (file).
011A   0CB7           00608                 RRF             TEMPRAM+02
011B   1403           00609                 SETC
Message[305]: Using default destination of 1 (file).
MPASM  5.51         20191009HUB6DISPLAYV3.ASM   10-24-2019  18:15:29         PAGE 14


LOC  OBJECT CODE     LINE SOURCE TEXT
  VALUE

011C   0CB8           00610                 RRF             TEMPRAM+03
Message[305]: Using default destination of 1 (file).
011D   0CB9           00611                 RRF             TEMPRAM+04
Message[305]: Using default destination of 1 (file).
011E   0CBA           00612                 RRF             TEMPRAM+05
                      00613 
011F   0BA3           00614                 DECFSZ  LOOP,F
0120   2917           00615                 GOTO    DIR0
                      00616 
0121                  00617 DIR1
                      00618 
0121   080A           00619                 MOVFW   PCLATH
0122   00FF           00620                 MOVWF   PCLATH_TEMP
                      00621 
0123   30A0           00622                 MOVLW   0XA0
0124   0084           00623                 MOVWF   FSR
                      00624 
0125   0842           00625                 MOVFW   HUB
Message[305]: Using default destination of 1 (file).
0126   0784           00626                 ADDWF   FSR
                      00627 
0127   0827           00628                 MOVFW   POINTER
Message[305]: Using default destination of 1 (file).
0128   0784           00629                 ADDWF   FSR
                      00630                 
0129   18A9           00631                 BTFSC   COLOR,1
012A   2941           00632                 GOTO    DIR2_YELLOW             
                      00633 
012B   1829           00634                 BTFSC   COLOR,0
012C   1604           00635                 BSF             FSR,4
                      00636 
                      00637                 
                      00638 
012D   0835           00639                 MOVFW   TEMPRAM+00
Message[305]: Using default destination of 1 (file).
012E   0580           00640                 ANDWF   INDF
                      00641 
Message[305]: Using default destination of 1 (file).
012F   0A84           00642                 INCF    FSR
                      00643 
0130   0836           00644                 MOVFW   TEMPRAM+01
Message[305]: Using default destination of 1 (file).
0131   0580           00645                 ANDWF   INDF
                      00646 
Message[305]: Using default destination of 1 (file).
0132   0A84           00647                 INCF    FSR
                      00648 
0133   0837           00649                 MOVFW   TEMPRAM+02
Message[305]: Using default destination of 1 (file).
0134   0580           00650                 ANDWF   INDF
                      00651 
Message[305]: Using default destination of 1 (file).
0135   0384           00652                 DECF    FSR
MPASM  5.51         20191009HUB6DISPLAYV3.ASM   10-24-2019  18:15:29         PAGE 15


LOC  OBJECT CODE     LINE SOURCE TEXT
  VALUE

Message[305]: Using default destination of 1 (file).
0136   0384           00653                 DECF    FSR
0137   1584           00654                 BSF             FSR,3
                      00655 
0138   0838           00656                 MOVFW   TEMPRAM+03
Message[305]: Using default destination of 1 (file).
0139   0580           00657                 ANDWF   INDF
                      00658 
Message[305]: Using default destination of 1 (file).
013A   0A84           00659                 INCF    FSR
                      00660 
013B   0839           00661                 MOVFW   TEMPRAM+04
Message[305]: Using default destination of 1 (file).
013C   0580           00662                 ANDWF   INDF
                      00663 
Message[305]: Using default destination of 1 (file).
013D   0A84           00664                 INCF    FSR
                      00665 
013E   083A           00666                 MOVFW   TEMPRAM+05
Message[305]: Using default destination of 1 (file).
013F   0580           00667                 ANDWF   INDF
Warning[203]: Found opcode in column 1. (RETURN)
0140   0008           00668 RETURN
                      00669 
0141                  00670 DIR2_YELLOW
0141   0835           00671                 MOVFW   TEMPRAM+00
Message[305]: Using default destination of 1 (file).
0142   0580           00672                 ANDWF   INDF
                      00673 
Message[305]: Using default destination of 1 (file).
0143   0A84           00674                 INCF    FSR
                      00675 
0144   0836           00676                 MOVFW   TEMPRAM+01
Message[305]: Using default destination of 1 (file).
0145   0580           00677                 ANDWF   INDF
                      00678 
Message[305]: Using default destination of 1 (file).
0146   0A84           00679                 INCF    FSR
                      00680 
0147   0837           00681                 MOVFW   TEMPRAM+02
Message[305]: Using default destination of 1 (file).
0148   0580           00682                 ANDWF   INDF
                      00683 
Message[305]: Using default destination of 1 (file).
0149   0384           00684                 DECF    FSR
Message[305]: Using default destination of 1 (file).
014A   0384           00685                 DECF    FSR
014B   1604           00686                 BSF             FSR,4
                      00687 
014C   0835           00688                 MOVFW   TEMPRAM+00
Message[305]: Using default destination of 1 (file).
014D   0580           00689                 ANDWF   INDF
                      00690 
MPASM  5.51         20191009HUB6DISPLAYV3.ASM   10-24-2019  18:15:29         PAGE 16


LOC  OBJECT CODE     LINE SOURCE TEXT
  VALUE

Message[305]: Using default destination of 1 (file).
014E   0A84           00691                 INCF    FSR
                      00692 
014F   0836           00693                 MOVFW   TEMPRAM+01
Message[305]: Using default destination of 1 (file).
0150   0580           00694                 ANDWF   INDF
                      00695 
Message[305]: Using default destination of 1 (file).
0151   0A84           00696                 INCF    FSR
                      00697 
0152   0837           00698                 MOVFW   TEMPRAM+02
Message[305]: Using default destination of 1 (file).
0153   0580           00699                 ANDWF   INDF
                      00700 
                      00701 
                      00702 
Message[305]: Using default destination of 1 (file).
0154   0384           00703                 DECF    FSR
Message[305]: Using default destination of 1 (file).
0155   0384           00704                 DECF    FSR
0156   1584           00705                 BSF             FSR,3
                      00706 
0157   0838           00707                 MOVFW   TEMPRAM+03
Message[305]: Using default destination of 1 (file).
0158   0580           00708                 ANDWF   INDF
                      00709 
Message[305]: Using default destination of 1 (file).
0159   0A84           00710                 INCF    FSR
                      00711 
015A   0839           00712                 MOVFW   TEMPRAM+04
Message[305]: Using default destination of 1 (file).
015B   0580           00713                 ANDWF   INDF
                      00714 
Message[305]: Using default destination of 1 (file).
015C   0A84           00715                 INCF    FSR
                      00716 
015D   083A           00717                 MOVFW   TEMPRAM+05
Message[305]: Using default destination of 1 (file).
015E   0580           00718                 ANDWF   INDF
                      00719 
                      00720 
Message[305]: Using default destination of 1 (file).
015F   0384           00721                 DECF    FSR
Message[305]: Using default destination of 1 (file).
0160   0384           00722                 DECF    FSR
0161   1204           00723                 BCF             FSR,4
                      00724 
0162   0838           00725                 MOVFW   TEMPRAM+03
Message[305]: Using default destination of 1 (file).
0163   0580           00726                 ANDWF   INDF
                      00727 
Message[305]: Using default destination of 1 (file).
0164   0A84           00728                 INCF    FSR
MPASM  5.51         20191009HUB6DISPLAYV3.ASM   10-24-2019  18:15:29         PAGE 17


LOC  OBJECT CODE     LINE SOURCE TEXT
  VALUE

                      00729 
0165   0839           00730                 MOVFW   TEMPRAM+04
Message[305]: Using default destination of 1 (file).
0166   0580           00731                 ANDWF   INDF
                      00732 
Message[305]: Using default destination of 1 (file).
0167   0A84           00733                 INCF    FSR
                      00734 
0168   083A           00735                 MOVFW   TEMPRAM+05
Message[305]: Using default destination of 1 (file).
0169   0580           00736                 ANDWF   INDF
                      00737 
                      00738 
                      00739 
                      00740                 
                      00741 
Warning[203]: Found opcode in column 1. (RETURN)
016A   0008           00742 RETURN
                      00743 
                      00744 
                      00745                 
                      00746 ;==========================================================     
                      00747 
                      00748 
                      00749 
                      00750 
                      00751 
016B                  00752 CURSORX_TEST
016B   00FD           00753                 MOVWF   W_TEMP
                      00754 
016C   3008           00755                 MOVLW   .8
016D   00A2           00756                 MOVWF   MILSEC ;TEMPVAR
                      00757 
016E   087D           00758                 MOVFW   W_TEMP
Message[305]: Using default destination of 1 (file).
016F   02A2           00759                 SUBWF   MILSEC
                      00760 
0170   1C03           00761                 BTFSS   STATUS,C
0171   2977           00762                 GOTO    CXT08
                      00763                 
0172   1903           00764                 BTFSC   STATUS,Z
0173   2985           00765                 GOTO    CXT08S  ;CURSOR IS 16
                      00766 
0174   082E           00767                 MOVFW   CURSORX
0175   00A3           00768                 MOVWF   LOOP
                      00769                 
Warning[203]: Found opcode in column 1. (RETURN)
0176   0008           00770 RETURN
                      00771 
                      00772 
0177                  00773 CXT08
0177   082E           00774                 MOVFW   CURSORX
0178   00FD           00775                 MOVWF   W_TEMP
MPASM  5.51         20191009HUB6DISPLAYV3.ASM   10-24-2019  18:15:29         PAGE 18


LOC  OBJECT CODE     LINE SOURCE TEXT
  VALUE

                      00776                 
0179   3010           00777                 MOVLW   .16
017A   00A2           00778                 MOVWF   MILSEC  ;TEMPVAR
                      00779                 
017B   087D           00780                 MOVFW   W_TEMP
Message[305]: Using default destination of 1 (file).
017C   02A2           00781                 SUBWF   MILSEC
                      00782                 
017D   1C03           00783                 BTFSS   STATUS,C
017E   2988           00784                 GOTO    CXT16
                      00785 
017F   1903           00786                 BTFSC   STATUS,Z
0180   2996           00787                 GOTO    CXT16S  ;CURSOR IS 24
                      00788                 
0181   082E           00789                 MOVFW   CURSORX
0182   00A3           00790                 MOVWF   LOOP
0183   3008           00791                 MOVLW   .8
Message[305]: Using default destination of 1 (file).
0184   02A3           00792                 SUBWF   LOOP
0185                  00793 CXT08S
0185   3001           00794                 MOVLW   1
0186   00A7           00795                 MOVWF   POINTER
                      00796 
Warning[203]: Found opcode in column 1. (RETURN)
0187   0008           00797 RETURN
                      00798 
                      00799                 
0188                  00800 CXT16
0188   082E           00801                 MOVFW   CURSORX
0189   00FD           00802                 MOVWF   W_TEMP
                      00803                 
018A   3018           00804                 MOVLW   .24
018B   00A2           00805                 MOVWF   MILSEC  ;TEMPVAR
                      00806                 
018C   087D           00807                 MOVFW   W_TEMP
Message[305]: Using default destination of 1 (file).
018D   02A2           00808                 SUBWF   MILSEC
                      00809                 
018E   1C03           00810                 BTFSS   STATUS,C
018F   2999           00811                 GOTO    CXT24
                      00812 
0190   1903           00813                 BTFSC   STATUS,Z
0191   29A7           00814                 GOTO    CXT24S  ;CURSOR IS 24
                      00815                 
0192   082E           00816                 MOVFW   CURSORX
0193   00A3           00817                 MOVWF   LOOP
0194   3010           00818                 MOVLW   .16
Message[305]: Using default destination of 1 (file).
0195   02A3           00819                 SUBWF   LOOP
0196                  00820 CXT16S
0196   3002           00821                 MOVLW   2
0197   00A7           00822                 MOVWF   POINTER
                      00823 
MPASM  5.51         20191009HUB6DISPLAYV3.ASM   10-24-2019  18:15:29         PAGE 19


LOC  OBJECT CODE     LINE SOURCE TEXT
  VALUE

Warning[203]: Found opcode in column 1. (RETURN)
0198   0008           00824 RETURN
                      00825 
                      00826 
0199                  00827 CXT24
0199   082E           00828                 MOVFW   CURSORX
019A   00FD           00829                 MOVWF   W_TEMP
                      00830                 
019B   3020           00831                 MOVLW   .32
019C   00A2           00832                 MOVWF   MILSEC  ;TEMPVAR
                      00833                 
019D   087D           00834                 MOVFW   W_TEMP
Message[305]: Using default destination of 1 (file).
019E   02A2           00835                 SUBWF   MILSEC
                      00836                 
019F   1C03           00837                 BTFSS   STATUS,C
01A0   29AA           00838                 GOTO    CXT32
                      00839 
01A1   1903           00840                 BTFSC   STATUS,Z
01A2   29B8           00841                 GOTO    CXT32S  ;CURSOR IS 32
                      00842                 
01A3   082E           00843                 MOVFW   CURSORX
01A4   00A3           00844                 MOVWF   LOOP
01A5   3018           00845                 MOVLW   .24
Message[305]: Using default destination of 1 (file).
01A6   02A3           00846                 SUBWF   LOOP
01A7                  00847 CXT24S
01A7   3003           00848                 MOVLW   3
01A8   00A7           00849                 MOVWF   POINTER
                      00850 
Warning[203]: Found opcode in column 1. (RETURN)
01A9   0008           00851 RETURN
                      00852 
01AA                  00853 CXT32
01AA   082E           00854                 MOVFW   CURSORX
01AB   00FD           00855                 MOVWF   W_TEMP
                      00856                 
01AC   3028           00857                 MOVLW   .40
01AD   00A2           00858                 MOVWF   MILSEC  ;TEMPVAR
                      00859                 
01AE   087D           00860                 MOVFW   W_TEMP
Message[305]: Using default destination of 1 (file).
01AF   02A2           00861                 SUBWF   MILSEC
                      00862                 
01B0   1C03           00863                 BTFSS   STATUS,C
01B1   29BB           00864                 GOTO    CXT40
                      00865 
01B2   1903           00866                 BTFSC   STATUS,Z
01B3   29C9           00867                 GOTO    CXT40S  ;CURSOR IS 40
                      00868                 
01B4   082E           00869                 MOVFW   CURSORX
01B5   00A3           00870                 MOVWF   LOOP
01B6   3020           00871                 MOVLW   .32
MPASM  5.51         20191009HUB6DISPLAYV3.ASM   10-24-2019  18:15:29         PAGE 20


LOC  OBJECT CODE     LINE SOURCE TEXT
  VALUE

Message[305]: Using default destination of 1 (file).
01B7   02A3           00872                 SUBWF   LOOP
01B8                  00873 CXT32S
01B8   3004           00874                 MOVLW   4
01B9   00A7           00875                 MOVWF   POINTER
                      00876 
Warning[203]: Found opcode in column 1. (RETURN)
01BA   0008           00877 RETURN
                      00878 
                      00879 
01BB                  00880 CXT40
01BB   082E           00881                 MOVFW   CURSORX
01BC   00FD           00882                 MOVWF   W_TEMP
                      00883                 
01BD   3030           00884                 MOVLW   .48
01BE   00A2           00885                 MOVWF   MILSEC  ;TEMPVAR
                      00886                 
01BF   087D           00887                 MOVFW   W_TEMP
Message[305]: Using default destination of 1 (file).
01C0   02A2           00888                 SUBWF   MILSEC
                      00889                 
01C1   1C03           00890                 BTFSS   STATUS,C
01C2   29CC           00891                 GOTO    CXT48
                      00892         
01C3   1903           00893                 BTFSC   STATUS,Z
01C4   29DA           00894                 GOTO    CXT48S  ;CURSOR IS 48
                      00895 
01C5   082E           00896                 MOVFW   CURSORX
01C6   00A3           00897                 MOVWF   LOOP
01C7   3028           00898                 MOVLW   .40
Message[305]: Using default destination of 1 (file).
01C8   02A3           00899                 SUBWF   LOOP
01C9                  00900 CXT40S
01C9   3005           00901                 MOVLW   5
01CA   00A7           00902                 MOVWF   POINTER
                      00903 
                      00904 
                      00905 
Warning[203]: Found opcode in column 1. (RETURN)
01CB   0008           00906 RETURN
                      00907 
01CC                  00908 CXT48
01CC   082E           00909                 MOVFW   CURSORX
01CD   00FD           00910                 MOVWF   W_TEMP
                      00911                 
01CE   3038           00912                 MOVLW   .56
01CF   00A2           00913                 MOVWF   MILSEC  ;TEMPVAR
                      00914                 
01D0   087D           00915                 MOVFW   W_TEMP
Message[305]: Using default destination of 1 (file).
01D1   02A2           00916                 SUBWF   MILSEC
                      00917                 
01D2   1C03           00918                 BTFSS   STATUS,C
MPASM  5.51         20191009HUB6DISPLAYV3.ASM   10-24-2019  18:15:29         PAGE 21


LOC  OBJECT CODE     LINE SOURCE TEXT
  VALUE

01D3   29DD           00919                 GOTO    CXT56
                      00920 
01D4   1903           00921                 BTFSC   STATUS,Z
01D5   29EB           00922                 GOTO    CXT56S  ;CURSOR IS 56
                      00923                 
01D6   082E           00924                 MOVFW   CURSORX
01D7   00A3           00925                 MOVWF   LOOP
01D8   3030           00926                 MOVLW   .48
Message[305]: Using default destination of 1 (file).
01D9   02A3           00927                 SUBWF   LOOP
01DA                  00928 CXT48S
01DA   3006           00929                 MOVLW   6
01DB   00A7           00930                 MOVWF   POINTER
                      00931 
Warning[203]: Found opcode in column 1. (RETURN)
01DC   0008           00932 RETURN
                      00933 
                      00934 
01DD                  00935 CXT56
01DD   082E           00936                 MOVFW   CURSORX
01DE   00FD           00937                 MOVWF   W_TEMP
                      00938                 
01DF   3040           00939                 MOVLW   .64
01E0   00A2           00940                 MOVWF   MILSEC  ;TEMPVAR
                      00941                 
01E1   087D           00942                 MOVFW   W_TEMP
Message[305]: Using default destination of 1 (file).
01E2   02A2           00943                 SUBWF   MILSEC
                      00944                 
01E3   1C03           00945                 BTFSS   STATUS,C
01E4   29EE           00946                 GOTO    CXT64
                      00947 
01E5   1903           00948                 BTFSC   STATUS,Z
01E6   29FC           00949                 GOTO    CXT64S  ;CURSOR IS 64
                      00950                 
01E7   082E           00951                 MOVFW   CURSORX
01E8   00A3           00952                 MOVWF   LOOP
01E9   3038           00953                 MOVLW   .56
Message[305]: Using default destination of 1 (file).
01EA   02A3           00954                 SUBWF   LOOP
01EB                  00955 CXT56S
01EB   3007           00956                 MOVLW   7
01EC   00A7           00957                 MOVWF   POINTER
                      00958 
Warning[203]: Found opcode in column 1. (RETURN)
01ED   0008           00959 RETURN
                      00960 
01EE                  00961 CXT64
                      00962 
01EE   082E           00963                 MOVFW   CURSORX
01EF   00FD           00964                 MOVWF   W_TEMP
                      00965                 
01F0   3048           00966                 MOVLW   .72
MPASM  5.51         20191009HUB6DISPLAYV3.ASM   10-24-2019  18:15:29         PAGE 22


LOC  OBJECT CODE     LINE SOURCE TEXT
  VALUE

01F1   00A2           00967                 MOVWF   MILSEC  ;TEMPVAR
                      00968                 
01F2   087D           00969                 MOVFW   W_TEMP
Message[305]: Using default destination of 1 (file).
01F3   02A2           00970                 SUBWF   MILSEC
                      00971                 
01F4   1C03           00972                 BTFSS   STATUS,C
                      00973                 ;GOTO   CXT64
01F5   0008           00974                 RETURN
                      00975 
01F6   1903           00976                 BTFSC   STATUS,Z
                      00977                 ;GOTO   CXT64S  ;CURSOR IS 56
01F7   0008           00978                 RETURN
                      00979                 
01F8   082E           00980                 MOVFW   CURSORX
01F9   00A3           00981                 MOVWF   LOOP
01FA   3038           00982                 MOVLW   .56
Message[305]: Using default destination of 1 (file).
01FB   02A3           00983                 SUBWF   LOOP
01FC                  00984 CXT64S
01FC   3007           00985                 MOVLW   7
01FD   00A7           00986                 MOVWF   POINTER
                      00987 
Warning[203]: Found opcode in column 1. (RETURN)
01FE   0008           00988 RETURN
                      00989 
                      00990 
                      00991 
                      00992 
                      00993 
                      00994 
                      00995 
                      00996 
                      00997 
                      00998 
                      00999 
                      01000 
                      01001 
Warning[205]: Found directive in column 1. (ORG)
0300                  01002 ORG 0X300
0300                  01003 FONT02
                      01004 
0300   3003           01005         MOVLW   3
0301   008A           01006         MOVWF   PCLATH  
0302   082A           01007         MOVFW   NUMBER
0303   0782           01008         ADDWF   PCL,F
                      01009         
0304   2B32           01010         GOTO    FONT02_CAP_A
                      01011         
0305   2B94           01012         GOTO    FONT02_CAP_B
                      01013 
                      01014 
Warning[203]: Found opcode in column 1. (GOTO)
MPASM  5.51         20191009HUB6DISPLAYV3.ASM   10-24-2019  18:15:29         PAGE 23


LOC  OBJECT CODE     LINE SOURCE TEXT
  VALUE

0306   2B1E           01015 GOTO    $+0X18  ;C
Warning[203]: Found opcode in column 1. (GOTO)
0307   2B1E           01016 GOTO    $+0X17  ;D
Warning[203]: Found opcode in column 1. (GOTO)
0308   2B1F           01017 GOTO    $+0X17  ;E
Warning[203]: Found opcode in column 1. (GOTO)
0309   2B1F           01018 GOTO    $+0X16  ;F
Warning[203]: Found opcode in column 1. (GOTO)
030A   2B20           01019 GOTO    $+0X16  ;G
Warning[203]: Found opcode in column 1. (GOTO)
030B   2B20           01020 GOTO    $+0X15  ;H
Warning[203]: Found opcode in column 1. (GOTO)
030C   2B21           01021 GOTO    $+0X15  ;I
Warning[203]: Found opcode in column 1. (GOTO)
030D   2B21           01022 GOTO    $+0X14  ;J
Warning[203]: Found opcode in column 1. (GOTO)
030E   2B22           01023 GOTO    $+0X14  ;K
Warning[203]: Found opcode in column 1. (GOTO)
030F   2B22           01024 GOTO    $+0X13  ;L
Warning[203]: Found opcode in column 1. (GOTO)
0310   2B24           01025 GOTO    $+0X14  ;M
Warning[203]: Found opcode in column 1. (GOTO)
0311   2B24           01026 GOTO    $+0X13  ;N
Warning[203]: Found opcode in column 1. (GOTO)
0312   2B26           01027 GOTO    $+0X14  ;O
Warning[203]: Found opcode in column 1. (GOTO)
0313   2B26           01028 GOTO    $+0X13  ;P
Warning[203]: Found opcode in column 1. (GOTO)
0314   2B28           01029 GOTO    $+0X14  ;Q
Warning[203]: Found opcode in column 1. (GOTO)
0315   2B28           01030 GOTO    $+0X13  ;R
Warning[203]: Found opcode in column 1. (GOTO)
0316   2B2A           01031 GOTO    $+0X14  ;S
Warning[203]: Found opcode in column 1. (GOTO)
0317   2B2A           01032 GOTO    $+0X13  ;T
Warning[203]: Found opcode in column 1. (GOTO)
0318   2B2C           01033 GOTO    $+0X14  ;U
Warning[203]: Found opcode in column 1. (GOTO)
0319   2B2C           01034 GOTO    $+0X13  ;V
Warning[203]: Found opcode in column 1. (GOTO)
031A   2B2E           01035 GOTO    $+0X14  ;W
Warning[203]: Found opcode in column 1. (GOTO)
031B   2B2E           01036 GOTO    $+0X13  ;X
Warning[203]: Found opcode in column 1. (GOTO)
031C   2B30           01037 GOTO    $+0X14  ;Y
Warning[203]: Found opcode in column 1. (GOTO)
031D   2B30           01038 GOTO    $+0X13  ;Z
                      01039 
                      01040 
031E   2C00           01041         GOTO    FONT02B         ;C|D
                      01042 
031F   2D00           01043         GOTO    FONT02C         ;E|F
                      01044 
MPASM  5.51         20191009HUB6DISPLAYV3.ASM   10-24-2019  18:15:29         PAGE 24


LOC  OBJECT CODE     LINE SOURCE TEXT
  VALUE

0320   2E00           01045         GOTO    FONT02D         ;G|H
                      01046 
                      01047 
0321   2F00           01048         GOTO    FONT02E         ;I|J
                      01049 
                      01050 
0322   158A           01051         BSF             PCLATH,3
Message[306]: Crossing page boundary -- ensure page bits are set.
0323   2800           01052         GOTO    FONT02F         ;K|L
                      01053 
0324   158A           01054         BSF             PCLATH,3
Message[306]: Crossing page boundary -- ensure page bits are set.
0325   2900           01055         GOTO    FONT02G         ;M|N
                      01056 
0326   158A           01057         BSF             PCLATH,3
Message[306]: Crossing page boundary -- ensure page bits are set.
0327   2A00           01058         GOTO    FONT02H         ;O|P
                      01059 
0328   158A           01060         BSF             PCLATH,3
Message[306]: Crossing page boundary -- ensure page bits are set.
0329   2B00           01061         GOTO    FONT02I         ;Q|R
                      01062 
032A   158A           01063         BSF             PCLATH,3
Message[306]: Crossing page boundary -- ensure page bits are set.
032B   2C00           01064         GOTO    FONT02J         ;S|T
                      01065 
032C   158A           01066         BSF             PCLATH,3
Message[306]: Crossing page boundary -- ensure page bits are set.
032D   2D00           01067         GOTO    FONT02K         ;U|V
                      01068         
032E   158A           01069         BSF             PCLATH,3
Message[306]: Crossing page boundary -- ensure page bits are set.
032F   2E00           01070         GOTO    FONT02L         ;W|X
                      01071 
0330   158A           01072         BSF             PCLATH,3
Message[306]: Crossing page boundary -- ensure page bits are set.
0331   2F00           01073         GOTO    FONT02M         ;Y|Z
                      01074 
Warning[207]: Found label after column 1. (FONT02_CAP_A)
0332                  01075         FONT02_CAP_A
0332   0828           01076                         MOVFW   BTCOUNT
0333   0782           01077                         ADDWF   PCL,F
0334   34FF 34FF 34FF 01078                         DT      B'11111111',B'11111111',B'11111111'     ;BTC=00
0337   34FE 340F 34FF 01079                         DT      B'11111110',B'00001111',B'11111111'     ;BTC=01
033A   34FC 3407 34FF 01080                         DT      B'11111100',B'00000111',B'11111111'     ;BTC=02
033D   34F8 3403 34FF 01081                         DT      B'11111000',B'00000011',B'11111111'     ;BTC=03
0340   34F0 3401 34FF 01082                         DT      B'11110000',B'00000001',B'11111111'     ;BTC=04
0343   34E0 34E0 34FF 01083                         DT      B'11100000',B'11100000',B'11111111'     ;BTC=05
0346   34C1 34F0 347F 01084                         DT      B'11000001',B'11110000',B'01111111'     ;BTC=06
0349   3483 34F8 343F 01085                         DT      B'10000011',B'11111000',B'00111111'     ;BTC=07
034C   3407 34FC 341F 01086                         DT      B'00000111',B'11111100',B'00011111'     ;BTC=08
034F   340F 34FE 341F 01087                         DT      B'00001111',B'11111110',B'00011111'     ;BTC=09
0352   340F 34FE 341F 01088                         DT      B'00001111',B'11111110',B'00011111'     ;BTC=0A
MPASM  5.51         20191009HUB6DISPLAYV3.ASM   10-24-2019  18:15:29         PAGE 25


LOC  OBJECT CODE     LINE SOURCE TEXT
  VALUE

0355   340F 34FE 341F 01089                         DT      B'00001111',B'11111110',B'00011111'     ;BTC=0B
0358   340F 34FE 341F 01090                         DT      B'00001111',B'11111110',B'00011111'     ;BTC=0C
035B   340F 34FE 341F 01091                         DT      B'00001111',B'11111110',B'00011111'     ;BTC=0D
035E   340F 34FE 341F 01092                         DT      B'00001111',B'11111110',B'00011111'     ;BTC=0E
0361   340F 34FE 341F 01093                         DT      B'00001111',B'11111110',B'00011111'     ;BTC=0F
0364   340F 34FE 341F 01094                         DT      B'00001111',B'11111110',B'00011111'     ;BTC=10
0367   3400 3400 341F 01095                         DT      B'00000000',B'00000000',B'00011111'     ;BTC=11
036A   3400 3400 341F 01096                         DT      B'00000000',B'00000000',B'00011111'     ;BTC=12
036D   3400 3400 341F 01097                         DT      B'00000000',B'00000000',B'00011111'     ;BTC=13
0370   340F 34FE 341F 01098                         DT      B'00001111',B'11111110',B'00011111'     ;BTC=14
0373   340F 34FE 341F 01099                         DT      B'00001111',B'11111110',B'00011111'     ;BTC=15
0376   340F 34FE 341F 01100                         DT      B'00001111',B'11111110',B'00011111'     ;BTC=16
0379   340F 34FE 341F 01101                         DT      B'00001111',B'11111110',B'00011111'     ;BTC=17
037C   340F 34FE 341F 01102                         DT      B'00001111',B'11111110',B'00011111'     ;BTC=18
037F   340F 34FE 341F 01103                         DT      B'00001111',B'11111110',B'00011111'     ;BTC=19
0382   340F 34FE 341F 01104                         DT      B'00001111',B'11111110',B'00011111'     ;BTC=1A
0385   340F 34FE 341F 01105                         DT      B'00001111',B'11111110',B'00011111'     ;BTC=1B
0388   340F 34FE 341F 01106                         DT      B'00001111',B'11111110',B'00011111'     ;BTC=1C
038B   340F 34FE 341F 01107                         DT      B'00001111',B'11111110',B'00011111'     ;BTC=1D
038E   340F 34FE 341F 01108                         DT      B'00001111',B'11111110',B'00011111'     ;BTC=1E
0391   34FF 34FF 34FF 01109                         DT      B'11111111',B'11111111',B'11111111'     ;BTC=1F
                      01110 
                      01111 
Warning[207]: Found label after column 1. (FONT02_CAP_B)
0394                  01112         FONT02_CAP_B
0394   0828           01113                         MOVFW   BTCOUNT
0395   0782           01114                         ADDWF   PCL,F
0396   34FF 34FF 34FF 01115                         DT      B'11111111',B'11111111',B'11111111'     ;BTC=00
0399   3400 3401 34FF 01116                         DT      B'00000000',B'00000001',B'11111111'     ;BTC=01
039C   3400 3400 34FF 01117                         DT      B'00000000',B'00000000',B'11111111'     ;BTC=02
039F   3400 3400 347F 01118                         DT      B'00000000',B'00000000',B'01111111'     ;BTC=03
03A2   340F 34F8 343F 01119                         DT      B'00001111',B'11111000',B'00111111'     ;BTC=04
03A5   340F 34FC 341F 01120                         DT      B'00001111',B'11111100',B'00011111'     ;BTC=05
03A8   340F 34FE 341F 01121                         DT      B'00001111',B'11111110',B'00011111'     ;BTC=06
03AB   340F 34FF 341F 01122                         DT      B'00001111',B'11111111',B'00011111'     ;BTC=07
03AE   340F 34FF 341F 01123                         DT      B'00001111',B'11111111',B'00011111'     ;BTC=08
03B1   340F 34FF 341F 01124                         DT      B'00001111',B'11111111',B'00011111'     ;BTC=09
03B4   340F 34FF 341F 01125                         DT      B'00001111',B'11111111',B'00011111'     ;BTC=0A
03B7   340F 34FE 341F 01126                         DT      B'00001111',B'11111110',B'00011111'     ;BTC=0B
03BA   340F 34FC 341F 01127                         DT      B'00001111',B'11111100',B'00011111'     ;BTC=0C
03BD   340F 34F8 343F 01128                         DT      B'00001111',B'11111000',B'00111111'     ;BTC=0D
03C0   3400 3400 347F 01129                         DT      B'00000000',B'00000000',B'01111111'     ;BTC=0E
03C3   3400 3400 34FF 01130                         DT      B'00000000',B'00000000',B'11111111'     ;BTC=0F
03C6   3400 3400 34FF 01131                         DT      B'00000000',B'00000000',B'11111111'     ;BTC=10
03C9   340F 34F8 347F 01132                         DT      B'00001111',B'11111000',B'01111111'     ;BTC=11
03CC   340F 34FC 343F 01133                         DT      B'00001111',B'11111100',B'00111111'     ;BTC=12
03CF   340F 34FE 341F 01134                         DT      B'00001111',B'11111110',B'00011111'     ;BTC=13
03D2   340F 34FF 341F 01135                         DT      B'00001111',B'11111111',B'00011111'     ;BTC=14
03D5   340F 34FF 341F 01136                         DT      B'00001111',B'11111111',B'00011111'     ;BTC=15
03D8   340F 34FF 341F 01137                         DT      B'00001111',B'11111111',B'00011111'     ;BTC=16
03DB   340F 34FF 341F 01138                         DT      B'00001111',B'11111111',B'00011111'     ;BTC=17
03DE   340F 34FF 341F 01139                         DT      B'00001111',B'11111111',B'00011111'     ;BTC=18
03E1   340F 34FE 341F 01140                         DT      B'00001111',B'11111110',B'00011111'     ;BTC=19
MPASM  5.51         20191009HUB6DISPLAYV3.ASM   10-24-2019  18:15:29         PAGE 26


LOC  OBJECT CODE     LINE SOURCE TEXT
  VALUE

03E4   340F 34FC 341F 01141                         DT      B'00001111',B'11111100',B'00011111'     ;BTC=1A
03E7   340F 34F8 343F 01142                         DT      B'00001111',B'11111000',B'00111111'     ;BTC=1B
03EA   3400 3400 347F 01143                         DT      B'00000000',B'00000000',B'01111111'     ;BTC=1C
03ED   3400 3400 34FF 01144                         DT      B'00000000',B'00000000',B'11111111'     ;BTC=1D
03F0   3400 3401 34FF 01145                         DT      B'00000000',B'00000001',B'11111111'     ;BTC=1E
03F3   34FF 34FF 34FF 01146                         DT      B'11111111',B'11111111',B'11111111'     ;BTC=1F
                      01147 
                      01148 
                      01149 
                      01150 
Warning[205]: Found directive in column 1. (ORG)
0400                  01151 ORG     0X400
                      01152                 
0400                  01153 FONT02B
                      01154 
0400   3004           01155         MOVLW   4
0401   008A           01156         MOVWF   PCLATH  
0402   082A           01157         MOVFW   NUMBER
0403   0782           01158         ADDWF   PCL,F
                      01159         
0404   0000           01160         NOP     ;A
0405   0000           01161         NOP     ;B
                      01162 
0406   2C08           01163         GOTO    FONT02_CAP_C
0407   2C6A           01164         GOTO    FONT02_CAP_D
                      01165 
                      01166 
                      01167 
                      01168 
                      01169 
                      01170 
0408                  01171 FONT02_CAP_C
0408   0828           01172                         MOVFW   BTCOUNT
0409   0782           01173                         ADDWF   PCL,F
                      01174 
040A   34FF 34FF 34FF 01175                         DT      B'11111111',B'11111111',B'11111111'     ;BTC=00
040D   34F0 3400 347F 01176                         DT      B'11110000',B'00000000',B'01111111'     ;BTC=01
0410   34E0 3400 343F 01177                         DT      B'11100000',B'00000000',B'00111111'     ;BTC=02
0413   34C0 3400 341F 01178                         DT      B'11000000',B'00000000',B'00011111'     ;BTC=03
0416   3481 34FE 341F 01179                         DT      B'10000001',B'11111110',B'00011111'     ;BTC=04
0419   3403 34FF 341F 01180                         DT      B'00000011',B'11111111',B'00011111'     ;BTC=05
041C   3407 34FF 341F 01181                         DT      B'00000111',B'11111111',B'00011111'     ;BTC=06
041F   340F 34FF 34FF 01182                         DT      B'00001111',B'11111111',B'11111111'     ;BTC=07
0422   340F 34FF 34FF 01183                         DT      B'00001111',B'11111111',B'11111111'     ;BTC=08
0425   340F 34FF 34FF 01184                         DT      B'00001111',B'11111111',B'11111111'     ;BTC=09
0428   340F 34FF 34FF 01185                         DT      B'00001111',B'11111111',B'11111111'     ;BTC=0A
042B   340F 34FF 34FF 01186                         DT      B'00001111',B'11111111',B'11111111'     ;BTC=0B
042E   340F 34FF 34FF 01187                         DT      B'00001111',B'11111111',B'11111111'     ;BTC=0C
0431   340F 34FF 34FF 01188                         DT      B'00001111',B'11111111',B'11111111'     ;BTC=0D
0434   340F 34FF 34FF 01189                         DT      B'00001111',B'11111111',B'11111111'     ;BTC=0E
0437   340F 34FF 34FF 01190                         DT      B'00001111',B'11111111',B'11111111'     ;BTC=0F
043A   340F 34FF 34FF 01191                         DT      B'00001111',B'11111111',B'11111111'     ;BTC=10
043D   340F 34FF 34FF 01192                         DT      B'00001111',B'11111111',B'11111111'     ;BTC=11
MPASM  5.51         20191009HUB6DISPLAYV3.ASM   10-24-2019  18:15:29         PAGE 27


LOC  OBJECT CODE     LINE SOURCE TEXT
  VALUE

0440   340F 34FF 34FF 01193                         DT      B'00001111',B'11111111',B'11111111'     ;BTC=12
0443   340F 34FF 34FF 01194                         DT      B'00001111',B'11111111',B'11111111'     ;BTC=13
0446   340F 34FF 34FF 01195                         DT      B'00001111',B'11111111',B'11111111'     ;BTC=14
0449   340F 34FF 34FF 01196                         DT      B'00001111',B'11111111',B'11111111'     ;BTC=15
044C   340F 34FF 34FF 01197                         DT      B'00001111',B'11111111',B'11111111'     ;BTC=16
044F   340F 34FF 34FF 01198                         DT      B'00001111',B'11111111',B'11111111'     ;BTC=17
0452   340F 34FF 34FF 01199                         DT      B'00001111',B'11111111',B'11111111'     ;BTC=18
0455   3407 34FF 341F 01200                         DT      B'00000111',B'11111111',B'00011111'     ;BTC=19
0458   3403 34FF 341F 01201                         DT      B'00000011',B'11111111',B'00011111'     ;BTC=1A
045B   3481 34FE 341F 01202                         DT      B'10000001',B'11111110',B'00011111'     ;BTC=1B
045E   34C0 3400 341F 01203                         DT      B'11000000',B'00000000',B'00011111'     ;BTC=1C
0461   34E0 3400 343F 01204                         DT      B'11100000',B'00000000',B'00111111'     ;BTC=1D
0464   34F0 3400 347F 01205                         DT      B'11110000',B'00000000',B'01111111'     ;BTC=1E
0467   34FF 34FF 34FF 01206                         DT      B'11111111',B'11111111',B'11111111'     ;BTC=1F
                      01207 
046A                  01208 FONT02_CAP_D
046A   0828           01209                         MOVFW   BTCOUNT
046B   0782           01210                         ADDWF   PCL,F
046C   34FF 34FF 34FF 01211                         DT      B'11111111',B'11111111',B'11111111'     ;BTC=00
046F   3400 3401 34FF 01212                         DT      B'00000000',B'00000001',B'11111111'     ;BTC=01
0472   3400 3400 34FF 01213                         DT      B'00000000',B'00000000',B'11111111'     ;BTC=02
0475   3400 3400 347F 01214                         DT      B'00000000',B'00000000',B'01111111'     ;BTC=03
0478   340F 34F8 343F 01215                         DT      B'00001111',B'11111000',B'00111111'     ;BTC=04
047B   340F 34FC 341F 01216                         DT      B'00001111',B'11111100',B'00011111'     ;BTC=05
047E   340F 34FE 341F 01217                         DT      B'00001111',B'11111110',B'00011111'     ;BTC=06
0481   340F 34FF 341F 01218                         DT      B'00001111',B'11111111',B'00011111'     ;BTC=07
0484   340F 34FF 341F 01219                         DT      B'00001111',B'11111111',B'00011111'     ;BTC=08
0487   340F 34FF 341F 01220                         DT      B'00001111',B'11111111',B'00011111'     ;BTC=09
048A   340F 34FF 341F 01221                         DT      B'00001111',B'11111111',B'00011111'     ;BTC=0A
048D   340F 34FF 341F 01222                         DT      B'00001111',B'11111111',B'00011111'     ;BTC=0B
0490   340F 34FF 341F 01223                         DT      B'00001111',B'11111111',B'00011111'     ;BTC=0C
0493   340F 34FF 341F 01224                         DT      B'00001111',B'11111111',B'00011111'     ;BTC=0D
0496   340F 34FF 341F 01225                         DT      B'00001111',B'11111111',B'00011111'     ;BTC=0E
0499   340F 34FF 341F 01226                         DT      B'00001111',B'11111111',B'00011111'     ;BTC=0F
049C   340F 34FF 341F 01227                         DT      B'00001111',B'11111111',B'00011111'     ;BTC=10
049F   340F 34FF 341F 01228                         DT      B'00001111',B'11111111',B'00011111'     ;BTC=11
04A2   340F 34FF 341F 01229                         DT      B'00001111',B'11111111',B'00011111'     ;BTC=12
04A5   340F 34FF 341F 01230                         DT      B'00001111',B'11111111',B'00011111'     ;BTC=13
04A8   340F 34FF 341F 01231                         DT      B'00001111',B'11111111',B'00011111'     ;BTC=14
04AB   340F 34FF 341F 01232                         DT      B'00001111',B'11111111',B'00011111'     ;BTC=15
04AE   340F 34FF 341F 01233                         DT      B'00001111',B'11111111',B'00011111'     ;BTC=16
04B1   340F 34FF 341F 01234                         DT      B'00001111',B'11111111',B'00011111'     ;BTC=17
04B4   340F 34FF 341F 01235                         DT      B'00001111',B'11111111',B'00011111'     ;BTC=18
04B7   340F 34FE 341F 01236                         DT      B'00001111',B'11111110',B'00011111'     ;BTC=19
04BA   340F 34FC 341F 01237                         DT      B'00001111',B'11111100',B'00011111'     ;BTC=1A
04BD   340F 34F8 343F 01238                         DT      B'00001111',B'11111000',B'00111111'     ;BTC=1B
04C0   3400 3400 347F 01239                         DT      B'00000000',B'00000000',B'01111111'     ;BTC=1C
04C3   3400 3400 34FF 01240                         DT      B'00000000',B'00000000',B'11111111'     ;BTC=1D
04C6   3400 3401 34FF 01241                         DT      B'00000000',B'00000001',B'11111111'     ;BTC=1E
04C9   34FF 34FF 34FF 01242                         DT      B'11111111',B'11111111',B'11111111'     ;BTC=1F
                      01243 
                      01244 
                      01245 
MPASM  5.51         20191009HUB6DISPLAYV3.ASM   10-24-2019  18:15:29         PAGE 28


LOC  OBJECT CODE     LINE SOURCE TEXT
  VALUE

Warning[205]: Found directive in column 1. (ORG)
0500                  01246 ORG     0X500
                      01247 
0500                  01248 FONT02C
                      01249 
0500   3005           01250         MOVLW   5
0501   008A           01251         MOVWF   PCLATH  
0502   082A           01252         MOVFW   NUMBER
0503   0782           01253         ADDWF   PCL,F
                      01254         
0504   0000           01255         NOP     ;A
0505   0000           01256         NOP     ;B
0506   0000           01257         NOP     ;C
0507   0000           01258         NOP     ;D
                      01259 
0508   2D0A           01260         GOTO    FONT02_CAP_E
0509   2D6C           01261         GOTO    FONT02_CAP_F
                      01262 
050A                  01263 FONT02_CAP_E
050A   0828           01264                         MOVFW   BTCOUNT
050B   0782           01265                         ADDWF   PCL,F
050C   34FF 34FF 34FF 01266                         DT      B'11111111',B'11111111',B'11111111'     ;BTC=00
050F   3400 3400 341F 01267                         DT      B'00000000',B'00000000',B'00011111'     ;BTC=01
0512   3400 3400 341F 01268                         DT      B'00000000',B'00000000',B'00011111'     ;BTC=02
0515   3400 3400 341F 01269                         DT      B'00000000',B'00000000',B'00011111'     ;BTC=03
0518   340F 34FF 341F 01270                         DT      B'00001111',B'11111111',B'00011111'     ;BTC=04
051B   340F 34FF 34FF 01271                         DT      B'00001111',B'11111111',B'11111111'     ;BTC=05
051E   340F 34FF 34FF 01272                         DT      B'00001111',B'11111111',B'11111111'     ;BTC=06
0521   340F 34FF 34FF 01273                         DT      B'00001111',B'11111111',B'11111111'     ;BTC=07
0524   340F 34FF 34FF 01274                         DT      B'00001111',B'11111111',B'11111111'     ;BTC=08
0527   340F 34FF 34FF 01275                         DT      B'00001111',B'11111111',B'11111111'     ;BTC=09
052A   340F 34FF 34FF 01276                         DT      B'00001111',B'11111111',B'11111111'     ;BTC=0A
052D   340F 34FF 34FF 01277                         DT      B'00001111',B'11111111',B'11111111'     ;BTC=0B
0530   340F 34FF 34FF 01278                         DT      B'00001111',B'11111111',B'11111111'     ;BTC=0C
0533   340F 34FF 34FF 01279                         DT      B'00001111',B'11111111',B'11111111'     ;BTC=0D
0536   3400 3400 34FF 01280                         DT      B'00000000',B'00000000',B'11111111'     ;BTC=0E
0539   3400 3400 34FF 01281                         DT      B'00000000',B'00000000',B'11111111'     ;BTC=0F
053C   3400 3400 34FF 01282                         DT      B'00000000',B'00000000',B'11111111'     ;BTC=10
053F   340F 34FF 34FF 01283                         DT      B'00001111',B'11111111',B'11111111'     ;BTC=11
0542   340F 34FF 34FF 01284                         DT      B'00001111',B'11111111',B'11111111'     ;BTC=12
0545   340F 34FF 34FF 01285                         DT      B'00001111',B'11111111',B'11111111'     ;BTC=13
0548   340F 34FF 34FF 01286                         DT      B'00001111',B'11111111',B'11111111'     ;BTC=14
054B   340F 34FF 34FF 01287                         DT      B'00001111',B'11111111',B'11111111'     ;BTC=15
054E   340F 34FF 34FF 01288                         DT      B'00001111',B'11111111',B'11111111'     ;BTC=16
0551   340F 34FF 34FF 01289                         DT      B'00001111',B'11111111',B'11111111'     ;BTC=17
0554   340F 34FF 34FF 01290                         DT      B'00001111',B'11111111',B'11111111'     ;BTC=18
0557   340F 34FF 34FF 01291                         DT      B'00001111',B'11111111',B'11111111'     ;BTC=19
055A   340F 34FF 34FF 01292                         DT      B'00001111',B'11111111',B'11111111'     ;BTC=1A
055D   340F 34FF 341F 01293                         DT      B'00001111',B'11111111',B'00011111'     ;BTC=1B
0560   3400 3400 341F 01294                         DT      B'00000000',B'00000000',B'00011111'     ;BTC=1C
0563   3400 3400 341F 01295                         DT      B'00000000',B'00000000',B'00011111'     ;BTC=1D
0566   3400 3400 341F 01296                         DT      B'00000000',B'00000000',B'00011111'     ;BTC=1E
0569   34FF 34FF 34FF 01297                         DT      B'11111111',B'11111111',B'11111111'     ;BTC=1F
MPASM  5.51         20191009HUB6DISPLAYV3.ASM   10-24-2019  18:15:29         PAGE 29


LOC  OBJECT CODE     LINE SOURCE TEXT
  VALUE

                      01298 
                      01299 
056C                  01300 FONT02_CAP_F
056C   0828           01301                         MOVFW   BTCOUNT
056D   0782           01302                         ADDWF   PCL,F
056E   34FF 34FF 34FF 01303                         DT      B'11111111',B'11111111',B'11111111'     ;BTC=00
0571   3400 3400 341F 01304                         DT      B'00000000',B'00000000',B'00011111'     ;BTC=01
0574   3400 3400 341F 01305                         DT      B'00000000',B'00000000',B'00011111'     ;BTC=02
0577   3400 3400 341F 01306                         DT      B'00000000',B'00000000',B'00011111'     ;BTC=03
057A   340F 34FF 34FF 01307                         DT      B'00001111',B'11111111',B'11111111'     ;BTC=04
057D   340F 34FF 34FF 01308                         DT      B'00001111',B'11111111',B'11111111'     ;BTC=05
0580   340F 34FF 34FF 01309                         DT      B'00001111',B'11111111',B'11111111'     ;BTC=06
0583   340F 34FF 34FF 01310                         DT      B'00001111',B'11111111',B'11111111'     ;BTC=07
0586   340F 34FF 34FF 01311                         DT      B'00001111',B'11111111',B'11111111'     ;BTC=08
0589   340F 34FF 34FF 01312                         DT      B'00001111',B'11111111',B'11111111'     ;BTC=09
058C   340F 34FF 34FF 01313                         DT      B'00001111',B'11111111',B'11111111'     ;BTC=0A
058F   340F 34FF 34FF 01314                         DT      B'00001111',B'11111111',B'11111111'     ;BTC=0B
0592   340F 34FF 34FF 01315                         DT      B'00001111',B'11111111',B'11111111'     ;BTC=0C
0595   340F 34FF 34FF 01316                         DT      B'00001111',B'11111111',B'11111111'     ;BTC=0D
0598   3400 3400 34FF 01317                         DT      B'00000000',B'00000000',B'11111111'     ;BTC=0E
059B   3400 3400 34FF 01318                         DT      B'00000000',B'00000000',B'11111111'     ;BTC=0F
059E   3400 3400 34FF 01319                         DT      B'00000000',B'00000000',B'11111111'     ;BTC=10
05A1   340F 34FF 34FF 01320                         DT      B'00001111',B'11111111',B'11111111'     ;BTC=11
05A4   340F 34FF 34FF 01321                         DT      B'00001111',B'11111111',B'11111111'     ;BTC=12
05A7   340F 34FF 34FF 01322                         DT      B'00001111',B'11111111',B'11111111'     ;BTC=13
05AA   340F 34FF 34FF 01323                         DT      B'00001111',B'11111111',B'11111111'     ;BTC=14
05AD   340F 34FF 34FF 01324                         DT      B'00001111',B'11111111',B'11111111'     ;BTC=15
05B0   340F 34FF 34FF 01325                         DT      B'00001111',B'11111111',B'11111111'     ;BTC=16
05B3   340F 34FF 34FF 01326                         DT      B'00001111',B'11111111',B'11111111'     ;BTC=17
05B6   340F 34FF 34FF 01327                         DT      B'00001111',B'11111111',B'11111111'     ;BTC=18
05B9   340F 34FF 34FF 01328                         DT      B'00001111',B'11111111',B'11111111'     ;BTC=19
05BC   340F 34FF 34FF 01329                         DT      B'00001111',B'11111111',B'11111111'     ;BTC=1A
05BF   340F 34FF 34FF 01330                         DT      B'00001111',B'11111111',B'11111111'     ;BTC=1B
05C2   340F 34FF 34FF 01331                         DT      B'00001111',B'11111111',B'11111111'     ;BTC=1C
05C5   340F 34FF 34FF 01332                         DT      B'00001111',B'11111111',B'11111111'     ;BTC=1D
05C8   340F 34FF 34FF 01333                         DT      B'00001111',B'11111111',B'11111111'     ;BTC=1E
05CB   34FF 34FF 34FF 01334                         DT      B'11111111',B'11111111',B'11111111'     ;BTC=1F
                      01335 
                      01336 
Warning[205]: Found directive in column 1. (ORG)
0600                  01337 ORG     0X600
                      01338 
0600                  01339 FONT02D
                      01340 
0600   3006           01341         MOVLW   6
0601   008A           01342         MOVWF   PCLATH  
0602   082A           01343         MOVFW   NUMBER
0603   0782           01344         ADDWF   PCL,F
                      01345         
0604   0000           01346         NOP     ;A
0605   0000           01347         NOP     ;B
0606   0000           01348         NOP     ;C
0607   0000           01349         NOP     ;D
MPASM  5.51         20191009HUB6DISPLAYV3.ASM   10-24-2019  18:15:29         PAGE 30


LOC  OBJECT CODE     LINE SOURCE TEXT
  VALUE

0608   0000           01350         NOP     ;E
0609   0000           01351         NOP     ;F
                      01352 
060A   2E0C           01353         GOTO    FONT02_CAP_G
060B   2E6E           01354         GOTO    FONT02_CAP_H
                      01355 
060C                  01356 FONT02_CAP_G
060C   0828           01357                         MOVFW   BTCOUNT
060D   0782           01358                         ADDWF   PCL,F
060E   34FF 34FF 34FF 01359                         DT      B'11111111',B'11111111',B'11111111'     ;BTC=00
0611   34F0 3400 347F 01360                         DT      B'11110000',B'00000000',B'01111111'     ;BTC=01
0614   34E0 3400 343F 01361                         DT      B'11100000',B'00000000',B'00111111'     ;BTC=02
0617   34C0 3400 341F 01362                         DT      B'11000000',B'00000000',B'00011111'     ;BTC=03
061A   3483 34FE 341F 01363                         DT      B'10000011',B'11111110',B'00011111'     ;BTC=04
061D   3407 34FF 341F 01364                         DT      B'00000111',B'11111111',B'00011111'     ;BTC=05
0620   340F 34FF 34FF 01365                         DT      B'00001111',B'11111111',B'11111111'     ;BTC=06
0623   340F 34FF 34FF 01366                         DT      B'00001111',B'11111111',B'11111111'     ;BTC=07
0626   340F 34FF 34FF 01367                         DT      B'00001111',B'11111111',B'11111111'     ;BTC=08
0629   340F 34FF 34FF 01368                         DT      B'00001111',B'11111111',B'11111111'     ;BTC=09
062C   340F 34FF 34FF 01369                         DT      B'00001111',B'11111111',B'11111111'     ;BTC=0A
062F   340F 34FF 34FF 01370                         DT      B'00001111',B'11111111',B'11111111'     ;BTC=0B
0632   340F 34FF 34FF 01371                         DT      B'00001111',B'11111111',B'11111111'     ;BTC=0C
0635   340F 34FF 34FF 01372                         DT      B'00001111',B'11111111',B'11111111'     ;BTC=0D
0638   340F 34FF 34FF 01373                         DT      B'00001111',B'11111111',B'11111111'     ;BTC=0E
063B   340F 34FF 34FF 01374                         DT      B'00001111',B'11111111',B'11111111'     ;BTC=0F
063E   340F 3480 343F 01375                         DT      B'00001111',B'10000000',B'00111111'     ;BTC=10
0641   340F 3480 341F 01376                         DT      B'00001111',B'10000000',B'00011111'     ;BTC=11
0644   340F 3480 341F 01377                         DT      B'00001111',B'10000000',B'00011111'     ;BTC=12
0647   340F 34FE 341F 01378                         DT      B'00001111',B'11111110',B'00011111'     ;BTC=13
064A   340F 34FF 341F 01379                         DT      B'00001111',B'11111111',B'00011111'     ;BTC=14
064D   340F 34FF 341F 01380                         DT      B'00001111',B'11111111',B'00011111'     ;BTC=15
0650   340F 34FF 341F 01381                         DT      B'00001111',B'11111111',B'00011111'     ;BTC=16
0653   340F 34FF 341F 01382                         DT      B'00001111',B'11111111',B'00011111'     ;BTC=17
0656   340F 34FF 341F 01383                         DT      B'00001111',B'11111111',B'00011111'     ;BTC=18
0659   340F 34FF 341F 01384                         DT      B'00001111',B'11111111',B'00011111'     ;BTC=19
065C   3407 34FE 341F 01385                         DT      B'00000111',B'11111110',B'00011111'     ;BTC=1A
065F   3403 34FC 343F 01386                         DT      B'00000011',B'11111100',B'00111111'     ;BTC=1B
0662   3480 3400 347F 01387                         DT      B'10000000',B'00000000',B'01111111'     ;BTC=1C
0665   34C0 3400 34FF 01388                         DT      B'11000000',B'00000000',B'11111111'     ;BTC=1D
0668   34E0 3401 34FF 01389                         DT      B'11100000',B'00000001',B'11111111'     ;BTC=1E
066B   34FF 34FF 34FF 01390                         DT      B'11111111',B'11111111',B'11111111'     ;BTC=1F
                      01391 
                      01392 
066E                  01393 FONT02_CAP_H
066E   0828           01394                         MOVFW   BTCOUNT
066F   0782           01395                         ADDWF   PCL,F
0670   34FF 34FF 34FF 01396                         DT      B'11111111',B'11111111',B'11111111'     ;BTC=00
0673   340F 34FE 341F 01397                         DT      B'00001111',B'11111110',B'00011111'     ;BTC=01
0676   340F 34FE 341F 01398                         DT      B'00001111',B'11111110',B'00011111'     ;BTC=02
0679   340F 34FE 341F 01399                         DT      B'00001111',B'11111110',B'00011111'     ;BTC=03
067C   340F 34FE 341F 01400                         DT      B'00001111',B'11111110',B'00011111'     ;BTC=04
067F   340F 34FE 341F 01401                         DT      B'00001111',B'11111110',B'00011111'     ;BTC=05
0682   340F 34FE 341F 01402                         DT      B'00001111',B'11111110',B'00011111'     ;BTC=06
MPASM  5.51         20191009HUB6DISPLAYV3.ASM   10-24-2019  18:15:29         PAGE 31


LOC  OBJECT CODE     LINE SOURCE TEXT
  VALUE

0685   340F 34FE 341F 01403                         DT      B'00001111',B'11111110',B'00011111'     ;BTC=07
0688   340F 34FE 341F 01404                         DT      B'00001111',B'11111110',B'00011111'     ;BTC=08
068B   340F 34FE 341F 01405                         DT      B'00001111',B'11111110',B'00011111'     ;BTC=09
068E   340F 34FE 341F 01406                         DT      B'00001111',B'11111110',B'00011111'     ;BTC=0A
0691   340F 34FE 341F 01407                         DT      B'00001111',B'11111110',B'00011111'     ;BTC=0B
0694   340F 34FE 341F 01408                         DT      B'00001111',B'11111110',B'00011111'     ;BTC=0C
0697   340F 34FE 341F 01409                         DT      B'00001111',B'11111110',B'00011111'     ;BTC=0D
069A   3400 3400 341F 01410                         DT      B'00000000',B'00000000',B'00011111'     ;BTC=0E
069D   3400 3400 341F 01411                         DT      B'00000000',B'00000000',B'00011111'     ;BTC=0F
06A0   3400 3400 341F 01412                         DT      B'00000000',B'00000000',B'00011111'     ;BTC=10
06A3   340F 34FE 341F 01413                         DT      B'00001111',B'11111110',B'00011111'     ;BTC=11
06A6   340F 34FE 341F 01414                         DT      B'00001111',B'11111110',B'00011111'     ;BTC=12
06A9   340F 34FE 341F 01415                         DT      B'00001111',B'11111110',B'00011111'     ;BTC=13
06AC   340F 34FE 341F 01416                         DT      B'00001111',B'11111110',B'00011111'     ;BTC=14
06AF   340F 34FE 341F 01417                         DT      B'00001111',B'11111110',B'00011111'     ;BTC=15
06B2   340F 34FE 341F 01418                         DT      B'00001111',B'11111110',B'00011111'     ;BTC=16
06B5   340F 34FE 341F 01419                         DT      B'00001111',B'11111110',B'00011111'     ;BTC=17
06B8   340F 34FE 341F 01420                         DT      B'00001111',B'11111110',B'00011111'     ;BTC=18
06BB   340F 34FE 341F 01421                         DT      B'00001111',B'11111110',B'00011111'     ;BTC=19
06BE   340F 34FE 341F 01422                         DT      B'00001111',B'11111110',B'00011111'     ;BTC=1A
06C1   340F 34FE 341F 01423                         DT      B'00001111',B'11111110',B'00011111'     ;BTC=1B
06C4   340F 34FE 341F 01424                         DT      B'00001111',B'11111110',B'00011111'     ;BTC=1C
06C7   340F 34FE 341F 01425                         DT      B'00001111',B'11111110',B'00011111'     ;BTC=1D
06CA   340F 34FE 341F 01426                         DT      B'00001111',B'11111110',B'00011111'     ;BTC=1E
06CD   34FF 34FF 34FF 01427                         DT      B'11111111',B'11111111',B'11111111'     ;BTC=1F
                      01428 
Warning[205]: Found directive in column 1. (ORG)
0700                  01429 ORG     0X700
                      01430 
0700                  01431 FONT02E
                      01432 
0700   3007           01433         MOVLW   7
0701   008A           01434         MOVWF   PCLATH  
0702   082A           01435         MOVFW   NUMBER
0703   0782           01436         ADDWF   PCL,F
                      01437         
0704   0000           01438         NOP     ;A
0705   0000           01439         NOP     ;B
0706   0000           01440         NOP     ;C
0707   0000           01441         NOP     ;D
0708   0000           01442         NOP     ;E
0709   0000           01443         NOP     ;F
070A   0000           01444         NOP     ;G
070B   0000           01445         NOP     ;H
                      01446 
070C   2F0E           01447         GOTO    FONT02_CAP_I
070D   2F70           01448         GOTO    FONT02_CAP_J
                      01449 
070E                  01450 FONT02_CAP_I
070E   0828           01451                         MOVFW   BTCOUNT
070F   0782           01452                         ADDWF   PCL,F
0710   34FF 34FF 34FF 01453                         DT      B'11111111',B'11111111',B'11111111'     ;BTC=00
0713   3400 3401 34FF 01454                         DT      B'00000000',B'00000001',B'11111111'     ;BTC=01
MPASM  5.51         20191009HUB6DISPLAYV3.ASM   10-24-2019  18:15:29         PAGE 32


LOC  OBJECT CODE     LINE SOURCE TEXT
  VALUE

0716   3400 3401 34FF 01455                         DT      B'00000000',B'00000001',B'11111111'     ;BTC=02
0719   3400 3401 34FF 01456                         DT      B'00000000',B'00000001',B'11111111'     ;BTC=03
071C   34F8 347F 34FF 01457                         DT      B'11111000',B'01111111',B'11111111'     ;BTC=04
071F   34F8 347F 34FF 01458                         DT      B'11111000',B'01111111',B'11111111'     ;BTC=05
0722   34F8 347F 34FF 01459                         DT      B'11111000',B'01111111',B'11111111'     ;BTC=06
0725   34F8 347F 34FF 01460                         DT      B'11111000',B'01111111',B'11111111'     ;BTC=07
0728   34F8 347F 34FF 01461                         DT      B'11111000',B'01111111',B'11111111'     ;BTC=08
072B   34F8 347F 34FF 01462                         DT      B'11111000',B'01111111',B'11111111'     ;BTC=09
072E   34F8 347F 34FF 01463                         DT      B'11111000',B'01111111',B'11111111'     ;BTC=0A
0731   34F8 347F 34FF 01464                         DT      B'11111000',B'01111111',B'11111111'     ;BTC=0B
0734   34F8 347F 34FF 01465                         DT      B'11111000',B'01111111',B'11111111'     ;BTC=0C
0737   34F8 347F 34FF 01466                         DT      B'11111000',B'01111111',B'11111111'     ;BTC=0D
073A   34F8 347F 34FF 01467                         DT      B'11111000',B'01111111',B'11111111'     ;BTC=0E
073D   34F8 347F 34FF 01468                         DT      B'11111000',B'01111111',B'11111111'     ;BTC=0F
0740   34F8 347F 34FF 01469                         DT      B'11111000',B'01111111',B'11111111'     ;BTC=10
0743   34F8 347F 34FF 01470                         DT      B'11111000',B'01111111',B'11111111'     ;BTC=11
0746   34F8 347F 34FF 01471                         DT      B'11111000',B'01111111',B'11111111'     ;BTC=12
0749   34F8 347F 34FF 01472                         DT      B'11111000',B'01111111',B'11111111'     ;BTC=13
074C   34F8 347F 34FF 01473                         DT      B'11111000',B'01111111',B'11111111'     ;BTC=14
074F   34F8 347F 34FF 01474                         DT      B'11111000',B'01111111',B'11111111'     ;BTC=15
0752   34F8 347F 34FF 01475                         DT      B'11111000',B'01111111',B'11111111'     ;BTC=16
0755   34F8 347F 34FF 01476                         DT      B'11111000',B'01111111',B'11111111'     ;BTC=17
0758   34F8 347F 34FF 01477                         DT      B'11111000',B'01111111',B'11111111'     ;BTC=18
075B   34F8 347F 34FF 01478                         DT      B'11111000',B'01111111',B'11111111'     ;BTC=19
075E   34F8 347F 34FF 01479                         DT      B'11111000',B'01111111',B'11111111'     ;BTC=1A
0761   34F8 347F 34FF 01480                         DT      B'11111000',B'01111111',B'11111111'     ;BTC=1B
0764   3400 3401 34FF 01481                         DT      B'00000000',B'00000001',B'11111111'     ;BTC=1C
0767   3400 3401 34FF 01482                         DT      B'00000000',B'00000001',B'11111111'     ;BTC=1D
076A   3400 3401 34FF 01483                         DT      B'00000000',B'00000001',B'11111111'     ;BTC=1E
076D   34FF 34FF 34FF 01484                         DT      B'11111111',B'11111111',B'11111111'     ;BTC=1F
                      01485 
                      01486 
                      01487 
0770                  01488 FONT02_CAP_J
0770   0828           01489                         MOVFW   BTCOUNT
0771   0782           01490                         ADDWF   PCL,F
0772   34FF 34FF 34FF 01491                         DT      B'11111111',B'11111111',B'11111111'     ;BTC=00
0775   34FF 3480 341F 01492                         DT      B'11111111',B'10000000',B'00011111'     ;BTC=01
0778   34FF 3480 341F 01493                         DT      B'11111111',B'10000000',B'00011111'     ;BTC=02
077B   34FF 3480 341F 01494                         DT      B'11111111',B'10000000',B'00011111'     ;BTC=03
077E   34FF 34F8 347F 01495                         DT      B'11111111',B'11111000',B'01111111'     ;BTC=04
0781   34FF 34F8 347F 01496                         DT      B'11111111',B'11111000',B'01111111'     ;BTC=05
0784   34FF 34F8 347F 01497                         DT      B'11111111',B'11111000',B'01111111'     ;BTC=06
0787   34FF 34F8 347F 01498                         DT      B'11111111',B'11111000',B'01111111'     ;BTC=07
078A   34FF 34F8 347F 01499                         DT      B'11111111',B'11111000',B'01111111'     ;BTC=08
078D   34FF 34F8 347F 01500                         DT      B'11111111',B'11111000',B'01111111'     ;BTC=09
0790   34FF 34F8 347F 01501                         DT      B'11111111',B'11111000',B'01111111'     ;BTC=0A
0793   34FF 34F8 347F 01502                         DT      B'11111111',B'11111000',B'01111111'     ;BTC=0B
0796   34FF 34F8 347F 01503                         DT      B'11111111',B'11111000',B'01111111'     ;BTC=0C
0799   34FF 34F8 347F 01504                         DT      B'11111111',B'11111000',B'01111111'     ;BTC=0D
079C   34FF 34F8 347F 01505                         DT      B'11111111',B'11111000',B'01111111'     ;BTC=0E
079F   34FF 34F8 347F 01506                         DT      B'11111111',B'11111000',B'01111111'     ;BTC=0F
07A2   34FF 34F8 347F 01507                         DT      B'11111111',B'11111000',B'01111111'     ;BTC=10
MPASM  5.51         20191009HUB6DISPLAYV3.ASM   10-24-2019  18:15:29         PAGE 33


LOC  OBJECT CODE     LINE SOURCE TEXT
  VALUE

07A5   34FF 34F8 347F 01508                         DT      B'11111111',B'11111000',B'01111111'     ;BTC=11
07A8   34FF 34F8 347F 01509                         DT      B'11111111',B'11111000',B'01111111'     ;BTC=12
07AB   34FF 34F8 347F 01510                         DT      B'11111111',B'11111000',B'01111111'     ;BTC=13
07AE   34FF 34F8 347F 01511                         DT      B'11111111',B'11111000',B'01111111'     ;BTC=14
07B1   34FF 34F8 347F 01512                         DT      B'11111111',B'11111000',B'01111111'     ;BTC=15
07B4   34FF 34F8 347F 01513                         DT      B'11111111',B'11111000',B'01111111'     ;BTC=16
07B7   341F 34F8 347F 01514                         DT      B'00011111',B'11111000',B'01111111'     ;BTC=17
07BA   341F 34F8 347F 01515                         DT      B'00011111',B'11111000',B'01111111'     ;BTC=18
07BD   341F 34F8 347F 01516                         DT      B'00011111',B'11111000',B'01111111'     ;BTC=19
07C0   340F 34F8 347F 01517                         DT      B'00001111',B'11111000',B'01111111'     ;BTC=1A
07C3   3407 34F0 347F 01518                         DT      B'00000111',B'11110000',B'01111111'     ;BTC=1B
07C6   3480 3400 34FF 01519                         DT      B'10000000',B'00000000',B'11111111'     ;BTC=1C
07C9   34C0 3400 34FF 01520                         DT      B'11000000',B'00000000',B'11111111'     ;BTC=1D
07CC   34E0 3401 34FF 01521                         DT      B'11100000',B'00000001',B'11111111'     ;BTC=1E
07CF   34FF 34FF 34FF 01522                         DT      B'11111111',B'11111111',B'11111111'     ;BTC=1F
                      01523 
Warning[205]: Found directive in column 1. (ORG)
0800                  01524 ORG     0X800
                      01525 
0800                  01526 FONT02F
                      01527 
0800   3008           01528         MOVLW   8
0801   008A           01529         MOVWF   PCLATH  
0802   082A           01530         MOVFW   NUMBER
0803   0782           01531         ADDWF   PCL,F
                      01532         
0804   0000           01533         NOP     ;A
0805   0000           01534         NOP     ;B
0806   0000           01535         NOP     ;C
0807   0000           01536         NOP     ;D
0808   0000           01537         NOP     ;E
0809   0000           01538         NOP     ;F
080A   0000           01539         NOP     ;G
080B   0000           01540         NOP     ;H
080C   0000           01541         NOP     ;I
080D   0000           01542         NOP     ;J
                      01543 
080E   2810           01544         GOTO    FONT02_CAP_K
080F   2872           01545         GOTO    FONT02_CAP_L
                      01546         
                      01547 
0810                  01548 FONT02_CAP_K
0810   0828           01549                         MOVFW   BTCOUNT
0811   0782           01550                         ADDWF   PCL,F
0812   34FF 34FF 34FF 01551                         DT      B'11111111',B'11111111',B'11111111'     ;BTC=00
0815   340F 34FE 341F 01552                         DT      B'00001111',B'11111110',B'00011111'     ;BTC=01
0818   340F 34FC 343F 01553                         DT      B'00001111',B'11111100',B'00111111'     ;BTC=02
081B   340F 34F8 347F 01554                         DT      B'00001111',B'11111000',B'01111111'     ;BTC=03
081E   340F 34F0 34FF 01555                         DT      B'00001111',B'11110000',B'11111111'     ;BTC=04
0821   340F 34E1 34FF 01556                         DT      B'00001111',B'11100001',B'11111111'     ;BTC=05
0824   340F 34C3 34FF 01557                         DT      B'00001111',B'11000011',B'11111111'     ;BTC=06
0827   340F 3487 34FF 01558                         DT      B'00001111',B'10000111',B'11111111'     ;BTC=07
082A   340F 340F 34FF 01559                         DT      B'00001111',B'00001111',B'11111111'     ;BTC=08
MPASM  5.51         20191009HUB6DISPLAYV3.ASM   10-24-2019  18:15:29         PAGE 34


LOC  OBJECT CODE     LINE SOURCE TEXT
  VALUE

082D   340E 341F 34FF 01560                         DT      B'00001110',B'00011111',B'11111111'     ;BTC=09
0830   340C 343F 34FF 01561                         DT      B'00001100',B'00111111',B'11111111'     ;BTC=0A
0833   3408 347F 34FF 01562                         DT      B'00001000',B'01111111',B'11111111'     ;BTC=0B
0836   3400 34FF 34FF 01563                         DT      B'00000000',B'11111111',B'11111111'     ;BTC=0C
0839   3401 34FF 34FF 01564                         DT      B'00000001',B'11111111',B'11111111'     ;BTC=0D
083C   3403 34FF 34FF 01565                         DT      B'00000011',B'11111111',B'11111111'     ;BTC=0E
083F   3407 34FF 34FF 01566                         DT      B'00000111',B'11111111',B'11111111'     ;BTC=0F
0842   3407 34FF 34FF 01567                         DT      B'00000111',B'11111111',B'11111111'     ;BTC=10
0845   3403 34FF 34FF 01568                         DT      B'00000011',B'11111111',B'11111111'     ;BTC=11
0848   3401 34FF 34FF 01569                         DT      B'00000001',B'11111111',B'11111111'     ;BTC=12
084B   3400 34FF 34FF 01570                         DT      B'00000000',B'11111111',B'11111111'     ;BTC=13
084E   3408 347F 34FF 01571                         DT      B'00001000',B'01111111',B'11111111'     ;BTC=14
0851   340C 343F 34FF 01572                         DT      B'00001100',B'00111111',B'11111111'     ;BTC=15
0854   340E 341F 34FF 01573                         DT      B'00001110',B'00011111',B'11111111'     ;BTC=16
0857   340F 340F 34FF 01574                         DT      B'00001111',B'00001111',B'11111111'     ;BTC=17
085A   340F 3487 34FF 01575                         DT      B'00001111',B'10000111',B'11111111'     ;BTC=18
085D   340F 34C3 34FF 01576                         DT      B'00001111',B'11000011',B'11111111'     ;BTC=19
0860   340F 34E1 34FF 01577                         DT      B'00001111',B'11100001',B'11111111'     ;BTC=1A
0863   340F 34F0 34FF 01578                         DT      B'00001111',B'11110000',B'11111111'     ;BTC=1B
0866   340F 34F8 347F 01579                         DT      B'00001111',B'11111000',B'01111111'     ;BTC=1C
0869   340F 34FC 343F 01580                         DT      B'00001111',B'11111100',B'00111111'     ;BTC=1D
086C   340F 34FE 341F 01581                         DT      B'00001111',B'11111110',B'00011111'     ;BTC=1E
086F   34FF 34FF 34FF 01582                         DT      B'11111111',B'11111111',B'11111111'     ;BTC=1F
                      01583 
                      01584 
                      01585 
0872                  01586 FONT02_CAP_L
0872   0828           01587                         MOVFW   BTCOUNT
0873   0782           01588                         ADDWF   PCL,F
0874   34FF 34FF 34FF 01589                         DT      B'11111111',B'11111111',B'11111111'     ;BTC=00
0877   340F 34FF 34FF 01590                         DT      B'00001111',B'11111111',B'11111111'     ;BTC=01
087A   340F 34FF 34FF 01591                         DT      B'00001111',B'11111111',B'11111111'     ;BTC=02
087D   340F 34FF 34FF 01592                         DT      B'00001111',B'11111111',B'11111111'     ;BTC=03
0880   340F 34FF 34FF 01593                         DT      B'00001111',B'11111111',B'11111111'     ;BTC=04
0883   340F 34FF 34FF 01594                         DT      B'00001111',B'11111111',B'11111111'     ;BTC=05
0886   340F 34FF 34FF 01595                         DT      B'00001111',B'11111111',B'11111111'     ;BTC=06
0889   340F 34FF 34FF 01596                         DT      B'00001111',B'11111111',B'11111111'     ;BTC=07
088C   340F 34FF 34FF 01597                         DT      B'00001111',B'11111111',B'11111111'     ;BTC=08
088F   340F 34FF 34FF 01598                         DT      B'00001111',B'11111111',B'11111111'     ;BTC=09
0892   340F 34FF 34FF 01599                         DT      B'00001111',B'11111111',B'11111111'     ;BTC=0A
0895   340F 34FF 34FF 01600                         DT      B'00001111',B'11111111',B'11111111'     ;BTC=0B
0898   340F 34FF 34FF 01601                         DT      B'00001111',B'11111111',B'11111111'     ;BTC=0C
089B   340F 34FF 34FF 01602                         DT      B'00001111',B'11111111',B'11111111'     ;BTC=0D
089E   340F 34FF 34FF 01603                         DT      B'00001111',B'11111111',B'11111111'     ;BTC=0E
08A1   340F 34FF 34FF 01604                         DT      B'00001111',B'11111111',B'11111111'     ;BTC=0F
08A4   340F 34FF 34FF 01605                         DT      B'00001111',B'11111111',B'11111111'     ;BTC=10
08A7   340F 34FF 34FF 01606                         DT      B'00001111',B'11111111',B'11111111'     ;BTC=11
08AA   340F 34FF 34FF 01607                         DT      B'00001111',B'11111111',B'11111111'     ;BTC=12
08AD   340F 34FF 34FF 01608                         DT      B'00001111',B'11111111',B'11111111'     ;BTC=13
08B0   340F 34FF 34FF 01609                         DT      B'00001111',B'11111111',B'11111111'     ;BTC=14
08B3   340F 34FF 34FF 01610                         DT      B'00001111',B'11111111',B'11111111'     ;BTC=15
08B6   340F 34FF 34FF 01611                         DT      B'00001111',B'11111111',B'11111111'     ;BTC=16
08B9   340F 34FF 34FF 01612                         DT      B'00001111',B'11111111',B'11111111'     ;BTC=17
MPASM  5.51         20191009HUB6DISPLAYV3.ASM   10-24-2019  18:15:29         PAGE 35


LOC  OBJECT CODE     LINE SOURCE TEXT
  VALUE

08BC   340F 34FF 34FF 01613                         DT      B'00001111',B'11111111',B'11111111'     ;BTC=18
08BF   340F 34FF 34FF 01614                         DT      B'00001111',B'11111111',B'11111111'     ;BTC=19
08C2   340F 34FF 34FF 01615                         DT      B'00001111',B'11111111',B'11111111'     ;BTC=1A
08C5   340F 34FF 34FF 01616                         DT      B'00001111',B'11111111',B'11111111'     ;BTC=1B
08C8   3400 3403 34FF 01617                         DT      B'00000000',B'00000011',B'11111111'     ;BTC=1C
08CB   3400 3403 34FF 01618                         DT      B'00000000',B'00000011',B'11111111'     ;BTC=1D
08CE   3400 3403 34FF 01619                         DT      B'00000000',B'00000011',B'11111111'     ;BTC=1E
08D1   34FF 34FF 34FF 01620                         DT      B'11111111',B'11111111',B'11111111'     ;BTC=1F
                      01621 
                      01622 
Warning[205]: Found directive in column 1. (ORG)
0900                  01623 ORG     0X900
                      01624 
0900                  01625 FONT02G
                      01626 
0900   3009           01627         MOVLW   0X09
0901   008A           01628         MOVWF   PCLATH  
0902   082A           01629         MOVFW   NUMBER
0903   0782           01630         ADDWF   PCL,F
                      01631         
0904   0000           01632         NOP     ;A
0905   0000           01633         NOP     ;B
0906   0000           01634         NOP     ;C
0907   0000           01635         NOP     ;D
0908   0000           01636         NOP     ;E
0909   0000           01637         NOP     ;F
090A   0000           01638         NOP     ;G
090B   0000           01639         NOP     ;H
090C   0000           01640         NOP     ;I
090D   0000           01641         NOP     ;J
090E   0000           01642         NOP     ;K
090F   0000           01643         NOP     ;L
                      01644 
0910   2912           01645         GOTO    FONT02_CAP_M
0911   2974           01646         GOTO    FONT02_CAP_N
                      01647         
                      01648 
0912                  01649 FONT02_CAP_M
0912   0828           01650                         MOVFW   BTCOUNT
0913   0782           01651                         ADDWF   PCL,F
0914   34FF 34FF 34FF 01652                         DT      B'11111111',B'11111111',B'11111111'     ;BTC=00
0917   340F 34FE 341F 01653                         DT      B'00001111',B'11111110',B'00011111'     ;BTC=01
091A   340F 34FE 341F 01654                         DT      B'00001111',B'11111110',B'00011111'     ;BTC=02
091D   340F 34FE 341F 01655                         DT      B'00001111',B'11111110',B'00011111'     ;BTC=03
0920   3407 34FC 341F 01656                         DT      B'00000111',B'11111100',B'00011111'     ;BTC=04
0923   3403 34F8 341F 01657                         DT      B'00000011',B'11111000',B'00011111'     ;BTC=05
0926   3401 34F0 341F 01658                         DT      B'00000001',B'11110000',B'00011111'     ;BTC=06
0929   3400 34E0 341F 01659                         DT      B'00000000',B'11100000',B'00011111'     ;BTC=07
092C   3408 3442 341F 01660                         DT      B'00001000',B'01000010',B'00011111'     ;BTC=08
092F   340C 3406 341F 01661                         DT      B'00001100',B'00000110',B'00011111'     ;BTC=09
0932   340E 340E 341F 01662                         DT      B'00001110',B'00001110',B'00011111'     ;BTC=0A
0935   340F 341E 341F 01663                         DT      B'00001111',B'00011110',B'00011111'     ;BTC=0B
0938   340F 34BE 341F 01664                         DT      B'00001111',B'10111110',B'00011111'     ;BTC=0C
MPASM  5.51         20191009HUB6DISPLAYV3.ASM   10-24-2019  18:15:29         PAGE 36


LOC  OBJECT CODE     LINE SOURCE TEXT
  VALUE

093B   340F 34FE 341F 01665                         DT      B'00001111',B'11111110',B'00011111'     ;BTC=0D
093E   340F 34FE 341F 01666                         DT      B'00001111',B'11111110',B'00011111'     ;BTC=0E
0941   340F 34FE 341F 01667                         DT      B'00001111',B'11111110',B'00011111'     ;BTC=0F
0944   340F 34FE 341F 01668                         DT      B'00001111',B'11111110',B'00011111'     ;BTC=10
0947   340F 34FE 341F 01669                         DT      B'00001111',B'11111110',B'00011111'     ;BTC=11
094A   340F 34FE 341F 01670                         DT      B'00001111',B'11111110',B'00011111'     ;BTC=12
094D   340F 34FE 341F 01671                         DT      B'00001111',B'11111110',B'00011111'     ;BTC=13
0950   340F 34FE 341F 01672                         DT      B'00001111',B'11111110',B'00011111'     ;BTC=14
0953   340F 34FE 341F 01673                         DT      B'00001111',B'11111110',B'00011111'     ;BTC=15
0956   340F 34FE 341F 01674                         DT      B'00001111',B'11111110',B'00011111'     ;BTC=16
0959   340F 34FE 341F 01675                         DT      B'00001111',B'11111110',B'00011111'     ;BTC=17
095C   340F 34FE 341F 01676                         DT      B'00001111',B'11111110',B'00011111'     ;BTC=18
095F   340F 34FE 341F 01677                         DT      B'00001111',B'11111110',B'00011111'     ;BTC=19
0962   340F 34FE 341F 01678                         DT      B'00001111',B'11111110',B'00011111'     ;BTC=1A
0965   340F 34FE 341F 01679                         DT      B'00001111',B'11111110',B'00011111'     ;BTC=1B
0968   340F 34FE 341F 01680                         DT      B'00001111',B'11111110',B'00011111'     ;BTC=1C
096B   340F 34FE 341F 01681                         DT      B'00001111',B'11111110',B'00011111'     ;BTC=1D
096E   340F 34FE 341F 01682                         DT      B'00001111',B'11111110',B'00011111'     ;BTC=1E
0971   34FF 34FF 34FF 01683                         DT      B'11111111',B'11111111',B'11111111'     ;BTC=1F
                      01684 
                      01685 
                      01686 
0974                  01687 FONT02_CAP_N
0974   0828           01688                         MOVFW   BTCOUNT
0975   0782           01689                         ADDWF   PCL,F
0976   34FF 34FF 34FF 01690                         DT      B'11111111',B'11111111',B'11111111'     ;BTC=00
0979   340F 34FE 341F 01691                         DT      B'00001111',B'11111110',B'00011111'     ;BTC=01
097C   340F 34FE 341F 01692                         DT      B'00001111',B'11111110',B'00011111'     ;BTC=02
097F   340F 34FE 341F 01693                         DT      B'00001111',B'11111110',B'00011111'     ;BTC=03
0982   3407 34FE 341F 01694                         DT      B'00000111',B'11111110',B'00011111'     ;BTC=04
0985   3407 34FE 341F 01695                         DT      B'00000111',B'11111110',B'00011111'     ;BTC=05
0988   3403 34FE 341F 01696                         DT      B'00000011',B'11111110',B'00011111'     ;BTC=06
098B   3403 34FE 341F 01697                         DT      B'00000011',B'11111110',B'00011111'     ;BTC=07
098E   3401 34FE 341F 01698                         DT      B'00000001',B'11111110',B'00011111'     ;BTC=08
0991   3401 34FE 341F 01699                         DT      B'00000001',B'11111110',B'00011111'     ;BTC=09
0994   3400 34FE 341F 01700                         DT      B'00000000',B'11111110',B'00011111'     ;BTC=0A
0997   3400 34FE 341F 01701                         DT      B'00000000',B'11111110',B'00011111'     ;BTC=0B
099A   3408 347E 341F 01702                         DT      B'00001000',B'01111110',B'00011111'     ;BTC=0C
099D   3408 347E 341F 01703                         DT      B'00001000',B'01111110',B'00011111'     ;BTC=0D
09A0   340C 343E 341F 01704                         DT      B'00001100',B'00111110',B'00011111'     ;BTC=0E
09A3   340C 343E 341F 01705                         DT      B'00001100',B'00111110',B'00011111'     ;BTC=0F
09A6   340E 341E 341F 01706                         DT      B'00001110',B'00011110',B'00011111'     ;BTC=10
09A9   340E 341E 341F 01707                         DT      B'00001110',B'00011110',B'00011111'     ;BTC=11
09AC   340F 340E 341F 01708                         DT      B'00001111',B'00001110',B'00011111'     ;BTC=12
09AF   340F 340E 341F 01709                         DT      B'00001111',B'00001110',B'00011111'     ;BTC=13
09B2   340F 3486 341F 01710                         DT      B'00001111',B'10000110',B'00011111'     ;BTC=14
09B5   340F 3486 341F 01711                         DT      B'00001111',B'10000110',B'00011111'     ;BTC=15
09B8   340F 34C2 341F 01712                         DT      B'00001111',B'11000010',B'00011111'     ;BTC=16
09BB   340F 34C2 341F 01713                         DT      B'00001111',B'11000010',B'00011111'     ;BTC=17
09BE   340F 34E0 341F 01714                         DT      B'00001111',B'11100000',B'00011111'     ;BTC=18
09C1   340F 34E0 341F 01715                         DT      B'00001111',B'11100000',B'00011111'     ;BTC=19
09C4   340F 34F0 341F 01716                         DT      B'00001111',B'11110000',B'00011111'     ;BTC=1A
09C7   340F 34F0 341F 01717                         DT      B'00001111',B'11110000',B'00011111'     ;BTC=1B
MPASM  5.51         20191009HUB6DISPLAYV3.ASM   10-24-2019  18:15:29         PAGE 37


LOC  OBJECT CODE     LINE SOURCE TEXT
  VALUE

09CA   340F 34F8 341F 01718                         DT      B'00001111',B'11111000',B'00011111'     ;BTC=1C
09CD   340F 34F8 341F 01719                         DT      B'00001111',B'11111000',B'00011111'     ;BTC=1D
09D0   340F 34FC 341F 01720                         DT      B'00001111',B'11111100',B'00011111'     ;BTC=1E
09D3   34FF 34FF 34FF 01721                         DT      B'11111111',B'11111111',B'11111111'     ;BTC=1F
                      01722 
                      01723 
Warning[205]: Found directive in column 1. (ORG)
0A00                  01724 ORG     0XA00
                      01725 
0A00                  01726 FONT02H
                      01727 
0A00   300A           01728         MOVLW   0X0A
0A01   008A           01729         MOVWF   PCLATH  
0A02   082A           01730         MOVFW   NUMBER
0A03   0782           01731         ADDWF   PCL,F
                      01732         
0A04   0000           01733         NOP     ;A
0A05   0000           01734         NOP     ;B
0A06   0000           01735         NOP     ;C
0A07   0000           01736         NOP     ;D
0A08   0000           01737         NOP     ;E
0A09   0000           01738         NOP     ;F
0A0A   0000           01739         NOP     ;G
0A0B   0000           01740         NOP     ;H
0A0C   0000           01741         NOP     ;I
0A0D   0000           01742         NOP     ;J
0A0E   0000           01743         NOP     ;K
0A0F   0000           01744         NOP     ;L
0A10   0000           01745         NOP     ;M
0A11   0000           01746         NOP     ;N
                      01747         
0A12   2A14           01748         GOTO    FONT02_CAP_O
0A13   2A76           01749         GOTO    FONT02_CAP_P
                      01750         
                      01751 
0A14                  01752 FONT02_CAP_O
0A14   0828           01753                         MOVFW   BTCOUNT
0A15   0782           01754                         ADDWF   PCL,F
0A16   34FF 34FF 34FF 01755                         DT      B'11111111',B'11111111',B'11111111'     ;BTC=00
0A19   34F8 3403 34FF 01756                         DT      B'11111000',B'00000011',B'11111111'     ;BTC=01
0A1C   34F0 3401 34FF 01757                         DT      B'11110000',B'00000001',B'11111111'     ;BTC=02
0A1F   34E0 3400 34FF 01758                         DT      B'11100000',B'00000000',B'11111111'     ;BTC=03
0A22   34C1 34F0 347F 01759                         DT      B'11000001',B'11110000',B'01111111'     ;BTC=04
0A25   3483 34F8 343F 01760                         DT      B'10000011',B'11111000',B'00111111'     ;BTC=05
0A28   3407 34FC 341F 01761                         DT      B'00000111',B'11111100',B'00011111'     ;BTC=06
0A2B   340F 34FE 341F 01762                         DT      B'00001111',B'11111110',B'00011111'     ;BTC=07
0A2E   340F 34FE 341F 01763                         DT      B'00001111',B'11111110',B'00011111'     ;BTC=08
0A31   340F 34FE 341F 01764                         DT      B'00001111',B'11111110',B'00011111'     ;BTC=09
0A34   340F 34FE 341F 01765                         DT      B'00001111',B'11111110',B'00011111'     ;BTC=0A
0A37   340F 34FE 341F 01766                         DT      B'00001111',B'11111110',B'00011111'     ;BTC=0B
0A3A   340F 34FE 341F 01767                         DT      B'00001111',B'11111110',B'00011111'     ;BTC=0C
0A3D   340F 34FE 341F 01768                         DT      B'00001111',B'11111110',B'00011111'     ;BTC=0D
0A40   340F 34FE 341F 01769                         DT      B'00001111',B'11111110',B'00011111'     ;BTC=0E
MPASM  5.51         20191009HUB6DISPLAYV3.ASM   10-24-2019  18:15:29         PAGE 38


LOC  OBJECT CODE     LINE SOURCE TEXT
  VALUE

0A43   340F 34FE 341F 01770                         DT      B'00001111',B'11111110',B'00011111'     ;BTC=0F
0A46   340F 34FE 341F 01771                         DT      B'00001111',B'11111110',B'00011111'     ;BTC=10
0A49   340F 34FE 341F 01772                         DT      B'00001111',B'11111110',B'00011111'     ;BTC=11
0A4C   340F 34FE 341F 01773                         DT      B'00001111',B'11111110',B'00011111'     ;BTC=12
0A4F   340F 34FE 341F 01774                         DT      B'00001111',B'11111110',B'00011111'     ;BTC=13
0A52   340F 34FE 341F 01775                         DT      B'00001111',B'11111110',B'00011111'     ;BTC=14
0A55   340F 34FE 341F 01776                         DT      B'00001111',B'11111110',B'00011111'     ;BTC=15
0A58   340F 34FE 341F 01777                         DT      B'00001111',B'11111110',B'00011111'     ;BTC=16
0A5B   340F 34FE 341F 01778                         DT      B'00001111',B'11111110',B'00011111'     ;BTC=17
0A5E   340F 34FE 341F 01779                         DT      B'00001111',B'11111110',B'00011111'     ;BTC=18
0A61   3407 34FC 341F 01780                         DT      B'00000111',B'11111100',B'00011111'     ;BTC=19
0A64   3483 34F8 343F 01781                         DT      B'10000011',B'11111000',B'00111111'     ;BTC=1A
0A67   34C1 34F0 347F 01782                         DT      B'11000001',B'11110000',B'01111111'     ;BTC=1B
0A6A   34E0 3400 34FF 01783                         DT      B'11100000',B'00000000',B'11111111'     ;BTC=1C
0A6D   34F0 3401 34FF 01784                         DT      B'11110000',B'00000001',B'11111111'     ;BTC=1D
0A70   34F8 3403 34FF 01785                         DT      B'11111000',B'00000011',B'11111111'     ;BTC=1E
0A73   34FF 34FF 34FF 01786                         DT      B'11111111',B'11111111',B'11111111'     ;BTC=1F
                      01787 
                      01788 
                      01789 
0A76                  01790 FONT02_CAP_P
0A76   0828           01791                         MOVFW   BTCOUNT
0A77   0782           01792                         ADDWF   PCL,F
0A78   34FF 34FF 34FF 01793                         DT      B'11111111',B'11111111',B'11111111'     ;BTC=00
0A7B   3400 3401 34FF 01794                         DT      B'00000000',B'00000001',B'11111111'     ;BTC=01
0A7E   3400 3400 34FF 01795                         DT      B'00000000',B'00000000',B'11111111'     ;BTC=02
0A81   3400 3400 347F 01796                         DT      B'00000000',B'00000000',B'01111111'     ;BTC=03
0A84   340F 34FC 343F 01797                         DT      B'00001111',B'11111100',B'00111111'     ;BTC=04
0A87   340F 34FE 341F 01798                         DT      B'00001111',B'11111110',B'00011111'     ;BTC=05
0A8A   340F 34FF 341F 01799                         DT      B'00001111',B'11111111',B'00011111'     ;BTC=06
0A8D   340F 34FF 341F 01800                         DT      B'00001111',B'11111111',B'00011111'     ;BTC=07
0A90   340F 34FF 341F 01801                         DT      B'00001111',B'11111111',B'00011111'     ;BTC=08
0A93   340F 34FF 341F 01802                         DT      B'00001111',B'11111111',B'00011111'     ;BTC=09
0A96   340F 34FF 341F 01803                         DT      B'00001111',B'11111111',B'00011111'     ;BTC=0A
0A99   340F 34FF 341F 01804                         DT      B'00001111',B'11111111',B'00011111'     ;BTC=0B
0A9C   340F 34FE 341F 01805                         DT      B'00001111',B'11111110',B'00011111'     ;BTC=0C
0A9F   340F 34FC 343F 01806                         DT      B'00001111',B'11111100',B'00111111'     ;BTC=0D
0AA2   3400 3400 347F 01807                         DT      B'00000000',B'00000000',B'01111111'     ;BTC=0E
0AA5   3400 3400 34FF 01808                         DT      B'00000000',B'00000000',B'11111111'     ;BTC=0F
0AA8   3400 3401 34FF 01809                         DT      B'00000000',B'00000001',B'11111111'     ;BTC=10
0AAB   340F 34FF 34FF 01810                         DT      B'00001111',B'11111111',B'11111111'     ;BTC=11
0AAE   340F 34FF 34FF 01811                         DT      B'00001111',B'11111111',B'11111111'     ;BTC=12
0AB1   340F 34FF 34FF 01812                         DT      B'00001111',B'11111111',B'11111111'     ;BTC=13
0AB4   340F 34FF 34FF 01813                         DT      B'00001111',B'11111111',B'11111111'     ;BTC=14
0AB7   340F 34FF 34FF 01814                         DT      B'00001111',B'11111111',B'11111111'     ;BTC=15
0ABA   340F 34FF 34FF 01815                         DT      B'00001111',B'11111111',B'11111111'     ;BTC=16
0ABD   340F 34FF 34FF 01816                         DT      B'00001111',B'11111111',B'11111111'     ;BTC=17
0AC0   340F 34FF 34FF 01817                         DT      B'00001111',B'11111111',B'11111111'     ;BTC=18
0AC3   340F 34FF 34FF 01818                         DT      B'00001111',B'11111111',B'11111111'     ;BTC=19
0AC6   340F 34FF 34FF 01819                         DT      B'00001111',B'11111111',B'11111111'     ;BTC=1A
0AC9   340F 34FF 34FF 01820                         DT      B'00001111',B'11111111',B'11111111'     ;BTC=1B
0ACC   340F 34FF 34FF 01821                         DT      B'00001111',B'11111111',B'11111111'     ;BTC=1C
0ACF   340F 34FF 34FF 01822                         DT      B'00001111',B'11111111',B'11111111'     ;BTC=1D
MPASM  5.51         20191009HUB6DISPLAYV3.ASM   10-24-2019  18:15:29         PAGE 39


LOC  OBJECT CODE     LINE SOURCE TEXT
  VALUE

0AD2   340F 34FF 34FF 01823                         DT      B'00001111',B'11111111',B'11111111'     ;BTC=1E
0AD5   34FF 34FF 34FF 01824                         DT      B'11111111',B'11111111',B'11111111'     ;BTC=1F
                      01825 
                      01826 
Warning[205]: Found directive in column 1. (ORG)
0B00                  01827 ORG     0XB00
                      01828 
0B00                  01829 FONT02I
                      01830 
0B00   300B           01831         MOVLW   0X0B
0B01   008A           01832         MOVWF   PCLATH  
0B02   082A           01833         MOVFW   NUMBER
0B03   0782           01834         ADDWF   PCL,F
                      01835         
0B04   0000           01836         NOP     ;A
0B05   0000           01837         NOP     ;B
0B06   0000           01838         NOP     ;C
0B07   0000           01839         NOP     ;D
0B08   0000           01840         NOP     ;E
0B09   0000           01841         NOP     ;F
0B0A   0000           01842         NOP     ;G
0B0B   0000           01843         NOP     ;H
0B0C   0000           01844         NOP     ;I
0B0D   0000           01845         NOP     ;J
0B0E   0000           01846         NOP     ;K
0B0F   0000           01847         NOP     ;L
0B10   0000           01848         NOP     ;M
0B11   0000           01849         NOP     ;N
0B12   0000           01850         NOP     ;O
0B13   0000           01851         NOP     ;P
                      01852         
0B14   2B16           01853         GOTO    FONT02_CAP_Q
0B15   2B78           01854         GOTO    FONT02_CAP_R
                      01855         
                      01856 
0B16                  01857 FONT02_CAP_Q
0B16   0828           01858                         MOVFW   BTCOUNT
0B17   0782           01859                         ADDWF   PCL,F
0B18   34FF 34FF 34FF 01860                         DT      B'11111111',B'11111111',B'11111111'     ;BTC=00
0B1B   34F8 3403 34FF 01861                         DT      B'11111000',B'00000011',B'11111111'     ;BTC=01
0B1E   34F0 3401 34FF 01862                         DT      B'11110000',B'00000001',B'11111111'     ;BTC=02
0B21   34E0 3400 34FF 01863                         DT      B'11100000',B'00000000',B'11111111'     ;BTC=03
0B24   34C1 34F0 347F 01864                         DT      B'11000001',B'11110000',B'01111111'     ;BTC=04
0B27   3483 34F8 343F 01865                         DT      B'10000011',B'11111000',B'00111111'     ;BTC=05
0B2A   3407 34FC 341F 01866                         DT      B'00000111',B'11111100',B'00011111'     ;BTC=06
0B2D   340F 34FE 341F 01867                         DT      B'00001111',B'11111110',B'00011111'     ;BTC=07
0B30   340F 34FE 341F 01868                         DT      B'00001111',B'11111110',B'00011111'     ;BTC=08
0B33   340F 34FE 341F 01869                         DT      B'00001111',B'11111110',B'00011111'     ;BTC=09
0B36   340F 34FE 341F 01870                         DT      B'00001111',B'11111110',B'00011111'     ;BTC=0A
0B39   340F 34FE 341F 01871                         DT      B'00001111',B'11111110',B'00011111'     ;BTC=0B
0B3C   340F 34FE 341F 01872                         DT      B'00001111',B'11111110',B'00011111'     ;BTC=0C
0B3F   340F 34FE 341F 01873                         DT      B'00001111',B'11111110',B'00011111'     ;BTC=0D
0B42   340F 34FE 341F 01874                         DT      B'00001111',B'11111110',B'00011111'     ;BTC=0E
MPASM  5.51         20191009HUB6DISPLAYV3.ASM   10-24-2019  18:15:29         PAGE 40


LOC  OBJECT CODE     LINE SOURCE TEXT
  VALUE

0B45   340F 34FE 341F 01875                         DT      B'00001111',B'11111110',B'00011111'     ;BTC=0F
0B48   340F 34FE 341F 01876                         DT      B'00001111',B'11111110',B'00011111'     ;BTC=10
0B4B   340F 34FE 341F 01877                         DT      B'00001111',B'11111110',B'00011111'     ;BTC=11
0B4E   340F 34FE 341F 01878                         DT      B'00001111',B'11111110',B'00011111'     ;BTC=12
0B51   340F 34FE 341F 01879                         DT      B'00001111',B'11111110',B'00011111'     ;BTC=13
0B54   340F 34FE 341F 01880                         DT      B'00001111',B'11111110',B'00011111'     ;BTC=14
0B57   340F 34FE 341F 01881                         DT      B'00001111',B'11111110',B'00011111'     ;BTC=15
0B5A   340F 34FE 341F 01882                         DT      B'00001111',B'11111110',B'00011111'     ;BTC=16
0B5D   340F 34FE 341F 01883                         DT      B'00001111',B'11111110',B'00011111'     ;BTC=17
0B60   340F 34F2 341F 01884                         DT      B'00001111',B'11110010',B'00011111'     ;BTC=18
0B63   3407 34E0 341F 01885                         DT      B'00000111',B'11100000',B'00011111'     ;BTC=19
0B66   3483 34E0 343F 01886                         DT      B'10000011',B'11100000',B'00111111'     ;BTC=1A
0B69   34C1 34F0 347F 01887                         DT      B'11000001',B'11110000',B'01111111'     ;BTC=1B
0B6C   34E0 3400 343F 01888                         DT      B'11100000',B'00000000',B'00111111'     ;BTC=1C
0B6F   34F0 3400 347F 01889                         DT      B'11110000',B'00000000',B'01111111'     ;BTC=1D
0B72   34F8 3402 34FF 01890                         DT      B'11111000',B'00000010',B'11111111'     ;BTC=1E
0B75   34FF 34FF 34FF 01891                         DT      B'11111111',B'11111111',B'11111111'     ;BTC=1F
                      01892 
                      01893 
                      01894 
0B78                  01895 FONT02_CAP_R
0B78   0828           01896                         MOVFW   BTCOUNT
0B79   0782           01897                         ADDWF   PCL,F
0B7A   34FF 34FF 34FF 01898                         DT      B'11111111',B'11111111',B'11111111'     ;BTC=00
0B7D   3400 3401 34FF 01899                         DT      B'00000000',B'00000001',B'11111111'     ;BTC=01
0B80   3400 3400 34FF 01900                         DT      B'00000000',B'00000000',B'11111111'     ;BTC=02
0B83   3400 3400 347F 01901                         DT      B'00000000',B'00000000',B'01111111'     ;BTC=03
0B86   340F 34FC 343F 01902                         DT      B'00001111',B'11111100',B'00111111'     ;BTC=04
0B89   340F 34FE 341F 01903                         DT      B'00001111',B'11111110',B'00011111'     ;BTC=05
0B8C   340F 34FF 341F 01904                         DT      B'00001111',B'11111111',B'00011111'     ;BTC=06
0B8F   340F 34FF 341F 01905                         DT      B'00001111',B'11111111',B'00011111'     ;BTC=07
0B92   340F 34FF 341F 01906                         DT      B'00001111',B'11111111',B'00011111'     ;BTC=08
0B95   340F 34FF 341F 01907                         DT      B'00001111',B'11111111',B'00011111'     ;BTC=09
0B98   340F 34FF 341F 01908                         DT      B'00001111',B'11111111',B'00011111'     ;BTC=0A
0B9B   340F 34FF 341F 01909                         DT      B'00001111',B'11111111',B'00011111'     ;BTC=0B
0B9E   340F 34FE 341F 01910                         DT      B'00001111',B'11111110',B'00011111'     ;BTC=0C
0BA1   340F 34FC 343F 01911                         DT      B'00001111',B'11111100',B'00111111'     ;BTC=0D
0BA4   3400 3400 347F 01912                         DT      B'00000000',B'00000000',B'01111111'     ;BTC=0E
0BA7   3400 3400 34FF 01913                         DT      B'00000000',B'00000000',B'11111111'     ;BTC=0F
0BAA   3400 3401 34FF 01914                         DT      B'00000000',B'00000001',B'11111111'     ;BTC=10
0BAD   340F 3487 34FF 01915                         DT      B'00001111',B'10000111',B'11111111'     ;BTC=11
0BB0   340F 3487 34FF 01916                         DT      B'00001111',B'10000111',B'11111111'     ;BTC=12
0BB3   340F 34C3 34FF 01917                         DT      B'00001111',B'11000011',B'11111111'     ;BTC=13
0BB6   340F 34C3 34FF 01918                         DT      B'00001111',B'11000011',B'11111111'     ;BTC=14
0BB9   340F 34E1 34FF 01919                         DT      B'00001111',B'11100001',B'11111111'     ;BTC=15
0BBC   340F 34E1 34FF 01920                         DT      B'00001111',B'11100001',B'11111111'     ;BTC=16
0BBF   340F 34F0 34FF 01921                         DT      B'00001111',B'11110000',B'11111111'     ;BTC=17
0BC2   340F 34F0 34FF 01922                         DT      B'00001111',B'11110000',B'11111111'     ;BTC=18
0BC5   340F 34F8 347F 01923                         DT      B'00001111',B'11111000',B'01111111'     ;BTC=19
0BC8   340F 34F8 347F 01924                         DT      B'00001111',B'11111000',B'01111111'     ;BTC=1A
0BCB   340F 34FC 343F 01925                         DT      B'00001111',B'11111100',B'00111111'     ;BTC=1B
0BCE   340F 34FC 343F 01926                         DT      B'00001111',B'11111100',B'00111111'     ;BTC=1C
0BD1   340F 34FE 341F 01927                         DT      B'00001111',B'11111110',B'00011111'     ;BTC=1D
MPASM  5.51         20191009HUB6DISPLAYV3.ASM   10-24-2019  18:15:29         PAGE 41


LOC  OBJECT CODE     LINE SOURCE TEXT
  VALUE

0BD4   340F 34FE 341F 01928                         DT      B'00001111',B'11111110',B'00011111'     ;BTC=1E
0BD7   34FF 34FF 34FF 01929                         DT      B'11111111',B'11111111',B'11111111'     ;BTC=1F
                      01930 
Warning[205]: Found directive in column 1. (ORG)
0C00                  01931 ORG     0XC00
                      01932 
0C00                  01933 FONT02J
                      01934 
0C00   300C           01935         MOVLW   0X0C
0C01   008A           01936         MOVWF   PCLATH  
0C02   082A           01937         MOVFW   NUMBER
0C03   0782           01938         ADDWF   PCL,F
                      01939         
0C04   0000           01940         NOP     ;A
0C05   0000           01941         NOP     ;B
0C06   0000           01942         NOP     ;C
0C07   0000           01943         NOP     ;D
0C08   0000           01944         NOP     ;E
0C09   0000           01945         NOP     ;F
0C0A   0000           01946         NOP     ;G
0C0B   0000           01947         NOP     ;H
0C0C   0000           01948         NOP     ;I
0C0D   0000           01949         NOP     ;J
0C0E   0000           01950         NOP     ;K
0C0F   0000           01951         NOP     ;L
0C10   0000           01952         NOP     ;M
0C11   0000           01953         NOP     ;N
0C12   0000           01954         NOP     ;O
0C13   0000           01955         NOP     ;P
0C14   0000           01956         NOP     ;Q
0C15   0000           01957         NOP     ;R      
                      01958 
0C16   2C18           01959         GOTO    FONT02_CAP_S
0C17   2C7A           01960         GOTO    FONT02_CAP_T
                      01961         
                      01962 
0C18                  01963 FONT02_CAP_S
0C18   0828           01964                         MOVFW   BTCOUNT
0C19   0782           01965                         ADDWF   PCL,F
0C1A   34FF 34FF 34FF 01966                         DT      B'11111111',B'11111111',B'11111111'     ;BTC=00
0C1D   34FF 34FF 34FF 01967                         DT      B'11111111',B'11111111',B'11111111'     ;BTC=01
0C20   34FF 34FF 34FF 01968                         DT      B'11111111',B'11111111',B'11111111'     ;BTC=02
0C23   34FF 34FF 34FF 01969                         DT      B'11111111',B'11111111',B'11111111'     ;BTC=03
0C26   34FF 34FF 34FF 01970                         DT      B'11111111',B'11111111',B'11111111'     ;BTC=04
0C29   34FF 34FF 34FF 01971                         DT      B'11111111',B'11111111',B'11111111'     ;BTC=05
0C2C   34FF 34FF 34FF 01972                         DT      B'11111111',B'11111111',B'11111111'     ;BTC=06
0C2F   34FF 34FF 34FF 01973                         DT      B'11111111',B'11111111',B'11111111'     ;BTC=07
0C32   34FF 34FF 34FF 01974                         DT      B'11111111',B'11111111',B'11111111'     ;BTC=08
0C35   34FF 34FF 34FF 01975                         DT      B'11111111',B'11111111',B'11111111'     ;BTC=09
0C38   34FF 34FF 34FF 01976                         DT      B'11111111',B'11111111',B'11111111'     ;BTC=0A
0C3B   34FF 34FF 34FF 01977                         DT      B'11111111',B'11111111',B'11111111'     ;BTC=0B
0C3E   34FF 34FF 34FF 01978                         DT      B'11111111',B'11111111',B'11111111'     ;BTC=0C
0C41   34FF 34FF 34FF 01979                         DT      B'11111111',B'11111111',B'11111111'     ;BTC=0D
MPASM  5.51         20191009HUB6DISPLAYV3.ASM   10-24-2019  18:15:29         PAGE 42


LOC  OBJECT CODE     LINE SOURCE TEXT
  VALUE

0C44   34FF 34FF 34FF 01980                         DT      B'11111111',B'11111111',B'11111111'     ;BTC=0E
0C47   34FF 34FF 34FF 01981                         DT      B'11111111',B'11111111',B'11111111'     ;BTC=0F
0C4A   34FF 34FF 34FF 01982                         DT      B'11111111',B'11111111',B'11111111'     ;BTC=10
0C4D   34FF 34FF 34FF 01983                         DT      B'11111111',B'11111111',B'11111111'     ;BTC=11
0C50   34FF 34FF 34FF 01984                         DT      B'11111111',B'11111111',B'11111111'     ;BTC=12
0C53   34FF 34FF 34FF 01985                         DT      B'11111111',B'11111111',B'11111111'     ;BTC=13
0C56   34FF 34FF 34FF 01986                         DT      B'11111111',B'11111111',B'11111111'     ;BTC=14
0C59   34FF 34FF 34FF 01987                         DT      B'11111111',B'11111111',B'11111111'     ;BTC=15
0C5C   34FF 34FF 34FF 01988                         DT      B'11111111',B'11111111',B'11111111'     ;BTC=16
0C5F   34FF 34FF 34FF 01989                         DT      B'11111111',B'11111111',B'11111111'     ;BTC=17
0C62   34FF 34FF 34FF 01990                         DT      B'11111111',B'11111111',B'11111111'     ;BTC=18
0C65   34FF 34FF 34FF 01991                         DT      B'11111111',B'11111111',B'11111111'     ;BTC=19
0C68   34FF 34FF 34FF 01992                         DT      B'11111111',B'11111111',B'11111111'     ;BTC=1A
0C6B   34FF 34FF 34FF 01993                         DT      B'11111111',B'11111111',B'11111111'     ;BTC=1B
0C6E   34FF 34FF 34FF 01994                         DT      B'11111111',B'11111111',B'11111111'     ;BTC=1C
0C71   34FF 34FF 34FF 01995                         DT      B'11111111',B'11111111',B'11111111'     ;BTC=1D
0C74   34FF 34FF 34FF 01996                         DT      B'11111111',B'11111111',B'11111111'     ;BTC=1E
0C77   34FF 34FF 34FF 01997                         DT      B'11111111',B'11111111',B'11111111'     ;BTC=1F
                      01998 
                      01999 
                      02000 
                      02001 
                      02002 
0C7A                  02003 FONT02_CAP_T
0C7A   0828           02004                         MOVFW   BTCOUNT
0C7B   0782           02005                         ADDWF   PCL,F
0C7C   34FF 34FF 34FF 02006                         DT      B'11111111',B'11111111',B'11111111'     ;BTC=00
0C7F   3400 3400 343F 02007                         DT      B'00000000',B'00000000',B'00111111'     ;BTC=01
0C82   3400 3400 343F 02008                         DT      B'00000000',B'00000000',B'00111111'     ;BTC=02
0C85   3400 3400 343F 02009                         DT      B'00000000',B'00000000',B'00111111'     ;BTC=03
0C88   34FE 341F 34FF 02010                         DT      B'11111110',B'00011111',B'11111111'     ;BTC=04
0C8B   34FE 341F 34FF 02011                         DT      B'11111110',B'00011111',B'11111111'     ;BTC=05
0C8E   34FE 341F 34FF 02012                         DT      B'11111110',B'00011111',B'11111111'     ;BTC=06
0C91   34FE 341F 34FF 02013                         DT      B'11111110',B'00011111',B'11111111'     ;BTC=07
0C94   34FE 341F 34FF 02014                         DT      B'11111110',B'00011111',B'11111111'     ;BTC=08
0C97   34FE 341F 34FF 02015                         DT      B'11111110',B'00011111',B'11111111'     ;BTC=09
0C9A   34FE 341F 34FF 02016                         DT      B'11111110',B'00011111',B'11111111'     ;BTC=0A
0C9D   34FE 341F 34FF 02017                         DT      B'11111110',B'00011111',B'11111111'     ;BTC=0B
0CA0   34FE 341F 34FF 02018                         DT      B'11111110',B'00011111',B'11111111'     ;BTC=0C
0CA3   34FE 341F 34FF 02019                         DT      B'11111110',B'00011111',B'11111111'     ;BTC=0D
0CA6   34FE 341F 34FF 02020                         DT      B'11111110',B'00011111',B'11111111'     ;BTC=0E
0CA9   34FE 341F 34FF 02021                         DT      B'11111110',B'00011111',B'11111111'     ;BTC=0F
0CAC   34FE 341F 34FF 02022                         DT      B'11111110',B'00011111',B'11111111'     ;BTC=10
0CAF   34FE 341F 34FF 02023                         DT      B'11111110',B'00011111',B'11111111'     ;BTC=11
0CB2   34FE 341F 34FF 02024                         DT      B'11111110',B'00011111',B'11111111'     ;BTC=12
0CB5   34FE 341F 34FF 02025                         DT      B'11111110',B'00011111',B'11111111'     ;BTC=13
0CB8   34FE 341F 34FF 02026                         DT      B'11111110',B'00011111',B'11111111'     ;BTC=14
0CBB   34FE 341F 34FF 02027                         DT      B'11111110',B'00011111',B'11111111'     ;BTC=15
0CBE   34FE 341F 34FF 02028                         DT      B'11111110',B'00011111',B'11111111'     ;BTC=16
0CC1   34FE 341F 34FF 02029                         DT      B'11111110',B'00011111',B'11111111'     ;BTC=17
0CC4   34FE 341F 34FF 02030                         DT      B'11111110',B'00011111',B'11111111'     ;BTC=18
0CC7   34FE 341F 34FF 02031                         DT      B'11111110',B'00011111',B'11111111'     ;BTC=19
0CCA   34FE 341F 34FF 02032                         DT      B'11111110',B'00011111',B'11111111'     ;BTC=1A
MPASM  5.51         20191009HUB6DISPLAYV3.ASM   10-24-2019  18:15:29         PAGE 43


LOC  OBJECT CODE     LINE SOURCE TEXT
  VALUE

0CCD   34FE 341F 34FF 02033                         DT      B'11111110',B'00011111',B'11111111'     ;BTC=1B
0CD0   34FE 341F 34FF 02034                         DT      B'11111110',B'00011111',B'11111111'     ;BTC=1C
0CD3   34FE 341F 34FF 02035                         DT      B'11111110',B'00011111',B'11111111'     ;BTC=1D
0CD6   34FE 341F 34FF 02036                         DT      B'11111110',B'00011111',B'11111111'     ;BTC=1E
0CD9   34FF 34FF 34FF 02037                         DT      B'11111111',B'11111111',B'11111111'     ;BTC=1F
                      02038 
Warning[205]: Found directive in column 1. (ORG)
0D00                  02039 ORG     0XD00
                      02040 
0D00                  02041 FONT02K
                      02042 
0D00   300D           02043         MOVLW   0X0D
0D01   008A           02044         MOVWF   PCLATH  
0D02   082A           02045         MOVFW   NUMBER
0D03   0782           02046         ADDWF   PCL,F
                      02047         
0D04   0000           02048         NOP     ;A
0D05   0000           02049         NOP     ;B
0D06   0000           02050         NOP     ;C
0D07   0000           02051         NOP     ;D
0D08   0000           02052         NOP     ;E
0D09   0000           02053         NOP     ;F
0D0A   0000           02054         NOP     ;G
0D0B   0000           02055         NOP     ;H
0D0C   0000           02056         NOP     ;I
0D0D   0000           02057         NOP     ;J
0D0E   0000           02058         NOP     ;K
0D0F   0000           02059         NOP     ;L
0D10   0000           02060         NOP     ;M
0D11   0000           02061         NOP     ;N
0D12   0000           02062         NOP     ;O
0D13   0000           02063         NOP     ;P
0D14   0000           02064         NOP     ;Q
0D15   0000           02065         NOP     ;R
0D16   0000           02066         NOP     ;S
0D17   0000           02067         NOP     ;T      
                      02068 
0D18   2D1A           02069         GOTO    FONT02_CAP_U
0D19   2D7C           02070         GOTO    FONT02_CAP_V
                      02071         
                      02072 
0D1A                  02073 FONT02_CAP_U
0D1A   0828           02074                         MOVFW   BTCOUNT
0D1B   0782           02075                         ADDWF   PCL,F
0D1C   34FF 34FF 34FF 02076                         DT      B'11111111',B'11111111',B'11111111'     ;BTC=00
0D1F   340F 34FE 341F 02077                         DT      B'00001111',B'11111110',B'00011111'     ;BTC=01
0D22   340F 34FE 341F 02078                         DT      B'00001111',B'11111110',B'00011111'     ;BTC=02
0D25   340F 34FE 341F 02079                         DT      B'00001111',B'11111110',B'00011111'     ;BTC=03
0D28   340F 34FE 341F 02080                         DT      B'00001111',B'11111110',B'00011111'     ;BTC=04
0D2B   340F 34FE 341F 02081                         DT      B'00001111',B'11111110',B'00011111'     ;BTC=05
0D2E   340F 34FE 341F 02082                         DT      B'00001111',B'11111110',B'00011111'     ;BTC=06
0D31   340F 34FE 341F 02083                         DT      B'00001111',B'11111110',B'00011111'     ;BTC=07
0D34   340F 34FE 341F 02084                         DT      B'00001111',B'11111110',B'00011111'     ;BTC=08
MPASM  5.51         20191009HUB6DISPLAYV3.ASM   10-24-2019  18:15:29         PAGE 44


LOC  OBJECT CODE     LINE SOURCE TEXT
  VALUE

0D37   340F 34FE 341F 02085                         DT      B'00001111',B'11111110',B'00011111'     ;BTC=09
0D3A   340F 34FE 341F 02086                         DT      B'00001111',B'11111110',B'00011111'     ;BTC=0A
0D3D   340F 34FE 341F 02087                         DT      B'00001111',B'11111110',B'00011111'     ;BTC=0B
0D40   340F 34FE 341F 02088                         DT      B'00001111',B'11111110',B'00011111'     ;BTC=0C
0D43   340F 34FE 341F 02089                         DT      B'00001111',B'11111110',B'00011111'     ;BTC=0D
0D46   340F 34FE 341F 02090                         DT      B'00001111',B'11111110',B'00011111'     ;BTC=0E
0D49   340F 34FE 341F 02091                         DT      B'00001111',B'11111110',B'00011111'     ;BTC=0F
0D4C   340F 34FE 341F 02092                         DT      B'00001111',B'11111110',B'00011111'     ;BTC=10
0D4F   340F 34FE 341F 02093                         DT      B'00001111',B'11111110',B'00011111'     ;BTC=11
0D52   340F 34FE 341F 02094                         DT      B'00001111',B'11111110',B'00011111'     ;BTC=12
0D55   340F 34FE 341F 02095                         DT      B'00001111',B'11111110',B'00011111'     ;BTC=13
0D58   340F 34FE 341F 02096                         DT      B'00001111',B'11111110',B'00011111'     ;BTC=14
0D5B   340F 34FE 341F 02097                         DT      B'00001111',B'11111110',B'00011111'     ;BTC=15
0D5E   340F 34FE 341F 02098                         DT      B'00001111',B'11111110',B'00011111'     ;BTC=16
0D61   340F 34FE 341F 02099                         DT      B'00001111',B'11111110',B'00011111'     ;BTC=17
0D64   340F 34FE 341F 02100                         DT      B'00001111',B'11111110',B'00011111'     ;BTC=18
0D67   340F 34FE 341F 02101                         DT      B'00001111',B'11111110',B'00011111'     ;BTC=19
0D6A   3407 34FC 341F 02102                         DT      B'00000111',B'11111100',B'00011111'     ;BTC=1A
0D6D   3403 34F8 341F 02103                         DT      B'00000011',B'11111000',B'00011111'     ;BTC=1B
0D70   3480 3400 343F 02104                         DT      B'10000000',B'00000000',B'00111111'     ;BTC=1C
0D73   34C0 3400 347F 02105                         DT      B'11000000',B'00000000',B'01111111'     ;BTC=1D
0D76   34E0 3400 34FF 02106                         DT      B'11100000',B'00000000',B'11111111'     ;BTC=1E
0D79   34FF 34FF 34FF 02107                         DT      B'11111111',B'11111111',B'11111111'     ;BTC=1F
                      02108 
                      02109 
                      02110 
                      02111 
                      02112 
0D7C                  02113 FONT02_CAP_V
0D7C   0828           02114                         MOVFW   BTCOUNT
0D7D   0782           02115                         ADDWF   PCL,F
0D7E   34FF 34FF 34FF 02116                         DT      B'11111111',B'11111111',B'11111111'     ;BTC=00
0D81   340F 34FE 341F 02117                         DT      B'00001111',B'11111110',B'00011111'     ;BTC=01
0D84   340F 34FE 341F 02118                         DT      B'00001111',B'11111110',B'00011111'     ;BTC=02
0D87   340F 34FE 341F 02119                         DT      B'00001111',B'11111110',B'00011111'     ;BTC=03
0D8A   340F 34FE 341F 02120                         DT      B'00001111',B'11111110',B'00011111'     ;BTC=04
0D8D   340F 34FE 341F 02121                         DT      B'00001111',B'11111110',B'00011111'     ;BTC=05
0D90   340F 34FE 341F 02122                         DT      B'00001111',B'11111110',B'00011111'     ;BTC=06
0D93   340F 34FE 341F 02123                         DT      B'00001111',B'11111110',B'00011111'     ;BTC=07
0D96   340F 34FE 341F 02124                         DT      B'00001111',B'11111110',B'00011111'     ;BTC=08
0D99   340F 34FE 341F 02125                         DT      B'00001111',B'11111110',B'00011111'     ;BTC=09
0D9C   340F 34FE 341F 02126                         DT      B'00001111',B'11111110',B'00011111'     ;BTC=0A
0D9F   340F 34FE 341F 02127                         DT      B'00001111',B'11111110',B'00011111'     ;BTC=0B
0DA2   340F 34FE 341F 02128                         DT      B'00001111',B'11111110',B'00011111'     ;BTC=0C
0DA5   340F 34FE 341F 02129                         DT      B'00001111',B'11111110',B'00011111'     ;BTC=0D
0DA8   340F 34FE 341F 02130                         DT      B'00001111',B'11111110',B'00011111'     ;BTC=0E
0DAB   340F 34FE 341F 02131                         DT      B'00001111',B'11111110',B'00011111'     ;BTC=0F
0DAE   340F 34FE 341F 02132                         DT      B'00001111',B'11111110',B'00011111'     ;BTC=10
0DB1   340F 34FE 341F 02133                         DT      B'00001111',B'11111110',B'00011111'     ;BTC=11
0DB4   340F 34FE 341F 02134                         DT      B'00001111',B'11111110',B'00011111'     ;BTC=12
0DB7   340F 34FE 341F 02135                         DT      B'00001111',B'11111110',B'00011111'     ;BTC=13
0DBA   340F 34FE 341F 02136                         DT      B'00001111',B'11111110',B'00011111'     ;BTC=14
0DBD   340F 34FE 341F 02137                         DT      B'00001111',B'11111110',B'00011111'     ;BTC=15
MPASM  5.51         20191009HUB6DISPLAYV3.ASM   10-24-2019  18:15:29         PAGE 45


LOC  OBJECT CODE     LINE SOURCE TEXT
  VALUE

0DC0   340F 34FE 341F 02138                         DT      B'00001111',B'11111110',B'00011111'     ;BTC=16
0DC3   340F 34FC 343F 02139                         DT      B'00001111',B'11111100',B'00111111'     ;BTC=17
0DC6   3487 34F8 347F 02140                         DT      B'10000111',B'11111000',B'01111111'     ;BTC=18
0DC9   34C3 34F0 34FF 02141                         DT      B'11000011',B'11110000',B'11111111'     ;BTC=19
0DCC   34E1 34E1 34FF 02142                         DT      B'11100001',B'11100001',B'11111111'     ;BTC=1A
0DCF   34F0 34C3 34FF 02143                         DT      B'11110000',B'11000011',B'11111111'     ;BTC=1B
0DD2   34F8 3407 34FF 02144                         DT      B'11111000',B'00000111',B'11111111'     ;BTC=1C
0DD5   34FC 340F 34FF 02145                         DT      B'11111100',B'00001111',B'11111111'     ;BTC=1D
0DD8   34FE 341F 34FF 02146                         DT      B'11111110',B'00011111',B'11111111'     ;BTC=1E
0DDB   34FF 34FF 34FF 02147                         DT      B'11111111',B'11111111',B'11111111'     ;BTC=1F
                      02148 
                      02149 
                      02150 
Warning[205]: Found directive in column 1. (ORG)
0E00                  02151 ORG     0XE00
                      02152 
0E00                  02153 FONT02L
                      02154 
0E00   300E           02155         MOVLW   0X0E
0E01   008A           02156         MOVWF   PCLATH  
0E02   082A           02157         MOVFW   NUMBER
0E03   0782           02158         ADDWF   PCL,F
                      02159         
0E04   0000           02160         NOP     ;A
0E05   0000           02161         NOP     ;B
0E06   0000           02162         NOP     ;C
0E07   0000           02163         NOP     ;D
0E08   0000           02164         NOP     ;E
0E09   0000           02165         NOP     ;F
0E0A   0000           02166         NOP     ;G
0E0B   0000           02167         NOP     ;H
0E0C   0000           02168         NOP     ;I
0E0D   0000           02169         NOP     ;J
0E0E   0000           02170         NOP     ;K
0E0F   0000           02171         NOP     ;L
0E10   0000           02172         NOP     ;M
0E11   0000           02173         NOP     ;N
0E12   0000           02174         NOP     ;O
0E13   0000           02175         NOP     ;P
0E14   0000           02176         NOP     ;Q
0E15   0000           02177         NOP     ;R
0E16   0000           02178         NOP     ;S
0E17   0000           02179         NOP     ;T
0E18   0000           02180         NOP     ;U
0E19   0000           02181         NOP     ;V      
                      02182 
0E1A   2E1C           02183         GOTO    FONT02_CAP_W
0E1B   2E7E           02184         GOTO    FONT02_CAP_X
                      02185         
                      02186 
0E1C                  02187 FONT02_CAP_W
0E1C   0828           02188                         MOVFW   BTCOUNT
0E1D   0782           02189                         ADDWF   PCL,F
MPASM  5.51         20191009HUB6DISPLAYV3.ASM   10-24-2019  18:15:29         PAGE 46


LOC  OBJECT CODE     LINE SOURCE TEXT
  VALUE

0E1E   34FF 34FF 34FF 02190                         DT      B'11111111',B'11111111',B'11111111'     ;BTC=00
0E21   340F 34FE 341F 02191                         DT      B'00001111',B'11111110',B'00011111'     ;BTC=01
0E24   340F 34FE 341F 02192                         DT      B'00001111',B'11111110',B'00011111'     ;BTC=02
0E27   340F 34FE 341F 02193                         DT      B'00001111',B'11111110',B'00011111'     ;BTC=03
0E2A   340F 34FE 341F 02194                         DT      B'00001111',B'11111110',B'00011111'     ;BTC=04
0E2D   340F 34FE 341F 02195                         DT      B'00001111',B'11111110',B'00011111'     ;BTC=05
0E30   340F 34FE 341F 02196                         DT      B'00001111',B'11111110',B'00011111'     ;BTC=06
0E33   340F 34FE 341F 02197                         DT      B'00001111',B'11111110',B'00011111'     ;BTC=07
0E36   340F 34FE 341F 02198                         DT      B'00001111',B'11111110',B'00011111'     ;BTC=08
0E39   340F 34FE 341F 02199                         DT      B'00001111',B'11111110',B'00011111'     ;BTC=09
0E3C   340F 34FE 341F 02200                         DT      B'00001111',B'11111110',B'00011111'     ;BTC=0A
0E3F   340F 34FE 341F 02201                         DT      B'00001111',B'11111110',B'00011111'     ;BTC=0B
0E42   340F 34FE 341F 02202                         DT      B'00001111',B'11111110',B'00011111'     ;BTC=0C
0E45   340F 34FE 341F 02203                         DT      B'00001111',B'11111110',B'00011111'     ;BTC=0D
0E48   340F 34FE 341F 02204                         DT      B'00001111',B'11111110',B'00011111'     ;BTC=0E
0E4B   340F 34FE 341F 02205                         DT      B'00001111',B'11111110',B'00011111'     ;BTC=0F
0E4E   340F 341E 341F 02206                         DT      B'00001111',B'00011110',B'00011111'     ;BTC=10
0E51   340F 341E 341F 02207                         DT      B'00001111',B'00011110',B'00011111'     ;BTC=11
0E54   340F 341E 341F 02208                         DT      B'00001111',B'00011110',B'00011111'     ;BTC=12
0E57   340F 341E 341F 02209                         DT      B'00001111',B'00011110',B'00011111'     ;BTC=13
0E5A   340F 341E 341F 02210                         DT      B'00001111',B'00011110',B'00011111'     ;BTC=14
0E5D   340F 341E 341F 02211                         DT      B'00001111',B'00011110',B'00011111'     ;BTC=15
0E60   340F 341E 341F 02212                         DT      B'00001111',B'00011110',B'00011111'     ;BTC=16
0E63   340F 341E 341F 02213                         DT      B'00001111',B'00011110',B'00011111'     ;BTC=17
0E66   340F 341E 341F 02214                         DT      B'00001111',B'00011110',B'00011111'     ;BTC=18
0E69   340F 341E 341F 02215                         DT      B'00001111',B'00011110',B'00011111'     ;BTC=19
0E6C   340F 341E 341F 02216                         DT      B'00001111',B'00011110',B'00011111'     ;BTC=1A
0E6F   340E 340E 341F 02217                         DT      B'00001110',B'00001110',B'00011111'     ;BTC=1B
0E72   3484 3444 343F 02218                         DT      B'10000100',B'01000100',B'00111111'     ;BTC=1C
0E75   34C0 34E0 347F 02219                         DT      B'11000000',B'11100000',B'01111111'     ;BTC=1D
0E78   34E1 34F0 34FF 02220                         DT      B'11100001',B'11110000',B'11111111'     ;BTC=1E
0E7B   34FF 34FF 34FF 02221                         DT      B'11111111',B'11111111',B'11111111'     ;BTC=1F
                      02222 
                      02223 
                      02224 
                      02225 
                      02226 
0E7E                  02227 FONT02_CAP_X
0E7E   0828           02228                         MOVFW   BTCOUNT
Message[305]: Using default destination of 1 (file).
0E7F   0782           02229                         ADDWF   PCL
0E80   34FF 34FF 34FF 02230                         DT      B'11111111',B'11111111',B'11111111'     ;BTC=00
0E83   340F 34FE 341F 02231                         DT      B'00001111',B'11111110',B'00011111'     ;BTC=01
0E86   340F 34FE 341F 02232                         DT      B'00001111',B'11111110',B'00011111'     ;BTC=02
0E89   340F 34FE 341F 02233                         DT      B'00001111',B'11111110',B'00011111'     ;BTC=03
0E8C   340F 34FE 341F 02234                         DT      B'00001111',B'11111110',B'00011111'     ;BTC=04
0E8F   340F 34FE 341F 02235                         DT      B'00001111',B'11111110',B'00011111'     ;BTC=05
0E92   340F 34FE 341F 02236                         DT      B'00001111',B'11111110',B'00011111'     ;BTC=06
0E95   340F 34FE 341F 02237                         DT      B'00001111',B'11111110',B'00011111'     ;BTC=07
0E98   340F 34FC 343F 02238                         DT      B'00001111',B'11111100',B'00111111'     ;BTC=08
0E9B   3487 34F8 347F 02239                         DT      B'10000111',B'11111000',B'01111111'     ;BTC=09
0E9E   34C3 34F0 34FF 02240                         DT      B'11000011',B'11110000',B'11111111'     ;BTC=0A
0EA1   34E1 34E1 34FF 02241                         DT      B'11100001',B'11100001',B'11111111'     ;BTC=0B
MPASM  5.51         20191009HUB6DISPLAYV3.ASM   10-24-2019  18:15:29         PAGE 47


LOC  OBJECT CODE     LINE SOURCE TEXT
  VALUE

0EA4   34F0 34C3 34FF 02242                         DT      B'11110000',B'11000011',B'11111111'     ;BTC=0C
0EA7   34F8 3407 34FF 02243                         DT      B'11111000',B'00000111',B'11111111'     ;BTC=0D
0EAA   34FC 340F 34FF 02244                         DT      B'11111100',B'00001111',B'11111111'     ;BTC=0E
0EAD   34FE 341F 34FF 02245                         DT      B'11111110',B'00011111',B'11111111'     ;BTC=0F
0EB0   34FE 341F 34FF 02246                         DT      B'11111110',B'00011111',B'11111111'     ;BTC=10
0EB3   34FC 340F 34FF 02247                         DT      B'11111100',B'00001111',B'11111111'     ;BTC=11
0EB6   34F8 3407 34FF 02248                         DT      B'11111000',B'00000111',B'11111111'     ;BTC=12
0EB9   34F0 34C3 34FF 02249                         DT      B'11110000',B'11000011',B'11111111'     ;BTC=13
0EBC   34E1 34E1 34FF 02250                         DT      B'11100001',B'11100001',B'11111111'     ;BTC=14
0EBF   34C3 34F0 34FF 02251                         DT      B'11000011',B'11110000',B'11111111'     ;BTC=15
0EC2   3487 34F8 347F 02252                         DT      B'10000111',B'11111000',B'01111111'     ;BTC=16
0EC5   340F 34FC 343F 02253                         DT      B'00001111',B'11111100',B'00111111'     ;BTC=17
0EC8   340F 34FE 341F 02254                         DT      B'00001111',B'11111110',B'00011111'     ;BTC=18
0ECB   340F 34FE 341F 02255                         DT      B'00001111',B'11111110',B'00011111'     ;BTC=19
0ECE   340F 34FE 341F 02256                         DT      B'00001111',B'11111110',B'00011111'     ;BTC=1A
0ED1   340F 34FE 341F 02257                         DT      B'00001111',B'11111110',B'00011111'     ;BTC=1B
0ED4   340F 34FE 341F 02258                         DT      B'00001111',B'11111110',B'00011111'     ;BTC=1C
0ED7   340F 34FE 341F 02259                         DT      B'00001111',B'11111110',B'00011111'     ;BTC=1D
0EDA   340F 34FE 341F 02260                         DT      B'00001111',B'11111110',B'00011111'     ;BTC=1E
0EDD   34FF 34FF 34FF 02261                         DT      B'11111111',B'11111111',B'11111111'     ;BTC=1F
                      02262 
                      02263 
                      02264 
Warning[205]: Found directive in column 1. (ORG)
0F00                  02265 ORG     0XF00
                      02266 
0F00                  02267 FONT02M
                      02268 
0F00   300F           02269         MOVLW   0X0F
0F01   008A           02270         MOVWF   PCLATH  
0F02   082A           02271         MOVFW   NUMBER
0F03   0782           02272         ADDWF   PCL,F
                      02273         
0F04   0000           02274         NOP     ;A
0F05   0000           02275         NOP     ;B
0F06   0000           02276         NOP     ;C
0F07   0000           02277         NOP     ;D
0F08   0000           02278         NOP     ;E
0F09   0000           02279         NOP     ;F
0F0A   0000           02280         NOP     ;G
0F0B   0000           02281         NOP     ;H
0F0C   0000           02282         NOP     ;I
0F0D   0000           02283         NOP     ;J
0F0E   0000           02284         NOP     ;K
0F0F   0000           02285         NOP     ;L
0F10   0000           02286         NOP     ;M
0F11   0000           02287         NOP     ;N
0F12   0000           02288         NOP     ;O
0F13   0000           02289         NOP     ;P
0F14   0000           02290         NOP     ;Q
0F15   0000           02291         NOP     ;R
0F16   0000           02292         NOP     ;S
0F17   0000           02293         NOP     ;T
MPASM  5.51         20191009HUB6DISPLAYV3.ASM   10-24-2019  18:15:29         PAGE 48


LOC  OBJECT CODE     LINE SOURCE TEXT
  VALUE

0F18   0000           02294         NOP     ;U
0F19   0000           02295         NOP     ;V
0F1A   0000           02296         NOP     ;W
0F1B   0000           02297         NOP     ;X      
                      02298 
0F1C   2F1E           02299         GOTO    FONT02_CAP_Y
0F1D   2F80           02300         GOTO    FONT02_CAP_Z
                      02301         
                      02302 
0F1E                  02303 FONT02_CAP_Y
0F1E   0828           02304                         MOVFW   BTCOUNT
0F1F   0782           02305                         ADDWF   PCL,F
0F20   34FF 34FF 34FF 02306                         DT      B'11111111',B'11111111',B'11111111'     ;BTC=00
0F23   340F 34FE 341F 02307                         DT      B'00001111',B'11111110',B'00011111'     ;BTC=01
0F26   340F 34FE 341F 02308                         DT      B'00001111',B'11111110',B'00011111'     ;BTC=02
0F29   340F 34FE 341F 02309                         DT      B'00001111',B'11111110',B'00011111'     ;BTC=03
0F2C   340F 34FE 341F 02310                         DT      B'00001111',B'11111110',B'00011111'     ;BTC=04
0F2F   340F 34FE 341F 02311                         DT      B'00001111',B'11111110',B'00011111'     ;BTC=05
0F32   340F 34FE 341F 02312                         DT      B'00001111',B'11111110',B'00011111'     ;BTC=06
0F35   340F 34FE 341F 02313                         DT      B'00001111',B'11111110',B'00011111'     ;BTC=07
0F38   340F 34FC 343F 02314                         DT      B'00001111',B'11111100',B'00111111'     ;BTC=08
0F3B   3487 34F8 347F 02315                         DT      B'10000111',B'11111000',B'01111111'     ;BTC=09
0F3E   34C3 34F0 34FF 02316                         DT      B'11000011',B'11110000',B'11111111'     ;BTC=0A
0F41   34E1 34E1 34FF 02317                         DT      B'11100001',B'11100001',B'11111111'     ;BTC=0B
0F44   34F0 34C3 34FF 02318                         DT      B'11110000',B'11000011',B'11111111'     ;BTC=0C
0F47   34F8 3407 34FF 02319                         DT      B'11111000',B'00000111',B'11111111'     ;BTC=0D
0F4A   34FC 340F 34FF 02320                         DT      B'11111100',B'00001111',B'11111111'     ;BTC=0E
0F4D   34FE 341F 34FF 02321                         DT      B'11111110',B'00011111',B'11111111'     ;BTC=0F
0F50   34FE 341F 34FF 02322                         DT      B'11111110',B'00011111',B'11111111'     ;BTC=10
0F53   34FE 341F 34FF 02323                         DT      B'11111110',B'00011111',B'11111111'     ;BTC=11
0F56   34FE 341F 34FF 02324                         DT      B'11111110',B'00011111',B'11111111'     ;BTC=12
0F59   34FE 341F 34FF 02325                         DT      B'11111110',B'00011111',B'11111111'     ;BTC=13
0F5C   34FE 341F 34FF 02326                         DT      B'11111110',B'00011111',B'11111111'     ;BTC=14
0F5F   34FE 341F 34FF 02327                         DT      B'11111110',B'00011111',B'11111111'     ;BTC=15
0F62   34FE 341F 34FF 02328                         DT      B'11111110',B'00011111',B'11111111'     ;BTC=16
0F65   34FE 341F 34FF 02329                         DT      B'11111110',B'00011111',B'11111111'     ;BTC=17
0F68   34FE 341F 34FF 02330                         DT      B'11111110',B'00011111',B'11111111'     ;BTC=18
0F6B   34FE 341F 34FF 02331                         DT      B'11111110',B'00011111',B'11111111'     ;BTC=19
0F6E   34FE 341F 34FF 02332                         DT      B'11111110',B'00011111',B'11111111'     ;BTC=1A
0F71   34FE 341F 34FF 02333                         DT      B'11111110',B'00011111',B'11111111'     ;BTC=1B
0F74   34FE 341F 34FF 02334                         DT      B'11111110',B'00011111',B'11111111'     ;BTC=1C
0F77   34FE 341F 34FF 02335                         DT      B'11111110',B'00011111',B'11111111'     ;BTC=1D
0F7A   34FE 341F 34FF 02336                         DT      B'11111110',B'00011111',B'11111111'     ;BTC=1E
0F7D   34FF 34FF 34FF 02337                         DT      B'11111111',B'11111111',B'11111111'     ;BTC=1F
                      02338 
                      02339 
                      02340 
                      02341 
0F80                  02342 FONT02_CAP_Z
0F80   0828           02343                         MOVFW   BTCOUNT
Message[305]: Using default destination of 1 (file).
0F81   0782           02344                         ADDWF   PCL
0F82   34FF 34FF 34FF 02345                         DT      B'11111111',B'11111111',B'11111111'     ;BTC=00
MPASM  5.51         20191009HUB6DISPLAYV3.ASM   10-24-2019  18:15:29         PAGE 49


LOC  OBJECT CODE     LINE SOURCE TEXT
  VALUE

0F85   34FF 34FF 34FF 02346                         DT      B'11111111',B'11111111',B'11111111'     ;BTC=01
0F88   34FF 34FF 34FF 02347                         DT      B'11111111',B'11111111',B'11111111'     ;BTC=02
0F8B   34FF 34FF 34FF 02348                         DT      B'11111111',B'11111111',B'11111111'     ;BTC=03
0F8E   34FF 34FF 34FF 02349                         DT      B'11111111',B'11111111',B'11111111'     ;BTC=04
0F91   34FF 34FF 34FF 02350                         DT      B'11111111',B'11111111',B'11111111'     ;BTC=05
0F94   34FF 34FF 34FF 02351                         DT      B'11111111',B'11111111',B'11111111'     ;BTC=06
0F97   34FF 34FF 34FF 02352                         DT      B'11111111',B'11111111',B'11111111'     ;BTC=07
0F9A   34FF 34FF 34FF 02353                         DT      B'11111111',B'11111111',B'11111111'     ;BTC=08
0F9D   34FF 34FF 34FF 02354                         DT      B'11111111',B'11111111',B'11111111'     ;BTC=09
0FA0   34FF 34FF 34FF 02355                         DT      B'11111111',B'11111111',B'11111111'     ;BTC=0A
0FA3   34FF 34FF 34FF 02356                         DT      B'11111111',B'11111111',B'11111111'     ;BTC=0B
0FA6   34FF 34FF 34FF 02357                         DT      B'11111111',B'11111111',B'11111111'     ;BTC=0C
0FA9   34FF 34FF 34FF 02358                         DT      B'11111111',B'11111111',B'11111111'     ;BTC=0D
0FAC   34FF 34FF 34FF 02359                         DT      B'11111111',B'11111111',B'11111111'     ;BTC=0E
0FAF   34FF 34FF 34FF 02360                         DT      B'11111111',B'11111111',B'11111111'     ;BTC=0F
0FB2   34FF 34FF 34FF 02361                         DT      B'11111111',B'11111111',B'11111111'     ;BTC=10
0FB5   34FF 34FF 34FF 02362                         DT      B'11111111',B'11111111',B'11111111'     ;BTC=11
0FB8   34FF 34FF 34FF 02363                         DT      B'11111111',B'11111111',B'11111111'     ;BTC=12
0FBB   34FF 34FF 34FF 02364                         DT      B'11111111',B'11111111',B'11111111'     ;BTC=13
0FBE   34FF 34FF 34FF 02365                         DT      B'11111111',B'11111111',B'11111111'     ;BTC=14
0FC1   34FF 34FF 34FF 02366                         DT      B'11111111',B'11111111',B'11111111'     ;BTC=15
0FC4   34FF 34FF 34FF 02367                         DT      B'11111111',B'11111111',B'11111111'     ;BTC=16
0FC7   34FF 34FF 34FF 02368                         DT      B'11111111',B'11111111',B'11111111'     ;BTC=17
0FCA   34FF 34FF 34FF 02369                         DT      B'11111111',B'11111111',B'11111111'     ;BTC=18
0FCD   34FF 34FF 34FF 02370                         DT      B'11111111',B'11111111',B'11111111'     ;BTC=19
0FD0   34FF 34FF 34FF 02371                         DT      B'11111111',B'11111111',B'11111111'     ;BTC=1A
0FD3   34FF 34FF 34FF 02372                         DT      B'11111111',B'11111111',B'11111111'     ;BTC=1B
0FD6   34FF 34FF 34FF 02373                         DT      B'11111111',B'11111111',B'11111111'     ;BTC=1C
0FD9   34FF 34FF 34FF 02374                         DT      B'11111111',B'11111111',B'11111111'     ;BTC=1D
0FDC   34FF 34FF 34FF 02375                         DT      B'11111111',B'11111111',B'11111111'     ;BTC=1E
0FDF   34FF 34FF 34FF 02376                         DT      B'11111111',B'11111111',B'11111111'     ;BTC=1F
                      02377 
2100                  02378         ORG     0X2100                          ; DATA EEPROM LOCATION
2100   0001 0002 0003 02379         DE      1,2,3,4                         ; DEFINE FIRST FOUR EEPROM LOCATIONS AS 1, 2, 3, AND 4
       0004 
                      02380 
                      02381 
                      02382 
                      02383 
                      02384         END                       ; DIRECTIVE 'END OF PROGRAM'
MPASM  5.51         20191009HUB6DISPLAYV3.ASM   10-24-2019  18:15:29         PAGE 50


SYMBOL TABLE
  LABEL                             VALUE 

ABDEN                             00000000
ABDOVF                            00000007
ADCON0                            0000001F
ADCON1                            0000009F
ADCS0                             00000004
ADCS1                             00000005
ADCS2                             00000006
ADDEN                             00000003
ADFM                              00000007
ADIE                              00000006
ADIF                              00000006
ADON                              00000000
ADRESH                            0000001E
ADRESL                            0000009E
ANS0                              00000000
ANS1                              00000001
ANS10                             00000002
ANS11                             00000003
ANS2                              00000002
ANS3                              00000003
ANS4                              00000004
ANS5                              00000005
ANS6                              00000006
ANS7                              00000007
ANS8                              00000000
ANS9                              00000001
ANSEL                             0000011E
ANSELH                            0000011F
A_OFF                             BCF     PORTC, 0
A_ON                              BSF     PORTC, 0
BANK0                             BANKSEL PORTA
BANK1                             BANKSEL ADRESL
BANK2                             BANKSEL ANSELH
BAUDCTL                           0000009B
BF                                00000000
BRG0                              00000000
BRG1                              00000001
BRG10                             00000002
BRG11                             00000003
BRG12                             00000004
BRG13                             00000005
BRG14                             00000006
BRG15                             00000007
BRG16                             00000003
BRG2                              00000002
BRG3                              00000003
BRG4                              00000004
BRG5                              00000005
BRG6                              00000006
BRG7                              00000007
BRG8                              00000000
BRG9                              00000001
BRGH                              00000002
MPASM  5.51         20191009HUB6DISPLAYV3.ASM   10-24-2019  18:15:29         PAGE 51


SYMBOL TABLE
  LABEL                             VALUE 

BTCOUNT                           00000028
B_OFF                             BCF PORTC, 1
B_ON                              BSF     PORTC, 1
C                                 00000000
C1CH0                             00000000
C1CH1                             00000001
C1IE                              00000005
C1IF                              00000005
C1OE                              00000005
C1ON                              00000007
C1OUT                             00000006
C1POL                             00000004
C1R                               00000002
C1SEN                             00000005
C1VREN                            00000007
C2CH0                             00000000
C2CH1                             00000001
C2IE                              00000006
C2IF                              00000006
C2OE                              00000005
C2ON                              00000007
C2OUT                             00000006
C2POL                             00000004
C2R                               00000002
C2REN                             00000004
C2SYNC                            00000000
C2VREN                            00000006
CCOUNT                            00000046
CCP1CON                           00000017
CCP1IE                            00000002
CCP1IF                            00000002
CCP1M0                            00000000
CCP1M1                            00000001
CCP1M2                            00000002
CCP1M3                            00000003
CCPR                              00000015
CCPR1H                            00000016
CCPR1L                            00000015
CHS0                              00000002
CHS1                              00000003
CHS2                              00000004
CHS3                              00000005
CKE                               00000006
CKP                               00000004
CLK_OFF                           BCF     PORTB, 6
CLK_ON                            BSF PORTB, 6
CLR0                              0000009D
CLR_RAM                           00000097
CM1CON0                           00000119
CM2CON0                           0000011A
CM2CON1                           0000011B
COLOR                             00000029
COLORA                            00000043
MPASM  5.51         20191009HUB6DISPLAYV3.ASM   10-24-2019  18:15:29         PAGE 52


SYMBOL TABLE
  LABEL                             VALUE 

COLORB                            00000044
COLORC                            00000045
COMMAND                           00000062
COUNT0                            00000024
COUNT1                            00000025
COUNT2                            00000026
CREN                              00000004
CSRC                              00000007
CURSORX                           0000002E
CURSORX_TEST                      0000016B
CURSORY                           0000002F
CURSORY_TEMP                      00000030
CXT08                             00000177
CXT08S                            00000185
CXT16                             00000188
CXT16S                            00000196
CXT24                             00000199
CXT24S                            000001A7
CXT32                             000001AA
CXT32S                            000001B8
CXT40                             000001BB
CXT40S                            000001C9
CXT48                             000001CC
CXT48S                            000001DA
CXT56                             000001DD
CXT56S                            000001EB
CXT64                             000001EE
CXT64S                            000001FC
C_OFF                             BCF     PORTC, 2
C_ON                              BSF     PORTC, 2
D                                 00000005
DATAINRAM                         00000110
DATAREG                           000000A3
DATAREGSUB                        000000AA
DATA_ADDRESS                      00000005
DC                                00000001
DC1B0                             00000004
DC1B1                             00000005
DDISP                             0000004D
DELAYMS                           00000021
DELAYUS                           00000020
DIR0                              00000117
DIR1                              00000121
DIR2_YELLOW                       00000141
DISP                              0000004B
DISP0                             00000055
DISPLAY                           00000051
DMP0                              0000010C
DMP_FONT02                        000000E4
DMP_FONT02CONT                    000000E9
DR0                               000000AC
DR1                               000000B9
DR2                               000000C0
MPASM  5.51         20191009HUB6DISPLAYV3.ASM   10-24-2019  18:15:29         PAGE 53


SYMBOL TABLE
  LABEL                             VALUE 

DR3                               000000C7
DR4                               000000CE
DR5                               000000D5
DRAM                              000000A0
DUMP                              000000DE
D_A                               00000005
D_NOT_A                           00000005
D_OFF                             BCF     PORTC, 3
D_ON                              BSF     PORTC, 3
EB                                000000E0
ECCPAS                            0000001D
ECCPAS0                           00000004
ECCPAS1                           00000005
ECCPAS2                           00000006
ECCPASE                           00000007
EEADR                             0000010D
EEADRH                            0000010F
EECON1                            0000018C
EECON2                            0000018D
EEDAT                             0000010C
EEDATA                            0000010C
EEDATH                            0000010E
EEIE                              00000004
EEIF                              00000004
EEPGD                             00000007
F                                 00000001
FERR                              00000002
FONT                              0000002C
FONT02                            00000300
FONT02B                           00000400
FONT02C                           00000500
FONT02D                           00000600
FONT02E                           00000700
FONT02F                           00000800
FONT02G                           00000900
FONT02H                           00000A00
FONT02I                           00000B00
FONT02J                           00000C00
FONT02K                           00000D00
FONT02L                           00000E00
FONT02M                           00000F00
FONT02_CAP_A                      00000332
FONT02_CAP_B                      00000394
FONT02_CAP_C                      00000408
FONT02_CAP_D                      0000046A
FONT02_CAP_E                      0000050A
FONT02_CAP_F                      0000056C
FONT02_CAP_G                      0000060C
FONT02_CAP_H                      0000066E
FONT02_CAP_I                      0000070E
FONT02_CAP_J                      00000770
FONT02_CAP_K                      00000810
FONT02_CAP_L                      00000872
MPASM  5.51         20191009HUB6DISPLAYV3.ASM   10-24-2019  18:15:29         PAGE 54


SYMBOL TABLE
  LABEL                             VALUE 

FONT02_CAP_M                      00000912
FONT02_CAP_N                      00000974
FONT02_CAP_O                      00000A14
FONT02_CAP_P                      00000A76
FONT02_CAP_Q                      00000B16
FONT02_CAP_R                      00000B78
FONT02_CAP_S                      00000C18
FONT02_CAP_T                      00000C7A
FONT02_CAP_U                      00000D1A
FONT02_CAP_V                      00000D7C
FONT02_CAP_W                      00000E1C
FONT02_CAP_X                      00000E7E
FONT02_CAP_Y                      00000F1E
FONT02_CAP_Z                      00000F80
FSR                               00000004
G0HI                              000000CD
G0LO                              000000CB
G0_0                              BCF     PORTC, 6
G0_1                              BSF     PORTC, 6
G1HI                              000000D4
G1LO                              000000D2
G1_0                              BCF     PORTC, 7
G1_1                              BSF     PORTC, 7
G2_0                              00000027
GIE                               00000007
GO                                00000001
GO_DONE                           00000001
GO_NOT_DONE                       00000001
GRNHALF0                          00000033
GRNHALF1                          00000034
HTS                               00000002
HUB                               00000042
I2CLOOP                           00000041
I2CREG                            00000040
I2C_DATA                          00000005
I2C_READ                          00000002
I2C_START                         00000003
I2C_STOP                          00000004
INDF                              00000000
INIT                              00000010
INTCON                            0000000B
INTE                              00000004
INTEDG                            00000006
INTF                              00000001
IOC                               00000096
IOC0                              00000000
IOC1                              00000001
IOC2                              00000002
IOC3                              00000003
IOC4                              00000004
IOC5                              00000005
IOCA                              00000096
IOCA0                             00000000
MPASM  5.51         20191009HUB6DISPLAYV3.ASM   10-24-2019  18:15:29         PAGE 55


SYMBOL TABLE
  LABEL                             VALUE 

IOCA1                             00000001
IOCA2                             00000002
IOCA3                             00000003
IOCA4                             00000004
IOCA5                             00000005
IOCB                              00000116
IOCB4                             00000004
IOCB5                             00000005
IOCB6                             00000006
IOCB7                             00000007
IRCF0                             00000004
IRCF1                             00000005
IRCF2                             00000006
IRP                               00000007
LAT_OFF                           BCF     PORTB, 4
LAT_ON                            BSF     PORTB, 4
LOOP                              00000023
LTS                               00000001
MAIN                              00000030
MC1OUT                            00000007
MC2OUT                            00000006
MILSEC                            00000022
MSK                               00000093
MSK0                              00000000
MSK1                              00000001
MSK2                              00000002
MSK3                              00000003
MSK4                              00000004
MSK5                              00000005
MSK6                              00000006
MSK7                              00000007
NOT_A                             00000005
NOT_ADDRESS                       00000005
NOT_BOR                           00000000
NOT_DONE                          00000001
NOT_PD                            00000003
NOT_POR                           00000001
NOT_RABPU                         00000007
NOT_T1SYNC                        00000002
NOT_TO                            00000004
NOT_W                             00000002
NOT_WRITE                         00000002
NUMBER                            0000002A
OERR                              00000001
OE_OFF                            BSF     PORTA, 2
OE_ON                             BCF     PORTA, 2
OPTION_REG                        00000081
OSCCON                            0000008F
OSCTUNE                           00000090
OSFIE                             00000007
OSFIF                             00000007
OSTS                              00000003
P                                 00000004
MPASM  5.51         20191009HUB6DISPLAYV3.ASM   10-24-2019  18:15:29         PAGE 56


SYMBOL TABLE
  LABEL                             VALUE 

P1M0                              00000006
P1M1                              00000007
PCL                               00000002
PCLATH                            0000000A
PCLATH_TEMP                       0000007F
PCON                              0000008E
PDC0                              00000000
PDC1                              00000001
PDC2                              00000002
PDC3                              00000003
PDC4                              00000004
PDC5                              00000005
PDC6                              00000006
PEIE                              00000006
PERIOD                            0000003F
PIE1                              0000008C
PIE2                              0000008D
PIR1                              0000000C
PIR2                              0000000D
POINTER                           00000027
PORTA                             00000005
PORTB                             00000006
PORTC                             00000007
PR2                               00000092
PRSEN                             00000007
PS0                               00000000
PS1                               00000001
PS2                               00000002
PSA                               00000003
PSSAC0                            00000002
PSSAC1                            00000003
PSSBD0                            00000000
PSSBD1                            00000001
PSTRCON                           0000019D
PULSR                             00000002
PULSS                             00000003
PWM1CON                           0000001C
R                                 00000002
R0HI                              000000BF
R0LO                              000000BD
R0_0                              BCF     PORTC, 4
R0_1                              BSF     PORTC, 4
R1HI                              000000C6
R1LO                              000000C4
R1_0                              BCF     PORTC, 5
R1_1                              BSF     PORTC, 5
R2_0                              00000026
RA0                               00000000
RA1                               00000001
RA2                               00000002
RA3                               00000003
RA4                               00000004
RA5                               00000005
MPASM  5.51         20191009HUB6DISPLAYV3.ASM   10-24-2019  18:15:29         PAGE 57


SYMBOL TABLE
  LABEL                             VALUE 

RABIE                             00000003
RABIF                             00000000
RB4                               00000004
RB5                               00000005
RB6                               00000006
RB7                               00000007
RC0                               00000000
RC1                               00000001
RC2                               00000002
RC3                               00000003
RC4                               00000004
RC5                               00000005
RC6                               00000006
RC7                               00000007
RCIDL                             00000006
RCIE                              00000005
RCIF                              00000005
RCREG                             0000001A
RCSTA                             00000018
RD                                00000000
READ_WRITE                        00000002
REDHALF0                          00000031
REDHALF1                          00000032
ROW                               0000002B
RP0                               00000005
RP1                               00000006
RX9                               00000006
RX9D                              00000000
R_NOT_W                           00000002
R_W                               00000002
S                                 00000003
SAMPLE                            00000047
SBOREN                            00000004
SCKP                              00000004
SCL_0                             BCF     PORTB,5
SCL_1                             BSF     PORTB,5
SCS                               00000000
SDA_0                             BCF     PORTB,7
SDA_1                             BSF     PORTB,7
SENB                              00000003
SENDB                             00000003
SMP                               00000007
SPBRG                             00000099
SPBRGH                            0000009A
SPEN                              00000007
SR0                               00000006
SR1                               00000007
SRCON                             0000019E
SREN                              00000005
SSPADD                            00000093
SSPBUF                            00000013
SSPCON                            00000014
SSPEN                             00000005
MPASM  5.51         20191009HUB6DISPLAYV3.ASM   10-24-2019  18:15:29         PAGE 58


SYMBOL TABLE
  LABEL                             VALUE 

SSPIE                             00000003
SSPIF                             00000003
SSPM0                             00000000
SSPM1                             00000001
SSPM2                             00000002
SSPM3                             00000003
SSPMSK                            00000093
SSPOV                             00000006
SSPSTAT                           00000094
STATUS                            00000003
STATUS_TEMP                       0000007E
STPT                              0000002D
STRA                              00000000
STRB                              00000001
STRC                              00000002
STRD                              00000003
STRSYNC                           00000004
SWDTEN                            00000000
SYNC                              00000004
T0CS                              00000005
T0IE                              00000005
T0IF                              00000002
T0SE                              00000004
T1CKPS0                           00000004
T1CKPS1                           00000005
T1CON                             00000010
T1GINV                            00000007
T1GSS                             00000001
T1IE                              00000000
T1IF                              00000000
T1OSCEN                           00000003
T2CKPS0                           00000000
T2CKPS1                           00000001
T2CON                             00000012
T2IE                              00000001
T2IF                              00000001
TEMPRAM                           00000035
TESTLOOP                          0000003E
TESTNUM                           0000003D
TMR0                              00000001
TMR1                              0000000E
TMR1CS                            00000001
TMR1GE                            00000006
TMR1H                             0000000F
TMR1IE                            00000000
TMR1IF                            00000000
TMR1L                             0000000E
TMR1ON                            00000000
TMR2                              00000011
TMR2IE                            00000001
TMR2IF                            00000001
TMR2ON                            00000002
TOUTPS0                           00000003
MPASM  5.51         20191009HUB6DISPLAYV3.ASM   10-24-2019  18:15:29         PAGE 59


SYMBOL TABLE
  LABEL                             VALUE 

TOUTPS1                           00000004
TOUTPS2                           00000005
TOUTPS3                           00000006
TRISA                             00000085
TRISA0                            00000000
TRISA1                            00000001
TRISA2                            00000002
TRISA3                            00000003
TRISA4                            00000004
TRISA5                            00000005
TRISB                             00000086
TRISB4                            00000004
TRISB5                            00000005
TRISB6                            00000006
TRISB7                            00000007
TRISC                             00000087
TRISC0                            00000000
TRISC1                            00000001
TRISC2                            00000002
TRISC3                            00000003
TRISC4                            00000004
TRISC5                            00000005
TRISC6                            00000006
TRISC7                            00000007
TRMT                              00000001
TUN0                              00000000
TUN1                              00000001
TUN2                              00000002
TUN3                              00000003
TUN4                              00000004
TX9                               00000006
TX9D                              00000000
TXEN                              00000005
TXIE                              00000004
TXIF                              00000004
TXREG                             00000019
TXSTA                             00000098
UA                                00000001
ULPWUE                            00000005
VCFG                              00000006
VP6EN                             00000004
VR0                               00000000
VR1                               00000001
VR2                               00000002
VR3                               00000003
VRCON                             00000118
VRR                               00000005
W                                 00000000
WCOL                              00000007
WDTCON                            00000097
WDTPS0                            00000001
WDTPS1                            00000002
WDTPS2                            00000003
MPASM  5.51         20191009HUB6DISPLAYV3.ASM   10-24-2019  18:15:29         PAGE 60


SYMBOL TABLE
  LABEL                             VALUE 

WDTPS3                            00000004
WPU                               00000095
WPU0                              00000000
WPU1                              00000001
WPU2                              00000002
WPU4                              00000004
WPU5                              00000005
WPUA                              00000095
WPUA0                             00000000
WPUA1                             00000001
WPUA2                             00000002
WPUA4                             00000004
WPUA5                             00000005
WPUB                              00000115
WPUB4                             00000004
WPUB5                             00000005
WPUB6                             00000006
WPUB7                             00000007
WP_OFF                            BCF     PORTA,1
WP_ON                             BSF     PORTA,1
WR                                00000001
WREN                              00000002
WRERR                             00000003
WUE                               00000001
W_TEMP                            0000007D
Z                                 00000002
_BOD_NSLEEP                       00003EFF
_BOD_OFF                          00003CFF
_BOD_ON                           00003FFF
_BOD_SBODEN                       00003DFF
_BOREN_NSLEEP                     00003EFF
_BOREN_OFF                        00003CFF
_BOREN_ON                         00003FFF
_BOREN_SBODEN                     00003DFF
_BOR_NSLEEP                       00003EFF
_BOR_OFF                          00003CFF
_BOR_ON                           00003FFF
_BOR_SBODEN                       00003DFF
_CONFIG                           00002007
_CPD_OFF                          00003FFF
_CPD_ON                           00003F7F
_CP_OFF                           00003FFF
_CP_ON                            00003FBF
_DEVID1                           00002006
_EC_OSC                           00003FFB
_EXTRC                            00003FFF
_EXTRCIO                          00003FFE
_EXTRC_OSC_CLKOUT                 00003FFF
_EXTRC_OSC_NOCLKOUT               00003FFE
_FCMEN_OFF                        000037FF
_FCMEN_ON                         00003FFF
_FOSC_EC                          00003FFB
_FOSC_EXTRCCLK                    00003FFF
MPASM  5.51         20191009HUB6DISPLAYV3.ASM   10-24-2019  18:15:29         PAGE 61


SYMBOL TABLE
  LABEL                             VALUE 

_FOSC_EXTRCIO                     00003FFE
_FOSC_HS                          00003FFA
_FOSC_INTRCCLK                    00003FFD
_FOSC_INTRCIO                     00003FFC
_FOSC_LP                          00003FF8
_FOSC_XT                          00003FF9
_HS_OSC                           00003FFA
_IDLOC0                           00002000
_IDLOC1                           00002001
_IDLOC2                           00002002
_IDLOC3                           00002003
_IESO_OFF                         00003BFF
_IESO_ON                          00003FFF
_INTOSC                           00003FFD
_INTOSCIO                         00003FFC
_INTRC_OSC_CLKOUT                 00003FFD
_INTRC_OSC_NOCLKOUT               00003FFC
_LP_OSC                           00003FF8
_MCLRE_OFF                        00003FDF
_MCLRE_ON                         00003FFF
_PWRTE_OFF                        00003FFF
_PWRTE_ON                         00003FEF
_WDTE_OFF                         00003FF7
_WDTE_ON                          00003FFF
_WDT_OFF                          00003FF7
_WDT_ON                           00003FFF
_XT_OSC                           00003FF9
__16F690                          00000001
__DEBUG                           1


MEMORY USAGE MAP ('X' = Used,  '-' = Unused)

0000 : X---XXXXXXXXXXXX XXXXXXXXXXXXXXXX XXXXXXXXXXXXXXXX XXXXXXXXXXXXXXXX
0040 : XXXXXXXXXXXXXXXX XXXXXXXXXXXXXXXX XXXXXXXXXXXXXXXX XXXXXXXXXXXXXXXX
0080 : XXXXXXXXXXXXXXXX XXXXXXXXXXXXXXXX XXXXXXXXXXXXXXXX XXXXXXXXXXXXXXXX
00C0 : XXXXXXXXXXXXXXXX XXXXXXXXXXXXXXXX XXXXXXXXXXXXXXXX XXXXXXXXXXXXXXXX
0100 : XXXXXXXXXXXXXXXX XXXXXXXXXXXXXXXX XXXXXXXXXXXXXXXX XXXXXXXXXXXXXXXX
0140 : XXXXXXXXXXXXXXXX XXXXXXXXXXXXXXXX XXXXXXXXXXXXXXXX XXXXXXXXXXXXXXXX
0180 : XXXXXXXXXXXXXXXX XXXXXXXXXXXXXXXX XXXXXXXXXXXXXXXX XXXXXXXXXXXXXXXX
01C0 : XXXXXXXXXXXXXXXX XXXXXXXXXXXXXXXX XXXXXXXXXXXXXXXX XXXXXXXXXXXXXXX-
0300 : XXXXXXXXXXXXXXXX XXXXXXXXXXXXXXXX XXXXXXXXXXXXXXXX XXXXXXXXXXXXXXXX
0340 : XXXXXXXXXXXXXXXX XXXXXXXXXXXXXXXX XXXXXXXXXXXXXXXX XXXXXXXXXXXXXXXX
0380 : XXXXXXXXXXXXXXXX XXXXXXXXXXXXXXXX XXXXXXXXXXXXXXXX XXXXXXXXXXXXXXXX
03C0 : XXXXXXXXXXXXXXXX XXXXXXXXXXXXXXXX XXXXXXXXXXXXXXXX XXXXXX----------
0400 : XXXXXXXXXXXXXXXX XXXXXXXXXXXXXXXX XXXXXXXXXXXXXXXX XXXXXXXXXXXXXXXX
MPASM  5.51         20191009HUB6DISPLAYV3.ASM   10-24-2019  18:15:29         PAGE 62


MEMORY USAGE MAP ('X' = Used,  '-' = Unused)


0440 : XXXXXXXXXXXXXXXX XXXXXXXXXXXXXXXX XXXXXXXXXXXXXXXX XXXXXXXXXXXXXXXX
0480 : XXXXXXXXXXXXXXXX XXXXXXXXXXXXXXXX XXXXXXXXXXXXXXXX XXXXXXXXXXXXXXXX
04C0 : XXXXXXXXXXXX---- ---------------- ---------------- ----------------
0500 : XXXXXXXXXXXXXXXX XXXXXXXXXXXXXXXX XXXXXXXXXXXXXXXX XXXXXXXXXXXXXXXX
0540 : XXXXXXXXXXXXXXXX XXXXXXXXXXXXXXXX XXXXXXXXXXXXXXXX XXXXXXXXXXXXXXXX
0580 : XXXXXXXXXXXXXXXX XXXXXXXXXXXXXXXX XXXXXXXXXXXXXXXX XXXXXXXXXXXXXXXX
05C0 : XXXXXXXXXXXXXX-- ---------------- ---------------- ----------------
0600 : XXXXXXXXXXXXXXXX XXXXXXXXXXXXXXXX XXXXXXXXXXXXXXXX XXXXXXXXXXXXXXXX
0640 : XXXXXXXXXXXXXXXX XXXXXXXXXXXXXXXX XXXXXXXXXXXXXXXX XXXXXXXXXXXXXXXX
0680 : XXXXXXXXXXXXXXXX XXXXXXXXXXXXXXXX XXXXXXXXXXXXXXXX XXXXXXXXXXXXXXXX
06C0 : XXXXXXXXXXXXXXXX ---------------- ---------------- ----------------
0700 : XXXXXXXXXXXXXXXX XXXXXXXXXXXXXXXX XXXXXXXXXXXXXXXX XXXXXXXXXXXXXXXX
0740 : XXXXXXXXXXXXXXXX XXXXXXXXXXXXXXXX XXXXXXXXXXXXXXXX XXXXXXXXXXXXXXXX
0780 : XXXXXXXXXXXXXXXX XXXXXXXXXXXXXXXX XXXXXXXXXXXXXXXX XXXXXXXXXXXXXXXX
07C0 : XXXXXXXXXXXXXXXX XX-------------- ---------------- ----------------
0800 : XXXXXXXXXXXXXXXX XXXXXXXXXXXXXXXX XXXXXXXXXXXXXXXX XXXXXXXXXXXXXXXX
0840 : XXXXXXXXXXXXXXXX XXXXXXXXXXXXXXXX XXXXXXXXXXXXXXXX XXXXXXXXXXXXXXXX
0880 : XXXXXXXXXXXXXXXX XXXXXXXXXXXXXXXX XXXXXXXXXXXXXXXX XXXXXXXXXXXXXXXX
08C0 : XXXXXXXXXXXXXXXX XXXX------------ ---------------- ----------------
0900 : XXXXXXXXXXXXXXXX XXXXXXXXXXXXXXXX XXXXXXXXXXXXXXXX XXXXXXXXXXXXXXXX
0940 : XXXXXXXXXXXXXXXX XXXXXXXXXXXXXXXX XXXXXXXXXXXXXXXX XXXXXXXXXXXXXXXX
0980 : XXXXXXXXXXXXXXXX XXXXXXXXXXXXXXXX XXXXXXXXXXXXXXXX XXXXXXXXXXXXXXXX
09C0 : XXXXXXXXXXXXXXXX XXXXXX---------- ---------------- ----------------
0A00 : XXXXXXXXXXXXXXXX XXXXXXXXXXXXXXXX XXXXXXXXXXXXXXXX XXXXXXXXXXXXXXXX
0A40 : XXXXXXXXXXXXXXXX XXXXXXXXXXXXXXXX XXXXXXXXXXXXXXXX XXXXXXXXXXXXXXXX
0A80 : XXXXXXXXXXXXXXXX XXXXXXXXXXXXXXXX XXXXXXXXXXXXXXXX XXXXXXXXXXXXXXXX
0AC0 : XXXXXXXXXXXXXXXX XXXXXXXX-------- ---------------- ----------------
0B00 : XXXXXXXXXXXXXXXX XXXXXXXXXXXXXXXX XXXXXXXXXXXXXXXX XXXXXXXXXXXXXXXX
0B40 : XXXXXXXXXXXXXXXX XXXXXXXXXXXXXXXX XXXXXXXXXXXXXXXX XXXXXXXXXXXXXXXX
0B80 : XXXXXXXXXXXXXXXX XXXXXXXXXXXXXXXX XXXXXXXXXXXXXXXX XXXXXXXXXXXXXXXX
0BC0 : XXXXXXXXXXXXXXXX XXXXXXXXXX------ ---------------- ----------------
0C00 : XXXXXXXXXXXXXXXX XXXXXXXXXXXXXXXX XXXXXXXXXXXXXXXX XXXXXXXXXXXXXXXX
0C40 : XXXXXXXXXXXXXXXX XXXXXXXXXXXXXXXX XXXXXXXXXXXXXXXX XXXXXXXXXXXXXXXX
0C80 : XXXXXXXXXXXXXXXX XXXXXXXXXXXXXXXX XXXXXXXXXXXXXXXX XXXXXXXXXXXXXXXX
0CC0 : XXXXXXXXXXXXXXXX XXXXXXXXXXXX---- ---------------- ----------------
0D00 : XXXXXXXXXXXXXXXX XXXXXXXXXXXXXXXX XXXXXXXXXXXXXXXX XXXXXXXXXXXXXXXX
0D40 : XXXXXXXXXXXXXXXX XXXXXXXXXXXXXXXX XXXXXXXXXXXXXXXX XXXXXXXXXXXXXXXX
0D80 : XXXXXXXXXXXXXXXX XXXXXXXXXXXXXXXX XXXXXXXXXXXXXXXX XXXXXXXXXXXXXXXX
0DC0 : XXXXXXXXXXXXXXXX XXXXXXXXXXXXXX-- ---------------- ----------------
0E00 : XXXXXXXXXXXXXXXX XXXXXXXXXXXXXXXX XXXXXXXXXXXXXXXX XXXXXXXXXXXXXXXX
0E40 : XXXXXXXXXXXXXXXX XXXXXXXXXXXXXXXX XXXXXXXXXXXXXXXX XXXXXXXXXXXXXXXX
0E80 : XXXXXXXXXXXXXXXX XXXXXXXXXXXXXXXX XXXXXXXXXXXXXXXX XXXXXXXXXXXXXXXX
0EC0 : XXXXXXXXXXXXXXXX XXXXXXXXXXXXXXXX ---------------- ----------------
0F00 : XXXXXXXXXXXXXXXX XXXXXXXXXXXXXXXX XXXXXXXXXXXXXXXX XXXXXXXXXXXXXXXX
0F40 : XXXXXXXXXXXXXXXX XXXXXXXXXXXXXXXX XXXXXXXXXXXXXXXX XXXXXXXXXXXXXXXX
0F80 : XXXXXXXXXXXXXXXX XXXXXXXXXXXXXXXX XXXXXXXXXXXXXXXX XXXXXXXXXXXXXXXX
MPASM  5.51         20191009HUB6DISPLAYV3.ASM   10-24-2019  18:15:29         PAGE 63


MEMORY USAGE MAP ('X' = Used,  '-' = Unused)


0FC0 : XXXXXXXXXXXXXXXX XXXXXXXXXXXXXXXX XX-------------- ----------------
2000 : -------X-------- ---------------- ---------------- ----------------
2100 : XXXX------------ ---------------- ---------------- ----------------

All other memory blocks unused.

Program Memory Words Used:  3334
Program Memory Words Free:   762


Errors   :     0
Warnings :    94 reported,     0 suppressed
Messages :    95 reported,     0 suppressed

