;/////////////////////////////////////////////////////////////////////////////////
;// Code Generator: BoostC Compiler - http://www.sourceboost.com
;// Version       : 7.03
;// License Type  : Pro License
;// Limitations   : PIC12,PIC16 max code size:Unlimited, max RAM banks:Unlimited
;/////////////////////////////////////////////////////////////////////////////////

	ORG 0x00000000
0000  158A  	BSF PCLATH,3
0001  28D4  	GOTO	_startup
	ORG 0x00000004
0004  00FF  	MOVWF Int1Context
0005  0E03  	SWAPF STATUS, W
0006  1283  	BCF STATUS, RP0
0007  1303  	BCF STATUS, RP1
0008  00B4  	MOVWF Int1BContext
0009  0E0A  	SWAPF PCLATH, W
000A  00B5  	MOVWF Int1BContext+D'1'
000B  0E04  	SWAPF FSR, W
000C  00B6  	MOVWF Int1BContext+D'2'
000D  158A  	BSF PCLATH,3
000E  120A  	BCF PCLATH,4
000F  2918  	GOTO	interrupt
	ORG 0x00000010
0010        delay_us_00000
0010        ; { delay_us ; function begin
0010        label1
0010  0000  	NOP
0011  0000  	NOP
0012  0BCF  	DECFSZ delay_us_00000_arg_del, F
0013  2810  	GOTO	label1
0014  0008  	RETURN
0015        ; } delay_us function end

	ORG 0x00000015
0015        delay_ms_00000
0015        ; { delay_ms ; function begin
0015  08CF  	MOVF delay_ms_00000_arg_del, F
0016  1D03  	BTFSS STATUS,Z
0017  2819  	GOTO	label2
0018  0008  	RETURN
0019        label2
0019  30F9  	MOVLW 0xF9
001A        label3
001A  0000  	NOP
001B  0000  	NOP
001C  0000  	NOP
001D  0000  	NOP
001E  0000  	NOP
001F  0000  	NOP
0020  0000  	NOP
0021  0000  	NOP
0022  0000  	NOP
0023  0000  	NOP
0024  0000  	NOP
0025  0000  	NOP
0026  0000  	NOP
0027  0000  	NOP
0028  0000  	NOP
0029  0000  	NOP
002A  3EFF  	ADDLW 0xFF
002B  1D03  	BTFSS STATUS,Z
002C  281A  	GOTO	label3
002D  0000  	NOP
002E  0000  	NOP
002F  0000  	NOP
0030  0000  	NOP
0031  0000  	NOP
0032  0000  	NOP
0033  0000  	NOP
0034  0000  	NOP
0035  0000  	NOP
0036  0000  	NOP
0037  0000  	NOP
0038  0000  	NOP
0039  0000  	NOP
003A  0000  	NOP
003B  0000  	NOP
003C  0000  	NOP
003D  0000  	NOP
003E  0BCF  	DECFSZ delay_ms_00000_arg_del, F
003F  2819  	GOTO	label2
0040  0008  	RETURN
0041        ; } delay_ms function end

	ORG 0x00000041
0041        delay_10us_00000
0041        ; { delay_10us ; function begin
0041  08DE  	MOVF delay_10us_00000_arg_del, F
0042  1D03  	BTFSS STATUS,Z
0043  2845  	GOTO	label4
0044  0008  	RETURN
0045        label4
0045  3009  	MOVLW 0x09
0046        label5
0046  0000  	NOP
0047  3EFF  	ADDLW 0xFF
0048  1D03  	BTFSS STATUS,Z
0049  2846  	GOTO	label5
004A  0000  	NOP
004B  0000  	NOP
004C  0BDE  	DECFSZ delay_10us_00000_arg_del, F
004D  2845  	GOTO	label4
004E  0008  	RETURN
004F        ; } delay_10us function end

	ORG 0x0000004F
004F        FC_CAL_UAR_00064
004F        ; { FC_CAL_UART_Send_1 ; function begin
004F        label6
004F  1E0C  	BTFSS gbl_pir1,4
0050  284F  	GOTO	label6
0051  085B  	MOVF FC_CAL_UAR_00064_arg_nChar, W
0052  0099  	MOVWF gbl_txreg
0053  0008  	RETURN
0054        ; } FC_CAL_UART_Send_1 function end

	ORG 0x00000054
0054        FC_CAL_PWM_0006F
0054        ; { FC_CAL_PWM_Set_Duty_8Bit_1 ; function begin
0054  0850  	MOVF FC_CAL_PWM_0006F_arg_duty, W
0055  0095  	MOVWF gbl_ccpr1l
0056  0008  	RETURN
0057        ; } FC_CAL_PWM_Set_Duty_8Bit_1 function end

	ORG 0x00000057
0057        __div_16_1_00003
0057        ; { __div_16_16 ; function begin
0057  01D2  	CLRF __div_16_1_00003_1_r
0058  01D3  	CLRF __div_16_1_00003_1_r+D'1'
0059  01D5  	CLRF CompTempVarRet214
005A  01D6  	CLRF CompTempVarRet214+D'1'
005B  01D4  	CLRF __div_16_1_00003_1_i
005C        label7
005C  1A54  	BTFSC __div_16_1_00003_1_i,4
005D  0008  	RETURN
005E  1003  	BCF STATUS,C
005F  0DD5  	RLF CompTempVarRet214, F
0060  0DD6  	RLF CompTempVarRet214+D'1', F
0061  0DCC  	RLF __div_16_1_00003_arg_a, F
0062  0DCD  	RLF __div_16_1_00003_arg_a+D'1', F
0063  0DD2  	RLF __div_16_1_00003_1_r, F
0064  0DD3  	RLF __div_16_1_00003_1_r+D'1', F
0065  084F  	MOVF __div_16_1_00003_arg_b+D'1', W
0066  0253  	SUBWF __div_16_1_00003_1_r+D'1', W
0067  1D03  	BTFSS STATUS,Z
0068  286B  	GOTO	label8
0069  084E  	MOVF __div_16_1_00003_arg_b, W
006A  0252  	SUBWF __div_16_1_00003_1_r, W
006B        label8
006B  1C03  	BTFSS STATUS,C
006C  2874  	GOTO	label9
006D  084E  	MOVF __div_16_1_00003_arg_b, W
006E  02D2  	SUBWF __div_16_1_00003_1_r, F
006F  084F  	MOVF __div_16_1_00003_arg_b+D'1', W
0070  1C03  	BTFSS STATUS,C
0071  03D3  	DECF __div_16_1_00003_1_r+D'1', F
0072  02D3  	SUBWF __div_16_1_00003_1_r+D'1', F
0073  1455  	BSF CompTempVarRet214,0
0074        label9
0074  0AD4  	INCF __div_16_1_00003_1_i, F
0075  285C  	GOTO	label7
0076        ; } __div_16_16 function end

	ORG 0x00000076
0076        Wdt_Delay__0003E
0076        ; { Wdt_Delay_Ms ; function begin
0076  01CA  	CLRF Wdt_Delay__0003E_1_i
0077        label10
0077  0849  	MOVF Wdt_Delay__0003E_arg_delay, W
0078  024A  	SUBWF Wdt_Delay__0003E_1_i, W
0079  1803  	BTFSC STATUS,C
007A  0008  	RETURN
007B  0064  	CLRWDT
007C  3001  	MOVLW 0x01
007D  00CF  	MOVWF delay_ms_00000_arg_del
007E  2015  	CALL delay_ms_00000
007F  0ACA  	INCF Wdt_Delay__0003E_1_i, F
0080  2877  	GOTO	label10
0081        ; } Wdt_Delay_Ms function end

	ORG 0x00000081
0081        FC_CAL_UAR_00065
0081        ; { FC_CAL_UART_Receive_1 ; function begin
0081  30FF  	MOVLW 0xFF
0082  00C9  	MOVWF FC_CAL_UAR_00065_1_retVal
0083  01CA  	CLRF FC_CAL_UAR_00065_1_delay1
0084  01CB  	CLRF FC_CAL_UAR_00065_1_regcheck
0085  01CC  	CLRF FC_CAL_UAR_00065_1_bWaitForever
0086  01CD  	CLRF FC_CAL_UAR_00065_1_rxStatus
0087  01CE  	CLRF FC_CAL_UAR_00065_1_dummy
0088  0A48  	INCF FC_CAL_UAR_00065_arg_nTimeout, W
0089  1D03  	BTFSS STATUS,Z
008A  288D  	GOTO	label11
008B  3001  	MOVLW 0x01
008C  00CC  	MOVWF FC_CAL_UAR_00065_1_bWaitForever
008D        label11
008D  08CD  	MOVF FC_CAL_UAR_00065_1_rxStatus, F
008E  1D03  	BTFSS STATUS,Z
008F  28AF  	GOTO	label14
0090  08CC  	MOVF FC_CAL_UAR_00065_1_bWaitForever, F
0091  1D03  	BTFSS STATUS,Z
0092  28A6  	GOTO	label13
0093  08C8  	MOVF FC_CAL_UAR_00065_arg_nTimeout, F
0094  1D03  	BTFSS STATUS,Z
0095  2899  	GOTO	label12
0096  3001  	MOVLW 0x01
0097  00CD  	MOVWF FC_CAL_UAR_00065_1_rxStatus
0098  28A6  	GOTO	label13
0099        label12
0099  300A  	MOVLW 0x0A
009A  00CF  	MOVWF delay_us_00000_arg_del
009B  2010  	CALL delay_us_00000
009C  0A4A  	INCF FC_CAL_UAR_00065_1_delay1, W
009D  00CA  	MOVWF FC_CAL_UAR_00065_1_delay1
009E  084A  	MOVF FC_CAL_UAR_00065_1_delay1, W
009F  3A64  	XORLW 0x64
00A0  1D03  	BTFSS STATUS,Z
00A1  28A6  	GOTO	label13
00A2  0348  	DECF FC_CAL_UAR_00065_arg_nTimeout, W
00A3  00C8  	MOVWF FC_CAL_UAR_00065_arg_nTimeout
00A4  0064  	CLRWDT
00A5  01CA  	CLRF FC_CAL_UAR_00065_1_delay1
00A6        label13
00A6  3020  	MOVLW 0x20
00A7  050C  	ANDWF gbl_pir1, W
00A8  00CB  	MOVWF FC_CAL_UAR_00065_1_regcheck
00A9  08CB  	MOVF FC_CAL_UAR_00065_1_regcheck, F
00AA  1903  	BTFSC STATUS,Z
00AB  288D  	GOTO	label11
00AC  3002  	MOVLW 0x02
00AD  00CD  	MOVWF FC_CAL_UAR_00065_1_rxStatus
00AE  288D  	GOTO	label11
00AF        label14
00AF  084D  	MOVF FC_CAL_UAR_00065_1_rxStatus, W
00B0  3A02  	XORLW 0x02
00B1  1D03  	BTFSS STATUS,Z
00B2  28C9  	GOTO	label17
00B3  3004  	MOVLW 0x04
00B4  0518  	ANDWF gbl_rcsta, W
00B5  00CB  	MOVWF FC_CAL_UAR_00065_1_regcheck
00B6  08CB  	MOVF FC_CAL_UAR_00065_1_regcheck, F
00B7  1903  	BTFSC STATUS,Z
00B8  28BC  	GOTO	label15
00B9  081A  	MOVF gbl_rcreg, W
00BA  00CE  	MOVWF FC_CAL_UAR_00065_1_dummy
00BB  28C9  	GOTO	label17
00BC        label15
00BC  3002  	MOVLW 0x02
00BD  0518  	ANDWF gbl_rcsta, W
00BE  00CB  	MOVWF FC_CAL_UAR_00065_1_regcheck
00BF  08CB  	MOVF FC_CAL_UAR_00065_1_regcheck, F
00C0  1903  	BTFSC STATUS,Z
00C1  28C5  	GOTO	label16
00C2  1218  	BCF gbl_rcsta,4
00C3  1618  	BSF gbl_rcsta,4
00C4  28C9  	GOTO	label17
00C5        label16
00C5  01C9  	CLRF FC_CAL_UAR_00065_1_retVal
00C6  081A  	MOVF gbl_rcreg, W
00C7  0449  	IORWF FC_CAL_UAR_00065_1_retVal, W
00C8  00C9  	MOVWF FC_CAL_UAR_00065_1_retVal
00C9        label17
00C9  0849  	MOVF FC_CAL_UAR_00065_1_retVal, W
00CA  00CF  	MOVWF CompTempVarRet2371
00CB  01D0  	CLRF CompTempVarRet2371+D'1'
00CC  0008  	RETURN
00CD        ; } FC_CAL_UART_Receive_1 function end

	ORG 0x000000CD
00CD        FC_CAL_PWM_00070
00CD        ; { FC_CAL_PWM_Change_Period_1 ; function begin
00CD  0847  	MOVF FC_CAL_PWM_00070_arg_period, W
00CE  1683  	BSF STATUS, RP0
00CF  0092  	MOVWF gbl_pr2
00D0  3001  	MOVLW 0x01
00D1  1283  	BCF STATUS, RP0
00D2  0648  	XORWF FC_CAL_PWM_00070_arg_prescaler, W
00D3  1903  	BTFSC STATUS,Z
00D4  0849  	MOVF FC_CAL_PWM_00070_arg_prescaler+D'1', W
00D5  1903  	BTFSC STATUS,Z
00D6  28E4  	GOTO	label18
00D7  3004  	MOVLW 0x04
00D8  0648  	XORWF FC_CAL_PWM_00070_arg_prescaler, W
00D9  1903  	BTFSC STATUS,Z
00DA  0849  	MOVF FC_CAL_PWM_00070_arg_prescaler+D'1', W
00DB  1903  	BTFSC STATUS,Z
00DC  28E7  	GOTO	label19
00DD  3010  	MOVLW 0x10
00DE  0648  	XORWF FC_CAL_PWM_00070_arg_prescaler, W
00DF  1903  	BTFSC STATUS,Z
00E0  0849  	MOVF FC_CAL_PWM_00070_arg_prescaler+D'1', W
00E1  1903  	BTFSC STATUS,Z
00E2  28EA  	GOTO	label20
00E3  0008  	RETURN
00E4        label18
00E4  3004  	MOVLW 0x04
00E5  0092  	MOVWF gbl_t2con
00E6  0008  	RETURN
00E7        label19
00E7  3005  	MOVLW 0x05
00E8  0092  	MOVWF gbl_t2con
00E9  0008  	RETURN
00EA        label20
00EA  3006  	MOVLW 0x06
00EB  0092  	MOVWF gbl_t2con
00EC  0008  	RETURN
00ED        ; } FC_CAL_PWM_Change_Period_1 function end

	ORG 0x000000ED
00ED        FC_CAL_PWM_0006D
00ED        ; { FC_CAL_PWM_Enable_Channel_1 ; function begin
00ED  1683  	BSF STATUS, RP0
00EE  1303  	BCF STATUS, RP1
00EF  1107  	BCF gbl_trisc,2
00F0  1283  	BCF STATUS, RP0
00F1  1107  	BCF gbl_portc,2
00F2  300C  	MOVLW 0x0C
00F3  0097  	MOVWF gbl_ccp1con
00F4  0008  	RETURN
00F5        ; } FC_CAL_PWM_Enable_Channel_1 function end

	ORG 0x000000F5
00F5        FCD_RS2320_00052
00F5        ; { FCD_RS2320_SendRS232String ; function begin
00F5  01DA  	CLRF FCD_RS2320_00052_1_idx
00F6        label21
00F6  0859  	MOVF FCD_RS2320_00052_arg_MSZ_String, W
00F7  025A  	SUBWF FCD_RS2320_00052_1_idx, W
00F8  1803  	BTFSC STATUS,C
00F9  0008  	RETURN
00FA  1383  	BCF STATUS,IRP
00FB  1854  	BTFSC FCD_RS2320_00052_arg_String+D'1',0
00FC  1783  	BSF STATUS,IRP
00FD  0853  	MOVF FCD_RS2320_00052_arg_String, W
00FE  075A  	ADDWF FCD_RS2320_00052_1_idx, W
00FF  0084  	MOVWF FSR
0100  0880  	MOVF INDF, F
0101  1903  	BTFSC STATUS,Z
0102  0008  	RETURN
0103  1383  	BCF STATUS,IRP
0104  1854  	BTFSC FCD_RS2320_00052_arg_String+D'1',0
0105  1783  	BSF STATUS,IRP
0106  0853  	MOVF FCD_RS2320_00052_arg_String, W
0107  075A  	ADDWF FCD_RS2320_00052_1_idx, W
0108  0084  	MOVWF FSR
0109  0800  	MOVF INDF, W
010A  00DB  	MOVWF FC_CAL_UAR_00064_arg_nChar
010B  01DC  	CLRF FC_CAL_UAR_00064_arg_nChar+D'1'
010C  204F  	CALL FC_CAL_UAR_00064
010D  0ADA  	INCF FCD_RS2320_00052_1_idx, F
010E  28F6  	GOTO	label21
010F        ; } FCD_RS2320_SendRS232String function end

	ORG 0x0000010F
010F        FCD_PWM0_S_00053
010F        ; { FCD_PWM0_SetDutyCycle ; function begin
010F  084F  	MOVF FCD_PWM0_S_00053_arg_nDuty, W
0110  00D0  	MOVWF FC_CAL_PWM_0006F_arg_duty
0111  2054  	CALL FC_CAL_PWM_0006F
0112  0008  	RETURN
0113        ; } FCD_PWM0_SetDutyCycle function end

	ORG 0x00000113
0113        FCD_LCDDis_00057
0113        ; { FCD_LCDDisplay0_RawSend ; function begin
0113  1286  	BCF gbl_portb,5
0114  1206  	BCF gbl_portb,4
0115  1186  	BCF gbl_portb,3
0116  1106  	BCF gbl_portb,2
0117  1386  	BCF gbl_portb,7
0118  1306  	BCF gbl_portb,6
0119  0E5B  	SWAPF FCD_LCDDis_00057_arg_in, W
011A  390F  	ANDLW 0x0F
011B  00DD  	MOVWF FCD_LCDDis_00057_1_pt
011C  300F  	MOVLW 0x0F
011D  05DD  	ANDWF FCD_LCDDis_00057_1_pt, F
011E  185D  	BTFSC FCD_LCDDis_00057_1_pt,0
011F  1686  	BSF gbl_portb,5
0120  18DD  	BTFSC FCD_LCDDis_00057_1_pt,1
0121  1606  	BSF gbl_portb,4
0122  195D  	BTFSC FCD_LCDDis_00057_1_pt,2
0123  1586  	BSF gbl_portb,3
0124  19DD  	BTFSC FCD_LCDDis_00057_1_pt,3
0125  1506  	BSF gbl_portb,2
0126  08DC  	MOVF FCD_LCDDis_00057_arg_mask, F
0127  1D03  	BTFSS STATUS,Z
0128  1786  	BSF gbl_portb,7
0129  300A  	MOVLW 0x0A
012A  00DE  	MOVWF delay_10us_00000_arg_del
012B  2041  	CALL delay_10us_00000
012C  1706  	BSF gbl_portb,6
012D  300A  	MOVLW 0x0A
012E  00DE  	MOVWF delay_10us_00000_arg_del
012F  2041  	CALL delay_10us_00000
0130  1306  	BCF gbl_portb,6
0131  300F  	MOVLW 0x0F
0132  055B  	ANDWF FCD_LCDDis_00057_arg_in, W
0133  00DD  	MOVWF FCD_LCDDis_00057_1_pt
0134  300A  	MOVLW 0x0A
0135  00DE  	MOVWF delay_10us_00000_arg_del
0136  2041  	CALL delay_10us_00000
0137  1286  	BCF gbl_portb,5
0138  1206  	BCF gbl_portb,4
0139  1186  	BCF gbl_portb,3
013A  1106  	BCF gbl_portb,2
013B  1386  	BCF gbl_portb,7
013C  1306  	BCF gbl_portb,6
013D  185D  	BTFSC FCD_LCDDis_00057_1_pt,0
013E  1686  	BSF gbl_portb,5
013F  18DD  	BTFSC FCD_LCDDis_00057_1_pt,1
0140  1606  	BSF gbl_portb,4
0141  195D  	BTFSC FCD_LCDDis_00057_1_pt,2
0142  1586  	BSF gbl_portb,3
0143  19DD  	BTFSC FCD_LCDDis_00057_1_pt,3
0144  1506  	BSF gbl_portb,2
0145  08DC  	MOVF FCD_LCDDis_00057_arg_mask, F
0146  1D03  	BTFSS STATUS,Z
0147  1786  	BSF gbl_portb,7
0148  300A  	MOVLW 0x0A
0149  00DE  	MOVWF delay_10us_00000_arg_del
014A  2041  	CALL delay_10us_00000
014B  1706  	BSF gbl_portb,6
014C  300A  	MOVLW 0x0A
014D  00DE  	MOVWF delay_10us_00000_arg_del
014E  2041  	CALL delay_10us_00000
014F  1306  	BCF gbl_portb,6
0150  300A  	MOVLW 0x0A
0151  00DE  	MOVWF delay_10us_00000_arg_del
0152  2041  	CALL delay_10us_00000
0153  0008  	RETURN
0154        ; } FCD_LCDDisplay0_RawSend function end

	ORG 0x00000154
0154        FC_CAL_UAR_00063
0154        ; { FC_CAL_UART_Init_1 ; function begin
0154  1683  	BSF STATUS, RP0
0155  1303  	BCF STATUS, RP1
0156  1518  	BSF gbl_txsta,2
0157  3081  	MOVLW 0x81
0158  0099  	MOVWF gbl_spbrg
0159  1283  	BCF STATUS, RP0
015A  0198  	CLRF gbl_rcsta
015B  1798  	BSF gbl_rcsta,7
015C  1683  	BSF STATUS, RP0
015D  1698  	BSF gbl_txsta,5
015E  1283  	BCF STATUS, RP0
015F  1618  	BSF gbl_rcsta,4
0160  1683  	BSF STATUS, RP0
0161  128C  	BCF gbl_pie1,5
0162  0008  	RETURN
0163        ; } FC_CAL_UART_Init_1 function end

	ORG 0x00000163
0163        FCM_init_00000
0163        ; { FCM_init ; function begin
0163  3001  	MOVLW 0x01
0164  1683  	BSF STATUS, RP0
0165  1303  	BCF STATUS, RP1
0166  0405  	IORWF gbl_trisa, W
0167  0085  	MOVWF gbl_trisa
0168  3001  	MOVLW 0x01
0169  1283  	BCF STATUS, RP0
016A  0505  	ANDWF gbl_porta, W
016B  00CD  	MOVWF CompTempVar2252
016C  01CE  	CLRF CompTempVar2253
016D  034D  	DECF CompTempVar2252, W
016E  1903  	BTFSC STATUS,Z
016F  0ACE  	INCF CompTempVar2253, F
0170  1042  	BCF gbl_FCV_EQ1_SE1,0
0171  084E  	MOVF CompTempVar2253, W
0172  1D03  	BTFSS STATUS,Z
0173  1442  	BSF gbl_FCV_EQ1_SE1,0
0174  3002  	MOVLW 0x02
0175  1683  	BSF STATUS, RP0
0176  0405  	IORWF gbl_trisa, W
0177  0085  	MOVWF gbl_trisa
0178  3002  	MOVLW 0x02
0179  1283  	BCF STATUS, RP0
017A  0505  	ANDWF gbl_porta, W
017B  00CD  	MOVWF CompTempVar2254
017C  01CE  	CLRF CompTempVar2255
017D  3002  	MOVLW 0x02
017E  024D  	SUBWF CompTempVar2254, W
017F  1903  	BTFSC STATUS,Z
0180  0ACE  	INCF CompTempVar2255, F
0181  1142  	BCF gbl_FCV_EQ1_SE2,2
0182  084E  	MOVF CompTempVar2255, W
0183  1D03  	BTFSS STATUS,Z
0184  1542  	BSF gbl_FCV_EQ1_SE2,2
0185  3004  	MOVLW 0x04
0186  1683  	BSF STATUS, RP0
0187  0405  	IORWF gbl_trisa, W
0188  0085  	MOVWF gbl_trisa
0189  3004  	MOVLW 0x04
018A  1283  	BCF STATUS, RP0
018B  0505  	ANDWF gbl_porta, W
018C  00CD  	MOVWF CompTempVar2256
018D  01CE  	CLRF CompTempVar2257
018E  3004  	MOVLW 0x04
018F  024D  	SUBWF CompTempVar2256, W
0190  1903  	BTFSC STATUS,Z
0191  0ACE  	INCF CompTempVar2257, F
0192  10C2  	BCF gbl_FCV_EQ2_SE1,1
0193  084E  	MOVF CompTempVar2257, W
0194  1D03  	BTFSS STATUS,Z
0195  14C2  	BSF gbl_FCV_EQ2_SE1,1
0196  3008  	MOVLW 0x08
0197  1683  	BSF STATUS, RP0
0198  0405  	IORWF gbl_trisa, W
0199  0085  	MOVWF gbl_trisa
019A  3008  	MOVLW 0x08
019B  1283  	BCF STATUS, RP0
019C  0505  	ANDWF gbl_porta, W
019D  00CD  	MOVWF CompTempVar2258
019E  01CE  	CLRF CompTempVar2259
019F  3008  	MOVLW 0x08
01A0  024D  	SUBWF CompTempVar2258, W
01A1  1903  	BTFSC STATUS,Z
01A2  0ACE  	INCF CompTempVar2259, F
01A3  1342  	BCF gbl_FCV_EQ2_SE2,6
01A4  084E  	MOVF CompTempVar2259, W
01A5  1D03  	BTFSS STATUS,Z
01A6  1742  	BSF gbl_FCV_EQ2_SE2,6
01A7  3010  	MOVLW 0x10
01A8  1683  	BSF STATUS, RP0
01A9  0405  	IORWF gbl_trisa, W
01AA  0085  	MOVWF gbl_trisa
01AB  3010  	MOVLW 0x10
01AC  1283  	BCF STATUS, RP0
01AD  0505  	ANDWF gbl_porta, W
01AE  00CD  	MOVWF CompTempVar2260
01AF  01CE  	CLRF CompTempVar2261
01B0  3010  	MOVLW 0x10
01B1  024D  	SUBWF CompTempVar2260, W
01B2  1903  	BTFSC STATUS,Z
01B3  0ACE  	INCF CompTempVar2261, F
01B4  12C2  	BCF gbl_FCV_EQ3_SE1,5
01B5  084E  	MOVF CompTempVar2261, W
01B6  1D03  	BTFSS STATUS,Z
01B7  16C2  	BSF gbl_FCV_EQ3_SE1,5
01B8  3020  	MOVLW 0x20
01B9  1683  	BSF STATUS, RP0
01BA  0405  	IORWF gbl_trisa, W
01BB  0085  	MOVWF gbl_trisa
01BC  3020  	MOVLW 0x20
01BD  1283  	BCF STATUS, RP0
01BE  0505  	ANDWF gbl_porta, W
01BF  00CD  	MOVWF CompTempVar2262
01C0  01CE  	CLRF CompTempVar2263
01C1  3020  	MOVLW 0x20
01C2  024D  	SUBWF CompTempVar2262, W
01C3  1903  	BTFSC STATUS,Z
01C4  0ACE  	INCF CompTempVar2263, F
01C5  10C3  	BCF gbl_FCV_EQ3_SE2,1
01C6  084E  	MOVF CompTempVar2263, W
01C7  1D03  	BTFSS STATUS,Z
01C8  14C3  	BSF gbl_FCV_EQ3_SE2,1
01C9  01C8  	CLRF CompTempVar2247
01CA  1842  	BTFSC gbl_FCV_EQ1_SE1,0
01CB  0AC8  	INCF CompTempVar2247, F
01CC  01C7  	CLRF CompTempVar2246
01CD  1942  	BTFSC gbl_FCV_EQ1_SE2,2
01CE  0AC7  	INCF CompTempVar2246, F
01CF  0847  	MOVF CompTempVar2246, W
01D0  0448  	IORWF CompTempVar2247, W
01D1  1D03  	BTFSS STATUS,Z
01D2  1645  	BSF gbl_FCV_EQ1_FLAG,4
01D3  01CA  	CLRF CompTempVar2249
01D4  18C2  	BTFSC gbl_FCV_EQ2_SE1,1
01D5  0ACA  	INCF CompTempVar2249, F
01D6  01C9  	CLRF CompTempVar2248
01D7  1B42  	BTFSC gbl_FCV_EQ2_SE2,6
01D8  0AC9  	INCF CompTempVar2248, F
01D9  0849  	MOVF CompTempVar2248, W
01DA  044A  	IORWF CompTempVar2249, W
01DB  1D03  	BTFSS STATUS,Z
01DC  17C3  	BSF gbl_FCV_EQ2_FLAG,7
01DD  01CC  	CLRF CompTempVar2251
01DE  1AC2  	BTFSC gbl_FCV_EQ3_SE1,5
01DF  0ACC  	INCF CompTempVar2251, F
01E0  01CB  	CLRF CompTempVar2250
01E1  18C3  	BTFSC gbl_FCV_EQ3_SE2,1
01E2  0ACB  	INCF CompTempVar2250, F
01E3  084B  	MOVF CompTempVar2250, W
01E4  044C  	IORWF CompTempVar2251, W
01E5  1D03  	BTFSS STATUS,Z
01E6  1643  	BSF gbl_FCV_EQ3_FLAG,4
01E7  0008  	RETURN
01E8        ; } FCM_init function end

	ORG 0x000001E8
01E8        FCM_check_00000
01E8        ; { FCM_check ; function begin
01E8  3001  	MOVLW 0x01
01E9  1683  	BSF STATUS, RP0
01EA  1303  	BCF STATUS, RP1
01EB  0405  	IORWF gbl_trisa, W
01EC  0085  	MOVWF gbl_trisa
01ED  3001  	MOVLW 0x01
01EE  1283  	BCF STATUS, RP0
01EF  0505  	ANDWF gbl_porta, W
01F0  00CF  	MOVWF CompTempVar2272
01F1  01D0  	CLRF CompTempVar2273
01F2  034F  	DECF CompTempVar2272, W
01F3  1903  	BTFSC STATUS,Z
01F4  0AD0  	INCF CompTempVar2273, F
01F5  1042  	BCF gbl_FCV_EQ1_SE1,0
01F6  0850  	MOVF CompTempVar2273, W
01F7  1D03  	BTFSS STATUS,Z
01F8  1442  	BSF gbl_FCV_EQ1_SE1,0
01F9  3002  	MOVLW 0x02
01FA  1683  	BSF STATUS, RP0
01FB  0405  	IORWF gbl_trisa, W
01FC  0085  	MOVWF gbl_trisa
01FD  3002  	MOVLW 0x02
01FE  1283  	BCF STATUS, RP0
01FF  0505  	ANDWF gbl_porta, W
0200  00CF  	MOVWF CompTempVar2274
0201  01D0  	CLRF CompTempVar2275
0202  3002  	MOVLW 0x02
0203  024F  	SUBWF CompTempVar2274, W
0204  1903  	BTFSC STATUS,Z
0205  0AD0  	INCF CompTempVar2275, F
0206  1142  	BCF gbl_FCV_EQ1_SE2,2
0207  0850  	MOVF CompTempVar2275, W
0208  1D03  	BTFSS STATUS,Z
0209  1542  	BSF gbl_FCV_EQ1_SE2,2
020A  3004  	MOVLW 0x04
020B  1683  	BSF STATUS, RP0
020C  0405  	IORWF gbl_trisa, W
020D  0085  	MOVWF gbl_trisa
020E  3004  	MOVLW 0x04
020F  1283  	BCF STATUS, RP0
0210  0505  	ANDWF gbl_porta, W
0211  00CF  	MOVWF CompTempVar2276
0212  01D0  	CLRF CompTempVar2277
0213  3004  	MOVLW 0x04
0214  024F  	SUBWF CompTempVar2276, W
0215  1903  	BTFSC STATUS,Z
0216  0AD0  	INCF CompTempVar2277, F
0217  10C2  	BCF gbl_FCV_EQ2_SE1,1
0218  0850  	MOVF CompTempVar2277, W
0219  1D03  	BTFSS STATUS,Z
021A  14C2  	BSF gbl_FCV_EQ2_SE1,1
021B  3008  	MOVLW 0x08
021C  1683  	BSF STATUS, RP0
021D  0405  	IORWF gbl_trisa, W
021E  0085  	MOVWF gbl_trisa
021F  3008  	MOVLW 0x08
0220  1283  	BCF STATUS, RP0
0221  0505  	ANDWF gbl_porta, W
0222  00CF  	MOVWF CompTempVar2278
0223  01D0  	CLRF CompTempVar2279
0224  3008  	MOVLW 0x08
0225  024F  	SUBWF CompTempVar2278, W
0226  1903  	BTFSC STATUS,Z
0227  0AD0  	INCF CompTempVar2279, F
0228  1342  	BCF gbl_FCV_EQ2_SE2,6
0229  0850  	MOVF CompTempVar2279, W
022A  1D03  	BTFSS STATUS,Z
022B  1742  	BSF gbl_FCV_EQ2_SE2,6
022C  3010  	MOVLW 0x10
022D  1683  	BSF STATUS, RP0
022E  0405  	IORWF gbl_trisa, W
022F  0085  	MOVWF gbl_trisa
0230  3010  	MOVLW 0x10
0231  1283  	BCF STATUS, RP0
0232  0505  	ANDWF gbl_porta, W
0233  00CF  	MOVWF CompTempVar2280
0234  01D0  	CLRF CompTempVar2281
0235  3010  	MOVLW 0x10
0236  024F  	SUBWF CompTempVar2280, W
0237  1903  	BTFSC STATUS,Z
0238  0AD0  	INCF CompTempVar2281, F
0239  12C2  	BCF gbl_FCV_EQ3_SE1,5
023A  0850  	MOVF CompTempVar2281, W
023B  1D03  	BTFSS STATUS,Z
023C  16C2  	BSF gbl_FCV_EQ3_SE1,5
023D  3020  	MOVLW 0x20
023E  1683  	BSF STATUS, RP0
023F  0405  	IORWF gbl_trisa, W
0240  0085  	MOVWF gbl_trisa
0241  3020  	MOVLW 0x20
0242  1283  	BCF STATUS, RP0
0243  0505  	ANDWF gbl_porta, W
0244  00CF  	MOVWF CompTempVar2282
0245  01D0  	CLRF CompTempVar2283
0246  3020  	MOVLW 0x20
0247  024F  	SUBWF CompTempVar2282, W
0248  1903  	BTFSC STATUS,Z
0249  0AD0  	INCF CompTempVar2283, F
024A  10C3  	BCF gbl_FCV_EQ3_SE2,1
024B  0850  	MOVF CompTempVar2283, W
024C  1D03  	BTFSS STATUS,Z
024D  14C3  	BSF gbl_FCV_EQ3_SE2,1
024E  01C8  	CLRF CompTempVar2265
024F  1C42  	BTFSS gbl_FCV_EQ1_SE1,0
0250  0AC8  	INCF CompTempVar2265, F
0251  01C7  	CLRF CompTempVar2264
0252  1D42  	BTFSS gbl_FCV_EQ1_SE2,2
0253  0AC7  	INCF CompTempVar2264, F
0254  0847  	MOVF CompTempVar2264, W
0255  0548  	ANDWF CompTempVar2265, W
0256  1903  	BTFSC STATUS,Z
0257  2A67  	GOTO	label22
0258  3045  	MOVLW 0x45
0259  00D5  	MOVWF CompTempVar2284
025A  3031  	MOVLW 0x31
025B  00D6  	MOVWF CompTempVar2284+D'1'
025C  3042  	MOVLW 0x42
025D  00D7  	MOVWF CompTempVar2284+D'2'
025E  01D8  	CLRF CompTempVar2284+D'3'
025F  3000  	MOVLW HIGH(CompTempVar2284+D'0')
0260  00D4  	MOVWF FCD_RS2320_00052_arg_String+D'1'
0261  3055  	MOVLW LOW(CompTempVar2284+D'0')
0262  00D3  	MOVWF FCD_RS2320_00052_arg_String
0263  3003  	MOVLW 0x03
0264  00D9  	MOVWF FCD_RS2320_00052_arg_MSZ_String
0265  20F5  	CALL FCD_RS2320_00052
0266  2A98  	GOTO	label24
0267        label22
0267  01D0  	CLRF CompTempVar2287
0268  1842  	BTFSC gbl_FCV_EQ1_SE1,0
0269  0AD0  	INCF CompTempVar2287, F
026A  01CF  	CLRF CompTempVar2286
026B  1D42  	BTFSS gbl_FCV_EQ1_SE2,2
026C  0ACF  	INCF CompTempVar2286, F
026D  084F  	MOVF CompTempVar2286, W
026E  0550  	ANDWF CompTempVar2287, W
026F  1903  	BTFSC STATUS,Z
0270  2A80  	GOTO	label23
0271  3045  	MOVLW 0x45
0272  00D5  	MOVWF CompTempVar2288
0273  3031  	MOVLW 0x31
0274  00D6  	MOVWF CompTempVar2288+D'1'
0275  3050  	MOVLW 0x50
0276  00D7  	MOVWF CompTempVar2288+D'2'
0277  01D8  	CLRF CompTempVar2288+D'3'
0278  3000  	MOVLW HIGH(CompTempVar2288+D'0')
0279  00D4  	MOVWF FCD_RS2320_00052_arg_String+D'1'
027A  3055  	MOVLW LOW(CompTempVar2288+D'0')
027B  00D3  	MOVWF FCD_RS2320_00052_arg_String
027C  3003  	MOVLW 0x03
027D  00D9  	MOVWF FCD_RS2320_00052_arg_MSZ_String
027E  20F5  	CALL FCD_RS2320_00052
027F  2A98  	GOTO	label24
0280        label23
0280  01D2  	CLRF CompTempVar2291
0281  1C42  	BTFSS gbl_FCV_EQ1_SE1,0
0282  0AD2  	INCF CompTempVar2291, F
0283  01D1  	CLRF CompTempVar2290
0284  1942  	BTFSC gbl_FCV_EQ1_SE2,2
0285  0AD1  	INCF CompTempVar2290, F
0286  0851  	MOVF CompTempVar2290, W
0287  0552  	ANDWF CompTempVar2291, W
0288  1903  	BTFSC STATUS,Z
0289  2A98  	GOTO	label24
028A  3045  	MOVLW 0x45
028B  00D5  	MOVWF CompTempVar2292
028C  3031  	MOVLW 0x31
028D  00D6  	MOVWF CompTempVar2292+D'1'
028E  3052  	MOVLW 0x52
028F  00D7  	MOVWF CompTempVar2292+D'2'
0290  01D8  	CLRF CompTempVar2292+D'3'
0291  3000  	MOVLW HIGH(CompTempVar2292+D'0')
0292  00D4  	MOVWF FCD_RS2320_00052_arg_String+D'1'
0293  3055  	MOVLW LOW(CompTempVar2292+D'0')
0294  00D3  	MOVWF FCD_RS2320_00052_arg_String
0295  3003  	MOVLW 0x03
0296  00D9  	MOVWF FCD_RS2320_00052_arg_MSZ_String
0297  20F5  	CALL FCD_RS2320_00052
0298        label24
0298  01CA  	CLRF CompTempVar2267
0299  1CC2  	BTFSS gbl_FCV_EQ2_SE1,1
029A  0ACA  	INCF CompTempVar2267, F
029B  01C9  	CLRF CompTempVar2266
029C  1F42  	BTFSS gbl_FCV_EQ2_SE2,6
029D  0AC9  	INCF CompTempVar2266, F
029E  0849  	MOVF CompTempVar2266, W
029F  054A  	ANDWF CompTempVar2267, W
02A0  1903  	BTFSC STATUS,Z
02A1  2AB1  	GOTO	label25
02A2  3045  	MOVLW 0x45
02A3  00CF  	MOVWF CompTempVar2294
02A4  3032  	MOVLW 0x32
02A5  00D0  	MOVWF CompTempVar2294+D'1'
02A6  3042  	MOVLW 0x42
02A7  00D1  	MOVWF CompTempVar2294+D'2'
02A8  01D2  	CLRF CompTempVar2294+D'3'
02A9  3000  	MOVLW HIGH(CompTempVar2294+D'0')
02AA  00D4  	MOVWF FCD_RS2320_00052_arg_String+D'1'
02AB  304F  	MOVLW LOW(CompTempVar2294+D'0')
02AC  00D3  	MOVWF FCD_RS2320_00052_arg_String
02AD  3003  	MOVLW 0x03
02AE  00D9  	MOVWF FCD_RS2320_00052_arg_MSZ_String
02AF  20F5  	CALL FCD_RS2320_00052
02B0  2AE2  	GOTO	label27
02B1        label25
02B1  01D0  	CLRF CompTempVar2297
02B2  18C2  	BTFSC gbl_FCV_EQ2_SE1,1
02B3  0AD0  	INCF CompTempVar2297, F
02B4  01CF  	CLRF CompTempVar2296
02B5  1F42  	BTFSS gbl_FCV_EQ2_SE2,6
02B6  0ACF  	INCF CompTempVar2296, F
02B7  084F  	MOVF CompTempVar2296, W
02B8  0550  	ANDWF CompTempVar2297, W
02B9  1903  	BTFSC STATUS,Z
02BA  2ACA  	GOTO	label26
02BB  3045  	MOVLW 0x45
02BC  00D5  	MOVWF CompTempVar2298
02BD  3032  	MOVLW 0x32
02BE  00D6  	MOVWF CompTempVar2298+D'1'
02BF  3050  	MOVLW 0x50
02C0  00D7  	MOVWF CompTempVar2298+D'2'
02C1  01D8  	CLRF CompTempVar2298+D'3'
02C2  3000  	MOVLW HIGH(CompTempVar2298+D'0')
02C3  00D4  	MOVWF FCD_RS2320_00052_arg_String+D'1'
02C4  3055  	MOVLW LOW(CompTempVar2298+D'0')
02C5  00D3  	MOVWF FCD_RS2320_00052_arg_String
02C6  3003  	MOVLW 0x03
02C7  00D9  	MOVWF FCD_RS2320_00052_arg_MSZ_String
02C8  20F5  	CALL FCD_RS2320_00052
02C9  2AE2  	GOTO	label27
02CA        label26
02CA  01D2  	CLRF CompTempVar2301
02CB  1CC2  	BTFSS gbl_FCV_EQ2_SE1,1
02CC  0AD2  	INCF CompTempVar2301, F
02CD  01D1  	CLRF CompTempVar2300
02CE  1B42  	BTFSC gbl_FCV_EQ2_SE2,6
02CF  0AD1  	INCF CompTempVar2300, F
02D0  0851  	MOVF CompTempVar2300, W
02D1  0552  	ANDWF CompTempVar2301, W
02D2  1903  	BTFSC STATUS,Z
02D3  2AE2  	GOTO	label27
02D4  3045  	MOVLW 0x45
02D5  00D5  	MOVWF CompTempVar2302
02D6  3032  	MOVLW 0x32
02D7  00D6  	MOVWF CompTempVar2302+D'1'
02D8  3052  	MOVLW 0x52
02D9  00D7  	MOVWF CompTempVar2302+D'2'
02DA  01D8  	CLRF CompTempVar2302+D'3'
02DB  3000  	MOVLW HIGH(CompTempVar2302+D'0')
02DC  00D4  	MOVWF FCD_RS2320_00052_arg_String+D'1'
02DD  3055  	MOVLW LOW(CompTempVar2302+D'0')
02DE  00D3  	MOVWF FCD_RS2320_00052_arg_String
02DF  3003  	MOVLW 0x03
02E0  00D9  	MOVWF FCD_RS2320_00052_arg_MSZ_String
02E1  20F5  	CALL FCD_RS2320_00052
02E2        label27
02E2  01CC  	CLRF CompTempVar2269
02E3  1EC2  	BTFSS gbl_FCV_EQ3_SE1,5
02E4  0ACC  	INCF CompTempVar2269, F
02E5  01CB  	CLRF CompTempVar2268
02E6  1CC3  	BTFSS gbl_FCV_EQ3_SE2,1
02E7  0ACB  	INCF CompTempVar2268, F
02E8  084B  	MOVF CompTempVar2268, W
02E9  054C  	ANDWF CompTempVar2269, W
02EA  1903  	BTFSC STATUS,Z
02EB  2AFB  	GOTO	label28
02EC  3045  	MOVLW 0x45
02ED  00CF  	MOVWF CompTempVar2304
02EE  3033  	MOVLW 0x33
02EF  00D0  	MOVWF CompTempVar2304+D'1'
02F0  3042  	MOVLW 0x42
02F1  00D1  	MOVWF CompTempVar2304+D'2'
02F2  01D2  	CLRF CompTempVar2304+D'3'
02F3  3000  	MOVLW HIGH(CompTempVar2304+D'0')
02F4  00D4  	MOVWF FCD_RS2320_00052_arg_String+D'1'
02F5  304F  	MOVLW LOW(CompTempVar2304+D'0')
02F6  00D3  	MOVWF FCD_RS2320_00052_arg_String
02F7  3003  	MOVLW 0x03
02F8  00D9  	MOVWF FCD_RS2320_00052_arg_MSZ_String
02F9  20F5  	CALL FCD_RS2320_00052
02FA  2B2C  	GOTO	label30
02FB        label28
02FB  01D0  	CLRF CompTempVar2307
02FC  1AC2  	BTFSC gbl_FCV_EQ3_SE1,5
02FD  0AD0  	INCF CompTempVar2307, F
02FE  01CF  	CLRF CompTempVar2306
02FF  1CC3  	BTFSS gbl_FCV_EQ3_SE2,1
0300  0ACF  	INCF CompTempVar2306, F
0301  084F  	MOVF CompTempVar2306, W
0302  0550  	ANDWF CompTempVar2307, W
0303  1903  	BTFSC STATUS,Z
0304  2B14  	GOTO	label29
0305  3045  	MOVLW 0x45
0306  00D5  	MOVWF CompTempVar2308
0307  3033  	MOVLW 0x33
0308  00D6  	MOVWF CompTempVar2308+D'1'
0309  3050  	MOVLW 0x50
030A  00D7  	MOVWF CompTempVar2308+D'2'
030B  01D8  	CLRF CompTempVar2308+D'3'
030C  3000  	MOVLW HIGH(CompTempVar2308+D'0')
030D  00D4  	MOVWF FCD_RS2320_00052_arg_String+D'1'
030E  3055  	MOVLW LOW(CompTempVar2308+D'0')
030F  00D3  	MOVWF FCD_RS2320_00052_arg_String
0310  3003  	MOVLW 0x03
0311  00D9  	MOVWF FCD_RS2320_00052_arg_MSZ_String
0312  20F5  	CALL FCD_RS2320_00052
0313  2B2C  	GOTO	label30
0314        label29
0314  01D2  	CLRF CompTempVar2311
0315  1EC2  	BTFSS gbl_FCV_EQ3_SE1,5
0316  0AD2  	INCF CompTempVar2311, F
0317  01D1  	CLRF CompTempVar2310
0318  18C3  	BTFSC gbl_FCV_EQ3_SE2,1
0319  0AD1  	INCF CompTempVar2310, F
031A  0851  	MOVF CompTempVar2310, W
031B  0552  	ANDWF CompTempVar2311, W
031C  1903  	BTFSC STATUS,Z
031D  2B2C  	GOTO	label30
031E  3045  	MOVLW 0x45
031F  00D5  	MOVWF CompTempVar2312
0320  3033  	MOVLW 0x33
0321  00D6  	MOVWF CompTempVar2312+D'1'
0322  3052  	MOVLW 0x52
0323  00D7  	MOVWF CompTempVar2312+D'2'
0324  01D8  	CLRF CompTempVar2312+D'3'
0325  3000  	MOVLW HIGH(CompTempVar2312+D'0')
0326  00D4  	MOVWF FCD_RS2320_00052_arg_String+D'1'
0327  3055  	MOVLW LOW(CompTempVar2312+D'0')
0328  00D3  	MOVWF FCD_RS2320_00052_arg_String
0329  3003  	MOVLW 0x03
032A  00D9  	MOVWF FCD_RS2320_00052_arg_MSZ_String
032B  20F5  	CALL FCD_RS2320_00052
032C        label30
032C  01CE  	CLRF CompTempVar2271
032D  1DC3  	BTFSS gbl_FCV_EQ4_SE1,3
032E  0ACE  	INCF CompTempVar2271, F
032F  01CD  	CLRF CompTempVar2270
0330  1EC3  	BTFSS gbl_FCV_EQ4_SE2,5
0331  0ACD  	INCF CompTempVar2270, F
0332  084D  	MOVF CompTempVar2270, W
0333  054E  	ANDWF CompTempVar2271, W
0334  1903  	BTFSC STATUS,Z
0335  2B45  	GOTO	label31
0336  3045  	MOVLW 0x45
0337  00CF  	MOVWF CompTempVar2314
0338  3034  	MOVLW 0x34
0339  00D0  	MOVWF CompTempVar2314+D'1'
033A  3042  	MOVLW 0x42
033B  00D1  	MOVWF CompTempVar2314+D'2'
033C  01D2  	CLRF CompTempVar2314+D'3'
033D  3000  	MOVLW HIGH(CompTempVar2314+D'0')
033E  00D4  	MOVWF FCD_RS2320_00052_arg_String+D'1'
033F  304F  	MOVLW LOW(CompTempVar2314+D'0')
0340  00D3  	MOVWF FCD_RS2320_00052_arg_String
0341  3003  	MOVLW 0x03
0342  00D9  	MOVWF FCD_RS2320_00052_arg_MSZ_String
0343  20F5  	CALL FCD_RS2320_00052
0344  0008  	RETURN
0345        label31
0345  01D0  	CLRF CompTempVar2317
0346  19C3  	BTFSC gbl_FCV_EQ4_SE1,3
0347  0AD0  	INCF CompTempVar2317, F
0348  01CF  	CLRF CompTempVar2316
0349  1EC3  	BTFSS gbl_FCV_EQ4_SE2,5
034A  0ACF  	INCF CompTempVar2316, F
034B  084F  	MOVF CompTempVar2316, W
034C  0550  	ANDWF CompTempVar2317, W
034D  1903  	BTFSC STATUS,Z
034E  2B5E  	GOTO	label32
034F  3045  	MOVLW 0x45
0350  00D5  	MOVWF CompTempVar2318
0351  3034  	MOVLW 0x34
0352  00D6  	MOVWF CompTempVar2318+D'1'
0353  3050  	MOVLW 0x50
0354  00D7  	MOVWF CompTempVar2318+D'2'
0355  01D8  	CLRF CompTempVar2318+D'3'
0356  3000  	MOVLW HIGH(CompTempVar2318+D'0')
0357  00D4  	MOVWF FCD_RS2320_00052_arg_String+D'1'
0358  3055  	MOVLW LOW(CompTempVar2318+D'0')
0359  00D3  	MOVWF FCD_RS2320_00052_arg_String
035A  3003  	MOVLW 0x03
035B  00D9  	MOVWF FCD_RS2320_00052_arg_MSZ_String
035C  20F5  	CALL FCD_RS2320_00052
035D  0008  	RETURN
035E        label32
035E  01D2  	CLRF CompTempVar2321
035F  1DC3  	BTFSS gbl_FCV_EQ4_SE1,3
0360  0AD2  	INCF CompTempVar2321, F
0361  01D1  	CLRF CompTempVar2320
0362  1AC3  	BTFSC gbl_FCV_EQ4_SE2,5
0363  0AD1  	INCF CompTempVar2320, F
0364  0851  	MOVF CompTempVar2320, W
0365  0552  	ANDWF CompTempVar2321, W
0366  1903  	BTFSC STATUS,Z
0367  0008  	RETURN
0368  3045  	MOVLW 0x45
0369  00D5  	MOVWF CompTempVar2322
036A  3034  	MOVLW 0x34
036B  00D6  	MOVWF CompTempVar2322+D'1'
036C  3052  	MOVLW 0x52
036D  00D7  	MOVWF CompTempVar2322+D'2'
036E  01D8  	CLRF CompTempVar2322+D'3'
036F  3000  	MOVLW HIGH(CompTempVar2322+D'0')
0370  00D4  	MOVWF FCD_RS2320_00052_arg_String+D'1'
0371  3055  	MOVLW LOW(CompTempVar2322+D'0')
0372  00D3  	MOVWF FCD_RS2320_00052_arg_String
0373  3003  	MOVLW 0x03
0374  00D9  	MOVWF FCD_RS2320_00052_arg_MSZ_String
0375  20F5  	CALL FCD_RS2320_00052
0376  0008  	RETURN
0377        ; } FCM_check function end

	ORG 0x00000377
0377        FCM_Equipm_00056
0377        ; { FCM_Equipment4 ; function begin
0377  1283  	BCF STATUS, RP0
0378  1303  	BCF STATUS, RP1
0379  01C9  	CLRF CompTempVar2327
037A  1DC3  	BTFSS gbl_FCV_EQ4_SE1,3
037B  0AC9  	INCF CompTempVar2327, F
037C  01C7  	CLRF CompTempVar2324
037D  1EC3  	BTFSS gbl_FCV_EQ4_SE2,5
037E  0AC7  	INCF CompTempVar2324, F
037F  0847  	MOVF CompTempVar2324, W
0380  05C9  	ANDWF CompTempVar2327, F
0381  01C8  	CLRF CompTempVar2326
0382  1D43  	BTFSS gbl_FCV_EQ4_FLAG,2
0383  0AC8  	INCF CompTempVar2326, F
0384  0848  	MOVF CompTempVar2326, W
0385  0549  	ANDWF CompTempVar2327, W
0386  1903  	BTFSC STATUS,Z
0387  2B9B  	GOTO	label33
0388  3045  	MOVLW 0x45
0389  00CA  	MOVWF CompTempVar2328
038A  3034  	MOVLW 0x34
038B  00CB  	MOVWF CompTempVar2328+D'1'
038C  3042  	MOVLW 0x42
038D  00CC  	MOVWF CompTempVar2328+D'2'
038E  01CD  	CLRF CompTempVar2328+D'3'
038F  3000  	MOVLW HIGH(CompTempVar2328+D'0')
0390  00D4  	MOVWF FCD_RS2320_00052_arg_String+D'1'
0391  304A  	MOVLW LOW(CompTempVar2328+D'0')
0392  00D3  	MOVWF FCD_RS2320_00052_arg_String
0393  3003  	MOVLW 0x03
0394  00D9  	MOVWF FCD_RS2320_00052_arg_MSZ_String
0395  20F5  	CALL FCD_RS2320_00052
0396  30C8  	MOVLW 0xC8
0397  00CF  	MOVWF delay_ms_00000_arg_del
0398  2015  	CALL delay_ms_00000
0399  1543  	BSF gbl_FCV_EQ4_FLAG,2
039A  0008  	RETURN
039B        label33
039B  01CC  	CLRF CompTempVar2333
039C  19C3  	BTFSC gbl_FCV_EQ4_SE1,3
039D  0ACC  	INCF CompTempVar2333, F
039E  01CA  	CLRF CompTempVar2330
039F  1EC3  	BTFSS gbl_FCV_EQ4_SE2,5
03A0  0ACA  	INCF CompTempVar2330, F
03A1  084A  	MOVF CompTempVar2330, W
03A2  05CC  	ANDWF CompTempVar2333, F
03A3  01CB  	CLRF CompTempVar2332
03A4  1943  	BTFSC gbl_FCV_EQ4_FLAG,2
03A5  0ACB  	INCF CompTempVar2332, F
03A6  084B  	MOVF CompTempVar2332, W
03A7  054C  	ANDWF CompTempVar2333, W
03A8  1903  	BTFSC STATUS,Z
03A9  2BC0  	GOTO	label34
03AA  3045  	MOVLW 0x45
03AB  00D5  	MOVWF CompTempVar2334
03AC  3034  	MOVLW 0x34
03AD  00D6  	MOVWF CompTempVar2334+D'1'
03AE  3050  	MOVLW 0x50
03AF  00D7  	MOVWF CompTempVar2334+D'2'
03B0  01D8  	CLRF CompTempVar2334+D'3'
03B1  3000  	MOVLW HIGH(CompTempVar2334+D'0')
03B2  00D4  	MOVWF FCD_RS2320_00052_arg_String+D'1'
03B3  3055  	MOVLW LOW(CompTempVar2334+D'0')
03B4  00D3  	MOVWF FCD_RS2320_00052_arg_String
03B5  3003  	MOVLW 0x03
03B6  00D9  	MOVWF FCD_RS2320_00052_arg_MSZ_String
03B7  20F5  	CALL FCD_RS2320_00052
03B8  30FF  	MOVLW 0xFF
03B9  00CF  	MOVWF delay_ms_00000_arg_del
03BA  2015  	CALL delay_ms_00000
03BB  30F5  	MOVLW 0xF5
03BC  00CF  	MOVWF delay_ms_00000_arg_del
03BD  2015  	CALL delay_ms_00000
03BE  1143  	BCF gbl_FCV_EQ4_FLAG,2
03BF  0008  	RETURN
03C0        label34
03C0  01CE  	CLRF CompTempVar2337
03C1  1DC3  	BTFSS gbl_FCV_EQ4_SE1,3
03C2  0ACE  	INCF CompTempVar2337, F
03C3  01CD  	CLRF CompTempVar2336
03C4  1AC3  	BTFSC gbl_FCV_EQ4_SE2,5
03C5  0ACD  	INCF CompTempVar2336, F
03C6  084D  	MOVF CompTempVar2336, W
03C7  054E  	ANDWF CompTempVar2337, W
03C8  1903  	BTFSC STATUS,Z
03C9  0008  	RETURN
03CA  13C5  	BCF gbl_FCV_EQ4_ERRORFLAG,7
03CB        label35
03CB  1EC3  	BTFSS gbl_FCV_EQ4_SE2,5
03CC  2C01  	GOTO	label37
03CD  3002  	MOVLW 0x02
03CE  1683  	BSF STATUS, RP0
03CF  0409  	IORWF gbl_trise, W
03D0  0089  	MOVWF gbl_trise
03D1  3002  	MOVLW 0x02
03D2  1283  	BCF STATUS, RP0
03D3  0509  	ANDWF gbl_porte, W
03D4  00CF  	MOVWF CompTempVar2338
03D5  01D0  	CLRF CompTempVar2339
03D6  3002  	MOVLW 0x02
03D7  024F  	SUBWF CompTempVar2338, W
03D8  1903  	BTFSC STATUS,Z
03D9  0AD0  	INCF CompTempVar2339, F
03DA  12C3  	BCF gbl_FCV_EQ4_SE2,5
03DB  0850  	MOVF CompTempVar2339, W
03DC  1D03  	BTFSS STATUS,Z
03DD  16C3  	BSF gbl_FCV_EQ4_SE2,5
03DE  1BC5  	BTFSC gbl_FCV_EQ4_ERRORFLAG,7
03DF  2BF5  	GOTO	label36
03E0  3045  	MOVLW 0x45
03E1  00D5  	MOVWF CompTempVar2340
03E2  3034  	MOVLW 0x34
03E3  00D6  	MOVWF CompTempVar2340+D'1'
03E4  3052  	MOVLW 0x52
03E5  00D7  	MOVWF CompTempVar2340+D'2'
03E6  01D8  	CLRF CompTempVar2340+D'3'
03E7  3000  	MOVLW HIGH(CompTempVar2340+D'0')
03E8  00D4  	MOVWF FCD_RS2320_00052_arg_String+D'1'
03E9  3055  	MOVLW LOW(CompTempVar2340+D'0')
03EA  00D3  	MOVWF FCD_RS2320_00052_arg_String
03EB  3003  	MOVLW 0x03
03EC  00D9  	MOVWF FCD_RS2320_00052_arg_MSZ_String
03ED  20F5  	CALL FCD_RS2320_00052
03EE  30FF  	MOVLW 0xFF
03EF  00CF  	MOVWF delay_ms_00000_arg_del
03F0  2015  	CALL delay_ms_00000
03F1  30F5  	MOVLW 0xF5
03F2  00CF  	MOVWF delay_ms_00000_arg_del
03F3  2015  	CALL delay_ms_00000
03F4  17C5  	BSF gbl_FCV_EQ4_ERRORFLAG,7
03F5        label36
03F5  304C  	MOVLW 0x4C
03F6  00CF  	MOVWF FCD_PWM0_S_00053_arg_nDuty
03F7  210F  	CALL FCD_PWM0_S_00053
03F8  3064  	MOVLW 0x64
03F9  00CF  	MOVWF delay_ms_00000_arg_del
03FA  2015  	CALL delay_ms_00000
03FB  01CF  	CLRF FCD_PWM0_S_00053_arg_nDuty
03FC  210F  	CALL FCD_PWM0_S_00053
03FD  3064  	MOVLW 0x64
03FE  00CF  	MOVWF delay_ms_00000_arg_del
03FF  2015  	CALL delay_ms_00000
0400  2BCB  	GOTO	label35
0401        label37
0401  1143  	BCF gbl_FCV_EQ4_FLAG,2
0402  0008  	RETURN
0403        ; } FCM_Equipment4 function end

	ORG 0x00000403
0403        FCM_Equipm_00055
0403        ; { FCM_Equipment3 ; function begin
0403  1283  	BCF STATUS, RP0
0404  1303  	BCF STATUS, RP1
0405  01C9  	CLRF CompTempVar2231
0406  1EC2  	BTFSS gbl_FCV_EQ3_SE1,5
0407  0AC9  	INCF CompTempVar2231, F
0408  01C7  	CLRF CompTempVar2228
0409  1CC3  	BTFSS gbl_FCV_EQ3_SE2,1
040A  0AC7  	INCF CompTempVar2228, F
040B  0847  	MOVF CompTempVar2228, W
040C  05C9  	ANDWF CompTempVar2231, F
040D  01C8  	CLRF CompTempVar2230
040E  1E43  	BTFSS gbl_FCV_EQ3_FLAG,4
040F  0AC8  	INCF CompTempVar2230, F
0410  0848  	MOVF CompTempVar2230, W
0411  0549  	ANDWF CompTempVar2231, W
0412  1903  	BTFSC STATUS,Z
0413  2C27  	GOTO	label38
0414  3045  	MOVLW 0x45
0415  00CA  	MOVWF CompTempVar2232
0416  3033  	MOVLW 0x33
0417  00CB  	MOVWF CompTempVar2232+D'1'
0418  3042  	MOVLW 0x42
0419  00CC  	MOVWF CompTempVar2232+D'2'
041A  01CD  	CLRF CompTempVar2232+D'3'
041B  3000  	MOVLW HIGH(CompTempVar2232+D'0')
041C  00D4  	MOVWF FCD_RS2320_00052_arg_String+D'1'
041D  304A  	MOVLW LOW(CompTempVar2232+D'0')
041E  00D3  	MOVWF FCD_RS2320_00052_arg_String
041F  3003  	MOVLW 0x03
0420  00D9  	MOVWF FCD_RS2320_00052_arg_MSZ_String
0421  20F5  	CALL FCD_RS2320_00052
0422  30C8  	MOVLW 0xC8
0423  00CF  	MOVWF delay_ms_00000_arg_del
0424  2015  	CALL delay_ms_00000
0425  1643  	BSF gbl_FCV_EQ3_FLAG,4
0426  0008  	RETURN
0427        label38
0427  01CC  	CLRF CompTempVar2237
0428  1AC2  	BTFSC gbl_FCV_EQ3_SE1,5
0429  0ACC  	INCF CompTempVar2237, F
042A  01CA  	CLRF CompTempVar2234
042B  1CC3  	BTFSS gbl_FCV_EQ3_SE2,1
042C  0ACA  	INCF CompTempVar2234, F
042D  084A  	MOVF CompTempVar2234, W
042E  05CC  	ANDWF CompTempVar2237, F
042F  01CB  	CLRF CompTempVar2236
0430  1A43  	BTFSC gbl_FCV_EQ3_FLAG,4
0431  0ACB  	INCF CompTempVar2236, F
0432  084B  	MOVF CompTempVar2236, W
0433  054C  	ANDWF CompTempVar2237, W
0434  1903  	BTFSC STATUS,Z
0435  2C4C  	GOTO	label39
0436  3045  	MOVLW 0x45
0437  00D5  	MOVWF CompTempVar2238
0438  3033  	MOVLW 0x33
0439  00D6  	MOVWF CompTempVar2238+D'1'
043A  3050  	MOVLW 0x50
043B  00D7  	MOVWF CompTempVar2238+D'2'
043C  01D8  	CLRF CompTempVar2238+D'3'
043D  3000  	MOVLW HIGH(CompTempVar2238+D'0')
043E  00D4  	MOVWF FCD_RS2320_00052_arg_String+D'1'
043F  3055  	MOVLW LOW(CompTempVar2238+D'0')
0440  00D3  	MOVWF FCD_RS2320_00052_arg_String
0441  3003  	MOVLW 0x03
0442  00D9  	MOVWF FCD_RS2320_00052_arg_MSZ_String
0443  20F5  	CALL FCD_RS2320_00052
0444  30FF  	MOVLW 0xFF
0445  00CF  	MOVWF delay_ms_00000_arg_del
0446  2015  	CALL delay_ms_00000
0447  30F5  	MOVLW 0xF5
0448  00CF  	MOVWF delay_ms_00000_arg_del
0449  2015  	CALL delay_ms_00000
044A  1243  	BCF gbl_FCV_EQ3_FLAG,4
044B  0008  	RETURN
044C        label39
044C  01CE  	CLRF CompTempVar2241
044D  1EC2  	BTFSS gbl_FCV_EQ3_SE1,5
044E  0ACE  	INCF CompTempVar2241, F
044F  01CD  	CLRF CompTempVar2240
0450  18C3  	BTFSC gbl_FCV_EQ3_SE2,1
0451  0ACD  	INCF CompTempVar2240, F
0452  084D  	MOVF CompTempVar2240, W
0453  054E  	ANDWF CompTempVar2241, W
0454  1903  	BTFSC STATUS,Z
0455  0008  	RETURN
0456  10C6  	BCF gbl_FCV_EQ3_ERRORFLAG,1
0457        label40
0457  1CC3  	BTFSS gbl_FCV_EQ3_SE2,1
0458  2C8D  	GOTO	label42
0459  3020  	MOVLW 0x20
045A  1683  	BSF STATUS, RP0
045B  0405  	IORWF gbl_trisa, W
045C  0085  	MOVWF gbl_trisa
045D  3020  	MOVLW 0x20
045E  1283  	BCF STATUS, RP0
045F  0505  	ANDWF gbl_porta, W
0460  00CF  	MOVWF CompTempVar2242
0461  01D0  	CLRF CompTempVar2243
0462  3020  	MOVLW 0x20
0463  024F  	SUBWF CompTempVar2242, W
0464  1903  	BTFSC STATUS,Z
0465  0AD0  	INCF CompTempVar2243, F
0466  10C3  	BCF gbl_FCV_EQ3_SE2,1
0467  0850  	MOVF CompTempVar2243, W
0468  1D03  	BTFSS STATUS,Z
0469  14C3  	BSF gbl_FCV_EQ3_SE2,1
046A  18C6  	BTFSC gbl_FCV_EQ3_ERRORFLAG,1
046B  2C81  	GOTO	label41
046C  3045  	MOVLW 0x45
046D  00D5  	MOVWF CompTempVar2244
046E  3033  	MOVLW 0x33
046F  00D6  	MOVWF CompTempVar2244+D'1'
0470  3052  	MOVLW 0x52
0471  00D7  	MOVWF CompTempVar2244+D'2'
0472  01D8  	CLRF CompTempVar2244+D'3'
0473  3000  	MOVLW HIGH(CompTempVar2244+D'0')
0474  00D4  	MOVWF FCD_RS2320_00052_arg_String+D'1'
0475  3055  	MOVLW LOW(CompTempVar2244+D'0')
0476  00D3  	MOVWF FCD_RS2320_00052_arg_String
0477  3003  	MOVLW 0x03
0478  00D9  	MOVWF FCD_RS2320_00052_arg_MSZ_String
0479  20F5  	CALL FCD_RS2320_00052
047A  30FF  	MOVLW 0xFF
047B  00CF  	MOVWF delay_ms_00000_arg_del
047C  2015  	CALL delay_ms_00000
047D  30F5  	MOVLW 0xF5
047E  00CF  	MOVWF delay_ms_00000_arg_del
047F  2015  	CALL delay_ms_00000
0480  14C6  	BSF gbl_FCV_EQ3_ERRORFLAG,1
0481        label41
0481  304C  	MOVLW 0x4C
0482  00CF  	MOVWF FCD_PWM0_S_00053_arg_nDuty
0483  210F  	CALL FCD_PWM0_S_00053
0484  3064  	MOVLW 0x64
0485  00CF  	MOVWF delay_ms_00000_arg_del
0486  2015  	CALL delay_ms_00000
0487  01CF  	CLRF FCD_PWM0_S_00053_arg_nDuty
0488  210F  	CALL FCD_PWM0_S_00053
0489  3064  	MOVLW 0x64
048A  00CF  	MOVWF delay_ms_00000_arg_del
048B  2015  	CALL delay_ms_00000
048C  2C57  	GOTO	label40
048D        label42
048D  1243  	BCF gbl_FCV_EQ3_FLAG,4
048E  0008  	RETURN
048F        ; } FCM_Equipment3 function end

	ORG 0x0000048F
048F        FCM_Equipm_00054
048F        ; { FCM_Equipment2 ; function begin
048F  1283  	BCF STATUS, RP0
0490  1303  	BCF STATUS, RP1
0491  01C9  	CLRF CompTempVar2213
0492  1CC2  	BTFSS gbl_FCV_EQ2_SE1,1
0493  0AC9  	INCF CompTempVar2213, F
0494  01C7  	CLRF CompTempVar2210
0495  1F42  	BTFSS gbl_FCV_EQ2_SE2,6
0496  0AC7  	INCF CompTempVar2210, F
0497  0847  	MOVF CompTempVar2210, W
0498  05C9  	ANDWF CompTempVar2213, F
0499  01C8  	CLRF CompTempVar2212
049A  1FC3  	BTFSS gbl_FCV_EQ2_FLAG,7
049B  0AC8  	INCF CompTempVar2212, F
049C  0848  	MOVF CompTempVar2212, W
049D  0549  	ANDWF CompTempVar2213, W
049E  1903  	BTFSC STATUS,Z
049F  2CB3  	GOTO	label43
04A0  3045  	MOVLW 0x45
04A1  00CA  	MOVWF CompTempVar2214
04A2  3032  	MOVLW 0x32
04A3  00CB  	MOVWF CompTempVar2214+D'1'
04A4  3042  	MOVLW 0x42
04A5  00CC  	MOVWF CompTempVar2214+D'2'
04A6  01CD  	CLRF CompTempVar2214+D'3'
04A7  3000  	MOVLW HIGH(CompTempVar2214+D'0')
04A8  00D4  	MOVWF FCD_RS2320_00052_arg_String+D'1'
04A9  304A  	MOVLW LOW(CompTempVar2214+D'0')
04AA  00D3  	MOVWF FCD_RS2320_00052_arg_String
04AB  3003  	MOVLW 0x03
04AC  00D9  	MOVWF FCD_RS2320_00052_arg_MSZ_String
04AD  20F5  	CALL FCD_RS2320_00052
04AE  30C8  	MOVLW 0xC8
04AF  00CF  	MOVWF delay_ms_00000_arg_del
04B0  2015  	CALL delay_ms_00000
04B1  17C3  	BSF gbl_FCV_EQ2_FLAG,7
04B2  0008  	RETURN
04B3        label43
04B3  01CC  	CLRF CompTempVar2219
04B4  18C2  	BTFSC gbl_FCV_EQ2_SE1,1
04B5  0ACC  	INCF CompTempVar2219, F
04B6  01CA  	CLRF CompTempVar2216
04B7  1F42  	BTFSS gbl_FCV_EQ2_SE2,6
04B8  0ACA  	INCF CompTempVar2216, F
04B9  084A  	MOVF CompTempVar2216, W
04BA  05CC  	ANDWF CompTempVar2219, F
04BB  01CB  	CLRF CompTempVar2218
04BC  1BC3  	BTFSC gbl_FCV_EQ2_FLAG,7
04BD  0ACB  	INCF CompTempVar2218, F
04BE  084B  	MOVF CompTempVar2218, W
04BF  054C  	ANDWF CompTempVar2219, W
04C0  1903  	BTFSC STATUS,Z
04C1  2CD8  	GOTO	label44
04C2  3045  	MOVLW 0x45
04C3  00D5  	MOVWF CompTempVar2220
04C4  3032  	MOVLW 0x32
04C5  00D6  	MOVWF CompTempVar2220+D'1'
04C6  3050  	MOVLW 0x50
04C7  00D7  	MOVWF CompTempVar2220+D'2'
04C8  01D8  	CLRF CompTempVar2220+D'3'
04C9  3000  	MOVLW HIGH(CompTempVar2220+D'0')
04CA  00D4  	MOVWF FCD_RS2320_00052_arg_String+D'1'
04CB  3055  	MOVLW LOW(CompTempVar2220+D'0')
04CC  00D3  	MOVWF FCD_RS2320_00052_arg_String
04CD  3003  	MOVLW 0x03
04CE  00D9  	MOVWF FCD_RS2320_00052_arg_MSZ_String
04CF  20F5  	CALL FCD_RS2320_00052
04D0  30FF  	MOVLW 0xFF
04D1  00CF  	MOVWF delay_ms_00000_arg_del
04D2  2015  	CALL delay_ms_00000
04D3  30F5  	MOVLW 0xF5
04D4  00CF  	MOVWF delay_ms_00000_arg_del
04D5  2015  	CALL delay_ms_00000
04D6  13C3  	BCF gbl_FCV_EQ2_FLAG,7
04D7  0008  	RETURN
04D8        label44
04D8  01CE  	CLRF CompTempVar2223
04D9  1CC2  	BTFSS gbl_FCV_EQ2_SE1,1
04DA  0ACE  	INCF CompTempVar2223, F
04DB  01CD  	CLRF CompTempVar2222
04DC  1B42  	BTFSC gbl_FCV_EQ2_SE2,6
04DD  0ACD  	INCF CompTempVar2222, F
04DE  084D  	MOVF CompTempVar2222, W
04DF  054E  	ANDWF CompTempVar2223, W
04E0  1903  	BTFSC STATUS,Z
04E1  0008  	RETURN
04E2  1242  	BCF gbl_FCV_EQ2_ERRORFLAG,4
04E3        label45
04E3  1F42  	BTFSS gbl_FCV_EQ2_SE2,6
04E4  2D19  	GOTO	label47
04E5  3008  	MOVLW 0x08
04E6  1683  	BSF STATUS, RP0
04E7  0405  	IORWF gbl_trisa, W
04E8  0085  	MOVWF gbl_trisa
04E9  3008  	MOVLW 0x08
04EA  1283  	BCF STATUS, RP0
04EB  0505  	ANDWF gbl_porta, W
04EC  00CF  	MOVWF CompTempVar2224
04ED  01D0  	CLRF CompTempVar2225
04EE  3008  	MOVLW 0x08
04EF  024F  	SUBWF CompTempVar2224, W
04F0  1903  	BTFSC STATUS,Z
04F1  0AD0  	INCF CompTempVar2225, F
04F2  1342  	BCF gbl_FCV_EQ2_SE2,6
04F3  0850  	MOVF CompTempVar2225, W
04F4  1D03  	BTFSS STATUS,Z
04F5  1742  	BSF gbl_FCV_EQ2_SE2,6
04F6  1A42  	BTFSC gbl_FCV_EQ2_ERRORFLAG,4
04F7  2D0D  	GOTO	label46
04F8  3045  	MOVLW 0x45
04F9  00D5  	MOVWF CompTempVar2226
04FA  3032  	MOVLW 0x32
04FB  00D6  	MOVWF CompTempVar2226+D'1'
04FC  3052  	MOVLW 0x52
04FD  00D7  	MOVWF CompTempVar2226+D'2'
04FE  01D8  	CLRF CompTempVar2226+D'3'
04FF  3000  	MOVLW HIGH(CompTempVar2226+D'0')
0500  00D4  	MOVWF FCD_RS2320_00052_arg_String+D'1'
0501  3055  	MOVLW LOW(CompTempVar2226+D'0')
0502  00D3  	MOVWF FCD_RS2320_00052_arg_String
0503  3003  	MOVLW 0x03
0504  00D9  	MOVWF FCD_RS2320_00052_arg_MSZ_String
0505  20F5  	CALL FCD_RS2320_00052
0506  30FF  	MOVLW 0xFF
0507  00CF  	MOVWF delay_ms_00000_arg_del
0508  2015  	CALL delay_ms_00000
0509  30F5  	MOVLW 0xF5
050A  00CF  	MOVWF delay_ms_00000_arg_del
050B  2015  	CALL delay_ms_00000
050C  1642  	BSF gbl_FCV_EQ2_ERRORFLAG,4
050D        label46
050D  304C  	MOVLW 0x4C
050E  00CF  	MOVWF FCD_PWM0_S_00053_arg_nDuty
050F  210F  	CALL FCD_PWM0_S_00053
0510  3064  	MOVLW 0x64
0511  00CF  	MOVWF delay_ms_00000_arg_del
0512  2015  	CALL delay_ms_00000
0513  01CF  	CLRF FCD_PWM0_S_00053_arg_nDuty
0514  210F  	CALL FCD_PWM0_S_00053
0515  3064  	MOVLW 0x64
0516  00CF  	MOVWF delay_ms_00000_arg_del
0517  2015  	CALL delay_ms_00000
0518  2CE3  	GOTO	label45
0519        label47
0519  13C3  	BCF gbl_FCV_EQ2_FLAG,7
051A  0008  	RETURN
051B        ; } FCM_Equipment2 function end

	ORG 0x0000051B
051B        FCM_Equipm_00051
051B        ; { FCM_Equipment1 ; function begin
051B  1283  	BCF STATUS, RP0
051C  1303  	BCF STATUS, RP1
051D  01C9  	CLRF CompTempVar2191
051E  1C42  	BTFSS gbl_FCV_EQ1_SE1,0
051F  0AC9  	INCF CompTempVar2191, F
0520  01C7  	CLRF CompTempVar2188
0521  1D42  	BTFSS gbl_FCV_EQ1_SE2,2
0522  0AC7  	INCF CompTempVar2188, F
0523  0847  	MOVF CompTempVar2188, W
0524  05C9  	ANDWF CompTempVar2191, F
0525  01C8  	CLRF CompTempVar2190
0526  1E45  	BTFSS gbl_FCV_EQ1_FLAG,4
0527  0AC8  	INCF CompTempVar2190, F
0528  0848  	MOVF CompTempVar2190, W
0529  0549  	ANDWF CompTempVar2191, W
052A  1903  	BTFSC STATUS,Z
052B  2D3F  	GOTO	label48
052C  3045  	MOVLW 0x45
052D  00CC  	MOVWF CompTempVar2192
052E  3031  	MOVLW 0x31
052F  00CD  	MOVWF CompTempVar2192+D'1'
0530  3042  	MOVLW 0x42
0531  00CE  	MOVWF CompTempVar2192+D'2'
0532  01CF  	CLRF CompTempVar2192+D'3'
0533  3000  	MOVLW HIGH(CompTempVar2192+D'0')
0534  00D4  	MOVWF FCD_RS2320_00052_arg_String+D'1'
0535  304C  	MOVLW LOW(CompTempVar2192+D'0')
0536  00D3  	MOVWF FCD_RS2320_00052_arg_String
0537  3003  	MOVLW 0x03
0538  00D9  	MOVWF FCD_RS2320_00052_arg_MSZ_String
0539  20F5  	CALL FCD_RS2320_00052
053A  30C8  	MOVLW 0xC8
053B  00CF  	MOVWF delay_ms_00000_arg_del
053C  2015  	CALL delay_ms_00000
053D  1645  	BSF gbl_FCV_EQ1_FLAG,4
053E  0008  	RETURN
053F        label48
053F  01CC  	CLRF CompTempVar2197
0540  1842  	BTFSC gbl_FCV_EQ1_SE1,0
0541  0ACC  	INCF CompTempVar2197, F
0542  01CA  	CLRF CompTempVar2194
0543  1D42  	BTFSS gbl_FCV_EQ1_SE2,2
0544  0ACA  	INCF CompTempVar2194, F
0545  084A  	MOVF CompTempVar2194, W
0546  05CC  	ANDWF CompTempVar2197, F
0547  01CB  	CLRF CompTempVar2196
0548  1A45  	BTFSC gbl_FCV_EQ1_FLAG,4
0549  0ACB  	INCF CompTempVar2196, F
054A  084B  	MOVF CompTempVar2196, W
054B  054C  	ANDWF CompTempVar2197, W
054C  1903  	BTFSC STATUS,Z
054D  2D64  	GOTO	label49
054E  3045  	MOVLW 0x45
054F  00CF  	MOVWF CompTempVar2198
0550  3031  	MOVLW 0x31
0551  00D0  	MOVWF CompTempVar2198+D'1'
0552  3050  	MOVLW 0x50
0553  00D1  	MOVWF CompTempVar2198+D'2'
0554  01D2  	CLRF CompTempVar2198+D'3'
0555  3000  	MOVLW HIGH(CompTempVar2198+D'0')
0556  00D4  	MOVWF FCD_RS2320_00052_arg_String+D'1'
0557  304F  	MOVLW LOW(CompTempVar2198+D'0')
0558  00D3  	MOVWF FCD_RS2320_00052_arg_String
0559  3003  	MOVLW 0x03
055A  00D9  	MOVWF FCD_RS2320_00052_arg_MSZ_String
055B  20F5  	CALL FCD_RS2320_00052
055C  30FF  	MOVLW 0xFF
055D  00CF  	MOVWF delay_ms_00000_arg_del
055E  2015  	CALL delay_ms_00000
055F  30F5  	MOVLW 0xF5
0560  00CF  	MOVWF delay_ms_00000_arg_del
0561  2015  	CALL delay_ms_00000
0562  1245  	BCF gbl_FCV_EQ1_FLAG,4
0563  0008  	RETURN
0564        label49
0564  01CE  	CLRF CompTempVar2201
0565  1C42  	BTFSS gbl_FCV_EQ1_SE1,0
0566  0ACE  	INCF CompTempVar2201, F
0567  01CD  	CLRF CompTempVar2200
0568  1942  	BTFSC gbl_FCV_EQ1_SE2,2
0569  0ACD  	INCF CompTempVar2200, F
056A  084D  	MOVF CompTempVar2200, W
056B  054E  	ANDWF CompTempVar2201, W
056C  1903  	BTFSC STATUS,Z
056D  0008  	RETURN
056E  1345  	BCF gbl_FCV_EQ1_ERRORFLAG,6
056F        label50
056F  1D42  	BTFSS gbl_FCV_EQ1_SE2,2
0570  2DA5  	GOTO	label52
0571  3002  	MOVLW 0x02
0572  1683  	BSF STATUS, RP0
0573  0405  	IORWF gbl_trisa, W
0574  0085  	MOVWF gbl_trisa
0575  3002  	MOVLW 0x02
0576  1283  	BCF STATUS, RP0
0577  0505  	ANDWF gbl_porta, W
0578  00CF  	MOVWF CompTempVar2202
0579  01D0  	CLRF CompTempVar2203
057A  3002  	MOVLW 0x02
057B  024F  	SUBWF CompTempVar2202, W
057C  1903  	BTFSC STATUS,Z
057D  0AD0  	INCF CompTempVar2203, F
057E  1142  	BCF gbl_FCV_EQ1_SE2,2
057F  0850  	MOVF CompTempVar2203, W
0580  1D03  	BTFSS STATUS,Z
0581  1542  	BSF gbl_FCV_EQ1_SE2,2
0582  1B45  	BTFSC gbl_FCV_EQ1_ERRORFLAG,6
0583  2D99  	GOTO	label51
0584  3045  	MOVLW 0x45
0585  00D5  	MOVWF CompTempVar2204
0586  3031  	MOVLW 0x31
0587  00D6  	MOVWF CompTempVar2204+D'1'
0588  3052  	MOVLW 0x52
0589  00D7  	MOVWF CompTempVar2204+D'2'
058A  01D8  	CLRF CompTempVar2204+D'3'
058B  3000  	MOVLW HIGH(CompTempVar2204+D'0')
058C  00D4  	MOVWF FCD_RS2320_00052_arg_String+D'1'
058D  3055  	MOVLW LOW(CompTempVar2204+D'0')
058E  00D3  	MOVWF FCD_RS2320_00052_arg_String
058F  3003  	MOVLW 0x03
0590  00D9  	MOVWF FCD_RS2320_00052_arg_MSZ_String
0591  20F5  	CALL FCD_RS2320_00052
0592  30FF  	MOVLW 0xFF
0593  00CF  	MOVWF delay_ms_00000_arg_del
0594  2015  	CALL delay_ms_00000
0595  30F5  	MOVLW 0xF5
0596  00CF  	MOVWF delay_ms_00000_arg_del
0597  2015  	CALL delay_ms_00000
0598  1745  	BSF gbl_FCV_EQ1_ERRORFLAG,6
0599        label51
0599  304C  	MOVLW 0x4C
059A  00CF  	MOVWF FCD_PWM0_S_00053_arg_nDuty
059B  210F  	CALL FCD_PWM0_S_00053
059C  3064  	MOVLW 0x64
059D  00CF  	MOVWF delay_ms_00000_arg_del
059E  2015  	CALL delay_ms_00000
059F  01CF  	CLRF FCD_PWM0_S_00053_arg_nDuty
05A0  210F  	CALL FCD_PWM0_S_00053
05A1  3064  	MOVLW 0x64
05A2  00CF  	MOVWF delay_ms_00000_arg_del
05A3  2015  	CALL delay_ms_00000
05A4  2D6F  	GOTO	label50
05A5        label52
05A5  1245  	BCF gbl_FCV_EQ1_FLAG,4
05A6  0008  	RETURN
05A7        ; } FCM_Equipment1 function end

	ORG 0x000005A7
05A7        FCD_RS2320_00069
05A7        ; { FCD_RS2320_ReceiveRS232Char ; function begin
05A7  0847  	MOVF FCD_RS2320_00069_arg_nTimeout, W
05A8  00C8  	MOVWF FC_CAL_UAR_00065_arg_nTimeout
05A9  2081  	CALL FC_CAL_UAR_00065
05AA  084F  	MOVF CompTempVarRet2371, W
05AB  00C9  	MOVWF CompTempVarRet2372
05AC  0850  	MOVF CompTempVarRet2371+D'1', W
05AD  00CA  	MOVWF CompTempVarRet2372+D'1'
05AE  0008  	RETURN
05AF        ; } FCD_RS2320_ReceiveRS232Char function end

	ORG 0x000005AF
05AF        FCD_PWM0_E_00072
05AF        ; { FCD_PWM0_Enable ; function begin
05AF  309B  	MOVLW 0x9B
05B0  1283  	BCF STATUS, RP0
05B1  1303  	BCF STATUS, RP1
05B2  00C7  	MOVWF FC_CAL_PWM_00070_arg_period
05B3  3010  	MOVLW 0x10
05B4  00C8  	MOVWF FC_CAL_PWM_00070_arg_prescaler
05B5  01C9  	CLRF FC_CAL_PWM_00070_arg_prescaler+D'1'
05B6  20CD  	CALL FC_CAL_PWM_00070
05B7  20ED  	CALL FC_CAL_PWM_0006D
05B8  0008  	RETURN
05B9        ; } FCD_PWM0_Enable function end

	ORG 0x000005B9
05B9        FCD_LCDDis_0005E
05B9        ; { FCD_LCDDisplay0_PrintString ; function begin
05B9  01DA  	CLRF FCD_LCDDis_0005E_1_idx
05BA  01DA  	CLRF FCD_LCDDis_0005E_1_idx
05BB        label53
05BB  0859  	MOVF FCD_LCDDis_0005E_arg_MSZ_String, W
05BC  025A  	SUBWF FCD_LCDDis_0005E_1_idx, W
05BD  1803  	BTFSC STATUS,C
05BE  0008  	RETURN
05BF  1383  	BCF STATUS,IRP
05C0  1848  	BTFSC FCD_LCDDis_0005E_arg_String+D'1',0
05C1  1783  	BSF STATUS,IRP
05C2  0847  	MOVF FCD_LCDDis_0005E_arg_String, W
05C3  075A  	ADDWF FCD_LCDDis_0005E_1_idx, W
05C4  0084  	MOVWF FSR
05C5  0880  	MOVF INDF, F
05C6  1903  	BTFSC STATUS,Z
05C7  0008  	RETURN
05C8  1383  	BCF STATUS,IRP
05C9  1848  	BTFSC FCD_LCDDis_0005E_arg_String+D'1',0
05CA  1783  	BSF STATUS,IRP
05CB  0847  	MOVF FCD_LCDDis_0005E_arg_String, W
05CC  075A  	ADDWF FCD_LCDDis_0005E_1_idx, W
05CD  0084  	MOVWF FSR
05CE  0800  	MOVF INDF, W
05CF  00DB  	MOVWF FCD_LCDDis_00057_arg_in
05D0  3010  	MOVLW 0x10
05D1  00DC  	MOVWF FCD_LCDDis_00057_arg_mask
05D2  2113  	CALL FCD_LCDDis_00057
05D3  0ADA  	INCF FCD_LCDDis_0005E_1_idx, F
05D4  2DBB  	GOTO	label53
05D5        ; } FCD_LCDDisplay0_PrintString function end

	ORG 0x000005D5
05D5        FCD_LCDDis_0005D
05D5        ; { FCD_LCDDisplay0_PrintNumber ; function begin
05D5  1FC8  	BTFSS FCD_LCDDis_0005D_arg_Number+D'1',7
05D6  2DE4  	GOTO	label54
05D7  302D  	MOVLW 0x2D
05D8  00DB  	MOVWF FCD_LCDDis_00057_arg_in
05D9  3010  	MOVLW 0x10
05DA  00DC  	MOVWF FCD_LCDDis_00057_arg_mask
05DB  2113  	CALL FCD_LCDDis_00057
05DC  0847  	MOVF FCD_LCDDis_0005D_arg_Number, W
05DD  3C00  	SUBLW 0x00
05DE  00CC  	MOVWF CompTempVar2343
05DF  09C8  	COMF FCD_LCDDis_0005D_arg_Number+D'1', F
05E0  1803  	BTFSC STATUS,C
05E1  0AC8  	INCF FCD_LCDDis_0005D_arg_Number+D'1', F
05E2  084C  	MOVF CompTempVar2343, W
05E3  00C7  	MOVWF FCD_LCDDis_0005D_arg_Number
05E4        label54
05E4  0847  	MOVF FCD_LCDDis_0005D_arg_Number, W
05E5  00C9  	MOVWF FCD_LCDDis_0005D_1_tmp_int
05E6  0848  	MOVF FCD_LCDDis_0005D_arg_Number+D'1', W
05E7  00CA  	MOVWF FCD_LCDDis_0005D_1_tmp_int+D'1'
05E8  3027  	MOVLW 0x27
05E9  0248  	SUBWF FCD_LCDDis_0005D_arg_Number+D'1', W
05EA  1D03  	BTFSS STATUS,Z
05EB  2DEE  	GOTO	label55
05EC  3010  	MOVLW 0x10
05ED  0247  	SUBWF FCD_LCDDis_0005D_arg_Number, W
05EE        label55
05EE  1C03  	BTFSS STATUS,C
05EF  2E1C  	GOTO	label59
05F0  1BC8  	BTFSC FCD_LCDDis_0005D_arg_Number+D'1',7
05F1  2E1C  	GOTO	label59
05F2  01D0  	CLRF CompTempVar2346
05F3  0849  	MOVF FCD_LCDDis_0005D_1_tmp_int, W
05F4  00CC  	MOVWF __div_16_1_00003_arg_a
05F5  084A  	MOVF FCD_LCDDis_0005D_1_tmp_int+D'1', W
05F6  00CD  	MOVWF __div_16_1_00003_arg_a+D'1'
05F7  1FCA  	BTFSS FCD_LCDDis_0005D_1_tmp_int+D'1',7
05F8  2DFF  	GOTO	label56
05F9  09CC  	COMF __div_16_1_00003_arg_a, F
05FA  09CD  	COMF __div_16_1_00003_arg_a+D'1', F
05FB  0ACC  	INCF __div_16_1_00003_arg_a, F
05FC  1903  	BTFSC STATUS,Z
05FD  0ACD  	INCF __div_16_1_00003_arg_a+D'1', F
05FE  0AD0  	INCF CompTempVar2346, F
05FF        label56
05FF  3010  	MOVLW 0x10
0600  00CE  	MOVWF __div_16_1_00003_arg_b
0601  3027  	MOVLW 0x27
0602  00CF  	MOVWF __div_16_1_00003_arg_b+D'1'
0603  2057  	CALL __div_16_1_00003
0604  0855  	MOVF CompTempVarRet214, W
0605  00CB  	MOVWF FCD_LCDDis_0005D_1_tmp_byte
0606  1C50  	BTFSS CompTempVar2346,0
0607  2E0A  	GOTO	label57
0608  09CB  	COMF FCD_LCDDis_0005D_1_tmp_byte, F
0609  0ACB  	INCF FCD_LCDDis_0005D_1_tmp_byte, F
060A        label57
060A  084B  	MOVF FCD_LCDDis_0005D_1_tmp_byte, W
060B  3E30  	ADDLW 0x30
060C  00DB  	MOVWF FCD_LCDDis_00057_arg_in
060D  3010  	MOVLW 0x10
060E  00DC  	MOVWF FCD_LCDDis_00057_arg_mask
060F  2113  	CALL FCD_LCDDis_00057
0610        label58
0610  084B  	MOVF FCD_LCDDis_0005D_1_tmp_byte, W
0611  3C00  	SUBLW 0x00
0612  1803  	BTFSC STATUS,C
0613  2E1C  	GOTO	label59
0614  3010  	MOVLW 0x10
0615  02C9  	SUBWF FCD_LCDDis_0005D_1_tmp_int, F
0616  3027  	MOVLW 0x27
0617  1C03  	BTFSS STATUS,C
0618  3028  	MOVLW 0x28
0619  02CA  	SUBWF FCD_LCDDis_0005D_1_tmp_int+D'1', F
061A  03CB  	DECF FCD_LCDDis_0005D_1_tmp_byte, F
061B  2E10  	GOTO	label58
061C        label59
061C  3003  	MOVLW 0x03
061D  0248  	SUBWF FCD_LCDDis_0005D_arg_Number+D'1', W
061E  1D03  	BTFSS STATUS,Z
061F  2E22  	GOTO	label60
0620  30E8  	MOVLW 0xE8
0621  0247  	SUBWF FCD_LCDDis_0005D_arg_Number, W
0622        label60
0622  1C03  	BTFSS STATUS,C
0623  2E52  	GOTO	label64
0624  1BC8  	BTFSC FCD_LCDDis_0005D_arg_Number+D'1',7
0625  2E52  	GOTO	label64
0626  01D1  	CLRF CompTempVar2350
0627  0849  	MOVF FCD_LCDDis_0005D_1_tmp_int, W
0628  00CC  	MOVWF __div_16_1_00003_arg_a
0629  084A  	MOVF FCD_LCDDis_0005D_1_tmp_int+D'1', W
062A  00CD  	MOVWF __div_16_1_00003_arg_a+D'1'
062B  1FCA  	BTFSS FCD_LCDDis_0005D_1_tmp_int+D'1',7
062C  2E33  	GOTO	label61
062D  09CC  	COMF __div_16_1_00003_arg_a, F
062E  09CD  	COMF __div_16_1_00003_arg_a+D'1', F
062F  0ACC  	INCF __div_16_1_00003_arg_a, F
0630  1903  	BTFSC STATUS,Z
0631  0ACD  	INCF __div_16_1_00003_arg_a+D'1', F
0632  0AD1  	INCF CompTempVar2350, F
0633        label61
0633  30E8  	MOVLW 0xE8
0634  00CE  	MOVWF __div_16_1_00003_arg_b
0635  3003  	MOVLW 0x03
0636  00CF  	MOVWF __div_16_1_00003_arg_b+D'1'
0637  2057  	CALL __div_16_1_00003
0638  0855  	MOVF CompTempVarRet214, W
0639  00D0  	MOVWF CompTempVar2349
063A  1C51  	BTFSS CompTempVar2350,0
063B  2E3E  	GOTO	label62
063C  09D0  	COMF CompTempVar2349, F
063D  0AD0  	INCF CompTempVar2349, F
063E        label62
063E  0850  	MOVF CompTempVar2349, W
063F  00CB  	MOVWF FCD_LCDDis_0005D_1_tmp_byte
0640  084B  	MOVF FCD_LCDDis_0005D_1_tmp_byte, W
0641  3E30  	ADDLW 0x30
0642  00DB  	MOVWF FCD_LCDDis_00057_arg_in
0643  3010  	MOVLW 0x10
0644  00DC  	MOVWF FCD_LCDDis_00057_arg_mask
0645  2113  	CALL FCD_LCDDis_00057
0646        label63
0646  084B  	MOVF FCD_LCDDis_0005D_1_tmp_byte, W
0647  3C00  	SUBLW 0x00
0648  1803  	BTFSC STATUS,C
0649  2E52  	GOTO	label64
064A  30E8  	MOVLW 0xE8
064B  02C9  	SUBWF FCD_LCDDis_0005D_1_tmp_int, F
064C  3003  	MOVLW 0x03
064D  1C03  	BTFSS STATUS,C
064E  3004  	MOVLW 0x04
064F  02CA  	SUBWF FCD_LCDDis_0005D_1_tmp_int+D'1', F
0650  03CB  	DECF FCD_LCDDis_0005D_1_tmp_byte, F
0651  2E46  	GOTO	label63
0652        label64
0652  0848  	MOVF FCD_LCDDis_0005D_arg_Number+D'1', W
0653  3A80  	XORLW 0x80
0654  00CC  	MOVWF CompTempVar2353
0655  3080  	MOVLW 0x80
0656  024C  	SUBWF CompTempVar2353, W
0657  1D03  	BTFSS STATUS,Z
0658  2E5B  	GOTO	label65
0659  3064  	MOVLW 0x64
065A  0247  	SUBWF FCD_LCDDis_0005D_arg_Number, W
065B        label65
065B  1C03  	BTFSS STATUS,C
065C  2E87  	GOTO	label69
065D  01D1  	CLRF CompTempVar2355
065E  0849  	MOVF FCD_LCDDis_0005D_1_tmp_int, W
065F  00CC  	MOVWF __div_16_1_00003_arg_a
0660  084A  	MOVF FCD_LCDDis_0005D_1_tmp_int+D'1', W
0661  00CD  	MOVWF __div_16_1_00003_arg_a+D'1'
0662  1FCA  	BTFSS FCD_LCDDis_0005D_1_tmp_int+D'1',7
0663  2E6A  	GOTO	label66
0664  09CC  	COMF __div_16_1_00003_arg_a, F
0665  09CD  	COMF __div_16_1_00003_arg_a+D'1', F
0666  0ACC  	INCF __div_16_1_00003_arg_a, F
0667  1903  	BTFSC STATUS,Z
0668  0ACD  	INCF __div_16_1_00003_arg_a+D'1', F
0669  0AD1  	INCF CompTempVar2355, F
066A        label66
066A  3064  	MOVLW 0x64
066B  00CE  	MOVWF __div_16_1_00003_arg_b
066C  01CF  	CLRF __div_16_1_00003_arg_b+D'1'
066D  2057  	CALL __div_16_1_00003
066E  0855  	MOVF CompTempVarRet214, W
066F  00D0  	MOVWF CompTempVar2354
0670  1C51  	BTFSS CompTempVar2355,0
0671  2E74  	GOTO	label67
0672  09D0  	COMF CompTempVar2354, F
0673  0AD0  	INCF CompTempVar2354, F
0674        label67
0674  0850  	MOVF CompTempVar2354, W
0675  00CB  	MOVWF FCD_LCDDis_0005D_1_tmp_byte
0676  084B  	MOVF FCD_LCDDis_0005D_1_tmp_byte, W
0677  3E30  	ADDLW 0x30
0678  00DB  	MOVWF FCD_LCDDis_00057_arg_in
0679  3010  	MOVLW 0x10
067A  00DC  	MOVWF FCD_LCDDis_00057_arg_mask
067B  2113  	CALL FCD_LCDDis_00057
067C        label68
067C  084B  	MOVF FCD_LCDDis_0005D_1_tmp_byte, W
067D  3C00  	SUBLW 0x00
067E  1803  	BTFSC STATUS,C
067F  2E87  	GOTO	label69
0680  3064  	MOVLW 0x64
0681  02C9  	SUBWF FCD_LCDDis_0005D_1_tmp_int, F
0682  08CA  	MOVF FCD_LCDDis_0005D_1_tmp_int+D'1', F
0683  1C03  	BTFSS STATUS,C
0684  03CA  	DECF FCD_LCDDis_0005D_1_tmp_int+D'1', F
0685  03CB  	DECF FCD_LCDDis_0005D_1_tmp_byte, F
0686  2E7C  	GOTO	label68
0687        label69
0687  0848  	MOVF FCD_LCDDis_0005D_arg_Number+D'1', W
0688  3A80  	XORLW 0x80
0689  00CC  	MOVWF CompTempVar2358
068A  3080  	MOVLW 0x80
068B  024C  	SUBWF CompTempVar2358, W
068C  1D03  	BTFSS STATUS,Z
068D  2E90  	GOTO	label70
068E  300A  	MOVLW 0x0A
068F  0247  	SUBWF FCD_LCDDis_0005D_arg_Number, W
0690        label70
0690  1C03  	BTFSS STATUS,C
0691  2EBC  	GOTO	label74
0692  01D1  	CLRF CompTempVar2360
0693  0849  	MOVF FCD_LCDDis_0005D_1_tmp_int, W
0694  00CC  	MOVWF __div_16_1_00003_arg_a
0695  084A  	MOVF FCD_LCDDis_0005D_1_tmp_int+D'1', W
0696  00CD  	MOVWF __div_16_1_00003_arg_a+D'1'
0697  1FCA  	BTFSS FCD_LCDDis_0005D_1_tmp_int+D'1',7
0698  2E9F  	GOTO	label71
0699  09CC  	COMF __div_16_1_00003_arg_a, F
069A  09CD  	COMF __div_16_1_00003_arg_a+D'1', F
069B  0ACC  	INCF __div_16_1_00003_arg_a, F
069C  1903  	BTFSC STATUS,Z
069D  0ACD  	INCF __div_16_1_00003_arg_a+D'1', F
069E  0AD1  	INCF CompTempVar2360, F
069F        label71
069F  300A  	MOVLW 0x0A
06A0  00CE  	MOVWF __div_16_1_00003_arg_b
06A1  01CF  	CLRF __div_16_1_00003_arg_b+D'1'
06A2  2057  	CALL __div_16_1_00003
06A3  0855  	MOVF CompTempVarRet214, W
06A4  00D0  	MOVWF CompTempVar2359
06A5  1C51  	BTFSS CompTempVar2360,0
06A6  2EA9  	GOTO	label72
06A7  09D0  	COMF CompTempVar2359, F
06A8  0AD0  	INCF CompTempVar2359, F
06A9        label72
06A9  0850  	MOVF CompTempVar2359, W
06AA  00CB  	MOVWF FCD_LCDDis_0005D_1_tmp_byte
06AB  084B  	MOVF FCD_LCDDis_0005D_1_tmp_byte, W
06AC  3E30  	ADDLW 0x30
06AD  00DB  	MOVWF FCD_LCDDis_00057_arg_in
06AE  3010  	MOVLW 0x10
06AF  00DC  	MOVWF FCD_LCDDis_00057_arg_mask
06B0  2113  	CALL FCD_LCDDis_00057
06B1        label73
06B1  084B  	MOVF FCD_LCDDis_0005D_1_tmp_byte, W
06B2  3C00  	SUBLW 0x00
06B3  1803  	BTFSC STATUS,C
06B4  2EBC  	GOTO	label74
06B5  300A  	MOVLW 0x0A
06B6  02C9  	SUBWF FCD_LCDDis_0005D_1_tmp_int, F
06B7  08CA  	MOVF FCD_LCDDis_0005D_1_tmp_int+D'1', F
06B8  1C03  	BTFSS STATUS,C
06B9  03CA  	DECF FCD_LCDDis_0005D_1_tmp_int+D'1', F
06BA  03CB  	DECF FCD_LCDDis_0005D_1_tmp_byte, F
06BB  2EB1  	GOTO	label73
06BC        label74
06BC  0849  	MOVF FCD_LCDDis_0005D_1_tmp_int, W
06BD  3E30  	ADDLW 0x30
06BE  00DB  	MOVWF FCD_LCDDis_00057_arg_in
06BF  3010  	MOVLW 0x10
06C0  00DC  	MOVWF FCD_LCDDis_00057_arg_mask
06C1  2113  	CALL FCD_LCDDis_00057
06C2  0008  	RETURN
06C3        ; } FCD_LCDDisplay0_PrintNumber function end

	ORG 0x000006C3
06C3        FCD_LCDDis_0005C
06C3        ; { FCD_LCDDisplay0_Cursor ; function begin
06C3  08C8  	MOVF FCD_LCDDis_0005C_arg_y, F
06C4  1D03  	BTFSS STATUS,Z
06C5  2EC9  	GOTO	label75
06C6  3080  	MOVLW 0x80
06C7  00C8  	MOVWF FCD_LCDDis_0005C_arg_y
06C8  2ECB  	GOTO	label76
06C9        label75
06C9  30C0  	MOVLW 0xC0
06CA  00C8  	MOVWF FCD_LCDDis_0005C_arg_y
06CB        label76
06CB  0847  	MOVF FCD_LCDDis_0005C_arg_x, W
06CC  0748  	ADDWF FCD_LCDDis_0005C_arg_y, W
06CD  00DB  	MOVWF FCD_LCDDis_00057_arg_in
06CE  01DC  	CLRF FCD_LCDDis_00057_arg_mask
06CF  2113  	CALL FCD_LCDDis_00057
06D0  3002  	MOVLW 0x02
06D1  00C9  	MOVWF Wdt_Delay__0003E_arg_delay
06D2  2076  	CALL Wdt_Delay__0003E
06D3  0008  	RETURN
06D4        ; } FCD_LCDDisplay0_Cursor function end

	ORG 0x000006D4
06D4        FCD_LCDDis_00059
06D4        ; { FCD_LCDDisplay0_Clear ; function begin
06D4  3001  	MOVLW 0x01
06D5  1283  	BCF STATUS, RP0
06D6  1303  	BCF STATUS, RP1
06D7  00DB  	MOVWF FCD_LCDDis_00057_arg_in
06D8  01DC  	CLRF FCD_LCDDis_00057_arg_mask
06D9  2113  	CALL FCD_LCDDis_00057
06DA  3002  	MOVLW 0x02
06DB  00C9  	MOVWF Wdt_Delay__0003E_arg_delay
06DC  2076  	CALL Wdt_Delay__0003E
06DD  3002  	MOVLW 0x02
06DE  00DB  	MOVWF FCD_LCDDis_00057_arg_in
06DF  01DC  	CLRF FCD_LCDDis_00057_arg_mask
06E0  2113  	CALL FCD_LCDDis_00057
06E1  3002  	MOVLW 0x02
06E2  00C9  	MOVWF Wdt_Delay__0003E_arg_delay
06E3  2076  	CALL Wdt_Delay__0003E
06E4  0008  	RETURN
06E5        ; } FCD_LCDDisplay0_Clear function end

	ORG 0x000006E5
06E5        FCD_LCDDis_00058
06E5        ; { FCD_LCDDisplay0_Start ; function begin
06E5  1683  	BSF STATUS, RP0
06E6  1303  	BCF STATUS, RP1
06E7  1286  	BCF gbl_trisb,5
06E8  1283  	BCF STATUS, RP0
06E9  1286  	BCF gbl_portb,5
06EA  1683  	BSF STATUS, RP0
06EB  1206  	BCF gbl_trisb,4
06EC  1283  	BCF STATUS, RP0
06ED  1206  	BCF gbl_portb,4
06EE  1683  	BSF STATUS, RP0
06EF  1186  	BCF gbl_trisb,3
06F0  1283  	BCF STATUS, RP0
06F1  1186  	BCF gbl_portb,3
06F2  1683  	BSF STATUS, RP0
06F3  1106  	BCF gbl_trisb,2
06F4  1283  	BCF STATUS, RP0
06F5  1106  	BCF gbl_portb,2
06F6  1683  	BSF STATUS, RP0
06F7  1386  	BCF gbl_trisb,7
06F8  1283  	BCF STATUS, RP0
06F9  1386  	BCF gbl_portb,7
06FA  1683  	BSF STATUS, RP0
06FB  1306  	BCF gbl_trisb,6
06FC  1283  	BCF STATUS, RP0
06FD  1306  	BCF gbl_portb,6
06FE  300C  	MOVLW 0x0C
06FF  00C9  	MOVWF Wdt_Delay__0003E_arg_delay
0700  2076  	CALL Wdt_Delay__0003E
0701  3033  	MOVLW 0x33
0702  00DB  	MOVWF FCD_LCDDis_00057_arg_in
0703  01DC  	CLRF FCD_LCDDis_00057_arg_mask
0704  2113  	CALL FCD_LCDDis_00057
0705  3002  	MOVLW 0x02
0706  00C9  	MOVWF Wdt_Delay__0003E_arg_delay
0707  2076  	CALL Wdt_Delay__0003E
0708  3033  	MOVLW 0x33
0709  00DB  	MOVWF FCD_LCDDis_00057_arg_in
070A  01DC  	CLRF FCD_LCDDis_00057_arg_mask
070B  2113  	CALL FCD_LCDDis_00057
070C  3002  	MOVLW 0x02
070D  00C9  	MOVWF Wdt_Delay__0003E_arg_delay
070E  2076  	CALL Wdt_Delay__0003E
070F  3032  	MOVLW 0x32
0710  00DB  	MOVWF FCD_LCDDis_00057_arg_in
0711  01DC  	CLRF FCD_LCDDis_00057_arg_mask
0712  2113  	CALL FCD_LCDDis_00057
0713  3002  	MOVLW 0x02
0714  00C9  	MOVWF Wdt_Delay__0003E_arg_delay
0715  2076  	CALL Wdt_Delay__0003E
0716  302C  	MOVLW 0x2C
0717  00DB  	MOVWF FCD_LCDDis_00057_arg_in
0718  01DC  	CLRF FCD_LCDDis_00057_arg_mask
0719  2113  	CALL FCD_LCDDis_00057
071A  3002  	MOVLW 0x02
071B  00C9  	MOVWF Wdt_Delay__0003E_arg_delay
071C  2076  	CALL Wdt_Delay__0003E
071D  3006  	MOVLW 0x06
071E  00DB  	MOVWF FCD_LCDDis_00057_arg_in
071F  01DC  	CLRF FCD_LCDDis_00057_arg_mask
0720  2113  	CALL FCD_LCDDis_00057
0721  3002  	MOVLW 0x02
0722  00C9  	MOVWF Wdt_Delay__0003E_arg_delay
0723  2076  	CALL Wdt_Delay__0003E
0724  300C  	MOVLW 0x0C
0725  00DB  	MOVWF FCD_LCDDis_00057_arg_in
0726  01DC  	CLRF FCD_LCDDis_00057_arg_mask
0727  2113  	CALL FCD_LCDDis_00057
0728  3002  	MOVLW 0x02
0729  00C9  	MOVWF Wdt_Delay__0003E_arg_delay
072A  2076  	CALL Wdt_Delay__0003E
072B  3001  	MOVLW 0x01
072C  00DB  	MOVWF FCD_LCDDis_00057_arg_in
072D  01DC  	CLRF FCD_LCDDis_00057_arg_mask
072E  2113  	CALL FCD_LCDDis_00057
072F  3002  	MOVLW 0x02
0730  00C9  	MOVWF Wdt_Delay__0003E_arg_delay
0731  2076  	CALL Wdt_Delay__0003E
0732  3002  	MOVLW 0x02
0733  00DB  	MOVWF FCD_LCDDis_00057_arg_in
0734  01DC  	CLRF FCD_LCDDis_00057_arg_mask
0735  2113  	CALL FCD_LCDDis_00057
0736  3002  	MOVLW 0x02
0737  00C9  	MOVWF Wdt_Delay__0003E_arg_delay
0738  2076  	CALL Wdt_Delay__0003E
0739  0008  	RETURN
073A        ; } FCD_LCDDisplay0_Start function end

	ORG 0x0000073A
073A        main
073A        ; { main ; function begin
073A  1683  	BSF STATUS, RP0
073B  1703  	BSF STATUS, RP1
073C  0188  	CLRF gbl_ansel
073D  0189  	CLRF gbl_anselh
073E  2154  	CALL FC_CAL_UAR_00063
073F  30C0  	MOVLW 0xC0
0740  0081  	MOVWF gbl_option_reg
0741  1283  	BCF STATUS, RP0
0742  10C5  	BCF gbl_FCV_SIREN_FLAG,1
0743  26E5  	CALL FCD_LCDDis_00058
0744  26D4  	CALL FCD_LCDDis_00059
0745  01C7  	CLRF FCD_LCDDis_0005C_arg_x
0746  01C8  	CLRF FCD_LCDDis_0005C_arg_y
0747  26C3  	CALL FCD_LCDDis_0005C
0748  3020  	MOVLW 0x20
0749  00CE  	MOVWF CompTempVar2386+D'5'
074A  3027  	MOVLW 0x27
074B  00D6  	MOVWF CompTempVar2386+D'13'
074C  304B  	MOVLW 0x4B
074D  00C9  	MOVWF CompTempVar2386
074E  304E  	MOVLW 0x4E
074F  00CF  	MOVWF CompTempVar2386+D'6'
0750  3065  	MOVLW 0x65
0751  00CA  	MOVWF CompTempVar2386+D'1'
0752  00D0  	MOVWF CompTempVar2386+D'7'
0753  306E  	MOVLW 0x6E
0754  00CB  	MOVWF CompTempVar2386+D'2'
0755  00CC  	MOVWF CompTempVar2386+D'3'
0756  00D5  	MOVWF CompTempVar2386+D'12'
0757  306F  	MOVLW 0x6F
0758  00D4  	MOVWF CompTempVar2386+D'11'
0759  3072  	MOVLW 0x72
075A  00D3  	MOVWF CompTempVar2386+D'10'
075B  3073  	MOVLW 0x73
075C  00D7  	MOVWF CompTempVar2386+D'14'
075D  3074  	MOVLW 0x74
075E  00D2  	MOVWF CompTempVar2386+D'9'
075F  3075  	MOVLW 0x75
0760  00D1  	MOVWF CompTempVar2386+D'8'
0761  3079  	MOVLW 0x79
0762  00CD  	MOVWF CompTempVar2386+D'4'
0763  01D8  	CLRF CompTempVar2386+D'15'
0764  3000  	MOVLW HIGH(CompTempVar2386+D'0')
0765  00C8  	MOVWF FCD_LCDDis_0005E_arg_String+D'1'
0766  3049  	MOVLW LOW(CompTempVar2386+D'0')
0767  00C7  	MOVWF FCD_LCDDis_0005E_arg_String
0768  300F  	MOVLW 0x0F
0769  00D9  	MOVWF FCD_LCDDis_0005E_arg_MSZ_String
076A  25B9  	CALL FCD_LCDDis_0005E
076B  01C7  	CLRF FCD_LCDDis_0005C_arg_x
076C  3001  	MOVLW 0x01
076D  00C8  	MOVWF FCD_LCDDis_0005C_arg_y
076E  26C3  	CALL FCD_LCDDis_0005C
076F  3049  	MOVLW 0x49
0770  00C9  	MOVWF CompTempVar2388
0771  3061  	MOVLW 0x61
0772  00CE  	MOVWF CompTempVar2388+D'5'
0773  3069  	MOVLW 0x69
0774  00D0  	MOVWF CompTempVar2388+D'7'
0775  306E  	MOVLW 0x6E
0776  00CA  	MOVWF CompTempVar2388+D'1'
0777  00CB  	MOVWF CompTempVar2388+D'2'
0778  00D2  	MOVWF CompTempVar2388+D'9'
0779  306F  	MOVLW 0x6F
077A  00CC  	MOVWF CompTempVar2388+D'3'
077B  00D1  	MOVWF CompTempVar2388+D'8'
077C  3073  	MOVLW 0x73
077D  00D3  	MOVWF CompTempVar2388+D'10'
077E  3074  	MOVLW 0x74
077F  00CF  	MOVWF CompTempVar2388+D'6'
0780  3076  	MOVLW 0x76
0781  00CD  	MOVWF CompTempVar2388+D'4'
0782  01D4  	CLRF CompTempVar2388+D'11'
0783  3000  	MOVLW HIGH(CompTempVar2388+D'0')
0784  00C8  	MOVWF FCD_LCDDis_0005E_arg_String+D'1'
0785  3049  	MOVLW LOW(CompTempVar2388+D'0')
0786  00C7  	MOVWF FCD_LCDDis_0005E_arg_String
0787  300B  	MOVLW 0x0B
0788  00D9  	MOVWF FCD_LCDDis_0005E_arg_MSZ_String
0789  25B9  	CALL FCD_LCDDis_0005E
078A  25AF  	CALL FCD_PWM0_E_00072
078B  2163  	CALL FCM_init_00000
078C  11C6  	BCF gbl_FCV_SIREN,3
078D        label77
078D  3001  	MOVLW 0x01
078E  1683  	BSF STATUS, RP0
078F  0405  	IORWF gbl_trisa, W
0790  0085  	MOVWF gbl_trisa
0791  3001  	MOVLW 0x01
0792  1283  	BCF STATUS, RP0
0793  0505  	ANDWF gbl_porta, W
0794  00C7  	MOVWF CompTempVar2390
0795  01C8  	CLRF CompTempVar2391
0796  0347  	DECF CompTempVar2390, W
0797  1903  	BTFSC STATUS,Z
0798  0AC8  	INCF CompTempVar2391, F
0799  1042  	BCF gbl_FCV_EQ1_SE1,0
079A  0848  	MOVF CompTempVar2391, W
079B  1D03  	BTFSS STATUS,Z
079C  1442  	BSF gbl_FCV_EQ1_SE1,0
079D  3002  	MOVLW 0x02
079E  1683  	BSF STATUS, RP0
079F  0405  	IORWF gbl_trisa, W
07A0  0085  	MOVWF gbl_trisa
07A1  3002  	MOVLW 0x02
07A2  1283  	BCF STATUS, RP0
07A3  0505  	ANDWF gbl_porta, W
07A4  00C7  	MOVWF CompTempVar2392
07A5  01C8  	CLRF CompTempVar2393
07A6  3002  	MOVLW 0x02
07A7  0247  	SUBWF CompTempVar2392, W
07A8  1903  	BTFSC STATUS,Z
07A9  0AC8  	INCF CompTempVar2393, F
07AA  1142  	BCF gbl_FCV_EQ1_SE2,2
07AB  0848  	MOVF CompTempVar2393, W
07AC  1D03  	BTFSS STATUS,Z
07AD  1542  	BSF gbl_FCV_EQ1_SE2,2
07AE  3004  	MOVLW 0x04
07AF  1683  	BSF STATUS, RP0
07B0  0405  	IORWF gbl_trisa, W
07B1  0085  	MOVWF gbl_trisa
07B2  3004  	MOVLW 0x04
07B3  1283  	BCF STATUS, RP0
07B4  0505  	ANDWF gbl_porta, W
07B5  00C7  	MOVWF CompTempVar2394
07B6  01C8  	CLRF CompTempVar2395
07B7  3004  	MOVLW 0x04
07B8  0247  	SUBWF CompTempVar2394, W
07B9  1903  	BTFSC STATUS,Z
07BA  0AC8  	INCF CompTempVar2395, F
07BB  10C2  	BCF gbl_FCV_EQ2_SE1,1
07BC  0848  	MOVF CompTempVar2395, W
07BD  1D03  	BTFSS STATUS,Z
07BE  14C2  	BSF gbl_FCV_EQ2_SE1,1
07BF  3008  	MOVLW 0x08
07C0  1683  	BSF STATUS, RP0
07C1  0405  	IORWF gbl_trisa, W
07C2  0085  	MOVWF gbl_trisa
07C3  3008  	MOVLW 0x08
07C4  1283  	BCF STATUS, RP0
07C5  0505  	ANDWF gbl_porta, W
07C6  00C7  	MOVWF CompTempVar2396
07C7  01C8  	CLRF CompTempVar2397
07C8  3008  	MOVLW 0x08
07C9  0247  	SUBWF CompTempVar2396, W
07CA  1903  	BTFSC STATUS,Z
07CB  0AC8  	INCF CompTempVar2397, F
07CC  1342  	BCF gbl_FCV_EQ2_SE2,6
07CD  0848  	MOVF CompTempVar2397, W
07CE  1D03  	BTFSS STATUS,Z
07CF  1742  	BSF gbl_FCV_EQ2_SE2,6
07D0  3010  	MOVLW 0x10
07D1  1683  	BSF STATUS, RP0
07D2  0405  	IORWF gbl_trisa, W
07D3  0085  	MOVWF gbl_trisa
07D4  3010  	MOVLW 0x10
07D5  1283  	BCF STATUS, RP0
07D6  0505  	ANDWF gbl_porta, W
07D7  00C7  	MOVWF CompTempVar2398
07D8  01C8  	CLRF CompTempVar2399
07D9  3010  	MOVLW 0x10
07DA  0247  	SUBWF CompTempVar2398, W
07DB  1903  	BTFSC STATUS,Z
07DC  0AC8  	INCF CompTempVar2399, F
07DD  12C2  	BCF gbl_FCV_EQ3_SE1,5
07DE  0848  	MOVF CompTempVar2399, W
07DF  1D03  	BTFSS STATUS,Z
07E0  16C2  	BSF gbl_FCV_EQ3_SE1,5
07E1  3020  	MOVLW 0x20
07E2  1683  	BSF STATUS, RP0
07E3  0405  	IORWF gbl_trisa, W
07E4  0085  	MOVWF gbl_trisa
07E5  3020  	MOVLW 0x20
07E6  1283  	BCF STATUS, RP0
07E7  0505  	ANDWF gbl_porta, W
07E8  00C7  	MOVWF CompTempVar2400
07E9  01C8  	CLRF CompTempVar2401
07EA  3020  	MOVLW 0x20
07EB  0247  	SUBWF CompTempVar2400, W
07EC  1903  	BTFSC STATUS,Z
07ED  0AC8  	INCF CompTempVar2401, F
07EE  10C3  	BCF gbl_FCV_EQ3_SE2,1
07EF  0848  	MOVF CompTempVar2401, W
07F0  1D03  	BTFSS STATUS,Z
07F1  14C3  	BSF gbl_FCV_EQ3_SE2,1
07F2  3001  	MOVLW 0x01
07F3  1683  	BSF STATUS, RP0
07F4  0409  	IORWF gbl_trise, W
07F5  0089  	MOVWF gbl_trise
07F6  3001  	MOVLW 0x01
07F7  1283  	BCF STATUS, RP0
07F8  0509  	ANDWF gbl_porte, W
07F9  00C7  	MOVWF CompTempVar2402
07FA  01C8  	CLRF CompTempVar2403
07FB  0347  	DECF CompTempVar2402, W
07FC  1903  	BTFSC STATUS,Z
07FD  0AC8  	INCF CompTempVar2403, F
07FE  11C3  	BCF gbl_FCV_EQ4_SE1,3
07FF  0848  	MOVF CompTempVar2403, W
0800  1D03  	BTFSS STATUS,Z
0801  15C3  	BSF gbl_FCV_EQ4_SE1,3
0802  3002  	MOVLW 0x02
0803  1683  	BSF STATUS, RP0
0804  0409  	IORWF gbl_trise, W
0805  0089  	MOVWF gbl_trise
0806  3002  	MOVLW 0x02
0807  1283  	BCF STATUS, RP0
0808  0509  	ANDWF gbl_porte, W
0809  00C7  	MOVWF CompTempVar2404
080A  01C8  	CLRF CompTempVar2405
080B  3002  	MOVLW 0x02
080C  0247  	SUBWF CompTempVar2404, W
080D  1903  	BTFSC STATUS,Z
080E  0AC8  	INCF CompTempVar2405, F
080F  12C3  	BCF gbl_FCV_EQ4_SE2,5
0810  0848  	MOVF CompTempVar2405, W
0811  1D03  	BTFSS STATUS,Z
0812  16C3  	BSF gbl_FCV_EQ4_SE2,5
0813  3004  	MOVLW 0x04
0814  1683  	BSF STATUS, RP0
0815  0408  	IORWF gbl_trisd, W
0816  0088  	MOVWF gbl_trisd
0817  3004  	MOVLW 0x04
0818  1283  	BCF STATUS, RP0
0819  0508  	ANDWF gbl_portd, W
081A  00C7  	MOVWF CompTempVar2406
081B  01C8  	CLRF CompTempVar2407
081C  3004  	MOVLW 0x04
081D  0247  	SUBWF CompTempVar2406, W
081E  1903  	BTFSC STATUS,Z
081F  0AC8  	INCF CompTempVar2407, F
0820  1343  	BCF gbl_FCV_EQ5_SE1,6
0821  0848  	MOVF CompTempVar2407, W
0822  1D03  	BTFSS STATUS,Z
0823  1743  	BSF gbl_FCV_EQ5_SE1,6
0824  3008  	MOVLW 0x08
0825  1683  	BSF STATUS, RP0
0826  0408  	IORWF gbl_trisd, W
0827  0088  	MOVWF gbl_trisd
0828  3008  	MOVLW 0x08
0829  1283  	BCF STATUS, RP0
082A  0508  	ANDWF gbl_portd, W
082B  00C7  	MOVWF CompTempVar2408
082C  01C8  	CLRF CompTempVar2409
082D  3008  	MOVLW 0x08
082E  0247  	SUBWF CompTempVar2408, W
082F  1903  	BTFSC STATUS,Z
0830  0AC8  	INCF CompTempVar2409, F
0831  1145  	BCF gbl_FCV_EQ5_SE2,2
0832  0848  	MOVF CompTempVar2409, W
0833  1D03  	BTFSS STATUS,Z
0834  1545  	BSF gbl_FCV_EQ5_SE2,2
0835  3001  	MOVLW 0x01
0836  1683  	BSF STATUS, RP0
0837  0408  	IORWF gbl_trisd, W
0838  0088  	MOVWF gbl_trisd
0839  3001  	MOVLW 0x01
083A  1283  	BCF STATUS, RP0
083B  0508  	ANDWF gbl_portd, W
083C  00C7  	MOVWF CompTempVar2410
083D  01C8  	CLRF CompTempVar2411
083E  0347  	DECF CompTempVar2410, W
083F  1903  	BTFSC STATUS,Z
0840  0AC8  	INCF CompTempVar2411, F
0841  11C5  	BCF gbl_FCV_EQ6_SE1,3
0842  0848  	MOVF CompTempVar2411, W
0843  1D03  	BTFSS STATUS,Z
0844  15C5  	BSF gbl_FCV_EQ6_SE1,3
0845  3002  	MOVLW 0x02
0846  1683  	BSF STATUS, RP0
0847  0408  	IORWF gbl_trisd, W
0848  0088  	MOVWF gbl_trisd
0849  3002  	MOVLW 0x02
084A  1283  	BCF STATUS, RP0
084B  0508  	ANDWF gbl_portd, W
084C  00C7  	MOVWF CompTempVar2412
084D  01C8  	CLRF CompTempVar2413
084E  3002  	MOVLW 0x02
084F  0247  	SUBWF CompTempVar2412, W
0850  1903  	BTFSC STATUS,Z
0851  0AC8  	INCF CompTempVar2413, F
0852  12C5  	BCF gbl_FCV_EQ6_SE2,5
0853  0848  	MOVF CompTempVar2413, W
0854  1D03  	BTFSS STATUS,Z
0855  16C5  	BSF gbl_FCV_EQ6_SE2,5
0856  3080  	MOVLW 0x80
0857  1683  	BSF STATUS, RP0
0858  0408  	IORWF gbl_trisd, W
0859  0088  	MOVWF gbl_trisd
085A  3080  	MOVLW 0x80
085B  1283  	BCF STATUS, RP0
085C  0508  	ANDWF gbl_portd, W
085D  00C7  	MOVWF CompTempVar2414
085E  01C8  	CLRF CompTempVar2415
085F  3080  	MOVLW 0x80
0860  0247  	SUBWF CompTempVar2414, W
0861  1903  	BTFSC STATUS,Z
0862  0AC8  	INCF CompTempVar2415, F
0863  1045  	BCF gbl_FCV_DOORLOCK,0
0864  0848  	MOVF CompTempVar2415, W
0865  1D03  	BTFSS STATUS,Z
0866  1445  	BSF gbl_FCV_DOORLOCK,0
0867  158A  	BSF PCLATH,3
0868  1CC5  	BTFSS gbl_FCV_SIREN_FLAG,1
0869  2884  	GOTO	label80
086A  1DC6  	BTFSS gbl_FCV_SIREN,3
086B  286F  	GOTO	label78
086C  19C6  	BTFSC gbl_FCV_SIREN,3
086D  2878  	GOTO	label79
086E  28A5  	GOTO	label86
086F        label78
086F  30BF  	MOVLW 0xBF
0870  1683  	BSF STATUS, RP0
0871  0508  	ANDWF gbl_trisd, W
0872  0088  	MOVWF gbl_trisd
0873  30BF  	MOVLW 0xBF
0874  1283  	BCF STATUS, RP0
0875  0508  	ANDWF gbl_portd, W
0876  0088  	MOVWF gbl_portd
0877  28A5  	GOTO	label86
0878        label79
0878  30BF  	MOVLW 0xBF
0879  1683  	BSF STATUS, RP0
087A  0508  	ANDWF gbl_trisd, W
087B  0088  	MOVWF gbl_trisd
087C  30BF  	MOVLW 0xBF
087D  1283  	BCF STATUS, RP0
087E  0508  	ANDWF gbl_portd, W
087F  00C7  	MOVWF CompTempVar2416
0880  3040  	MOVLW 0x40
0881  0447  	IORWF CompTempVar2416, W
0882  0088  	MOVWF gbl_portd
0883  28A5  	GOTO	label86
0884        label80
0884  1C45  	BTFSS gbl_FCV_DOORLOCK,0
0885  2889  	GOTO	label81
0886  1845  	BTFSC gbl_FCV_DOORLOCK,0
0887  288B  	GOTO	label82
0888  288C  	GOTO	label83
0889        label81
0889  15C6  	BSF gbl_FCV_SIREN,3
088A  288C  	GOTO	label83
088B        label82
088B  11C6  	BCF gbl_FCV_SIREN,3
088C        label83
088C  1DC6  	BTFSS gbl_FCV_SIREN,3
088D  2891  	GOTO	label84
088E  19C6  	BTFSC gbl_FCV_SIREN,3
088F  289A  	GOTO	label85
0890  28A5  	GOTO	label86
0891        label84
0891  30BF  	MOVLW 0xBF
0892  1683  	BSF STATUS, RP0
0893  0508  	ANDWF gbl_trisd, W
0894  0088  	MOVWF gbl_trisd
0895  30BF  	MOVLW 0xBF
0896  1283  	BCF STATUS, RP0
0897  0508  	ANDWF gbl_portd, W
0898  0088  	MOVWF gbl_portd
0899  28A5  	GOTO	label86
089A        label85
089A  30BF  	MOVLW 0xBF
089B  1683  	BSF STATUS, RP0
089C  0508  	ANDWF gbl_trisd, W
089D  0088  	MOVWF gbl_trisd
089E  30BF  	MOVLW 0xBF
089F  1283  	BCF STATUS, RP0
08A0  0508  	ANDWF gbl_portd, W
08A1  00C7  	MOVWF CompTempVar2417
08A2  3040  	MOVLW 0x40
08A3  0447  	IORWF CompTempVar2417, W
08A4  0088  	MOVWF gbl_portd
08A5        label86
08A5  118A  	BCF PCLATH,3
08A6  251B  	CALL FCM_Equipm_00051
08A7  248F  	CALL FCM_Equipm_00054
08A8  2403  	CALL FCM_Equipm_00055
08A9  2377  	CALL FCM_Equipm_00056
08AA  3064  	MOVLW 0x64
08AB  00C7  	MOVWF FCD_RS2320_00069_arg_nTimeout
08AC  25A7  	CALL FCD_RS2320_00069
08AD  0849  	MOVF CompTempVarRet2372, W
08AE  00C4  	MOVWF gbl_FCV_RX
08AF  0844  	MOVF gbl_FCV_RX, W
08B0  3A43  	XORLW 0x43
08B1  158A  	BSF PCLATH,3
08B2  1D03  	BTFSS STATUS,Z
08B3  28B7  	GOTO	label87
08B4  118A  	BCF PCLATH,3
08B5  21E8  	CALL FCM_check_00000
08B6  15C6  	BSF gbl_FCV_SIREN,3
08B7        label87
08B7  0844  	MOVF gbl_FCV_RX, W
08B8  3A42  	XORLW 0x42
08B9  1903  	BTFSC STATUS,Z
08BA  11C6  	BCF gbl_FCV_SIREN,3
08BB  0844  	MOVF gbl_FCV_RX, W
08BC  3A44  	XORLW 0x44
08BD  158A  	BSF PCLATH,3
08BE  1D03  	BTFSS STATUS,Z
08BF  28C2  	GOTO	label88
08C0  15C6  	BSF gbl_FCV_SIREN,3
08C1  14C5  	BSF gbl_FCV_SIREN_FLAG,1
08C2        label88
08C2  0844  	MOVF gbl_FCV_RX, W
08C3  3A45  	XORLW 0x45
08C4  1D03  	BTFSS STATUS,Z
08C5  28C8  	GOTO	label89
08C6  11C6  	BCF gbl_FCV_SIREN,3
08C7  10C5  	BCF gbl_FCV_SIREN_FLAG,1
08C8        label89
08C8  300E  	MOVLW 0x0E
08C9  00C7  	MOVWF FCD_LCDDis_0005C_arg_x
08CA  3001  	MOVLW 0x01
08CB  00C8  	MOVWF FCD_LCDDis_0005C_arg_y
08CC  118A  	BCF PCLATH,3
08CD  26C3  	CALL FCD_LCDDis_0005C
08CE  01C8  	CLRF FCD_LCDDis_0005D_arg_Number+D'1'
08CF  01C7  	CLRF FCD_LCDDis_0005D_arg_Number
08D0  19C6  	BTFSC gbl_FCV_SIREN,3
08D1  0AC7  	INCF FCD_LCDDis_0005D_arg_Number, F
08D2  25D5  	CALL FCD_LCDDis_0005D
08D3  2F8D  	GOTO	label77
08D4        ; } main function end

	ORG 0x000008D4
08D4        _startup
08D4  30D5  	MOVLW 0xD5
08D5  1283  	BCF STATUS, RP0
08D6  1303  	BCF STATUS, RP1
08D7  00A0  	MOVWF gbl_14_LSR
08D8  30C4  	MOVLW 0xC4
08D9  00A1  	MOVWF gbl_14_LSR+D'1'
08DA  30BB  	MOVLW 0xBB
08DB  00A2  	MOVWF gbl_14_LSR+D'2'
08DC  30DC  	MOVLW 0xDC
08DD  00A3  	MOVWF gbl_14_LSR+D'3'
08DE  01A4  	CLRF gbl_15_gbl_aSig
08DF  01A5  	CLRF gbl_15_gbl_aSig+D'1'
08E0  01A6  	CLRF gbl_15_gbl_aSig+D'2'
08E1  01A7  	CLRF gbl_15_gbl_aSig+D'3'
08E2  01A8  	CLRF gbl_15_gbl_bSig
08E3  01A9  	CLRF gbl_15_gbl_bSig+D'1'
08E4  01AA  	CLRF gbl_15_gbl_bSig+D'2'
08E5  01AB  	CLRF gbl_15_gbl_bSig+D'3'
08E6  01AC  	CLRF gbl_15_gbl_zSig
08E7  01AD  	CLRF gbl_15_gbl_zSig+D'1'
08E8  01AE  	CLRF gbl_15_gbl_zSig+D'2'
08E9  01AF  	CLRF gbl_15_gbl_zSig+D'3'
08EA  01BC  	CLRF gbl_15_gbl_aExp
08EB  01BD  	CLRF gbl_15_gbl_bExp
08EC  01B7  	CLRF gbl_15_gbl_zExp
08ED  01B8  	CLRF gbl_15_gbl_zExp+D'1'
08EE  01BE  	CLRF gbl_15_gbl_aSign
08EF  01BF  	CLRF gbl_15_gbl_bSign
08F0  01C0  	CLRF gbl_15_gbl_zSign
08F1  01C1  	CLRF gbl_15_gbl_zSigZero
08F2  01B0  	CLRF gbl_15_gbl_ret
08F3  01B1  	CLRF gbl_15_gbl_ret+D'1'
08F4  01B2  	CLRF gbl_15_gbl_ret+D'2'
08F5  01B3  	CLRF gbl_15_gbl_ret+D'3'
08F6  01BA  	CLRF gbl_float_rounding_mode
08F7  01BB  	CLRF gbl_float_exception_flags
08F8  01B9  	CLRF gbl_float_detect_tininess
08F9  1042  	BCF gbl_FCV_EQ1_SE1,0
08FA  10C2  	BCF gbl_FCV_EQ2_SE1,1
08FB  1142  	BCF gbl_FCV_EQ1_SE2,2
08FC  11C2  	BCF gbl_FCV_EQ6_FLAG,3
08FD  1242  	BCF gbl_FCV_EQ2_ERRORFLAG,4
08FE  12C2  	BCF gbl_FCV_EQ3_SE1,5
08FF  1342  	BCF gbl_FCV_EQ2_SE2,6
0900  13C2  	BCF gbl_FCV_EQ5_ERRORFLAG,7
0901  1043  	BCF gbl_FCV_EQ5_FLAG,0
0902  10C3  	BCF gbl_FCV_EQ3_SE2,1
0903  1143  	BCF gbl_FCV_EQ4_FLAG,2
0904  11C3  	BCF gbl_FCV_EQ4_SE1,3
0905  1243  	BCF gbl_FCV_EQ3_FLAG,4
0906  12C3  	BCF gbl_FCV_EQ4_SE2,5
0907  1343  	BCF gbl_FCV_EQ5_SE1,6
0908  13C3  	BCF gbl_FCV_EQ2_FLAG,7
0909  01C4  	CLRF gbl_FCV_RX
090A  1045  	BCF gbl_FCV_DOORLOCK,0
090B  10C5  	BCF gbl_FCV_SIREN_FLAG,1
090C  1145  	BCF gbl_FCV_EQ5_SE2,2
090D  11C5  	BCF gbl_FCV_EQ6_SE1,3
090E  1245  	BCF gbl_FCV_EQ1_FLAG,4
090F  12C5  	BCF gbl_FCV_EQ6_SE2,5
0910  1345  	BCF gbl_FCV_EQ1_ERRORFLAG,6
0911  13C5  	BCF gbl_FCV_EQ4_ERRORFLAG,7
0912  1046  	BCF gbl_FCV_FLAG,0
0913  1146  	BCF gbl_FCV_EQ6_ERRORFLAG,2
0914  11C6  	BCF gbl_FCV_SIREN,3
0915  118A  	BCF PCLATH,3
0916  120A  	BCF PCLATH,4
0917  2F3A  	GOTO	main
	ORG 0x00000918
0918        interrupt
0918        ; { interrupt ; function begin
0918  1283  	BCF STATUS, RP0
0919  1303  	BCF STATUS, RP1
091A  0E36  	SWAPF Int1BContext+D'2', W
091B  0084  	MOVWF FSR
091C  0E35  	SWAPF Int1BContext+D'1', W
091D  008A  	MOVWF PCLATH
091E  0E34  	SWAPF Int1BContext, W
091F  0083  	MOVWF STATUS
0920  0EFF  	SWAPF Int1Context, F
0921  0E7F  	SWAPF Int1Context, W
0922  0009  	RETFIE
0923        ; } interrupt function end

	ORG 0x00002007
2007  20C2  	DW 0x20C2
2008  3EFF  	DW 0x3EFF
