MPLINK 4.49, Linker
Linker Map File - Created Mon May 20 14:19:41 2019

                                 Section Info
                  Section       Type    Address   Location Size(Bytes)
                ---------  ---------  ---------  ---------  ---------
                   .org_0       code   0x000000    program   0x000000
                   .org_1       code   0x000000    program   0x000002
                   .org_2       code   0x000004    program   0x0002e8
                  .org_13       code   0x000200    program   0x00031e
                  .org_10       code   0x000400    program   0x000094
                   .org_3       code   0x000500    program   0x00031a
                  .org_12       code   0x000700    program   0x000098
                   .org_4       code   0x000800    program   0x000198
                   .org_5       code   0x000900    program   0x0000f4
                   .org_6       code   0x000a00    program   0x0001c2
                   .org_7       code   0x000b00    program   0x000130
                  .org_11       code   0x000c00    program   0x000098
                   .org_8       code   0x000d00    program   0x0002c4
                   .org_9       code   0x000f00    program   0x000150
.config_2007_HUB12_FONTSCROLL.O       code   0x002007    program   0x000002
                  .org_14       code   0x002100    program   0x000008



                              Program Memory Usage 
                               Start         End      
                           ---------   ---------      
                            0x000000    0x000000      
                            0x000004    0x000177      
                            0x000200    0x00038e      
                            0x000400    0x000449      
                            0x000500    0x00068c      
                            0x000700    0x00074b      
                            0x000800    0x0008cb      
                            0x000900    0x000979      
                            0x000a00    0x000ae0      
                            0x000b00    0x000b97      
                            0x000c00    0x000c4b      
                            0x000d00    0x000e61      
                            0x000f00    0x000fa7      
                            0x002007    0x002007      
                            0x002100    0x002103      
            2625 out of 4359 program addresses used, program memory utilization is 60%



                              Symbols - Sorted by Name
                     Name    Address   Location    Storage File                     
                ---------  ---------  ---------  --------- ---------                
                        .   0x000000    program     static D:\KennyNeutron\HUB12\HUB12_FONT\HUB12_FONTSCROLL.ASM
                     CHAR   0x000800    program     static D:\KennyNeutron\HUB12\HUB12_FONT\HUB12_FONTSCROLL.ASM
                    CLRAM   0x00014c    program     static D:\KennyNeutron\HUB12\HUB12_FONT\HUB12_FONTSCROLL.ASM
                 CLR_IRAM   0x00003e    program     static D:\KennyNeutron\HUB12\HUB12_FONT\HUB12_FONTSCROLL.ASM
             CMD_CLR_IRAM   0x000d00    program     static D:\KennyNeutron\HUB12\HUB12_FONT\HUB12_FONTSCROLL.ASM
                    COUNT   0x000025    program     static D:\KennyNeutron\HUB12\HUB12_FONT\HUB12_FONTSCROLL.ASM
                       D0   0x000141    program     static D:\KennyNeutron\HUB12\HUB12_FONT\HUB12_FONTSCROLL.ASM
                       D1   0x000143    program     static D:\KennyNeutron\HUB12\HUB12_FONT\HUB12_FONTSCROLL.ASM
                DATALATCH   0x000136    program     static D:\KennyNeutron\HUB12\HUB12_FONT\HUB12_FONTSCROLL.ASM
                 DELAY_MS   0x000167    program     static D:\KennyNeutron\HUB12\HUB12_FONT\HUB12_FONTSCROLL.ASM
              DELAY_ONEMS   0x000160    program     static D:\KennyNeutron\HUB12\HUB12_FONT\HUB12_FONTSCROLL.ASM
             DELAY_ONESEC   0x00016c    program     static D:\KennyNeutron\HUB12\HUB12_FONT\HUB12_FONTSCROLL.ASM
                DELAY_SEC   0x000173    program     static D:\KennyNeutron\HUB12\HUB12_FONT\HUB12_FONTSCROLL.ASM
                 DELAY_US   0x000158    program     static D:\KennyNeutron\HUB12\HUB12_FONT\HUB12_FONTSCROLL.ASM
                     DISP   0x000037    program     static D:\KennyNeutron\HUB12\HUB12_FONT\HUB12_FONTSCROLL.ASM
                    DISP0   0x000039    program     static D:\KennyNeutron\HUB12\HUB12_FONT\HUB12_FONTSCROLL.ASM
                  DISPLAY   0x00010b    program     static D:\KennyNeutron\HUB12\HUB12_FONT\HUB12_FONTSCROLL.ASM
                      DL0   0x00013d    program     static D:\KennyNeutron\HUB12\HUB12_FONT\HUB12_FONTSCROLL.ASM
                      DL1   0x000145    program     static D:\KennyNeutron\HUB12\HUB12_FONT\HUB12_FONTSCROLL.ASM
                     DRM0   0x000150    program     static D:\KennyNeutron\HUB12\HUB12_FONT\HUB12_FONTSCROLL.ASM
         DSHIFT_DOWN_GRPA   0x000f14    program     static D:\KennyNeutron\HUB12\HUB12_FONT\HUB12_FONTSCROLL.ASM
         DSHIFT_DOWN_GRPB   0x000f5e    program     static D:\KennyNeutron\HUB12\HUB12_FONT\HUB12_FONTSCROLL.ASM
         DSHIFT_DOWN_GRPC   0x000400    program     static D:\KennyNeutron\HUB12\HUB12_FONT\HUB12_FONTSCROLL.ASM
                     DSP0   0x00010f    program     static D:\KennyNeutron\HUB12\HUB12_FONT\HUB12_FONTSCROLL.ASM
                     DSP1   0x000119    program     static D:\KennyNeutron\HUB12\HUB12_FONT\HUB12_FONTSCROLL.ASM
                     DSP2   0x000123    program     static D:\KennyNeutron\HUB12\HUB12_FONT\HUB12_FONTSCROLL.ASM
                     DSP3   0x00012d    program     static D:\KennyNeutron\HUB12\HUB12_FONT\HUB12_FONTSCROLL.ASM
                     DUMP   0x000044    program     static D:\KennyNeutron\HUB12\HUB12_FONT\HUB12_FONTSCROLL.ASM
                    EIGHT   0x0008a6    program     static D:\KennyNeutron\HUB12\HUB12_FONT\HUB12_FONTSCROLL.ASM
                     FIVE   0x00086d    program     static D:\KennyNeutron\HUB12\HUB12_FONT\HUB12_FONTSCROLL.ASM
                   FONT_0   0x00004b    program     static D:\KennyNeutron\HUB12\HUB12_FONT\HUB12_FONTSCROLL.ASM
                   FONT_1   0x000083    program     static D:\KennyNeutron\HUB12\HUB12_FONT\HUB12_FONTSCROLL.ASM
                   FONT_2   0x0000a3    program     static D:\KennyNeutron\HUB12\HUB12_FONT\HUB12_FONTSCROLL.ASM
                     FOUR   0x00085a    program     static D:\KennyNeutron\HUB12\HUB12_FONT\HUB12_FONTSCROLL.ASM
                    GRP_A   0x00051c    program     static D:\KennyNeutron\HUB12\HUB12_FONT\HUB12_FONTSCROLL.ASM
                    GRP_B   0x0005a6    program     static D:\KennyNeutron\HUB12\HUB12_FONT\HUB12_FONTSCROLL.ASM
                    GRP_C   0x000620    program     static D:\KennyNeutron\HUB12\HUB12_FONT\HUB12_FONTSCROLL.ASM
                    GRP_D   0x00068a    program     static D:\KennyNeutron\HUB12\HUB12_FONT\HUB12_FONTSCROLL.ASM
                    IDUMP   0x000d0d    program     static D:\KennyNeutron\HUB12\HUB12_FONT\HUB12_FONTSCROLL.ASM
                  IFONT_0   0x000d14    program     static D:\KennyNeutron\HUB12\HUB12_FONT\HUB12_FONTSCROLL.ASM
                  IFONT_1   0x000d50    program     static D:\KennyNeutron\HUB12\HUB12_FONT\HUB12_FONTSCROLL.ASM
                  IFONT_2   0x000d74    program     static D:\KennyNeutron\HUB12\HUB12_FONT\HUB12_FONTSCROLL.ASM
                   IGRP_A   0x00021e    program     static D:\KennyNeutron\HUB12\HUB12_FONT\HUB12_FONTSCROLL.ASM
                   IGRP_B   0x0002a8    program     static D:\KennyNeutron\HUB12\HUB12_FONT\HUB12_FONTSCROLL.ASM
                   IGRP_C   0x000322    program     static D:\KennyNeutron\HUB12\HUB12_FONT\HUB12_FONTSCROLL.ASM
                   IGRP_D   0x00038c    program     static D:\KennyNeutron\HUB12\HUB12_FONT\HUB12_FONTSCROLL.ASM
                     INIT   0x000010    program     static D:\KennyNeutron\HUB12\HUB12_FONT\HUB12_FONTSCROLL.ASM
                     IRM0   0x000d06    program     static D:\KennyNeutron\HUB12\HUB12_FONT\HUB12_FONTSCROLL.ASM
          ISCRL_DOWN_GRPA   0x000f00    program     static D:\KennyNeutron\HUB12\HUB12_FONT\HUB12_FONTSCROLL.ASM
                  ISHIFTR   0x000200    program     static D:\KennyNeutron\HUB12\HUB12_FONT\HUB12_FONTSCROLL.ASM
         ISHIFT_DOWN_GRPA   0x000f37    program     static D:\KennyNeutron\HUB12\HUB12_FONT\HUB12_FONTSCROLL.ASM
         ISHIFT_DOWN_GRPB   0x000f81    program     static D:\KennyNeutron\HUB12\HUB12_FONT\HUB12_FONTSCROLL.ASM
         ISHIFT_DOWN_GRPC   0x000423    program     static D:\KennyNeutron\HUB12\HUB12_FONT\HUB12_FONTSCROLL.ASM
                   ISRA00   0x000226    program     static D:\KennyNeutron\HUB12\HUB12_FONT\HUB12_FONTSCROLL.ASM
                   ISRA01   0x00022f    program     static D:\KennyNeutron\HUB12\HUB12_FONT\HUB12_FONTSCROLL.ASM
                   ISRA02   0x000237    program     static D:\KennyNeutron\HUB12\HUB12_FONT\HUB12_FONTSCROLL.ASM
                   ISRA03   0x00023f    program     static D:\KennyNeutron\HUB12\HUB12_FONT\HUB12_FONTSCROLL.ASM
                   ISRA04   0x000247    program     static D:\KennyNeutron\HUB12\HUB12_FONT\HUB12_FONTSCROLL.ASM
                   ISRA05   0x00024f    program     static D:\KennyNeutron\HUB12\HUB12_FONT\HUB12_FONTSCROLL.ASM
                   ISRA06   0x000257    program     static D:\KennyNeutron\HUB12\HUB12_FONT\HUB12_FONTSCROLL.ASM
                   ISRA07   0x00025f    program     static D:\KennyNeutron\HUB12\HUB12_FONT\HUB12_FONTSCROLL.ASM
                   ISRA08   0x000269    program     static D:\KennyNeutron\HUB12\HUB12_FONT\HUB12_FONTSCROLL.ASM
                ISRA08_R1   0x000268    program     static D:\KennyNeutron\HUB12\HUB12_FONT\HUB12_FONTSCROLL.ASM
                   ISRA09   0x000271    program     static D:\KennyNeutron\HUB12\HUB12_FONT\HUB12_FONTSCROLL.ASM
                   ISRA0A   0x000279    program     static D:\KennyNeutron\HUB12\HUB12_FONT\HUB12_FONTSCROLL.ASM
                   ISRA0B   0x000281    program     static D:\KennyNeutron\HUB12\HUB12_FONT\HUB12_FONTSCROLL.ASM
                   ISRA0C   0x000289    program     static D:\KennyNeutron\HUB12\HUB12_FONT\HUB12_FONTSCROLL.ASM
                   ISRA0D   0x000291    program     static D:\KennyNeutron\HUB12\HUB12_FONT\HUB12_FONTSCROLL.ASM
                   ISRA0E   0x000299    program     static D:\KennyNeutron\HUB12\HUB12_FONT\HUB12_FONTSCROLL.ASM
                   ISRA0F   0x0002a1    program     static D:\KennyNeutron\HUB12\HUB12_FONT\HUB12_FONTSCROLL.ASM
                   ISRB00   0x0002b0    program     static D:\KennyNeutron\HUB12\HUB12_FONT\HUB12_FONTSCROLL.ASM
                   ISRB01   0x0002b8    program     static D:\KennyNeutron\HUB12\HUB12_FONT\HUB12_FONTSCROLL.ASM
                   ISRB02   0x0002bf    program     static D:\KennyNeutron\HUB12\HUB12_FONT\HUB12_FONTSCROLL.ASM
                   ISRB03   0x0002c6    program     static D:\KennyNeutron\HUB12\HUB12_FONT\HUB12_FONTSCROLL.ASM
                   ISRB04   0x0002cd    program     static D:\KennyNeutron\HUB12\HUB12_FONT\HUB12_FONTSCROLL.ASM
                   ISRB05   0x0002d4    program     static D:\KennyNeutron\HUB12\HUB12_FONT\HUB12_FONTSCROLL.ASM
                   ISRB06   0x0002db    program     static D:\KennyNeutron\HUB12\HUB12_FONT\HUB12_FONTSCROLL.ASM
                   ISRB07   0x0002e2    program     static D:\KennyNeutron\HUB12\HUB12_FONT\HUB12_FONTSCROLL.ASM
                   ISRB08   0x0002eb    program     static D:\KennyNeutron\HUB12\HUB12_FONT\HUB12_FONTSCROLL.ASM
                ISRB08_R1   0x0002ea    program     static D:\KennyNeutron\HUB12\HUB12_FONT\HUB12_FONTSCROLL.ASM
                   ISRB09   0x0002f2    program     static D:\KennyNeutron\HUB12\HUB12_FONT\HUB12_FONTSCROLL.ASM
                   ISRB0A   0x0002f9    program     static D:\KennyNeutron\HUB12\HUB12_FONT\HUB12_FONTSCROLL.ASM
                   ISRB0B   0x000300    program     static D:\KennyNeutron\HUB12\HUB12_FONT\HUB12_FONTSCROLL.ASM
                   ISRB0C   0x000307    program     static D:\KennyNeutron\HUB12\HUB12_FONT\HUB12_FONTSCROLL.ASM
                   ISRB0D   0x00030e    program     static D:\KennyNeutron\HUB12\HUB12_FONT\HUB12_FONTSCROLL.ASM
                   ISRB0E   0x000315    program     static D:\KennyNeutron\HUB12\HUB12_FONT\HUB12_FONTSCROLL.ASM
                   ISRB0F   0x00031c    program     static D:\KennyNeutron\HUB12\HUB12_FONT\HUB12_FONTSCROLL.ASM
                   ISRC00   0x00032a    program     static D:\KennyNeutron\HUB12\HUB12_FONT\HUB12_FONTSCROLL.ASM
                   ISRC01   0x000331    program     static D:\KennyNeutron\HUB12\HUB12_FONT\HUB12_FONTSCROLL.ASM
                   ISRC02   0x000337    program     static D:\KennyNeutron\HUB12\HUB12_FONT\HUB12_FONTSCROLL.ASM
                   ISRC03   0x00033d    program     static D:\KennyNeutron\HUB12\HUB12_FONT\HUB12_FONTSCROLL.ASM
                   ISRC04   0x000343    program     static D:\KennyNeutron\HUB12\HUB12_FONT\HUB12_FONTSCROLL.ASM
                   ISRC05   0x000349    program     static D:\KennyNeutron\HUB12\HUB12_FONT\HUB12_FONTSCROLL.ASM
                   ISRC06   0x00034f    program     static D:\KennyNeutron\HUB12\HUB12_FONT\HUB12_FONTSCROLL.ASM
                   ISRC07   0x000355    program     static D:\KennyNeutron\HUB12\HUB12_FONT\HUB12_FONTSCROLL.ASM
                   ISRC08   0x00035d    program     static D:\KennyNeutron\HUB12\HUB12_FONT\HUB12_FONTSCROLL.ASM
                ISRC08_R1   0x00035c    program     static D:\KennyNeutron\HUB12\HUB12_FONT\HUB12_FONTSCROLL.ASM
                   ISRC09   0x000363    program     static D:\KennyNeutron\HUB12\HUB12_FONT\HUB12_FONTSCROLL.ASM
                   ISRC0A   0x000369    program     static D:\KennyNeutron\HUB12\HUB12_FONT\HUB12_FONTSCROLL.ASM
                   ISRC0B   0x00036f    program     static D:\KennyNeutron\HUB12\HUB12_FONT\HUB12_FONTSCROLL.ASM
                   ISRC0C   0x000375    program     static D:\KennyNeutron\HUB12\HUB12_FONT\HUB12_FONTSCROLL.ASM
                   ISRC0D   0x00037b    program     static D:\KennyNeutron\HUB12\HUB12_FONT\HUB12_FONTSCROLL.ASM
                   ISRC0E   0x000381    program     static D:\KennyNeutron\HUB12\HUB12_FONT\HUB12_FONTSCROLL.ASM
                   ISRC0F   0x000387    program     static D:\KennyNeutron\HUB12\HUB12_FONT\HUB12_FONTSCROLL.ASM
                   L_CHAR   0x000900    program     static D:\KennyNeutron\HUB12\HUB12_FONT\HUB12_FONTSCROLL.ASM
                  L_EIGHT   0x000964    program     static D:\KennyNeutron\HUB12\HUB12_FONT\HUB12_FONTSCROLL.ASM
                   L_FIVE   0x000943    program     static D:\KennyNeutron\HUB12\HUB12_FONT\HUB12_FONTSCROLL.ASM
                   L_FOUR   0x000938    program     static D:\KennyNeutron\HUB12\HUB12_FONT\HUB12_FONTSCROLL.ASM
                   L_NINE   0x00096f    program     static D:\KennyNeutron\HUB12\HUB12_FONT\HUB12_FONTSCROLL.ASM
                    L_ONE   0x000917    program     static D:\KennyNeutron\HUB12\HUB12_FONT\HUB12_FONTSCROLL.ASM
                  L_SEVEN   0x000959    program     static D:\KennyNeutron\HUB12\HUB12_FONT\HUB12_FONTSCROLL.ASM
                    L_SIX   0x00094e    program     static D:\KennyNeutron\HUB12\HUB12_FONT\HUB12_FONTSCROLL.ASM
                  L_THREE   0x00092d    program     static D:\KennyNeutron\HUB12\HUB12_FONT\HUB12_FONTSCROLL.ASM
                    L_TWO   0x000922    program     static D:\KennyNeutron\HUB12\HUB12_FONT\HUB12_FONTSCROLL.ASM
                   L_ZERO   0x00090c    program     static D:\KennyNeutron\HUB12\HUB12_FONT\HUB12_FONTSCROLL.ASM
                     MAIN   0x00001c    program     static D:\KennyNeutron\HUB12\HUB12_FONT\HUB12_FONTSCROLL.ASM
                     MAN0   0x00072c    program     static D:\KennyNeutron\HUB12\HUB12_FONT\HUB12_FONTSCROLL.ASM
                     MAN1   0x000711    program     static D:\KennyNeutron\HUB12\HUB12_FONT\HUB12_FONTSCROLL.ASM
                     MAN2   0x000709    program     static D:\KennyNeutron\HUB12\HUB12_FONT\HUB12_FONTSCROLL.ASM
                     MIN0   0x000029    program     static D:\KennyNeutron\HUB12\HUB12_FONT\HUB12_FONTSCROLL.ASM
                     MSEC   0x000162    program     static D:\KennyNeutron\HUB12\HUB12_FONT\HUB12_FONTSCROLL.ASM
                    MSEC0   0x000168    program     static D:\KennyNeutron\HUB12\HUB12_FONT\HUB12_FONTSCROLL.ASM
                 NEXTPAGE   0x000a0c    program     static D:\KennyNeutron\HUB12\HUB12_FONT\HUB12_FONTSCROLL.ASM
                     NINE   0x0008b9    program     static D:\KennyNeutron\HUB12\HUB12_FONT\HUB12_FONTSCROLL.ASM
                      ONE   0x000821    program     static D:\KennyNeutron\HUB12\HUB12_FONT\HUB12_FONTSCROLL.ASM
                   SCROLL   0x000700    program     static D:\KennyNeutron\HUB12\HUB12_FONT\HUB12_FONTSCROLL.ASM
                     SEC0   0x00016e    program     static D:\KennyNeutron\HUB12\HUB12_FONT\HUB12_FONTSCROLL.ASM
                     SEC1   0x000174    program     static D:\KennyNeutron\HUB12\HUB12_FONT\HUB12_FONTSCROLL.ASM
                    SEVEN   0x000893    program     static D:\KennyNeutron\HUB12\HUB12_FONT\HUB12_FONTSCROLL.ASM
                   SHIFTR   0x000500    program     static D:\KennyNeutron\HUB12\HUB12_FONT\HUB12_FONTSCROLL.ASM
                      SIX   0x000880    program     static D:\KennyNeutron\HUB12\HUB12_FONT\HUB12_FONTSCROLL.ASM
                    SRA00   0x000524    program     static D:\KennyNeutron\HUB12\HUB12_FONT\HUB12_FONTSCROLL.ASM
                    SRA01   0x00052d    program     static D:\KennyNeutron\HUB12\HUB12_FONT\HUB12_FONTSCROLL.ASM
                    SRA02   0x000535    program     static D:\KennyNeutron\HUB12\HUB12_FONT\HUB12_FONTSCROLL.ASM
                    SRA03   0x00053d    program     static D:\KennyNeutron\HUB12\HUB12_FONT\HUB12_FONTSCROLL.ASM
                    SRA04   0x000545    program     static D:\KennyNeutron\HUB12\HUB12_FONT\HUB12_FONTSCROLL.ASM
                    SRA05   0x00054d    program     static D:\KennyNeutron\HUB12\HUB12_FONT\HUB12_FONTSCROLL.ASM
                    SRA06   0x000555    program     static D:\KennyNeutron\HUB12\HUB12_FONT\HUB12_FONTSCROLL.ASM
                    SRA07   0x00055d    program     static D:\KennyNeutron\HUB12\HUB12_FONT\HUB12_FONTSCROLL.ASM
                    SRA08   0x000567    program     static D:\KennyNeutron\HUB12\HUB12_FONT\HUB12_FONTSCROLL.ASM
                 SRA08_R1   0x000566    program     static D:\KennyNeutron\HUB12\HUB12_FONT\HUB12_FONTSCROLL.ASM
                    SRA09   0x00056f    program     static D:\KennyNeutron\HUB12\HUB12_FONT\HUB12_FONTSCROLL.ASM
                    SRA0A   0x000577    program     static D:\KennyNeutron\HUB12\HUB12_FONT\HUB12_FONTSCROLL.ASM
                    SRA0B   0x00057f    program     static D:\KennyNeutron\HUB12\HUB12_FONT\HUB12_FONTSCROLL.ASM
                    SRA0C   0x000587    program     static D:\KennyNeutron\HUB12\HUB12_FONT\HUB12_FONTSCROLL.ASM
                    SRA0D   0x00058f    program     static D:\KennyNeutron\HUB12\HUB12_FONT\HUB12_FONTSCROLL.ASM
                    SRA0E   0x000597    program     static D:\KennyNeutron\HUB12\HUB12_FONT\HUB12_FONTSCROLL.ASM
                    SRA0F   0x00059f    program     static D:\KennyNeutron\HUB12\HUB12_FONT\HUB12_FONTSCROLL.ASM
                    SRB00   0x0005ae    program     static D:\KennyNeutron\HUB12\HUB12_FONT\HUB12_FONTSCROLL.ASM
                    SRB01   0x0005b6    program     static D:\KennyNeutron\HUB12\HUB12_FONT\HUB12_FONTSCROLL.ASM
                    SRB02   0x0005bd    program     static D:\KennyNeutron\HUB12\HUB12_FONT\HUB12_FONTSCROLL.ASM
                    SRB03   0x0005c4    program     static D:\KennyNeutron\HUB12\HUB12_FONT\HUB12_FONTSCROLL.ASM
                    SRB04   0x0005cb    program     static D:\KennyNeutron\HUB12\HUB12_FONT\HUB12_FONTSCROLL.ASM
                    SRB05   0x0005d2    program     static D:\KennyNeutron\HUB12\HUB12_FONT\HUB12_FONTSCROLL.ASM
                    SRB06   0x0005d9    program     static D:\KennyNeutron\HUB12\HUB12_FONT\HUB12_FONTSCROLL.ASM
                    SRB07   0x0005e0    program     static D:\KennyNeutron\HUB12\HUB12_FONT\HUB12_FONTSCROLL.ASM
                    SRB08   0x0005e9    program     static D:\KennyNeutron\HUB12\HUB12_FONT\HUB12_FONTSCROLL.ASM
                 SRB08_R1   0x0005e8    program     static D:\KennyNeutron\HUB12\HUB12_FONT\HUB12_FONTSCROLL.ASM
                    SRB09   0x0005f0    program     static D:\KennyNeutron\HUB12\HUB12_FONT\HUB12_FONTSCROLL.ASM
                    SRB0A   0x0005f7    program     static D:\KennyNeutron\HUB12\HUB12_FONT\HUB12_FONTSCROLL.ASM
                    SRB0B   0x0005fe    program     static D:\KennyNeutron\HUB12\HUB12_FONT\HUB12_FONTSCROLL.ASM
                    SRB0C   0x000605    program     static D:\KennyNeutron\HUB12\HUB12_FONT\HUB12_FONTSCROLL.ASM
                    SRB0D   0x00060c    program     static D:\KennyNeutron\HUB12\HUB12_FONT\HUB12_FONTSCROLL.ASM
                    SRB0E   0x000613    program     static D:\KennyNeutron\HUB12\HUB12_FONT\HUB12_FONTSCROLL.ASM
                    SRB0F   0x00061a    program     static D:\KennyNeutron\HUB12\HUB12_FONT\HUB12_FONTSCROLL.ASM
                    SRC00   0x000628    program     static D:\KennyNeutron\HUB12\HUB12_FONT\HUB12_FONTSCROLL.ASM
                    SRC01   0x00062f    program     static D:\KennyNeutron\HUB12\HUB12_FONT\HUB12_FONTSCROLL.ASM
                    SRC02   0x000635    program     static D:\KennyNeutron\HUB12\HUB12_FONT\HUB12_FONTSCROLL.ASM
                    SRC03   0x00063b    program     static D:\KennyNeutron\HUB12\HUB12_FONT\HUB12_FONTSCROLL.ASM
                    SRC04   0x000641    program     static D:\KennyNeutron\HUB12\HUB12_FONT\HUB12_FONTSCROLL.ASM
                    SRC05   0x000647    program     static D:\KennyNeutron\HUB12\HUB12_FONT\HUB12_FONTSCROLL.ASM
                    SRC06   0x00064d    program     static D:\KennyNeutron\HUB12\HUB12_FONT\HUB12_FONTSCROLL.ASM
                    SRC07   0x000653    program     static D:\KennyNeutron\HUB12\HUB12_FONT\HUB12_FONTSCROLL.ASM
                    SRC08   0x00065b    program     static D:\KennyNeutron\HUB12\HUB12_FONT\HUB12_FONTSCROLL.ASM
                 SRC08_R1   0x00065a    program     static D:\KennyNeutron\HUB12\HUB12_FONT\HUB12_FONTSCROLL.ASM
                    SRC09   0x000661    program     static D:\KennyNeutron\HUB12\HUB12_FONT\HUB12_FONTSCROLL.ASM
                    SRC0A   0x000667    program     static D:\KennyNeutron\HUB12\HUB12_FONT\HUB12_FONTSCROLL.ASM
                    SRC0B   0x00066d    program     static D:\KennyNeutron\HUB12\HUB12_FONT\HUB12_FONTSCROLL.ASM
                    SRC0C   0x000673    program     static D:\KennyNeutron\HUB12\HUB12_FONT\HUB12_FONTSCROLL.ASM
                    SRC0D   0x000679    program     static D:\KennyNeutron\HUB12\HUB12_FONT\HUB12_FONTSCROLL.ASM
                    SRC0E   0x00067f    program     static D:\KennyNeutron\HUB12\HUB12_FONT\HUB12_FONTSCROLL.ASM
                    SRC0F   0x000685    program     static D:\KennyNeutron\HUB12\HUB12_FONT\HUB12_FONTSCROLL.ASM
                      TD0   0x000c37    program     static D:\KennyNeutron\HUB12\HUB12_FONT\HUB12_FONTSCROLL.ASM
                  TENDOWN   0x000c00    program     static D:\KennyNeutron\HUB12\HUB12_FONT\HUB12_FONTSCROLL.ASM
                    THREE   0x000847    program     static D:\KennyNeutron\HUB12\HUB12_FONT\HUB12_FONTSCROLL.ASM
                      TWO   0x000834    program     static D:\KennyNeutron\HUB12\HUB12_FONT\HUB12_FONTSCROLL.ASM
                   T_CHAR   0x000a00    program     static D:\KennyNeutron\HUB12\HUB12_FONT\HUB12_FONTSCROLL.ASM
                  T_CHARB   0x000b00    program     static D:\KennyNeutron\HUB12\HUB12_FONT\HUB12_FONTSCROLL.ASM
                  T_EIGHT   0x000b52    program     static D:\KennyNeutron\HUB12\HUB12_FONT\HUB12_FONTSCROLL.ASM
                   T_FIVE   0x000abe    program     static D:\KennyNeutron\HUB12\HUB12_FONT\HUB12_FONTSCROLL.ASM
                   T_FOUR   0x000a9b    program     static D:\KennyNeutron\HUB12\HUB12_FONT\HUB12_FONTSCROLL.ASM
                   T_NINE   0x000b75    program     static D:\KennyNeutron\HUB12\HUB12_FONT\HUB12_FONTSCROLL.ASM
                    T_ONE   0x000a32    program     static D:\KennyNeutron\HUB12\HUB12_FONT\HUB12_FONTSCROLL.ASM
                  T_SEVEN   0x000b2f    program     static D:\KennyNeutron\HUB12\HUB12_FONT\HUB12_FONTSCROLL.ASM
                    T_SIX   0x000b0c    program     static D:\KennyNeutron\HUB12\HUB12_FONT\HUB12_FONTSCROLL.ASM
                  T_THREE   0x000a78    program     static D:\KennyNeutron\HUB12\HUB12_FONT\HUB12_FONTSCROLL.ASM
                    T_TWO   0x000a55    program     static D:\KennyNeutron\HUB12\HUB12_FONT\HUB12_FONTSCROLL.ASM
                   T_ZERO   0x000a0f    program     static D:\KennyNeutron\HUB12\HUB12_FONT\HUB12_FONTSCROLL.ASM
                     USEC   0x000159    program     static D:\KennyNeutron\HUB12\HUB12_FONT\HUB12_FONTSCROLL.ASM
                     ZERO   0x00080c    program     static D:\KennyNeutron\HUB12\HUB12_FONT\HUB12_FONTSCROLL.ASM



                              Symbols - Sorted by Address
                     Name    Address   Location    Storage File                     
                ---------  ---------  ---------  --------- ---------                
                        .   0x000000    program     static D:\KennyNeutron\HUB12\HUB12_FONT\HUB12_FONTSCROLL.ASM
                     INIT   0x000010    program     static D:\KennyNeutron\HUB12\HUB12_FONT\HUB12_FONTSCROLL.ASM
                     MAIN   0x00001c    program     static D:\KennyNeutron\HUB12\HUB12_FONT\HUB12_FONTSCROLL.ASM
                    COUNT   0x000025    program     static D:\KennyNeutron\HUB12\HUB12_FONT\HUB12_FONTSCROLL.ASM
                     MIN0   0x000029    program     static D:\KennyNeutron\HUB12\HUB12_FONT\HUB12_FONTSCROLL.ASM
                     DISP   0x000037    program     static D:\KennyNeutron\HUB12\HUB12_FONT\HUB12_FONTSCROLL.ASM
                    DISP0   0x000039    program     static D:\KennyNeutron\HUB12\HUB12_FONT\HUB12_FONTSCROLL.ASM
                 CLR_IRAM   0x00003e    program     static D:\KennyNeutron\HUB12\HUB12_FONT\HUB12_FONTSCROLL.ASM
                     DUMP   0x000044    program     static D:\KennyNeutron\HUB12\HUB12_FONT\HUB12_FONTSCROLL.ASM
                   FONT_0   0x00004b    program     static D:\KennyNeutron\HUB12\HUB12_FONT\HUB12_FONTSCROLL.ASM
                   FONT_1   0x000083    program     static D:\KennyNeutron\HUB12\HUB12_FONT\HUB12_FONTSCROLL.ASM
                   FONT_2   0x0000a3    program     static D:\KennyNeutron\HUB12\HUB12_FONT\HUB12_FONTSCROLL.ASM
                  DISPLAY   0x00010b    program     static D:\KennyNeutron\HUB12\HUB12_FONT\HUB12_FONTSCROLL.ASM
                     DSP0   0x00010f    program     static D:\KennyNeutron\HUB12\HUB12_FONT\HUB12_FONTSCROLL.ASM
                     DSP1   0x000119    program     static D:\KennyNeutron\HUB12\HUB12_FONT\HUB12_FONTSCROLL.ASM
                     DSP2   0x000123    program     static D:\KennyNeutron\HUB12\HUB12_FONT\HUB12_FONTSCROLL.ASM
                     DSP3   0x00012d    program     static D:\KennyNeutron\HUB12\HUB12_FONT\HUB12_FONTSCROLL.ASM
                DATALATCH   0x000136    program     static D:\KennyNeutron\HUB12\HUB12_FONT\HUB12_FONTSCROLL.ASM
                      DL0   0x00013d    program     static D:\KennyNeutron\HUB12\HUB12_FONT\HUB12_FONTSCROLL.ASM
                       D0   0x000141    program     static D:\KennyNeutron\HUB12\HUB12_FONT\HUB12_FONTSCROLL.ASM
                       D1   0x000143    program     static D:\KennyNeutron\HUB12\HUB12_FONT\HUB12_FONTSCROLL.ASM
                      DL1   0x000145    program     static D:\KennyNeutron\HUB12\HUB12_FONT\HUB12_FONTSCROLL.ASM
                    CLRAM   0x00014c    program     static D:\KennyNeutron\HUB12\HUB12_FONT\HUB12_FONTSCROLL.ASM
                     DRM0   0x000150    program     static D:\KennyNeutron\HUB12\HUB12_FONT\HUB12_FONTSCROLL.ASM
                 DELAY_US   0x000158    program     static D:\KennyNeutron\HUB12\HUB12_FONT\HUB12_FONTSCROLL.ASM
                     USEC   0x000159    program     static D:\KennyNeutron\HUB12\HUB12_FONT\HUB12_FONTSCROLL.ASM
              DELAY_ONEMS   0x000160    program     static D:\KennyNeutron\HUB12\HUB12_FONT\HUB12_FONTSCROLL.ASM
                     MSEC   0x000162    program     static D:\KennyNeutron\HUB12\HUB12_FONT\HUB12_FONTSCROLL.ASM
                 DELAY_MS   0x000167    program     static D:\KennyNeutron\HUB12\HUB12_FONT\HUB12_FONTSCROLL.ASM
                    MSEC0   0x000168    program     static D:\KennyNeutron\HUB12\HUB12_FONT\HUB12_FONTSCROLL.ASM
             DELAY_ONESEC   0x00016c    program     static D:\KennyNeutron\HUB12\HUB12_FONT\HUB12_FONTSCROLL.ASM
                     SEC0   0x00016e    program     static D:\KennyNeutron\HUB12\HUB12_FONT\HUB12_FONTSCROLL.ASM
                DELAY_SEC   0x000173    program     static D:\KennyNeutron\HUB12\HUB12_FONT\HUB12_FONTSCROLL.ASM
                     SEC1   0x000174    program     static D:\KennyNeutron\HUB12\HUB12_FONT\HUB12_FONTSCROLL.ASM
                  ISHIFTR   0x000200    program     static D:\KennyNeutron\HUB12\HUB12_FONT\HUB12_FONTSCROLL.ASM
                   IGRP_A   0x00021e    program     static D:\KennyNeutron\HUB12\HUB12_FONT\HUB12_FONTSCROLL.ASM
                   ISRA00   0x000226    program     static D:\KennyNeutron\HUB12\HUB12_FONT\HUB12_FONTSCROLL.ASM
                   ISRA01   0x00022f    program     static D:\KennyNeutron\HUB12\HUB12_FONT\HUB12_FONTSCROLL.ASM
                   ISRA02   0x000237    program     static D:\KennyNeutron\HUB12\HUB12_FONT\HUB12_FONTSCROLL.ASM
                   ISRA03   0x00023f    program     static D:\KennyNeutron\HUB12\HUB12_FONT\HUB12_FONTSCROLL.ASM
                   ISRA04   0x000247    program     static D:\KennyNeutron\HUB12\HUB12_FONT\HUB12_FONTSCROLL.ASM
                   ISRA05   0x00024f    program     static D:\KennyNeutron\HUB12\HUB12_FONT\HUB12_FONTSCROLL.ASM
                   ISRA06   0x000257    program     static D:\KennyNeutron\HUB12\HUB12_FONT\HUB12_FONTSCROLL.ASM
                   ISRA07   0x00025f    program     static D:\KennyNeutron\HUB12\HUB12_FONT\HUB12_FONTSCROLL.ASM
                ISRA08_R1   0x000268    program     static D:\KennyNeutron\HUB12\HUB12_FONT\HUB12_FONTSCROLL.ASM
                   ISRA08   0x000269    program     static D:\KennyNeutron\HUB12\HUB12_FONT\HUB12_FONTSCROLL.ASM
                   ISRA09   0x000271    program     static D:\KennyNeutron\HUB12\HUB12_FONT\HUB12_FONTSCROLL.ASM
                   ISRA0A   0x000279    program     static D:\KennyNeutron\HUB12\HUB12_FONT\HUB12_FONTSCROLL.ASM
                   ISRA0B   0x000281    program     static D:\KennyNeutron\HUB12\HUB12_FONT\HUB12_FONTSCROLL.ASM
                   ISRA0C   0x000289    program     static D:\KennyNeutron\HUB12\HUB12_FONT\HUB12_FONTSCROLL.ASM
                   ISRA0D   0x000291    program     static D:\KennyNeutron\HUB12\HUB12_FONT\HUB12_FONTSCROLL.ASM
                   ISRA0E   0x000299    program     static D:\KennyNeutron\HUB12\HUB12_FONT\HUB12_FONTSCROLL.ASM
                   ISRA0F   0x0002a1    program     static D:\KennyNeutron\HUB12\HUB12_FONT\HUB12_FONTSCROLL.ASM
                   IGRP_B   0x0002a8    program     static D:\KennyNeutron\HUB12\HUB12_FONT\HUB12_FONTSCROLL.ASM
                   ISRB00   0x0002b0    program     static D:\KennyNeutron\HUB12\HUB12_FONT\HUB12_FONTSCROLL.ASM
                   ISRB01   0x0002b8    program     static D:\KennyNeutron\HUB12\HUB12_FONT\HUB12_FONTSCROLL.ASM
                   ISRB02   0x0002bf    program     static D:\KennyNeutron\HUB12\HUB12_FONT\HUB12_FONTSCROLL.ASM
                   ISRB03   0x0002c6    program     static D:\KennyNeutron\HUB12\HUB12_FONT\HUB12_FONTSCROLL.ASM
                   ISRB04   0x0002cd    program     static D:\KennyNeutron\HUB12\HUB12_FONT\HUB12_FONTSCROLL.ASM
                   ISRB05   0x0002d4    program     static D:\KennyNeutron\HUB12\HUB12_FONT\HUB12_FONTSCROLL.ASM
                   ISRB06   0x0002db    program     static D:\KennyNeutron\HUB12\HUB12_FONT\HUB12_FONTSCROLL.ASM
                   ISRB07   0x0002e2    program     static D:\KennyNeutron\HUB12\HUB12_FONT\HUB12_FONTSCROLL.ASM
                ISRB08_R1   0x0002ea    program     static D:\KennyNeutron\HUB12\HUB12_FONT\HUB12_FONTSCROLL.ASM
                   ISRB08   0x0002eb    program     static D:\KennyNeutron\HUB12\HUB12_FONT\HUB12_FONTSCROLL.ASM
                   ISRB09   0x0002f2    program     static D:\KennyNeutron\HUB12\HUB12_FONT\HUB12_FONTSCROLL.ASM
                   ISRB0A   0x0002f9    program     static D:\KennyNeutron\HUB12\HUB12_FONT\HUB12_FONTSCROLL.ASM
                   ISRB0B   0x000300    program     static D:\KennyNeutron\HUB12\HUB12_FONT\HUB12_FONTSCROLL.ASM
                   ISRB0C   0x000307    program     static D:\KennyNeutron\HUB12\HUB12_FONT\HUB12_FONTSCROLL.ASM
                   ISRB0D   0x00030e    program     static D:\KennyNeutron\HUB12\HUB12_FONT\HUB12_FONTSCROLL.ASM
                   ISRB0E   0x000315    program     static D:\KennyNeutron\HUB12\HUB12_FONT\HUB12_FONTSCROLL.ASM
                   ISRB0F   0x00031c    program     static D:\KennyNeutron\HUB12\HUB12_FONT\HUB12_FONTSCROLL.ASM
                   IGRP_C   0x000322    program     static D:\KennyNeutron\HUB12\HUB12_FONT\HUB12_FONTSCROLL.ASM
                   ISRC00   0x00032a    program     static D:\KennyNeutron\HUB12\HUB12_FONT\HUB12_FONTSCROLL.ASM
                   ISRC01   0x000331    program     static D:\KennyNeutron\HUB12\HUB12_FONT\HUB12_FONTSCROLL.ASM
                   ISRC02   0x000337    program     static D:\KennyNeutron\HUB12\HUB12_FONT\HUB12_FONTSCROLL.ASM
                   ISRC03   0x00033d    program     static D:\KennyNeutron\HUB12\HUB12_FONT\HUB12_FONTSCROLL.ASM
                   ISRC04   0x000343    program     static D:\KennyNeutron\HUB12\HUB12_FONT\HUB12_FONTSCROLL.ASM
                   ISRC05   0x000349    program     static D:\KennyNeutron\HUB12\HUB12_FONT\HUB12_FONTSCROLL.ASM
                   ISRC06   0x00034f    program     static D:\KennyNeutron\HUB12\HUB12_FONT\HUB12_FONTSCROLL.ASM
                   ISRC07   0x000355    program     static D:\KennyNeutron\HUB12\HUB12_FONT\HUB12_FONTSCROLL.ASM
                ISRC08_R1   0x00035c    program     static D:\KennyNeutron\HUB12\HUB12_FONT\HUB12_FONTSCROLL.ASM
                   ISRC08   0x00035d    program     static D:\KennyNeutron\HUB12\HUB12_FONT\HUB12_FONTSCROLL.ASM
                   ISRC09   0x000363    program     static D:\KennyNeutron\HUB12\HUB12_FONT\HUB12_FONTSCROLL.ASM
                   ISRC0A   0x000369    program     static D:\KennyNeutron\HUB12\HUB12_FONT\HUB12_FONTSCROLL.ASM
                   ISRC0B   0x00036f    program     static D:\KennyNeutron\HUB12\HUB12_FONT\HUB12_FONTSCROLL.ASM
                   ISRC0C   0x000375    program     static D:\KennyNeutron\HUB12\HUB12_FONT\HUB12_FONTSCROLL.ASM
                   ISRC0D   0x00037b    program     static D:\KennyNeutron\HUB12\HUB12_FONT\HUB12_FONTSCROLL.ASM
                   ISRC0E   0x000381    program     static D:\KennyNeutron\HUB12\HUB12_FONT\HUB12_FONTSCROLL.ASM
                   ISRC0F   0x000387    program     static D:\KennyNeutron\HUB12\HUB12_FONT\HUB12_FONTSCROLL.ASM
                   IGRP_D   0x00038c    program     static D:\KennyNeutron\HUB12\HUB12_FONT\HUB12_FONTSCROLL.ASM
         DSHIFT_DOWN_GRPC   0x000400    program     static D:\KennyNeutron\HUB12\HUB12_FONT\HUB12_FONTSCROLL.ASM
         ISHIFT_DOWN_GRPC   0x000423    program     static D:\KennyNeutron\HUB12\HUB12_FONT\HUB12_FONTSCROLL.ASM
                   SHIFTR   0x000500    program     static D:\KennyNeutron\HUB12\HUB12_FONT\HUB12_FONTSCROLL.ASM
                    GRP_A   0x00051c    program     static D:\KennyNeutron\HUB12\HUB12_FONT\HUB12_FONTSCROLL.ASM
                    SRA00   0x000524    program     static D:\KennyNeutron\HUB12\HUB12_FONT\HUB12_FONTSCROLL.ASM
                    SRA01   0x00052d    program     static D:\KennyNeutron\HUB12\HUB12_FONT\HUB12_FONTSCROLL.ASM
                    SRA02   0x000535    program     static D:\KennyNeutron\HUB12\HUB12_FONT\HUB12_FONTSCROLL.ASM
                    SRA03   0x00053d    program     static D:\KennyNeutron\HUB12\HUB12_FONT\HUB12_FONTSCROLL.ASM
                    SRA04   0x000545    program     static D:\KennyNeutron\HUB12\HUB12_FONT\HUB12_FONTSCROLL.ASM
                    SRA05   0x00054d    program     static D:\KennyNeutron\HUB12\HUB12_FONT\HUB12_FONTSCROLL.ASM
                    SRA06   0x000555    program     static D:\KennyNeutron\HUB12\HUB12_FONT\HUB12_FONTSCROLL.ASM
                    SRA07   0x00055d    program     static D:\KennyNeutron\HUB12\HUB12_FONT\HUB12_FONTSCROLL.ASM
                 SRA08_R1   0x000566    program     static D:\KennyNeutron\HUB12\HUB12_FONT\HUB12_FONTSCROLL.ASM
                    SRA08   0x000567    program     static D:\KennyNeutron\HUB12\HUB12_FONT\HUB12_FONTSCROLL.ASM
                    SRA09   0x00056f    program     static D:\KennyNeutron\HUB12\HUB12_FONT\HUB12_FONTSCROLL.ASM
                    SRA0A   0x000577    program     static D:\KennyNeutron\HUB12\HUB12_FONT\HUB12_FONTSCROLL.ASM
                    SRA0B   0x00057f    program     static D:\KennyNeutron\HUB12\HUB12_FONT\HUB12_FONTSCROLL.ASM
                    SRA0C   0x000587    program     static D:\KennyNeutron\HUB12\HUB12_FONT\HUB12_FONTSCROLL.ASM
                    SRA0D   0x00058f    program     static D:\KennyNeutron\HUB12\HUB12_FONT\HUB12_FONTSCROLL.ASM
                    SRA0E   0x000597    program     static D:\KennyNeutron\HUB12\HUB12_FONT\HUB12_FONTSCROLL.ASM
                    SRA0F   0x00059f    program     static D:\KennyNeutron\HUB12\HUB12_FONT\HUB12_FONTSCROLL.ASM
                    GRP_B   0x0005a6    program     static D:\KennyNeutron\HUB12\HUB12_FONT\HUB12_FONTSCROLL.ASM
                    SRB00   0x0005ae    program     static D:\KennyNeutron\HUB12\HUB12_FONT\HUB12_FONTSCROLL.ASM
                    SRB01   0x0005b6    program     static D:\KennyNeutron\HUB12\HUB12_FONT\HUB12_FONTSCROLL.ASM
                    SRB02   0x0005bd    program     static D:\KennyNeutron\HUB12\HUB12_FONT\HUB12_FONTSCROLL.ASM
                    SRB03   0x0005c4    program     static D:\KennyNeutron\HUB12\HUB12_FONT\HUB12_FONTSCROLL.ASM
                    SRB04   0x0005cb    program     static D:\KennyNeutron\HUB12\HUB12_FONT\HUB12_FONTSCROLL.ASM
                    SRB05   0x0005d2    program     static D:\KennyNeutron\HUB12\HUB12_FONT\HUB12_FONTSCROLL.ASM
                    SRB06   0x0005d9    program     static D:\KennyNeutron\HUB12\HUB12_FONT\HUB12_FONTSCROLL.ASM
                    SRB07   0x0005e0    program     static D:\KennyNeutron\HUB12\HUB12_FONT\HUB12_FONTSCROLL.ASM
                 SRB08_R1   0x0005e8    program     static D:\KennyNeutron\HUB12\HUB12_FONT\HUB12_FONTSCROLL.ASM
                    SRB08   0x0005e9    program     static D:\KennyNeutron\HUB12\HUB12_FONT\HUB12_FONTSCROLL.ASM
                    SRB09   0x0005f0    program     static D:\KennyNeutron\HUB12\HUB12_FONT\HUB12_FONTSCROLL.ASM
                    SRB0A   0x0005f7    program     static D:\KennyNeutron\HUB12\HUB12_FONT\HUB12_FONTSCROLL.ASM
                    SRB0B   0x0005fe    program     static D:\KennyNeutron\HUB12\HUB12_FONT\HUB12_FONTSCROLL.ASM
                    SRB0C   0x000605    program     static D:\KennyNeutron\HUB12\HUB12_FONT\HUB12_FONTSCROLL.ASM
                    SRB0D   0x00060c    program     static D:\KennyNeutron\HUB12\HUB12_FONT\HUB12_FONTSCROLL.ASM
                    SRB0E   0x000613    program     static D:\KennyNeutron\HUB12\HUB12_FONT\HUB12_FONTSCROLL.ASM
                    SRB0F   0x00061a    program     static D:\KennyNeutron\HUB12\HUB12_FONT\HUB12_FONTSCROLL.ASM
                    GRP_C   0x000620    program     static D:\KennyNeutron\HUB12\HUB12_FONT\HUB12_FONTSCROLL.ASM
                    SRC00   0x000628    program     static D:\KennyNeutron\HUB12\HUB12_FONT\HUB12_FONTSCROLL.ASM
                    SRC01   0x00062f    program     static D:\KennyNeutron\HUB12\HUB12_FONT\HUB12_FONTSCROLL.ASM
                    SRC02   0x000635    program     static D:\KennyNeutron\HUB12\HUB12_FONT\HUB12_FONTSCROLL.ASM
                    SRC03   0x00063b    program     static D:\KennyNeutron\HUB12\HUB12_FONT\HUB12_FONTSCROLL.ASM
                    SRC04   0x000641    program     static D:\KennyNeutron\HUB12\HUB12_FONT\HUB12_FONTSCROLL.ASM
                    SRC05   0x000647    program     static D:\KennyNeutron\HUB12\HUB12_FONT\HUB12_FONTSCROLL.ASM
                    SRC06   0x00064d    program     static D:\KennyNeutron\HUB12\HUB12_FONT\HUB12_FONTSCROLL.ASM
                    SRC07   0x000653    program     static D:\KennyNeutron\HUB12\HUB12_FONT\HUB12_FONTSCROLL.ASM
                 SRC08_R1   0x00065a    program     static D:\KennyNeutron\HUB12\HUB12_FONT\HUB12_FONTSCROLL.ASM
                    SRC08   0x00065b    program     static D:\KennyNeutron\HUB12\HUB12_FONT\HUB12_FONTSCROLL.ASM
                    SRC09   0x000661    program     static D:\KennyNeutron\HUB12\HUB12_FONT\HUB12_FONTSCROLL.ASM
                    SRC0A   0x000667    program     static D:\KennyNeutron\HUB12\HUB12_FONT\HUB12_FONTSCROLL.ASM
                    SRC0B   0x00066d    program     static D:\KennyNeutron\HUB12\HUB12_FONT\HUB12_FONTSCROLL.ASM
                    SRC0C   0x000673    program     static D:\KennyNeutron\HUB12\HUB12_FONT\HUB12_FONTSCROLL.ASM
                    SRC0D   0x000679    program     static D:\KennyNeutron\HUB12\HUB12_FONT\HUB12_FONTSCROLL.ASM
                    SRC0E   0x00067f    program     static D:\KennyNeutron\HUB12\HUB12_FONT\HUB12_FONTSCROLL.ASM
                    SRC0F   0x000685    program     static D:\KennyNeutron\HUB12\HUB12_FONT\HUB12_FONTSCROLL.ASM
                    GRP_D   0x00068a    program     static D:\KennyNeutron\HUB12\HUB12_FONT\HUB12_FONTSCROLL.ASM
                   SCROLL   0x000700    program     static D:\KennyNeutron\HUB12\HUB12_FONT\HUB12_FONTSCROLL.ASM
                     MAN2   0x000709    program     static D:\KennyNeutron\HUB12\HUB12_FONT\HUB12_FONTSCROLL.ASM
                     MAN1   0x000711    program     static D:\KennyNeutron\HUB12\HUB12_FONT\HUB12_FONTSCROLL.ASM
                     MAN0   0x00072c    program     static D:\KennyNeutron\HUB12\HUB12_FONT\HUB12_FONTSCROLL.ASM
                     CHAR   0x000800    program     static D:\KennyNeutron\HUB12\HUB12_FONT\HUB12_FONTSCROLL.ASM
                     ZERO   0x00080c    program     static D:\KennyNeutron\HUB12\HUB12_FONT\HUB12_FONTSCROLL.ASM
                      ONE   0x000821    program     static D:\KennyNeutron\HUB12\HUB12_FONT\HUB12_FONTSCROLL.ASM
                      TWO   0x000834    program     static D:\KennyNeutron\HUB12\HUB12_FONT\HUB12_FONTSCROLL.ASM
                    THREE   0x000847    program     static D:\KennyNeutron\HUB12\HUB12_FONT\HUB12_FONTSCROLL.ASM
                     FOUR   0x00085a    program     static D:\KennyNeutron\HUB12\HUB12_FONT\HUB12_FONTSCROLL.ASM
                     FIVE   0x00086d    program     static D:\KennyNeutron\HUB12\HUB12_FONT\HUB12_FONTSCROLL.ASM
                      SIX   0x000880    program     static D:\KennyNeutron\HUB12\HUB12_FONT\HUB12_FONTSCROLL.ASM
                    SEVEN   0x000893    program     static D:\KennyNeutron\HUB12\HUB12_FONT\HUB12_FONTSCROLL.ASM
                    EIGHT   0x0008a6    program     static D:\KennyNeutron\HUB12\HUB12_FONT\HUB12_FONTSCROLL.ASM
                     NINE   0x0008b9    program     static D:\KennyNeutron\HUB12\HUB12_FONT\HUB12_FONTSCROLL.ASM
                   L_CHAR   0x000900    program     static D:\KennyNeutron\HUB12\HUB12_FONT\HUB12_FONTSCROLL.ASM
                   L_ZERO   0x00090c    program     static D:\KennyNeutron\HUB12\HUB12_FONT\HUB12_FONTSCROLL.ASM
                    L_ONE   0x000917    program     static D:\KennyNeutron\HUB12\HUB12_FONT\HUB12_FONTSCROLL.ASM
                    L_TWO   0x000922    program     static D:\KennyNeutron\HUB12\HUB12_FONT\HUB12_FONTSCROLL.ASM
                  L_THREE   0x00092d    program     static D:\KennyNeutron\HUB12\HUB12_FONT\HUB12_FONTSCROLL.ASM
                   L_FOUR   0x000938    program     static D:\KennyNeutron\HUB12\HUB12_FONT\HUB12_FONTSCROLL.ASM
                   L_FIVE   0x000943    program     static D:\KennyNeutron\HUB12\HUB12_FONT\HUB12_FONTSCROLL.ASM
                    L_SIX   0x00094e    program     static D:\KennyNeutron\HUB12\HUB12_FONT\HUB12_FONTSCROLL.ASM
                  L_SEVEN   0x000959    program     static D:\KennyNeutron\HUB12\HUB12_FONT\HUB12_FONTSCROLL.ASM
                  L_EIGHT   0x000964    program     static D:\KennyNeutron\HUB12\HUB12_FONT\HUB12_FONTSCROLL.ASM
                   L_NINE   0x00096f    program     static D:\KennyNeutron\HUB12\HUB12_FONT\HUB12_FONTSCROLL.ASM
                   T_CHAR   0x000a00    program     static D:\KennyNeutron\HUB12\HUB12_FONT\HUB12_FONTSCROLL.ASM
                 NEXTPAGE   0x000a0c    program     static D:\KennyNeutron\HUB12\HUB12_FONT\HUB12_FONTSCROLL.ASM
                   T_ZERO   0x000a0f    program     static D:\KennyNeutron\HUB12\HUB12_FONT\HUB12_FONTSCROLL.ASM
                    T_ONE   0x000a32    program     static D:\KennyNeutron\HUB12\HUB12_FONT\HUB12_FONTSCROLL.ASM
                    T_TWO   0x000a55    program     static D:\KennyNeutron\HUB12\HUB12_FONT\HUB12_FONTSCROLL.ASM
                  T_THREE   0x000a78    program     static D:\KennyNeutron\HUB12\HUB12_FONT\HUB12_FONTSCROLL.ASM
                   T_FOUR   0x000a9b    program     static D:\KennyNeutron\HUB12\HUB12_FONT\HUB12_FONTSCROLL.ASM
                   T_FIVE   0x000abe    program     static D:\KennyNeutron\HUB12\HUB12_FONT\HUB12_FONTSCROLL.ASM
                  T_CHARB   0x000b00    program     static D:\KennyNeutron\HUB12\HUB12_FONT\HUB12_FONTSCROLL.ASM
                    T_SIX   0x000b0c    program     static D:\KennyNeutron\HUB12\HUB12_FONT\HUB12_FONTSCROLL.ASM
                  T_SEVEN   0x000b2f    program     static D:\KennyNeutron\HUB12\HUB12_FONT\HUB12_FONTSCROLL.ASM
                  T_EIGHT   0x000b52    program     static D:\KennyNeutron\HUB12\HUB12_FONT\HUB12_FONTSCROLL.ASM
                   T_NINE   0x000b75    program     static D:\KennyNeutron\HUB12\HUB12_FONT\HUB12_FONTSCROLL.ASM
                  TENDOWN   0x000c00    program     static D:\KennyNeutron\HUB12\HUB12_FONT\HUB12_FONTSCROLL.ASM
                      TD0   0x000c37    program     static D:\KennyNeutron\HUB12\HUB12_FONT\HUB12_FONTSCROLL.ASM
             CMD_CLR_IRAM   0x000d00    program     static D:\KennyNeutron\HUB12\HUB12_FONT\HUB12_FONTSCROLL.ASM
                     IRM0   0x000d06    program     static D:\KennyNeutron\HUB12\HUB12_FONT\HUB12_FONTSCROLL.ASM
                    IDUMP   0x000d0d    program     static D:\KennyNeutron\HUB12\HUB12_FONT\HUB12_FONTSCROLL.ASM
                  IFONT_0   0x000d14    program     static D:\KennyNeutron\HUB12\HUB12_FONT\HUB12_FONTSCROLL.ASM
                  IFONT_1   0x000d50    program     static D:\KennyNeutron\HUB12\HUB12_FONT\HUB12_FONTSCROLL.ASM
                  IFONT_2   0x000d74    program     static D:\KennyNeutron\HUB12\HUB12_FONT\HUB12_FONTSCROLL.ASM
          ISCRL_DOWN_GRPA   0x000f00    program     static D:\KennyNeutron\HUB12\HUB12_FONT\HUB12_FONTSCROLL.ASM
         DSHIFT_DOWN_GRPA   0x000f14    program     static D:\KennyNeutron\HUB12\HUB12_FONT\HUB12_FONTSCROLL.ASM
         ISHIFT_DOWN_GRPA   0x000f37    program     static D:\KennyNeutron\HUB12\HUB12_FONT\HUB12_FONTSCROLL.ASM
         DSHIFT_DOWN_GRPB   0x000f5e    program     static D:\KennyNeutron\HUB12\HUB12_FONT\HUB12_FONTSCROLL.ASM
         ISHIFT_DOWN_GRPB   0x000f81    program     static D:\KennyNeutron\HUB12\HUB12_FONT\HUB12_FONTSCROLL.ASM


