MPASM  5.51              HUB12_FONTSCROLL.ASM   5-20-2019  14:19:30         PAGE  1


LOC  OBJECT CODE     LINE SOURCE TEXT
  VALUE

                      00001 ;**********************************************************************
                      00002 ;                                                                     *
                      00003 ;    Filename:      HUB12_FONT.asm                                    *
                      00004 ;    Date:          2019.17.05                                        *
                      00005 ;    File Version:                                                    *
                      00006 ;                                                                     *
                      00007 ;    Author:                                                          *
                      00008 ;    Company:      GER-PER ENGINEERING                                *
                      00009 ;                                                                     * 
                      00010 ;                                                                     *
                      00011 ;**********************************************************************
                      00012 ;                                                                     *
                      00013 ;    Files Required: P16F690.INC                                      *
                      00014 ;                                                                     *
                      00015 ;**********************************************************************
                      00016 
                      00017 
                      00018 
                      00019 
                      00020         list            p=16f690                ; list directive to define processor
                      00021         #include        <P16F690.inc>           ; processor specific variable definitions
                      00001         LIST
                      00002 
                      00003 ;==========================================================================
                      00004 ;  MPASM PIC16F690 processor include
                      00005 ; 
                      00006 ;  (c) Copyright 1999-2013 Microchip Technology, All rights reserved
                      00007 ;==========================================================================
                      00008 
                      00756         LIST
                      00022         
2007   30C2           00023         __CONFIG    _CP_OFF & _CPD_OFF & _BOR_OFF & _PWRTE_ON & _WDT_OFF & _HS_OSC & _MCLRE_OFF & _FCMEN
                            _OFF & _IESO_OFF
                      00024 
                      00025 
                      00026 ; '__CONFIG' directive is used to embed configuration data within .asm file.
                      00027 ; The labels following the directive are located in the respective .inc file.
                      00028 ; See respective data sheet for additional information on configuration word.
                      00029 
                      00030 
                      00031 
                      00032 
                      00033 
                      00034 
                      00035 ;***** VARIABLE DEFINITIONS
  0000007D            00036 w_temp          EQU     0x7D                    ; variable used for context saving
  0000007E            00037 status_temp     EQU     0x7E                    ; variable used for context saving
  0000007F            00038 pclath_temp     EQU     0x7F                    ; variable used for context saving
                      00039         
                      00040 
                      00041         ;#DEFINE C0_ON          BSF PORTC,      0       PORTC0=====>HI
                      00042         ;#DEFINE C0_OFF         BCF PORTC,      0       PORTC0=====>LO
                      00043 
MPASM  5.51              HUB12_FONTSCROLL.ASM   5-20-2019  14:19:30         PAGE  2


LOC  OBJECT CODE     LINE SOURCE TEXT
  VALUE

                      00044         #DEFINE A_ON            BSF     PORTC,  0
                      00045         #DEFINE A_OFF           BCF     PORTC,  0
                      00046         
                      00047         #DEFINE B_ON            BSF     PORTC,  1
                      00048         #DEFINE B_OFF           BCF     PORTC,  1
                      00049 
                      00050         #DEFINE DAT_ON          BSF     PORTC,  2
                      00051         #DEFINE DAT_OFF         BCF     PORTC,  2
                      00052 
                      00053         #DEFINE CLK_ON          BSF     PORTC,  7
                      00054         #DEFINE CLK_OFF         BCF     PORTC,  7
                      00055         
                      00056         #DEFINE REG_ON          BSF     PORTC,  4
                      00057         #DEFINE REG_OFF         BCF     PORTC,  4
                      00058         
                      00059         #DEFINE OE_ON           BSF     PORTC,  5
                      00060         #DEFINE OE_OFF          BCF     PORTC,  5
                      00061 
                      00062 
                      00063         #DEFINE BANK0           BANKSEL PORTA
                      00064         #DEFINE BANK1           BANKSEL ADRESL
                      00065         
                      00066         CBLOCK 0x20
                      00067 
  00000020            00068                         DELAYUS, DELAYMS, DELAYS, MILSEC, SEC   ;DELAY VARIABLES
                      00069                         ;=======================================================
                      00070                         
  00000025            00071                         COUNT0, COUNT1, COUNT2, COUNT3
                      00072                         
  00000029            00073                         VAR0
  0000002A            00074                         TEMPFILE, FONT
  0000002C            00075                         DRAM : .64, POINTER
                      00076                         ;========================================================
                      00077 
                      00078 
  0000006D            00079                         SHCNT,COUNT4
  0000006F            00080                         CURSORX,CURSORY,GRP
  00000072            00081                         TESTER
  00000073            00082                         NUMBER,BTCOUNT,WIDTH,TALL
  00000077            00083                         ROW,TENS,PTTEN
  0000007A            00084                         TEMPFILEB,TEMPFILEC,TEMPFILED
                      00085 
                      00086         ENDC
                      00087 
                      00088         CBLOCK 0XA0
                      00089 
  000000A0            00090                         IRAM : .64
  000000E0            00091                         IPOINTER,IWIDTH
  000000E2            00092                         ICOUNT,ITESTER,ICURSORX,ISHCNT,IROW,IPT
                      00093         ENDC
                      00094 ;********************************************************************** 
0000                  00095         ORG             0x000                   ; processor reset vector
                      00096 
MPASM  5.51              HUB12_FONTSCROLL.ASM   5-20-2019  14:19:30         PAGE  3


LOC  OBJECT CODE     LINE SOURCE TEXT
  VALUE

Warning[207]: Found label after column 1. (.)
0000   2810           00097         .       goto    INIT             ; go to beginning of program   
                      00098 
0004                  00099         ORG             0x004                   ; interrupt vector location
0004   00FD           00100         movwf           w_temp                  ; save off current W register contents
0005   0803           00101         movf            STATUS,w                ; move status register into W register
0006   00FE           00102         movwf           status_temp             ; save off contents of STATUS register
0007   080A           00103         movf            PCLATH,w                ; move pclath register into W register
0008   00FF           00104         movwf           pclath_temp             ; save off contents of PCLATH register
                      00105 
                      00106 
                      00107 ; isr code can go here or be located as a call subroutine elsewhere
                      00108 
0009   087F           00109         movf            pclath_temp,w           ; retrieve copy of PCLATH registerz`
000A   008A           00110         movwf           PCLATH                  ; restore pre-isr PCLATH register contents      
000B   087E           00111         movf            status_temp,w           ; retrieve copy of STATUS register
000C   0083           00112         movwf           STATUS                  ; restore pre-isr STATUS register contents
000D   0EFD           00113         swapf           w_temp,f
000E   0E7D           00114         swapf           w_temp,w                ; restore pre-isr W register contents
000F   0009           00115         retfie                                  ; return from interrupt
                      00116 
                      00117 
                      00118 ;$$$$$$$$$$$$$$$$$$$$$  INITIALIZE      $$$$$$$$$$$$$$$$$$$$$$$$$$$$
                      00119 
                      00120 
                      00121 
                      00122 ;DECLARE PORTC AS OUTPUT HERE:
0010                  00123 INIT
                      00124 
                      00125 
Warning[205]: Found directive in column 1. (BANKSEL)
0010   1283 1703      00126 BANKSEL ANSEL
                      00127 
Warning[203]: Found opcode in column 1. (MOVLW)
0012   3000           00128 MOVLW   B'00000000'
Warning[203]: Found opcode in column 1. (MOVWF)
Message[302]: Register in operand not in bank 0.  Ensure that bank bits are correct.
0013   009E           00129 MOVWF   ANSEL
                      00130 
Warning[203]: Found opcode in column 1. (MOVWF)
Message[302]: Register in operand not in bank 0.  Ensure that bank bits are correct.
0014   009F           00131 MOVWF   ANSELH
                      00132 
Warning[203]: Found opcode in column 1. (MOVLW)
0015   3000           00133 MOVLW   B'00000000'
Warning[203]: Found opcode in column 1. (TRIS)
Warning[224]: Use of this instruction is not recommended.
0016   0067           00134 TRIS    PORTC
                      00135 
Warning[205]: Found directive in column 1. (BANKSEL)
0017   1283 1303      00136 BANKSEL PORTA   
                      00137 
                      00138 
MPASM  5.51              HUB12_FONTSCROLL.ASM   5-20-2019  14:19:30         PAGE  4


LOC  OBJECT CODE     LINE SOURCE TEXT
  VALUE

                      00139 
Warning[203]: Found opcode in column 1. (CALL)
0019   214C           00140 CALL    CLRAM
Warning[203]: Found opcode in column 1. (CALL)
001A   203E           00141 CALL    CLR_IRAM
                      00142 
                      00143 
Warning[203]: Found opcode in column 1. (GOTO)
001B   281C           00144 GOTO    MAIN
                      00145 ;$$$$$$$$$$$$$$$$$$$$$$$$$$$$$$$$$$$$$$$$$$$$$$$$$$$$$$$$$$$$$$$
                      00146 
                      00147 
                      00148 
                      00149 
                      00150 
                      00151 
                      00152 ;#######################        MAIN    ##############################
001C                  00153 MAIN
001C   1283 1303      00154                 BANK0
                      00155 
001E   3000           00156                 MOVLW   0
001F   00AB           00157                 MOVWF   FONT
0020   2025           00158                 CALL    COUNT
                      00159                 
0021   3001           00160                 MOVLW   1
0022   00AB           00161                 MOVWF   FONT
0023   2025           00162                 CALL    COUNT
                      00163 
                      00164 
                      00165 
Warning[203]: Found opcode in column 1. (GOTO)
0024   281C           00166 GOTO MAIN
                      00167 ;#################################################################
0025                  00168 COUNT
0025   3000           00169                 MOVLW   0
0026   00F8           00170                 MOVWF   TENS
                      00171 
0027   300A           00172                 MOVLW   .10
0028   00F9           00173                 MOVWF   PTTEN
                      00174 
0029                  00175 MIN0
0029   300C           00176                 MOVLW   0XC
002A   008A           00177                 MOVWF   PCLATH
Message[306]: Crossing page boundary -- ensure page bits are set.
002B   2400           00178                 CALL    TENDOWN
                      00179 
002C   3007           00180                 MOVLW   7
002D   008A           00181                 MOVWF   PCLATH
002E   2700           00182                 CALL    SCROLL
002F   3000           00183                 MOVLW   0
0030   008A           00184                 MOVWF   PCLATH
0031   1283 1303      00185                 BANK0
Message[305]: Using default destination of 1 (file).
MPASM  5.51              HUB12_FONTSCROLL.ASM   5-20-2019  14:19:30         PAGE  5


LOC  OBJECT CODE     LINE SOURCE TEXT
  VALUE

0033   0AF8           00186                 INCF    TENS
0034   0BF9           00187                 DECFSZ  PTTEN,F
0035   2829           00188                 GOTO    MIN0
Warning[203]: Found opcode in column 1. (RETURN)
0036   0008           00189 RETURN
                      00190 
                      00191 ;-------------------
0037                  00192 DISP
0037   300A           00193         MOVLW   .10
0038   00EE           00194         MOVWF   COUNT4
0039                  00195 DISP0
0039   210B           00196         CALL    DISPLAY
003A   0BEE           00197         DECFSZ  COUNT4,F
003B   2839           00198         GOTO    DISP0
003C   1287           00199         OE_OFF
Warning[203]: Found opcode in column 1. (RETURN)
003D   0008           00200 RETURN
                      00201 ;-------------------
                      00202 ;############   CLEAR   IRAM  #################
003E                  00203 CLR_IRAM
                      00204         
003E   300D           00205         MOVLW           0XD
003F   008A           00206         MOVWF           PCLATH
Message[306]: Crossing page boundary -- ensure page bits are set.
0040   2500           00207         CALL            CMD_CLR_IRAM
0041   3000           00208         MOVLW           0
0042   008A           00209         MOVWF           PCLATH 
                      00210 
Warning[203]: Found opcode in column 1. (RETURN)
0043   0008           00211 RETURN
                      00212 ;#################################################
                      00213 
                      00214 ;#################### DUMPING OF DATA #######################
                      00215 
0044                  00216 DUMP
                      00217         
0044   3000           00218         MOVLW   .0
0045   00F4           00219         MOVWF   BTCOUNT
                      00220                 
0046   082B           00221         MOVFW   FONT
0047   0782           00222         ADDWF   PCL,F
                      00223 
0048   284B           00224         GOTO    FONT_0
                      00225         
0049   2883           00226         GOTO    FONT_1
                      00227         
004A   28A3           00228         GOTO    FONT_2
                      00229 
                      00230 
                      00231 
004B                  00232 FONT_0
004B   3008           00233         MOVLW   .8
004C   008A           00234         MOVWF   PCLATH
MPASM  5.51              HUB12_FONTSCROLL.ASM   5-20-2019  14:19:30         PAGE  6


LOC  OBJECT CODE     LINE SOURCE TEXT
  VALUE

                      00235 
Message[306]: Crossing page boundary -- ensure page bits are set.
004D   2000           00236         CALL    CHAR
004E   00F5           00237         MOVWF   WIDTH
Message[305]: Using default destination of 1 (file).
004F   0AF4           00238         INCF    BTCOUNT
                      00239 
                      00240 
Message[306]: Crossing page boundary -- ensure page bits are set.
0050   2000           00241         CALL    CHAR
0051   00DF           00242         MOVWF   DRAM+33
Message[305]: Using default destination of 1 (file).
0052   0AF4           00243         INCF    BTCOUNT
                      00244 
                      00245         
Message[306]: Crossing page boundary -- ensure page bits are set.
0053   2000           00246         CALL    CHAR
0054   00CF           00247         MOVWF   DRAM+23
Message[305]: Using default destination of 1 (file).
0055   0AF4           00248         INCF    BTCOUNT
                      00249 
Message[306]: Crossing page boundary -- ensure page bits are set.
0056   2000           00250         CALL    CHAR
0057   00BF           00251         MOVWF   DRAM+13
Message[305]: Using default destination of 1 (file).
0058   0AF4           00252         INCF    BTCOUNT
                      00253 
Message[306]: Crossing page boundary -- ensure page bits are set.
0059   2000           00254         CALL    CHAR
005A   00AF           00255         MOVWF   DRAM+03
Message[305]: Using default destination of 1 (file).
005B   0AF4           00256         INCF    BTCOUNT
                      00257 
Message[306]: Crossing page boundary -- ensure page bits are set.
005C   2000           00258         CALL    CHAR
005D   00DE           00259         MOVWF   DRAM+32
Message[305]: Using default destination of 1 (file).
005E   0AF4           00260         INCF    BTCOUNT
                      00261 
Message[306]: Crossing page boundary -- ensure page bits are set.
005F   2000           00262         CALL    CHAR
0060   00CE           00263         MOVWF   DRAM+22
Message[305]: Using default destination of 1 (file).
0061   0AF4           00264         INCF    BTCOUNT
                      00265 
Message[306]: Crossing page boundary -- ensure page bits are set.
0062   2000           00266         CALL    CHAR
0063   00BE           00267         MOVWF   DRAM+12
Message[305]: Using default destination of 1 (file).
0064   0AF4           00268         INCF    BTCOUNT
                      00269 
Message[306]: Crossing page boundary -- ensure page bits are set.
0065   2000           00270         CALL    CHAR
MPASM  5.51              HUB12_FONTSCROLL.ASM   5-20-2019  14:19:30         PAGE  7


LOC  OBJECT CODE     LINE SOURCE TEXT
  VALUE

0066   00AE           00271         MOVWF   DRAM+02
Message[305]: Using default destination of 1 (file).
0067   0AF4           00272         INCF    BTCOUNT
                      00273 
Message[306]: Crossing page boundary -- ensure page bits are set.
0068   2000           00274         CALL    CHAR
0069   00DD           00275         MOVWF   DRAM+31
Message[305]: Using default destination of 1 (file).
006A   0AF4           00276         INCF    BTCOUNT
                      00277 
Message[306]: Crossing page boundary -- ensure page bits are set.
006B   2000           00278         CALL    CHAR
006C   00CD           00279         MOVWF   DRAM+21
Message[305]: Using default destination of 1 (file).
006D   0AF4           00280         INCF    BTCOUNT
                      00281 
Message[306]: Crossing page boundary -- ensure page bits are set.
006E   2000           00282         CALL    CHAR
006F   00BD           00283         MOVWF   DRAM+11
Message[305]: Using default destination of 1 (file).
0070   0AF4           00284         INCF    BTCOUNT
                      00285 
Message[306]: Crossing page boundary -- ensure page bits are set.
0071   2000           00286         CALL    CHAR
0072   00AD           00287         MOVWF   DRAM+01
Message[305]: Using default destination of 1 (file).
0073   0AF4           00288         INCF    BTCOUNT
                      00289 
Message[306]: Crossing page boundary -- ensure page bits are set.
0074   2000           00290         CALL    CHAR
0075   00DC           00291         MOVWF   DRAM+30
Message[305]: Using default destination of 1 (file).
0076   0AF4           00292         INCF    BTCOUNT
                      00293 
Message[306]: Crossing page boundary -- ensure page bits are set.
0077   2000           00294         CALL    CHAR
0078   00CC           00295         MOVWF   DRAM+20
Message[305]: Using default destination of 1 (file).
0079   0AF4           00296         INCF    BTCOUNT
                      00297 
Message[306]: Crossing page boundary -- ensure page bits are set.
007A   2000           00298         CALL    CHAR
007B   00BC           00299         MOVWF   DRAM+10
Message[305]: Using default destination of 1 (file).
007C   0AF4           00300         INCF    BTCOUNT
                      00301 
Message[306]: Crossing page boundary -- ensure page bits are set.
007D   2000           00302         CALL    CHAR
007E   00AC           00303         MOVWF   DRAM+00
Message[305]: Using default destination of 1 (file).
007F   0AF4           00304         INCF    BTCOUNT
                      00305 
0080   3000           00306         MOVLW   .0                      ;BACK TO PAGE1
MPASM  5.51              HUB12_FONTSCROLL.ASM   5-20-2019  14:19:30         PAGE  8


LOC  OBJECT CODE     LINE SOURCE TEXT
  VALUE

0081   008A           00307         MOVWF   PCLATH
Warning[203]: Found opcode in column 1. (RETURN)
0082   0008           00308 RETURN
                      00309 
0083                  00310 FONT_1
                      00311 
0083   3009           00312         MOVLW   .9
0084   008A           00313         MOVWF   PCLATH
                      00314 
Message[306]: Crossing page boundary -- ensure page bits are set.
0085   2100           00315         CALL    L_CHAR
0086   00F5           00316         MOVWF   WIDTH
Message[305]: Using default destination of 1 (file).
0087   0AF4           00317         INCF    BTCOUNT
                      00318 
Message[306]: Crossing page boundary -- ensure page bits are set.
0088   2100           00319         CALL    L_CHAR
0089   00DD           00320         MOVWF   DRAM+31
Message[305]: Using default destination of 1 (file).
008A   0AF4           00321         INCF    BTCOUNT
                      00322 
Message[306]: Crossing page boundary -- ensure page bits are set.
008B   2100           00323         CALL    L_CHAR
008C   00CD           00324         MOVWF   DRAM+21
Message[305]: Using default destination of 1 (file).
008D   0AF4           00325         INCF    BTCOUNT
                      00326 
Message[306]: Crossing page boundary -- ensure page bits are set.
008E   2100           00327         CALL    L_CHAR
008F   00BD           00328         MOVWF   DRAM+11
Message[305]: Using default destination of 1 (file).
0090   0AF4           00329         INCF    BTCOUNT
                      00330 
Message[306]: Crossing page boundary -- ensure page bits are set.
0091   2100           00331         CALL    L_CHAR
0092   00AD           00332         MOVWF   DRAM+01
Message[305]: Using default destination of 1 (file).
0093   0AF4           00333         INCF    BTCOUNT
                      00334 
Message[306]: Crossing page boundary -- ensure page bits are set.
0094   2100           00335         CALL    L_CHAR
0095   00DC           00336         MOVWF   DRAM+30
Message[305]: Using default destination of 1 (file).
0096   0AF4           00337         INCF    BTCOUNT
                      00338 
Message[306]: Crossing page boundary -- ensure page bits are set.
0097   2100           00339         CALL    L_CHAR
0098   00CC           00340         MOVWF   DRAM+20
Message[305]: Using default destination of 1 (file).
0099   0AF4           00341         INCF    BTCOUNT
                      00342 
Message[306]: Crossing page boundary -- ensure page bits are set.
009A   2100           00343         CALL    L_CHAR
MPASM  5.51              HUB12_FONTSCROLL.ASM   5-20-2019  14:19:30         PAGE  9


LOC  OBJECT CODE     LINE SOURCE TEXT
  VALUE

009B   00BC           00344         MOVWF   DRAM+10
Message[305]: Using default destination of 1 (file).
009C   0AF4           00345         INCF    BTCOUNT
                      00346 
Message[306]: Crossing page boundary -- ensure page bits are set.
009D   2100           00347         CALL    L_CHAR
009E   00AC           00348         MOVWF   DRAM+00
Message[305]: Using default destination of 1 (file).
009F   0AF4           00349         INCF    BTCOUNT
                      00350 
00A0   3000           00351         MOVLW   .0                      ;BACK TO PAGE1
00A1   008A           00352         MOVWF   PCLATH
                      00353 
00A2   0008           00354         RETURN
                      00355 
00A3                  00356 FONT_2
                      00357 
00A3   300A           00358         MOVLW   0XA
00A4   008A           00359         MOVWF   PCLATH
                      00360 
Message[306]: Crossing page boundary -- ensure page bits are set.
00A5   2200           00361         CALL    T_CHAR
00A6   00F5           00362         MOVWF   WIDTH
Message[305]: Using default destination of 1 (file).
00A7   0AF4           00363         INCF    BTCOUNT
                      00364 
                      00365 
Message[306]: Crossing page boundary -- ensure page bits are set.
00A8   2200           00366         CALL    T_CHAR
00A9   00DF           00367         MOVWF   DRAM+33
Message[305]: Using default destination of 1 (file).
00AA   0AF4           00368         INCF    BTCOUNT
                      00369 
Message[306]: Crossing page boundary -- ensure page bits are set.
00AB   2200           00370         CALL    T_CHAR
00AC   00E3           00371         MOVWF   DRAM+37
Message[305]: Using default destination of 1 (file).
00AD   0AF4           00372         INCF    BTCOUNT
                      00373         
Message[306]: Crossing page boundary -- ensure page bits are set.
00AE   2200           00374         CALL    T_CHAR
00AF   00CF           00375         MOVWF   DRAM+23
Message[305]: Using default destination of 1 (file).
00B0   0AF4           00376         INCF    BTCOUNT
                      00377         
Message[306]: Crossing page boundary -- ensure page bits are set.
00B1   2200           00378         CALL    T_CHAR
00B2   00D3           00379         MOVWF   DRAM+27
Message[305]: Using default destination of 1 (file).
00B3   0AF4           00380         INCF    BTCOUNT
                      00381 
Message[306]: Crossing page boundary -- ensure page bits are set.
00B4   2200           00382         CALL    T_CHAR
MPASM  5.51              HUB12_FONTSCROLL.ASM   5-20-2019  14:19:30         PAGE 10


LOC  OBJECT CODE     LINE SOURCE TEXT
  VALUE

00B5   00BF           00383         MOVWF   DRAM+13
Message[305]: Using default destination of 1 (file).
00B6   0AF4           00384         INCF    BTCOUNT
                      00385         
Message[306]: Crossing page boundary -- ensure page bits are set.
00B7   2200           00386         CALL    T_CHAR
00B8   00C3           00387         MOVWF   DRAM+17
Message[305]: Using default destination of 1 (file).
00B9   0AF4           00388         INCF    BTCOUNT
                      00389 
Message[306]: Crossing page boundary -- ensure page bits are set.
00BA   2200           00390         CALL    T_CHAR
00BB   00AF           00391         MOVWF   DRAM+03
Message[305]: Using default destination of 1 (file).
00BC   0AF4           00392         INCF    BTCOUNT
                      00393 
Message[306]: Crossing page boundary -- ensure page bits are set.
00BD   2200           00394         CALL    T_CHAR
00BE   00B3           00395         MOVWF   DRAM+07
Message[305]: Using default destination of 1 (file).
00BF   0AF4           00396         INCF    BTCOUNT
                      00397 
Message[306]: Crossing page boundary -- ensure page bits are set.
00C0   2200           00398         CALL    T_CHAR
00C1   00DE           00399         MOVWF   DRAM+32
Message[305]: Using default destination of 1 (file).
00C2   0AF4           00400         INCF    BTCOUNT
                      00401 
Message[306]: Crossing page boundary -- ensure page bits are set.
00C3   2200           00402         CALL    T_CHAR
00C4   00E2           00403         MOVWF   DRAM+36
Message[305]: Using default destination of 1 (file).
00C5   0AF4           00404         INCF    BTCOUNT
                      00405 
Message[306]: Crossing page boundary -- ensure page bits are set.
00C6   2200           00406         CALL    T_CHAR
00C7   00CE           00407         MOVWF   DRAM+22
Message[305]: Using default destination of 1 (file).
00C8   0AF4           00408         INCF    BTCOUNT
                      00409 
Message[306]: Crossing page boundary -- ensure page bits are set.
00C9   2200           00410         CALL    T_CHAR
00CA   00D2           00411         MOVWF   DRAM+26
Message[305]: Using default destination of 1 (file).
00CB   0AF4           00412         INCF    BTCOUNT
                      00413 
Message[306]: Crossing page boundary -- ensure page bits are set.
00CC   2200           00414         CALL    T_CHAR
00CD   00BE           00415         MOVWF   DRAM+12
Message[305]: Using default destination of 1 (file).
00CE   0AF4           00416         INCF    BTCOUNT
                      00417 
Message[306]: Crossing page boundary -- ensure page bits are set.
MPASM  5.51              HUB12_FONTSCROLL.ASM   5-20-2019  14:19:30         PAGE 11


LOC  OBJECT CODE     LINE SOURCE TEXT
  VALUE

00CF   2200           00418         CALL    T_CHAR
00D0   00C2           00419         MOVWF   DRAM+16
Message[305]: Using default destination of 1 (file).
00D1   0AF4           00420         INCF    BTCOUNT
                      00421 
Message[306]: Crossing page boundary -- ensure page bits are set.
00D2   2200           00422         CALL    T_CHAR
00D3   00AE           00423         MOVWF   DRAM+02
Message[305]: Using default destination of 1 (file).
00D4   0AF4           00424         INCF    BTCOUNT
                      00425 
Message[306]: Crossing page boundary -- ensure page bits are set.
00D5   2200           00426         CALL    T_CHAR
00D6   00B2           00427         MOVWF   DRAM+06
Message[305]: Using default destination of 1 (file).
00D7   0AF4           00428         INCF    BTCOUNT
                      00429 
Message[306]: Crossing page boundary -- ensure page bits are set.
00D8   2200           00430         CALL    T_CHAR
00D9   00DD           00431         MOVWF   DRAM+31
Message[305]: Using default destination of 1 (file).
00DA   0AF4           00432         INCF    BTCOUNT
                      00433 
Message[306]: Crossing page boundary -- ensure page bits are set.
00DB   2200           00434         CALL    T_CHAR
00DC   00E1           00435         MOVWF   DRAM+35
Message[305]: Using default destination of 1 (file).
00DD   0AF4           00436         INCF    BTCOUNT
                      00437 
Message[306]: Crossing page boundary -- ensure page bits are set.
00DE   2200           00438         CALL    T_CHAR
00DF   00CD           00439         MOVWF   DRAM+21
Message[305]: Using default destination of 1 (file).
00E0   0AF4           00440         INCF    BTCOUNT
                      00441 
Message[306]: Crossing page boundary -- ensure page bits are set.
00E1   2200           00442         CALL    T_CHAR
00E2   00D1           00443         MOVWF   DRAM+25
Message[305]: Using default destination of 1 (file).
00E3   0AF4           00444         INCF    BTCOUNT
                      00445 
Message[306]: Crossing page boundary -- ensure page bits are set.
00E4   2200           00446         CALL    T_CHAR
00E5   00BD           00447         MOVWF   DRAM+11
Message[305]: Using default destination of 1 (file).
00E6   0AF4           00448         INCF    BTCOUNT
                      00449 
Message[306]: Crossing page boundary -- ensure page bits are set.
00E7   2200           00450         CALL    T_CHAR
00E8   00C1           00451         MOVWF   DRAM+15
Message[305]: Using default destination of 1 (file).
00E9   0AF4           00452         INCF    BTCOUNT
                      00453 
MPASM  5.51              HUB12_FONTSCROLL.ASM   5-20-2019  14:19:30         PAGE 12


LOC  OBJECT CODE     LINE SOURCE TEXT
  VALUE

Message[306]: Crossing page boundary -- ensure page bits are set.
00EA   2200           00454         CALL    T_CHAR
00EB   00AD           00455         MOVWF   DRAM+01
Message[305]: Using default destination of 1 (file).
00EC   0AF4           00456         INCF    BTCOUNT
                      00457 
Message[306]: Crossing page boundary -- ensure page bits are set.
00ED   2200           00458         CALL    T_CHAR
00EE   00B1           00459         MOVWF   DRAM+05
Message[305]: Using default destination of 1 (file).
00EF   0AF4           00460         INCF    BTCOUNT
                      00461 
Message[306]: Crossing page boundary -- ensure page bits are set.
00F0   2200           00462         CALL    T_CHAR
00F1   00DC           00463         MOVWF   DRAM+30
Message[305]: Using default destination of 1 (file).
00F2   0AF4           00464         INCF    BTCOUNT
                      00465 
Message[306]: Crossing page boundary -- ensure page bits are set.
00F3   2200           00466         CALL    T_CHAR
00F4   00E0           00467         MOVWF   DRAM+34
Message[305]: Using default destination of 1 (file).
00F5   0AF4           00468         INCF    BTCOUNT
                      00469 
Message[306]: Crossing page boundary -- ensure page bits are set.
00F6   2200           00470         CALL    T_CHAR
00F7   00CC           00471         MOVWF   DRAM+20
Message[305]: Using default destination of 1 (file).
00F8   0AF4           00472         INCF    BTCOUNT
                      00473 
Message[306]: Crossing page boundary -- ensure page bits are set.
00F9   2200           00474         CALL    T_CHAR
00FA   00D0           00475         MOVWF   DRAM+24
Message[305]: Using default destination of 1 (file).
00FB   0AF4           00476         INCF    BTCOUNT
                      00477 
Message[306]: Crossing page boundary -- ensure page bits are set.
00FC   2200           00478         CALL    T_CHAR
00FD   00BC           00479         MOVWF   DRAM+10
Message[305]: Using default destination of 1 (file).
00FE   0AF4           00480         INCF    BTCOUNT
                      00481 
Message[306]: Crossing page boundary -- ensure page bits are set.
00FF   2200           00482         CALL    T_CHAR
0100   00C0           00483         MOVWF   DRAM+14
Message[305]: Using default destination of 1 (file).
0101   0AF4           00484         INCF    BTCOUNT
                      00485 
Message[306]: Crossing page boundary -- ensure page bits are set.
0102   2200           00486         CALL    T_CHAR
0103   00AC           00487         MOVWF   DRAM+00
Message[305]: Using default destination of 1 (file).
0104   0AF4           00488         INCF    BTCOUNT
MPASM  5.51              HUB12_FONTSCROLL.ASM   5-20-2019  14:19:30         PAGE 13


LOC  OBJECT CODE     LINE SOURCE TEXT
  VALUE

                      00489 
Message[306]: Crossing page boundary -- ensure page bits are set.
0105   2200           00490         CALL    T_CHAR
0106   00B0           00491         MOVWF   DRAM+04
Message[305]: Using default destination of 1 (file).
0107   0AF4           00492         INCF    BTCOUNT
                      00493 
0108   3000           00494         MOVLW   .0                      ;BACK TO PAGE1
0109   008A           00495         MOVWF   PCLATH
Warning[203]: Found opcode in column 1. (RETURN)
010A   0008           00496 RETURN
                      00497 ;########################################
                      00498 
                      00499 
                      00500 
                      00501 
                      00502 ;;#################     SHIFT Y UPWARD ###############################
                      00503 ;SHIFT_YU
                      00504 ;
                      00505 ;       MOVFW   DRAM + 33
                      00506 ;       MOVWF   TEMPFILE
                      00507 ;       
                      00508 ;       MOVFW   DRAM + 23
                      00509 ;       MOVWF   DRAM + 33
                      00510 ;
                      00511 ;       MOVFW   DRAM + 13
                      00512 ;       MOVWF   DRAM + 23
                      00513 ;
                      00514 ;       MOVFW   DRAM + 03
                      00515 ;       MOVWF   DRAM + 13
                      00516 ;
                      00517 ;       MOVFW   DRAM + 32
                      00518 ;       MOVWF   DRAM + 03
                      00519 ;
                      00520 ;       MOVFW   DRAM + 22
                      00521 ;       MOVWF   DRAM + 32
                      00522 ;
                      00523 ;       MOVFW   DRAM + 12
                      00524 ;       MOVWF   DRAM + 22
                      00525 ;
                      00526 ;       MOVFW   DRAM + 02
                      00527 ;       MOVWF   DRAM + 12
                      00528 ;
                      00529 ;       MOVFW   DRAM + 31
                      00530 ;       MOVWF   DRAM + 02
                      00531 ;
                      00532 ;       MOVFW   DRAM + 21
                      00533 ;       MOVWF   DRAM + 31
                      00534 ;
                      00535 ;       MOVFW   DRAM + 11
                      00536 ;       MOVWF   DRAM + 21
                      00537 ;
                      00538 ;       MOVFW   DRAM + 01
MPASM  5.51              HUB12_FONTSCROLL.ASM   5-20-2019  14:19:30         PAGE 14


LOC  OBJECT CODE     LINE SOURCE TEXT
  VALUE

                      00539 ;       MOVWF   DRAM + 11
                      00540 ;
                      00541 ;       MOVFW   DRAM + 30
                      00542 ;       MOVWF   DRAM + 01
                      00543 ;
                      00544 ;       MOVFW   DRAM + 20
                      00545 ;       MOVWF   DRAM + 30
                      00546 ;
                      00547 ;       MOVFW   DRAM + 10
                      00548 ;       MOVWF   DRAM + 20
                      00549 ;
                      00550 ;       MOVFW   DRAM + 00
                      00551 ;       MOVWF   DRAM + 10
                      00552 ;       
                      00553 ;       MOVFW   TEMPFILE
                      00554 ;       MOVWF   DRAM + 00
                      00555 ;
                      00556 ;       DECFSZ  CURSORY,F
                      00557 ;       GOTO    SHIFT_YU
                      00558 ;
                      00559 ;RETURN
                      00560 ;;#################################################################
                      00561 ;
                      00562 ;
                      00563 ;
                      00564 ;
                      00565 ;
                      00566 ;;#################     CUTTING CHARACTERS FROM BOT ##################
                      00567 ;SLICEB
                      00568 ;       MOVLW           0X1F
                      00569 ;       MOVWF           FSR
                      00570 ;
                      00571 ;SLB0
                      00572 ;       MOVLW           .4
                      00573 ;       MOVWF           POINTER
                      00574 ;                       
                      00575 ;       MOVLW           0XD
                      00576 ;       ADDWF           FSR
                      00577 ;
                      00578 ;SLB1
                      00579 ;       MOVLW           0XFF
                      00580 ;       MOVWF           INDF
                      00581 ;       MOVLW           INDF
                      00582 ;
                      00583 ;       MOVLW           0X10
                      00584 ;       ADDWF           FSR
                      00585 ;       DECFSZ          TALL,F
                      00586 ;       GOTO            SLB2
                      00587 ;       RETURN          ;EXIT IF ZERO
                      00588 ;
                      00589 ;SLB2
                      00590 ;       DECFSZ          POINTER,F
                      00591 ;       GOTO            SLB1
MPASM  5.51              HUB12_FONTSCROLL.ASM   5-20-2019  14:19:30         PAGE 15


LOC  OBJECT CODE     LINE SOURCE TEXT
  VALUE

                      00592 ;       MOVLW           0X4C
                      00593 ;       SUBWF           FSR
                      00594 ;       GOTO            SLB0
                      00595 ;
                      00596 ;RETURN
                      00597 ;;#################################################################
                      00598 ;
                      00599 ;
                      00600 ;
                      00601 ;;#################     CUTTING CHARACTERS FROM TOP ##################
                      00602 ;SLICET
                      00603 ;       MOVLW           0X6C
                      00604 ;       MOVWF           FSR
                      00605 ;       
                      00606 ;SLT0
                      00607 ;       MOVLW           .4
                      00608 ;       MOVWF           POINTER
                      00609 ;       MOVLW           0XD
                      00610 ;       SUBWF           FSR
                      00611 ;
                      00612 ;SLT1
                      00613 ;       MOVLW           0XFF
                      00614 ;       MOVWF           INDF
                      00615 ;       MOVLW           INDF
                      00616 ;       
                      00617 ;       MOVLW        " (1X10
                      0061¸ ;b (  $ SÕBW   0 `(    FSR
      ! ¤             00619 ;   $ 0"DECFSZ         0TALL,F  $        0        ( 4620 ;    b  GTO          ($sXV2
      " (!            00621 ;       RETURN     " (! ;EXIT MF0XERO
               0 `(   00¶22b;
       $ 0"           00623 »SL2
 $     , &   $ 0"    00624 ;       DECFSZ          POINTER,F
 " (( $   b     0  `00W25; " (!  GODO`( ! ¤     bSLT1
              0 `(    00626 ;       MOVLS 0" ! ¤    rX4C
                 0 `( 00626 ¿       ADDWF           FSRŠ  b  0 `(        b    00628 ;   (  $GOTO            S\Tp
                      0°&29 ;       
                      016·0 ;
                 `   10²31 +R\USN‰
                 0 `h 0632 ;;#######'#3!+#'###################################£##a####£3####
                      0063³ -H 0                    00634 
   0 `( @         0  00635 
 ! ¤                  00636 J               (  $  06³' 
    â  b              00638 
        !!¤¤ ! ¤      00639 
                      00640 ;#########################      DISPLAY ####################
010B                  00641 DISPLAY
                      00642 
010B   3010           00643         MOVLW           .16
010C   00EC           00644         MOVWF           POINTER
MPASM  5.51              HUB12_FONTSCROLL.ASM   5-20-2019  14:19:30         PAGE 16


LOC  OBJECT CODE     LINE SOURCE TEXT
  VALUE

010D   302C           00645         MOVLW           .44
010E   0084           00646         MOVWF           FSR
                      00647 
010F                  00648 DSP0
010F   2136           00649         CALL            DATALATCH
0110   0A84           00650         INCF            FSR, F
0111   0BEC           00651         DECFSZ          POINTER, F
0112   290F           00652         GOTO            DSP0
                      00653 
0113   1407           00654         A_ON
0114   1487           00655         B_ON
0115   1687           00656         OE_ON
0116   2160           00657         CALL            DELAY_ONEMS
                      00658 
                      00659 
0117   3010           00660         MOVLW           .16
0118   00EC           00661         MOVWF           POINTER
                      00662 
0119                  00663 DSP1
0119   2136           00664         CALL            DATALATCH
011A   0A84           00665         INCF            FSR, F
011B   0BEC           00666         DECFSZ          POINTER, F
011C   2919           00667         GOTO            DSP1
                      00668 
011D   1007           00669         A_OFF
011E   1487           00670         B_ON
011F   1687           00671         OE_ON
0120   2160           00672         CALL            DELAY_ONEMS
                      00673 
0121   3010           00674         MOVLW           .16
0122   00EC           00675         MOVWF           POINTER
                      00676 
0123                  00677 DSP2
0123   2136           00678         CALL            DATALATCH
0124   0A84           00679         INCF            FSR, F
0125   0BEC           00680         DECFSZ          POINTER, F
0126   2923           00681         GOTO            DSP2
                      00682 
0127   1407           00683         A_ON
0128   1087           00684         B_OFF
0129   1687           00685         OE_ON
012A   2160           00686         CALL            DELAY_ONEMS
                      00687 
012B   3010           00688         MOVLW           .16
012C   00EC           00689         MOVWF           POINTER
                      00690 
012D                  00691 DSP3
012D   2136           00692         CALL            DATALATCH
012E   0A84           00693         INCF            FSR, F
012F   0BEC           00694         DECFSZ          POINTER, F
0130   292D           00695         GOTO            DSP3
                      00696 
0131   1007           00697         A_OFF
MPASM  5.51              HUB12_FONTSCROLL.ASM   5-20-2019  14:19:30         PAGE 17


LOC  OBJECT CODE     LINE SOURCE TEXT
  VALUE

0132   1087           00698         B_OFF
0133   1687           00699         OE_ON
0134   2160           00700         CALL            DELAY_ONEMS
                      00701 
                      00702 
                      00703 
                      00704 
Warning[203]: Found opcode in column 1. (RETURN)
0135   0008           00705 RETURN
                      00706 ;###############################################################
                      00707 
                      00708 
                      00709 
                      00710 
                      00711 
                      00712 
                      00713 
                      00714 
                      00715 
                      00716 
                      00717 
                      00718 ;============   DATA    LATCH   ================================
0136                  00719 DATALATCH
0136   1387           00720         CLK_OFF
0137   1207           00721         REG_OFF
0138   1287           00722         OE_OFF
0139   0800           00723         MOVF            INDF,W
013A   00A9           00724         MOVWF           VAR0
013B   3008           00725         MOVLW   .8
013C   00A5           00726         MOVWF   COUNT0  
                      00727 
013D                  00728 DL0
013D   0DA9           00729         RLF VAR0,F      ; Rotate "Var" one place to the left
013E   1C03           00730         BTFSS STATUS,C  ; Is carry 1?
013F   2941           00731         GOTO    D0
0140   2943           00732         GOTO    D1
                      00733 
0141                  00734 D0
0141   1107           00735         DAT_OFF
0142   2945           00736         GOTO DL1
0143                  00737 D1
0143   1507           00738         DAT_ON
0144   2945           00739         GOTO DL1
                      00740         
0145                  00741 DL1
0145   1787           00742         CLK_ON
0146   1387           00743         CLK_OFF
0147   0BA5           00744         DECFSZ  COUNT0,F
0148   293D           00745         GOTO    DL0
0149   1607           00746         REG_ON
014A   1207           00747         REG_OFF 
                      00748         
                      00749 
MPASM  5.51              HUB12_FONTSCROLL.ASM   5-20-2019  14:19:30         PAGE 18


LOC  OBJECT CODE     LINE SOURCE TEXT
  VALUE

Warning[203]: Found opcode in column 1. (RETURN)
014B   0008           00750 RETURN
                      00751 ;===============================================================
                      00752 
                      00753 
                      00754 
                      00755 
                      00756 
                      00757 
                      00758 ;=======================        CLEAR   RAM             ====================
014C                  00759 CLRAM
014C   3040           00760         MOVLW           .64
014D   00EC           00761         MOVWF           POINTER
014E   302C           00762         MOVLW           DRAM
014F   0084           00763         MOVWF           FSR
                      00764 
0150                  00765 DRM0
0150   30FF           00766         MOVLW           0XFF
0151   0080           00767         MOVWF           INDF
0152   3000           00768         MOVLW           INDF
                      00769         
0153   0A84           00770         INCF            FSR, F
0154   0BEC           00771         DECFSZ          POINTER, F
0155   2950           00772         GOTO            DRM0
                      00773 
0156   2136           00774         CALL            DATALATCH
                      00775          
0157   0008           00776         RETURN
                      00777 ;===============================================================
                      00778 
                      00779 
                      00780 
                      00781 
                      00782 
                      00783 
                      00784 
                      00785 ;==========     DELAY USEC =========
0158                  00786 DELAY_US
                      00787 
0158   00A0           00788         MOVWF   DELAYUS
                      00789 
0159                  00790 USEC
                      00791 
0159   0000           00792         NOP
015A   0000           00793         NOP
015B   0000           00794         NOP
015C   0000           00795         NOP
Warning[203]: Found opcode in column 1. (DECFSZ)
015D   0BA0           00796 DECFSZ  DELAYUS,F
                      00797 
Warning[203]: Found opcode in column 1. (GOTO)
015E   2959           00798 GOTO    USEC
                      00799 
MPASM  5.51              HUB12_FONTSCROLL.ASM   5-20-2019  14:19:30         PAGE 19


LOC  OBJECT CODE     LINE SOURCE TEXT
  VALUE

Warning[203]: Found opcode in column 1. (RETURN)
015F   0008           00800 RETURN
                      00801 ;=================================
                      00802 
                      00803 
                      00804 
                      00805 ;=========== DELAY ONE MS ========
0160                  00806 DELAY_ONEMS
                      00807 
0160   3005           00808         MOVLW   .5
0161   00A3           00809         MOVWF   MILSEC
                      00810 
0162                  00811 MSEC
0162   30C8           00812         MOVLW   .200
0163   2158           00813         CALL    DELAY_US
0164   0BA3           00814         DECFSZ  MILSEC,F
0165   2962           00815         GOTO    MSEC
                      00816 
Warning[203]: Found opcode in column 1. (RETURN)
0166   0008           00817 RETURN
                      00818 ;==================================
                      00819 
                      00820 
                      00821 ;=========== DELAY MS   ===========
0167                  00822 DELAY_MS
                      00823         
0167   00A1           00824         MOVWF   DELAYMS
0168                  00825 MSEC0
0168   2160           00826         CALL    DELAY_ONEMS
0169   0BA1           00827         DECFSZ  DELAYMS,F
016A   2968           00828         GOTO    MSEC0
Warning[203]: Found opcode in column 1. (RETURN)
016B   0008           00829 RETURN
                      00830 ;==================================
                      00831 
                      00832 ;=========== DELAY      ONE     SECOND ====
016C                  00833 DELAY_ONESEC
                      00834 
016C   3005           00835         MOVLW   .5
016D   00A4           00836         MOVWF   SEC
016E                  00837 SEC0
016E   30C8           00838         MOVLW   .200
016F   2167           00839         CALL    DELAY_MS
0170   0BA4           00840         DECFSZ  SEC,F
0171   296E           00841         GOTO    SEC0
Warning[203]: Found opcode in column 1. (RETURN)
0172   0008           00842 RETURN
                      00843 ;==================================
                      00844 
                      00845 ;==========     DELAY SEC =============
0173                  00846 DELAY_SEC
                      00847 
0173   00A2           00848         MOVWF   DELAYS
MPASM  5.51              HUB12_FONTSCROLL.ASM   5-20-2019  14:19:30         PAGE 20


LOC  OBJECT CODE     LINE SOURCE TEXT
  VALUE

0174                  00849 SEC1
0174   216C           00850         CALL    DELAY_ONESEC
0175   0BA2           00851         DECFSZ  DELAYS,F
0176   2974           00852         GOTO    SEC1
Warning[203]: Found opcode in column 1. (RETURN)
0177   0008           00853 RETURN
                      00854 ;==================================
                      00855 
                      00856 
                      00857 
                      00858 
                      00859 
                      00860 
                      00861 ;;########## SHIFT LEFT ##############
                      00862 ;
                      00863 ;
                      00864 ;SHIFTL_GRPA
                      00865 ;
                      00866 ;SHIFTL_GRPB
                      00867 ;       MOVLW   .1
                      00868 ;       MOVWF   TESTER
                      00869 ;
                      00870 ;       MOVFW           ROW
                      00871 ;       SUBWF           TESTER,W
                      00872 ;       BTFSC           STATUS,Z
                      00873 ;       GOTO            SB08_FLAG
                      00874 ;
                      00875 ;       MOVLW           0XFF
                      00876 ;       MOVWF           TEMPFILE
                      00877 ;
                      00878 ;       MOVFW           SHCNT
                      00879 ;       MOVWF           COUNT4
                      00880 ;SB00
                      00881 ;       SETC            1
                      00882 ;       RLF                     DRAM+37
                      00883 ;       RLF                     TEMPFILE
                      00884 ;       DECFSZ          COUNT4,F
                      00885 ;       GOTO            SB00
                      00886 ;
                      00887 ;       MOVFW           TEMPFILE
                      00888 ;       ANDWF           DRAM+33,F
                      00889 ;
                      00890 ;       MOVFW           SHCNT
                      00891 ;       MOVWF           COUNT4
                      00892 ;       
                      00893 ;       MOVLW           0XFF
                      00894 ;       MOVWF           TEMPFILE
                      00895 ;
                      00896 ;SB01
                      00897 ;       SETC            1
                      00898 ;       RLF                     DRAM+27
                      00899 ;       RLF                     TEMPFILE
                      00900 ;       DECFSZ          COUNT4,F
MPASM  5.51              HUB12_FONTSCROLL.ASM   5-20-2019  14:19:30         PAGE 21


LOC  OBJECT CODE     LINE SOURCE TEXT
  VALUE

                      00901 ;       GOTO            SB01
                      00902 ;
                      00903 ;       MOVFW           TEMPFILE
                      00904 ;       ANDWF           DRAM+23,F
                      00905 ;
                      00906 ;
                      00907 ;       MOVFW           SHCNT
                      00908 ;       MOVWF           COUNT4
                      00909 ;
                      00910 ;       MOVLW           0XFF
                      00911 ;       MOVWF           TEMPFILE
                      00912 ;
                      00913 ;SB02
                      00914 ;       SETC            1
                      00915 ;       RLF                     DRAM+17
                      00916 ;       RLF                     TEMPFILE
                      00917 ;       DECFSZ          COUNT4,F
                      00918 ;       GOTO            SB02
                      00919 ;
                      00920 ;       MOVFW           TEMPFILE
                      00921 ;       ANDWF           DRAM+13,F
                      00922 ;
                      00923 ;
                      00924 ;       MOVFW           SHCNT
                      00925 ;       MOVWF           COUNT4
                      00926 ;       
                      00927 ;       MOVLW           0XFF
                      00928 ;       MOVWF           TEMPFILE
                      00929 ;
                      00930 ;SB03
                      00931 ;       SETC            1
                      00932 ;       RLF                     DRAM+07
                      00933 ;       RLF                     TEMPFILE
                      00934 ;       DECFSZ          COUNT4,F
                      00935 ;       GOTO            SB03
                      00936 ;
                      00937 ;       MOVFW           TEMPFILE
                      00938 ;       ANDWF           DRAM+03,F
                      00939 ;
                      00940 ;
                      00941 ;       MOVFW           SHCNT
                      00942 ;       MOVWF           COUNT4
                      00943 ;
                      00944 ;       MOVLW           0XFF
                      00945 ;       MOVWF           TEMPFILE
                      00946 ;SB04
                      00947 ;       SETC            1
                      00948 ;       RLF                     DRAM+36
                      00949 ;       RLF                     TEMPFILE
                      00950 ;       DECFSZ          COUNT4,F
                      00951 ;       GOTO            SB04
                      00952 ;
                      00953 ;       MOVFW           TEMPFILE
MPASM  5.51              HUB12_FONTSCROLL.ASM   5-20-2019  14:19:30         PAGE 22


LOC  OBJECT CODE     LINE SOURCE TEXT
  VALUE

                      00954 ;       ANDWF           DRAM+32,F
                      00955 ;       
                      00956 ;
                      00957 ;       MOVFW           SHCNT
                      00958 ;       MOVWF           COUNT4
                      00959 ;       MOVLW           0XFF
                      00960 ;       MOVWF           TEMPFILE
                      00961 ;
                      00962 ;SB05
                      00963 ;       SETC            1
                      00964 ;       RLF                     DRAM+26
                      00965 ;       RLF                     TEMPFILE
                      00966 ;       DECFSZ          COUNT4,F
                      00967 ;       GOTO            SB05    
                      00968 ;
                      00969 ;
                      00970 ;
                      00971 ;       MOVFW           TEMPFILE
                      00972 ;       ANDWF           DRAM+22,F
                      00973 ;
                      00974 ;       MOVFW           SHCNT
                      00975 ;       MOVWF           COUNT4
                      00976 ;       MOVLW           0XFF
                      00977 ;       MOVWF           TEMPFILE
                      00978 ;
                      00979 ;SB06
                      00980 ;       SETC            1
                      00981 ;       RLF                     DRAM+16
                      00982 ;       RLF                     TEMPFILE
                      00983 ;       DECFSZ          COUNT4,F
                      00984 ;       GOTO            SB06
                      00985 ;
                      00986 ;
                      00987 ;       MOVFW           TEMPFILE
                      00988 ;       ANDWF           DRAM+12,F
                      00989 ;
                      00990 ;       MOVFW           SHCNT
                      00991 ;       MOVWF           COUNT4  
                      00992 ;       MOVLW           0XFF
                      00993 ;       MOVWF           TEMPFILE
                      00994 ;
                      00995 ;SB07
                      00996 ;       SETC            1
                      00997 ;       RLF                     DRAM+06
                      00998 ;       RLF                     TEMPFILE
                      00999 ;       DECFSZ          COUNT4,F
                      01000 ;       GOTO            SB07
                      01001 ;
                      01002 ;       MOVFW           TEMPFILE
                      01003 ;       ANDWF           DRAM+02,F
                      01004 ;RETURN 
                      01005 ;
                      01006 ;SB08_FLAG
MPASM  5.51              HUB12_FONTSCROLL.ASM   5-20-2019  14:19:30         PAGE 23


LOC  OBJECT CODE     LINE SOURCE TEXT
  VALUE

                      01007 ;       MOVFW           SHCNT
                      01008 ;       MOVWF           COUNT4
                      01009 ;       MOVLW           0XFF
                      01010 ;       MOVWF           TEMPFILE
                      01011 ;
                      01012 ;SB08   
                      01013 ;       SETC            1
                      01014 ;       RLF                     DRAM+35
                      01015 ;       RLF                     TEMPFILE
                      01016 ;       DECFSZ          COUNT4,F
                      01017 ;       GOTO            SB08
                      01018 ;
                      01019 ;       MOVFW           TEMPFILE
                      01020 ;       ANDWF           DRAM+31,F
                      01021 ;       
                      01022 ;
                      01023 ;       MOVFW           SHCNT
                      01024 ;       MOVWF           COUNT4
                      01025 ;       MOVLW           0XFF
                      01026 ;       MOVWF           TEMPFILE
                      01027 ;
                      01028 ;SB09
                      01029 ;       SETC            1
                      01030 ;       RLF                     DRAM+25
                      01031 ;       RLF                     TEMPFILE
                      01032 ;       DECFSZ          COUNT4,F
                      01033 ;       GOTO            SB09
                      01034 ;
                      01035 ;       MOVFW           TEMPFILE
                      01036 ;       ANDWF           DRAM+21,F
                      01037 ;
                      01038 ;       MOVFW           SHCNT
                      01039 ;       MOVWF           COUNT4
                      01040 ;       MOVLW           0XFF
                      01041 ;       MOVWF           TEMPFILE
                      01042 ;
                      01043 ;SB0A
                      01044 ;       SETC            1
                      01045 ;       RLF                     DRAM+15
                      01046 ;       RLF                     TEMPFILE
                      01047 ;       DECFSZ          COUNT4,F
                      01048 ;       GOTO            SB0A
                      01049 ;
                      01050 ;       MOVFW           TEMPFILE
                      01051 ;       ANDWF           DRAM+11,F
                      01052 ;
                      01053 ;       MOVFW           SHCNT
                      01054 ;       MOVWF           COUNT4
                      01055 ;       MOVLW           0XFF
                      01056 ;       MOVWF           TEMPFILE
                      01057 ;
                      01058 ;SB0B
                      01059 ;       SETC            1
MPASM  5.51              HUB12_FONTSCROLL.ASM   5-20-2019  14:19:30         PAGE 24


LOC  OBJECT CODE     LINE SOURCE TEXT
  VALUE

                      01060 ;       RLF                     DRAM+05
                      01061 ;       RLF                     TEMPFILE
                      01062 ;       DECFSZ          COUNT4,F
                      01063 ;       GOTO            SB0B
                      01064 ;
                      01065 ;       MOVFW           TEMPFILE
                      01066 ;       ANDWF           DRAM+01,F
                      01067 ;
                      01068 ;
                      01069 ;       MOVFW           SHCNT
                      01070 ;       MOVWF           COUNT4  
                      01071 ;       MOVLW           0XFF
                      01072 ;       MOVWF           TEMPFILE
                      01073 ;
                      01074 ;SB0C
                      01075 ;       SETC            1
                      01076 ;       RLF                     DRAM+34
                      01077 ;       RLF                     TEMPFILE
                      01078 ;       DECFSZ          COUNT4,F        
                      01079 ;       GOTO            SB0C
                      01080 ;
                      01081 ;       MOVFW           TEMPFILE
                      01082 ;       ANDWF           DRAM+30,F
                      01083 ;
                      01084 ;       MOVFW           SHCNT
                      01085 ;       MOVWF           COUNT4
                      01086 ;       MOVLW           0XFF
                      01087 ;       MOVWF           TEMPFILE
                      01088 ;
                      01089 ;SB0D
                      01090 ;       SETC            1
                      01091 ;       RLF                     DRAM+24
                      01092 ;       RLF                     TEMPFILE
                      01093 ;       DECFSZ          COUNT4,F
                      01094 ;       GOTO            SB0D
                      01095 ;
                      01096 ;       MOVFW           TEMPFILE
                      01097 ;       ANDWF           DRAM+20,F
                      01098 ;       
                      01099 ;       MOVFW           SHCNT
                      01100 ;       MOVWF           COUNT4
                      01101 ;       MOVLW           0XFF
                      01102 ;       MOVWF           TEMPFILE
                      01103 ;
                      01104 ;SB0E
                      01105 ;       SETC            1
                      01106 ;       RLF                     DRAM+14
                      01107 ;       RLF                     TEMPFILE
                      01108 ;       DECFSZ          COUNT4,F
                      01109 ;       GOTO            SB0E
                      01110 ;
                      01111 ;       MOVFW           TEMPFILE
                      01112 ;       ANDWF           DRAM+10,F
MPASM  5.51              HUB12_FONTSCROLL.ASM   5-20-2019  14:19:30         PAGE 25


LOC  OBJECT CODE     LINE SOURCE TEXT
  VALUE

                      01113 ;       
                      01114 ;       MOVFW           SHCNT
                      01115 ;       MOVWF           COUNT4  
                      01116 ;       MOVLW           0XFF
                      01117 ;       MOVWF           TEMPFILE
                      01118 ;
                      01119 ;SB0F
                      01120 ;       SETC            1
                      01121 ;       RLF                     DRAM+04
                      01122 ;       RLF                     TEMPFILE
                      01123 ;       DECFSZ          COUNT4,F
                      01124 ;       GOTO            SB0F
                      01125 ;
                      01126 ;       MOVFW           TEMPFILE
                      01127 ;       ANDWF           DRAM+00,
                      01128 ;
                      01129 ;RETURN
                      01130 ;
                      01131 ;
                      01132 ;SHIFTL_GRPC
                      01133 ;       MOVFW           ROW
                      01134 ;       SUBWF           TESTER,W
                      01135 ;       BTFSC           STATUS,Z
                      01136 ;       GOTO            SC08_FLAG
                      01137 ;
                      01138 ;       MOVFW           SHCNT
                      01139 ;       MOVWF           COUNT4
                      01140 ;       MOVLW           0XFF
                      01141 ;       MOVWF           TEMPFILE
                      01142 ;
                      01143 ;SC00
                      01144 ;       SETC            1
                      01145 ;       RLF                     DRAM+3B
                      01146 ;       RLF                     TEMPFILE
                      01147 ;       DECFSZ          COUNT4
                      01148 ;       GOTO            SC00
                      01149 ;
                      01150 ;       MOVFW           TEMPFILE
                      01151 ;       ANDWF           DRAM+37,F
                      01152 ;
                      01153 ;
                      01154 ;       MOVFW           SHCNT
                      01155 ;       MOVWF           COUNT4
                      01156 ;       MOVLW           0XFF
                      01157 ;       MOVWF           TEMPFILE
                      01158 ;
                      01159 ;SC01
                      01160 ;       SETC            1
                      01161 ;       RLF                     DRAM+2B
                      01162 ;       RLF                     TEMPFILE
                      01163 ;       DECFSZ          COUNT4
                      01164 ;       GOTO            SC01
                      01165 ;
MPASM  5.51              HUB12_FONTSCROLL.ASM   5-20-2019  14:19:30         PAGE 26


LOC  OBJECT CODE     LINE SOURCE TEXT
  VALUE

                      01166 ;       MOVFW           TEMPFILE
                      01167 ;       ANDWF           DRAM+27,F
                      01168 ;
                      01169 ;       
                      01170 ;       MOVFW           SHCNT
                      01171 ;       MOVWF           COUNT4
                      01172 ;       MOVLW           0XFF
                      01173 ;       MOVWF           TEMPFILE
                      01174 ;       
                      01175 ;
                      01176 ;SC02
                      01177 ;       SETC            1
                      01178 ;       RLF                     DRAM+1B
                      01179 ;       RLF                     TEMPFILE
                      01180 ;       DECFSZ          COUNT4
                      01181 ;       GOTO            SC02
                      01182 ;
                      01183 ;       MOVFW           TEMPFILE
                      01184 ;       ANDWF           DRAM+17,F
                      01185 ;
                      01186 ;
                      01187 ;       MOVFW           SHCNT
                      01188 ;       MOVWF           COUNT4
                      01189 ;       MOVLW           0XFF
                      01190 ;       MOVWF           TEMPFILE
                      01191 ;
                      01192 ;SC03
                      01193 ;       SETC            1
                      01194 ;       RLF                     DRAM+0B
                      01195 ;       RLF                     TEMPFILE
                      01196 ;       DECFSZ          COUNT4
                      01197 ;       GOTO            SC03
                      01198 ;
                      01199 ;       MOVFW           TEMPFILE
                      01200 ;       ANDWF           DRAM+07,F
                      01201 ;
                      01202 ;
                      01203 ;       MOVFW           SHCNT
                      01204 ;       MOVWF           COUNT4
                      01205 ;       MOVLW           0XFF
                      01206 ;       MOVWF           TEMPFILE
                      01207 ;
                      01208 ;SC04
                      01209 ;       SETC            1
                      01210 ;       RLF                     DRAM+3A
                      01211 ;       RLF                     TEMPFILE
                      01212 ;       DECFSZ          COUNT4
                      01213 ;       GOTO            SC04
                      01214 ;
                      01215 ;       MOVFW           TEMPFILE
                      01216 ;       ANDWF           DRAM+36,F
                      01217 ;       
                      01218 ;
MPASM  5.51              HUB12_FONTSCROLL.ASM   5-20-2019  14:19:30         PAGE 27


LOC  OBJECT CODE     LINE SOURCE TEXT
  VALUE

                      01219 ;       MOVFW           SHCNT
                      01220 ;       MOVWF           COUNT4  
                      01221 ;       MOVLW           0XFF
                      01222 ;       MOVWF           TEMPFILE
                      01223 ;
                      01224 ;SC05
                      01225 ;       SETC            1
                      01226 ;       RLF                     DRAM+2A
                      01227 ;       RLF                     TEMPFILE
                      01228 ;       DECFSZ          COUNT4
                      01229 ;       GOTO            SC05
                      01230 ;
                      01231 ;       MOVFW           TEMPFILE
                      01232 ;       ANDWF           DRAM+26,F
                      01233 ;
                      01234 ;       
                      01235 ;       MOVFW           SHCNT
                      01236 ;       MOVWF           COUNT4
                      01237 ;       MOVLW           0XFF
                      01238 ;       MOVWF           TEMPFILE
                      01239 ;       
                      01240 ;SC06
                      01241 ;       SETC            1
                      01242 ;       RLF                     DRAM+1A
                      01243 ;       RLF                     TEMPFILE
                      01244 ;       DECFSZ          COUNT4
                      01245 ;       GOTO            SC06
                      01246 ;
                      01247 ;       MOVFW           TEMPFILE
                      01248 ;       ANDWF           DRAM+16,F
                      01249 ;
                      01250 ;       
                      01251 ;       MOVFW           SHCNT
                      01252 ;       MOVWF           COUNT4
                      01253 ;       MOVLW           0XFF
                      01254 ;       MOVWF           TEMPFILE
                      01255 ;
                      01256 ;SC07
                      01257 ;       SETC            1
                      01258 ;       RLF                     DRAM+0A
                      01259 ;       RLF                     TEMPFILE
                      01260 ;       DECFSZ          COUNT4
                      01261 ;       GOTO            SC07
                      01262 ;
                      01263 ;       MOVFW           TEMPFILE
                      01264 ;       ANDWF           DRAM+06,F
                      01265 ;
                      01266 ;RETURN
                      01267 ;
                      01268 ;SC08_FLAG
                      01269 ;
                      01270 ;       MOVFW           SHCNT
                      01271 ;       MOVWF           COUNT4
MPASM  5.51              HUB12_FONTSCROLL.ASM   5-20-2019  14:19:30         PAGE 28


LOC  OBJECT CODE     LINE SOURCE TEXT
  VALUE

                      01272 ;       MOVLW           0XFF
                      01273 ;       MOVWF           TEMPFILE
                      01274 ;SC08
                      01275 ;       SETC            1
                      01276 ;       RLF                     DRAM+39
                      01277 ;       RLF                     TEMPFILE
                      01278 ;       DECFSZ          COUNT4
                      01279 ;       GOTO            SC08
                      01280 ;
                      01281 ;       MOVFW           TEMPFILE
                      01282 ;       ANDWF           DRAM+35,F
                      01283 ;
                      01284 ;
                      01285 ;       MOVFW           SHCNT
                      01286 ;       MOVWF           COUNT4
                      01287 ;       MOVLW           0XFF
                      01288 ;       MOVWF           TEMPFILE
                      01289 ;
                      01290 ;SC09
                      01291 ;       SETC            1
                      01292 ;       RLF                     DRAM+29
                      01293 ;       RLF                     TEMPFILE
                      01294 ;       DECFSZ          COUNT4
                      01295 ;       GOTO            SC09
                      01296 ;
                      01297 ;       MOVFW           TEMPFILE
                      01298 ;       ANDWF           DRAM+25,F
                      01299 ;
                      01300 ;
                      01301 ;       MOVFW           SHCNT
                      01302 ;       MOVWF           COUNT4
                      01303 ;       MOVLW           0XFF
                      01304 ;       MOVWF           TEMPFILE
                      01305 ;
                      01306 ;SC0A
                      01307 ;       SETC            1
                      01308 ;       RLF                     DRAM+19
                      01309 ;       RLF                     TEMPFILE
                      01310 ;       DECFSZ          COUNT4
                      01311 ;       GOTO            SC0A
                      01312 ;
                      01313 ;       MOVFW           TEMPFILE
                      01314 ;       ANDWF           DRAM+15,F
                      01315 ;
                      01316 ;
                      01317 ;       MOVFW           SHCNT
                      01318 ;       MOVWF           COUNT4
                      01319 ;       MOVLW           0XFF
                      01320 ;       MOVWF           TEMPFILE
                      01321 ;
                      01322 ;SC0B
                      01323 ;       SETC            1
                      01324 ;       RLF                     DRAM+09
MPASM  5.51              HUB12_FONTSCROLL.ASM   5-20-2019  14:19:30         PAGE 29


LOC  OBJECT CODE     LINE SOURCE TEXT
  VALUE

                      01325 ;       RLF                     TEMPFILE
                      01326 ;       DECFSZ          COUNT4
                      01327 ;       GOTO            SC0B
                      01328 ;
                      01329 ;       MOVFW           TEMPFILE
                      01330 ;       ANDWF           DRAM+05,F
                      01331 ;
                      01332 ;
                      01333 ;       MOVFW           SHCNT
                      01334 ;       MOVWF           COUNT4
                      01335 ;       MOVLW           0XFF
                      01336 ;       MOVWF           TEMPFILE
                      01337 ;
                      01338 ;SC0C
                      01339 ;       SETC            1
                      01340 ;       RLF                     DRAM+38
                      01341 ;       RLF                     TEMPFILE
                      01342 ;       DECFSZ          COUNT4
                      01343 ;       GOTO            SC0C
                      01344 ;
                      01345 ;       MOVFW           TEMPFILE
                      01346 ;       ANDWF           DRAM+34,F
                      01347 ;
                      01348 ;
                      01349 ;       MOVFW           SHCNT
                      01350 ;       MOVWF           COUNT4
                      01351 ;       MOVLW           0XFF
                      01352 ;       MOVWF           TEMPFILE
                      01353 ;
                      01354 ;SC0D
                      01355 ;       SETC            1
                      01356 ;       RLF                     DRAM+28
                      01357 ;       RLF                     TEMPFILE
                      01358 ;       DECFSZ          COUNT4
                      01359 ;       GOTO            SC0D
                      01360 ;
                      01361 ;       MOVFW           TEMPFILE
                      01362 ;       ANDWF           DRAM+24,F
                      01363 ;
                      01364 ;       MOVFW           SHCNT
                      01365 ;       MOVWF           COUNT4
                      01366 ;       MOVLW           0XFF
                      01367 ;       MOVWF           TEMPFILE
                      01368 ;
                      01369 ;SC0E
                      01370 ;       SETC            1
                      01371 ;       RLF                     DRAM+18
                      01372 ;       RLF                     TEMPFILE
                      01373 ;       DECFSZ          COUNT4
                      01374 ;       GOTO            SC0E
                      01375 ;
                      01376 ;       MOVFW           TEMPFILE
                      01377 ;       ANDWF           DRAM+14,F
MPASM  5.51              HUB12_FONTSCROLL.ASM   5-20-2019  14:19:30         PAGE 30


LOC  OBJECT CODE     LINE SOURCE TEXT
  VALUE

                      01378 ;       
                      01379 ;       MOVFW           SHCNT
                      01380 ;       MOVWF           COUNT4
                      01381 ;       MOVLW           0XFF
                      01382 ;       MOVWF           TEMPFILE
                      01383 ;
                      01384 ;SC0F
                      01385 ;       SETC            1
                      01386 ;       RLF                     DRAM+08
                      01387 ;       RLF                     TEMPFILE
                      01388 ;       DECFSZ          COUNT4
                      01389 ;       GOTO            SC0F
                      01390 ;
                      01391 ;       MOVFW           TEMPFILE
                      01392 ;       ANDWF           DRAM+04,F
                      01393 ;
                      01394 ;
                      01395 ;RETURN
                      01396 ;
                      01397 ;
                      01398 ;SHIFTL_GRPD
                      01399 ;
                      01400 ;       MOVFW           ROW
                      01401 ;       SUBWF           TESTER,W
                      01402 ;       BTFSC           STATUS,Z
                      01403 ;       GOTO            SD08_FLAG
                      01404 ;       MOVFW           SHCNT
                      01405 ;       MOVWF           COUNT4
                      01406 ;       MOVLW           0XFF
                      01407 ;       MOVWF           TEMPFILE
                      01408 ;
                      01409 ;SD00
                      01410 ;       SETC            1
                      01411 ;       RLF                     DRAM+3F
                      01412 ;       RLF                     TEMPFILE
                      01413 ;       DECFSZ          COUNT4,F
                      01414 ;       GOTO            SD00
                      01415 ;
                      01416 ;       MOVFW           TEMPFILE
                      01417 ;       ANDWF           DRAM+3B,F
                      01418 ;
                      01419 ;
                      01420 ;       MOVFW           SHCNT
                      01421 ;       MOVWF           COUNT4
                      01422 ;       MOVLW           0XFF
                      01423 ;       MOVWF           TEMPFILE
                      01424 ;
                      01425 ;SD01
                      01426 ;       SETC            1
                      01427 ;       RLF                     DRAM+2F
                      01428 ;       RLF                     TEMPFILE
                      01429 ;       DECFSZ          COUNT4,F
                      01430 ;       GOTO            SD01
MPASM  5.51              HUB12_FONTSCROLL.ASM   5-20-2019  14:19:30         PAGE 31


LOC  OBJECT CODE     LINE SOURCE TEXT
  VALUE

                      01431 ;
                      01432 ;       MOVFW           TEMPFILE
                      01433 ;       ANDWF           DRAM+2B,F
                      01434 ;
                      01435 ;
                      01436 ;       MOVFW           SHCNT
                      01437 ;       MOVWF           COUNT4
                      01438 ;       MOVLW           0XFF
                      01439 ;       MOVWF           TEMPFILE
                      01440 ;
                      01441 ;SD02
                      01442 ;       SETC            1
                      01443 ;       RLF                     DRAM+1F
                      01444 ;       RLF                     TEMPFILE
                      01445 ;       DECFSZ          COUNT4,F
                      01446 ;       GOTO            SD02
                      01447 ;
                      01448 ;       MOVFW           TEMPFILE
                      01449 ;       ANDWF           DRAM+1B,F
                      01450 ;
                      01451 ;       MOVFW           SHCNT
                      01452 ;       MOVWF           COUNT4
                      01453 ;       MOVLW           0XFF
                      01454 ;       MOVWF           TEMPFILE
                      01455 ;
                      01456 ;SD03
                      01457 ;       SETC            1
                      01458 ;       RLF                     DRAM+0F
                      01459 ;       RLF                     TEMPFILE
                      01460 ;       DECFSZ          COUNT4,F
                      01461 ;       GOTO            SD03
                      01462 ;
                      01463 ;       MOVFW           TEMPFILE
                      01464 ;       ANDWF           DRAM+0B,F
                      01465 ;
                      01466 ;
                      01467 ;       MOVFW           SHCNT
                      01468 ;       MOVWF           COUNT4
                      01469 ;       MOVLW           0XFF
                      01470 ;       MOVWF           TEMPFILE
                      01471 ;
                      01472 ;SD04
                      01473 ;       SETC            1
                      01474 ;       RLF                     DRAM+3E
                      01475 ;       RLF                     TEMPFILE
                      01476 ;       DECFSZ          COUNT4,F
                      01477 ;       GOTO            SD04
                      01478 ;
                      01479 ;       MOVFW           TEMPFILE
                      01480 ;       ANDWF           DRAM+3A,F
                      01481 ;
                      01482 ;       MOVFW           SHCNT
                      01483 ;       MOVWF           COUNT4
MPASM  5.51              HUB12_FONTSCROLL.ASM   5-20-2019  14:19:30         PAGE 32


LOC  OBJECT CODE     LINE SOURCE TEXT
  VALUE

                      01484 ;       MOVLW           0XFF
                      01485 ;       MOVWF           TEMPFILE
                      01486 ;
                      01487 ;SD05
                      01488 ;       SETC            1
                      01489 ;       RLF                     DRAM+2E
                      01490 ;       RLF                     TEMPFILE
                      01491 ;       DECFSZ          COUNT4,F
                      01492 ;       GOTO            SD05
                      01493 ;
                      01494 ;       MOVFW           TEMPFILE
                      01495 ;       ANDWF           DRAM+2A,F
                      01496 ;
                      01497 ;
                      01498 ;       MOVFW           SHCNT
                      01499 ;       MOVWF           COUNT4
                      01500 ;       MOVLW           0XFF
                      01501 ;       MOVWF           TEMPFILE
                      01502 ;
                      01503 ;SD06
                      01504 ;       SETC            1
                      01505 ;       RLF                     DRAM+1E
                      01506 ;       RLF                     TEMPFILE
                      01507 ;       DECFSZ          COUNT4,F
                      01508 ;       GOTO            SD06
                      01509 ;
                      01510 ;       MOVFW           TEMPFILE
                      01511 ;       ANDWF           DRAM+1A,F
                      01512 ;
                      01513 ;
                      01514 ;       MOVFW           SHCNT
                      01515 ;       MOVWF           COUNT4  
                      01516 ;       MOVLW           0XFF
                      01517 ;       MOVWF           TEMPFILE
                      01518 ;
                      01519 ;SD07
                      01520 ;       SETC            1
                      01521 ;       RLF                     DRAM+0E
                      01522 ;       RLF                     TEMPFILE
                      01523 ;       DECFSZ          COUNT4,F
                      01524 ;       GOTO            SD07
                      01525 ;
                      01526 ;       MOVFW           TEMPFILE
                      01527 ;       ANDWF           DRAM+0A,F
                      01528 ;
                      01529 ;RETURN
                      01530 ;
                      01531 ;SD08_FLAG
                      01532 ;
                      01533 ;       MOVFW           SHCNT
                      01534 ;       MOVWF           COUNT4
                      01535 ;       MOVLW           0XFF
                      01536 ;       MOVWF           TEMPFILE
MPASM  5.51              HUB12_FONTSCROLL.ASM   5-20-2019  14:19:30         PAGE 33


LOC  OBJECT CODE     LINE SOURCE TEXT
  VALUE

                      01537 ;
                      01538 ;SD08
                      01539 ;       SETC            1
                      01540 ;       RLF                     DRAM+3D
                      01541 ;       RLF                     TEMPFILE
                      01542 ;       DECFSZ          COUNT4,F
                      01543 ;       GOTO            SD08
                      01544 ;
                      01545 ;       MOVFW           TEMPFILE
                      01546 ;       ANDWF           DRAM+39,F
                      01547 ;
                      01548 ;
                      01549 ;       MOVFW           SHCNT
                      01550 ;       MOVWF           COUNT4
                      01551 ;       MOVLW           0XFF
                      01552 ;       MOVWF           TEMPFILE
                      01553 ;
                      01554 ;SD09
                      01555 ;       SETC            1
                      01556 ;       RLF                     DRAM+2D
                      01557 ;       RLF                     TEMPFILE
                      01558 ;       DECFSZ          COUNT4,F
                      01559 ;       GOTO            SD09
                      01560 ;
                      01561 ;       MOVFW           TEMPFILE
                      01562 ;       ANDWF           DRAM+29,F
                      01563 ;
                      01564 ;
                      01565 ;       MOVFW           SHCNT
                      01566 ;       MOVWF           COUNT4
                      01567 ;       MOVLW           0XFF
                      01568 ;       MOVWF           TEMPFILE
                      01569 ;
                      01570 ;SD0A
                      01571 ;       SETC            1
                      01572 ;       RLF                     DRAM+1D
                      01573 ;       RLF                     TEMPFILE
                      01574 ;       DECFSZ          COUNT4,F
                      01575 ;       GOTO            SD0A
                      01576 ;
                      01577 ;       MOVFW           TEMPFILE
                      01578 ;       ANDWF           DRAM+19,F
                      01579 ;
                      01580 ;
                      01581 ;       MOVFW           SHCNT
                      01582 ;       MOVWF           COUNT4
                      01583 ;       MOVLW           0XFF
                      01584 ;       MOVWF           TEMPFILE
                      01585 ;
                      01586 ;SD0B
                      01587 ;       SETC            1
                      01588 ;       RLF                     DRAM+0D
                      01589 ;       RLF                     TEMPFILE
MPASM  5.51              HUB12_FONTSCROLL.ASM   5-20-2019  14:19:30         PAGE 34


LOC  OBJECT CODE     LINE SOURCE TEXT
  VALUE

                      01590 ;       DECFSZ          COUNT4,F
                      01591 ;       GOTO            SD0B
                      01592 ;
                      01593 ;       MOVFW           TEMPFILE
                      01594 ;       ANDWF           DRAM+09,F
                      01595 ;
                      01596 ;
                      01597 ;       MOVFW           SHCNT
                      01598 ;       MOVWF           COUNT4
                      01599 ;       MOVLW           0XFF
                      01600 ;       MOVWF           TEMPFILE
                      01601 ;
                      01602 ;SD0C
                      01603 ;       SETC            1
                      01604 ;       RLF                     DRAM+3C
                      01605 ;       RLF                     TEMPFILE
                      01606 ;       DECFSZ          COUNT4,F
                      01607 ;       GOTO            SD0C
                      01608 ;
                      01609 ;       MOVFW           TEMPFILE
                      01610 ;       ANDWF           DRAM+38,F
                      01611 ;
                      01612 ;
                      01613 ;       MOVFW           SHCNT
                      01614 ;       MOVWF           COUNT4
                      01615 ;       MOVLW           0XFF
                      01616 ;       MOVWF           TEMPFILE
                      01617 ;
                      01618 ;SD0D
                      01619 ;       SETC            1
                      01620 ;       RLF                     DRAM+2C
                      01621 ;       RLF                     TEMPFILE
                      01622 ;       DECFSZ          COUNT4,F
                      01623 ;       GOTO            SD0D
                      01624 ;
                      01625 ;       MOVFW           TEMPFILE
                      01626 ;       ANDWF           DRAM+28,F
                      01627 ;
                      01628 ;
                      01629 ;       MOVFW           SHCNT
                      01630 ;       MOVWF           COUNT4
                      01631 ;       MOVLW           0XFF
                      01632 ;       MOVWF           TEMPFILE
                      01633 ;
                      01634 ;SD0E
                      01635 ;       SETC            1
                      01636 ;       RLF                     DRAM+1C
                      01637 ;       RLF                     TEMPFILE
                      01638 ;       DECFSZ          COUNT4,F
                      01639 ;       GOTO            SD0E
                      01640 ;
                      01641 ;       MOVFW           TEMPFILE
                      01642 ;       ANDWF           DRAM+18,F
MPASM  5.51              HUB12_FONTSCROLL.ASM   5-20-2019  14:19:30         PAGE 35


LOC  OBJECT CODE     LINE SOURCE TEXT
  VALUE

                      01643 ;
                      01644 ;
                      01645 ;       MOVFW           SHCNT
                      01646 ;       MOVWF           COUNT4
                      01647 ;       MOVLW           0XFF
                      01648 ;       MOVWF           TEMPFILE
                      01649 ;
                      01650 ;SD0F
                      01651 ;       SETC            1
                      01652 ;       RLF                     DRAM+0C
                      01653 ;       RLF                     TEMPFILE
                      01654 ;       DECFSZ          COUNT4,F
                      01655 ;       GOTO            SD0F
                      01656 ;
                      01657 ;       MOVFW           TEMPFILE
                      01658 ;       ANDWF           DRAM+08,F
                      01659 ;       
                      01660 ;RETURN
                      01661 ;;#################################
                      01662 
                      01663 
                      01664 ;#################      SHIFT X RIGHT ################################
                      01665 
Warning[205]: Found directive in column 1. (ORG)
0500                  01666 ORG 0X500
0500                  01667 SHIFTR
0500   086F           01668         MOVFW   CURSORX
0501   0782           01669         ADDWF   PCL,F
                      01670         
                      01671 
0502   2E20           01672                 GOTO    GRP_C
0503   2E20           01673         GOTO    GRP_C
0504   2E20           01674         GOTO    GRP_C
0505   2E20           01675         GOTO    GRP_C
0506   2E20           01676         GOTO    GRP_C
0507   2E20           01677         GOTO    GRP_C
0508   2E20           01678         GOTO    GRP_C
0509   2E20           01679         GOTO    GRP_C
050A   2E20           01680         GOTO    GRP_C
050B   2DA6           01681                 GOTO    GRP_B
050C   2DA6           01682         GOTO    GRP_B
050D   2DA6           01683         GOTO    GRP_B
050E   2DA6           01684         GOTO    GRP_B
050F   2DA6           01685         GOTO    GRP_B
0510   2DA6           01686         GOTO    GRP_B
0511   2DA6           01687         GOTO    GRP_B
0512   2DA6           01688         GOTO    GRP_B
0513   2DA6           01689         GOTO    GRP_B
0514   2D1C           01690                 GOTO    GRP_A
0515   2D1C           01691         GOTO    GRP_A
0516   2D1C           01692         GOTO    GRP_A
0517   2D1C           01693         GOTO    GRP_A
0518   2D1C           01694         GOTO    GRP_A
MPASM  5.51              HUB12_FONTSCROLL.ASM   5-20-2019  14:19:30         PAGE 36


LOC  OBJECT CODE     LINE SOURCE TEXT
  VALUE

0519   2D1C           01695         GOTO    GRP_A
051A   2D1C           01696         GOTO    GRP_A
051B   2D1C           01697         GOTO    GRP_A
                      01698 
                      01699 
051C                  01700 GRP_A
                      01701 ;--------------------
051C   086F           01702         MOVFW   CURSORX
051D   00ED           01703         MOVWF   SHCNT
                      01704 
051E   3001           01705         MOVLW   .1
051F   00F2           01706         MOVWF   TESTER
                      01707 
0520   0877           01708         MOVFW   ROW
0521   0272           01709         SUBWF   TESTER,W
0522   1903           01710         BTFSC   STATUS,Z
0523   2D66           01711         GOTO    SRA08_R1
                      01712         
0524                  01713 SRA00
Warning[211]: Extraneous arguments on the line.
0524   1403           01714         SETC    1
Message[305]: Using default destination of 1 (file).
0525   0CDF           01715         RRF             DRAM + 33
Message[305]: Using default destination of 1 (file).
0526   0CE3           01716         RRF             DRAM + 37
Message[305]: Using default destination of 1 (file).
0527   0CE7           01717         RRF             DRAM + 3B
Message[305]: Using default destination of 1 (file).
0528   0CEB           01718         RRF             DRAM + 3F
Message[305]: Using default destination of 1 (file).
0529   0BED           01719         DECFSZ  SHCNT
052A   2D24           01720         GOTO    SRA00
                      01721 
052B   086F           01722         MOVF    CURSORX,0
052C   00ED           01723         MOVWF   SHCNT
                      01724 
052D                  01725 SRA01
Message[305]: Using default destination of 1 (file).
052D   0CCF           01726         RRF             DRAM + 23
Message[305]: Using default destination of 1 (file).
052E   0CD3           01727         RRF             DRAM + 27
Message[305]: Using default destination of 1 (file).
052F   0CD7           01728         RRF             DRAM + 2B
Message[305]: Using default destination of 1 (file).
0530   0CDB           01729         RRF             DRAM + 2F
Message[305]: Using default destination of 1 (file).
0531   0BED           01730         DECFSZ  SHCNT
0532   2D2D           01731         GOTO    SRA01
                      01732 
0533   086F           01733         MOVF    CURSORX,0
0534   00ED           01734         MOVWF   SHCNT
                      01735 
0535                  01736 SRA02
MPASM  5.51              HUB12_FONTSCROLL.ASM   5-20-2019  14:19:30         PAGE 37


LOC  OBJECT CODE     LINE SOURCE TEXT
  VALUE

Message[305]: Using default destination of 1 (file).
0535   0CBF           01737         RRF             DRAM + 13
Message[305]: Using default destination of 1 (file).
0536   0CC3           01738         RRF             DRAM + 17
Message[305]: Using default destination of 1 (file).
0537   0CC7           01739         RRF             DRAM + 1B
Message[305]: Using default destination of 1 (file).
0538   0CCB           01740         RRF             DRAM + 1F
Message[305]: Using default destination of 1 (file).
0539   0BED           01741         DECFSZ  SHCNT
053A   2D35           01742         GOTO    SRA02
                      01743 
053B   086F           01744         MOVF    CURSORX,0
053C   00ED           01745         MOVWF   SHCNT
                      01746 
053D                  01747 SRA03
Message[305]: Using default destination of 1 (file).
053D   0CAF           01748         RRF             DRAM + 03
Message[305]: Using default destination of 1 (file).
053E   0CB3           01749         RRF             DRAM + 07
Message[305]: Using default destination of 1 (file).
053F   0CB7           01750         RRF             DRAM + 0B
Message[305]: Using default destination of 1 (file).
0540   0CBB           01751         RRF             DRAM + 0F
Message[305]: Using default destination of 1 (file).
0541   0BED           01752         DECFSZ  SHCNT
0542   2D3D           01753         GOTO    SRA03
                      01754 
0543   086F           01755         MOVF    CURSORX,0
0544   00ED           01756         MOVWF   SHCNT
                      01757 
0545                  01758 SRA04
Message[305]: Using default destination of 1 (file).
0545   0CDE           01759         RRF             DRAM + 32
Message[305]: Using default destination of 1 (file).
0546   0CE2           01760         RRF             DRAM + 36
Message[305]: Using default destination of 1 (file).
0547   0CE6           01761         RRF             DRAM + 3A
Message[305]: Using default destination of 1 (file).
0548   0CEA           01762         RRF             DRAM + 3E
Message[305]: Using default destination of 1 (file).
0549   0BED           01763         DECFSZ  SHCNT
054A   2D45           01764         GOTO    SRA04
                      01765 
054B   086F           01766         MOVF    CURSORX,0
054C   00ED           01767         MOVWF   SHCNT
                      01768 
054D                  01769 SRA05
Message[305]: Using default destination of 1 (file).
054D   0CCE           01770         RRF             DRAM + 22
Message[305]: Using default destination of 1 (file).
054E   0CD2           01771         RRF             DRAM + 26
Message[305]: Using default destination of 1 (file).
MPASM  5.51              HUB12_FONTSCROLL.ASM   5-20-2019  14:19:30         PAGE 38


LOC  OBJECT CODE     LINE SOURCE TEXT
  VALUE

054F   0CD6           01772         RRF             DRAM + 2A
Message[305]: Using default destination of 1 (file).
0550   0CDA           01773         RRF             DRAM + 2E
Message[305]: Using default destination of 1 (file).
0551   0BED           01774         DECFSZ  SHCNT
0552   2D4D           01775         GOTO    SRA05
                      01776 
0553   086F           01777         MOVF    CURSORX,0
0554   00ED           01778         MOVWF   SHCNT
                      01779 
0555                  01780 SRA06
Message[305]: Using default destination of 1 (file).
0555   0CBE           01781         RRF             DRAM + 12
Message[305]: Using default destination of 1 (file).
0556   0CC2           01782         RRF             DRAM + 16
Message[305]: Using default destination of 1 (file).
0557   0CC6           01783         RRF             DRAM + 1A
Message[305]: Using default destination of 1 (file).
0558   0CCA           01784         RRF             DRAM + 1E
Message[305]: Using default destination of 1 (file).
0559   0BED           01785         DECFSZ  SHCNT
055A   2D55           01786         GOTO    SRA06
                      01787 
                      01788 
055B   086F           01789         MOVF    CURSORX,0
055C   00ED           01790         MOVWF   SHCNT
                      01791 
055D                  01792 SRA07
Message[305]: Using default destination of 1 (file).
055D   0CAE           01793         RRF             DRAM + 02
Message[305]: Using default destination of 1 (file).
055E   0CB2           01794         RRF             DRAM + 06
Message[305]: Using default destination of 1 (file).
055F   0CB6           01795         RRF             DRAM + 0A
Message[305]: Using default destination of 1 (file).
0560   0CBA           01796         RRF             DRAM + 0E
Message[305]: Using default destination of 1 (file).
0561   0BED           01797         DECFSZ  SHCNT
0562   2D5D           01798         GOTO    SRA07
                      01799 
0563   086F           01800         MOVF    CURSORX,0
0564   00ED           01801         MOVWF   SHCNT
Warning[203]: Found opcode in column 1. (RETURN)
0565   0008           01802 RETURN
0566                  01803 SRA08_R1
Warning[211]: Extraneous arguments on the line.
0566   1403           01804         SETC    1
0567                  01805 SRA08
Message[305]: Using default destination of 1 (file).
0567   0CDD           01806         RRF             DRAM + 31
Message[305]: Using default destination of 1 (file).
0568   0CE1           01807         RRF             DRAM + 35
Message[305]: Using default destination of 1 (file).
MPASM  5.51              HUB12_FONTSCROLL.ASM   5-20-2019  14:19:30         PAGE 39


LOC  OBJECT CODE     LINE SOURCE TEXT
  VALUE

0569   0CE5           01808         RRF             DRAM + 39
Message[305]: Using default destination of 1 (file).
056A   0CE9           01809         RRF             DRAM + 3D
Message[305]: Using default destination of 1 (file).
056B   0BED           01810         DECFSZ  SHCNT
056C   2D67           01811         GOTO    SRA08
                      01812 
056D   086F           01813         MOVF    CURSORX,0
056E   00ED           01814         MOVWF   SHCNT
                      01815 
056F                  01816 SRA09
Message[305]: Using default destination of 1 (file).
056F   0CCD           01817         RRF             DRAM + 21
Message[305]: Using default destination of 1 (file).
0570   0CD1           01818         RRF             DRAM + 25
Message[305]: Using default destination of 1 (file).
0571   0CD5           01819         RRF             DRAM + 29
Message[305]: Using default destination of 1 (file).
0572   0CD9           01820         RRF             DRAM + 2D
Message[305]: Using default destination of 1 (file).
0573   0BED           01821         DECFSZ  SHCNT
0574   2D6F           01822         GOTO    SRA09
                      01823         
0575   086F           01824         MOVF    CURSORX,0
0576   00ED           01825         MOVWF   SHCNT
                      01826 
0577                  01827 SRA0A
Message[305]: Using default destination of 1 (file).
0577   0CBD           01828         RRF             DRAM + 11
Message[305]: Using default destination of 1 (file).
0578   0CC1           01829         RRF             DRAM + 15
Message[305]: Using default destination of 1 (file).
0579   0CC5           01830         RRF             DRAM + 19
Message[305]: Using default destination of 1 (file).
057A   0CC9           01831         RRF             DRAM + 1D
Message[305]: Using default destination of 1 (file).
057B   0BED           01832         DECFSZ  SHCNT
057C   2D77           01833         GOTO    SRA0A
                      01834 
057D   086F           01835         MOVF    CURSORX,0
057E   00ED           01836         MOVWF   SHCNT
                      01837 
057F                  01838 SRA0B
Message[305]: Using default destination of 1 (file).
057F   0CAD           01839         RRF             DRAM + 01
Message[305]: Using default destination of 1 (file).
0580   0CB1           01840         RRF             DRAM + 05
Message[305]: Using default destination of 1 (file).
0581   0CB5           01841         RRF             DRAM + 09
Message[305]: Using default destination of 1 (file).
0582   0CB9           01842         RRF             DRAM + 0D
Message[305]: Using default destination of 1 (file).
0583   0BED           01843         DECFSZ  SHCNT
MPASM  5.51              HUB12_FONTSCROLL.ASM   5-20-2019  14:19:30         PAGE 40


LOC  OBJECT CODE     LINE SOURCE TEXT
  VALUE

0584   2D7F           01844         GOTO    SRA0B
                      01845 
0585   086F           01846         MOVF    CURSORX,0
0586   00ED           01847         MOVWF   SHCNT
                      01848 
0587                  01849 SRA0C
Message[305]: Using default destination of 1 (file).
0587   0CDC           01850         RRF             DRAM + 30
Message[305]: Using default destination of 1 (file).
0588   0CE0           01851         RRF             DRAM + 34
Message[305]: Using default destination of 1 (file).
0589   0CE4           01852         RRF             DRAM + 38
Message[305]: Using default destination of 1 (file).
058A   0CE8           01853         RRF             DRAM + 3C
Message[305]: Using default destination of 1 (file).
058B   0BED           01854         DECFSZ  SHCNT
058C   2D87           01855         GOTO    SRA0C
                      01856 
058D   086F           01857         MOVF    CURSORX,0
058E   00ED           01858         MOVWF   SHCNT
                      01859 
058F                  01860 SRA0D
Message[305]: Using default destination of 1 (file).
058F   0CCC           01861         RRF             DRAM + 20
Message[305]: Using default destination of 1 (file).
0590   0CD0           01862         RRF             DRAM + 24
Message[305]: Using default destination of 1 (file).
0591   0CD4           01863         RRF             DRAM + 28
Message[305]: Using default destination of 1 (file).
0592   0CD8           01864         RRF             DRAM + 2C
Message[305]: Using default destination of 1 (file).
0593   0BED           01865         DECFSZ  SHCNT
0594   2D8F           01866         GOTO    SRA0D
                      01867 
0595   086F           01868         MOVF    CURSORX,0
0596   00ED           01869         MOVWF   SHCNT
                      01870 
0597                  01871 SRA0E
Message[305]: Using default destination of 1 (file).
0597   0CBC           01872         RRF             DRAM + 10
Message[305]: Using default destination of 1 (file).
0598   0CC0           01873         RRF             DRAM + 14
Message[305]: Using default destination of 1 (file).
0599   0CC4           01874         RRF             DRAM + 18
Message[305]: Using default destination of 1 (file).
059A   0CC8           01875         RRF             DRAM + 1C
Message[305]: Using default destination of 1 (file).
059B   0BED           01876         DECFSZ  SHCNT
059C   2D97           01877         GOTO    SRA0E
                      01878         
059D   086F           01879         MOVF    CURSORX,0
059E   00ED           01880         MOVWF   SHCNT
059F                  01881 SRA0F
MPASM  5.51              HUB12_FONTSCROLL.ASM   5-20-2019  14:19:30         PAGE 41


LOC  OBJECT CODE     LINE SOURCE TEXT
  VALUE

Message[305]: Using default destination of 1 (file).
059F   0CAC           01882         RRF             DRAM + 00
Message[305]: Using default destination of 1 (file).
05A0   0CB0           01883         RRF             DRAM + 04
Message[305]: Using default destination of 1 (file).
05A1   0CB4           01884         RRF             DRAM + 08
Message[305]: Using default destination of 1 (file).
05A2   0CB8           01885         RRF             DRAM + 0C
Message[305]: Using default destination of 1 (file).
05A3   0BED           01886         DECFSZ  SHCNT
05A4   2D9F           01887         GOTO    SRA0F
                      01888 
Warning[203]: Found opcode in column 1. (RETURN)
05A5   0008           01889 RETURN
                      01890 
05A6                  01891 GRP_B
                      01892 
                      01893 ;--------------------
05A6   086F           01894         MOVFW   CURSORX
05A7   00ED           01895         MOVWF   SHCNT
                      01896 
05A8   3001           01897         MOVLW   .1
05A9   00F2           01898         MOVWF   TESTER
                      01899 
05AA   0877           01900         MOVFW   ROW
05AB   0272           01901         SUBWF   TESTER,W
05AC   1903           01902         BTFSC   STATUS,Z
05AD   2DE9           01903         GOTO    SRB08
                      01904 
                      01905 
                      01906         
05AE                  01907 SRB00
Warning[211]: Extraneous arguments on the line.
05AE   1403           01908         SETC    1
Message[305]: Using default destination of 1 (file).
05AF   0CDF           01909         RRF             DRAM + 33
Message[305]: Using default destination of 1 (file).
05B0   0CE3           01910         RRF             DRAM + 37
Message[305]: Using default destination of 1 (file).
05B1   0CE7           01911         RRF             DRAM + 3B
                      01912 
Message[305]: Using default destination of 1 (file).
05B2   0BED           01913         DECFSZ  SHCNT
05B3   2DAE           01914         GOTO    SRB00
                      01915 
05B4   086F           01916         MOVF    CURSORX,0
05B5   00ED           01917         MOVWF   SHCNT
                      01918 
05B6                  01919 SRB01
Message[305]: Using default destination of 1 (file).
05B6   0CCF           01920         RRF             DRAM + 23
Message[305]: Using default destination of 1 (file).
05B7   0CD3           01921         RRF             DRAM + 27
MPASM  5.51              HUB12_FONTSCROLL.ASM   5-20-2019  14:19:30         PAGE 42


LOC  OBJECT CODE     LINE SOURCE TEXT
  VALUE

Message[305]: Using default destination of 1 (file).
05B8   0CD7           01922         RRF             DRAM + 2B
                      01923 
Message[305]: Using default destination of 1 (file).
05B9   0BED           01924         DECFSZ  SHCNT
05BA   2DB6           01925         GOTO    SRB01
                      01926 
05BB   086F           01927         MOVF    CURSORX,0
05BC   00ED           01928         MOVWF   SHCNT
                      01929 
05BD                  01930 SRB02
Message[305]: Using default destination of 1 (file).
05BD   0CBF           01931         RRF             DRAM + 13
Message[305]: Using default destination of 1 (file).
05BE   0CC3           01932         RRF             DRAM + 17
Message[305]: Using default destination of 1 (file).
05BF   0CC7           01933         RRF             DRAM + 1B
                      01934 
Message[305]: Using default destination of 1 (file).
05C0   0BED           01935         DECFSZ  SHCNT
05C1   2DBD           01936         GOTO    SRB02
                      01937 
05C2   086F           01938         MOVF    CURSORX,0
05C3   00ED           01939         MOVWF   SHCNT
                      01940 
05C4                  01941 SRB03
Message[305]: Using default destination of 1 (file).
05C4   0CAF           01942         RRF             DRAM + 03
Message[305]: Using default destination of 1 (file).
05C5   0CB3           01943         RRF             DRAM + 07
Message[305]: Using default destination of 1 (file).
05C6   0CB7           01944         RRF             DRAM + 0B
                      01945 
Message[305]: Using default destination of 1 (file).
05C7   0BED           01946         DECFSZ  SHCNT
05C8   2DC4           01947         GOTO    SRB03
                      01948 
05C9   086F           01949         MOVF    CURSORX,0
05CA   00ED           01950         MOVWF   SHCNT
                      01951 
05CB                  01952 SRB04
Message[305]: Using default destination of 1 (file).
05CB   0CDE           01953         RRF             DRAM + 32
Message[305]: Using default destination of 1 (file).
05CC   0CE2           01954         RRF             DRAM + 36
Message[305]: Using default destination of 1 (file).
05CD   0CE6           01955         RRF             DRAM + 3A
                      01956 
Message[305]: Using default destination of 1 (file).
05CE   0BED           01957         DECFSZ  SHCNT
05CF   2DCB           01958         GOTO    SRB04
                      01959 
05D0   086F           01960         MOVF    CURSORX,0
MPASM  5.51              HUB12_FONTSCROLL.ASM   5-20-2019  14:19:30         PAGE 43


LOC  OBJECT CODE     LINE SOURCE TEXT
  VALUE

05D1   00ED           01961         MOVWF   SHCNT
                      01962 
05D2                  01963 SRB05
Message[305]: Using default destination of 1 (file).
05D2   0CCE           01964         RRF             DRAM + 22
Message[305]: Using default destination of 1 (file).
05D3   0CD2           01965         RRF             DRAM + 26
Message[305]: Using default destination of 1 (file).
05D4   0CD6           01966         RRF             DRAM + 2A
                      01967 
Message[305]: Using default destination of 1 (file).
05D5   0BED           01968         DECFSZ  SHCNT
05D6   2DD2           01969         GOTO    SRB05
                      01970 
05D7   086F           01971         MOVF    CURSORX,0
05D8   00ED           01972         MOVWF   SHCNT
                      01973 
05D9                  01974 SRB06
Message[305]: Using default destination of 1 (file).
05D9   0CBE           01975         RRF             DRAM + 12
Message[305]: Using default destination of 1 (file).
05DA   0CC2           01976         RRF             DRAM + 16
Message[305]: Using default destination of 1 (file).
05DB   0CC6           01977         RRF             DRAM + 1A
                      01978 
Message[305]: Using default destination of 1 (file).
05DC   0BED           01979         DECFSZ  SHCNT
05DD   2DD9           01980         GOTO    SRB06
                      01981 
                      01982 
05DE   086F           01983         MOVF    CURSORX,0
05DF   00ED           01984         MOVWF   SHCNT
                      01985 
05E0                  01986 SRB07
Message[305]: Using default destination of 1 (file).
05E0   0CAE           01987         RRF             DRAM + 02
Message[305]: Using default destination of 1 (file).
05E1   0CB2           01988         RRF             DRAM + 06
Message[305]: Using default destination of 1 (file).
05E2   0CB6           01989         RRF             DRAM + 0A
                      01990 
Message[305]: Using default destination of 1 (file).
05E3   0BED           01991         DECFSZ  SHCNT
05E4   2DE0           01992         GOTO    SRB07
                      01993 
05E5   086F           01994         MOVF    CURSORX,0
05E6   00ED           01995         MOVWF   SHCNT
Warning[203]: Found opcode in column 1. (RETURN)
05E7   0008           01996 RETURN
05E8                  01997 SRB08_R1
Warning[211]: Extraneous arguments on the line.
05E8   1403           01998         SETC    1
05E9                  01999 SRB08
MPASM  5.51              HUB12_FONTSCROLL.ASM   5-20-2019  14:19:30         PAGE 44


LOC  OBJECT CODE     LINE SOURCE TEXT
  VALUE

Message[305]: Using default destination of 1 (file).
05E9   0CDD           02000         RRF             DRAM + 31
Message[305]: Using default destination of 1 (file).
05EA   0CE1           02001         RRF             DRAM + 35
Message[305]: Using default destination of 1 (file).
05EB   0CE5           02002         RRF             DRAM + 39
                      02003 
Message[305]: Using default destination of 1 (file).
05EC   0BED           02004         DECFSZ  SHCNT
05ED   2DE9           02005         GOTO    SRB08
                      02006 
05EE   086F           02007         MOVF    CURSORX,0
05EF   00ED           02008         MOVWF   SHCNT
                      02009 
05F0                  02010 SRB09
Message[305]: Using default destination of 1 (file).
05F0   0CCD           02011         RRF             DRAM + 21
Message[305]: Using default destination of 1 (file).
05F1   0CD1           02012         RRF             DRAM + 25
Message[305]: Using default destination of 1 (file).
05F2   0CD5           02013         RRF             DRAM + 29
                      02014 
Message[305]: Using default destination of 1 (file).
05F3   0BED           02015         DECFSZ  SHCNT
05F4   2DF0           02016         GOTO    SRB09
                      02017         
05F5   086F           02018         MOVF    CURSORX,0
05F6   00ED           02019         MOVWF   SHCNT
                      02020 
05F7                  02021 SRB0A
Message[305]: Using default destination of 1 (file).
05F7   0CBD           02022         RRF             DRAM + 11
Message[305]: Using default destination of 1 (file).
05F8   0CC1           02023         RRF             DRAM + 15
Message[305]: Using default destination of 1 (file).
05F9   0CC5           02024         RRF             DRAM + 19
                      02025 
Message[305]: Using default destination of 1 (file).
05FA   0BED           02026         DECFSZ  SHCNT
05FB   2DF7           02027         GOTO    SRB0A
                      02028 
05FC   086F           02029         MOVF    CURSORX,0
05FD   00ED           02030         MOVWF   SHCNT
                      02031 
05FE                  02032 SRB0B
Message[305]: Using default destination of 1 (file).
05FE   0CAD           02033         RRF             DRAM + 01
Message[305]: Using default destination of 1 (file).
05FF   0CB1           02034         RRF             DRAM + 05
Message[305]: Using default destination of 1 (file).
0600   0CB5           02035         RRF             DRAM + 09
                      02036 
Message[305]: Using default destination of 1 (file).
MPASM  5.51              HUB12_FONTSCROLL.ASM   5-20-2019  14:19:30         PAGE 45


LOC  OBJECT CODE     LINE SOURCE TEXT
  VALUE

0601   0BED           02037         DECFSZ  SHCNT
0602   2DFE           02038         GOTO    SRB0B
                      02039 
0603   086F           02040         MOVF    CURSORX,0
0604   00ED           02041         MOVWF   SHCNT
                      02042 
0605                  02043 SRB0C
Message[305]: Using default destination of 1 (file).
0605   0CDC           02044         RRF             DRAM + 30
Message[305]: Using default destination of 1 (file).
0606   0CE0           02045         RRF             DRAM + 34
Message[305]: Using default destination of 1 (file).
0607   0CE4           02046         RRF             DRAM + 38
                      02047 
Message[305]: Using default destination of 1 (file).
0608   0BED           02048         DECFSZ  SHCNT
0609   2E05           02049         GOTO    SRB0C
                      02050 
060A   086F           02051         MOVF    CURSORX,0
060B   00ED           02052         MOVWF   SHCNT
                      02053 
060C                  02054 SRB0D
Message[305]: Using default destination of 1 (file).
060C   0CCC           02055         RRF             DRAM + 20
Message[305]: Using default destination of 1 (file).
060D   0CD0           02056         RRF             DRAM + 24
Message[305]: Using default destination of 1 (file).
060E   0CD4           02057         RRF             DRAM + 28
                      02058 
Message[305]: Using default destination of 1 (file).
060F   0BED           02059         DECFSZ  SHCNT
0610   2E0C           02060         GOTO    SRB0D
                      02061 
0611   086F           02062         MOVF    CURSORX,0
0612   00ED           02063         MOVWF   SHCNT
                      02064 
0613                  02065 SRB0E
Message[305]: Using default destination of 1 (file).
0613   0CBC           02066         RRF             DRAM + 10
Message[305]: Using default destination of 1 (file).
0614   0CC0           02067         RRF             DRAM + 14
Message[305]: Using default destination of 1 (file).
0615   0CC4           02068         RRF             DRAM + 18
                      02069 
Message[305]: Using default destination of 1 (file).
0616   0BED           02070         DECFSZ  SHCNT
0617   2E13           02071         GOTO    SRB0E
                      02072         
0618   086F           02073         MOVF    CURSORX,0
0619   00ED           02074         MOVWF   SHCNT
061A                  02075 SRB0F
Message[305]: Using default destination of 1 (file).
061A   0CAC           02076         RRF             DRAM + 00
MPASM  5.51              HUB12_FONTSCROLL.ASM   5-20-2019  14:19:30         PAGE 46


LOC  OBJECT CODE     LINE SOURCE TEXT
  VALUE

Message[305]: Using default destination of 1 (file).
061B   0CB0           02077         RRF             DRAM + 04
Message[305]: Using default destination of 1 (file).
061C   0CB4           02078         RRF             DRAM + 08
                      02079 
Message[305]: Using default destination of 1 (file).
061D   0BED           02080         DECFSZ  SHCNT
061E   2E1A           02081         GOTO    SRB0F
                      02082 
Warning[203]: Found opcode in column 1. (RETURN)
061F   0008           02083 RETURN
                      02084 
                      02085 
0620                  02086 GRP_C
                      02087         ;--------------------
0620   086F           02088         MOVFW   CURSORX
0621   00ED           02089         MOVWF   SHCNT
                      02090 
0622   3001           02091         MOVLW   .1
0623   00F2           02092         MOVWF   TESTER
                      02093 
0624   0877           02094         MOVFW   ROW
0625   0272           02095         SUBWF   TESTER,W
0626   1903           02096         BTFSC   STATUS,Z
0627   2E5B           02097         GOTO    SRC08
                      02098 
                      02099 
                      02100         
0628                  02101 SRC00
Warning[211]: Extraneous arguments on the line.
0628   1403           02102         SETC    1
Message[305]: Using default destination of 1 (file).
0629   0CDF           02103         RRF             DRAM + 33
Message[305]: Using default destination of 1 (file).
062A   0CE3           02104         RRF             DRAM + 37
                      02105 
                      02106 
Message[305]: Using default destination of 1 (file).
062B   0BED           02107         DECFSZ  SHCNT
062C   2E28           02108         GOTO    SRC00
                      02109 
062D   086F           02110         MOVF    CURSORX,0
062E   00ED           02111         MOVWF   SHCNT
                      02112 
062F                  02113 SRC01
Message[305]: Using default destination of 1 (file).
062F   0CCF           02114         RRF             DRAM + 23
Message[305]: Using default destination of 1 (file).
0630   0CD3           02115         RRF             DRAM + 27
                      02116 
                      02117 
Message[305]: Using default destination of 1 (file).
0631   0BED           02118         DECFSZ  SHCNT
MPASM  5.51              HUB12_FONTSCROLL.ASM   5-20-2019  14:19:30         PAGE 47


LOC  OBJECT CODE     LINE SOURCE TEXT
  VALUE

0632   2E2F           02119         GOTO    SRC01
                      02120 
0633   086F           02121         MOVF    CURSORX,0
0634   00ED           02122         MOVWF   SHCNT
                      02123 
0635                  02124 SRC02
Message[305]: Using default destination of 1 (file).
0635   0CBF           02125         RRF             DRAM + 13
Message[305]: Using default destination of 1 (file).
0636   0CC3           02126         RRF             DRAM + 17
                      02127 
                      02128 
Message[305]: Using default destination of 1 (file).
0637   0BED           02129         DECFSZ  SHCNT
0638   2E35           02130         GOTO    SRC02
                      02131 
0639   086F           02132         MOVF    CURSORX,0
063A   00ED           02133         MOVWF   SHCNT
                      02134 
063B                  02135 SRC03
Message[305]: Using default destination of 1 (file).
063B   0CAF           02136         RRF             DRAM + 03
Message[305]: Using default destination of 1 (file).
063C   0CB3           02137         RRF             DRAM + 07
                      02138 
                      02139 
Message[305]: Using default destination of 1 (file).
063D   0BED           02140         DECFSZ  SHCNT
063E   2E3B           02141         GOTO    SRC03
                      02142 
063F   086F           02143         MOVF    CURSORX,0
0640   00ED           02144         MOVWF   SHCNT
                      02145 
0641                  02146 SRC04
Message[305]: Using default destination of 1 (file).
0641   0CDE           02147         RRF             DRAM + 32
Message[305]: Using default destination of 1 (file).
0642   0CE2           02148         RRF             DRAM + 36
                      02149 
                      02150 
Message[305]: Using default destination of 1 (file).
0643   0BED           02151         DECFSZ  SHCNT
0644   2E41           02152         GOTO    SRC04
                      02153 
0645   086F           02154         MOVF    CURSORX,0
0646   00ED           02155         MOVWF   SHCNT
                      02156 
0647                  02157 SRC05
Message[305]: Using default destination of 1 (file).
0647   0CCE           02158         RRF             DRAM + 22
Message[305]: Using default destination of 1 (file).
0648   0CD2           02159         RRF             DRAM + 26
                      02160 
MPASM  5.51              HUB12_FONTSCROLL.ASM   5-20-2019  14:19:30         PAGE 48


LOC  OBJECT CODE     LINE SOURCE TEXT
  VALUE

                      02161 
Message[305]: Using default destination of 1 (file).
0649   0BED           02162         DECFSZ  SHCNT
064A   2E47           02163         GOTO    SRC05
                      02164 
064B   086F           02165         MOVF    CURSORX,0
064C   00ED           02166         MOVWF   SHCNT
                      02167 
064D                  02168 SRC06
Message[305]: Using default destination of 1 (file).
064D   0CBE           02169         RRF             DRAM + 12
Message[305]: Using default destination of 1 (file).
064E   0CC2           02170         RRF             DRAM + 16
                      02171 
                      02172 
Message[305]: Using default destination of 1 (file).
064F   0BED           02173         DECFSZ  SHCNT
0650   2E4D           02174         GOTO    SRC06
                      02175 
                      02176 
0651   086F           02177         MOVF    CURSORX,0
0652   00ED           02178         MOVWF   SHCNT
                      02179 
0653                  02180 SRC07
Message[305]: Using default destination of 1 (file).
0653   0CAE           02181         RRF             DRAM + 02
Message[305]: Using default destination of 1 (file).
0654   0CB2           02182         RRF             DRAM + 06
                      02183 
                      02184 
Message[305]: Using default destination of 1 (file).
0655   0BED           02185         DECFSZ  SHCNT
0656   2E53           02186         GOTO    SRC07
                      02187 
0657   086F           02188         MOVF    CURSORX,0
0658   00ED           02189         MOVWF   SHCNT
Warning[203]: Found opcode in column 1. (RETURN)
0659   0008           02190 RETURN
065A                  02191 SRC08_R1
Warning[211]: Extraneous arguments on the line.
065A   1403           02192         SETC    1
065B                  02193 SRC08
Message[305]: Using default destination of 1 (file).
065B   0CDD           02194         RRF             DRAM + 31
Message[305]: Using default destination of 1 (file).
065C   0CE1           02195         RRF             DRAM + 35
                      02196 
                      02197 
Message[305]: Using default destination of 1 (file).
065D   0BED           02198         DECFSZ  SHCNT
065E   2E5B           02199         GOTO    SRC08
                      02200 
065F   086F           02201         MOVF    CURSORX,0
MPASM  5.51              HUB12_FONTSCROLL.ASM   5-20-2019  14:19:30         PAGE 49


LOC  OBJECT CODE     LINE SOURCE TEXT
  VALUE

0660   00ED           02202         MOVWF   SHCNT
                      02203 
0661                  02204 SRC09
Message[305]: Using default destination of 1 (file).
0661   0CCD           02205         RRF             DRAM + 21
Message[305]: Using default destination of 1 (file).
0662   0CD1           02206         RRF             DRAM + 25
                      02207 
                      02208 
Message[305]: Using default destination of 1 (file).
0663   0BED           02209         DECFSZ  SHCNT
0664   2E61           02210         GOTO    SRC09
                      02211         
0665   086F           02212         MOVF    CURSORX,0
0666   00ED           02213         MOVWF   SHCNT
                      02214 
0667                  02215 SRC0A
Message[305]: Using default destination of 1 (file).
0667   0CBD           02216         RRF             DRAM + 11
Message[305]: Using default destination of 1 (file).
0668   0CC1           02217         RRF             DRAM + 15
                      02218 
                      02219 
Message[305]: Using default destination of 1 (file).
0669   0BED           02220         DECFSZ  SHCNT
066A   2E67           02221         GOTO    SRC0A
                      02222 
066B   086F           02223         MOVF    CURSORX,0
066C   00ED           02224         MOVWF   SHCNT
                      02225 
066D                  02226 SRC0B
Message[305]: Using default destination of 1 (file).
066D   0CAD           02227         RRF             DRAM + 01
Message[305]: Using default destination of 1 (file).
066E   0CB1           02228         RRF             DRAM + 05
                      02229 
                      02230 
Message[305]: Using default destination of 1 (file).
066F   0BED           02231         DECFSZ  SHCNT
0670   2E6D           02232         GOTO    SRC0B
                      02233 
0671   086F           02234         MOVF    CURSORX,0
0672   00ED           02235         MOVWF   SHCNT
                      02236 
0673                  02237 SRC0C
Message[305]: Using default destination of 1 (file).
0673   0CDC           02238         RRF             DRAM + 30
Message[305]: Using default destination of 1 (file).
0674   0CE0           02239         RRF             DRAM + 34
                      02240 
                      02241 
Message[305]: Using default destination of 1 (file).
0675   0BED           02242         DECFSZ  SHCNT
MPASM  5.51              HUB12_FONTSCROLL.ASM   5-20-2019  14:19:30         PAGE 50


LOC  OBJECT CODE     LINE SOURCE TEXT
  VALUE

0676   2E73           02243         GOTO    SRC0C
                      02244 
0677   086F           02245         MOVF    CURSORX,0
0678   00ED           02246         MOVWF   SHCNT
                      02247 
0679                  02248 SRC0D
Message[305]: Using default destination of 1 (file).
0679   0CCC           02249         RRF             DRAM + 20
Message[305]: Using default destination of 1 (file).
067A   0CD0           02250         RRF             DRAM + 24
                      02251 
                      02252 
Message[305]: Using default destination of 1 (file).
067B   0BED           02253         DECFSZ  SHCNT
067C   2E79           02254         GOTO    SRC0D
                      02255 
067D   086F           02256         MOVF    CURSORX,0
067E   00ED           02257         MOVWF   SHCNT
                      02258 
067F                  02259 SRC0E
Message[305]: Using default destination of 1 (file).
067F   0CBC           02260         RRF             DRAM + 10
Message[305]: Using default destination of 1 (file).
0680   0CC0           02261         RRF             DRAM + 14
                      02262 
                      02263 
Message[305]: Using default destination of 1 (file).
0681   0BED           02264         DECFSZ  SHCNT
0682   2E7F           02265         GOTO    SRC0E
                      02266         
0683   086F           02267         MOVF    CURSORX,0
0684   00ED           02268         MOVWF   SHCNT
0685                  02269 SRC0F
Message[305]: Using default destination of 1 (file).
0685   0CAC           02270         RRF             DRAM + 00
Message[305]: Using default destination of 1 (file).
0686   0CB0           02271         RRF             DRAM + 04
                      02272 
                      02273 
Message[305]: Using default destination of 1 (file).
0687   0BED           02274         DECFSZ  SHCNT
0688   2E85           02275         GOTO    SRC0F
                      02276 
Warning[203]: Found opcode in column 1. (RETURN)
0689   0008           02277 RETURN
                      02278 
068A                  02279 GRP_D
                      02280 
068A   0000           02281         NOP
068B   0000           02282         NOP
                      02283 
Warning[203]: Found opcode in column 1. (RETURN)
068C   0008           02284 RETURN
MPASM  5.51              HUB12_FONTSCROLL.ASM   5-20-2019  14:19:30         PAGE 51


LOC  OBJECT CODE     LINE SOURCE TEXT
  VALUE

                      02285 
                      02286 
                      02287 
                      02288 
                      02289 
                      02290 
                      02291 
                      02292 
                      02293 
                      02294 
0800                  02295         ORG 0X800
                      02296         
0800                  02297 CHAR
                      02298 
                      02299 
                      02300 
0800   0873           02301         MOVFW   NUMBER
0801   0782           02302         ADDWF   PCL,F
                      02303 
0802   280C           02304         GOTO    ZERO
                      02305 
0803   2821           02306         GOTO    ONE
                      02307 
0804   2834           02308         GOTO    TWO
                      02309 
0805   2847           02310         GOTO    THREE
                      02311         
0806   285A           02312         GOTO    FOUR
                      02313         
0807   286D           02314         GOTO    FIVE
                      02315         
0808   2880           02316         GOTO    SIX
                      02317         
0809   2893           02318         GOTO    SEVEN
                      02319 
080A   28A6           02320         GOTO    EIGHT
                      02321 
080B   28B9           02322         GOTO    NINE
                      02323                 
                      02324 
                      02325 
                      02326 
                      02327 
                      02328 
Warning[207]: Found label after column 1. (ZERO)
080C                  02329         ZERO
080C   0874           02330                         MOVFW   BTCOUNT
080D   0782           02331                         ADDWF   PCL, F
                      02332 
080E   3408           02333                         DT      8
080F   34C7           02334                         DT      B'11000111'
0810   3483           02335                         DT      B'10000011'
0811   3411           02336                         DT      B'00010001'
MPASM  5.51              HUB12_FONTSCROLL.ASM   5-20-2019  14:19:30         PAGE 52


LOC  OBJECT CODE     LINE SOURCE TEXT
  VALUE

0812   3439           02337                         DT      B'00111001'
0813   3439           02338                         DT      B'00111001'
0814   3439           02339                         DT      B'00111001'
0815   3439           02340                         DT      B'00111001'
0816   3439           02341                         DT      B'00111001'
0817   3439           02342                         DT      B'00111001'
0818   3439           02343                         DT      B'00111001'
0819   3439           02344                         DT      B'00111001'
081A   3439           02345                         DT      B'00111001'
081B   3439           02346                         DT      B'00111001'
081C   3411           02347                         DT      B'00010001'
081D   3483           02348                         DT      B'10000011'
081E   34C7           02349                         DT      B'11000111'
081F   3000           02350                         MOVLW   .0
0820   008A           02351                         MOVWF   PCLATH
                      02352 
Warning[207]: Found label after column 1. (ONE)
0821                  02353         ONE
0821   0874           02354                         MOVFW   BTCOUNT
0822   0782           02355                         ADDWF   PCL, F
                      02356 
0823   3407           02357                         DT      7
0824   34CF           02358                         DT      B'11001111'
0825   34CF           02359                         DT      B'11001111'
0826   348F           02360                         DT      B'10001111'
0827   340F           02361                         DT      B'00001111'
0828   344F           02362                         DT      B'01001111'
0829   34CF           02363                         DT      B'11001111'
082A   34CF           02364                         DT      B'11001111'
082B   34CF           02365                         DT      B'11001111'
082C   34CF           02366                         DT      B'11001111'
082D   34CF           02367                         DT      B'11001111'
082E   34CF           02368                         DT      B'11001111'
082F   34CF           02369                         DT      B'11001111'
0830   34CF           02370                         DT      B'11001111'
0831   34CF           02371                         DT      B'11001111'
0832   3403           02372                         DT      B'00000011'
0833   3403           02373                         DT      B'00000011'
                      02374 
Warning[207]: Found label after column 1. (TWO)
0834                  02375         TWO
0834   0874           02376                         MOVFW   BTCOUNT
0835   0782           02377                         ADDWF   PCL, F
                      02378 
0836   3408           02379                         DT      8
0837   3487           02380                         DT      B'10000111'
0838   3403           02381                         DT      B'00000011'
0839   3431           02382                         DT      B'00110001'
083A   34F9           02383                         DT      B'11111001'
083B   34F9           02384                         DT      B'11111001'
083C   34F9           02385                         DT      B'11111001'
083D   34F9           02386                         DT      B'11111001'
083E   34F1           02387                         DT      B'11110001'
MPASM  5.51              HUB12_FONTSCROLL.ASM   5-20-2019  14:19:30         PAGE 53


LOC  OBJECT CODE     LINE SOURCE TEXT
  VALUE

083F   3483           02388                         DT      B'10000011'
0840   3407           02389                         DT      B'00000111'
0841   343F           02390                         DT      B'00111111'
0842   343D           02391                         DT      B'00111101'
0843   3439           02392                         DT      B'00111001'
0844   3439           02393                         DT      B'00111001'
0845   3401           02394                         DT      B'00000001'
0846   3401           02395                         DT      B'00000001'
                      02396                                 
                      02397 
Warning[207]: Found label after column 1. (THREE)
0847                  02398         THREE
0847   0874           02399                         MOVFW   BTCOUNT
0848   0782           02400                         ADDWF   PCL, F
                      02401 
0849   3408           02402                         DT      8
084A   3487           02403                         DT      B'10000111'
084B   3403           02404                         DT      B'00000011'
084C   3431           02405                         DT      B'00110001'
084D   34F9           02406                         DT      B'11111001'
084E   34F9           02407                         DT      B'11111001'
084F   34F9           02408                         DT      B'11111001'
0850   34F1           02409                         DT      B'11110001'
0851   34C3           02410                         DT      B'11000011'
0852   34C3           02411                         DT      B'11000011'
0853   34F1           02412                         DT      B'11110001'
0854   34F9           02413                         DT      B'11111001'
0855   34F9           02414                         DT      B'11111001'
0856   34F9           02415                         DT      B'11111001'
0857   3431           02416                         DT      B'00110001'
0858   3403           02417                         DT      B'00000011'
0859   3487           02418                         DT      B'10000111'
                      02419                         
                      02420 
Warning[207]: Found label after column 1. (FOUR)
085A                  02421         FOUR
085A   0874           02422                         MOVFW   BTCOUNT
085B   0782           02423                         ADDWF   PCL, F
                      02424 
085C   3408           02425                         DT      8
085D   34FD           02426                         DT      B'11111101'
085E   34F9           02427                         DT      B'11111001'
085F   34E9           02428                         DT      B'11101001'
0860   34C9           02429                         DT      B'11001001'
0861   34C9           02430                         DT      B'11001001'
0862   34C9           02431                         DT      B'11001001'
0863   3499           02432                         DT      B'10011001'
0864   3439           02433                         DT      B'00111001'
0865   3401           02434                         DT      B'00000001'
0866   3401           02435                         DT      B'00000001'
0867   34F9           02436                         DT      B'11111001'
0868   34F9           02437                         DT      B'11111001'
0869   34F9           02438                         DT      B'11111001'
MPASM  5.51              HUB12_FONTSCROLL.ASM   5-20-2019  14:19:30         PAGE 54


LOC  OBJECT CODE     LINE SOURCE TEXT
  VALUE

086A   34F9           02439                         DT      B'11111001'
086B   34F9           02440                         DT      B'11111001'
086C   34FB           02441                         DT      B'11111011'
                      02442 
Warning[207]: Found label after column 1. (FIVE)
086D                  02443         FIVE
086D   0874           02444                         MOVFW   BTCOUNT
086E   0782           02445                         ADDWF   PCL, F
                      02446 
086F   3408           02447                         DT      8
0870   3401           02448                         DT      B'00000001'
0871   3401           02449                         DT      B'00000001'
0872   3439           02450                         DT      B'00111001'
0873   343B           02451                         DT      B'00111011'
0874   343F           02452                         DT      B'00111111'
0875   343F           02453                         DT      B'00111111'
0876   343F           02454                         DT      B'00111111'
0877   3407           02455                         DT      B'00000111'
0878   3403           02456                         DT      B'00000011'
0879   34F1           02457                         DT      B'11110001'
087A   34F9           02458                         DT      B'11111001'
087B   34F9           02459                         DT      B'11111001'
087C   34F9           02460                         DT      B'11111001'
087D   34F1           02461                         DT      B'11110001'
087E   3403           02462                         DT      B'00000011'
087F   3407           02463                         DT      B'00000111'
                      02464 
                      02465 
Warning[207]: Found label after column 1. (SIX)
0880                  02466         SIX
0880   0874           02467                         MOVFW   BTCOUNT
0881   0782           02468                         ADDWF   PCL, F
                      02469 
0882   3408           02470                         DT      8
0883   34C7           02471                         DT      B'11000111'
0884   3483           02472                         DT      B'10000011'
0885   3411           02473                         DT      B'00010001'
0886   3439           02474                         DT      B'00111001'
0887   343F           02475                         DT      B'00111111'
0888   343F           02476                         DT      B'00111111'
0889   343F           02477                         DT      B'00111111'
088A   3427           02478                         DT      B'00100111'
088B   3403           02479                         DT      B'00000011'
088C   3411           02480                         DT      B'00010001'
088D   3439           02481                         DT      B'00111001'
088E   3439           02482                         DT      B'00111001'
088F   3439           02483                         DT      B'00111001'
0890   3411           02484                         DT      B'00010001'
0891   3483           02485                         DT      B'10000011'
0892   34C7           02486                         DT      B'11000111'
                      02487 
Warning[207]: Found label after column 1. (SEVEN)
0893                  02488         SEVEN   
MPASM  5.51              HUB12_FONTSCROLL.ASM   5-20-2019  14:19:30         PAGE 55


LOC  OBJECT CODE     LINE SOURCE TEXT
  VALUE

0893   0874           02489                         MOVFW   BTCOUNT
0894   0782           02490                         ADDWF   PCL, F
                      02491 
0895   3408           02492                         DT      8       
0896   3401           02493                         DT      B'00000001'
0897   3401           02494                         DT      B'00000001'
0898   3439           02495                         DT      B'00111001'
0899   3439           02496                         DT      B'00111001'
089A   34F9           02497                         DT      B'11111001'
089B   34F9           02498                         DT      B'11111001'
089C   34F9           02499                         DT      B'11111001'
089D   34F3           02500                         DT      B'11110011'
089E   34E7           02501                         DT      B'11100111'
089F   34CF           02502                         DT      B'11001111'
08A0   34CF           02503                         DT      B'11001111'
08A1   34CF           02504                         DT      B'11001111'
08A2   34CF           02505                         DT      B'11001111'
08A3   34CF           02506                         DT      B'11001111'
08A4   34CF           02507                         DT      B'11001111'
08A5   34CF           02508                         DT      B'11001111'
                      02509                                 
Warning[207]: Found label after column 1. (EIGHT)
08A6                  02510         EIGHT
08A6   0874           02511                         MOVFW   BTCOUNT
08A7   0782           02512                         ADDWF   PCL, F
                      02513 
08A8   3408           02514                         DT      8
08A9   34C7           02515                         DT      B'11000111'
08AA   3483           02516                         DT      B'10000011'
08AB   3411           02517                         DT      B'00010001'
08AC   3439           02518                         DT      B'00111001'
08AD   3439           02519                         DT      B'00111001'
08AE   3439           02520                         DT      B'00111001'
08AF   3493           02521                         DT      B'10010011'
08B0   34C7           02522                         DT      B'11000111'
08B1   3483           02523                         DT      B'10000011'
08B2   3411           02524                         DT      B'00010001'
08B3   3439           02525                         DT      B'00111001'
08B4   3439           02526                         DT      B'00111001'
08B5   3439           02527                         DT      B'00111001'
08B6   3411           02528                         DT      B'00010001'
08B7   3483           02529                         DT      B'10000011'
08B8   34C7           02530                         DT      B'11000111'
                      02531 
Warning[207]: Found label after column 1. (NINE)
08B9                  02532         NINE
08B9   0874           02533                         MOVFW   BTCOUNT
08BA   0782           02534                         ADDWF   PCL, F
                      02535 
08BB   3408           02536                         DT      8
08BC   34C7           02537                         DT      B'11000111'
08BD   3483           02538                         DT      B'10000011'
08BE   3411           02539                         DT      B'00010001'
MPASM  5.51              HUB12_FONTSCROLL.ASM   5-20-2019  14:19:30         PAGE 56


LOC  OBJECT CODE     LINE SOURCE TEXT
  VALUE

08BF   3439           02540                         DT      B'00111001'
08C0   3439           02541                         DT      B'00111001'
08C1   3439           02542                         DT      B'00111001'
08C2   3411           02543                         DT      B'00010001'
08C3   3481           02544                         DT      B'10000001'
08C4   34C9           02545                         DT      B'11001001'
08C5   34F9           02546                         DT      B'11111001'
08C6   34F9           02547                         DT      B'11111001'
08C7   34F9           02548                         DT      B'11111001'
08C8   3439           02549                         DT      B'00111001'
08C9   3411           02550                         DT      B'00010001'
08CA   3483           02551                         DT      B'10000011'
08CB   34C7           02552                         DT      B'11000111'
                      02553 
                      02554 
0900                  02555         ORG 0X900
                      02556 
0900                  02557 L_CHAR
                      02558         
0900   0873           02559         MOVFW   NUMBER
0901   0782           02560         ADDWF   PCL,F
                      02561         
0902   290C           02562         GOTO    L_ZERO
                      02563         
0903   2917           02564         GOTO    L_ONE
                      02565 
0904   2922           02566         GOTO    L_TWO
                      02567 
0905   292D           02568         GOTO    L_THREE
                      02569 
0906   2938           02570         GOTO    L_FOUR
                      02571 
0907   2943           02572         GOTO    L_FIVE
                      02573 
0908   294E           02574         GOTO    L_SIX
                      02575 
0909   2959           02576         GOTO    L_SEVEN
                      02577 
090A   2964           02578         GOTO    L_EIGHT
                      02579 
090B   296F           02580         GOTO    L_NINE
                      02581 
                      02582 
                      02583 
Warning[207]: Found label after column 1. (L_ZERO)
090C                  02584         L_ZERO
                      02585 
090C   0874           02586                         MOVFW   BTCOUNT
090D   0782           02587                         ADDWF   PCL, F
                      02588 
090E   3405           02589                         DT      5
090F   34FF           02590                         DT      B'11111111';
0910   348F           02591                         DT      B'10001111'
MPASM  5.51              HUB12_FONTSCROLL.ASM   5-20-2019  14:19:30         PAGE 57


LOC  OBJECT CODE     LINE SOURCE TEXT
  VALUE

0911   3477           02592                         DT      B'01110111'
0912   3477           02593                         DT      B'01110111'
0913   3477           02594                         DT      B'01110111'
0914   3477           02595                         DT      B'01110111'
0915   3477           02596                         DT      B'01110111'
0916   348F           02597                         DT      B'10001111'
                      02598                         
Warning[207]: Found label after column 1. (L_ONE)
0917                  02599         L_ONE
                      02600 
0917   0874           02601                         MOVFW   BTCOUNT
0918   0782           02602                         ADDWF   PCL, F
                      02603 
0919   3405           02604                         DT      5
091A   34FF           02605                         DT      B'11111111';
091B   34DF           02606                         DT      B'11011111'
091C   349F           02607                         DT      B'10011111'
091D   34DF           02608                         DT      B'11011111'
091E   34DF           02609                         DT      B'11011111'
091F   34DF           02610                         DT      B'11011111'
0920   34DF           02611                         DT      B'11011111'
0921   348F           02612                         DT      B'10001111'
                      02613 
Warning[207]: Found label after column 1. (L_TWO)
0922                  02614         L_TWO
                      02615         
                      02616                         
0922   0874           02617                         MOVFW   BTCOUNT
0923   0782           02618                         ADDWF   PCL, F
                      02619 
0924   3405           02620                         DT      5
0925   34FF           02621                         DT      B'11111111';
0926   348F           02622                         DT      B'10001111'
0927   3477           02623                         DT      B'01110111'
0928   34F7           02624                         DT      B'11110111'
0929   348F           02625                         DT      B'10001111'
092A   347F           02626                         DT      B'01111111'
092B   3477           02627                         DT      B'01110111'
092C   3407           02628                         DT      B'00000111'
                      02629 
Warning[207]: Found label after column 1. (L_THREE)
092D                  02630         L_THREE
092D   0874           02631                         MOVFW   BTCOUNT
092E   0782           02632                         ADDWF   PCL, F
                      02633 
092F   3405           02634                         DT      5
0930   34FF           02635                         DT      B'11111111';
0931   348F           02636                         DT      B'10001111'
0932   3477           02637                         DT      B'01110111'
0933   34F7           02638                         DT      B'11110111'
0934   34CF           02639                         DT      B'11001111'
0935   34F7           02640                         DT      B'11110111'
0936   3477           02641                         DT      B'01110111'
MPASM  5.51              HUB12_FONTSCROLL.ASM   5-20-2019  14:19:30         PAGE 58


LOC  OBJECT CODE     LINE SOURCE TEXT
  VALUE

0937   348F           02642                         DT      B'10001111'
                      02643 
                      02644 
                      02645         
Warning[207]: Found label after column 1. (L_FOUR)
0938                  02646         L_FOUR
0938   0874           02647                         MOVFW   BTCOUNT
0939   0782           02648                         ADDWF   PCL, F
                      02649 
093A   3405           02650                         DT      5
093B   34FF           02651                         DT      B'11111111'
093C   34E7           02652                         DT      B'11100111'
093D   34D7           02653                         DT      B'11010111'
093E   34B7           02654                         DT      B'10110111'
093F   3407           02655                         DT      B'00000111'
0940   34F7           02656                         DT      B'11110111'
0941   34F7           02657                         DT      B'11110111'
0942   34F7           02658                         DT      B'11110111';
                      02659 
                      02660 
Warning[207]: Found label after column 1. (L_FIVE)
0943                  02661         L_FIVE
0943   0874           02662                         MOVFW   BTCOUNT
0944   0782           02663                         ADDWF   PCL, F
                      02664 
0945   3405           02665                         DT      5
0946   34FF           02666                         DT      B'11111111'
0947   3407           02667                         DT      B'00000111'
0948   3477           02668                         DT      B'01110111'
0949   347F           02669                         DT      B'01111111'
094A   340F           02670                         DT      B'00001111'
094B   34F7           02671                         DT      B'11110111'
094C   34F7           02672                         DT      B'11110111'
094D   340F           02673                         DT      B'00001111';
                      02674 
                      02675 
Warning[207]: Found label after column 1. (L_SIX)
094E                  02676         L_SIX
094E   0874           02677                         MOVFW   BTCOUNT
094F   0782           02678                         ADDWF   PCL, F
                      02679 
0950   3405           02680                         DT      5
0951   34FF           02681                         DT      B'11111111'
0952   3487           02682                         DT      B'10000111'
0953   347B           02683                         DT      B'01111011'
0954   347F           02684                         DT      B'01111111'
0955   3407           02685                         DT      B'00000111'
0956   347B           02686                         DT      B'01111011'
0957   347B           02687                         DT      B'01111011'
0958   3487           02688                         DT      B'10000111'
                      02689         
Warning[207]: Found label after column 1. (L_SEVEN)
0959                  02690         L_SEVEN
MPASM  5.51              HUB12_FONTSCROLL.ASM   5-20-2019  14:19:30         PAGE 59


LOC  OBJECT CODE     LINE SOURCE TEXT
  VALUE

0959   0874           02691                         MOVFW   BTCOUNT
095A   0782           02692                         ADDWF   PCL, F
                      02693 
095B   3405           02694                         DT      5
095C   34FF           02695                         DT      B'11111111'
095D   3407           02696                         DT      B'00000111'
095E   34F7           02697                         DT      B'11110111'
095F   34EF           02698                         DT      B'11101111'
0960   34DF           02699                         DT      B'11011111'
0961   34DF           02700                         DT      B'11011111'
0962   34DF           02701                         DT      B'11011111'
0963   34DF           02702                         DT      B'11011111'
                      02703                         
Warning[207]: Found label after column 1. (L_EIGHT)
0964                  02704         L_EIGHT
0964   0874           02705                         MOVFW   BTCOUNT
0965   0782           02706                         ADDWF   PCL, F
0966   3405           02707                         DT      5
0967   34FF           02708                         DT      B'11111111';
0968   348F           02709                         DT      B'10001111'
0969   3477           02710                         DT      B'01110111'
096A   3477           02711                         DT      B'01110111'
096B   348F           02712                         DT      B'10001111'
096C   3477           02713                         DT      B'01110111'
096D   3477           02714                         DT      B'01110111'
096E   348F           02715                         DT      B'10001111'
                      02716 
Warning[207]: Found label after column 1. (L_NINE)
096F                  02717         L_NINE
096F   0874           02718                         MOVFW   BTCOUNT
0970   0782           02719                         ADDWF   PCL, F
                      02720 
0971   3405           02721                         DT      5
0972   34FF           02722                         DT      B'11111111';
0973   348F           02723                         DT      B'10001111'     
0974   3477           02724                         DT      B'01110111'
0975   3477           02725                         DT      B'01110111'
0976   3487           02726                         DT      B'10000111'
0977   34F7           02727                         DT      B'11110111'
0978   3477           02728                         DT      B'01110111'
0979   348F           02729                         DT      B'10001111'
                      02730 
                      02731         
                      02732         
0A00                  02733         ORG     0XA00
                      02734         
0A00                  02735 T_CHAR
                      02736                 
0A00   0873           02737         MOVFW   NUMBER
0A01   0782           02738         ADDWF   PCL,F
                      02739         
0A02   2A0F           02740         GOTO    T_ZERO
                      02741         
MPASM  5.51              HUB12_FONTSCROLL.ASM   5-20-2019  14:19:30         PAGE 60


LOC  OBJECT CODE     LINE SOURCE TEXT
  VALUE

0A03   2A32           02742         GOTO    T_ONE
                      02743 
0A04   2A55           02744         GOTO    T_TWO
                      02745 
0A05   2A78           02746         GOTO    T_THREE
                      02747 
0A06   2A9B           02748         GOTO    T_FOUR
                      02749 
0A07   2ABE           02750         GOTO    T_FIVE
                      02751 
0A08   2A0C           02752         GOTO    NEXTPAGE
                      02753 
0A09   2A0C           02754         GOTO    NEXTPAGE
                      02755 
0A0A   2A0C           02756         GOTO    NEXTPAGE
                      02757 
0A0B   2A0C           02758         GOTO    NEXTPAGE
                      02759 
0A0C                  02760 NEXTPAGE
0A0C   300B           02761         MOVLW   0XB
0A0D   008A           02762         MOVWF   PCLATH
0A0E   2B00           02763         GOTO    T_CHARB
                      02764 
                      02765 
Warning[207]: Found label after column 1. (T_ZERO)
0A0F                  02766         T_ZERO
0A0F   0874           02767                         MOVFW   BTCOUNT
Message[305]: Using default destination of 1 (file).
0A10   0782           02768                         ADDWF   PCL
                      02769 
0A11   340C           02770                         DT      .12
0A12   34C0 34FF      02771                         DT      B'11000000',B'11111111'
0A14   3480 347F      02772                         DT      B'10000000',B'01111111'
0A16   341E 343F      02773                         DT      B'00011110',B'00111111'
0A18   343F 343F      02774                         DT      B'00111111',B'00111111'
0A1A   343F 343F      02775                         DT      B'00111111',B'00111111'
0A1C   343F 343F      02776                         DT      B'00111111',B'00111111'
0A1E   343F 343F      02777                         DT      B'00111111',B'00111111'
0A20   343F 343F      02778                         DT      B'00111111',B'00111111';
0A22   343F 343F      02779                         DT      B'00111111',B'00111111';
0A24   343F 343F      02780                         DT      B'00111111',B'00111111'
0A26   343F 343F      02781                         DT      B'00111111',B'00111111'
0A28   343F 343F      02782                         DT      B'00111111',B'00111111'
0A2A   343F 343F      02783                         DT      B'00111111',B'00111111'
0A2C   341E 343F      02784                         DT      B'00011110',B'00111111'
0A2E   3480 347F      02785                         DT      B'10000000',B'01111111'
0A30   34C0 34FF      02786                         DT      B'11000000',B'11111111'
                      02787 
Warning[207]: Found label after column 1. (T_ONE)
0A32                  02788         T_ONE
0A32   0874           02789                         MOVFW   BTCOUNT
Message[305]: Using default destination of 1 (file).
0A33   0782           02790                         ADDWF   PCL
MPASM  5.51              HUB12_FONTSCROLL.ASM   5-20-2019  14:19:30         PAGE 61


LOC  OBJECT CODE     LINE SOURCE TEXT
  VALUE

                      02791 
0A34   340C           02792                         DT      .12
0A35   34CF 34FF      02793                         DT      B'11001111',B'11111111'
0A37   34CF 34FF      02794                         DT      B'11001111',B'11111111'
0A39   348F 34FF      02795                         DT      B'10001111',B'11111111'
0A3B   340F 34FF      02796                         DT      B'00001111',B'11111111'
0A3D   344F 34FF      02797                         DT      B'01001111',B'11111111'
0A3F   34CF 34FF      02798                         DT      B'11001111',B'11111111'
0A41   34CF 34FF      02799                         DT      B'11001111',B'11111111'
0A43   34CF 34FF      02800                         DT      B'11001111',B'11111111';
0A45   34CF 34FF      02801                         DT      B'11001111',B'11111111';
0A47   34CF 34FF      02802                         DT      B'11001111',B'11111111'
0A49   34CF 34FF      02803                         DT      B'11001111',B'11111111'
0A4B   34CF 34FF      02804                         DT      B'11001111',B'11111111'
0A4D   34CF 34FF      02805                         DT      B'11001111',B'11111111'
0A4F   34CF 34FF      02806                         DT      B'11001111',B'11111111'
0A51   3403 34FF      02807                         DT      B'00000011',B'11111111'
0A53   3403 34FF      02808                         DT      B'00000011',B'11111111' 
                      02809 
Warning[207]: Found label after column 1. (T_TWO)
0A55                  02810         T_TWO
0A55   0874           02811                         MOVFW   BTCOUNT
0A56   0782           02812                         ADDWF   PCL,F
                      02813                         
0A57   340C           02814                         DT      .12
0A58   34C0 34FF      02815                         DT      B'11000000',B'11111111'
0A5A   3480 347F      02816                         DT      B'10000000',B'01111111'
0A5C   343E 343F      02817                         DT      B'00111110',B'00111111'
0A5E   34FF 343F      02818                         DT      B'11111111',B'00111111'
0A60   34FF 343F      02819                         DT      B'11111111',B'00111111'
0A62   34FF 343F      02820                         DT      B'11111111',B'00111111'
0A64   34FF 343F      02821                         DT      B'11111111',B'00111111'
0A66   34FE 343F      02822                         DT      B'11111110',B'00111111'
0A68   34C0 347F      02823                         DT      B'11000000',B'01111111'
0A6A   3480 34FF      02824                         DT      B'10000000',B'11111111'
0A6C   343F 34FF      02825                         DT      B'00111111',B'11111111'
0A6E   343F 34FF      02826                         DT      B'00111111',B'11111111'
0A70   343F 34FF      02827                         DT      B'00111111',B'11111111'
0A72   343F 343F      02828                         DT      B'00111111',B'00111111'
0A74   3400 343F      02829                         DT      B'00000000',B'00111111'
0A76   3400 343F      02830                         DT      B'00000000',B'00111111'
                      02831         
Warning[207]: Found label after column 1. (T_THREE)
0A78                  02832         T_THREE
0A78   0874           02833                         MOVFW   BTCOUNT
Message[305]: Using default destination of 1 (file).
0A79   0782           02834                         ADDWF   PCL
                      02835 
0A7A   340C           02836                         DT      .12
0A7B   34C0 34FF      02837                         DT      B'11000000',B'11111111'
0A7D   3480 347F      02838                         DT      B'10000000',B'01111111'
0A7F   341E 343F      02839                         DT      B'00011110',B'00111111'
0A81   343F 343F      02840                         DT      B'00111111',B'00111111'
MPASM  5.51              HUB12_FONTSCROLL.ASM   5-20-2019  14:19:30         PAGE 62


LOC  OBJECT CODE     LINE SOURCE TEXT
  VALUE

0A83   34FF 343F      02841                         DT      B'11111111',B'00111111'
0A85   34FF 343F      02842                         DT      B'11111111',B'00111111'
0A87   34FE 343F      02843                         DT      B'11111110',B'00111111'
0A89   34E0 347F      02844                         DT      B'11100000',B'01111111';
0A8B   34E0 347F      02845                         DT      B'11100000',B'01111111';
0A8D   34FE 343F      02846                         DT      B'11111110',B'00111111'
0A8F   34FF 343F      02847                         DT      B'11111111',B'00111111'
0A91   34FF 343F      02848                         DT      B'11111111',B'00111111'
0A93   343F 343F      02849                         DT      B'00111111',B'00111111'
0A95   341E 343F      02850                         DT      B'00011110',B'00111111'
0A97   3480 347F      02851                         DT      B'10000000',B'01111111'
0A99   34C0 34FF      02852                         DT      B'11000000',B'11111111'
                      02853         
Warning[207]: Found label after column 1. (T_FOUR)
0A9B                  02854         T_FOUR
0A9B   0874           02855                         MOVFW   BTCOUNT
Message[305]: Using default destination of 1 (file).
0A9C   0782           02856                         ADDWF   PCL
                      02857 
0A9D   340C           02858                         DT      .12
0A9E   34FF 34BF      02859                         DT      B'11111111',B'10111111'
0AA0   34F9 343F      02860                         DT      B'11111001',B'00111111'
0AA2   34F9 343F      02861                         DT      B'11111001',B'00111111'
0AA4   34F9 343F      02862                         DT      B'11111001',B'00111111'
0AA6   34F3 343F      02863                         DT      B'11110011',B'00111111'
0AA8   34E7 343F      02864                         DT      B'11100111',B'00111111'
0AAA   34CF 343F      02865                         DT      B'11001111',B'00111111'
0AAC   349F 343F      02866                         DT      B'10011111',B'00111111';
0AAE   343F 343F      02867                         DT      B'00111111',B'00111111';
0AB0   343F 343F      02868                         DT      B'00111111',B'00111111'
0AB2   3400 343F      02869                         DT      B'00000000',B'00111111'
0AB4   3400 343F      02870                         DT      B'00000000',B'00111111'
0AB6   34FF 343F      02871                         DT      B'11111111',B'00111111'
0AB8   34FF 343F      02872                         DT      B'11111111',B'00111111'
0ABA   34FF 343F      02873                         DT      B'11111111',B'00111111'
0ABC   34FF 347F      02874                         DT      B'11111111',B'01111111' 
                      02875 
Warning[207]: Found label after column 1. (T_FIVE)
0ABE                  02876         T_FIVE
0ABE   0874           02877                         MOVFW   BTCOUNT
Message[305]: Using default destination of 1 (file).
0ABF   0782           02878                         ADDWF   PCL
                      02879 
0AC0   340C           02880                         DT      .12
0AC1   3400 343F      02881                         DT      B'00000000',B'00111111'
0AC3   3400 343F      02882                         DT      B'00000000',B'00111111'
0AC5   343F 343F      02883                         DT      B'00111111',B'00111111'
0AC7   343F 347F      02884                         DT      B'00111111',B'01111111'
0AC9   343F 34FF      02885                         DT      B'00111111',B'11111111'
0ACB   343F 34FF      02886                         DT      B'00111111',B'11111111'
0ACD   343F 34FF      02887                         DT      B'00111111',B'11111111'
0ACF   3400 34FF      02888                         DT      B'00000000',B'11111111';
0AD1   3400 347F      02889                         DT      B'00000000',B'01111111';
MPASM  5.51              HUB12_FONTSCROLL.ASM   5-20-2019  14:19:30         PAGE 63


LOC  OBJECT CODE     LINE SOURCE TEXT
  VALUE

0AD3   34FE 343F      02890                         DT      B'11111110',B'00111111'
0AD5   34FF 343F      02891                         DT      B'11111111',B'00111111'
0AD7   34FF 343F      02892                         DT      B'11111111',B'00111111'
0AD9   343F 343F      02893                         DT      B'00111111',B'00111111'
0ADB   341E 343F      02894                         DT      B'00011110',B'00111111'
0ADD   3480 347F      02895                         DT      B'10000000',B'01111111'
0ADF   34C0 34FF      02896                         DT      B'11000000',B'11111111'
                      02897         
                      02898 
Warning[205]: Found directive in column 1. (ORG)
0B00                  02899 ORG     0XB00
                      02900 
Warning[207]: Found label after column 1. (T_CHARB)
0B00                  02901         T_CHARB
                      02902 
0B00   0873           02903                         MOVFW   NUMBER
0B01   0782           02904                         ADDWF   PCL,F
                      02905 
0B02   0008           02906                                 RETURN  
                      02907 
0B03   0008           02908                                 RETURN
                      02909 
0B04   0008           02910                                 RETURN
                      02911 
0B05   0008           02912                                 RETURN
                      02913 
0B06   0008           02914                                 RETURN
                      02915 
0B07   0008           02916                                 RETURN
                      02917                                 
0B08   2B0C           02918                                 GOTO    T_SIX
                      02919         
0B09   2B2F           02920                                 GOTO    T_SEVEN
                      02921                 
0B0A   2B52           02922                                 GOTO    T_EIGHT
                      02923                 
0B0B   2B75           02924                                 GOTO    T_NINE
                      02925 
                      02926 
                      02927                         
Warning[207]: Found label after column 1. (T_SIX)
0B0C                  02928         T_SIX
0B0C   0874           02929                         MOVFW   BTCOUNT
Message[305]: Using default destination of 1 (file).
0B0D   0782           02930                         ADDWF   PCL
                      02931 
0B0E   340C           02932                         DT      .12
0B0F   34C0 347F      02933                         DT      B'11000000',B'01111111'
0B11   3480 343F      02934                         DT      B'10000000',B'00111111'
0B13   341E 343F      02935                         DT      B'00011110',B'00111111'
0B15   343F 343F      02936                         DT      B'00111111',B'00111111'
0B17   343F 34FF      02937                         DT      B'00111111',B'11111111'
0B19   343F 34FF      02938                         DT      B'00111111',B'11111111'
MPASM  5.51              HUB12_FONTSCROLL.ASM   5-20-2019  14:19:30         PAGE 64


LOC  OBJECT CODE     LINE SOURCE TEXT
  VALUE

0B1B   341F 34FF      02939                         DT      B'00011111',B'11111111'
0B1D   3400 34FF      02940                         DT      B'00000000',B'11111111';
0B1F   3400 347F      02941                         DT      B'00000000',B'01111111';
0B21   341E 343F      02942                         DT      B'00011110',B'00111111'
0B23   343F 343F      02943                         DT      B'00111111',B'00111111'
0B25   343F 343F      02944                         DT      B'00111111',B'00111111'
0B27   343F 343F      02945                         DT      B'00111111',B'00111111'
0B29   341E 343F      02946                         DT      B'00011110',B'00111111'
0B2B   3480 347F      02947                         DT      B'10000000',B'01111111'
0B2D   34C0 34FF      02948                         DT      B'11000000',B'11111111'
                      02949         
                      02950                         
Warning[207]: Found label after column 1. (T_SEVEN)
0B2F                  02951         T_SEVEN
0B2F   0874           02952                         MOVFW   BTCOUNT
Message[305]: Using default destination of 1 (file).
0B30   0782           02953                         ADDWF   PCL
                      02954 
0B31   340C           02955                         DT      .12
0B32   3400 343F      02956                         DT      B'00000000',B'00111111'
0B34   3400 343F      02957                         DT      B'00000000',B'00111111'
0B36   343F 343F      02958                         DT      B'00111111',B'00111111'
0B38   343F 343F      02959                         DT      B'00111111',B'00111111'
0B3A   34FF 343F      02960                         DT      B'11111111',B'00111111'
0B3C   34FF 343F      02961                         DT      B'11111111',B'00111111'
0B3E   34FE 343F      02962                         DT      B'11111110',B'00111111'
0B40   34FC 347F      02963                         DT      B'11111100',B'01111111';
0B42   34F8 34FF      02964                         DT      B'11111000',B'11111111';
0B44   34F1 34FF      02965                         DT      B'11110001',B'11111111'
0B46   34E3 34FF      02966                         DT      B'11100011',B'11111111'
0B48   34E7 34FF      02967                         DT      B'11100111',B'11111111'
0B4A   34E7 34FF      02968                         DT      B'11100111',B'11111111'
0B4C   34E7 34FF      02969                         DT      B'11100111',B'11111111'
0B4E   34E7 34FF      02970                         DT      B'11100111',B'11111111'
0B50   34E7 34FF      02971                         DT      B'11100111',B'11111111' 
                      02972         
Warning[207]: Found label after column 1. (T_EIGHT)
0B52                  02973         T_EIGHT
0B52   0874           02974                         MOVFW   BTCOUNT
Message[305]: Using default destination of 1 (file).
0B53   0782           02975                         ADDWF   PCL
                      02976 
0B54   340C           02977                         DT      .12
0B55   34C0 34FF      02978                         DT      B'11000000',B'11111111'
0B57   3480 347F      02979                         DT      B'10000000',B'01111111'
0B59   341E 343F      02980                         DT      B'00011110',B'00111111'
0B5B   343F 343F      02981                         DT      B'00111111',B'00111111'
0B5D   343F 343F      02982                         DT      B'00111111',B'00111111'
0B5F   341E 343F      02983                         DT      B'00011110',B'00111111'
0B61   3480 347F      02984                         DT      B'10000000',B'01111111'
0B63   3480 347F      02985                         DT      B'10000000',B'01111111';
0B65   341E 343F      02986                         DT      B'00011110',B'00111111';
0B67   343F 343F      02987                         DT      B'00111111',B'00111111'
MPASM  5.51              HUB12_FONTSCROLL.ASM   5-20-2019  14:19:30         PAGE 65


LOC  OBJECT CODE     LINE SOURCE TEXT
  VALUE

0B69   343F 343F      02988                         DT      B'00111111',B'00111111'
0B6B   343F 343F      02989                         DT      B'00111111',B'00111111'
0B6D   343F 343F      02990                         DT      B'00111111',B'00111111'
0B6F   341E 343F      02991                         DT      B'00011110',B'00111111'
0B71   3480 347F      02992                         DT      B'10000000',B'01111111'
0B73   34C0 34FF      02993                         DT      B'11000000',B'11111111' 
                      02994 
Warning[207]: Found label after column 1. (T_NINE)
0B75                  02995         T_NINE
0B75   0874           02996                         MOVFW   BTCOUNT
Message[305]: Using default destination of 1 (file).
0B76   0782           02997                         ADDWF   PCL
                      02998 
0B77   340C           02999                         DT      .12
0B78   34C0 34FF      03000                         DT      B'11000000',B'11111111'
0B7A   3480 347F      03001                         DT      B'10000000',B'01111111'
0B7C   341E 343F      03002                         DT      B'00011110',B'00111111'
0B7E   343F 343F      03003                         DT      B'00111111',B'00111111'
0B80   343F 343F      03004                         DT      B'00111111',B'00111111'
0B82   343F 343F      03005                         DT      B'00111111',B'00111111'
0B84   341E 343F      03006                         DT      B'00011110',B'00111111'
0B86   3480 343F      03007                         DT      B'10000000',B'00111111';
0B88   34C0 343F      03008                         DT      B'11000000',B'00111111';
0B8A   34FE 343F      03009                         DT      B'11111110',B'00111111'
0B8C   34FF 343F      03010                         DT      B'11111111',B'00111111'
0B8E   34FF 343F      03011                         DT      B'11111111',B'00111111'
0B90   343F 343F      03012                         DT      B'00111111',B'00111111'
0B92   341E 343F      03013                         DT      B'00011110',B'00111111'
0B94   3480 347F      03014                         DT      B'10000000',B'01111111'
0B96   34C0 34FF      03015                         DT      B'11000000',B'11111111'
                      03016 
Warning[205]: Found directive in column 1. (ORG)
0D00                  03017 ORG             0XD00
                      03018 
0D00                  03019 CMD_CLR_IRAM
0D00   1683 1303      03020         BANK1
0D02   3040           03021         MOVLW           .64
Message[302]: Register in operand not in bank 0.  Ensure that bank bits are correct.
0D03   00E0           03022         MOVWF           IPOINTER
0D04   30A0           03023         MOVLW           IRAM
0D05   0084           03024         MOVWF           FSR
                      03025 
0D06                  03026 IRM0
0D06   30FF           03027         MOVLW           0XFF
0D07   0080           03028         MOVWF           INDF
0D08   3000           03029         MOVLW           INDF
                      03030         
0D09   0A84           03031         INCF            FSR, F
Message[302]: Register in operand not in bank 0.  Ensure that bank bits are correct.
0D0A   0BE0           03032         DECFSZ          IPOINTER, F
0D0B   2D06           03033         GOTO            IRM0
                      03034          
0D0C   0008           03035         RETURN
MPASM  5.51              HUB12_FONTSCROLL.ASM   5-20-2019  14:19:30         PAGE 66


LOC  OBJECT CODE     LINE SOURCE TEXT
  VALUE

                      03036 
                      03037 
                      03038 
                      03039 ;###################  DUMPING OF DATA IN IRAM ################
                      03040 
0D0D                  03041 IDUMP
0D0D   3000           03042         MOVLW   .0
0D0E   00F4           03043         MOVWF   BTCOUNT
                      03044                 
0D0F   082B           03045         MOVFW   FONT
0D10   0782           03046         ADDWF   PCL,F
                      03047 
0D11   2D14           03048         GOTO    IFONT_0
                      03049         
0D12   2D50           03050         GOTO    IFONT_1
                      03051         
0D13   2D74           03052         GOTO    IFONT_2
                      03053 
                      03054 
                      03055 
0D14                  03056 IFONT_0
0D14   1683 1303      03057         BANK1
0D16   3008           03058         MOVLW   .8
0D17   008A           03059         MOVWF   PCLATH
                      03060 
0D18   2000           03061         CALL    CHAR
Message[302]: Register in operand not in bank 0.  Ensure that bank bits are correct.
0D19   00E1           03062         MOVWF   IWIDTH
Message[305]: Using default destination of 1 (file).
0D1A   0AF4           03063         INCF    BTCOUNT
                      03064 
                      03065 
0D1B   2000           03066         CALL    CHAR
Message[302]: Register in operand not in bank 0.  Ensure that bank bits are correct.
0D1C   00D3           03067         MOVWF   IRAM+33
Message[305]: Using default destination of 1 (file).
0D1D   0AF4           03068         INCF    BTCOUNT
                      03069 
                      03070         
0D1E   2000           03071         CALL    CHAR
Message[302]: Register in operand not in bank 0.  Ensure that bank bits are correct.
0D1F   00C3           03072         MOVWF   IRAM+23
Message[305]: Using default destination of 1 (file).
0D20   0AF4           03073         INCF    BTCOUNT
                      03074 
0D21   2000           03075         CALL    CHAR
Message[302]: Register in operand not in bank 0.  Ensure that bank bits are correct.
0D22   00B3           03076         MOVWF   IRAM+13
Message[305]: Using default destination of 1 (file).
0D23   0AF4           03077         INCF    BTCOUNT
                      03078 
0D24   2000           03079         CALL    CHAR
Message[302]: Register in operand not in bank 0.  Ensure that bank bits are correct.
MPASM  5.51              HUB12_FONTSCROLL.ASM   5-20-2019  14:19:30         PAGE 67


LOC  OBJECT CODE     LINE SOURCE TEXT
  VALUE

0D25   00A3           03080         MOVWF   IRAM+03
Message[305]: Using default destination of 1 (file).
0D26   0AF4           03081         INCF    BTCOUNT
                      03082 
0D27   2000           03083         CALL    CHAR
Message[302]: Register in operand not in bank 0.  Ensure that bank bits are correct.
0D28   00D2           03084         MOVWF   IRAM+32
Message[305]: Using default destination of 1 (file).
0D29   0AF4           03085         INCF    BTCOUNT
                      03086 
0D2A   2000           03087         CALL    CHAR
Message[302]: Register in operand not in bank 0.  Ensure that bank bits are correct.
0D2B   00C2           03088         MOVWF   IRAM+22
Message[305]: Using default destination of 1 (file).
0D2C   0AF4           03089         INCF    BTCOUNT
                      03090 
0D2D   2000           03091         CALL    CHAR
Message[302]: Register in operand not in bank 0.  Ensure that bank bits are correct.
0D2E   00B2           03092         MOVWF   IRAM+12
Message[305]: Using default destination of 1 (file).
0D2F   0AF4           03093         INCF    BTCOUNT
                      03094 
0D30   2000           03095         CALL    CHAR
Message[302]: Register in operand not in bank 0.  Ensure that bank bits are correct.
0D31   00A2           03096         MOVWF   IRAM+02
Message[305]: Using default destination of 1 (file).
0D32   0AF4           03097         INCF    BTCOUNT
                      03098 
0D33   2000           03099         CALL    CHAR
Message[302]: Register in operand not in bank 0.  Ensure that bank bits are correct.
0D34   00D1           03100         MOVWF   IRAM+31
Message[305]: Using default destination of 1 (file).
0D35   0AF4           03101         INCF    BTCOUNT
                      03102 
0D36   2000           03103         CALL    CHAR
Message[302]: Register in operand not in bank 0.  Ensure that bank bits are correct.
0D37   00C1           03104         MOVWF   IRAM+21
Message[305]: Using default destination of 1 (file).
0D38   0AF4           03105         INCF    BTCOUNT
                      03106 
0D39   2000           03107         CALL    CHAR
Message[302]: Register in operand not in bank 0.  Ensure that bank bits are correct.
0D3A   00B1           03108         MOVWF   IRAM+11
Message[305]: Using default destination of 1 (file).
0D3B   0AF4           03109         INCF    BTCOUNT
                      03110 
0D3C   2000           03111         CALL    CHAR
Message[302]: Register in operand not in bank 0.  Ensure that bank bits are correct.
0D3D   00A1           03112         MOVWF   IRAM+01
Message[305]: Using default destination of 1 (file).
0D3E   0AF4           03113         INCF    BTCOUNT
                      03114 
0D3F   2000           03115         CALL    CHAR
MPASM  5.51              HUB12_FONTSCROLL.ASM   5-20-2019  14:19:30         PAGE 68


LOC  OBJECT CODE     LINE SOURCE TEXT
  VALUE

Message[302]: Register in operand not in bank 0.  Ensure that bank bits are correct.
0D40   00D0           03116         MOVWF   IRAM+30
Message[305]: Using default destination of 1 (file).
0D41   0AF4           03117         INCF    BTCOUNT
                      03118 
0D42   2000           03119         CALL    CHAR
Message[302]: Register in operand not in bank 0.  Ensure that bank bits are correct.
0D43   00C0           03120         MOVWF   IRAM+20
Message[305]: Using default destination of 1 (file).
0D44   0AF4           03121         INCF    BTCOUNT
                      03122 
0D45   2000           03123         CALL    CHAR
Message[302]: Register in operand not in bank 0.  Ensure that bank bits are correct.
0D46   00B0           03124         MOVWF   IRAM+10
Message[305]: Using default destination of 1 (file).
0D47   0AF4           03125         INCF    BTCOUNT
                      03126 
0D48   2000           03127         CALL    CHAR
Message[302]: Register in operand not in bank 0.  Ensure that bank bits are correct.
0D49   00A0           03128         MOVWF   IRAM+00
Message[305]: Using default destination of 1 (file).
0D4A   0AF4           03129         INCF    BTCOUNT
                      03130 
0D4B   3000           03131         MOVLW   .0                      ;BACK TO PAGE1
0D4C   008A           03132         MOVWF   PCLATH
0D4D   1283 1303      03133         BANK0
Warning[203]: Found opcode in column 1. (RETURN)
0D4F   0008           03134 RETURN
                      03135 
0D50                  03136 IFONT_1
0D50   1683 1303      03137         BANK1
0D52   3009           03138         MOVLW   .9
0D53   008A           03139         MOVWF   PCLATH
                      03140 
0D54   2100           03141         CALL    L_CHAR
Message[302]: Register in operand not in bank 0.  Ensure that bank bits are correct.
0D55   00E1           03142         MOVWF   IWIDTH
Message[305]: Using default destination of 1 (file).
0D56   0AF4           03143         INCF    BTCOUNT
                      03144 
0D57   2100           03145         CALL    L_CHAR
Message[302]: Register in operand not in bank 0.  Ensure that bank bits are correct.
0D58   00D1           03146         MOVWF   IRAM+31
Message[305]: Using default destination of 1 (file).
0D59   0AF4           03147         INCF    BTCOUNT
                      03148 
0D5A   2100           03149         CALL    L_CHAR
Message[302]: Register in operand not in bank 0.  Ensure that bank bits are correct.
0D5B   00C1           03150         MOVWF   IRAM+21
Message[305]: Using default destination of 1 (file).
0D5C   0AF4           03151         INCF    BTCOUNT
                      03152 
0D5D   2100           03153         CALL    L_CHAR
MPASM  5.51              HUB12_FONTSCROLL.ASM   5-20-2019  14:19:30         PAGE 69


LOC  OBJECT CODE     LINE SOURCE TEXT
  VALUE

Message[302]: Register in operand not in bank 0.  Ensure that bank bits are correct.
0D5E   00B1           03154         MOVWF   IRAM+11
Message[305]: Using default destination of 1 (file).
0D5F   0AF4           03155         INCF    BTCOUNT
                      03156 
0D60   2100           03157         CALL    L_CHAR
Message[302]: Register in operand not in bank 0.  Ensure that bank bits are correct.
0D61   00A1           03158         MOVWF   IRAM+01
Message[305]: Using default destination of 1 (file).
0D62   0AF4           03159         INCF    BTCOUNT
                      03160 
0D63   2100           03161         CALL    L_CHAR
Message[302]: Register in operand not in bank 0.  Ensure that bank bits are correct.
0D64   00D0           03162         MOVWF   IRAM+30
Message[305]: Using default destination of 1 (file).
0D65   0AF4           03163         INCF    BTCOUNT
                      03164 
0D66   2100           03165         CALL    L_CHAR
Message[302]: Register in operand not in bank 0.  Ensure that bank bits are correct.
0D67   00C0           03166         MOVWF   IRAM+20
Message[305]: Using default destination of 1 (file).
0D68   0AF4           03167         INCF    BTCOUNT
                      03168 
0D69   2100           03169         CALL    L_CHAR
Message[302]: Register in operand not in bank 0.  Ensure that bank bits are correct.
0D6A   00B0           03170         MOVWF   IRAM+10
Message[305]: Using default destination of 1 (file).
0D6B   0AF4           03171         INCF    BTCOUNT
                      03172 
0D6C   2100           03173         CALL    L_CHAR
Message[302]: Register in operand not in bank 0.  Ensure that bank bits are correct.
0D6D   00A0           03174         MOVWF   IRAM+00
Message[305]: Using default destination of 1 (file).
0D6E   0AF4           03175         INCF    BTCOUNT
                      03176 
0D6F   3000           03177         MOVLW   .0                      ;BACK TO PAGE1
0D70   008A           03178         MOVWF   PCLATH
0D71   1283 1303      03179         BANK0
0D73   0008           03180         RETURN
                      03181 
0D74                  03182 IFONT_2
0D74   300A           03183         MOVLW   0XA
0D75   008A           03184         MOVWF   PCLATH
                      03185 
                      03186 
0D76   2200           03187         CALL    T_CHAR
0D77   1683 1303      03188         BANK1
Message[302]: Register in operand not in bank 0.  Ensure that bank bits are correct.
0D79   00E1           03189         MOVWF   IWIDTH
0D7A   1283 1303      03190         BANK0
Message[305]: Using default destination of 1 (file).
0D7C   0AF4           03191         INCF    BTCOUNT
                      03192 
MPASM  5.51              HUB12_FONTSCROLL.ASM   5-20-2019  14:19:30         PAGE 70


LOC  OBJECT CODE     LINE SOURCE TEXT
  VALUE

                      03193 
0D7D   2200           03194         CALL    T_CHAR
0D7E   1683 1303      03195         BANK1
Message[302]: Register in operand not in bank 0.  Ensure that bank bits are correct.
0D80   00D3           03196         MOVWF   IRAM+33
0D81   1283 1303      03197         BANK0
Message[305]: Using default destination of 1 (file).
0D83   0AF4           03198         INCF    BTCOUNT
                      03199 
                      03200 
0D84   2200           03201         CALL    T_CHAR
0D85   1683 1303      03202         BANK1
Message[302]: Register in operand not in bank 0.  Ensure that bank bits are correct.
0D87   00D7           03203         MOVWF   IRAM+37
0D88   1283 1303      03204         BANK0
Message[305]: Using default destination of 1 (file).
0D8A   0AF4           03205         INCF    BTCOUNT
                      03206         
                      03207 
0D8B   2200           03208         CALL    T_CHAR
0D8C   1683 1303      03209         BANK1
Message[302]: Register in operand not in bank 0.  Ensure that bank bits are correct.
0D8E   00C3           03210         MOVWF   IRAM+23
0D8F   1283 1303      03211         BANK0
Message[305]: Using default destination of 1 (file).
0D91   0AF4           03212         INCF    BTCOUNT
                      03213         
                      03214 
0D92   2200           03215         CALL    T_CHAR
0D93   1683 1303      03216         BANK1
Message[302]: Register in operand not in bank 0.  Ensure that bank bits are correct.
0D95   00C7           03217         MOVWF   IRAM+27
0D96   1283 1303      03218         BANK0
Message[305]: Using default destination of 1 (file).
0D98   0AF4           03219         INCF    BTCOUNT
                      03220 
                      03221 
0D99   2200           03222         CALL    T_CHAR
0D9A   1683 1303      03223         BANK1
Message[302]: Register in operand not in bank 0.  Ensure that bank bits are correct.
0D9C   00B3           03224         MOVWF   IRAM+13
0D9D   1283 1303      03225         BANK0
Message[305]: Using default destination of 1 (file).
0D9F   0AF4           03226         INCF    BTCOUNT
                      03227         
                      03228 
0DA0   2200           03229         CALL    T_CHAR
0DA1   1683 1303      03230         BANK1
Message[302]: Register in operand not in bank 0.  Ensure that bank bits are correct.
0DA3   00B7           03231         MOVWF   IRAM+17
0DA4   1283 1303      03232         BANK0
Message[305]: Using default destination of 1 (file).
0DA6   0AF4           03233         INCF    BTCOUNT
MPASM  5.51              HUB12_FONTSCROLL.ASM   5-20-2019  14:19:30         PAGE 71


LOC  OBJECT CODE     LINE SOURCE TEXT
  VALUE

                      03234 
                      03235 
0DA7   2200           03236         CALL    T_CHAR
0DA8   1683 1303      03237         BANK1
Message[302]: Register in operand not in bank 0.  Ensure that bank bits are correct.
0DAA   00A3           03238         MOVWF   IRAM+03
0DAB   1283 1303      03239         BANK0
Message[305]: Using default destination of 1 (file).
0DAD   0AF4           03240         INCF    BTCOUNT
                      03241 
                      03242 
0DAE   2200           03243         CALL    T_CHAR
0DAF   1683 1303      03244         BANK1
Message[302]: Register in operand not in bank 0.  Ensure that bank bits are correct.
0DB1   00A7           03245         MOVWF   IRAM+07
0DB2   1283 1303      03246         BANK0
Message[305]: Using default destination of 1 (file).
0DB4   0AF4           03247         INCF    BTCOUNT
                      03248 
                      03249 
0DB5   2200           03250         CALL    T_CHAR
0DB6   1683 1303      03251         BANK1
Message[302]: Register in operand not in bank 0.  Ensure that bank bits are correct.
0DB8   00D2           03252         MOVWF   IRAM+32
0DB9   1283 1303      03253         BANK0
Message[305]: Using default destination of 1 (file).
0DBB   0AF4           03254         INCF    BTCOUNT
                      03255 
                      03256 
0DBC   2200           03257         CALL    T_CHAR
0DBD   1683 1303      03258         BANK1
Message[302]: Register in operand not in bank 0.  Ensure that bank bits are correct.
0DBF   00D6           03259         MOVWF   IRAM+36
0DC0   1283 1303      03260         BANK0
Message[305]: Using default destination of 1 (file).
0DC2   0AF4           03261         INCF    BTCOUNT
                      03262 
                      03263 
0DC3   2200           03264         CALL    T_CHAR
0DC4   1683 1303      03265         BANK1
Message[302]: Register in operand not in bank 0.  Ensure that bank bits are correct.
0DC6   00C2           03266         MOVWF   IRAM+22
0DC7   1283 1303      03267         BANK0
Message[305]: Using default destination of 1 (file).
0DC9   0AF4           03268         INCF    BTCOUNT
                      03269 
                      03270 
0DCA   2200           03271         CALL    T_CHAR
0DCB   1683 1303      03272         BANK1
Message[302]: Register in operand not in bank 0.  Ensure that bank bits are correct.
0DCD   00C6           03273         MOVWF   IRAM+26
0DCE   1283 1303      03274         BANK0
Message[305]: Using default destination of 1 (file).
MPASM  5.51              HUB12_FONTSCROLL.ASM   5-20-2019  14:19:30         PAGE 72


LOC  OBJECT CODE     LINE SOURCE TEXT
  VALUE

0DD0   0AF4           03275         INCF    BTCOUNT
                      03276 
                      03277 
0DD1   2200           03278         CALL    T_CHAR
0DD2   1683 1303      03279         BANK1
Message[302]: Register in operand not in bank 0.  Ensure that bank bits are correct.
0DD4   00B2           03280         MOVWF   IRAM+12
0DD5   1283 1303      03281         BANK0
Message[305]: Using default destination of 1 (file).
0DD7   0AF4           03282         INCF    BTCOUNT
                      03283 
                      03284 
0DD8   2200           03285         CALL    T_CHAR
0DD9   1683 1303      03286         BANK1
Message[302]: Register in operand not in bank 0.  Ensure that bank bits are correct.
0DDB   00B6           03287         MOVWF   IRAM+16
0DDC   1283 1303      03288         BANK0
Message[305]: Using default destination of 1 (file).
0DDE   0AF4           03289         INCF    BTCOUNT
                      03290 
                      03291 
0DDF   2200           03292         CALL    T_CHAR
0DE0   1683 1303      03293         BANK1
Message[302]: Register in operand not in bank 0.  Ensure that bank bits are correct.
0DE2   00A2           03294         MOVWF   IRAM+02
0DE3   1283 1303      03295         BANK0
Message[305]: Using default destination of 1 (file).
0DE5   0AF4           03296         INCF    BTCOUNT
                      03297 
                      03298 
0DE6   2200           03299         CALL    T_CHAR
0DE7   1683 1303      03300         BANK1
Message[302]: Register in operand not in bank 0.  Ensure that bank bits are correct.
0DE9   00A6           03301         MOVWF   IRAM+06
0DEA   1283 1303      03302         BANK0
Message[305]: Using default destination of 1 (file).
0DEC   0AF4           03303         INCF    BTCOUNT
                      03304 
                      03305 
0DED   2200           03306         CALL    T_CHAR
0DEE   1683 1303      03307         BANK1
Message[302]: Register in operand not in bank 0.  Ensure that bank bits are correct.
0DF0   00D1           03308         MOVWF   IRAM+31
0DF1   1283 1303      03309         BANK0
Message[305]: Using default destination of 1 (file).
0DF3   0AF4           03310         INCF    BTCOUNT
                      03311 
                      03312 
0DF4   2200           03313         CALL    T_CHAR
0DF5   1683 1303      03314         BANK1
Message[302]: Register in operand not in bank 0.  Ensure that bank bits are correct.
0DF7   00D5           03315         MOVWF   IRAM+35
0DF8   1283 1303      03316         BANK0
MPASM  5.51              HUB12_FONTSCROLL.ASM   5-20-2019  14:19:30         PAGE 73


LOC  OBJECT CODE     LINE SOURCE TEXT
  VALUE

Message[305]: Using default destination of 1 (file).
0DFA   0AF4           03317         INCF    BTCOUNT
                      03318 
                      03319 
0DFB   2200           03320         CALL    T_CHAR
0DFC   1683 1303      03321         BANK1
Message[302]: Register in operand not in bank 0.  Ensure that bank bits are correct.
0DFE   00C1           03322         MOVWF   IRAM+21
0DFF   1283 1303      03323         BANK0
Message[305]: Using default destination of 1 (file).
0E01   0AF4           03324         INCF    BTCOUNT
                      03325 
                      03326 
0E02   2200           03327         CALL    T_CHAR
0E03   1683 1303      03328         BANK1
Message[302]: Register in operand not in bank 0.  Ensure that bank bits are correct.
0E05   00C5           03329         MOVWF   IRAM+25
0E06   1283 1303      03330         BANK0
Message[305]: Using default destination of 1 (file).
0E08   0AF4           03331         INCF    BTCOUNT
                      03332 
                      03333 
0E09   2200           03334         CALL    T_CHAR
0E0A   1683 1303      03335         BANK1
Message[302]: Register in operand not in bank 0.  Ensure that bank bits are correct.
0E0C   00B1           03336         MOVWF   IRAM+11
0E0D   1283 1303      03337         BANK0
Message[305]: Using default destination of 1 (file).
0E0F   0AF4           03338         INCF    BTCOUNT
                      03339 
                      03340 
0E10   2200           03341         CALL    T_CHAR
0E11   1683 1303      03342         BANK1
Message[302]: Register in operand not in bank 0.  Ensure that bank bits are correct.
0E13   00B5           03343         MOVWF   IRAM+15
0E14   1283 1303      03344         BANK0
Message[305]: Using default destination of 1 (file).
0E16   0AF4           03345         INCF    BTCOUNT
                      03346 
                      03347 
0E17   2200           03348         CALL    T_CHAR
0E18   1683 1303      03349         BANK1
Message[302]: Register in operand not in bank 0.  Ensure that bank bits are correct.
0E1A   00A1           03350         MOVWF   IRAM+01
0E1B   1283 1303      03351         BANK0
Message[305]: Using default destination of 1 (file).
0E1D   0AF4           03352         INCF    BTCOUNT
                      03353 
                      03354 
0E1E   2200           03355         CALL    T_CHAR
0E1F   1683 1303      03356         BANK1
Message[302]: Register in operand not in bank 0.  Ensure that bank bits are correct.
0E21   00A5           03357         MOVWF   IRAM+05
MPASM  5.51              HUB12_FONTSCROLL.ASM   5-20-2019  14:19:30         PAGE 74


LOC  OBJECT CODE     LINE SOURCE TEXT
  VALUE

0E22   1283 1303      03358         BANK0
Message[305]: Using default destination of 1 (file).
0E24   0AF4           03359         INCF    BTCOUNT
                      03360 
                      03361 
0E25   2200           03362         CALL    T_CHAR
0E26   1683 1303      03363         BANK1
Message[302]: Register in operand not in bank 0.  Ensure that bank bits are correct.
0E28   00D0           03364         MOVWF   IRAM+30
0E29   1283 1303      03365         BANK0
Message[305]: Using default destination of 1 (file).
0E2B   0AF4           03366         INCF    BTCOUNT
                      03367 
                      03368 
0E2C   2200           03369         CALL    T_CHAR
0E2D   1683 1303      03370         BANK1
Message[302]: Register in operand not in bank 0.  Ensure that bank bits are correct.
0E2F   00D4           03371         MOVWF   IRAM+34
0E30   1283 1303      03372         BANK0
Message[305]: Using default destination of 1 (file).
0E32   0AF4           03373         INCF    BTCOUNT
                      03374 
                      03375 
0E33   2200           03376         CALL    T_CHAR
0E34   1683 1303      03377         BANK1
Message[302]: Register in operand not in bank 0.  Ensure that bank bits are correct.
0E36   00C0           03378         MOVWF   IRAM+20
0E37   1283 1303      03379         BANK0
Message[305]: Using default destination of 1 (file).
0E39   0AF4           03380         INCF    BTCOUNT
                      03381 
                      03382 
0E3A   2200           03383         CALL    T_CHAR
0E3B   1683 1303      03384         BANK1
Message[302]: Register in operand not in bank 0.  Ensure that bank bits are correct.
0E3D   00C4           03385         MOVWF   IRAM+24
0E3E   1283 1303      03386         BANK0
Message[305]: Using default destination of 1 (file).
0E40   0AF4           03387         INCF    BTCOUNT
                      03388 
                      03389 
0E41   2200           03390         CALL    T_CHAR
0E42   1683 1303      03391         BANK1
Message[302]: Register in operand not in bank 0.  Ensure that bank bits are correct.
0E44   00B0           03392         MOVWF   IRAM+10
0E45   1283 1303      03393         BANK0
Message[305]: Using default destination of 1 (file).
0E47   0AF4           03394         INCF    BTCOUNT
                      03395 
                      03396 
0E48   2200           03397         CALL    T_CHAR
0E49   1683 1303      03398         BANK1
Message[302]: Register in operand not in bank 0.  Ensure that bank bits are correct.
MPASM  5.51              HUB12_FONTSCROLL.ASM   5-20-2019  14:19:30         PAGE 75


LOC  OBJECT CODE     LINE SOURCE TEXT
  VALUE

0E4B   00B4           03399         MOVWF   IRAM+14
0E4C   1283 1303      03400         BANK0
Message[305]: Using default destination of 1 (file).
0E4E   0AF4           03401         INCF    BTCOUNT
                      03402 
                      03403 
0E4F   2200           03404         CALL    T_CHAR
0E50   1683 1303      03405         BANK1
Message[302]: Register in operand not in bank 0.  Ensure that bank bits are correct.
0E52   00A0           03406         MOVWF   IRAM+00
0E53   1283 1303      03407         BANK0
Message[305]: Using default destination of 1 (file).
0E55   0AF4           03408         INCF    BTCOUNT
                      03409         
                      03410 
0E56   2200           03411         CALL    T_CHAR
0E57   1683 1303      03412         BANK1
Message[302]: Register in operand not in bank 0.  Ensure that bank bits are correct.
0E59   00A4           03413         MOVWF   IRAM+04
0E5A   1283 1303      03414         BANK0
Message[305]: Using default destination of 1 (file).
0E5C   0AF4           03415         INCF    BTCOUNT
                      03416 
                      03417 
0E5D   3000           03418         MOVLW   .0                      ;BACK TO PAGE1
0E5E   008A           03419         MOVWF   PCLATH
0E5F   1283 1303      03420         BANK0
Warning[203]: Found opcode in column 1. (RETURN)
0E61   0008           03421 RETURN
                      03422 ;########################################
                      03423 
                      03424 
                      03425 
Warning[205]: Found directive in column 1. (ORG)
0F00                  03426 ORG     0XF00
                      03427 ;#############  SCROLL DOWN  ############
0F00                  03428 ISCRL_DOWN_GRPA
                      03429 
0F00   2737           03430         CALL    ISHIFT_DOWN_GRPA
0F01   2714           03431         CALL    DSHIFT_DOWN_GRPA
                      03432 
0F02   2781           03433         CALL    ISHIFT_DOWN_GRPB
0F03   275E           03434         CALL    DSHIFT_DOWN_GRPB
                      03435         
0F04   3004           03436         MOVLW   4
0F05   008A           03437         MOVWF   PCLATH
Message[306]: Crossing page boundary -- ensure page bits are set.
0F06   2423           03438         CALL    ISHIFT_DOWN_GRPC
Message[306]: Crossing page boundary -- ensure page bits are set.
0F07   2400           03439         CALL    DSHIFT_DOWN_GRPC
                      03440 
0F08   300F           03441         MOVLW   0XF
0F09   008A           03442         MOVWF   PCLATH
MPASM  5.51              HUB12_FONTSCROLL.ASM   5-20-2019  14:19:30         PAGE 76


LOC  OBJECT CODE     LINE SOURCE TEXT
  VALUE

                      03443 
0F0A   0008           03444         RETURN
0F0B   082B           03445         MOVFW   FONT
0F0C   0782           03446         ADDWF   PCL,F
                      03447 
0F0D   0008           03448         RETURN
0F0E   0008           03449         RETURN
0F0F   0008           03450         RETURN
0F10   0008           03451         RETURN
0F11   2781           03452         CALL    ISHIFT_DOWN_GRPB
0F12   275E           03453         CALL    DSHIFT_DOWN_GRPB
                      03454 
Warning[203]: Found opcode in column 1. (RETURN)
0F13   0008           03455 RETURN
                      03456         
                      03457 
                      03458 
                      03459 
                      03460 
                      03461 
                      03462 
                      03463 ;############## DRAM SHIFT Y DOWN GROUPA #############
0F14                  03464 DSHIFT_DOWN_GRPA
0F14   1283 1303      03465         BANK0
0F16   083C           03466         MOVFW   DRAM+10
0F17   00AC           03467         MOVWF   DRAM+00
                      03468 
0F18   084C           03469         MOVFW   DRAM+20
0F19   00BC           03470         MOVWF   DRAM+10
                      03471 
0F1A   085C           03472         MOVFW   DRAM+30
0F1B   00CC           03473         MOVWF   DRAM+20
                      03474 
0F1C   082D           03475         MOVFW   DRAM+01
0F1D   00DC           03476         MOVWF   DRAM+30
                      03477 
0F1E   083D           03478         MOVFW   DRAM+11
0F1F   00AD           03479         MOVWF   DRAM+01
                      03480 
0F20   084D           03481         MOVFW   DRAM+21
0F21   00BD           03482         MOVWF   DRAM+11
                      03483 
0F22   085D           03484         MOVFW   DRAM+31
0F23   00CD           03485         MOVWF   DRAM+21
                      03486 
0F24   082E           03487         MOVFW   DRAM+02
0F25   00DD           03488         MOVWF   DRAM+31
                      03489 
0F26   083E           03490         MOVFW   DRAM+12
0F27   00AE           03491         MOVWF   DRAM+02
                      03492 
0F28   084E           03493         MOVFW   DRAM+22
0F29   00BE           03494         MOVWF   DRAM+12
MPASM  5.51              HUB12_FONTSCROLL.ASM   5-20-2019  14:19:30         PAGE 77


LOC  OBJECT CODE     LINE SOURCE TEXT
  VALUE

                      03495 
0F2A   085E           03496         MOVFW   DRAM+32
0F2B   00CE           03497         MOVWF   DRAM+22
                      03498 
0F2C   082F           03499         MOVFW   DRAM+03
0F2D   00DE           03500         MOVWF   DRAM+32
                      03501 
0F2E   083F           03502         MOVFW   DRAM+13
0F2F   00AF           03503         MOVWF   DRAM+03
                      03504 
0F30   084F           03505         MOVFW   DRAM+23
0F31   00BF           03506         MOVWF   DRAM+13
                      03507 
0F32   085F           03508         MOVFW   DRAM+33
0F33   00CF           03509         MOVWF   DRAM+23
                      03510 
0F34   082A           03511         MOVFW   TEMPFILE
0F35   00DF           03512         MOVWF   DRAM+33
Warning[203]: Found opcode in column 1. (RETURN)
0F36   0008           03513 RETURN
                      03514 
                      03515 ;############## IRAM SHIFT Y DOWN GROUP A #############
0F37                  03516 ISHIFT_DOWN_GRPA
0F37   1683 1303      03517         BANK1
Message[302]: Register in operand not in bank 0.  Ensure that bank bits are correct.
0F39   0820           03518         MOVFW   IRAM+00
0F3A   1283 1303      03519         BANK0
0F3C   00AA           03520         MOVWF   TEMPFILE
0F3D   1683 1303      03521         BANK1
Message[302]: Register in operand not in bank 0.  Ensure that bank bits are correct.
0F3F   0830           03522         MOVFW   IRAM+10
Message[302]: Register in operand not in bank 0.  Ensure that bank bits are correct.
0F40   00A0           03523         MOVWF   IRAM+00
                      03524 
Message[302]: Register in operand not in bank 0.  Ensure that bank bits are correct.
0F41   0840           03525         MOVFW   IRAM+20
Message[302]: Register in operand not in bank 0.  Ensure that bank bits are correct.
0F42   00B0           03526         MOVWF   IRAM+10
                      03527 
Message[302]: Register in operand not in bank 0.  Ensure that bank bits are correct.
0F43   0850           03528         MOVFW   IRAM+30
Message[302]: Register in operand not in bank 0.  Ensure that bank bits are correct.
0F44   00C0           03529         MOVWF   IRAM+20
                      03530 
Message[302]: Register in operand not in bank 0.  Ensure that bank bits are correct.
0F45   0821           03531         MOVFW   IRAM+01
Message[302]: Register in operand not in bank 0.  Ensure that bank bits are correct.
0F46   00D0           03532         MOVWF   IRAM+30
                      03533 
Message[302]: Register in operand not in bank 0.  Ensure that bank bits are correct.
0F47   0831           03534         MOVFW   IRAM+11
Message[302]: Register in operand not in bank 0.  Ensure that bank bits are correct.
0F48   00A1           03535         MOVWF   IRAM+01
MPASM  5.51              HUB12_FONTSCROLL.ASM   5-20-2019  14:19:30         PAGE 78


LOC  OBJECT CODE     LINE SOURCE TEXT
  VALUE

                      03536 
Message[302]: Register in operand not in bank 0.  Ensure that bank bits are correct.
0F49   0841           03537         MOVFW   IRAM+21
Message[302]: Register in operand not in bank 0.  Ensure that bank bits are correct.
0F4A   00B1           03538         MOVWF   IRAM+11
                      03539 
Message[302]: Register in operand not in bank 0.  Ensure that bank bits are correct.
0F4B   0851           03540         MOVFW   IRAM+31
Message[302]: Register in operand not in bank 0.  Ensure that bank bits are correct.
0F4C   00C1           03541         MOVWF   IRAM+21
                      03542 
Message[302]: Register in operand not in bank 0.  Ensure that bank bits are correct.
0F4D   0822           03543         MOVFW   IRAM+02
Message[302]: Register in operand not in bank 0.  Ensure that bank bits are correct.
0F4E   00D1           03544         MOVWF   IRAM+31
                      03545 
Message[302]: Register in operand not in bank 0.  Ensure that bank bits are correct.
0F4F   0832           03546         MOVFW   IRAM+12
Message[302]: Register in operand not in bank 0.  Ensure that bank bits are correct.
0F50   00A2           03547         MOVWF   IRAM+02
                      03548 
Message[302]: Register in operand not in bank 0.  Ensure that bank bits are correct.
0F51   0842           03549         MOVFW   IRAM+22
Message[302]: Register in operand not in bank 0.  Ensure that bank bits are correct.
0F52   00B2           03550         MOVWF   IRAM+12
                      03551 
Message[302]: Register in operand not in bank 0.  Ensure that bank bits are correct.
0F53   0852           03552         MOVFW   IRAM+32
Message[302]: Register in operand not in bank 0.  Ensure that bank bits are correct.
0F54   00C2           03553         MOVWF   IRAM+22
                      03554 
Message[302]: Register in operand not in bank 0.  Ensure that bank bits are correct.
0F55   0823           03555         MOVFW   IRAM+03
Message[302]: Register in operand not in bank 0.  Ensure that bank bits are correct.
0F56   00D2           03556         MOVWF   IRAM+32
                      03557 
Message[302]: Register in operand not in bank 0.  Ensure that bank bits are correct.
0F57   0833           03558         MOVFW   IRAM+13
Message[302]: Register in operand not in bank 0.  Ensure that bank bits are correct.
0F58   00A3           03559         MOVWF   IRAM+03
                      03560 
Message[302]: Register in operand not in bank 0.  Ensure that bank bits are correct.
0F59   0843           03561         MOVFW   IRAM+23
Message[302]: Register in operand not in bank 0.  Ensure that bank bits are correct.
0F5A   00B3           03562         MOVWF   IRAM+13
                      03563 
Message[302]: Register in operand not in bank 0.  Ensure that bank bits are correct.
0F5B   0853           03564         MOVFW   IRAM+33
Message[302]: Register in operand not in bank 0.  Ensure that bank bits are correct.
0F5C   00C3           03565         MOVWF   IRAM+23
                      03566 
0F5D   0008           03567         RETURN
                      03568 
MPASM  5.51              HUB12_FONTSCROLL.ASM   5-20-2019  14:19:30         PAGE 79


LOC  OBJECT CODE     LINE SOURCE TEXT
  VALUE

                      03569 
                      03570 
                      03571 ;############## DRAM SHIFT Y DOWN GROUPB #############
0F5E                  03572 DSHIFT_DOWN_GRPB
0F5E   1283 1303      03573         BANK0
0F60   0840           03574         MOVFW   DRAM+14
0F61   00B0           03575         MOVWF   DRAM+04
                      03576 
0F62   0850           03577         MOVFW   DRAM+24
0F63   00C0           03578         MOVWF   DRAM+14
                      03579 
0F64   0860           03580         MOVFW   DRAM+34
0F65   00D0           03581         MOVWF   DRAM+24
                      03582 
0F66   0831           03583         MOVFW   DRAM+05
0F67   00E0           03584         MOVWF   DRAM+34
                      03585 
0F68   0841           03586         MOVFW   DRAM+15
0F69   00B1           03587         MOVWF   DRAM+05
                      03588 
0F6A   0851           03589         MOVFW   DRAM+25
0F6B   00C1           03590         MOVWF   DRAM+15
                      03591 
0F6C   0861           03592         MOVFW   DRAM+35
0F6D   00D1           03593         MOVWF   DRAM+25
                      03594 
0F6E   0832           03595         MOVFW   DRAM+06
0F6F   00E1           03596         MOVWF   DRAM+35
                      03597 
0F70   0842           03598         MOVFW   DRAM+16
0F71   00B2           03599         MOVWF   DRAM+06
                      03600 
0F72   0852           03601         MOVFW   DRAM+26
0F73   00C2           03602         MOVWF   DRAM+16
                      03603 
0F74   0862           03604         MOVFW   DRAM+36
0F75   00D2           03605         MOVWF   DRAM+26
                      03606 
0F76   0833           03607         MOVFW   DRAM+07
0F77   00E2           03608         MOVWF   DRAM+36
                      03609 
0F78   0843           03610         MOVFW   DRAM+17
0F79   00B3           03611         MOVWF   DRAM+07
                      03612 
0F7A   0853           03613         MOVFW   DRAM+27
0F7B   00C3           03614         MOVWF   DRAM+17
                      03615 
0F7C   0863           03616         MOVFW   DRAM+37
0F7D   00D3           03617         MOVWF   DRAM+27
                      03618 
0F7E   087A           03619         MOVFW   TEMPFILEB
0F7F   00E3           03620         MOVWF   DRAM+37
Warning[203]: Found opcode in column 1. (RETURN)
MPASM  5.51              HUB12_FONTSCROLL.ASM   5-20-2019  14:19:30         PAGE 80


LOC  OBJECT CODE     LINE SOURCE TEXT
  VALUE

0F80   0008           03621 RETURN
                      03622 
                      03623 ;############## IRAM SHIFT Y DOWN GROUP B #############
0F81                  03624 ISHIFT_DOWN_GRPB
0F81   1683 1303      03625         BANK1
Message[302]: Register in operand not in bank 0.  Ensure that bank bits are correct.
0F83   0824           03626         MOVFW   IRAM+04
0F84   1283 1303      03627         BANK0
0F86   00FA           03628         MOVWF   TEMPFILEB
0F87   1683 1303      03629         BANK1
Message[302]: Register in operand not in bank 0.  Ensure that bank bits are correct.
0F89   0834           03630         MOVFW   IRAM+14
Message[302]: Register in operand not in bank 0.  Ensure that bank bits are correct.
0F8A   00A4           03631         MOVWF   IRAM+04
                      03632 
Message[302]: Register in operand not in bank 0.  Ensure that bank bits are correct.
0F8B   0844           03633         MOVFW   IRAM+24
Message[302]: Register in operand not in bank 0.  Ensure that bank bits are correct.
0F8C   00B4           03634         MOVWF   IRAM+14
                      03635 
Message[302]: Register in operand not in bank 0.  Ensure that bank bits are correct.
0F8D   0854           03636         MOVFW   IRAM+34
Message[302]: Register in operand not in bank 0.  Ensure that bank bits are correct.
0F8E   00C4           03637         MOVWF   IRAM+24
                      03638 
Message[302]: Register in operand not in bank 0.  Ensure that bank bits are correct.
0F8F   0825           03639         MOVFW   IRAM+05
Message[302]: Register in operand not in bank 0.  Ensure that bank bits are correct.
0F90   00D4           03640         MOVWF   IRAM+34
                      03641 
Message[302]: Register in operand not in bank 0.  Ensure that bank bits are correct.
0F91   0835           03642         MOVFW   IRAM+15
Message[302]: Register in operand not in bank 0.  Ensure that bank bits are correct.
0F92   00A5           03643         MOVWF   IRAM+05
                      03644 
Message[302]: Register in operand not in bank 0.  Ensure that bank bits are correct.
0F93   0845           03645         MOVFW   IRAM+25
Message[302]: Register in operand not in bank 0.  Ensure that bank bits are correct.
0F94   00B5           03646         MOVWF   IRAM+15
                      03647 
Message[302]: Register in operand not in bank 0.  Ensure that bank bits are correct.
0F95   0855           03648         MOVFW   IRAM+35
Message[302]: Register in operand not in bank 0.  Ensure that bank bits are correct.
0F96   00C5           03649         MOVWF   IRAM+25
                      03650 
Message[302]: Register in operand not in bank 0.  Ensure that bank bits are correct.
0F97   0826           03651         MOVFW   IRAM+06
Message[302]: Register in operand not in bank 0.  Ensure that bank bits are correct.
0F98   00D5           03652         MOVWF   IRAM+35
                      03653 
Message[302]: Register in operand not in bank 0.  Ensure that bank bits are correct.
0F99   0836           03654         MOVFW   IRAM+16
Message[302]: Register in operand not in bank 0.  Ensure that bank bits are correct.
MPASM  5.51              HUB12_FONTSCROLL.ASM   5-20-2019  14:19:30         PAGE 81


LOC  OBJECT CODE     LINE SOURCE TEXT
  VALUE

0F9A   00A6           03655         MOVWF   IRAM+06
                      03656 
Message[302]: Register in operand not in bank 0.  Ensure that bank bits are correct.
0F9B   0846           03657         MOVFW   IRAM+26
Message[302]: Register in operand not in bank 0.  Ensure that bank bits are correct.
0F9C   00B6           03658         MOVWF   IRAM+16
                      03659 
Message[302]: Register in operand not in bank 0.  Ensure that bank bits are correct.
0F9D   0856           03660         MOVFW   IRAM+36
Message[302]: Register in operand not in bank 0.  Ensure that bank bits are correct.
0F9E   00C6           03661         MOVWF   IRAM+26
                      03662 
Message[302]: Register in operand not in bank 0.  Ensure that bank bits are correct.
0F9F   0827           03663         MOVFW   IRAM+07
Message[302]: Register in operand not in bank 0.  Ensure that bank bits are correct.
0FA0   00D6           03664         MOVWF   IRAM+36
                      03665 
Message[302]: Register in operand not in bank 0.  Ensure that bank bits are correct.
0FA1   0837           03666         MOVFW   IRAM+17
Message[302]: Register in operand not in bank 0.  Ensure that bank bits are correct.
0FA2   00A7           03667         MOVWF   IRAM+07
                      03668 
Message[302]: Register in operand not in bank 0.  Ensure that bank bits are correct.
0FA3   0847           03669         MOVFW   IRAM+27
Message[302]: Register in operand not in bank 0.  Ensure that bank bits are correct.
0FA4   00B7           03670         MOVWF   IRAM+17
                      03671 
Message[302]: Register in operand not in bank 0.  Ensure that bank bits are correct.
0FA5   0857           03672         MOVFW   IRAM+37
Message[302]: Register in operand not in bank 0.  Ensure that bank bits are correct.
0FA6   00C7           03673         MOVWF   IRAM+27
                      03674 
0FA7   0008           03675         RETURN
                      03676 
Warning[205]: Found directive in column 1. (ORG)
0400                  03677 ORG 0X400
                      03678 ;############## DRAM SHIFT Y DOWN GROUPC #############
0400                  03679 DSHIFT_DOWN_GRPC
0400   1283 1303      03680         BANK0
0402   0844           03681         MOVFW   DRAM+18
0403   00B4           03682         MOVWF   DRAM+08
                      03683 
0404   0854           03684         MOVFW   DRAM+28
0405   00C4           03685         MOVWF   DRAM+18
                      03686 
0406   0864           03687         MOVFW   DRAM+38
0407   00D4           03688         MOVWF   DRAM+28
                      03689 
0408   0835           03690         MOVFW   DRAM+09
0409   00E4           03691         MOVWF   DRAM+38
                      03692 
040A   0845           03693         MOVFW   DRAM+19
040B   00B5           03694         MOVWF   DRAM+09
MPASM  5.51              HUB12_FONTSCROLL.ASM   5-20-2019  14:19:30         PAGE 82


LOC  OBJECT CODE     LINE SOURCE TEXT
  VALUE

                      03695 
040C   0855           03696         MOVFW   DRAM+29
040D   00C5           03697         MOVWF   DRAM+19
                      03698 
040E   0865           03699         MOVFW   DRAM+39
040F   00D5           03700         MOVWF   DRAM+29
                      03701 
0410   0836           03702         MOVFW   DRAM+0A
0411   00E5           03703         MOVWF   DRAM+39
                      03704 
0412   0846           03705         MOVFW   DRAM+1A
0413   00B6           03706         MOVWF   DRAM+0A
                      03707 
0414   0856           03708         MOVFW   DRAM+2A
0415   00C6           03709         MOVWF   DRAM+1A
                      03710 
0416   0866           03711         MOVFW   DRAM+3A
0417   00D6           03712         MOVWF   DRAM+2A
                      03713 
0418   0837           03714         MOVFW   DRAM+0B
0419   00E6           03715         MOVWF   DRAM+3A
                      03716 
041A   0847           03717         MOVFW   DRAM+1B
041B   00B7           03718         MOVWF   DRAM+0B
                      03719 
041C   0857           03720         MOVFW   DRAM+2B
041D   00C7           03721         MOVWF   DRAM+1B
                      03722 
041E   0867           03723         MOVFW   DRAM+3B
041F   00D7           03724         MOVWF   DRAM+2B
                      03725 
0420   087B           03726         MOVFW   TEMPFILEC
0421   00E7           03727         MOVWF   DRAM+3B
Warning[203]: Found opcode in column 1. (RETURN)
0422   0008           03728 RETURN
                      03729 
                      03730 ;############## IRAM SHIFT Y DOWN GROUP C #############
0423                  03731 ISHIFT_DOWN_GRPC
0423   1683 1303      03732         BANK1
Message[302]: Register in operand not in bank 0.  Ensure that bank bits are correct.
0425   0828           03733         MOVFW   IRAM+08
0426   1283 1303      03734         BANK0
0428   00FB           03735         MOVWF   TEMPFILEC
0429   1683 1303      03736         BANK1
Message[302]: Register in operand not in bank 0.  Ensure that bank bits are correct.
042B   0838           03737         MOVFW   IRAM+18
Message[302]: Register in operand not in bank 0.  Ensure that bank bits are correct.
042C   00A8           03738         MOVWF   IRAM+08
                      03739 
Message[302]: Register in operand not in bank 0.  Ensure that bank bits are correct.
042D   0848           03740         MOVFW   IRAM+28
Message[302]: Register in operand not in bank 0.  Ensure that bank bits are correct.
042E   00B8           03741         MOVWF   IRAM+18
MPASM  5.51              HUB12_FONTSCROLL.ASM   5-20-2019  14:19:30         PAGE 83


LOC  OBJECT CODE     LINE SOURCE TEXT
  VALUE

                      03742 
Message[302]: Register in operand not in bank 0.  Ensure that bank bits are correct.
042F   0858           03743         MOVFW   IRAM+38
Message[302]: Register in operand not in bank 0.  Ensure that bank bits are correct.
0430   00C8           03744         MOVWF   IRAM+28
                      03745 
Message[302]: Register in operand not in bank 0.  Ensure that bank bits are correct.
0431   0829           03746         MOVFW   IRAM+09
Message[302]: Register in operand not in bank 0.  Ensure that bank bits are correct.
0432   00D8           03747         MOVWF   IRAM+38
                      03748 
Message[302]: Register in operand not in bank 0.  Ensure that bank bits are correct.
0433   0839           03749         MOVFW   IRAM+19
Message[302]: Register in operand not in bank 0.  Ensure that bank bits are correct.
0434   00A9           03750         MOVWF   IRAM+09
                      03751 
Message[302]: Register in operand not in bank 0.  Ensure that bank bits are correct.
0435   0849           03752         MOVFW   IRAM+29
Message[302]: Register in operand not in bank 0.  Ensure that bank bits are correct.
0436   00B9           03753         MOVWF   IRAM+19
                      03754 
Message[302]: Register in operand not in bank 0.  Ensure that bank bits are correct.
0437   0859           03755         MOVFW   IRAM+39
Message[302]: Register in operand not in bank 0.  Ensure that bank bits are correct.
0438   00C9           03756         MOVWF   IRAM+29
                      03757 
Message[302]: Register in operand not in bank 0.  Ensure that bank bits are correct.
0439   082A           03758         MOVFW   IRAM+0A
Message[302]: Register in operand not in bank 0.  Ensure that bank bits are correct.
043A   00D9           03759         MOVWF   IRAM+39
                      03760 
Message[302]: Register in operand not in bank 0.  Ensure that bank bits are correct.
043B   083A           03761         MOVFW   IRAM+1A
Message[302]: Register in operand not in bank 0.  Ensure that bank bits are correct.
043C   00AA           03762         MOVWF   IRAM+0A
                      03763 
Message[302]: Register in operand not in bank 0.  Ensure that bank bits are correct.
043D   084A           03764         MOVFW   IRAM+2A
Message[302]: Register in operand not in bank 0.  Ensure that bank bits are correct.
043E   00BA           03765         MOVWF   IRAM+1A
                      03766 
Message[302]: Register in operand not in bank 0.  Ensure that bank bits are correct.
043F   085A           03767         MOVFW   IRAM+3A
Message[302]: Register in operand not in bank 0.  Ensure that bank bits are correct.
0440   00CA           03768         MOVWF   IRAM+2A
                      03769 
Message[302]: Register in operand not in bank 0.  Ensure that bank bits are correct.
0441   082B           03770         MOVFW   IRAM+0B
Message[302]: Register in operand not in bank 0.  Ensure that bank bits are correct.
0442   00DA           03771         MOVWF   IRAM+3A
                      03772 
Message[302]: Register in operand not in bank 0.  Ensure that bank bits are correct.
0443   083B           03773         MOVFW   IRAM+1B
MPASM  5.51              HUB12_FONTSCROLL.ASM   5-20-2019  14:19:30         PAGE 84


LOC  OBJECT CODE     LINE SOURCE TEXT
  VALUE

Message[302]: Register in operand not in bank 0.  Ensure that bank bits are correct.
0444   00AB           03774         MOVWF   IRAM+0B
                      03775 
Message[302]: Register in operand not in bank 0.  Ensure that bank bits are correct.
0445   084B           03776         MOVFW   IRAM+2B
Message[302]: Register in operand not in bank 0.  Ensure that bank bits are correct.
0446   00BB           03777         MOVWF   IRAM+1B
                      03778 
Message[302]: Register in operand not in bank 0.  Ensure that bank bits are correct.
0447   085B           03779         MOVFW   IRAM+3B
Message[302]: Register in operand not in bank 0.  Ensure that bank bits are correct.
0448   00CB           03780         MOVWF   IRAM+2B
                      03781 
0449   0008           03782         RETURN
                      03783 
Warning[205]: Found directive in column 1. (ORG)
0C00                  03784 ORG     0XC00
0C00                  03785 TENDOWN
                      03786 
                      03787 ;INIT
                      03788 
0C00   300F           03789         MOVLW   0XF
0C01   008A           03790         MOVWF   PCLATH
                      03791         
0C02   1283 1303      03792         BANK0
0C04   30FF           03793         MOVLW   0XFF
0C05   00AA           03794         MOVWF   TEMPFILE
0C06   30FF           03795         MOVLW   0XFF
0C07   00FA           03796         MOVWF   TEMPFILEB
                      03797 
                      03798 
0C08   2714           03799         CALL    DSHIFT_DOWN_GRPA
0C09   275E           03800         CALL    DSHIFT_DOWN_GRPB
                      03801         
                      03802 
0C0A   3000           03803         MOVLW   0
0C0B   008A           03804         MOVWF   PCLATH
                      03805 
Message[306]: Crossing page boundary -- ensure page bits are set.
0C0C   2037           03806         CALL    DISP
                      03807         
                      03808 
0C0D   300C           03809         MOVLW   0XC
0C0E   008A           03810         MOVWF   PCLATH  
                      03811 
                      03812 
                      03813         ;ones
0C0F   1283 1303      03814         BANK0
0C11   3000           03815         MOVLW   0
0C12   00F3           03816         MOVWF   NUMBER
                      03817 
0C13   300D           03818         MOVLW   0XD
0C14   008A           03819         MOVWF   PCLATH
MPASM  5.51              HUB12_FONTSCROLL.ASM   5-20-2019  14:19:30         PAGE 85


LOC  OBJECT CODE     LINE SOURCE TEXT
  VALUE

                      03820 
0C15   250D           03821         CALL    IDUMP
0C16   1683 1303      03822         BANK1
0C18   3008           03823         MOVLW   8
Message[302]: Register in operand not in bank 0.  Ensure that bank bits are correct.
0C19   00E4           03824         MOVWF   ICURSORX
0C1A   1683 1303      03825         BANK1
                      03826         
                      03827 
0C1C   3000           03828         MOVLW   0
0C1D   008A           03829         MOVWF   PCLATH
                      03830         
0C1E   3000           03831         MOVLW   0
Message[302]: Register in operand not in bank 0.  Ensure that bank bits are correct.
0C1F   00E6           03832         MOVWF   IROW
                      03833 
0C20   3002           03834         MOVLW   2
0C21   008A           03835         MOVWF   PCLATH
                      03836 
Message[306]: Crossing page boundary -- ensure page bits are set.
0C22   2200           03837         CALL    ISHIFTR
                      03838 
0C23   300C           03839         MOVLW   0XC
0C24   008A           03840         MOVWF   PCLATH
                      03841 
0C25   3001           03842         MOVLW   1
Message[302]: Register in operand not in bank 0.  Ensure that bank bits are correct.
0C26   00E6           03843         MOVWF   IROW
                      03844 
0C27   3002           03845         MOVLW   2
0C28   008A           03846         MOVWF   PCLATH
                      03847 
Message[306]: Crossing page boundary -- ensure page bits are set.
0C29   2200           03848         CALL    ISHIFTR
                      03849 
0C2A   300C           03850         MOVLW   0XC
0C2B   008A           03851         MOVWF   PCLATH
                      03852 
                      03853 
                      03854 
0C2C   1283 1303      03855         BANK0
0C2E   0878           03856         MOVFW   TENS
0C2F   00F3           03857         MOVWF   NUMBER
                      03858 
0C30   300D           03859         MOVLW   0XD
0C31   008A           03860         MOVWF   PCLATH
                      03861 
0C32   250D           03862         CALL    IDUMP
0C33   1683 1303      03863         BANK1
0C35   3010           03864         MOVLW   .16
Message[302]: Register in operand not in bank 0.  Ensure that bank bits are correct.
0C36   00E2           03865         MOVWF   ICOUNT
                      03866         
MPASM  5.51              HUB12_FONTSCROLL.ASM   5-20-2019  14:19:30         PAGE 86


LOC  OBJECT CODE     LINE SOURCE TEXT
  VALUE

0C37                  03867 TD0
0C37   300F           03868         MOVLW   0XF
0C38   008A           03869         MOVWF   PCLATH
                      03870 
0C39   2737           03871         CALL    ISHIFT_DOWN_GRPA
0C3A   2714           03872         CALL    DSHIFT_DOWN_GRPA
0C3B   2781           03873         CALL    ISHIFT_DOWN_GRPB
0C3C   275E           03874         CALL    DSHIFT_DOWN_GRPB
                      03875         
                      03876 
0C3D   3000           03877         MOVLW   0
0C3E   008A           03878         MOVWF   PCLATH
                      03879 
Message[306]: Crossing page boundary -- ensure page bits are set.
0C3F   2037           03880         CALL    DISP
                      03881         
                      03882 
0C40   300C           03883         MOVLW   0XC
0C41   008A           03884         MOVWF   PCLATH
0C42   1683 1303      03885         BANK1
Message[302]: Register in operand not in bank 0.  Ensure that bank bits are correct.
0C44   0BE2           03886         DECFSZ  ICOUNT,F
0C45   2C37           03887         GOTO TD0
                      03888         
0C46   1283 1303      03889         BANK0
0C48   30FF           03890         MOVLW   0XFF
0C49   00FA           03891         MOVWF   TEMPFILEB
0C4A   275E           03892         CALL    DSHIFT_DOWN_GRPB
                      03893 
Warning[203]: Found opcode in column 1. (RETURN)
0C4B   0008           03894 RETURN
                      03895 
                      03896 
                      03897 
Warning[205]: Found directive in column 1. (ORG)
0700                  03898 ORG 0X700
                      03899 
0700                  03900 SCROLL
                      03901 
0700   1683 1303      03902         BANK1
0702   3008           03903         MOVLW   8
Message[302]: Register in operand not in bank 0.  Ensure that bank bits are correct.
0703   00E4           03904         MOVWF   ICURSORX
                      03905         
                      03906         
0704   3000           03907         MOVLW   0
0705   008A           03908         MOVWF   PCLATH
                      03909 
0706   203E           03910         CALL    CLR_IRAM
                      03911 
0707   3007           03912         MOVLW   7
0708   008A           03913         MOVWF   PCLATH
                      03914 
MPASM  5.51              HUB12_FONTSCROLL.ASM   5-20-2019  14:19:30         PAGE 87


LOC  OBJECT CODE     LINE SOURCE TEXT
  VALUE

0709                  03915 MAN2
0709   1283 1303      03916         BANK0
070B   3001           03917         MOVLW   1
070C   00F3           03918         MOVWF   NUMBER
070D   1683 1303      03919         BANK1
070F   3009           03920         MOVLW   .9
Message[302]: Register in operand not in bank 0.  Ensure that bank bits are correct.
0710   00E7           03921         MOVWF   IPT
                      03922 
0711                  03923 MAN1
0711   300D           03924         MOVLW   0XD
0712   008A           03925         MOVWF   PCLATH
Warning[205]: Found directive in column 1. (BANKSEL)
0713   1283 1303      03926 BANK0
Message[306]: Crossing page boundary -- ensure page bits are set.
0715   250D           03927         CALL    IDUMP
Warning[205]: Found directive in column 1. (BANKSEL)
0716   1683 1303      03928 BANK1
                      03929         
                      03930 
0718   3000           03931         MOVLW   0
0719   008A           03932         MOVWF   PCLATH
                      03933         
071A   3000           03934         MOVLW   0
Message[302]: Register in operand not in bank 0.  Ensure that bank bits are correct.
071B   00E6           03935         MOVWF   IROW
                      03936 
071C   3002           03937         MOVLW   2
071D   008A           03938         MOVWF   PCLATH
                      03939 
071E   2200           03940         CALL    ISHIFTR
                      03941 
071F   3007           03942         MOVLW   7
0720   008A           03943         MOVWF   PCLATH
                      03944 
0721   3001           03945         MOVLW   1
Message[302]: Register in operand not in bank 0.  Ensure that bank bits are correct.
0722   00E6           03946         MOVWF   IROW
                      03947 
0723   3002           03948         MOVLW   2
0724   008A           03949         MOVWF   PCLATH
                      03950 
0725   2200           03951         CALL    ISHIFTR
                      03952 
0726   3007           03953         MOVLW   7
0727   008A           03954         MOVWF   PCLATH
                      03955 
                      03956 
                      03957 
0728   1683 1303      03958         BANK1
072A   3010           03959         MOVLW   .16
Message[302]: Register in operand not in bank 0.  Ensure that bank bits are correct.
072B   00E2           03960         MOVWF   ICOUNT
MPASM  5.51              HUB12_FONTSCROLL.ASM   5-20-2019  14:19:30         PAGE 88


LOC  OBJECT CODE     LINE SOURCE TEXT
  VALUE

                      03961         
072C                  03962 MAN0
072C   300F           03963         MOVLW   0XF
072D   008A           03964         MOVWF   PCLATH
                      03965 
Message[306]: Crossing page boundary -- ensure page bits are set.
072E   2781           03966         CALL    ISHIFT_DOWN_GRPB
Message[306]: Crossing page boundary -- ensure page bits are set.
072F   275E           03967         CALL    DSHIFT_DOWN_GRPB
                      03968         
                      03969 
0730   3000           03970         MOVLW   0
0731   008A           03971         MOVWF   PCLATH
                      03972 
0732   2037           03973         CALL    DISP
                      03974         
                      03975 
0733   3007           03976         MOVLW   7
0734   008A           03977         MOVWF   PCLATH
0735   1683 1303      03978         BANK1
Message[302]: Register in operand not in bank 0.  Ensure that bank bits are correct.
0737   0BE2           03979         DECFSZ  ICOUNT,F
0738   2F2C           03980         GOTO MAN0
                      03981         
0739   1283 1303      03982         BANK0
                      03983         
073B   30FF           03984         MOVLW   0XFF
073C   00FA           03985         MOVWF   TEMPFILEB
                      03986         
073D   300F           03987         MOVLW   0XF
073E   008A           03988         MOVWF   PCLATH
                      03989 
                      03990 
Message[306]: Crossing page boundary -- ensure page bits are set.
073F   275E           03991         CALL    DSHIFT_DOWN_GRPB
                      03992         
0740   3007           03993         MOVLW   7
0741   008A           03994         MOVWF   PCLATH
0742   1283 1303      03995         BANK0
Message[305]: Using default destination of 1 (file).
0744   0AF3           03996         INCF    NUMBER
0745   1683 1303      03997         BANK1
Message[302]: Register in operand not in bank 0.  Ensure that bank bits are correct.
0747   0BE7           03998         DECFSZ  IPT,F
0748   2F11           03999         GOTO    MAN1
                      04000 
0749   3000           04001         MOVLW   0
074A   008A           04002         MOVWF   PCLATH
                      04003         
                      04004 
                      04005 
Warning[203]: Found opcode in column 1. (RETURN)
074B   0008           04006 RETURN
MPASM  5.51              HUB12_FONTSCROLL.ASM   5-20-2019  14:19:30         PAGE 89


LOC  OBJECT CODE     LINE SOURCE TEXT
  VALUE

                      04007 
                      04008 
                      04009 
                      04010 ;#################      ISHIFT X        RIGHT ################################
                      04011 
Warning[205]: Found directive in column 1. (ORG)
0200                  04012 ORG 0X200
0200                  04013 ISHIFTR
0200   1683 1303      04014         BANK1
Message[302]: Register in operand not in bank 0.  Ensure that bank bits are correct.
0202   0864           04015         MOVFW   ICURSORX
0203   0782           04016         ADDWF   PCL,F
                      04017         
                      04018 
0204   2B22           04019                 GOTO    IGRP_C
0205   2B22           04020         GOTO    IGRP_C
0206   2B22           04021         GOTO    IGRP_C
0207   2B22           04022         GOTO    IGRP_C
0208   2B22           04023         GOTO    IGRP_C
0209   2B22           04024         GOTO    IGRP_C
020A   2B22           04025         GOTO    IGRP_C
020B   2B22           04026         GOTO    IGRP_C
020C   2B22           04027         GOTO    IGRP_C
020D   2AA8           04028                 GOTO    IGRP_B
020E   2AA8           04029         GOTO    IGRP_B
020F   2AA8           04030         GOTO    IGRP_B
0210   2AA8           04031         GOTO    IGRP_B
0211   2AA8           04032         GOTO    IGRP_B
0212   2AA8           04033         GOTO    IGRP_B
0213   2AA8           04034         GOTO    IGRP_B
0214   2AA8           04035         GOTO    IGRP_B
0215   2AA8           04036         GOTO    IGRP_B
0216   2A1E           04037                 GOTO    IGRP_A
0217   2A1E           04038         GOTO    IGRP_A
0218   2A1E           04039         GOTO    IGRP_A
0219   2A1E           04040         GOTO    IGRP_A
021A   2A1E           04041         GOTO    IGRP_A
021B   2A1E           04042         GOTO    IGRP_A
021C   2A1E           04043         GOTO    IGRP_A
021D   2A1E           04044         GOTO    IGRP_A
                      04045 
                      04046 
021E                  04047 IGRP_A
                      04048 ;--------------------
Message[302]: Register in operand not in bank 0.  Ensure that bank bits are correct.
021E   0864           04049         MOVFW   ICURSORX
Message[302]: Register in operand not in bank 0.  Ensure that bank bits are correct.
021F   00E5           04050         MOVWF   ISHCNT
                      04051 
0220   3001           04052         MOVLW   .1
Message[302]: Register in operand not in bank 0.  Ensure that bank bits are correct.
0221   00E3           04053         MOVWF   ITESTER
                      04054 
MPASM  5.51              HUB12_FONTSCROLL.ASM   5-20-2019  14:19:30         PAGE 90


LOC  OBJECT CODE     LINE SOURCE TEXT
  VALUE

Message[302]: Register in operand not in bank 0.  Ensure that bank bits are correct.
0222   0866           04055         MOVFW   IROW
Message[302]: Register in operand not in bank 0.  Ensure that bank bits are correct.
0223   0263           04056         SUBWF   ITESTER,W
0224   1903           04057         BTFSC   STATUS,Z
0225   2A68           04058         GOTO    ISRA08_R1
                      04059         
0226                  04060 ISRA00
Warning[211]: Extraneous arguments on the line.
0226   1403           04061         SETC    1
Message[305]: Using default destination of 1 (file).
Message[302]: Register in operand not in bank 0.  Ensure that bank bits are correct.
0227   0CD3           04062         RRF             IRAM + 33
Message[305]: Using default destination of 1 (file).
Message[302]: Register in operand not in bank 0.  Ensure that bank bits are correct.
0228   0CD7           04063         RRF             IRAM + 37
Message[305]: Using default destination of 1 (file).
Message[302]: Register in operand not in bank 0.  Ensure that bank bits are correct.
0229   0CDB           04064         RRF             IRAM + 3B
Message[305]: Using default destination of 1 (file).
Message[302]: Register in operand not in bank 0.  Ensure that bank bits are correct.
022A   0CDF           04065         RRF             IRAM + 3F
Message[305]: Using default destination of 1 (file).
Message[302]: Register in operand not in bank 0.  Ensure that bank bits are correct.
022B   0BE5           04066         DECFSZ  ISHCNT
022C   2A26           04067         GOTO    ISRA00
                      04068 
Message[302]: Register in operand not in bank 0.  Ensure that bank bits are correct.
022D   0864           04069         MOVF    ICURSORX,0
Message[302]: Register in operand not in bank 0.  Ensure that bank bits are correct.
022E   00E5           04070         MOVWF   ISHCNT
                      04071 
022F                  04072 ISRA01
Message[305]: Using default destination of 1 (file).
Message[302]: Register in operand not in bank 0.  Ensure that bank bits are correct.
022F   0CC3           04073         RRF             IRAM + 23
Message[305]: Using default destination of 1 (file).
Message[302]: Register in operand not in bank 0.  Ensure that bank bits are correct.
0230   0CC7           04074         RRF             IRAM + 27
Message[305]: Using default destination of 1 (file).
Message[302]: Register in operand not in bank 0.  Ensure that bank bits are correct.
0231   0CCB           04075         RRF             IRAM + 2B
Message[305]: Using default destination of 1 (file).
Message[302]: Register in operand not in bank 0.  Ensure that bank bits are correct.
0232   0CCF           04076         RRF             IRAM + 2F
Message[305]: Using default destination of 1 (file).
Message[302]: Register in operand not in bank 0.  Ensure that bank bits are correct.
0233   0BE5           04077         DECFSZ  ISHCNT
0234   2A2F           04078         GOTO    ISRA01
                      04079 
Message[302]: Register in operand not in bank 0.  Ensure that bank bits are correct.
0235   0864           04080         MOVF    ICURSORX,0
Message[302]: Register in operand not in bank 0.  Ensure that bank bits are correct.
MPASM  5.51              HUB12_FONTSCROLL.ASM   5-20-2019  14:19:30         PAGE 91


LOC  OBJECT CODE     LINE SOURCE TEXT
  VALUE

0236   00E5           04081         MOVWF   ISHCNT
                      04082 
0237                  04083 ISRA02
Message[305]: Using default destination of 1 (file).
Message[302]: Register in operand not in bank 0.  Ensure that bank bits are correct.
0237   0CB3           04084         RRF             IRAM + 13
Message[305]: Using default destination of 1 (file).
Message[302]: Register in operand not in bank 0.  Ensure that bank bits are correct.
0238   0CB7           04085         RRF             IRAM + 17
Message[305]: Using default destination of 1 (file).
Message[302]: Register in operand not in bank 0.  Ensure that bank bits are correct.
0239   0CBB           04086         RRF             IRAM + 1B
Message[305]: Using default destination of 1 (file).
Message[302]: Register in operand not in bank 0.  Ensure that bank bits are correct.
023A   0CBF           04087         RRF             IRAM + 1F
Message[305]: Using default destination of 1 (file).
Message[302]: Register in operand not in bank 0.  Ensure that bank bits are correct.
023B   0BE5           04088         DECFSZ  ISHCNT
023C   2A37           04089         GOTO    ISRA02
                      04090 
Message[302]: Register in operand not in bank 0.  Ensure that bank bits are correct.
023D   0864           04091         MOVF    ICURSORX,0
Message[302]: Register in operand not in bank 0.  Ensure that bank bits are correct.
023E   00E5           04092         MOVWF   ISHCNT
                      04093 
023F                  04094 ISRA03
Message[305]: Using default destination of 1 (file).
Message[302]: Register in operand not in bank 0.  Ensure that bank bits are correct.
023F   0CA3           04095         RRF             IRAM + 03
Message[305]: Using default destination of 1 (file).
Message[302]: Register in operand not in bank 0.  Ensure that bank bits are correct.
0240   0CA7           04096         RRF             IRAM + 07
Message[305]: Using default destination of 1 (file).
Message[302]: Register in operand not in bank 0.  Ensure that bank bits are correct.
0241   0CAB           04097         RRF             IRAM + 0B
Message[305]: Using default destination of 1 (file).
Message[302]: Register in operand not in bank 0.  Ensure that bank bits are correct.
0242   0CAF           04098         RRF             IRAM + 0F
Message[305]: Using default destination of 1 (file).
Message[302]: Register in operand not in bank 0.  Ensure that bank bits are correct.
0243   0BE5           04099         DECFSZ  ISHCNT
0244   2A3F           04100         GOTO    ISRA03
                      04101 
Message[302]: Register in operand not in bank 0.  Ensure that bank bits are correct.
0245   0864           04102         MOVF    ICURSORX,0
Message[302]: Register in operand not in bank 0.  Ensure that bank bits are correct.
0246   00E5           04103         MOVWF   ISHCNT
                      04104 
0247                  04105 ISRA04
Message[305]: Using default destination of 1 (file).
Message[302]: Register in operand not in bank 0.  Ensure that bank bits are correct.
0247   0CD2           04106         RRF             IRAM + 32
Message[305]: Using default destination of 1 (file).
MPASM  5.51              HUB12_FONTSCROLL.ASM   5-20-2019  14:19:30         PAGE 92


LOC  OBJECT CODE     LINE SOURCE TEXT
  VALUE

Message[302]: Register in operand not in bank 0.  Ensure that bank bits are correct.
0248   0CD6           04107         RRF             IRAM + 36
Message[305]: Using default destination of 1 (file).
Message[302]: Register in operand not in bank 0.  Ensure that bank bits are correct.
0249   0CDA           04108         RRF             IRAM + 3A
Message[305]: Using default destination of 1 (file).
Message[302]: Register in operand not in bank 0.  Ensure that bank bits are correct.
024A   0CDE           04109         RRF             IRAM + 3E
Message[305]: Using default destination of 1 (file).
Message[302]: Register in operand not in bank 0.  Ensure that bank bits are correct.
024B   0BE5           04110         DECFSZ  ISHCNT
024C   2A47           04111         GOTO    ISRA04
                      04112 
Message[302]: Register in operand not in bank 0.  Ensure that bank bits are correct.
024D   0864           04113         MOVF    ICURSORX,0
Message[302]: Register in operand not in bank 0.  Ensure that bank bits are correct.
024E   00E5           04114         MOVWF   ISHCNT
                      04115 
024F                  04116 ISRA05
Message[305]: Using default destination of 1 (file).
Message[302]: Register in operand not in bank 0.  Ensure that bank bits are correct.
024F   0CC2           04117         RRF             IRAM + 22
Message[305]: Using default destination of 1 (file).
Message[302]: Register in operand not in bank 0.  Ensure that bank bits are correct.
0250   0CC6           04118         RRF             IRAM + 26
Message[305]: Using default destination of 1 (file).
Message[302]: Register in operand not in bank 0.  Ensure that bank bits are correct.
0251   0CCA           04119         RRF             IRAM + 2A
Message[305]: Using default destination of 1 (file).
Message[302]: Register in operand not in bank 0.  Ensure that bank bits are correct.
0252   0CCE           04120         RRF             IRAM + 2E
Message[305]: Using default destination of 1 (file).
Message[302]: Register in operand not in bank 0.  Ensure that bank bits are correct.
0253   0BE5           04121         DECFSZ  ISHCNT
0254   2A4F           04122         GOTO    ISRA05
                      04123 
Message[302]: Register in operand not in bank 0.  Ensure that bank bits are correct.
0255   0864           04124         MOVF    ICURSORX,0
Message[302]: Register in operand not in bank 0.  Ensure that bank bits are correct.
0256   00E5           04125         MOVWF   ISHCNT
                      04126 
0257                  04127 ISRA06
Message[305]: Using default destination of 1 (file).
Message[302]: Register in operand not in bank 0.  Ensure that bank bits are correct.
0257   0CB2           04128         RRF             IRAM + 12
Message[305]: Using default destination of 1 (file).
Message[302]: Register in operand not in bank 0.  Ensure that bank bits are correct.
0258   0CB6           04129         RRF             IRAM + 16
Message[305]: Using default destination of 1 (file).
Message[302]: Register in operand not in bank 0.  Ensure that bank bits are correct.
0259   0CBA           04130         RRF             IRAM + 1A
Message[305]: Using default destination of 1 (file).
Message[302]: Register in operand not in bank 0.  Ensure that bank bits are correct.
MPASM  5.51              HUB12_FONTSCROLL.ASM   5-20-2019  14:19:30         PAGE 93


LOC  OBJECT CODE     LINE SOURCE TEXT
  VALUE

025A   0CBE           04131         RRF             IRAM + 1E
Message[305]: Using default destination of 1 (file).
Message[302]: Register in operand not in bank 0.  Ensure that bank bits are correct.
025B   0BE5           04132         DECFSZ  ISHCNT
025C   2A57           04133         GOTO    ISRA06
                      04134 
                      04135 
Message[302]: Register in operand not in bank 0.  Ensure that bank bits are correct.
025D   0864           04136         MOVF    ICURSORX,0
Message[302]: Register in operand not in bank 0.  Ensure that bank bits are correct.
025E   00E5           04137         MOVWF   ISHCNT
                      04138 
025F                  04139 ISRA07
Message[305]: Using default destination of 1 (file).
Message[302]: Register in operand not in bank 0.  Ensure that bank bits are correct.
025F   0CA2           04140         RRF             IRAM + 02
Message[305]: Using default destination of 1 (file).
Message[302]: Register in operand not in bank 0.  Ensure that bank bits are correct.
0260   0CA6           04141         RRF             IRAM + 06
Message[305]: Using default destination of 1 (file).
Message[302]: Register in operand not in bank 0.  Ensure that bank bits are correct.
0261   0CAA           04142         RRF             IRAM + 0A
Message[305]: Using default destination of 1 (file).
Message[302]: Register in operand not in bank 0.  Ensure that bank bits are correct.
0262   0CAE           04143         RRF             IRAM + 0E
Message[305]: Using default destination of 1 (file).
Message[302]: Register in operand not in bank 0.  Ensure that bank bits are correct.
0263   0BE5           04144         DECFSZ  ISHCNT
0264   2A5F           04145         GOTO    ISRA07
                      04146 
Message[302]: Register in operand not in bank 0.  Ensure that bank bits are correct.
0265   0864           04147         MOVF    ICURSORX,0
Message[302]: Register in operand not in bank 0.  Ensure that bank bits are correct.
0266   00E5           04148         MOVWF   ISHCNT
Warning[203]: Found opcode in column 1. (RETURN)
0267   0008           04149 RETURN
0268                  04150 ISRA08_R1
Warning[211]: Extraneous arguments on the line.
0268   1403           04151         SETC    1
0269                  04152 ISRA08
Message[305]: Using default destination of 1 (file).
Message[302]: Register in operand not in bank 0.  Ensure that bank bits are correct.
0269   0CD1           04153         RRF             IRAM + 31
Message[305]: Using default destination of 1 (file).
Message[302]: Register in operand not in bank 0.  Ensure that bank bits are correct.
026A   0CD5           04154         RRF             IRAM + 35
Message[305]: Using default destination of 1 (file).
Message[302]: Register in operand not in bank 0.  Ensure that bank bits are correct.
026B   0CD9           04155         RRF             IRAM + 39
Message[305]: Using default destination of 1 (file).
Message[302]: Register in operand not in bank 0.  Ensure that bank bits are correct.
026C   0CDD           04156         RRF             IRAM + 3D
Message[305]: Using default destination of 1 (file).
MPASM  5.51              HUB12_FONTSCROLL.ASM   5-20-2019  14:19:30         PAGE 94


LOC  OBJECT CODE     LINE SOURCE TEXT
  VALUE

Message[302]: Register in operand not in bank 0.  Ensure that bank bits are correct.
026D   0BE5           04157         DECFSZ  ISHCNT
026E   2A69           04158         GOTO    ISRA08
                      04159 
Message[302]: Register in operand not in bank 0.  Ensure that bank bits are correct.
026F   0864           04160         MOVF    ICURSORX,0
Message[302]: Register in operand not in bank 0.  Ensure that bank bits are correct.
0270   00E5           04161         MOVWF   ISHCNT
                      04162 
0271                  04163 ISRA09
Message[305]: Using default destination of 1 (file).
Message[302]: Register in operand not in bank 0.  Ensure that bank bits are correct.
0271   0CC1           04164         RRF             IRAM + 21
Message[305]: Using default destination of 1 (file).
Message[302]: Register in operand not in bank 0.  Ensure that bank bits are correct.
0272   0CC5           04165         RRF             IRAM + 25
Message[305]: Using default destination of 1 (file).
Message[302]: Register in operand not in bank 0.  Ensure that bank bits are correct.
0273   0CC9           04166         RRF             IRAM + 29
Message[305]: Using default destination of 1 (file).
Message[302]: Register in operand not in bank 0.  Ensure that bank bits are correct.
0274   0CCD           04167         RRF             IRAM + 2D
Message[305]: Using default destination of 1 (file).
Message[302]: Register in operand not in bank 0.  Ensure that bank bits are correct.
0275   0BE5           04168         DECFSZ  ISHCNT
0276   2A71           04169         GOTO    ISRA09
                      04170         
Message[302]: Register in operand not in bank 0.  Ensure that bank bits are correct.
0277   0864           04171         MOVF    ICURSORX,0
Message[302]: Register in operand not in bank 0.  Ensure that bank bits are correct.
0278   00E5           04172         MOVWF   ISHCNT
                      04173 
0279                  04174 ISRA0A
Message[305]: Using default destination of 1 (file).
Message[302]: Register in operand not in bank 0.  Ensure that bank bits are correct.
0279   0CB1           04175         RRF             IRAM + 11
Message[305]: Using default destination of 1 (file).
Message[302]: Register in operand not in bank 0.  Ensure that bank bits are correct.
027A   0CB5           04176         RRF             IRAM + 15
Message[305]: Using default destination of 1 (file).
Message[302]: Register in operand not in bank 0.  Ensure that bank bits are correct.
027B   0CB9           04177         RRF             IRAM + 19
Message[305]: Using default destination of 1 (file).
Message[302]: Register in operand not in bank 0.  Ensure that bank bits are correct.
027C   0CBD           04178         RRF             IRAM + 1D
Message[305]: Using default destination of 1 (file).
Message[302]: Register in operand not in bank 0.  Ensure that bank bits are correct.
027D   0BE5           04179         DECFSZ  ISHCNT
027E   2A79           04180         GOTO    ISRA0A
                      04181 
Message[302]: Register in operand not in bank 0.  Ensure that bank bits are correct.
027F   0864           04182         MOVF    ICURSORX,0
Message[302]: Register in operand not in bank 0.  Ensure that bank bits are correct.
MPASM  5.51              HUB12_FONTSCROLL.ASM   5-20-2019  14:19:30         PAGE 95


LOC  OBJECT CODE     LINE SOURCE TEXT
  VALUE

0280   00E5           04183         MOVWF   ISHCNT
                      04184 
0281                  04185 ISRA0B
Message[305]: Using default destination of 1 (file).
Message[302]: Register in operand not in bank 0.  Ensure that bank bits are correct.
0281   0CA1           04186         RRF             IRAM + 01
Message[305]: Using default destination of 1 (file).
Message[302]: Register in operand not in bank 0.  Ensure that bank bits are correct.
0282   0CA5           04187         RRF             IRAM + 05
Message[305]: Using default destination of 1 (file).
Message[302]: Register in operand not in bank 0.  Ensure that bank bits are correct.
0283   0CA9           04188         RRF             IRAM + 09
Message[305]: Using default destination of 1 (file).
Message[302]: Register in operand not in bank 0.  Ensure that bank bits are correct.
0284   0CAD           04189         RRF             IRAM + 0D
Message[305]: Using default destination of 1 (file).
Message[302]: Register in operand not in bank 0.  Ensure that bank bits are correct.
0285   0BE5           04190         DECFSZ  ISHCNT
0286   2A81           04191         GOTO    ISRA0B
                      04192 
Message[302]: Register in operand not in bank 0.  Ensure that bank bits are correct.
0287   0864           04193         MOVF    ICURSORX,0
Message[302]: Register in operand not in bank 0.  Ensure that bank bits are correct.
0288   00E5           04194         MOVWF   ISHCNT
                      04195 
0289                  04196 ISRA0C
Message[305]: Using default destination of 1 (file).
Message[302]: Register in operand not in bank 0.  Ensure that bank bits are correct.
0289   0CD0           04197         RRF             IRAM + 30
Message[305]: Using default destination of 1 (file).
Message[302]: Register in operand not in bank 0.  Ensure that bank bits are correct.
028A   0CD4           04198         RRF             IRAM + 34
Message[305]: Using default destination of 1 (file).
Message[302]: Register in operand not in bank 0.  Ensure that bank bits are correct.
028B   0CD8           04199         RRF             IRAM + 38
Message[305]: Using default destination of 1 (file).
Message[302]: Register in operand not in bank 0.  Ensure that bank bits are correct.
028C   0CDC           04200         RRF             IRAM + 3C
Message[305]: Using default destination of 1 (file).
Message[302]: Register in operand not in bank 0.  Ensure that bank bits are correct.
028D   0BE5           04201         DECFSZ  ISHCNT
028E   2A89           04202         GOTO    ISRA0C
                      04203 
Message[302]: Register in operand not in bank 0.  Ensure that bank bits are correct.
028F   0864           04204         MOVF    ICURSORX,0
Message[302]: Register in operand not in bank 0.  Ensure that bank bits are correct.
0290   00E5           04205         MOVWF   ISHCNT
                      04206 
0291                  04207 ISRA0D
Message[305]: Using default destination of 1 (file).
Message[302]: Register in operand not in bank 0.  Ensure that bank bits are correct.
0291   0CC0           04208         RRF             IRAM + 20
Message[305]: Using default destination of 1 (file).
MPASM  5.51              HUB12_FONTSCROLL.ASM   5-20-2019  14:19:30         PAGE 96


LOC  OBJECT CODE     LINE SOURCE TEXT
  VALUE

Message[302]: Register in operand not in bank 0.  Ensure that bank bits are correct.
0292   0CC4           04209         RRF             IRAM + 24
Message[305]: Using default destination of 1 (file).
Message[302]: Register in operand not in bank 0.  Ensure that bank bits are correct.
0293   0CC8           04210         RRF             IRAM + 28
Message[305]: Using default destination of 1 (file).
Message[302]: Register in operand not in bank 0.  Ensure that bank bits are correct.
0294   0CCC           04211         RRF             IRAM + 2C
Message[305]: Using default destination of 1 (file).
Message[302]: Register in operand not in bank 0.  Ensure that bank bits are correct.
0295   0BE5           04212         DECFSZ  ISHCNT
0296   2A91           04213         GOTO    ISRA0D
                      04214 
Message[302]: Register in operand not in bank 0.  Ensure that bank bits are correct.
0297   0864           04215         MOVF    ICURSORX,0
Message[302]: Register in operand not in bank 0.  Ensure that bank bits are correct.
0298   00E5           04216         MOVWF   ISHCNT
                      04217 
0299                  04218 ISRA0E
Message[305]: Using default destination of 1 (file).
Message[302]: Register in operand not in bank 0.  Ensure that bank bits are correct.
0299   0CB0           04219         RRF             IRAM + 10
Message[305]: Using default destination of 1 (file).
Message[302]: Register in operand not in bank 0.  Ensure that bank bits are correct.
029A   0CB4           04220         RRF             IRAM + 14
Message[305]: Using default destination of 1 (file).
Message[302]: Register in operand not in bank 0.  Ensure that bank bits are correct.
029B   0CB8           04221         RRF             IRAM + 18
Message[305]: Using default destination of 1 (file).
Message[302]: Register in operand not in bank 0.  Ensure that bank bits are correct.
029C   0CBC           04222         RRF             IRAM + 1C
Message[305]: Using default destination of 1 (file).
Message[302]: Register in operand not in bank 0.  Ensure that bank bits are correct.
029D   0BE5           04223         DECFSZ  ISHCNT
029E   2A99           04224         GOTO    ISRA0E
                      04225         
Message[302]: Register in operand not in bank 0.  Ensure that bank bits are correct.
029F   0864           04226         MOVF    ICURSORX,0
Message[302]: Register in operand not in bank 0.  Ensure that bank bits are correct.
02A0   00E5           04227         MOVWF   ISHCNT
02A1                  04228 ISRA0F
Message[305]: Using default destination of 1 (file).
Message[302]: Register in operand not in bank 0.  Ensure that bank bits are correct.
02A1   0CA0           04229         RRF             IRAM + 00
Message[305]: Using default destination of 1 (file).
Message[302]: Register in operand not in bank 0.  Ensure that bank bits are correct.
02A2   0CA4           04230         RRF             IRAM + 04
Message[305]: Using default destination of 1 (file).
Message[302]: Register in operand not in bank 0.  Ensure that bank bits are correct.
02A3   0CA8           04231         RRF             IRAM + 08
Message[305]: Using default destination of 1 (file).
Message[302]: Register in operand not in bank 0.  Ensure that bank bits are correct.
02A4   0CAC           04232         RRF             IRAM + 0C
MPASM  5.51              HUB12_FONTSCROLL.ASM   5-20-2019  14:19:30         PAGE 97


LOC  OBJECT CODE     LINE SOURCE TEXT
  VALUE

Message[305]: Using default destination of 1 (file).
Message[302]: Register in operand not in bank 0.  Ensure that bank bits are correct.
02A5   0BE5           04233         DECFSZ  ISHCNT
02A6   2AA1           04234         GOTO    ISRA0F
                      04235 
Warning[203]: Found opcode in column 1. (RETURN)
02A7   0008           04236 RETURN
                      04237 
02A8                  04238 IGRP_B
                      04239 
                      04240 ;--------------------
Message[302]: Register in operand not in bank 0.  Ensure that bank bits are correct.
02A8   0864           04241         MOVFW   ICURSORX
Message[302]: Register in operand not in bank 0.  Ensure that bank bits are correct.
02A9   00E5           04242         MOVWF   ISHCNT
                      04243 
02AA   3001           04244         MOVLW   .1
Message[302]: Register in operand not in bank 0.  Ensure that bank bits are correct.
02AB   00E3           04245         MOVWF   ITESTER
                      04246 
Message[302]: Register in operand not in bank 0.  Ensure that bank bits are correct.
02AC   0866           04247         MOVFW   IROW
Message[302]: Register in operand not in bank 0.  Ensure that bank bits are correct.
02AD   0263           04248         SUBWF   ITESTER,W
02AE   1903           04249         BTFSC   STATUS,Z
02AF   2AEB           04250         GOTO    ISRB08
                      04251 
                      04252 
                      04253         
02B0                  04254 ISRB00
Warning[211]: Extraneous arguments on the line.
02B0   1403           04255         SETC    1
Message[305]: Using default destination of 1 (file).
Message[302]: Register in operand not in bank 0.  Ensure that bank bits are correct.
02B1   0CD3           04256         RRF             IRAM + 33
Message[305]: Using default destination of 1 (file).
Message[302]: Register in operand not in bank 0.  Ensure that bank bits are correct.
02B2   0CD7           04257         RRF             IRAM + 37
Message[305]: Using default destination of 1 (file).
Message[302]: Register in operand not in bank 0.  Ensure that bank bits are correct.
02B3   0CDB           04258         RRF             IRAM + 3B
                      04259 
Message[305]: Using default destination of 1 (file).
Message[302]: Register in operand not in bank 0.  Ensure that bank bits are correct.
02B4   0BE5           04260         DECFSZ  ISHCNT
02B5   2AB0           04261         GOTO    ISRB00
                      04262 
Message[302]: Register in operand not in bank 0.  Ensure that bank bits are correct.
02B6   0864           04263         MOVF    ICURSORX,0
Message[302]: Register in operand not in bank 0.  Ensure that bank bits are correct.
02B7   00E5           04264         MOVWF   ISHCNT
                      04265 
02B8                  04266 ISRB01
MPASM  5.51              HUB12_FONTSCROLL.ASM   5-20-2019  14:19:30         PAGE 98


LOC  OBJECT CODE     LINE SOURCE TEXT
  VALUE

Message[305]: Using default destination of 1 (file).
Message[302]: Register in operand not in bank 0.  Ensure that bank bits are correct.
02B8   0CC3           04267         RRF             IRAM + 23
Message[305]: Using default destination of 1 (file).
Message[302]: Register in operand not in bank 0.  Ensure that bank bits are correct.
02B9   0CC7           04268         RRF             IRAM + 27
Message[305]: Using default destination of 1 (file).
Message[302]: Register in operand not in bank 0.  Ensure that bank bits are correct.
02BA   0CCB           04269         RRF             IRAM + 2B
                      04270 
Message[305]: Using default destination of 1 (file).
Message[302]: Register in operand not in bank 0.  Ensure that bank bits are correct.
02BB   0BE5           04271         DECFSZ  ISHCNT
02BC   2AB8           04272         GOTO    ISRB01
                      04273 
Message[302]: Register in operand not in bank 0.  Ensure that bank bits are correct.
02BD   0864           04274         MOVF    ICURSORX,0
Message[302]: Register in operand not in bank 0.  Ensure that bank bits are correct.
02BE   00E5           04275         MOVWF   ISHCNT
                      04276 
02BF                  04277 ISRB02
Message[305]: Using default destination of 1 (file).
Message[302]: Register in operand not in bank 0.  Ensure that bank bits are correct.
02BF   0CB3           04278         RRF             IRAM + 13
Message[305]: Using default destination of 1 (file).
Message[302]: Register in operand not in bank 0.  Ensure that bank bits are correct.
02C0   0CB7           04279         RRF             IRAM + 17
Message[305]: Using default destination of 1 (file).
Message[302]: Register in operand not in bank 0.  Ensure that bank bits are correct.
02C1   0CBB           04280         RRF             IRAM + 1B
                      04281 
Message[305]: Using default destination of 1 (file).
Message[302]: Register in operand not in bank 0.  Ensure that bank bits are correct.
02C2   0BE5           04282         DECFSZ  ISHCNT
02C3   2ABF           04283         GOTO    ISRB02
                      04284 
Message[302]: Register in operand not in bank 0.  Ensure that bank bits are correct.
02C4   0864           04285         MOVF    ICURSORX,0
Message[302]: Register in operand not in bank 0.  Ensure that bank bits are correct.
02C5   00E5           04286         MOVWF   ISHCNT
                      04287 
02C6                  04288 ISRB03
Message[305]: Using default destination of 1 (file).
Message[302]: Register in operand not in bank 0.  Ensure that bank bits are correct.
02C6   0CA3           04289         RRF             IRAM + 03
Message[305]: Using default destination of 1 (file).
Message[302]: Register in operand not in bank 0.  Ensure that bank bits are correct.
02C7   0CA7           04290         RRF             IRAM + 07
Message[305]: Using default destination of 1 (file).
Message[302]: Register in operand not in bank 0.  Ensure that bank bits are correct.
02C8   0CAB           04291         RRF             IRAM + 0B
                      04292 
Message[305]: Using default destination of 1 (file).
MPASM  5.51              HUB12_FONTSCROLL.ASM   5-20-2019  14:19:30         PAGE 99


LOC  OBJECT CODE     LINE SOURCE TEXT
  VALUE

Message[302]: Register in operand not in bank 0.  Ensure that bank bits are correct.
02C9   0BE5           04293         DECFSZ  ISHCNT
02CA   2AC6           04294         GOTO    ISRB03
                      04295 
Message[302]: Register in operand not in bank 0.  Ensure that bank bits are correct.
02CB   0864           04296         MOVF    ICURSORX,0
Message[302]: Register in operand not in bank 0.  Ensure that bank bits are correct.
02CC   00E5           04297         MOVWF   ISHCNT
                      04298 
02CD                  04299 ISRB04
Message[305]: Using default destination of 1 (file).
Message[302]: Register in operand not in bank 0.  Ensure that bank bits are correct.
02CD   0CD2           04300         RRF             IRAM + 32
Message[305]: Using default destination of 1 (file).
Message[302]: Register in operand not in bank 0.  Ensure that bank bits are correct.
02CE   0CD6           04301         RRF             IRAM + 36
Message[305]: Using default destination of 1 (file).
Message[302]: Register in operand not in bank 0.  Ensure that bank bits are correct.
02CF   0CDA           04302         RRF             IRAM + 3A
                      04303 
Message[305]: Using default destination of 1 (file).
Message[302]: Register in operand not in bank 0.  Ensure that bank bits are correct.
02D0   0BE5           04304         DECFSZ  ISHCNT
02D1   2ACD           04305         GOTO    ISRB04
                      04306 
Message[302]: Register in operand not in bank 0.  Ensure that bank bits are correct.
02D2   0864           04307         MOVF    ICURSORX,0
Message[302]: Register in operand not in bank 0.  Ensure that bank bits are correct.
02D3   00E5           04308         MOVWF   ISHCNT
                      04309 
02D4                  04310 ISRB05
Message[305]: Using default destination of 1 (file).
Message[302]: Register in operand not in bank 0.  Ensure that bank bits are correct.
02D4   0CC2           04311         RRF             IRAM + 22
Message[305]: Using default destination of 1 (file).
Message[302]: Register in operand not in bank 0.  Ensure that bank bits are correct.
02D5   0CC6           04312         RRF             IRAM + 26
Message[305]: Using default destination of 1 (file).
Message[302]: Register in operand not in bank 0.  Ensure that bank bits are correct.
02D6   0CCA           04313         RRF             IRAM + 2A
                      04314 
Message[305]: Using default destination of 1 (file).
Message[302]: Register in operand not in bank 0.  Ensure that bank bits are correct.
02D7   0BE5           04315         DECFSZ  ISHCNT
02D8   2AD4           04316         GOTO    ISRB05
                      04317 
Message[302]: Register in operand not in bank 0.  Ensure that bank bits are correct.
02D9   0864           04318         MOVF    ICURSORX,0
Message[302]: Register in operand not in bank 0.  Ensure that bank bits are correct.
02DA   00E5           04319         MOVWF   ISHCNT
                      04320 
02DB                  04321 ISRB06
Message[305]: Using default destination of 1 (file).
MPASM  5.51              HUB12_FONTSCROLL.ASM   5-20-2019  14:19:30         PAGE 100


LOC  OBJECT CODE     LINE SOURCE TEXT
  VALUE

Message[302]: Register in operand not in bank 0.  Ensure that bank bits are correct.
02DB   0CB2           04322         RRF             IRAM + 12
Message[305]: Using default destination of 1 (file).
Message[302]: Register in operand not in bank 0.  Ensure that bank bits are correct.
02DC   0CB6           04323         RRF             IRAM + 16
Message[305]: Using default destination of 1 (file).
Message[302]: Register in operand not in bank 0.  Ensure that bank bits are correct.
02DD   0CBA           04324         RRF             IRAM + 1A
                      04325 
Message[305]: Using default destination of 1 (file).
Message[302]: Register in operand not in bank 0.  Ensure that bank bits are correct.
02DE   0BE5           04326         DECFSZ  ISHCNT
02DF   2ADB           04327         GOTO    ISRB06
                      04328 
                      04329 
Message[302]: Register in operand not in bank 0.  Ensure that bank bits are correct.
02E0   0864           04330         MOVF    ICURSORX,0
Message[302]: Register in operand not in bank 0.  Ensure that bank bits are correct.
02E1   00E5           04331         MOVWF   ISHCNT
                      04332 
02E2                  04333 ISRB07
Message[305]: Using default destination of 1 (file).
Message[302]: Register in operand not in bank 0.  Ensure that bank bits are correct.
02E2   0CA2           04334         RRF             IRAM + 02
Message[305]: Using default destination of 1 (file).
Message[302]: Register in operand not in bank 0.  Ensure that bank bits are correct.
02E3   0CA6           04335         RRF             IRAM + 06
Message[305]: Using default destination of 1 (file).
Message[302]: Register in operand not in bank 0.  Ensure that bank bits are correct.
02E4   0CAA           04336         RRF             IRAM + 0A
                      04337 
Message[305]: Using default destination of 1 (file).
Message[302]: Register in operand not in bank 0.  Ensure that bank bits are correct.
02E5   0BE5           04338         DECFSZ  ISHCNT
02E6   2AE2           04339         GOTO    ISRB07
                      04340 
Message[302]: Register in operand not in bank 0.  Ensure that bank bits are correct.
02E7   0864           04341         MOVF    ICURSORX,0
Message[302]: Register in operand not in bank 0.  Ensure that bank bits are correct.
02E8   00E5           04342         MOVWF   ISHCNT
Warning[203]: Found opcode in column 1. (RETURN)
02E9   0008           04343 RETURN
02EA                  04344 ISRB08_R1
Warning[211]: Extraneous arguments on the line.
02EA   1403           04345         SETC    1
02EB                  04346 ISRB08
Message[305]: Using default destination of 1 (file).
Message[302]: Register in operand not in bank 0.  Ensure that bank bits are correct.
02EB   0CD1           04347         RRF             IRAM + 31
Message[305]: Using default destination of 1 (file).
Message[302]: Register in operand not in bank 0.  Ensure that bank bits are correct.
02EC   0CD5           04348         RRF             IRAM + 35
Message[305]: Using default destination of 1 (file).
MPASM  5.51              HUB12_FONTSCROLL.ASM   5-20-2019  14:19:30         PAGE 101


LOC  OBJECT CODE     LINE SOURCE TEXT
  VALUE

Message[302]: Register in operand not in bank 0.  Ensure that bank bits are correct.
02ED   0CD9           04349         RRF             IRAM + 39
                      04350 
Message[305]: Using default destination of 1 (file).
Message[302]: Register in operand not in bank 0.  Ensure that bank bits are correct.
02EE   0BE5           04351         DECFSZ  ISHCNT
02EF   2AEB           04352         GOTO    ISRB08
                      04353 
Message[302]: Register in operand not in bank 0.  Ensure that bank bits are correct.
02F0   0864           04354         MOVF    ICURSORX,0
Message[302]: Register in operand not in bank 0.  Ensure that bank bits are correct.
02F1   00E5           04355         MOVWF   ISHCNT
                      04356 
02F2                  04357 ISRB09
Message[305]: Using default destination of 1 (file).
Message[302]: Register in operand not in bank 0.  Ensure that bank bits are correct.
02F2   0CC1           04358         RRF             IRAM + 21
Message[305]: Using default destination of 1 (file).
Message[302]: Register in operand not in bank 0.  Ensure that bank bits are correct.
02F3   0CC5           04359         RRF             IRAM + 25
Message[305]: Using default destination of 1 (file).
Message[302]: Register in operand not in bank 0.  Ensure that bank bits are correct.
02F4   0CC9           04360         RRF             IRAM + 29
                      04361 
Message[305]: Using default destination of 1 (file).
Message[302]: Register in operand not in bank 0.  Ensure that bank bits are correct.
02F5   0BE5           04362         DECFSZ  ISHCNT
02F6   2AF2           04363         GOTO    ISRB09
                      04364         
Message[302]: Register in operand not in bank 0.  Ensure that bank bits are correct.
02F7   0864           04365         MOVF    ICURSORX,0
Message[302]: Register in operand not in bank 0.  Ensure that bank bits are correct.
02F8   00E5           04366         MOVWF   ISHCNT
                      04367 
02F9                  04368 ISRB0A
Message[305]: Using default destination of 1 (file).
Message[302]: Register in operand not in bank 0.  Ensure that bank bits are correct.
02F9   0CB1           04369         RRF             IRAM + 11
Message[305]: Using default destination of 1 (file).
Message[302]: Register in operand not in bank 0.  Ensure that bank bits are correct.
02FA   0CB5           04370         RRF             IRAM + 15
Message[305]: Using default destination of 1 (file).
Message[302]: Register in operand not in bank 0.  Ensure that bank bits are correct.
02FB   0CB9           04371         RRF             IRAM + 19
                      04372 
Message[305]: Using default destination of 1 (file).
Message[302]: Register in operand not in bank 0.  Ensure that bank bits are correct.
02FC   0BE5           04373         DECFSZ  ISHCNT
02FD   2AF9           04374         GOTO    ISRB0A
                      04375 
Message[302]: Register in operand not in bank 0.  Ensure that bank bits are correct.
02FE   0864           04376         MOVF    ICURSORX,0
Message[302]: Register in operand not in bank 0.  Ensure that bank bits are correct.
MPASM  5.51              HUB12_FONTSCROLL.ASM   5-20-2019  14:19:30         PAGE 102


LOC  OBJECT CODE     LINE SOURCE TEXT
  VALUE

02FF   00E5           04377         MOVWF   ISHCNT
                      04378 
0300                  04379 ISRB0B
Message[305]: Using default destination of 1 (file).
Message[302]: Register in operand not in bank 0.  Ensure that bank bits are correct.
0300   0CA1           04380         RRF             IRAM + 01
Message[305]: Using default destination of 1 (file).
Message[302]: Register in operand not in bank 0.  Ensure that bank bits are correct.
0301   0CA5           04381         RRF             IRAM + 05
Message[305]: Using default destination of 1 (file).
Message[302]: Register in operand not in bank 0.  Ensure that bank bits are correct.
0302   0CA9           04382         RRF             IRAM + 09
                      04383 
Message[305]: Using default destination of 1 (file).
Message[302]: Register in operand not in bank 0.  Ensure that bank bits are correct.
0303   0BE5           04384         DECFSZ  ISHCNT
0304   2B00           04385         GOTO    ISRB0B
                      04386 
Message[302]: Register in operand not in bank 0.  Ensure that bank bits are correct.
0305   0864           04387         MOVF    ICURSORX,0
Message[302]: Register in operand not in bank 0.  Ensure that bank bits are correct.
0306   00E5           04388         MOVWF   ISHCNT
                      04389 
0307                  04390 ISRB0C
Message[305]: Using default destination of 1 (file).
Message[302]: Register in operand not in bank 0.  Ensure that bank bits are correct.
0307   0CD0           04391         RRF             IRAM + 30
Message[305]: Using default destination of 1 (file).
Message[302]: Register in operand not in bank 0.  Ensure that bank bits are correct.
0308   0CD4           04392         RRF             IRAM + 34
Message[305]: Using default destination of 1 (file).
Message[302]: Register in operand not in bank 0.  Ensure that bank bits are correct.
0309   0CD8           04393         RRF             IRAM + 38
                      04394 
Message[305]: Using default destination of 1 (file).
Message[302]: Register in operand not in bank 0.  Ensure that bank bits are correct.
030A   0BE5           04395         DECFSZ  ISHCNT
030B   2B07           04396         GOTO    ISRB0C
                      04397 
Message[302]: Register in operand not in bank 0.  Ensure that bank bits are correct.
030C   0864           04398         MOVF    ICURSORX,0
Message[302]: Register in operand not in bank 0.  Ensure that bank bits are correct.
030D   00E5           04399         MOVWF   ISHCNT
                      04400 
030E                  04401 ISRB0D
Message[305]: Using default destination of 1 (file).
Message[302]: Register in operand not in bank 0.  Ensure that bank bits are correct.
030E   0CC0           04402         RRF             IRAM + 20
Message[305]: Using default destination of 1 (file).
Message[302]: Register in operand not in bank 0.  Ensure that bank bits are correct.
030F   0CC4           04403         RRF             IRAM + 24
Message[305]: Using default destination of 1 (file).
Message[302]: Register in operand not in bank 0.  Ensure that bank bits are correct.
MPASM  5.51              HUB12_FONTSCROLL.ASM   5-20-2019  14:19:30         PAGE 103


LOC  OBJECT CODE     LINE SOURCE TEXT
  VALUE

0310   0CC8           04404         RRF             IRAM + 28
                      04405 
Message[305]: Using default destination of 1 (file).
Message[302]: Register in operand not in bank 0.  Ensure that bank bits are correct.
0311   0BE5           04406         DECFSZ  ISHCNT
0312   2B0E           04407         GOTO    ISRB0D
                      04408 
Message[302]: Register in operand not in bank 0.  Ensure that bank bits are correct.
0313   0864           04409         MOVF    ICURSORX,0
Message[302]: Register in operand not in bank 0.  Ensure that bank bits are correct.
0314   00E5           04410         MOVWF   ISHCNT
                      04411 
0315                  04412 ISRB0E
Message[305]: Using default destination of 1 (file).
Message[302]: Register in operand not in bank 0.  Ensure that bank bits are correct.
0315   0CB0           04413         RRF             IRAM + 10
Message[305]: Using default destination of 1 (file).
Message[302]: Register in operand not in bank 0.  Ensure that bank bits are correct.
0316   0CB4           04414         RRF             IRAM + 14
Message[305]: Using default destination of 1 (file).
Message[302]: Register in operand not in bank 0.  Ensure that bank bits are correct.
0317   0CB8           04415         RRF             IRAM + 18
                      04416 
Message[305]: Using default destination of 1 (file).
Message[302]: Register in operand not in bank 0.  Ensure that bank bits are correct.
0318   0BE5           04417         DECFSZ  ISHCNT
0319   2B15           04418         GOTO    ISRB0E
                      04419         
Message[302]: Register in operand not in bank 0.  Ensure that bank bits are correct.
031A   0864           04420         MOVF    ICURSORX,0
Message[302]: Register in operand not in bank 0.  Ensure that bank bits are correct.
031B   00E5           04421         MOVWF   ISHCNT
031C                  04422 ISRB0F
Message[305]: Using default destination of 1 (file).
Message[302]: Register in operand not in bank 0.  Ensure that bank bits are correct.
031C   0CA0           04423         RRF             IRAM + 00
Message[305]: Using default destination of 1 (file).
Message[302]: Register in operand not in bank 0.  Ensure that bank bits are correct.
031D   0CA4           04424         RRF             IRAM + 04
Message[305]: Using default destination of 1 (file).
Message[302]: Register in operand not in bank 0.  Ensure that bank bits are correct.
031E   0CA8           04425         RRF             IRAM + 08
                      04426 
Message[305]: Using default destination of 1 (file).
Message[302]: Register in operand not in bank 0.  Ensure that bank bits are correct.
031F   0BE5           04427         DECFSZ  ISHCNT
0320   2B1C           04428         GOTO    ISRB0F
                      04429 
Warning[203]: Found opcode in column 1. (RETURN)
0321   0008           04430 RETURN
                      04431 
                      04432 
0322                  04433 IGRP_C
MPASM  5.51              HUB12_FONTSCROLL.ASM   5-20-2019  14:19:30         PAGE 104


LOC  OBJECT CODE     LINE SOURCE TEXT
  VALUE

                      04434         ;--------------------
Message[302]: Register in operand not in bank 0.  Ensure that bank bits are correct.
0322   0864           04435         MOVFW   ICURSORX
Message[302]: Register in operand not in bank 0.  Ensure that bank bits are correct.
0323   00E5           04436         MOVWF   ISHCNT
                      04437 
0324   3001           04438         MOVLW   .1
Message[302]: Register in operand not in bank 0.  Ensure that bank bits are correct.
0325   00E3           04439         MOVWF   ITESTER
                      04440 
Message[302]: Register in operand not in bank 0.  Ensure that bank bits are correct.
0326   0866           04441         MOVFW   IROW
Message[302]: Register in operand not in bank 0.  Ensure that bank bits are correct.
0327   0263           04442         SUBWF   ITESTER,W
0328   1903           04443         BTFSC   STATUS,Z
0329   2B5D           04444         GOTO    ISRC08
                      04445 
                      04446 
                      04447         
032A                  04448 ISRC00
Warning[211]: Extraneous arguments on the line.
032A   1403           04449         SETC    1
Message[305]: Using default destination of 1 (file).
Message[302]: Register in operand not in bank 0.  Ensure that bank bits are correct.
032B   0CD3           04450         RRF             IRAM + 33
Message[305]: Using default destination of 1 (file).
Message[302]: Register in operand not in bank 0.  Ensure that bank bits are correct.
032C   0CD7           04451         RRF             IRAM + 37
                      04452 
                      04453 
Message[305]: Using default destination of 1 (file).
Message[302]: Register in operand not in bank 0.  Ensure that bank bits are correct.
032D   0BE5           04454         DECFSZ  ISHCNT
032E   2B2A           04455         GOTO    ISRC00
                      04456 
Message[302]: Register in operand not in bank 0.  Ensure that bank bits are correct.
032F   0864           04457         MOVF    ICURSORX,0
Message[302]: Register in operand not in bank 0.  Ensure that bank bits are correct.
0330   00E5           04458         MOVWF   ISHCNT
                      04459 
0331                  04460 ISRC01
Message[305]: Using default destination of 1 (file).
Message[302]: Register in operand not in bank 0.  Ensure that bank bits are correct.
0331   0CC3           04461         RRF             IRAM + 23
Message[305]: Using default destination of 1 (file).
Message[302]: Register in operand not in bank 0.  Ensure that bank bits are correct.
0332   0CC7           04462         RRF             IRAM + 27
                      04463 
                      04464 
Message[305]: Using default destination of 1 (file).
Message[302]: Register in operand not in bank 0.  Ensure that bank bits are correct.
0333   0BE5           04465         DECFSZ  ISHCNT
0334   2B31           04466         GOTO    ISRC01
MPASM  5.51              HUB12_FONTSCROLL.ASM   5-20-2019  14:19:30         PAGE 105


LOC  OBJECT CODE     LINE SOURCE TEXT
  VALUE

                      04467 
Message[302]: Register in operand not in bank 0.  Ensure that bank bits are correct.
0335   0864           04468         MOVF    ICURSORX,0
Message[302]: Register in operand not in bank 0.  Ensure that bank bits are correct.
0336   00E5           04469         MOVWF   ISHCNT
                      04470 
0337                  04471 ISRC02
Message[305]: Using default destination of 1 (file).
Message[302]: Register in operand not in bank 0.  Ensure that bank bits are correct.
0337   0CB3           04472         RRF             IRAM + 13
Message[305]: Using default destination of 1 (file).
Message[302]: Register in operand not in bank 0.  Ensure that bank bits are correct.
0338   0CB7           04473         RRF             IRAM + 17
                      04474 
                      04475 
Message[305]: Using default destination of 1 (file).
Message[302]: Register in operand not in bank 0.  Ensure that bank bits are correct.
0339   0BE5           04476         DECFSZ  ISHCNT
033A   2B37           04477         GOTO    ISRC02
                      04478 
Message[302]: Register in operand not in bank 0.  Ensure that bank bits are correct.
033B   0864           04479         MOVF    ICURSORX,0
Message[302]: Register in operand not in bank 0.  Ensure that bank bits are correct.
033C   00E5           04480         MOVWF   ISHCNT
                      04481 
033D                  04482 ISRC03
Message[305]: Using default destination of 1 (file).
Message[302]: Register in operand not in bank 0.  Ensure that bank bits are correct.
033D   0CA3           04483         RRF             IRAM + 03
Message[305]: Using default destination of 1 (file).
Message[302]: Register in operand not in bank 0.  Ensure that bank bits are correct.
033E   0CA7           04484         RRF             IRAM + 07
                      04485 
                      04486 
Message[305]: Using default destination of 1 (file).
Message[302]: Register in operand not in bank 0.  Ensure that bank bits are correct.
033F   0BE5           04487         DECFSZ  ISHCNT
0340   2B3D           04488         GOTO    ISRC03
                      04489 
Message[302]: Register in operand not in bank 0.  Ensure that bank bits are correct.
0341   0864           04490         MOVF    ICURSORX,0
Message[302]: Register in operand not in bank 0.  Ensure that bank bits are correct.
0342   00E5           04491         MOVWF   ISHCNT
                      04492 
0343                  04493 ISRC04
Message[305]: Using default destination of 1 (file).
Message[302]: Register in operand not in bank 0.  Ensure that bank bits are correct.
0343   0CD2           04494         RRF             IRAM + 32
Message[305]: Using default destination of 1 (file).
Message[302]: Register in operand not in bank 0.  Ensure that bank bits are correct.
0344   0CD6           04495         RRF             IRAM + 36
                      04496 
                      04497 
MPASM  5.51              HUB12_FONTSCROLL.ASM   5-20-2019  14:19:30         PAGE 106


LOC  OBJECT CODE     LINE SOURCE TEXT
  VALUE

Message[305]: Using default destination of 1 (file).
Message[302]: Register in operand not in bank 0.  Ensure that bank bits are correct.
0345   0BE5           04498         DECFSZ  ISHCNT
0346   2B43           04499         GOTO    ISRC04
                      04500 
Message[302]: Register in operand not in bank 0.  Ensure that bank bits are correct.
0347   0864           04501         MOVF    ICURSORX,0
Message[302]: Register in operand not in bank 0.  Ensure that bank bits are correct.
0348   00E5           04502         MOVWF   ISHCNT
                      04503 
0349                  04504 ISRC05
Message[305]: Using default destination of 1 (file).
Message[302]: Register in operand not in bank 0.  Ensure that bank bits are correct.
0349   0CC2           04505         RRF             IRAM + 22
Message[305]: Using default destination of 1 (file).
Message[302]: Register in operand not in bank 0.  Ensure that bank bits are correct.
034A   0CC6           04506         RRF             IRAM + 26
                      04507 
                      04508 
Message[305]: Using default destination of 1 (file).
Message[302]: Register in operand not in bank 0.  Ensure that bank bits are correct.
034B   0BE5           04509         DECFSZ  ISHCNT
034C   2B49           04510         GOTO    ISRC05
                      04511 
Message[302]: Register in operand not in bank 0.  Ensure that bank bits are correct.
034D   0864           04512         MOVF    ICURSORX,0
Message[302]: Register in operand not in bank 0.  Ensure that bank bits are correct.
034E   00E5           04513         MOVWF   ISHCNT
                      04514 
034F                  04515 ISRC06
Message[305]: Using default destination of 1 (file).
Message[302]: Register in operand not in bank 0.  Ensure that bank bits are correct.
034F   0CB2           04516         RRF             IRAM + 12
Message[305]: Using default destination of 1 (file).
Message[302]: Register in operand not in bank 0.  Ensure that bank bits are correct.
0350   0CB6           04517         RRF             IRAM + 16
                      04518 
                      04519 
Message[305]: Using default destination of 1 (file).
Message[302]: Register in operand not in bank 0.  Ensure that bank bits are correct.
0351   0BE5           04520         DECFSZ  ISHCNT
0352   2B4F           04521         GOTO    ISRC06
                      04522 
                      04523 
Message[302]: Register in operand not in bank 0.  Ensure that bank bits are correct.
0353   0864           04524         MOVF    ICURSORX,0
Message[302]: Register in operand not in bank 0.  Ensure that bank bits are correct.
0354   00E5           04525         MOVWF   ISHCNT
                      04526 
0355                  04527 ISRC07
Message[305]: Using default destination of 1 (file).
Message[302]: Register in operand not in bank 0.  Ensure that bank bits are correct.
0355   0CA2           04528         RRF             IRAM + 02
MPASM  5.51              HUB12_FONTSCROLL.ASM   5-20-2019  14:19:30         PAGE 107


LOC  OBJECT CODE     LINE SOURCE TEXT
  VALUE

Message[305]: Using default destination of 1 (file).
Message[302]: Register in operand not in bank 0.  Ensure that bank bits are correct.
0356   0CA6           04529         RRF             IRAM + 06
                      04530 
                      04531 
Message[305]: Using default destination of 1 (file).
Message[302]: Register in operand not in bank 0.  Ensure that bank bits are correct.
0357   0BE5           04532         DECFSZ  ISHCNT
0358   2B55           04533         GOTO    ISRC07
                      04534 
Message[302]: Register in operand not in bank 0.  Ensure that bank bits are correct.
0359   0864           04535         MOVF    ICURSORX,0
Message[302]: Register in operand not in bank 0.  Ensure that bank bits are correct.
035A   00E5           04536         MOVWF   ISHCNT
Warning[203]: Found opcode in column 1. (RETURN)
035B   0008           04537 RETURN
035C                  04538 ISRC08_R1
Warning[211]: Extraneous arguments on the line.
035C   1403           04539         SETC    1
035D                  04540 ISRC08
Message[305]: Using default destination of 1 (file).
Message[302]: Register in operand not in bank 0.  Ensure that bank bits are correct.
035D   0CD1           04541         RRF             IRAM + 31
Message[305]: Using default destination of 1 (file).
Message[302]: Register in operand not in bank 0.  Ensure that bank bits are correct.
035E   0CD5           04542         RRF             IRAM + 35
                      04543 
                      04544 
Message[305]: Using default destination of 1 (file).
Message[302]: Register in operand not in bank 0.  Ensure that bank bits are correct.
035F   0BE5           04545         DECFSZ  ISHCNT
0360   2B5D           04546         GOTO    ISRC08
                      04547 
Message[302]: Register in operand not in bank 0.  Ensure that bank bits are correct.
0361   0864           04548         MOVF    ICURSORX,0
Message[302]: Register in operand not in bank 0.  Ensure that bank bits are correct.
0362   00E5           04549         MOVWF   ISHCNT
                      04550 
0363                  04551 ISRC09
Message[305]: Using default destination of 1 (file).
Message[302]: Register in operand not in bank 0.  Ensure that bank bits are correct.
0363   0CC1           04552         RRF             IRAM + 21
Message[305]: Using default destination of 1 (file).
Message[302]: Register in operand not in bank 0.  Ensure that bank bits are correct.
0364   0CC5           04553         RRF             IRAM + 25
                      04554 
                      04555 
Message[305]: Using default destination of 1 (file).
Message[302]: Register in operand not in bank 0.  Ensure that bank bits are correct.
0365   0BE5           04556         DECFSZ  ISHCNT
0366   2B63           04557         GOTO    ISRC09
                      04558         
Message[302]: Register in operand not in bank 0.  Ensure that bank bits are correct.
MPASM  5.51              HUB12_FONTSCROLL.ASM   5-20-2019  14:19:30         PAGE 108


LOC  OBJECT CODE     LINE SOURCE TEXT
  VALUE

0367   0864           04559         MOVF    ICURSORX,0
Message[302]: Register in operand not in bank 0.  Ensure that bank bits are correct.
0368   00E5           04560         MOVWF   ISHCNT
                      04561 
0369                  04562 ISRC0A
Message[305]: Using default destination of 1 (file).
Message[302]: Register in operand not in bank 0.  Ensure that bank bits are correct.
0369   0CB1           04563         RRF             IRAM + 11
Message[305]: Using default destination of 1 (file).
Message[302]: Register in operand not in bank 0.  Ensure that bank bits are correct.
036A   0CB5           04564         RRF             IRAM + 15
                      04565 
                      04566 
Message[305]: Using default destination of 1 (file).
Message[302]: Register in operand not in bank 0.  Ensure that bank bits are correct.
036B   0BE5           04567         DECFSZ  ISHCNT
036C   2B69           04568         GOTO    ISRC0A
                      04569 
Message[302]: Register in operand not in bank 0.  Ensure that bank bits are correct.
036D   0864           04570         MOVF    ICURSORX,0
Message[302]: Register in operand not in bank 0.  Ensure that bank bits are correct.
036E   00E5           04571         MOVWF   ISHCNT
                      04572 
036F                  04573 ISRC0B
Message[305]: Using default destination of 1 (file).
Message[302]: Register in operand not in bank 0.  Ensure that bank bits are correct.
036F   0CA1           04574         RRF             IRAM + 01
Message[305]: Using default destination of 1 (file).
Message[302]: Register in operand not in bank 0.  Ensure that bank bits are correct.
0370   0CA5           04575         RRF             IRAM + 05
                      04576 
                      04577 
Message[305]: Using default destination of 1 (file).
Message[302]: Register in operand not in bank 0.  Ensure that bank bits are correct.
0371   0BE5           04578         DECFSZ  ISHCNT
0372   2B6F           04579         GOTO    ISRC0B
                      04580 
Message[302]: Register in operand not in bank 0.  Ensure that bank bits are correct.
0373   0864           04581         MOVF    ICURSORX,0
Message[302]: Register in operand not in bank 0.  Ensure that bank bits are correct.
0374   00E5           04582         MOVWF   ISHCNT
                      04583 
0375                  04584 ISRC0C
Message[305]: Using default destination of 1 (file).
Message[302]: Register in operand not in bank 0.  Ensure that bank bits are correct.
0375   0CD0           04585         RRF             IRAM + 30
Message[305]: Using default destination of 1 (file).
Message[302]: Register in operand not in bank 0.  Ensure that bank bits are correct.
0376   0CD4           04586         RRF             IRAM + 34
                      04587 
                      04588 
Message[305]: Using default destination of 1 (file).
Message[302]: Register in operand not in bank 0.  Ensure that bank bits are correct.
MPASM  5.51              HUB12_FONTSCROLL.ASM   5-20-2019  14:19:30         PAGE 109


LOC  OBJECT CODE     LINE SOURCE TEXT
  VALUE

0377   0BE5           04589         DECFSZ  ISHCNT
0378   2B75           04590         GOTO    ISRC0C
                      04591 
Message[302]: Register in operand not in bank 0.  Ensure that bank bits are correct.
0379   0864           04592         MOVF    ICURSORX,0
Message[302]: Register in operand not in bank 0.  Ensure that bank bits are correct.
037A   00E5           04593         MOVWF   ISHCNT
                      04594 
037B                  04595 ISRC0D
Message[305]: Using default destination of 1 (file).
Message[302]: Register in operand not in bank 0.  Ensure that bank bits are correct.
037B   0CC0           04596         RRF             IRAM + 20
Message[305]: Using default destination of 1 (file).
Message[302]: Register in operand not in bank 0.  Ensure that bank bits are correct.
037C   0CC4           04597         RRF             IRAM + 24
                      04598 
                      04599 
Message[305]: Using default destination of 1 (file).
Message[302]: Register in operand not in bank 0.  Ensure that bank bits are correct.
037D   0BE5           04600         DECFSZ  ISHCNT
037E   2B7B           04601         GOTO    ISRC0D
                      04602 
Message[302]: Register in operand not in bank 0.  Ensure that bank bits are correct.
037F   0864           04603         MOVF    ICURSORX,0
Message[302]: Register in operand not in bank 0.  Ensure that bank bits are correct.
0380   00E5           04604         MOVWF   ISHCNT
                      04605 
0381                  04606 ISRC0E
Message[305]: Using default destination of 1 (file).
Message[302]: Register in operand not in bank 0.  Ensure that bank bits are correct.
0381   0CB0           04607         RRF             IRAM + 10
Message[305]: Using default destination of 1 (file).
Message[302]: Register in operand not in bank 0.  Ensure that bank bits are correct.
0382   0CB4           04608         RRF             IRAM + 14
                      04609 
                      04610 
Message[305]: Using default destination of 1 (file).
Message[302]: Register in operand not in bank 0.  Ensure that bank bits are correct.
0383   0BE5           04611         DECFSZ  ISHCNT
0384   2B81           04612         GOTO    ISRC0E
                      04613         
Message[302]: Register in operand not in bank 0.  Ensure that bank bits are correct.
0385   0864           04614         MOVF    ICURSORX,0
Message[302]: Register in operand not in bank 0.  Ensure that bank bits are correct.
0386   00E5           04615         MOVWF   ISHCNT
0387                  04616 ISRC0F
Message[305]: Using default destination of 1 (file).
Message[302]: Register in operand not in bank 0.  Ensure that bank bits are correct.
0387   0CA0           04617         RRF             IRAM + 00
Message[305]: Using default destination of 1 (file).
Message[302]: Register in operand not in bank 0.  Ensure that bank bits are correct.
0388   0CA4           04618         RRF             IRAM + 04
                      04619 
MPASM  5.51              HUB12_FONTSCROLL.ASM   5-20-2019  14:19:30         PAGE 110


LOC  OBJECT CODE     LINE SOURCE TEXT
  VALUE

                      04620 
Message[305]: Using default destination of 1 (file).
Message[302]: Register in operand not in bank 0.  Ensure that bank bits are correct.
0389   0BE5           04621         DECFSZ  ISHCNT
038A   2B87           04622         GOTO    ISRC0F
                      04623 
Warning[203]: Found opcode in column 1. (RETURN)
038B   0008           04624 RETURN
                      04625 
038C                  04626 IGRP_D
                      04627 
038C   0000           04628         NOP
038D   0000           04629         NOP
                      04630 
Warning[203]: Found opcode in column 1. (RETURN)
038E   0008           04631 RETURN
                      04632 
2100                  04633         ORG     0x2100                          ; data EEPROM location
2100   0001 0002 0003 04634         DE      1,2,3,4                         ; define first four EEPROM locations as 1, 2, 3, and 4
       0004 
                      04635 
                      04636 
                      04637 
                      04638 
                      04639         END                       ; directive 'end of program'
MPASM  5.51              HUB12_FONTSCROLL.ASM   5-20-2019  14:19:30         PAGE 111


SYMBOL TABLE
  LABEL                             VALUE 

.                                 00000000
ABDEN                             00000000
ABDOVF                            00000007
ADCON0                            0000001F
ADCON1                            0000009F
ADCS0                             00000004
ADCS1                             00000005
ADCS2                             00000006
ADDEN                             00000003
ADFM                              00000007
ADIE                              00000006
ADIF                              00000006
ADON                              00000000
ADRESH                            0000001E
ADRESL                            0000009E
ANS0                              00000000
ANS1                              00000001
ANS10                             00000002
ANS11                             00000003
ANS2                              00000002
ANS3                              00000003
ANS4                              00000004
ANS5                              00000005
ANS6                              00000006
ANS7                              00000007
ANS8                              00000000
ANS9                              00000001
ANSEL                             0000011E
ANSELH                            0000011F
A_OFF                             BCF     PORTC,  0
A_ON                              BSF     PORTC,  0
BANK0                             BANKSEL PORTA
BANK1                             BANKSEL ADRESL
BAUDCTL                           0000009B
BF                                00000000
BRG0                              00000000
BRG1                              00000001
BRG10                             00000002
BRG11                             00000003
BRG12                             00000004
BRG13                             00000005
BRG14                             00000006
BRG15                             00000007
BRG16                             00000003
BRG2                              00000002
BRG3                              00000003
BRG4                              00000004
BRG5                              00000005
BRG6                              00000006
BRG7                              00000007
BRG8                              00000000
BRG9                              00000001
BRGH                              00000002
MPASM  5.51              HUB12_FONTSCROLL.ASM   5-20-2019  14:19:30         PAGE 112


SYMBOL TABLE
  LABEL                             VALUE 

BTCOUNT                           00000074
B_OFF                             BCF     PORTC,  1
B_ON                              BSF     PORTC,  1
C                                 00000000
C1CH0                             00000000
C1CH1                             00000001
C1IE                              00000005
C1IF                              00000005
C1OE                              00000005
C1ON                              00000007
C1OUT                             00000006
C1POL                             00000004
C1R                               00000002
C1SEN                             00000005
C1VREN                            00000007
C2CH0                             00000000
C2CH1                             00000001
C2IE                              00000006
C2IF                              00000006
C2OE                              00000005
C2ON                              00000007
C2OUT                             00000006
C2POL                             00000004
C2R                               00000002
C2REN                             00000004
C2SYNC                            00000000
C2VREN                            00000006
CCP1CON                           00000017
CCP1IE                            00000002
CCP1IF                            00000002
CCP1M0                            00000000
CCP1M1                            00000001
CCP1M2                            00000002
CCP1M3                            00000003
CCPR                              00000015
CCPR1H                            00000016
CCPR1L                            00000015
CHAR                              00000800
CHS0                              00000002
CHS1                              00000003
CHS2                              00000004
CHS3                              00000005
CKE                               00000006
CKP                               00000004
CLK_OFF                           BCF     PORTC,  7
CLK_ON                            BSF     PORTC,  7
CLRAM                             0000014C
CLR_IRAM                          0000003E
CM1CON0                           00000119
CM2CON0                           0000011A
CM2CON1                           0000011B
CMD_CLR_IRAM                      00000D00
COUNT                             00000025
MPASM  5.51              HUB12_FONTSCROLL.ASM   5-20-2019  14:19:30         PAGE 113


SYMBOL TABLE
  LABEL                             VALUE 

COUNT0                            00000025
COUNT1                            00000026
COUNT2                            00000027
COUNT3                            00000028
COUNT4                            0000006E
CREN                              00000004
CSRC                              00000007
CURSORX                           0000006F
CURSORY                           00000070
D                                 00000005
D0                                00000141
D1                                00000143
DATALATCH                         00000136
DATA_ADDRESS                      00000005
DAT_OFF                           BCF     PORTC,  2
DAT_ON                            BSF     PORTC,  2
DC                                00000001
DC1B0                             00000004
DC1B1                             00000005
DELAYMS                           00000021
DELAYS                            00000022
DELAYUS                           00000020
DELAY_MS                          00000167
DELAY_ONEMS                       00000160
DELAY_ONESEC                      0000016C
DELAY_SEC                         00000173
DELAY_US                          00000158
DISP                              00000037
DISP0                             00000039
DISPLAY                           0000010B
DL0                               0000013D
DL1                               00000145
DRAM                              0000002C
DRM0                              00000150
DSHIFT_DOWN_GRPA                  00000F14
DSHIFT_DOWN_GRPB                  00000F5E
DSHIFT_DOWN_GRPC                  00000400
DSP0                              0000010F
DSP1                              00000119
DSP2                              00000123
DSP3                              0000012D
DUMP                              00000044
D_A                               00000005
D_NOT_A                           00000005
ECCPAS                            0000001D
ECCPAS0                           00000004
ECCPAS1                           00000005
ECCPAS2                           00000006
ECCPASE                           00000007
EEADR                             0000010D
EEADRH                            0000010F
EECON1                            0000018C
EECON2                            0000018D
MPASM  5.51              HUB12_FONTSCROLL.ASM   5-20-2019  14:19:30         PAGE 114


SYMBOL TABLE
  LABEL                             VALUE 

EEDAT                             0000010C
EEDATA                            0000010C
EEDATH                            0000010E
EEIE                              00000004
EEIF                              00000004
EEPGD                             00000007
EIGHT                             000008A6
F                                 00000001
FERR                              00000002
FIVE                              0000086D
FONT                              0000002B
FONT_0                            0000004B
FONT_1                            00000083
FONT_2                            000000A3
FOUR                              0000085A
FSR                               00000004
GIE                               00000007
GO                                00000001
GO_DONE                           00000001
GO_NOT_DONE                       00000001
GRP                               00000071
GRP_A                             0000051C
GRP_B                             000005A6
GRP_C                             00000620
GRP_D                             0000068A
HTS                               00000002
I2C_DATA                          00000005
I2C_READ                          00000002
I2C_START                         00000003
I2C_STOP                          00000004
ICOUNT                            000000E2
ICURSORX                          000000E4
IDUMP                             00000D0D
IFONT_0                           00000D14
IFONT_1                           00000D50
IFONT_2                           00000D74
IGRP_A                            0000021E
IGRP_B                            000002A8
IGRP_C                            00000322
IGRP_D                            0000038C
INDF                              00000000
INIT                              00000010
INTCON                            0000000B
INTE                              00000004
INTEDG                            00000006
INTF                              00000001
IOC                               00000096
IOC0                              00000000
IOC1                              00000001
IOC2                              00000002
IOC3                              00000003
IOC4                              00000004
IOC5                              00000005
MPASM  5.51              HUB12_FONTSCROLL.ASM   5-20-2019  14:19:30         PAGE 115


SYMBOL TABLE
  LABEL                             VALUE 

IOCA                              00000096
IOCA0                             00000000
IOCA1                             00000001
IOCA2                             00000002
IOCA3                             00000003
IOCA4                             00000004
IOCA5                             00000005
IOCB                              00000116
IOCB4                             00000004
IOCB5                             00000005
IOCB6                             00000006
IOCB7                             00000007
IPOINTER                          000000E0
IPT                               000000E7
IRAM                              000000A0
IRCF0                             00000004
IRCF1                             00000005
IRCF2                             00000006
IRM0                              00000D06
IROW                              000000E6
IRP                               00000007
ISCRL_DOWN_GRPA                   00000F00
ISHCNT                            000000E5
ISHIFTR                           00000200
ISHIFT_DOWN_GRPA                  00000F37
ISHIFT_DOWN_GRPB                  00000F81
ISHIFT_DOWN_GRPC                  00000423
ISRA00                            00000226
ISRA01                            0000022F
ISRA02                            00000237
ISRA03                            0000023F
ISRA04                            00000247
ISRA05                            0000024F
ISRA06                            00000257
ISRA07                            0000025F
ISRA08                            00000269
ISRA08_R1                         00000268
ISRA09                            00000271
ISRA0A                            00000279
ISRA0B                            00000281
ISRA0C                            00000289
ISRA0D                            00000291
ISRA0E                            00000299
ISRA0F                            000002A1
ISRB00                            000002B0
ISRB01                            000002B8
ISRB02                            000002BF
ISRB03                            000002C6
ISRB04                            000002CD
ISRB05                            000002D4
ISRB06                            000002DB
ISRB07                            000002E2
ISRB08                            000002EB
MPASM  5.51              HUB12_FONTSCROLL.ASM   5-20-2019  14:19:30         PAGE 116


SYMBOL TABLE
  LABEL                             VALUE 

ISRB08_R1                         000002EA
ISRB09                            000002F2
ISRB0A                            000002F9
ISRB0B                            00000300
ISRB0C                            00000307
ISRB0D                            0000030E
ISRB0E                            00000315
ISRB0F                            0000031C
ISRC00                            0000032A
ISRC01                            00000331
ISRC02                            00000337
ISRC03                            0000033D
ISRC04                            00000343
ISRC05                            00000349
ISRC06                            0000034F
ISRC07                            00000355
ISRC08                            0000035D
ISRC08_R1                         0000035C
ISRC09                            00000363
ISRC0A                            00000369
ISRC0B                            0000036F
ISRC0C                            00000375
ISRC0D                            0000037B
ISRC0E                            00000381
ISRC0F                            00000387
ITESTER                           000000E3
IWIDTH                            000000E1
LTS                               00000001
L_CHAR                            00000900
L_EIGHT                           00000964
L_FIVE                            00000943
L_FOUR                            00000938
L_NINE                            0000096F
L_ONE                             00000917
L_SEVEN                           00000959
L_SIX                             0000094E
L_THREE                           0000092D
L_TWO                             00000922
L_ZERO                            0000090C
MAIN                              0000001C
MAN0                              0000072C
MAN1                              00000711
MAN2                              00000709
MC1OUT                            00000007
MC2OUT                            00000006
MILSEC                            00000023
MIN0                              00000029
MSEC                              00000162
MSEC0                             00000168
MSK                               00000093
MSK0                              00000000
MSK1                              00000001
MSK2                              00000002
MPASM  5.51              HUB12_FONTSCROLL.ASM   5-20-2019  14:19:30         PAGE 117


SYMBOL TABLE
  LABEL                             VALUE 

MSK3                              00000003
MSK4                              00000004
MSK5                              00000005
MSK6                              00000006
MSK7                              00000007
NEXTPAGE                          00000A0C
NINE                              000008B9
NOT_A                             00000005
NOT_ADDRESS                       00000005
NOT_BOR                           00000000
NOT_DONE                          00000001
NOT_PD                            00000003
NOT_POR                           00000001
NOT_RABPU                         00000007
NOT_T1SYNC                        00000002
NOT_TO                            00000004
NOT_W                             00000002
NOT_WRITE                         00000002
NUMBER                            00000073
OERR                              00000001
OE_OFF                            BCF     PORTC,  5
OE_ON                             BSF     PORTC,  5
ONE                               00000821
OPTION_REG                        00000081
OSCCON                            0000008F
OSCTUNE                           00000090
OSFIE                             00000007
OSFIF                             00000007
OSTS                              00000003
P                                 00000004
P1M0                              00000006
P1M1                              00000007
PCL                               00000002
PCLATH                            0000000A
PCON                              0000008E
PDC0                              00000000
PDC1                              00000001
PDC2                              00000002
PDC3                              00000003
PDC4                              00000004
PDC5                              00000005
PDC6                              00000006
PEIE                              00000006
PIE1                              0000008C
PIE2                              0000008D
PIR1                              0000000C
PIR2                              0000000D
POINTER                           0000006C
PORTA                             00000005
PORTB                             00000006
PORTC                             00000007
PR2                               00000092
PRSEN                             00000007
MPASM  5.51              HUB12_FONTSCROLL.ASM   5-20-2019  14:19:30         PAGE 118


SYMBOL TABLE
  LABEL                             VALUE 

PS0                               00000000
PS1                               00000001
PS2                               00000002
PSA                               00000003
PSSAC0                            00000002
PSSAC1                            00000003
PSSBD0                            00000000
PSSBD1                            00000001
PSTRCON                           0000019D
PTTEN                             00000079
PULSR                             00000002
PULSS                             00000003
PWM1CON                           0000001C
R                                 00000002
RA0                               00000000
RA1                               00000001
RA2                               00000002
RA3                               00000003
RA4                               00000004
RA5                               00000005
RABIE                             00000003
RABIF                             00000000
RB4                               00000004
RB5                               00000005
RB6                               00000006
RB7                               00000007
RC0                               00000000
RC1                               00000001
RC2                               00000002
RC3                               00000003
RC4                               00000004
RC5                               00000005
RC6                               00000006
RC7                               00000007
RCIDL                             00000006
RCIE                              00000005
RCIF                              00000005
RCREG                             0000001A
RCSTA                             00000018
RD                                00000000
READ_WRITE                        00000002
REG_OFF                           BCF     PORTC,  4
REG_ON                            BSF     PORTC,  4
ROW                               00000077
RP0                               00000005
RP1                               00000006
RX9                               00000006
RX9D                              00000000
R_NOT_W                           00000002
R_W                               00000002
S                                 00000003
SBOREN                            00000004
SCKP                              00000004
MPASM  5.51              HUB12_FONTSCROLL.ASM   5-20-2019  14:19:30         PAGE 119


SYMBOL TABLE
  LABEL                             VALUE 

SCROLL                            00000700
SCS                               00000000
SEC                               00000024
SEC0                              0000016E
SEC1                              00000174
SENB                              00000003
SENDB                             00000003
SEVEN                             00000893
SHCNT                             0000006D
SHIFTR                            00000500
SIX                               00000880
SMP                               00000007
SPBRG                             00000099
SPBRGH                            0000009A
SPEN                              00000007
SR0                               00000006
SR1                               00000007
SRA00                             00000524
SRA01                             0000052D
SRA02                             00000535
SRA03                             0000053D
SRA04                             00000545
SRA05                             0000054D
SRA06                             00000555
SRA07                             0000055D
SRA08                             00000567
SRA08_R1                          00000566
SRA09                             0000056F
SRA0A                             00000577
SRA0B                             0000057F
SRA0C                             00000587
SRA0D                             0000058F
SRA0E                             00000597
SRA0F                             0000059F
SRB00                             000005AE
SRB01                             000005B6
SRB02                             000005BD
SRB03                             000005C4
SRB04                             000005CB
SRB05                             000005D2
SRB06                             000005D9
SRB07                             000005E0
SRB08                             000005E9
SRB08_R1                          000005E8
SRB09                             000005F0
SRB0A                             000005F7
SRB0B                             000005FE
SRB0C                             00000605
SRB0D                             0000060C
SRB0E                             00000613
SRB0F                             0000061A
SRC00                             00000628
SRC01                             0000062F
MPASM  5.51              HUB12_FONTSCROLL.ASM   5-20-2019  14:19:30         PAGE 120


SYMBOL TABLE
  LABEL                             VALUE 

SRC02                             00000635
SRC03                             0000063B
SRC04                             00000641
SRC05                             00000647
SRC06                             0000064D
SRC07                             00000653
SRC08                             0000065B
SRC08_R1                          0000065A
SRC09                             00000661
SRC0A                             00000667
SRC0B                             0000066D
SRC0C                             00000673
SRC0D                             00000679
SRC0E                             0000067F
SRC0F                             00000685
SRCON                             0000019E
SREN                              00000005
SSPADD                            00000093
SSPBUF                            00000013
SSPCON                            00000014
SSPEN                             00000005
SSPIE                             00000003
SSPIF                             00000003
SSPM0                             00000000
SSPM1                             00000001
SSPM2                             00000002
SSPM3                             00000003
SSPMSK                            00000093
SSPOV                             00000006
SSPSTAT                           00000094
STATUS                            00000003
STRA                              00000000
STRB                              00000001
STRC                              00000002
STRD                              00000003
STRSYNC                           00000004
SWDTEN                            00000000
SYNC                              00000004
T0CS                              00000005
T0IE                              00000005
T0IF                              00000002
T0SE                              00000004
T1CKPS0                           00000004
T1CKPS1                           00000005
T1CON                             00000010
T1GINV                            00000007
T1GSS                             00000001
T1IE                              00000000
T1IF                              00000000
T1OSCEN                           00000003
T2CKPS0                           00000000
T2CKPS1                           00000001
T2CON                             00000012
MPASM  5.51              HUB12_FONTSCROLL.ASM   5-20-2019  14:19:30         PAGE 121


SYMBOL TABLE
  LABEL                             VALUE 

T2IE                              00000001
T2IF                              00000001
TALL                              00000076
TD0                               00000C37
TEMPFILE                          0000002A
TEMPFILEB                         0000007A
TEMPFILEC                         0000007B
TEMPFILED                         0000007C
TENDOWN                           00000C00
TENS                              00000078
TESTER                            00000072
THREE                             00000847
TMR0                              00000001
TMR1                              0000000E
TMR1CS                            00000001
TMR1GE                            00000006
TMR1H                             0000000F
TMR1IE                            00000000
TMR1IF                            00000000
TMR1L                             0000000E
TMR1ON                            00000000
TMR2                              00000011
TMR2IE                            00000001
TMR2IF                            00000001
TMR2ON                            00000002
TOUTPS0                           00000003
TOUTPS1                           00000004
TOUTPS2                           00000005
TOUTPS3                           00000006
TRISA                             00000085
TRISA0                            00000000
TRISA1                            00000001
TRISA2                            00000002
TRISA3                            00000003
TRISA4                            00000004
TRISA5                            00000005
TRISB                             00000086
TRISB4                            00000004
TRISB5                            00000005
TRISB6                            00000006
TRISB7                            00000007
TRISC                             00000087
TRISC0                            00000000
TRISC1                            00000001
TRISC2                            00000002
TRISC3                            00000003
TRISC4                            00000004
TRISC5                            00000005
TRISC6                            00000006
TRISC7                            00000007
TRMT                              00000001
TUN0                              00000000
TUN1                              00000001
MPASM  5.51              HUB12_FONTSCROLL.ASM   5-20-2019  14:19:30         PAGE 122


SYMBOL TABLE
  LABEL                             VALUE 

TUN2                              00000002
TUN3                              00000003
TUN4                              00000004
TWO                               00000834
TX9                               00000006
TX9D                              00000000
TXEN                              00000005
TXIE                              00000004
TXIF                              00000004
TXREG                             00000019
TXSTA                             00000098
T_CHAR                            00000A00
T_CHARB                           00000B00
T_EIGHT                           00000B52
T_FIVE                            00000ABE
T_FOUR                            00000A9B
T_NINE                            00000B75
T_ONE                             00000A32
T_SEVEN                           00000B2F
T_SIX                             00000B0C
T_THREE                           00000A78
T_TWO                             00000A55
T_ZERO                            00000A0F
UA                                00000001
ULPWUE                            00000005
USEC                              00000159
VAR0                              00000029
VCFG                              00000006
VP6EN                             00000004
VR0                               00000000
VR1                               00000001
VR2                               00000002
VR3                               00000003
VRCON                             00000118
VRR                               00000005
W                                 00000000
WCOL                              00000007
WDTCON                            00000097
WDTPS0                            00000001
WDTPS1                            00000002
WDTPS2                            00000003
WDTPS3                            00000004
WIDTH                             00000075
WPU                               00000095
WPU0                              00000000
WPU1                              00000001
WPU2                              00000002
WPU4                              00000004
WPU5                              00000005
WPUA                              00000095
WPUA0                             00000000
WPUA1                             00000001
WPUA2                             00000002
MPASM  5.51              HUB12_FONTSCROLL.ASM   5-20-2019  14:19:30         PAGE 123


SYMBOL TABLE
  LABEL                             VALUE 

WPUA4                             00000004
WPUA5                             00000005
WPUB                              00000115
WPUB4                             00000004
WPUB5                             00000005
WPUB6                             00000006
WPUB7                             00000007
WR                                00000001
WREN                              00000002
WRERR                             00000003
WUE                               00000001
Z                                 00000002
ZERO                              0000080C
_BOD_NSLEEP                       00003EFF
_BOD_OFF                          00003CFF
_BOD_ON                           00003FFF
_BOD_SBODEN                       00003DFF
_BOREN_NSLEEP                     00003EFF
_BOREN_OFF                        00003CFF
_BOREN_ON                         00003FFF
_BOREN_SBODEN                     00003DFF
_BOR_NSLEEP                       00003EFF
_BOR_OFF                          00003CFF
_BOR_ON                           00003FFF
_BOR_SBODEN                       00003DFF
_CONFIG                           00002007
_CPD_OFF                          00003FFF
_CPD_ON                           00003F7F
_CP_OFF                           00003FFF
_CP_ON                            00003FBF
_DEVID1                           00002006
_EC_OSC                           00003FFB
_EXTRC                            00003FFF
_EXTRCIO                          00003FFE
_EXTRC_OSC_CLKOUT                 00003FFF
_EXTRC_OSC_NOCLKOUT               00003FFE
_FCMEN_OFF                        000037FF
_FCMEN_ON                         00003FFF
_FOSC_EC                          00003FFB
_FOSC_EXTRCCLK                    00003FFF
_FOSC_EXTRCIO                     00003FFE
_FOSC_HS                          00003FFA
_FOSC_INTRCCLK                    00003FFD
_FOSC_INTRCIO                     00003FFC
_FOSC_LP                          00003FF8
_FOSC_XT                          00003FF9
_HS_OSC                           00003FFA
_IDLOC0                           00002000
_IDLOC1                           00002001
_IDLOC2                           00002002
_IDLOC3                           00002003
_IESO_OFF                         00003BFF
_IESO_ON                          00003FFF
MPASM  5.51              HUB12_FONTSCROLL.ASM   5-20-2019  14:19:30         PAGE 124


SYMBOL TABLE
  LABEL                             VALUE 

_INTOSC                           00003FFD
_INTOSCIO                         00003FFC
_INTRC_OSC_CLKOUT                 00003FFD
_INTRC_OSC_NOCLKOUT               00003FFC
_LP_OSC                           00003FF8
_MCLRE_OFF                        00003FDF
_MCLRE_ON                         00003FFF
_PWRTE_OFF                        00003FFF
_PWRTE_ON                         00003FEF
_WDTE_OFF                         00003FF7
_WDTE_ON                          00003FFF
_WDT_OFF                          00003FF7
_WDT_ON                           00003FFF
_XT_OSC                           00003FF9
__16F690                          00000001
__DEBUG                           1
pclath_temp                       0000007F
status_temp                       0000007E
w_temp                            0000007D


MEMORY USAGE MAP ('X' = Used,  '-' = Unused)

0000 : X---XXXXXXXXXXXX XXXXXXXXXXXXXXXX XXXXXXXXXXXXXXXX XXXXXXXXXXXXXXXX
0040 : XXXXXXXXXXXXXXXX XXXXXXXXXXXXXXXX XXXXXXXXXXXXXXXX XXXXXXXXXXXXXXXX
0080 : XXXXXXXXXXXXXXXX XXXXXXXXXXXXXXXX XXXXXXXXXXXXXXXX XXXXXXXXXXXXXXXX
00C0 : XXXXXXXXXXXXXXXX XXXXXXXXXXXXXXXX XXXXXXXXXXXXXXXX XXXXXXXXXXXXXXXX
0100 : XXXXXXXXXXXXXXXX XXXXXXXXXXXXXXXX XXXXXXXXXXXXXXXX XXXXXXXXXXXXXXXX
0140 : XXXXXXXXXXXXXXXX XXXXXXXXXXXXXXXX XXXXXXXXXXXXXXXX XXXXXXXX--------
0200 : XXXXXXXXXXXXXXXX XXXXXXXXXXXXXXXX XXXXXXXXXXXXXXXX XXXXXXXXXXXXXXXX
0240 : XXXXXXXXXXXXXXXX XXXXXXXXXXXXXXXX XXXXXXXXXXXXXXXX XXXXXXXXXXXXXXXX
0280 : XXXXXXXXXXXXXXXX XXXXXXXXXXXXXXXX XXXXXXXXXXXXXXXX XXXXXXXXXXXXXXXX
02C0 : XXXXXXXXXXXXXXXX XXXXXXXXXXXXXXXX XXXXXXXXXXXXXXXX XXXXXXXXXXXXXXXX
0300 : XXXXXXXXXXXXXXXX XXXXXXXXXXXXXXXX XXXXXXXXXXXXXXXX XXXXXXXXXXXXXXXX
0340 : XXXXXXXXXXXXXXXX XXXXXXXXXXXXXXXX XXXXXXXXXXXXXXXX XXXXXXXXXXXXXXXX
0380 : XXXXXXXXXXXXXXX- ---------------- ---------------- ----------------
0400 : XXXXXXXXXXXXXXXX XXXXXXXXXXXXXXXX XXXXXXXXXXXXXXXX XXXXXXXXXXXXXXXX
0440 : XXXXXXXXXX------ ---------------- ---------------- ----------------
0500 : XXXXXXXXXXXXXXXX XXXXXXXXXXXXXXXX XXXXXXXXXXXXXXXX XXXXXXXXXXXXXXXX
0540 : XXXXXXXXXXXXXXXX XXXXXXXXXXXXXXXX XXXXXXXXXXXXXXXX XXXXXXXXXXXXXXXX
0580 : XXXXXXXXXXXXXXXX XXXXXXXXXXXXXXXX XXXXXXXXXXXXXXXX XXXXXXXXXXXXXXXX
05C0 : XXXXXXXXXXXXXXXX XXXXXXXXXXXXXXXX XXXXXXXXXXXXXXXX XXXXXXXXXXXXXXXX
0600 : XXXXXXXXXXXXXXXX XXXXXXXXXXXXXXXX XXXXXXXXXXXXXXXX XXXXXXXXXXXXXXXX
0640 : XXXXXXXXXXXXXXXX XXXXXXXXXXXXXXXX XXXXXXXXXXXXXXXX XXXXXXXXXXXXXXXX
0680 : XXXXXXXXXXXXX--- ---------------- ---------------- ----------------
0700 : XXXXXXXXXXXXXXXX XXXXXXXXXXXXXXXX XXXXXXXXXXXXXXXX XXXXXXXXXXXXXXXX
MPASM  5.51              HUB12_FONTSCROLL.ASM   5-20-2019  14:19:30         PAGE 125


MEMORY USAGE MAP ('X' = Used,  '-' = Unused)


0740 : XXXXXXXXXXXX---- ---------------- ---------------- ----------------
0800 : XXXXXXXXXXXXXXXX XXXXXXXXXXXXXXXX XXXXXXXXXXXXXXXX XXXXXXXXXXXXXXXX
0840 : XXXXXXXXXXXXXXXX XXXXXXXXXXXXXXXX XXXXXXXXXXXXXXXX XXXXXXXXXXXXXXXX
0880 : XXXXXXXXXXXXXXXX XXXXXXXXXXXXXXXX XXXXXXXXXXXXXXXX XXXXXXXXXXXXXXXX
08C0 : XXXXXXXXXXXX---- ---------------- ---------------- ----------------
0900 : XXXXXXXXXXXXXXXX XXXXXXXXXXXXXXXX XXXXXXXXXXXXXXXX XXXXXXXXXXXXXXXX
0940 : XXXXXXXXXXXXXXXX XXXXXXXXXXXXXXXX XXXXXXXXXXXXXXXX XXXXXXXXXX------
0A00 : XXXXXXXXXXXXXXXX XXXXXXXXXXXXXXXX XXXXXXXXXXXXXXXX XXXXXXXXXXXXXXXX
0A40 : XXXXXXXXXXXXXXXX XXXXXXXXXXXXXXXX XXXXXXXXXXXXXXXX XXXXXXXXXXXXXXXX
0A80 : XXXXXXXXXXXXXXXX XXXXXXXXXXXXXXXX XXXXXXXXXXXXXXXX XXXXXXXXXXXXXXXX
0AC0 : XXXXXXXXXXXXXXXX XXXXXXXXXXXXXXXX X--------------- ----------------
0B00 : XXXXXXXXXXXXXXXX XXXXXXXXXXXXXXXX XXXXXXXXXXXXXXXX XXXXXXXXXXXXXXXX
0B40 : XXXXXXXXXXXXXXXX XXXXXXXXXXXXXXXX XXXXXXXXXXXXXXXX XXXXXXXXXXXXXXXX
0B80 : XXXXXXXXXXXXXXXX XXXXXXXX-------- ---------------- ----------------
0C00 : XXXXXXXXXXXXXXXX XXXXXXXXXXXXXXXX XXXXXXXXXXXXXXXX XXXXXXXXXXXXXXXX
0C40 : XXXXXXXXXXXX---- ---------------- ---------------- ----------------
0D00 : XXXXXXXXXXXXXXXX XXXXXXXXXXXXXXXX XXXXXXXXXXXXXXXX XXXXXXXXXXXXXXXX
0D40 : XXXXXXXXXXXXXXXX XXXXXXXXXXXXXXXX XXXXXXXXXXXXXXXX XXXXXXXXXXXXXXXX
0D80 : XXXXXXXXXXXXXXXX XXXXXXXXXXXXXXXX XXXXXXXXXXXXXXXX XXXXXXXXXXXXXXXX
0DC0 : XXXXXXXXXXXXXXXX XXXXXXXXXXXXXXXX XXXXXXXXXXXXXXXX XXXXXXXXXXXXXXXX
0E00 : XXXXXXXXXXXXXXXX XXXXXXXXXXXXXXXX XXXXXXXXXXXXXXXX XXXXXXXXXXXXXXXX
0E40 : XXXXXXXXXXXXXXXX XXXXXXXXXXXXXXXX XX-------------- ----------------
0F00 : XXXXXXXXXXXXXXXX XXXXXXXXXXXXXXXX XXXXXXXXXXXXXXXX XXXXXXXXXXXXXXXX
0F40 : XXXXXXXXXXXXXXXX XXXXXXXXXXXXXXXX XXXXXXXXXXXXXXXX XXXXXXXXXXXXXXXX
0F80 : XXXXXXXXXXXXXXXX XXXXXXXXXXXXXXXX XXXXXXXX-------- ----------------
2000 : -------X-------- ---------------- ---------------- ----------------
2100 : XXXX------------ ---------------- ---------------- ----------------

All other memory blocks unused.

Program Memory Words Used:  2620
Program Memory Words Free:  1476


Errors   :     0
Warnings :   102 reported,     0 suppressed
Messages :  1050 reported,     0 suppressed

