MPLINK 4.49, Linker
Linker Map File - Created Fri May 10 12:40:41 2019

                                 Section Info
                  Section       Type    Address   Location Size(Bytes)
                ---------  ---------  ---------  ---------  ---------
                   .org_0       code   0x000000    program   0x000000
                   .org_1       code   0x000000    program   0x000002
                   .org_2       code   0x000004    program   0x000a76
                   .org_3       code   0x000800    program   0x000198
                   .org_4       code   0x000900    program   0x0000f4
                   .org_5       code   0x000a00    program   0x000046
.config_2007_HUB12_FONT.O       code   0x002007    program   0x000002
                   .org_6       code   0x002100    program   0x000008



                              Program Memory Usage 
                               Start         End      
                           ---------   ---------      
                            0x000000    0x000000      
                            0x000004    0x00053e      
                            0x000800    0x0008cb      
                            0x000900    0x000979      
                            0x000a00    0x000a22      
                            0x002007    0x002007      
                            0x002100    0x002103      
            1706 out of 4359 program addresses used, program memory utilization is 39%



                              Symbols - Sorted by Name
                     Name    Address   Location    Storage File                     
                ---------  ---------  ---------  --------- ---------                
                        .   0x000000    program     static D:\KennyNeutron\HUB12\HUB12_FONT\HUB12_FONT.ASM
                     CHAR   0x000800    program     static D:\KennyNeutron\HUB12\HUB12_FONT\HUB12_FONT.ASM
                    CLRAM   0x0002ef    program     static D:\KennyNeutron\HUB12\HUB12_FONT\HUB12_FONT.ASM
                       D0   0x0002e4    program     static D:\KennyNeutron\HUB12\HUB12_FONT\HUB12_FONT.ASM
                       D1   0x0002e6    program     static D:\KennyNeutron\HUB12\HUB12_FONT\HUB12_FONT.ASM
                DATALATCH   0x0002d9    program     static D:\KennyNeutron\HUB12\HUB12_FONT\HUB12_FONT.ASM
                 DELAY_MS   0x00030a    program     static D:\KennyNeutron\HUB12\HUB12_FONT\HUB12_FONT.ASM
              DELAY_ONEMS   0x000303    program     static D:\KennyNeutron\HUB12\HUB12_FONT\HUB12_FONT.ASM
             DELAY_ONESEC   0x00030f    program     static D:\KennyNeutron\HUB12\HUB12_FONT\HUB12_FONT.ASM
                DELAY_SEC   0x000316    program     static D:\KennyNeutron\HUB12\HUB12_FONT\HUB12_FONT.ASM
                 DELAY_US   0x0002fb    program     static D:\KennyNeutron\HUB12\HUB12_FONT\HUB12_FONT.ASM
                     DISP   0x0002a7    program     static D:\KennyNeutron\HUB12\HUB12_FONT\HUB12_FONT.ASM
                  DISPLAY   0x0002ae    program     static D:\KennyNeutron\HUB12\HUB12_FONT\HUB12_FONT.ASM
                      DL0   0x0002e0    program     static D:\KennyNeutron\HUB12\HUB12_FONT\HUB12_FONT.ASM
                      DL1   0x0002e8    program     static D:\KennyNeutron\HUB12\HUB12_FONT\HUB12_FONT.ASM
                      DP0   0x0002ae    program     static D:\KennyNeutron\HUB12\HUB12_FONT\HUB12_FONT.ASM
                     DRM0   0x0002f3    program     static D:\KennyNeutron\HUB12\HUB12_FONT\HUB12_FONT.ASM
                     DSP0   0x0002b2    program     static D:\KennyNeutron\HUB12\HUB12_FONT\HUB12_FONT.ASM
                     DSP1   0x0002bc    program     static D:\KennyNeutron\HUB12\HUB12_FONT\HUB12_FONT.ASM
                     DSP2   0x0002c6    program     static D:\KennyNeutron\HUB12\HUB12_FONT\HUB12_FONT.ASM
                     DSP3   0x0002d0    program     static D:\KennyNeutron\HUB12\HUB12_FONT\HUB12_FONT.ASM
                     DUMP   0x00006e    program     static D:\KennyNeutron\HUB12\HUB12_FONT\HUB12_FONT.ASM
                    EIGHT   0x0008a6    program     static D:\KennyNeutron\HUB12\HUB12_FONT\HUB12_FONT.ASM
                     FIVE   0x00086d    program     static D:\KennyNeutron\HUB12\HUB12_FONT\HUB12_FONT.ASM
                   FONT_0   0x000074    program     static D:\KennyNeutron\HUB12\HUB12_FONT\HUB12_FONT.ASM
                   FONT_1   0x0000ac    program     static D:\KennyNeutron\HUB12\HUB12_FONT\HUB12_FONT.ASM
                     FOUR   0x00085a    program     static D:\KennyNeutron\HUB12\HUB12_FONT\HUB12_FONT.ASM
                    GRP_A   0x0000e8    program     static D:\KennyNeutron\HUB12\HUB12_FONT\HUB12_FONT.ASM
                    GRP_B   0x000173    program     static D:\KennyNeutron\HUB12\HUB12_FONT\HUB12_FONT.ASM
                    GRP_C   0x0001ed    program     static D:\KennyNeutron\HUB12\HUB12_FONT\HUB12_FONT.ASM
                    GRP_D   0x000257    program     static D:\KennyNeutron\HUB12\HUB12_FONT\HUB12_FONT.ASM
                     INIT   0x000010    program     static D:\KennyNeutron\HUB12\HUB12_FONT\HUB12_FONT.ASM
                   L_CHAR   0x000900    program     static D:\KennyNeutron\HUB12\HUB12_FONT\HUB12_FONT.ASM
                  L_EIGHT   0x000964    program     static D:\KennyNeutron\HUB12\HUB12_FONT\HUB12_FONT.ASM
                   L_FIVE   0x000943    program     static D:\KennyNeutron\HUB12\HUB12_FONT\HUB12_FONT.ASM
                   L_FOUR   0x000938    program     static D:\KennyNeutron\HUB12\HUB12_FONT\HUB12_FONT.ASM
                   L_NINE   0x00096f    program     static D:\KennyNeutron\HUB12\HUB12_FONT\HUB12_FONT.ASM
                    L_ONE   0x000917    program     static D:\KennyNeutron\HUB12\HUB12_FONT\HUB12_FONT.ASM
                  L_SEVEN   0x000959    program     static D:\KennyNeutron\HUB12\HUB12_FONT\HUB12_FONT.ASM
                    L_SIX   0x00094e    program     static D:\KennyNeutron\HUB12\HUB12_FONT\HUB12_FONT.ASM
                  L_THREE   0x00092d    program     static D:\KennyNeutron\HUB12\HUB12_FONT\HUB12_FONT.ASM
                    L_TWO   0x000922    program     static D:\KennyNeutron\HUB12\HUB12_FONT\HUB12_FONT.ASM
                   L_ZERO   0x00090c    program     static D:\KennyNeutron\HUB12\HUB12_FONT\HUB12_FONT.ASM
                     MAIN   0x00001b    program     static D:\KennyNeutron\HUB12\HUB12_FONT\HUB12_FONT.ASM
                      MN0   0x0002a9    program     static D:\KennyNeutron\HUB12\HUB12_FONT\HUB12_FONT.ASM
                     MSEC   0x000305    program     static D:\KennyNeutron\HUB12\HUB12_FONT\HUB12_FONT.ASM
                    MSEC0   0x00030b    program     static D:\KennyNeutron\HUB12\HUB12_FONT\HUB12_FONT.ASM
                     NINE   0x0008b9    program     static D:\KennyNeutron\HUB12\HUB12_FONT\HUB12_FONT.ASM
                      ONE   0x000821    program     static D:\KennyNeutron\HUB12\HUB12_FONT\HUB12_FONT.ASM
                     SB00   0x000325    program     static D:\KennyNeutron\HUB12\HUB12_FONT\HUB12_FONT.ASM
                     SB01   0x000330    program     static D:\KennyNeutron\HUB12\HUB12_FONT\HUB12_FONT.ASM
                     SB02   0x00033b    program     static D:\KennyNeutron\HUB12\HUB12_FONT\HUB12_FONT.ASM
                     SB03   0x000346    program     static D:\KennyNeutron\HUB12\HUB12_FONT\HUB12_FONT.ASM
                     SB04   0x000351    program     static D:\KennyNeutron\HUB12\HUB12_FONT\HUB12_FONT.ASM
                     SB05   0x00035c    program     static D:\KennyNeutron\HUB12\HUB12_FONT\HUB12_FONT.ASM
                     SB06   0x000367    program     static D:\KennyNeutron\HUB12\HUB12_FONT\HUB12_FONT.ASM
                     SB07   0x000372    program     static D:\KennyNeutron\HUB12\HUB12_FONT\HUB12_FONT.ASM
                     SB08   0x00037e    program     static D:\KennyNeutron\HUB12\HUB12_FONT\HUB12_FONT.ASM
                SB08_FLAG   0x00037a    program     static D:\KennyNeutron\HUB12\HUB12_FONT\HUB12_FONT.ASM
                     SB09   0x000389    program     static D:\KennyNeutron\HUB12\HUB12_FONT\HUB12_FONT.ASM
                     SB0A   0x000394    program     static D:\KennyNeutron\HUB12\HUB12_FONT\HUB12_FONT.ASM
                     SB0B   0x00039f    program     static D:\KennyNeutron\HUB12\HUB12_FONT\HUB12_FONT.ASM
                     SB0C   0x0003aa    program     static D:\KennyNeutron\HUB12\HUB12_FONT\HUB12_FONT.ASM
                     SB0D   0x0003b5    program     static D:\KennyNeutron\HUB12\HUB12_FONT\HUB12_FONT.ASM
                     SB0E   0x0003c0    program     static D:\KennyNeutron\HUB12\HUB12_FONT\HUB12_FONT.ASM
                     SB0F   0x0003cb    program     static D:\KennyNeutron\HUB12\HUB12_FONT\HUB12_FONT.ASM
                     SC00   0x0003db    program     static D:\KennyNeutron\HUB12\HUB12_FONT\HUB12_FONT.ASM
                     SC01   0x0003e6    program     static D:\KennyNeutron\HUB12\HUB12_FONT\HUB12_FONT.ASM
                     SC02   0x0003f1    program     static D:\KennyNeutron\HUB12\HUB12_FONT\HUB12_FONT.ASM
                     SC03   0x0003fc    program     static D:\KennyNeutron\HUB12\HUB12_FONT\HUB12_FONT.ASM
                     SC04   0x000407    program     static D:\KennyNeutron\HUB12\HUB12_FONT\HUB12_FONT.ASM
                     SC05   0x000412    program     static D:\KennyNeutron\HUB12\HUB12_FONT\HUB12_FONT.ASM
                     SC06   0x00041d    program     static D:\KennyNeutron\HUB12\HUB12_FONT\HUB12_FONT.ASM
                     SC07   0x000428    program     static D:\KennyNeutron\HUB12\HUB12_FONT\HUB12_FONT.ASM
                     SC08   0x000434    program     static D:\KennyNeutron\HUB12\HUB12_FONT\HUB12_FONT.ASM
                SC08_FLAG   0x000430    program     static D:\KennyNeutron\HUB12\HUB12_FONT\HUB12_FONT.ASM
                     SC09   0x00043f    program     static D:\KennyNeutron\HUB12\HUB12_FONT\HUB12_FONT.ASM
                     SC0A   0x00044a    program     static D:\KennyNeutron\HUB12\HUB12_FONT\HUB12_FONT.ASM
                     SC0B   0x000455    program     static D:\KennyNeutron\HUB12\HUB12_FONT\HUB12_FONT.ASM
                     SC0C   0x000460    program     static D:\KennyNeutron\HUB12\HUB12_FONT\HUB12_FONT.ASM
                     SC0D   0x00046b    program     static D:\KennyNeutron\HUB12\HUB12_FONT\HUB12_FONT.ASM
                     SC0E   0x000476    program     static D:\KennyNeutron\HUB12\HUB12_FONT\HUB12_FONT.ASM
                     SC0F   0x000481    program     static D:\KennyNeutron\HUB12\HUB12_FONT\HUB12_FONT.ASM
                     SD00   0x000491    program     static D:\KennyNeutron\HUB12\HUB12_FONT\HUB12_FONT.ASM
                     SD01   0x00049c    program     static D:\KennyNeutron\HUB12\HUB12_FONT\HUB12_FONT.ASM
                     SD02   0x0004a7    program     static D:\KennyNeutron\HUB12\HUB12_FONT\HUB12_FONT.ASM
                     SD03   0x0004b2    program     static D:\KennyNeutron\HUB12\HUB12_FONT\HUB12_FONT.ASM
                     SD04   0x0004bd    program     static D:\KennyNeutron\HUB12\HUB12_FONT\HUB12_FONT.ASM
                     SD05   0x0004c8    program     static D:\KennyNeutron\HUB12\HUB12_FONT\HUB12_FONT.ASM
                     SD06   0x0004d3    program     static D:\KennyNeutron\HUB12\HUB12_FONT\HUB12_FONT.ASM
                     SD07   0x0004de    program     static D:\KennyNeutron\HUB12\HUB12_FONT\HUB12_FONT.ASM
                     SD08   0x0004ea    program     static D:\KennyNeutron\HUB12\HUB12_FONT\HUB12_FONT.ASM
                SD08_FLAG   0x0004e6    program     static D:\KennyNeutron\HUB12\HUB12_FONT\HUB12_FONT.ASM
                     SD09   0x0004f5    program     static D:\KennyNeutron\HUB12\HUB12_FONT\HUB12_FONT.ASM
                     SD0A   0x000500    program     static D:\KennyNeutron\HUB12\HUB12_FONT\HUB12_FONT.ASM
                     SD0B   0x00050b    program     static D:\KennyNeutron\HUB12\HUB12_FONT\HUB12_FONT.ASM
                     SD0C   0x000516    program     static D:\KennyNeutron\HUB12\HUB12_FONT\HUB12_FONT.ASM
                     SD0D   0x000521    program     static D:\KennyNeutron\HUB12\HUB12_FONT\HUB12_FONT.ASM
                     SD0E   0x00052c    program     static D:\KennyNeutron\HUB12\HUB12_FONT\HUB12_FONT.ASM
                     SD0F   0x000537    program     static D:\KennyNeutron\HUB12\HUB12_FONT\HUB12_FONT.ASM
                     SEC0   0x000311    program     static D:\KennyNeutron\HUB12\HUB12_FONT\HUB12_FONT.ASM
                     SEC1   0x000317    program     static D:\KennyNeutron\HUB12\HUB12_FONT\HUB12_FONT.ASM
                    SEVEN   0x000893    program     static D:\KennyNeutron\HUB12\HUB12_FONT\HUB12_FONT.ASM
              SHIFTL_GRPA   0x00031b    program     static D:\KennyNeutron\HUB12\HUB12_FONT\HUB12_FONT.ASM
              SHIFTL_GRPB   0x00031b    program     static D:\KennyNeutron\HUB12\HUB12_FONT\HUB12_FONT.ASM
              SHIFTL_GRPC   0x0003d3    program     static D:\KennyNeutron\HUB12\HUB12_FONT\HUB12_FONT.ASM
              SHIFTL_GRPD   0x000489    program     static D:\KennyNeutron\HUB12\HUB12_FONT\HUB12_FONT.ASM
                   SHIFTR   0x0000cc    program     static D:\KennyNeutron\HUB12\HUB12_FONT\HUB12_FONT.ASM
                 SHIFT_YU   0x00025a    program     static D:\KennyNeutron\HUB12\HUB12_FONT\HUB12_FONT.ASM
                      SIX   0x000880    program     static D:\KennyNeutron\HUB12\HUB12_FONT\HUB12_FONT.ASM
                     SLB0   0x000281    program     static D:\KennyNeutron\HUB12\HUB12_FONT\HUB12_FONT.ASM
                     SLB1   0x000285    program     static D:\KennyNeutron\HUB12\HUB12_FONT\HUB12_FONT.ASM
                     SLB2   0x00028d    program     static D:\KennyNeutron\HUB12\HUB12_FONT\HUB12_FONT.ASM
                   SLICEB   0x00027f    program     static D:\KennyNeutron\HUB12\HUB12_FONT\HUB12_FONT.ASM
                   SLICET   0x000293    program     static D:\KennyNeutron\HUB12\HUB12_FONT\HUB12_FONT.ASM
                     SLT0   0x000295    program     static D:\KennyNeutron\HUB12\HUB12_FONT\HUB12_FONT.ASM
                     SLT1   0x000299    program     static D:\KennyNeutron\HUB12\HUB12_FONT\HUB12_FONT.ASM
                     SLT2   0x0002a1    program     static D:\KennyNeutron\HUB12\HUB12_FONT\HUB12_FONT.ASM
                    SRA00   0x0000f1    program     static D:\KennyNeutron\HUB12\HUB12_FONT\HUB12_FONT.ASM
                    SRA01   0x0000fa    program     static D:\KennyNeutron\HUB12\HUB12_FONT\HUB12_FONT.ASM
                    SRA02   0x000102    program     static D:\KennyNeutron\HUB12\HUB12_FONT\HUB12_FONT.ASM
                    SRA03   0x00010a    program     static D:\KennyNeutron\HUB12\HUB12_FONT\HUB12_FONT.ASM
                    SRA04   0x000112    program     static D:\KennyNeutron\HUB12\HUB12_FONT\HUB12_FONT.ASM
                    SRA05   0x00011a    program     static D:\KennyNeutron\HUB12\HUB12_FONT\HUB12_FONT.ASM
                    SRA06   0x000122    program     static D:\KennyNeutron\HUB12\HUB12_FONT\HUB12_FONT.ASM
                    SRA07   0x00012a    program     static D:\KennyNeutron\HUB12\HUB12_FONT\HUB12_FONT.ASM
                    SRA08   0x000134    program     static D:\KennyNeutron\HUB12\HUB12_FONT\HUB12_FONT.ASM
                 SRA08_R1   0x000133    program     static D:\KennyNeutron\HUB12\HUB12_FONT\HUB12_FONT.ASM
                    SRA09   0x00013c    program     static D:\KennyNeutron\HUB12\HUB12_FONT\HUB12_FONT.ASM
                    SRA0A   0x000144    program     static D:\KennyNeutron\HUB12\HUB12_FONT\HUB12_FONT.ASM
                    SRA0B   0x00014c    program     static D:\KennyNeutron\HUB12\HUB12_FONT\HUB12_FONT.ASM
                    SRA0C   0x000154    program     static D:\KennyNeutron\HUB12\HUB12_FONT\HUB12_FONT.ASM
                    SRA0D   0x00015c    program     static D:\KennyNeutron\HUB12\HUB12_FONT\HUB12_FONT.ASM
                    SRA0E   0x000164    program     static D:\KennyNeutron\HUB12\HUB12_FONT\HUB12_FONT.ASM
                    SRA0F   0x00016c    program     static D:\KennyNeutron\HUB12\HUB12_FONT\HUB12_FONT.ASM
                    SRB00   0x00017b    program     static D:\KennyNeutron\HUB12\HUB12_FONT\HUB12_FONT.ASM
                    SRB01   0x000183    program     static D:\KennyNeutron\HUB12\HUB12_FONT\HUB12_FONT.ASM
                    SRB02   0x00018a    program     static D:\KennyNeutron\HUB12\HUB12_FONT\HUB12_FONT.ASM
                    SRB03   0x000191    program     static D:\KennyNeutron\HUB12\HUB12_FONT\HUB12_FONT.ASM
                    SRB04   0x000198    program     static D:\KennyNeutron\HUB12\HUB12_FONT\HUB12_FONT.ASM
                    SRB05   0x00019f    program     static D:\KennyNeutron\HUB12\HUB12_FONT\HUB12_FONT.ASM
                    SRB06   0x0001a6    program     static D:\KennyNeutron\HUB12\HUB12_FONT\HUB12_FONT.ASM
                    SRB07   0x0001ad    program     static D:\KennyNeutron\HUB12\HUB12_FONT\HUB12_FONT.ASM
                    SRB08   0x0001b6    program     static D:\KennyNeutron\HUB12\HUB12_FONT\HUB12_FONT.ASM
                 SRB08_R1   0x0001b5    program     static D:\KennyNeutron\HUB12\HUB12_FONT\HUB12_FONT.ASM
                    SRB09   0x0001bd    program     static D:\KennyNeutron\HUB12\HUB12_FONT\HUB12_FONT.ASM
                    SRB0A   0x0001c4    program     static D:\KennyNeutron\HUB12\HUB12_FONT\HUB12_FONT.ASM
                    SRB0B   0x0001cb    program     static D:\KennyNeutron\HUB12\HUB12_FONT\HUB12_FONT.ASM
                    SRB0C   0x0001d2    program     static D:\KennyNeutron\HUB12\HUB12_FONT\HUB12_FONT.ASM
                    SRB0D   0x0001d9    program     static D:\KennyNeutron\HUB12\HUB12_FONT\HUB12_FONT.ASM
                    SRB0E   0x0001e0    program     static D:\KennyNeutron\HUB12\HUB12_FONT\HUB12_FONT.ASM
                    SRB0F   0x0001e7    program     static D:\KennyNeutron\HUB12\HUB12_FONT\HUB12_FONT.ASM
                    SRC00   0x0001f5    program     static D:\KennyNeutron\HUB12\HUB12_FONT\HUB12_FONT.ASM
                    SRC01   0x0001fc    program     static D:\KennyNeutron\HUB12\HUB12_FONT\HUB12_FONT.ASM
                    SRC02   0x000202    program     static D:\KennyNeutron\HUB12\HUB12_FONT\HUB12_FONT.ASM
                    SRC03   0x000208    program     static D:\KennyNeutron\HUB12\HUB12_FONT\HUB12_FONT.ASM
                    SRC04   0x00020e    program     static D:\KennyNeutron\HUB12\HUB12_FONT\HUB12_FONT.ASM
                    SRC05   0x000214    program     static D:\KennyNeutron\HUB12\HUB12_FONT\HUB12_FONT.ASM
                    SRC06   0x00021a    program     static D:\KennyNeutron\HUB12\HUB12_FONT\HUB12_FONT.ASM
                    SRC07   0x000220    program     static D:\KennyNeutron\HUB12\HUB12_FONT\HUB12_FONT.ASM
                    SRC08   0x000228    program     static D:\KennyNeutron\HUB12\HUB12_FONT\HUB12_FONT.ASM
                 SRC08_R1   0x000227    program     static D:\KennyNeutron\HUB12\HUB12_FONT\HUB12_FONT.ASM
                    SRC09   0x00022e    program     static D:\KennyNeutron\HUB12\HUB12_FONT\HUB12_FONT.ASM
                    SRC0A   0x000234    program     static D:\KennyNeutron\HUB12\HUB12_FONT\HUB12_FONT.ASM
                    SRC0B   0x00023a    program     static D:\KennyNeutron\HUB12\HUB12_FONT\HUB12_FONT.ASM
                    SRC0C   0x000240    program     static D:\KennyNeutron\HUB12\HUB12_FONT\HUB12_FONT.ASM
                    SRC0D   0x000246    program     static D:\KennyNeutron\HUB12\HUB12_FONT\HUB12_FONT.ASM
                    SRC0E   0x00024c    program     static D:\KennyNeutron\HUB12\HUB12_FONT\HUB12_FONT.ASM
                    SRC0F   0x000252    program     static D:\KennyNeutron\HUB12\HUB12_FONT\HUB12_FONT.ASM
                    THREE   0x000847    program     static D:\KennyNeutron\HUB12\HUB12_FONT\HUB12_FONT.ASM
                      TWO   0x000834    program     static D:\KennyNeutron\HUB12\HUB12_FONT\HUB12_FONT.ASM
                  T_EIGHT   0x000a23    program     static D:\KennyNeutron\HUB12\HUB12_FONT\HUB12_FONT.ASM
                   T_FIVE   0x000a23    program     static D:\KennyNeutron\HUB12\HUB12_FONT\HUB12_FONT.ASM
                   T_FOUR   0x000a23    program     static D:\KennyNeutron\HUB12\HUB12_FONT\HUB12_FONT.ASM
                   T_NINE   0x000a23    program     static D:\KennyNeutron\HUB12\HUB12_FONT\HUB12_FONT.ASM
                    T_ONE   0x000a00    program     static D:\KennyNeutron\HUB12\HUB12_FONT\HUB12_FONT.ASM
                  T_SEVEN   0x000a23    program     static D:\KennyNeutron\HUB12\HUB12_FONT\HUB12_FONT.ASM
                    T_SIX   0x000a23    program     static D:\KennyNeutron\HUB12\HUB12_FONT\HUB12_FONT.ASM
                  T_THREE   0x000a23    program     static D:\KennyNeutron\HUB12\HUB12_FONT\HUB12_FONT.ASM
                    T_TWO   0x000a00    program     static D:\KennyNeutron\HUB12\HUB12_FONT\HUB12_FONT.ASM
                   T_ZERO   0x000a00    program     static D:\KennyNeutron\HUB12\HUB12_FONT\HUB12_FONT.ASM
                     USEC   0x0002fc    program     static D:\KennyNeutron\HUB12\HUB12_FONT\HUB12_FONT.ASM
                     ZERO   0x00080c    program     static D:\KennyNeutron\HUB12\HUB12_FONT\HUB12_FONT.ASM



                              Symbols - Sorted by Address
                     Name    Address   Location    Storage File                     
                ---------  ---------  ---------  --------- ---------                
                        .   0x000000    program     static D:\KennyNeutron\HUB12\HUB12_FONT\HUB12_FONT.ASM
                     INIT   0x000010    program     static D:\KennyNeutron\HUB12\HUB12_FONT\HUB12_FONT.ASM
                     MAIN   0x00001b    program     static D:\KennyNeutron\HUB12\HUB12_FONT\HUB12_FONT.ASM
                     DUMP   0x00006e    program     static D:\KennyNeutron\HUB12\HUB12_FONT\HUB12_FONT.ASM
                   FONT_0   0x000074    program     static D:\KennyNeutron\HUB12\HUB12_FONT\HUB12_FONT.ASM
                   FONT_1   0x0000ac    program     static D:\KennyNeutron\HUB12\HUB12_FONT\HUB12_FONT.ASM
                   SHIFTR   0x0000cc    program     static D:\KennyNeutron\HUB12\HUB12_FONT\HUB12_FONT.ASM
                    GRP_A   0x0000e8    program     static D:\KennyNeutron\HUB12\HUB12_FONT\HUB12_FONT.ASM
                    SRA00   0x0000f1    program     static D:\KennyNeutron\HUB12\HUB12_FONT\HUB12_FONT.ASM
                    SRA01   0x0000fa    program     static D:\KennyNeutron\HUB12\HUB12_FONT\HUB12_FONT.ASM
                    SRA02   0x000102    program     static D:\KennyNeutron\HUB12\HUB12_FONT\HUB12_FONT.ASM
                    SRA03   0x00010a    program     static D:\KennyNeutron\HUB12\HUB12_FONT\HUB12_FONT.ASM
                    SRA04   0x000112    program     static D:\KennyNeutron\HUB12\HUB12_FONT\HUB12_FONT.ASM
                    SRA05   0x00011a    program     static D:\KennyNeutron\HUB12\HUB12_FONT\HUB12_FONT.ASM
                    SRA06   0x000122    program     static D:\KennyNeutron\HUB12\HUB12_FONT\HUB12_FONT.ASM
                    SRA07   0x00012a    program     static D:\KennyNeutron\HUB12\HUB12_FONT\HUB12_FONT.ASM
                 SRA08_R1   0x000133    program     static D:\KennyNeutron\HUB12\HUB12_FONT\HUB12_FONT.ASM
                    SRA08   0x000134    program     static D:\KennyNeutron\HUB12\HUB12_FONT\HUB12_FONT.ASM
                    SRA09   0x00013c    program     static D:\KennyNeutron\HUB12\HUB12_FONT\HUB12_FONT.ASM
                    SRA0A   0x000144    program     static D:\KennyNeutron\HUB12\HUB12_FONT\HUB12_FONT.ASM
                    SRA0B   0x00014c    program     static D:\KennyNeutron\HUB12\HUB12_FONT\HUB12_FONT.ASM
                    SRA0C   0x000154    program     static D:\KennyNeutron\HUB12\HUB12_FONT\HUB12_FONT.ASM
                    SRA0D   0x00015c    program     static D:\KennyNeutron\HUB12\HUB12_FONT\HUB12_FONT.ASM
                    SRA0E   0x000164    program     static D:\KennyNeutron\HUB12\HUB12_FONT\HUB12_FONT.ASM
                    SRA0F   0x00016c    program     static D:\KennyNeutron\HUB12\HUB12_FONT\HUB12_FONT.ASM
                    GRP_B   0x000173    program     static D:\KennyNeutron\HUB12\HUB12_FONT\HUB12_FONT.ASM
                    SRB00   0x00017b    program     static D:\KennyNeutron\HUB12\HUB12_FONT\HUB12_FONT.ASM
                    SRB01   0x000183    program     static D:\KennyNeutron\HUB12\HUB12_FONT\HUB12_FONT.ASM
                    SRB02   0x00018a    program     static D:\KennyNeutron\HUB12\HUB12_FONT\HUB12_FONT.ASM
                    SRB03   0x000191    program     static D:\KennyNeutron\HUB12\HUB12_FONT\HUB12_FONT.ASM
                    SRB04   0x000198    program     static D:\KennyNeutron\HUB12\HUB12_FONT\HUB12_FONT.ASM
                    SRB05   0x00019f    program     static D:\KennyNeutron\HUB12\HUB12_FONT\HUB12_FONT.ASM
                    SRB06   0x0001a6    program     static D:\KennyNeutron\HUB12\HUB12_FONT\HUB12_FONT.ASM
                    SRB07   0x0001ad    program     static D:\KennyNeutron\HUB12\HUB12_FONT\HUB12_FONT.ASM
                 SRB08_R1   0x0001b5    program     static D:\KennyNeutron\HUB12\HUB12_FONT\HUB12_FONT.ASM
                    SRB08   0x0001b6    program     static D:\KennyNeutron\HUB12\HUB12_FONT\HUB12_FONT.ASM
                    SRB09   0x0001bd    program     static D:\KennyNeutron\HUB12\HUB12_FONT\HUB12_FONT.ASM
                    SRB0A   0x0001c4    program     static D:\KennyNeutron\HUB12\HUB12_FONT\HUB12_FONT.ASM
                    SRB0B   0x0001cb    program     static D:\KennyNeutron\HUB12\HUB12_FONT\HUB12_FONT.ASM
                    SRB0C   0x0001d2    program     static D:\KennyNeutron\HUB12\HUB12_FONT\HUB12_FONT.ASM
                    SRB0D   0x0001d9    program     static D:\KennyNeutron\HUB12\HUB12_FONT\HUB12_FONT.ASM
                    SRB0E   0x0001e0    program     static D:\KennyNeutron\HUB12\HUB12_FONT\HUB12_FONT.ASM
                    SRB0F   0x0001e7    program     static D:\KennyNeutron\HUB12\HUB12_FONT\HUB12_FONT.ASM
                    GRP_C   0x0001ed    program     static D:\KennyNeutron\HUB12\HUB12_FONT\HUB12_FONT.ASM
                    SRC00   0x0001f5    program     static D:\KennyNeutron\HUB12\HUB12_FONT\HUB12_FONT.ASM
                    SRC01   0x0001fc    program     static D:\KennyNeutron\HUB12\HUB12_FONT\HUB12_FONT.ASM
                    SRC02   0x000202    program     static D:\KennyNeutron\HUB12\HUB12_FONT\HUB12_FONT.ASM
                    SRC03   0x000208    program     static D:\KennyNeutron\HUB12\HUB12_FONT\HUB12_FONT.ASM
                    SRC04   0x00020e    program     static D:\KennyNeutron\HUB12\HUB12_FONT\HUB12_FONT.ASM
                    SRC05   0x000214    program     static D:\KennyNeutron\HUB12\HUB12_FONT\HUB12_FONT.ASM
                    SRC06   0x00021a    program     static D:\KennyNeutron\HUB12\HUB12_FONT\HUB12_FONT.ASM
                    SRC07   0x000220    program     static D:\KennyNeutron\HUB12\HUB12_FONT\HUB12_FONT.ASM
                 SRC08_R1   0x000227    program     static D:\KennyNeutron\HUB12\HUB12_FONT\HUB12_FONT.ASM
                    SRC08   0x000228    program     static D:\KennyNeutron\HUB12\HUB12_FONT\HUB12_FONT.ASM
                    SRC09   0x00022e    program     static D:\KennyNeutron\HUB12\HUB12_FONT\HUB12_FONT.ASM
                    SRC0A   0x000234    program     static D:\KennyNeutron\HUB12\HUB12_FONT\HUB12_FONT.ASM
                    SRC0B   0x00023a    program     static D:\KennyNeutron\HUB12\HUB12_FONT\HUB12_FONT.ASM
                    SRC0C   0x000240    program     static D:\KennyNeutron\HUB12\HUB12_FONT\HUB12_FONT.ASM
                    SRC0D   0x000246    program     static D:\KennyNeutron\HUB12\HUB12_FONT\HUB12_FONT.ASM
                    SRC0E   0x00024c    program     static D:\KennyNeutron\HUB12\HUB12_FONT\HUB12_FONT.ASM
                    SRC0F   0x000252    program     static D:\KennyNeutron\HUB12\HUB12_FONT\HUB12_FONT.ASM
                    GRP_D   0x000257    program     static D:\KennyNeutron\HUB12\HUB12_FONT\HUB12_FONT.ASM
                 SHIFT_YU   0x00025a    program     static D:\KennyNeutron\HUB12\HUB12_FONT\HUB12_FONT.ASM
                   SLICEB   0x00027f    program     static D:\KennyNeutron\HUB12\HUB12_FONT\HUB12_FONT.ASM
                     SLB0   0x000281    program     static D:\KennyNeutron\HUB12\HUB12_FONT\HUB12_FONT.ASM
                     SLB1   0x000285    program     static D:\KennyNeutron\HUB12\HUB12_FONT\HUB12_FONT.ASM
                     SLB2   0x00028d    program     static D:\KennyNeutron\HUB12\HUB12_FONT\HUB12_FONT.ASM
                   SLICET   0x000293    program     static D:\KennyNeutron\HUB12\HUB12_FONT\HUB12_FONT.ASM
                     SLT0   0x000295    program     static D:\KennyNeutron\HUB12\HUB12_FONT\HUB12_FONT.ASM
                     SLT1   0x000299    program     static D:\KennyNeutron\HUB12\HUB12_FONT\HUB12_FONT.ASM
                     SLT2   0x0002a1    program     static D:\KennyNeutron\HUB12\HUB12_FONT\HUB12_FONT.ASM
                     DISP   0x0002a7    program     static D:\KennyNeutron\HUB12\HUB12_FONT\HUB12_FONT.ASM
                      MN0   0x0002a9    program     static D:\KennyNeutron\HUB12\HUB12_FONT\HUB12_FONT.ASM
                      DP0   0x0002ae    program     static D:\KennyNeutron\HUB12\HUB12_FONT\HUB12_FONT.ASM
                  DISPLAY   0x0002ae    program     static D:\KennyNeutron\HUB12\HUB12_FONT\HUB12_FONT.ASM
                     DSP0   0x0002b2    program     static D:\KennyNeutron\HUB12\HUB12_FONT\HUB12_FONT.ASM
                     DSP1   0x0002bc    program     static D:\KennyNeutron\HUB12\HUB12_FONT\HUB12_FONT.ASM
                     DSP2   0x0002c6    program     static D:\KennyNeutron\HUB12\HUB12_FONT\HUB12_FONT.ASM
                     DSP3   0x0002d0    program     static D:\KennyNeutron\HUB12\HUB12_FONT\HUB12_FONT.ASM
                DATALATCH   0x0002d9    program     static D:\KennyNeutron\HUB12\HUB12_FONT\HUB12_FONT.ASM
                      DL0   0x0002e0    program     static D:\KennyNeutron\HUB12\HUB12_FONT\HUB12_FONT.ASM
                       D0   0x0002e4    program     static D:\KennyNeutron\HUB12\HUB12_FONT\HUB12_FONT.ASM
                       D1   0x0002e6    program     static D:\KennyNeutron\HUB12\HUB12_FONT\HUB12_FONT.ASM
                      DL1   0x0002e8    program     static D:\KennyNeutron\HUB12\HUB12_FONT\HUB12_FONT.ASM
                    CLRAM   0x0002ef    program     static D:\KennyNeutron\HUB12\HUB12_FONT\HUB12_FONT.ASM
                     DRM0   0x0002f3    program     static D:\KennyNeutron\HUB12\HUB12_FONT\HUB12_FONT.ASM
                 DELAY_US   0x0002fb    program     static D:\KennyNeutron\HUB12\HUB12_FONT\HUB12_FONT.ASM
                     USEC   0x0002fc    program     static D:\KennyNeutron\HUB12\HUB12_FONT\HUB12_FONT.ASM
              DELAY_ONEMS   0x000303    program     static D:\KennyNeutron\HUB12\HUB12_FONT\HUB12_FONT.ASM
                     MSEC   0x000305    program     static D:\KennyNeutron\HUB12\HUB12_FONT\HUB12_FONT.ASM
                 DELAY_MS   0x00030a    program     static D:\KennyNeutron\HUB12\HUB12_FONT\HUB12_FONT.ASM
                    MSEC0   0x00030b    program     static D:\KennyNeutron\HUB12\HUB12_FONT\HUB12_FONT.ASM
             DELAY_ONESEC   0x00030f    program     static D:\KennyNeutron\HUB12\HUB12_FONT\HUB12_FONT.ASM
                     SEC0   0x000311    program     static D:\KennyNeutron\HUB12\HUB12_FONT\HUB12_FONT.ASM
                DELAY_SEC   0x000316    program     static D:\KennyNeutron\HUB12\HUB12_FONT\HUB12_FONT.ASM
                     SEC1   0x000317    program     static D:\KennyNeutron\HUB12\HUB12_FONT\HUB12_FONT.ASM
              SHIFTL_GRPB   0x00031b    program     static D:\KennyNeutron\HUB12\HUB12_FONT\HUB12_FONT.ASM
              SHIFTL_GRPA   0x00031b    program     static D:\KennyNeutron\HUB12\HUB12_FONT\HUB12_FONT.ASM
                     SB00   0x000325    program     static D:\KennyNeutron\HUB12\HUB12_FONT\HUB12_FONT.ASM
                     SB01   0x000330    program     static D:\KennyNeutron\HUB12\HUB12_FONT\HUB12_FONT.ASM
                     SB02   0x00033b    program     static D:\KennyNeutron\HUB12\HUB12_FONT\HUB12_FONT.ASM
                     SB03   0x000346    program     static D:\KennyNeutron\HUB12\HUB12_FONT\HUB12_FONT.ASM
                     SB04   0x000351    program     static D:\KennyNeutron\HUB12\HUB12_FONT\HUB12_FONT.ASM
                     SB05   0x00035c    program     static D:\KennyNeutron\HUB12\HUB12_FONT\HUB12_FONT.ASM
                     SB06   0x000367    program     static D:\KennyNeutron\HUB12\HUB12_FONT\HUB12_FONT.ASM
                     SB07   0x000372    program     static D:\KennyNeutron\HUB12\HUB12_FONT\HUB12_FONT.ASM
                SB08_FLAG   0x00037a    program     static D:\KennyNeutron\HUB12\HUB12_FONT\HUB12_FONT.ASM
                     SB08   0x00037e    program     static D:\KennyNeutron\HUB12\HUB12_FONT\HUB12_FONT.ASM
                     SB09   0x000389    program     static D:\KennyNeutron\HUB12\HUB12_FONT\HUB12_FONT.ASM
                     SB0A   0x000394    program     static D:\KennyNeutron\HUB12\HUB12_FONT\HUB12_FONT.ASM
                     SB0B   0x00039f    program     static D:\KennyNeutron\HUB12\HUB12_FONT\HUB12_FONT.ASM
                     SB0C   0x0003aa    program     static D:\KennyNeutron\HUB12\HUB12_FONT\HUB12_FONT.ASM
                     SB0D   0x0003b5    program     static D:\KennyNeutron\HUB12\HUB12_FONT\HUB12_FONT.ASM
                     SB0E   0x0003c0    program     static D:\KennyNeutron\HUB12\HUB12_FONT\HUB12_FONT.ASM
                     SB0F   0x0003cb    program     static D:\KennyNeutron\HUB12\HUB12_FONT\HUB12_FONT.ASM
              SHIFTL_GRPC   0x0003d3    program     static D:\KennyNeutron\HUB12\HUB12_FONT\HUB12_FONT.ASM
                     SC00   0x0003db    program     static D:\KennyNeutron\HUB12\HUB12_FONT\HUB12_FONT.ASM
                     SC01   0x0003e6    program     static D:\KennyNeutron\HUB12\HUB12_FONT\HUB12_FONT.ASM
                     SC02   0x0003f1    program     static D:\KennyNeutron\HUB12\HUB12_FONT\HUB12_FONT.ASM
                     SC03   0x0003fc    program     static D:\KennyNeutron\HUB12\HUB12_FONT\HUB12_FONT.ASM
                     SC04   0x000407    program     static D:\KennyNeutron\HUB12\HUB12_FONT\HUB12_FONT.ASM
                     SC05   0x000412    program     static D:\KennyNeutron\HUB12\HUB12_FONT\HUB12_FONT.ASM
                     SC06   0x00041d    program     static D:\KennyNeutron\HUB12\HUB12_FONT\HUB12_FONT.ASM
                     SC07   0x000428    program     static D:\KennyNeutron\HUB12\HUB12_FONT\HUB12_FONT.ASM
                SC08_FLAG   0x000430    program     static D:\KennyNeutron\HUB12\HUB12_FONT\HUB12_FONT.ASM
                     SC08   0x000434    program     static D:\KennyNeutron\HUB12\HUB12_FONT\HUB12_FONT.ASM
                     SC09   0x00043f    program     static D:\KennyNeutron\HUB12\HUB12_FONT\HUB12_FONT.ASM
                     SC0A   0x00044a    program     static D:\KennyNeutron\HUB12\HUB12_FONT\HUB12_FONT.ASM
                     SC0B   0x000455    program     static D:\KennyNeutron\HUB12\HUB12_FONT\HUB12_FONT.ASM
                     SC0C   0x000460    program     static D:\KennyNeutron\HUB12\HUB12_FONT\HUB12_FONT.ASM
                     SC0D   0x00046b    program     static D:\KennyNeutron\HUB12\HUB12_FONT\HUB12_FONT.ASM
                     SC0E   0x000476    program     static D:\KennyNeutron\HUB12\HUB12_FONT\HUB12_FONT.ASM
                     SC0F   0x000481    program     static D:\KennyNeutron\HUB12\HUB12_FONT\HUB12_FONT.ASM
              SHIFTL_GRPD   0x000489    program     static D:\KennyNeutron\HUB12\HUB12_FONT\HUB12_FONT.ASM
                     SD00   0x000491    program     static D:\KennyNeutron\HUB12\HUB12_FONT\HUB12_FONT.ASM
                     SD01   0x00049c    program     static D:\KennyNeutron\HUB12\HUB12_FONT\HUB12_FONT.ASM
                     SD02   0x0004a7    program     static D:\KennyNeutron\HUB12\HUB12_FONT\HUB12_FONT.ASM
                     SD03   0x0004b2    program     static D:\KennyNeutron\HUB12\HUB12_FONT\HUB12_FONT.ASM
                     SD04   0x0004bd    program     static D:\KennyNeutron\HUB12\HUB12_FONT\HUB12_FONT.ASM
                     SD05   0x0004c8    program     static D:\KennyNeutron\HUB12\HUB12_FONT\HUB12_FONT.ASM
                     SD06   0x0004d3    program     static D:\KennyNeutron\HUB12\HUB12_FONT\HUB12_FONT.ASM
                     SD07   0x0004de    program     static D:\KennyNeutron\HUB12\HUB12_FONT\HUB12_FONT.ASM
                SD08_FLAG   0x0004e6    program     static D:\KennyNeutron\HUB12\HUB12_FONT\HUB12_FONT.ASM
                     SD08   0x0004ea    program     static D:\KennyNeutron\HUB12\HUB12_FONT\HUB12_FONT.ASM
                     SD09   0x0004f5    program     static D:\KennyNeutron\HUB12\HUB12_FONT\HUB12_FONT.ASM
                     SD0A   0x000500    program     static D:\KennyNeutron\HUB12\HUB12_FONT\HUB12_FONT.ASM
                     SD0B   0x00050b    program     static D:\KennyNeutron\HUB12\HUB12_FONT\HUB12_FONT.ASM
                     SD0C   0x000516    program     static D:\KennyNeutron\HUB12\HUB12_FONT\HUB12_FONT.ASM
                     SD0D   0x000521    program     static D:\KennyNeutron\HUB12\HUB12_FONT\HUB12_FONT.ASM
                     SD0E   0x00052c    program     static D:\KennyNeutron\HUB12\HUB12_FONT\HUB12_FONT.ASM
                     SD0F   0x000537    program     static D:\KennyNeutron\HUB12\HUB12_FONT\HUB12_FONT.ASM
                     CHAR   0x000800    program     static D:\KennyNeutron\HUB12\HUB12_FONT\HUB12_FONT.ASM
                     ZERO   0x00080c    program     static D:\KennyNeutron\HUB12\HUB12_FONT\HUB12_FONT.ASM
                      ONE   0x000821    program     static D:\KennyNeutron\HUB12\HUB12_FONT\HUB12_FONT.ASM
                      TWO   0x000834    program     static D:\KennyNeutron\HUB12\HUB12_FONT\HUB12_FONT.ASM
                    THREE   0x000847    program     static D:\KennyNeutron\HUB12\HUB12_FONT\HUB12_FONT.ASM
                     FOUR   0x00085a    program     static D:\KennyNeutron\HUB12\HUB12_FONT\HUB12_FONT.ASM
                     FIVE   0x00086d    program     static D:\KennyNeutron\HUB12\HUB12_FONT\HUB12_FONT.ASM
                      SIX   0x000880    program     static D:\KennyNeutron\HUB12\HUB12_FONT\HUB12_FONT.ASM
                    SEVEN   0x000893    program     static D:\KennyNeutron\HUB12\HUB12_FONT\HUB12_FONT.ASM
                    EIGHT   0x0008a6    program     static D:\KennyNeutron\HUB12\HUB12_FONT\HUB12_FONT.ASM
                     NINE   0x0008b9    program     static D:\KennyNeutron\HUB12\HUB12_FONT\HUB12_FONT.ASM
                   L_CHAR   0x000900    program     static D:\KennyNeutron\HUB12\HUB12_FONT\HUB12_FONT.ASM
                   L_ZERO   0x00090c    program     static D:\KennyNeutron\HUB12\HUB12_FONT\HUB12_FONT.ASM
                    L_ONE   0x000917    program     static D:\KennyNeutron\HUB12\HUB12_FONT\HUB12_FONT.ASM
                    L_TWO   0x000922    program     static D:\KennyNeutron\HUB12\HUB12_FONT\HUB12_FONT.ASM
                  L_THREE   0x00092d    program     static D:\KennyNeutron\HUB12\HUB12_FONT\HUB12_FONT.ASM
                   L_FOUR   0x000938    program     static D:\KennyNeutron\HUB12\HUB12_FONT\HUB12_FONT.ASM
                   L_FIVE   0x000943    program     static D:\KennyNeutron\HUB12\HUB12_FONT\HUB12_FONT.ASM
                    L_SIX   0x00094e    program     static D:\KennyNeutron\HUB12\HUB12_FONT\HUB12_FONT.ASM
                  L_SEVEN   0x000959    program     static D:\KennyNeutron\HUB12\HUB12_FONT\HUB12_FONT.ASM
                  L_EIGHT   0x000964    program     static D:\KennyNeutron\HUB12\HUB12_FONT\HUB12_FONT.ASM
                   L_NINE   0x00096f    program     static D:\KennyNeutron\HUB12\HUB12_FONT\HUB12_FONT.ASM
                    T_ONE   0x000a00    program     static D:\KennyNeutron\HUB12\HUB12_FONT\HUB12_FONT.ASM
                    T_TWO   0x000a00    program     static D:\KennyNeutron\HUB12\HUB12_FONT\HUB12_FONT.ASM
                   T_ZERO   0x000a00    program     static D:\KennyNeutron\HUB12\HUB12_FONT\HUB12_FONT.ASM
                  T_EIGHT   0x000a23    program     static D:\KennyNeutron\HUB12\HUB12_FONT\HUB12_FONT.ASM
                   T_FIVE   0x000a23    program     static D:\KennyNeutron\HUB12\HUB12_FONT\HUB12_FONT.ASM
                   T_FOUR   0x000a23    program     static D:\KennyNeutron\HUB12\HUB12_FONT\HUB12_FONT.ASM
                   T_NINE   0x000a23    program     static D:\KennyNeutron\HUB12\HUB12_FONT\HUB12_FONT.ASM
                  T_SEVEN   0x000a23    program     static D:\KennyNeutron\HUB12\HUB12_FONT\HUB12_FONT.ASM
                    T_SIX   0x000a23    program     static D:\KennyNeutron\HUB12\HUB12_FONT\HUB12_FONT.ASM
                  T_THREE   0x000a23    program     static D:\KennyNeutron\HUB12\HUB12_FONT\HUB12_FONT.ASM


