MPASM  5.51           2X2P10SCOREBOARD32K.ASM   4-20-2020  11:34:52         PAGE  1


LOC  OBJECT CODE     LINE SOURCE TEXT
  VALUE

                      00001 ;******************************************************************************
                      00002 ;                                                                             *
                      00003 ;    FILENAME:     2X2 P10 MODULE SCOREBOARD                                  *
                      00004 ;    DATE:         FEBRUARY 29, 2020                                          *
                      00005 ;    FILE VERSION: V1.0                                                       *
                      00006 ;                                                                             *
                      00007 ;    AUTHOR:       KENNYNEUTRON                                               *
                      00008 ;    COMPANY:      GER-PER ENGINEERING                                        *
                      00009 ;                                                                             * 
                      00010 ;******************************************************************************
                      00011 ;                                                                             *
                      00012 ;    FILES REQUIRED: P18F4620.INC                                             *
                      00013 ;                                                                             *
                      00014 ;******************************************************************************
                      00015 
                      00016         LIST P=18F4620                  ;DIRECTIVE TO DEFINE PROCESSOR
                      00017         #INCLUDE <P18F4620.INC> ;PROCESSOR SPECIFIC VARIABLE DEFINITIONS
                      00001         LIST
                      00002 
                      00003 ;==========================================================================
                      00004 ;  MPASM PIC18F4620 processor include
                      00005 ; 
                      00006 ;  (c) Copyright 1999-2013 Microchip Technology, All rights reserved
                      00007 ;==========================================================================
                      00008 
                      01439         LIST
                      00018 
                      00019 
                      00020 ;******************************************************************************
                      00021 ;CONFIGURATION BITS
                      00022 ;MICROCHIP HAS CHANGED THE FORMAT FOR DEFINING THE CONFIGURATION BITS, PLEASE 
                      00023 ;SEE THE .INC FILE FOR FUTHER DETAILS ON NOTATION.  BELOW ARE A FEW EXAMPLES.
                      00024 
                      00025 
                      00026 ;CONFIG
                      00027 
                      00028 
                      00029 
Warning[205]: Found directive in column 1. (CONFIG)
06 19 1E 01 80 00 40 000030 CONFIG  OSC     =       HSPLL   ;OSCILLATOR
       F E0 0F 40 
Warning[205]: Found directive in column 1. (CONFIG)
                      00031 CONFIG  FCMEN   =       OFF             ;FAIL-SAFE CLOCK MONITOR
Warning[205]: Found directive in column 1. (CONFIG)
                      00032 CONFIG  IESO    =       OFF             ;INTERNAL/EXTERNAL SWITCH-OVER
Warning[205]: Found directive in column 1. (CONFIG)
                      00033 CONFIG  PWRT    =       OFF             ;POWER-UP TIMER
Warning[205]: Found directive in column 1. (CONFIG)
                      00034 CONFIG  BOREN   =       OFF             ;BROWN OUT RESET ENABLE
Warning[205]: Found directive in column 1. (CONFIG)
                      00035 CONFIG  PBADEN  =       OFF     ;PORTB A/D ENABLE
Warning[205]: Found directive in column 1. (CONFIG)
                      00036 CONFIG  LPT1OSC =       OFF             ;LOW-POWER TIMER1 OSCILLATOR
MPASM  5.51           2X2P10SCOREBOARD32K.ASM   4-20-2020  11:34:52         PAGE  2


LOC  OBJECT CODE     LINE SOURCE TEXT
  VALUE

Warning[205]: Found directive in column 1. (CONFIG)
                      00037 CONFIG  MCLRE   =       OFF             ;MEMORY CLEAR EXTERNAL
Warning[205]: Found directive in column 1. (CONFIG)
                      00038 CONFIG  STVREN  =       OFF             ;STACK FULL/UNDERFLOW RESET ENABLE
Warning[205]: Found directive in column 1. (CONFIG)
                      00039 CONFIG  LVP     =       OFF             ;SINGLE SUPPLY ICSP
Warning[205]: Found directive in column 1. (CONFIG)
                      00040 CONFIG  XINST   =       OFF             ;EXTENDED INSTRUCTION SET
Warning[205]: Found directive in column 1. (CONFIG)
                      00041 CONFIG  DEBUG   =       OFF             ;BACKGROUND DEBUGGERS
Warning[205]: Found directive in column 1. (CONFIG)
                      00042 CONFIG  CP0     =       ON      ;CODE PROTECT
Warning[205]: Found directive in column 1. (CONFIG)
                      00043 CONFIG  CP1             =       ON
Warning[205]: Found directive in column 1. (CONFIG)
                      00044 CONFIG  CP2             =       ON
Warning[205]: Found directive in column 1. (CONFIG)
                      00045 CONFIG  CP3             =       ON
Warning[205]: Found directive in column 1. (CONFIG)
                      00046 CONFIG  CPD             =       ON
000000                00047 CPB_ON_5H
000000                00048 CPD_ON_5H
000000                00049 EBTR0_ON_7L
000000                00050 EBTR1_ON_7L
000000                00051 EBTR2_ON_7L
000000                00052 EBTR3_ON_7L
                      00053 
Warning[205]: Found directive in column 1. (CONFIG)
                      00054 CONFIG  WDT     =       OFF             ;WATCHDOG TIMER
                      00055 ;CONFIG WDTPS   =       4       ;WATCHDOG TIMER POSTSCALER 1:1= 4MSECONDS
                      00056 ;******************************************************************************
                      00057 ;VARIABLE DEFINITIONS
                      00058 ; THESE VARIABLES ARE ONLY NEEDED IF LOW PRIORITY INTERRUPTS ARE USED. 
                      00059 ; MORE VARIABLES MAY BE NEEDED TO STORE OTHER SPECIAL FUNCTION REGISTERS USED
                      00060 ; IN THE INTERRUPT ROUTINES.
                      00061 
                      00062                 #DEFINE         OE_ON           BSF     LATD,7,0
                      00063                 #DEFINE         OE_OFF          BCF     LATD,7,0
                      00064 
                      00065 
                      00066                 #DEFINE         LAT_ON          BSF     LATD,5,0
                      00067                 #DEFINE         LAT_OFF         BCF     LATD,5,0
                      00068 
                      00069                 #DEFINE         CLK_ON          BSF     LATD,6,0
                      00070                 #DEFINE         CLK_OFF         BCF     LATD,6,0
                      00071 
                      00072                 #DEFINE         DAT_1           BSF     LATD,4,0
                      00073                 #DEFINE         DAT_0           BCF     LATD,4,0
                      00074 
                      00075                 #DEFINE         A_1             BSF     LATD,0,0
                      00076                 #DEFINE         A_0             BCF     LATD,0,0
                      00077 
                      00078                 #DEFINE         B_1             BSF     LATD,1,0
MPASM  5.51           2X2P10SCOREBOARD32K.ASM   4-20-2020  11:34:52         PAGE  3


LOC  OBJECT CODE     LINE SOURCE TEXT
  VALUE

                      00079                 #DEFINE         B_0             BCF LATD,1,0
                      00080 
                      00081 
                      00082                 CBLOCK  0X16C
  0000016C            00083                 W_TEMP  ;VARIABLE USED FOR CONTEXT SAVING 
  0000016D            00084                 STATUS_TEMP     ;VARIABLE USED FOR CONTEXT SAVING
  0000016E            00085                 BSR_TEMP        ;VARIABLE USED FOR CONTEXT SAVING
  0000016F            00086                 PCLATH_TEMP
                      00087                 ENDC
                      00088 
                      00089                 CBLOCK  0X000
  00000000            00090                         EXAMPLE         ;EXAMPLE OF A VARIABLE IN ACCESS RAM
                      00091                 ENDC
                      00092 
                      00093                 CBLOCK  0X100
Warning[210]: Extra ","
  00000100            00094                         DELAYUS, DELAYMS,  SPI_DATAIN, SEC,DELAYS,      ;DELAY VARIABLES
                      00095                         ;=======================================================
  00000105            00096                         LOOP,DREGCOUNT,BYTECOUNT,TRAMCOUNT,TRAM_SHIFT
  0000010A            00097                         BTCOUNT,POINTER,DATAHOLD,LINESCAN
  0000010E            00098                         CHAR,FONT,RAM_STPT,REG_STPT
                      00099 
  00000112            00100                         CURSORX,CURSORY,CURSORY_TEMP,CURSORX_TEMP
  00000116            00101                         WIDTH,HEIGHT
                      00102 
  00000118            00103                         COUNT0,COUNT1,WREG_TEMP
                      00104                 ENDC
                      00105 
                      00106 
                      00107                 CBLOCK  0X120
  00000120            00108                         TEMPRAM:.48     
  00000150            00109                         HEADER0,HEADER1                         ;HEADERS
  00000152            00110                         SC_TENS,SC_ONES,SC_MSEC         ;SHOTCLOCK
  00000155            00111                         GTM_TENS,GTM_ONES                       ;GAME TIME MINUTES
  00000157            00112                         GTS_TENS,GTS_ONES,GT_MSEC       ;GAME TIME SECONDS
  0000015A            00113                         POS                                                     ;BALL POSSESION
  0000015B            00114                         PERIOD
  0000015C            00115                         HS_H,HS_T,HS_O                          ;HOME SCORE
  0000015F            00116                         GS_H,GS_T,GS_O                          ;GUEST SCORE
  00000162            00117                         FOUL_H,FOUL_G                           ;FOULS
  00000164            00118                         TO_H,TO_G                                       ;TIME-OUTS
  00000166            00119                         FOOTER
  00000167            00120                         RS_REC
  00000168            00121                         TXREG_T ;TXREG TEMP
                      00122 
                      00123                 ENDC
                      00124 
                      00125 
                      00126                 CBLOCK  0X170
  00000170            00127                         GPU_REG:.52
  000001A4            00128                         GPR_LOOP,GPREG_TEMP,GP_COUNTER
  000001A7            00129                         GPSTARTBIT,HEADERBIT,FOOTERBIT
  000001AA            00130                         LOGO_LOOP0,LOGO_LOOP1,LOGO_DELAY
MPASM  5.51           2X2P10SCOREBOARD32K.ASM   4-20-2020  11:34:52         PAGE  4


LOC  OBJECT CODE     LINE SOURCE TEXT
  VALUE

                      00131                 ENDC
                      00132 
                      00133                 CBLOCK  0X200
  00000200            00134                         DRAM: 0XFE
                      00135                 ENDC
                      00136 
                      00137 ;******************************************************************************
                      00138 ;EEPROM DATA
                      00139 ; DATA TO BE PROGRAMMED INTO THE DATA EEPROM IS DEFINED HERE
                      00140 
F00000                00141                 ORG     0XF00000
                      00142                         
                      00143         ;       DE      "TEST DATA",0,1,2,3,4,5
                      00144 
                      00145 ;******************************************************************************
                      00146 ;RESET VECTOR
                      00147 ; THIS CODE WILL START EXECUTING WHEN A RESET OCCURS.
                      00148 
000000                00149                 ORG     0X0000
                      00150 
000000 EF19 F000      00151                 GOTO    INIT            ;GO TO START OF MAIN CODE
                      00152 
                      00153 ;******************************************************************************
                      00154 ;HIGH PRIORITY INTERRUPT VECTOR
                      00155 ; THIS CODE WILL START EXECUTING WHEN A HIGH PRIORITY INTERRUPT OCCURS OR
                      00156 ; WHEN ANY INTERRUPT OCCURS IF INTERRUPT PRIORITIES ARE NOT ENABLED.
                      00157 
000008                00158                 ORG     0X0008
                      00159 
000008 EC54 F029      00160                 CALL    INTERRUPT               ;GO TO HIGH PRIORITY INTERRUPT ROUTINE
00000C 0010           00161                 RETFIE
                      00162 ;******************************************************************************
                      00163 ;LOW PRIORITY INTERRUPT VECTOR AND ROUTINE
                      00164 ; THIS CODE WILL START EXECUTING WHEN A LOW PRIORITY INTERRUPT OCCURS.
                      00165 ; THIS CODE CAN BE REMOVED IF LOW PRIORITY INTERRUPTS ARE NOT USED.
                      00166 
000018                00167                 ORG     0X0018
                      00168 
                      00169 ;               GOTO    INTERRUPT
000018 0010           00170                 RETFIE
00001A CFD8 F16D      00171                 MOVFF   STATUS,STATUS_TEMP      ;SAVE STATUS REGISTER
00001E CFE8 F16C      00172                 MOVFF   WREG,W_TEMP             ;SAVE WORKING REGISTER
000022 CFE0 F16E      00173                 MOVFF   BSR,BSR_TEMP            ;SAVE BSR REGISTER
                      00174 
                      00175 ;       *** LOW PRIORITY INTERRUPT CODE GOES HERE ***
                      00176 
                      00177 
000026 C16E FFE0      00178                 MOVFF   BSR_TEMP,BSR            ;RESTORE BSR REGISTER
00002A C16C FFE8      00179                 MOVFF   W_TEMP,WREG                     ;RESTORE WORKING REGISTER
00002E C16D FFD8      00180                 MOVFF   STATUS_TEMP,STATUS      ;RESTORE STATUS REGISTER
                      00181 
                      00182 
                      00183 
MPASM  5.51           2X2P10SCOREBOARD32K.ASM   4-20-2020  11:34:52         PAGE  5


LOC  OBJECT CODE     LINE SOURCE TEXT
  VALUE

                      00184 ;******************************************************************************
                      00185                                 ;HIGH PRIORITY INTERRUPT ROUTINE
                      00186                                 ; THE HIGH PRIORITY INTERRUPT CODE IS PLACED HERE TO AVOID CONFLICTING W
                            ITH
                      00187                                 ; THE LOW PRIORITY INTERRUPT VECTOR.
                      00188 
                      00189 ;$$$$$$$$$$$$$$$$$$$$$$$$       INITIALIZE              $$$$$$$$$$$$$$$$$$$$$$$$$$$$$$$$$
000032                00190 INIT
                      00191 ;========================= INITIALIZE PORTA =================================
Warning[203]: Found opcode in column 1. (CLRF)
000032 6A80           00192 CLRF PORTA              ; INITIALIZE PORTA BY
                      00193                                 ; CLEARING OUTPUT
                      00194                                 ; DATA LATCHES
Warning[203]: Found opcode in column 1. (CLRF)
000034 6A89           00195 CLRF LATA               ; ALTERNATE METHOD
                      00196                                 ; TO CLEAR OUTPUT
                      00197                                 ; DATA LATCHES
Warning[203]: Found opcode in column 1. (MOVLW)
000036 0E07           00198 MOVLW 07H               ; CONFIGURE A/D
Warning[203]: Found opcode in column 1. (MOVWF)
000038 6EC1           00199 MOVWF ADCON1    ; FOR DIGITAL INPUTS
Warning[203]: Found opcode in column 1. (MOVWF)
00003A 6E07           00200 MOVWF 07H               ; CONFIGURE COMPARATORS
Warning[203]: Found opcode in column 1. (MOVWF)
00003C 6EB4           00201 MOVWF CMCON     ; FOR DIGITAL INPUT
Warning[203]: Found opcode in column 1. (MOVLW)
00003E 0ECF           00202 MOVLW 0CFH              ; VALUE USED TO
                      00203                                 ; INITIALIZE DATA
                      00204                                 ; DIRECTION
Warning[203]: Found opcode in column 1. (MOVWF)
000040 6E92           00205 MOVWF TRISA     ; SET RA<7:6,3:0> AS INPUTS
                      00206                                 ; RA<5:4> AS OUTPUTS
                      00207 ;============================================================================
                      00208 
                      00209 
                      00210 ;========================= INITIALIZE PORTB =================================
Warning[203]: Found opcode in column 1. (CLRF)
000042 6A81           00211 CLRF PORTB              ; INITIALIZE PORTB BY
                      00212                                 ; CLEARING OUTPUT
                      00213                                 ; DATA LATCHES
Warning[203]: Found opcode in column 1. (CLRF)
000044 6A8A           00214 CLRF LATB               ; ALTERNATE METHOD
                      00215                                 ; TO CLEAR OUTPUT
                      00216                                 ; DATA LATCHES
Warning[203]: Found opcode in column 1. (MOVLW)
000046 0E0F           00217 MOVLW 0FH               ; SET RB<4:0> AS
Warning[203]: Found opcode in column 1. (MOVWF)
000048 6EC1           00218 MOVWF ADCON1    ; DIGITAL I/O PINS
                      00219                                 ; (REQUIRED IF CONFIG BIT
                      00220                                 ; PBADEN IS SET)
Warning[203]: Found opcode in column 1. (MOVLW)
00004A 0E00           00221 MOVLW 0                 ; VALUE USED TO
                      00222                                 ; INITIALIZE DATA
MPASM  5.51           2X2P10SCOREBOARD32K.ASM   4-20-2020  11:34:52         PAGE  6


LOC  OBJECT CODE     LINE SOURCE TEXT
  VALUE

                      00223                                 ; DIRECTION
Warning[203]: Found opcode in column 1. (MOVWF)
00004C 6E93           00224 MOVWF TRISB     ; SET RB<3:0> AS INPUTS
                      00225                                 ; RB<7:0> AS INPUTS
                      00226 ;============================================================================
                      00227 
                      00228 
                      00229 
                      00230 ;========================= INITIALIZE PORTD =================================
Warning[203]: Found opcode in column 1. (CLRF)
00004E 6A83           00231 CLRF    PORTD           ; INITIALIZE PORTD BY
                      00232                                 ; CLEARING OUTPUT
                      00233                                 ; DATA LATCHES
Warning[203]: Found opcode in column 1. (CLRF)
000050 6A8C           00234 CLRF    LATD            ; ALTERNATE METHOD
                      00235                                 ; TO CLEAR OUTPUT
                      00236                                 ; DATA LATCHES
Warning[203]: Found opcode in column 1. (MOVLW)
000052 0E00           00237 MOVLW   0               ; VALUE USED TO
                      00238                                 ; INITIALIZE DATA
                      00239                                 ; DIRECTION
Warning[203]: Found opcode in column 1. (MOVWF)
000054 6E95           00240 MOVWF   TRISD   ; SET RD<3:0> AS INPUTS
                      00241                                 ; RD<5:4> AS OUTPUTS
                      00242                                 ; RD<7:6> AS INPUTS
                      00243 ;============================================================================
                      00244 
                      00245 ;========================= INITIALIZE PORTE =================================
Warning[203]: Found opcode in column 1. (CLRF)
000056 6A84           00246 CLRF PORTE              ; INITIALIZE PORTE BY
                      00247                                 ; CLEARING OUTPUT
                      00248                                 ; DATA LATCHES
Warning[203]: Found opcode in column 1. (CLRF)
000058 6A8D           00249 CLRF LATE               ; ALTERNATE METHOD
                      00250                                 ; TO CLEAR OUTPUT
                      00251                                 ; DATA LATCHES
Warning[203]: Found opcode in column 1. (MOVLW)
00005A 0E0A           00252 MOVLW 0AH               ; CONFIGURE A/D
Warning[203]: Found opcode in column 1. (MOVWF)
00005C 6EC1           00253 MOVWF ADCON1    ; FOR DIGITAL INPUTS
Warning[203]: Found opcode in column 1. (MOVLW)
00005E 0E07           00254 MOVLW 0X07              ; VALUE USED TO
                      00255                                 ; INITIALIZE DATA
                      00256                                 ; DIRECTION
Warning[203]: Found opcode in column 1. (MOVWF)
000060 6E96           00257 MOVWF TRISE,0   ; SET RE<0> AS INPUTS
                      00258                                 ; RE<1> AS OUTPUTS
                      00259                                 ; RE<2> AS INPUTS
                      00260 ;============================================================================
                      00261 
                      00262 
                      00263 ;========================= INITIALIZE PORTC =================================
Warning[203]: Found opcode in column 1. (CLRF)
MPASM  5.51           2X2P10SCOREBOARD32K.ASM   4-20-2020  11:34:52         PAGE  7


LOC  OBJECT CODE     LINE SOURCE TEXT
  VALUE

000062 6A82           00264 CLRF    PORTC
Warning[203]: Found opcode in column 1. (CLRF)
000064 6A8B           00265 CLRF    LATC
Warning[203]: Found opcode in column 1. (MOVLW)
000066 0E80           00266 MOVLW   0X80
Warning[203]: Found opcode in column 1. (MOVWF)
000068 6E94           00267 MOVWF   TRISC
                      00268 
Warning[203]: Found opcode in column 1. (MOVLB)
00006A 010F           00269 MOVLB   0X0F
                      00270 
                      00271         ;---CONFIGURE GENERAL INTERRUPTS
00006C 0EC0           00272         MOVLW B'11000000' ;DISABLE ALL INTERRUPTS EXCEPT PERIPHERAL
00006E 6EF2           00273         MOVWF INTCON ;INTERRUPT CONTROL REGISTERE
                      00274 
                      00275 
                      00276         ;---CONFIGURE PERIPHERAL INTERRUPTS
000070 0E20           00277         MOVLW B'00100000' ;DISABLE ALL PERIPHERAL INTERRUPTS EXCEPT RECEIVER
000072 6E9D           00278         MOVWF PIE1 ;PERIPHERAL INTERRUPT ENABLE/DISABLE
000074 0E00           00279         MOVLW   0
000076 6EA0           00280         MOVWF   PIE2
000078 6E9F           00281         MOVWF   IPR1
00007A 6EA2           00282         MOVWF   IPR2
                      00283 
                      00284 
                      00285 
                      00286 
                      00287 
                      00288         ;---CONFIGURE SPBRG FOR DESIRED BAUD RATE
00007C 0E05           00289         MOVLW   0X05
00007E 6EB0           00290         MOVWF   SPBRGH
000080 0EFF           00291         MOVLW   .255
000082 6EAF           00292         MOVWF   SPBRG
                      00293 
000084 86B8           00294         BSF             BAUDCON,3
                      00295 
                      00296 
000086 0E24           00297         MOVLW B'00100100' ;CONFIGURE TXSTA AS :
000088 6EAC           00298         MOVWF TXSTA ;
                      00299 
                      00300 
00008A 0E80           00301         MOVLW B'10000000' ;ENABLE SERIAL PORT
00008C 6EAB           00302         MOVWF RCSTA ;RECEIVE STATUS REG
                      00303 
                      00304 
00008E 88AB           00305         BSF RCSTA,4 ;ENABLE USART RECEIVE
                      00306 ;============================================================================ 
                      00307 
                      00308 
                      00309 
Warning[203]: Found opcode in column 1. (MOVLB)
000090 0101           00310 MOVLB   0X01
                      00311 
MPASM  5.51           2X2P10SCOREBOARD32K.ASM   4-20-2020  11:34:52         PAGE  8


LOC  OBJECT CODE     LINE SOURCE TEXT
  VALUE

Warning[203]: Found opcode in column 1. (BSF)
000092 8E8C           00312 OE_ON
Warning[203]: Found opcode in column 1. (BCF)
000094 9A8C           00313 LAT_OFF
Warning[203]: Found opcode in column 1. (BCF)
000096 9C8C           00314 CLK_OFF
                      00315 
Warning[203]: Found opcode in column 1. (CALL)
000098 ECB9 F000      00316 CALL    CLR_DRAM
Warning[203]: Found opcode in column 1. (CALL)
00009C ECC8 F000      00317 CALL    CLR_TEMPRAM
Warning[203]: Found opcode in column 1. (CALL)
0000A0 EC20 F001      00318 CALL    DATAREG
                      00319 
Warning[203]: Found opcode in column 1. (MOVLW)
0000A4 0E02           00320 MOVLW   2
Warning[203]: Found opcode in column 1. (MOVWF)
0000A6 6F52           00321 MOVWF   SC_TENS
                      00322 
Warning[203]: Found opcode in column 1. (MOVLW)
0000A8 0E04           00323 MOVLW   4
Warning[203]: Found opcode in column 1. (MOVWF)
0000AA 6F53           00324 MOVWF   SC_ONES
                      00325 
Warning[203]: Found opcode in column 1. (MOVLW)
0000AC 0E01           00326 MOVLW   1
Warning[203]: Found opcode in column 1. (MOVWF)
0000AE 6F55           00327 MOVWF   GTM_TENS
                      00328 
Warning[203]: Found opcode in column 1. (MOVLW)
0000B0 0E00           00329 MOVLW   0
Warning[203]: Found opcode in column 1. (MOVWF)
0000B2 6F56           00330 MOVWF   GTM_ONES
                      00331 
Warning[203]: Found opcode in column 1. (MOVLW)
0000B4 0E00           00332 MOVLW   0
Warning[203]: Found opcode in column 1. (MOVWF)
0000B6 6F57           00333 MOVWF   GTS_TENS
                      00334 
Warning[203]: Found opcode in column 1. (MOVLW)
0000B8 0E00           00335 MOVLW   0
Warning[203]: Found opcode in column 1. (MOVWF)
0000BA 6F58           00336 MOVWF   GTS_ONES
                      00337 
Warning[203]: Found opcode in column 1. (MOVLW)
0000BC 0E00           00338 MOVLW   0
Warning[203]: Found opcode in column 1. (MOVWF)
0000BE 6F59           00339 MOVWF   GT_MSEC
                      00340 
Warning[203]: Found opcode in column 1. (MOVLW)
0000C0 0E06           00341 MOVLW   B'00000110'
Warning[203]: Found opcode in column 1. (MOVWF)
0000C2 6F5A           00342 MOVWF   POS
MPASM  5.51           2X2P10SCOREBOARD32K.ASM   4-20-2020  11:34:52         PAGE  9


LOC  OBJECT CODE     LINE SOURCE TEXT
  VALUE

                      00343 
Warning[203]: Found opcode in column 1. (MOVLW)
0000C4 0E01           00344 MOVLW   1
Warning[203]: Found opcode in column 1. (MOVWF)
0000C6 6F5B           00345 MOVWF   PERIOD
                      00346 
Warning[203]: Found opcode in column 1. (MOVLW)
0000C8 0E0A           00347 MOVLW   0X0A
Warning[203]: Found opcode in column 1. (MOVWF)
0000CA 6F5C           00348 MOVWF   HS_H
                      00349 
Warning[203]: Found opcode in column 1. (MOVLW)
0000CC 0E0A           00350 MOVLW   0X0A
Warning[203]: Found opcode in column 1. (MOVWF)
0000CE 6F5D           00351 MOVWF   HS_T
                      00352 
Warning[203]: Found opcode in column 1. (MOVLW)
0000D0 0E00           00353 MOVLW   0
Warning[203]: Found opcode in column 1. (MOVWF)
0000D2 6F5E           00354 MOVWF   HS_O
                      00355 
Warning[203]: Found opcode in column 1. (MOVLW)
0000D4 0E0A           00356 MOVLW   0X0A
Warning[203]: Found opcode in column 1. (MOVWF)
0000D6 6F5F           00357 MOVWF   GS_H
                      00358 
Warning[203]: Found opcode in column 1. (MOVLW)
0000D8 0E0A           00359 MOVLW   0X0A
Warning[203]: Found opcode in column 1. (MOVWF)
0000DA 6F60           00360 MOVWF   GS_T
                      00361 
Warning[203]: Found opcode in column 1. (MOVLW)
0000DC 0E00           00362 MOVLW   0
Warning[203]: Found opcode in column 1. (MOVWF)
0000DE 6F61           00363 MOVWF   GS_O
                      00364 
                      00365 
Warning[203]: Found opcode in column 1. (MOVLW)
0000E0 0E00           00366 MOVLW   0
Warning[203]: Found opcode in column 1. (MOVWF)
0000E2 6F64           00367 MOVWF   TO_H
                      00368 
Warning[203]: Found opcode in column 1. (MOVLW)
0000E4 0E00           00369 MOVLW   0
Warning[203]: Found opcode in column 1. (MOVWF)
0000E6 6F65           00370 MOVWF   TO_G
                      00371 
Warning[203]: Found opcode in column 1. (MOVLW)
0000E8 0E00           00372 MOVLW   0X00
Warning[203]: Found opcode in column 1. (MOVWF)
0000EA 6F67           00373 MOVWF   RS_REC
                      00374 
0000EC                00375 MN0
MPASM  5.51           2X2P10SCOREBOARD32K.ASM   4-20-2020  11:34:52         PAGE 10


LOC  OBJECT CODE     LINE SOURCE TEXT
  VALUE

Warning[203]: Found opcode in column 1. (CALL)
0000EC ECA4 F02A      00376 CALL    DISP_LOGO
Warning[203]: Found opcode in column 1. (CALL)
0000F0 ECA4 F02A      00377 CALL    DISP_LOGO
Warning[203]: Found opcode in column 1. (CALL)
0000F4 ECA4 F02A      00378 CALL    DISP_LOGO
                      00379 
                      00380 
                      00381 
Warning[203]: Found opcode in column 1. (MOVLW)
0000F8 0EAA           00382 MOVLW 0XAA
Warning[203]: Found opcode in column 1. (MOVWF)
0000FA 6F68           00383 MOVWF TXREG_T ;TO TXREG
                      00384 
                      00385 
Warning[203]: Found opcode in column 1. (MOVLW)
0000FC 0E00           00386 MOVLW   0
Warning[203]: Found opcode in column 1. (MOVWF)
0000FE 6FA8           00387 MOVWF   HEADERBIT
Warning[203]: Found opcode in column 1. (MOVLW)
000100 0E00           00388 MOVLW   0
Warning[203]: Found opcode in column 1. (MOVWF)
000102 6FA9           00389 MOVWF   FOOTERBIT
                      00390 
                      00391 
                      00392 
                      00393 
Warning[203]: Found opcode in column 1. (BCF)
000104 948C           00394 BCF     LATD,2,0
Warning[203]: Found opcode in column 1. (BCF)
000106 9EF2           00395 BCF             INTCON,7
                      00396 ;#######################        MAIN PROGRAM  ###########################
000108                00397 MAIN
                      00398 
000108 ECD7 F000      00399         CALL    DISPLAY
                      00400 
Warning[203]: Found opcode in column 1. (GOTO)
00010C EF84 F000      00401 GOTO    MAIN
                      00402 
                      00403 ;####################################################################
                      00404 
                      00405 
                      00406 
                      00407 
000110                00408 TRSMITSAMP
000110 C168 FFAD      00409         MOVFF TXREG_T,TXREG ;TO TXREG
                      00410 
                      00411 
                      00412 
000114                00413 WTHERE:
000114 A2AC           00414         BTFSS TXSTA, TRMT
000116 EF8A F000      00415     GOTO WTHERE
                      00416 
MPASM  5.51           2X2P10SCOREBOARD32K.ASM   4-20-2020  11:34:52         PAGE 11


LOC  OBJECT CODE     LINE SOURCE TEXT
  VALUE

                      00417 
00011A EC90 F000      00418         CALL DELAY_US
Warning[203]: Found opcode in column 1. (RETURN)
00011E 0012           00419 RETURN
                      00420 
                      00421 
                      00422 ;==========     DELAY USEC =========
000120                00423 DELAY_US
                      00424 
000120 6F00           00425         MOVWF   DELAYUS
                      00426 
000122                00427 USEC
                      00428 
000122 0000           00429         NOP
000124 0000           00430         NOP
000126 0000           00431         NOP
000128 0000           00432         NOP
Warning[203]: Found opcode in column 1. (DECFSZ)
00012A 2F00           00433 DECFSZ  DELAYUS,F
                      00434 
Warning[203]: Found opcode in column 1. (GOTO)
00012C EF91 F000      00435 GOTO    USEC
                      00436 
Warning[203]: Found opcode in column 1. (RETURN)
000130 0012           00437 RETURN
                      00438 ;=================================
                      00439 
                      00440 
                      00441 
                      00442 ;=========== DELAY ONE MS ========
000132                00443 DELAY_ONEMS
                      00444 
000132 0E05           00445         MOVLW   .5
000134 6F05           00446         MOVWF   LOOP
                      00447 
000136                00448 MSEC
000136 0EC8           00449         MOVLW   .200
000138 EC90 F000      00450         CALL    DELAY_US
00013C 2F05           00451         DECFSZ  LOOP,F
00013E EF9B F000      00452         GOTO    MSEC
                      00453 
Warning[203]: Found opcode in column 1. (RETURN)
000142 0012           00454 RETURN
                      00455 ;==================================
                      00456 
                      00457 
                      00458 ;=========== DELAY MS   ==========
000144                00459 DELAY_MS
                      00460         
000144 6F01           00461         MOVWF   DELAYMS
000146                00462 MSEC0
000146 EC99 F000      00463         CALL    DELAY_ONEMS
00014A 2F01           00464         DECFSZ  DELAYMS,F
MPASM  5.51           2X2P10SCOREBOARD32K.ASM   4-20-2020  11:34:52         PAGE 12


LOC  OBJECT CODE     LINE SOURCE TEXT
  VALUE

00014C EFA3 F000      00465         GOTO    MSEC0
Warning[203]: Found opcode in column 1. (RETURN)
000150 0012           00466 RETURN
                      00467 ;=================================
                      00468 
                      00469 ;=========== DELAY      ONE     SECOND ===
000152                00470 DELAY_ONESEC
                      00471 
000152 0E05           00472         MOVLW   .5
000154 6F03           00473         MOVWF   SEC
000156                00474 SEC0
000156 0EC8           00475         MOVLW   .200
000158 ECA2 F000      00476         CALL    DELAY_MS
00015C 2F03           00477         DECFSZ  SEC,F
00015E EFAB F000      00478         GOTO    SEC0
Warning[203]: Found opcode in column 1. (RETURN)
000162 0012           00479 RETURN
                      00480 ;=================================
                      00481 
                      00482 ;==========     DELAY SEC ============
000164                00483 DELAY_SEC
                      00484 
000164 6F04           00485         MOVWF   DELAYS
000166                00486 SEC1
000166 ECA9 F000      00487         CALL    DELAY_ONESEC
00016A 2F04           00488         DECFSZ  DELAYS,F
00016C EFB3 F000      00489         GOTO    SEC1
Warning[203]: Found opcode in column 1. (RETURN)
000170 0012           00490 RETURN
                      00491 ;=================================
                      00492 
                      00493 ;=======================        CLEAR   RAM             ===================
000172                00494 CLR_DRAM
000172 0101           00495         MOVLB           0X01    ;BANK2
000174 0EFF           00496         MOVLW           0XFF
000176 6F0B           00497         MOVWF           POINTER
                      00498 
000178 0E02           00499         MOVLW           0X02
00017A 6EEA           00500         MOVWF           FSR0H,0
                      00501 
00017C 0E00           00502         MOVLW           0X00
00017E 6EE9           00503         MOVWF           FSR0L,0  
                      00504 
000180 0EFF           00505         MOVLW           0XFF
                      00506 
000182                00507 CLR_DRAM0
000182 6EEF           00508         MOVWF           INDF0
                      00509 
000184 2AE9           00510         INCF            FSR0L
000186 2F0B           00511         DECFSZ          POINTER, F
000188 EFC1 F000      00512         GOTO            CLR_DRAM0
00018C 6EEF           00513         MOVWF           INDF0
                      00514         
MPASM  5.51           2X2P10SCOREBOARD32K.ASM   4-20-2020  11:34:52         PAGE 13


LOC  OBJECT CODE     LINE SOURCE TEXT
  VALUE

00018E 0012           00515         RETURN
                      00516 ;==============================================================
                      00517 
                      00518 ;=======================        CLEAR   TEMP    RAM             ===========
000190                00519 CLR_TEMPRAM
000190 0101           00520         MOVLB           0X01    ;BANK2
000192 0E1F           00521         MOVLW           0X1F
000194 6F0B           00522         MOVWF           POINTER
                      00523 
000196 0E01           00524         MOVLW           0X01
000198 6EEA           00525         MOVWF           FSR0H,0
                      00526 
00019A 0E20           00527         MOVLW           0X20
00019C 6EE9           00528         MOVWF           FSR0L,0  
                      00529 
00019E 0EFF           00530         MOVLW           0XFF
                      00531 
0001A0                00532 CLR_TRAM0
0001A0 6EEF           00533         MOVWF           INDF0
                      00534 
0001A2 2AE9           00535         INCF            FSR0L
0001A4 2F0B           00536         DECFSZ          POINTER, F
0001A6 EFD0 F000      00537         GOTO            CLR_TRAM0
0001AA 6EEF           00538         MOVWF           INDF0
                      00539         
0001AC 0012           00540         RETURN
                      00541 ;==============================================================
                      00542 
                      00543 ;=======================        DISPLAY ===========================
0001AE                00544 DISPLAY
                      00545 
0001AE 0E00           00546         MOVLW   0X00
0001B0 6F0D           00547         MOVWF   LINESCAN
Warning[203]: Found opcode in column 1. (CALL)
0001B2 ECB9 F000      00548 CALL    CLR_DRAM
0001B6 EC2B F029      00549         CALL    TRNSDATA_CPU2GPU
Warning[203]: Found opcode in column 1. (CALL)
0001BA EC00 F028      00550 CALL    COMMAND
                      00551 
                      00552 
0001BE 0E98           00553         MOVLW   0X98
0001C0 6F11           00554         MOVWF   REG_STPT
                      00555 
0001C2 EC20 F001      00556         CALL    DATAREG
0001C6 9E8C           00557         OE_OFF
0001C8 8A8C           00558         LAT_ON
0001CA 9A8C           00559         LAT_OFF
                      00560 
                      00561 
0001CC 908C           00562         A_0
0001CE 928C           00563         B_0
0001D0 8E8C           00564         OE_ON
                      00565 
MPASM  5.51           2X2P10SCOREBOARD32K.ASM   4-20-2020  11:34:52         PAGE 14


LOC  OBJECT CODE     LINE SOURCE TEXT
  VALUE

                      00566 
0001D2 0E04           00567         MOVLW   0X04
0001D4 6F0D           00568         MOVWF   LINESCAN
Warning[203]: Found opcode in column 1. (CALL)
0001D6 ECB9 F000      00569 CALL    CLR_DRAM
0001DA EC2B F029      00570         CALL    TRNSDATA_CPU2GPU
Warning[203]: Found opcode in column 1. (CALL)
0001DE EC00 F028      00571 CALL    COMMAND
                      00572 
0001E2 0E90           00573         MOVLW   0X90
0001E4 6F11           00574         MOVWF   REG_STPT
                      00575 
0001E6 EC20 F001      00576         CALL    DATAREG
0001EA 9E8C           00577         OE_OFF
0001EC 8A8C           00578         LAT_ON
0001EE 9A8C           00579         LAT_OFF
                      00580 
0001F0 808C           00581         A_1
0001F2 928C           00582         B_0
0001F4 8E8C           00583         OE_ON
                      00584 
                      00585 
0001F6 0E06           00586         MOVLW   0X06
0001F8 6F0D           00587         MOVWF   LINESCAN
Warning[203]: Found opcode in column 1. (CALL)
0001FA ECB9 F000      00588 CALL    CLR_DRAM
0001FE EC2B F029      00589         CALL    TRNSDATA_CPU2GPU
Warning[203]: Found opcode in column 1. (CALL)
000202 EC00 F028      00590 CALL    COMMAND
                      00591 
000206 0E88           00592         MOVLW   0X88
000208 6F11           00593         MOVWF   REG_STPT
                      00594 
00020A EC20 F001      00595         CALL    DATAREG
00020E 9E8C           00596         OE_OFF
000210 8A8C           00597         LAT_ON
000212 9A8C           00598         LAT_OFF
                      00599 
000214 908C           00600         A_0
000216 828C           00601         B_1
000218 8E8C           00602         OE_ON
                      00603 
                      00604 
                      00605 
00021A 0E0C           00606         MOVLW   0X0C
00021C 6F0D           00607         MOVWF   LINESCAN
Warning[203]: Found opcode in column 1. (CALL)
00021E ECB9 F000      00608 CALL    CLR_DRAM
Warning[203]: Found opcode in column 1. (CALL)
000222 EC2B F029      00609 CALL    TRNSDATA_CPU2GPU
Warning[203]: Found opcode in column 1. (CALL)
000226 EC00 F028      00610 CALL    COMMAND
                      00611 
MPASM  5.51           2X2P10SCOREBOARD32K.ASM   4-20-2020  11:34:52         PAGE 15


LOC  OBJECT CODE     LINE SOURCE TEXT
  VALUE

00022A 0E80           00612         MOVLW   0X80
00022C 6F11           00613         MOVWF   REG_STPT
                      00614 
00022E EC20 F001      00615         CALL    DATAREG
000232 9E8C           00616         OE_OFF
000234 8A8C           00617         LAT_ON
000236 9A8C           00618         LAT_OFF
                      00619 
                      00620 
000238 808C           00621         A_1
00023A 828C           00622         B_1
00023C 8E8C           00623         OE_ON
                      00624 
                      00625 
                      00626 
Warning[203]: Found opcode in column 1. (RETURN)
00023E 0012           00627 RETURN
                      00628 ;============================================================== 
                      00629 
                      00630 
                      00631 ;=======================        REGISTER DATA   ===================
000240                00632 DATAREG
                      00633 
000240 0E02           00634         MOVLW   0X02
000242 6EEA           00635         MOVWF   FSR0H,0
                      00636 
                      00637 
000244 C111 FFE9      00638         MOVFF   REG_STPT,FSR0L
                      00639         
000248 EC39 F001      00640         CALL    DATAREG_SUB             ;P10 MODULE 03
                      00641 
00024C 0E04           00642         MOVLW   0X04
00024E 2711           00643         ADDWF   REG_STPT
                      00644 
000250 C111 FFE9      00645         MOVFF   REG_STPT,FSR0L
                      00646         
000254 EC39 F001      00647         CALL    DATAREG_SUB             ;P10 MODULE 02
                      00648         
000258 0E84           00649         MOVLW   0X84
00025A 5F11           00650         SUBWF   REG_STPT
                      00651 
00025C C111 FFE9      00652         MOVFF   REG_STPT,FSR0L
                      00653         
000260 EC39 F001      00654         CALL    DATAREG_SUB             ;P10 MODULE 01
                      00655 
000264 0E04           00656         MOVLW   0X04
000266 2711           00657         ADDWF   REG_STPT
                      00658 
000268 C111 FFE9      00659         MOVFF   REG_STPT,FSR0L
                      00660         
00026C EC39 F001      00661         CALL    DATAREG_SUB             ;P10 MODULE 00
                      00662         
                      00663 
MPASM  5.51           2X2P10SCOREBOARD32K.ASM   4-20-2020  11:34:52         PAGE 16


LOC  OBJECT CODE     LINE SOURCE TEXT
  VALUE

Warning[203]: Found opcode in column 1. (RETURN)
000270 0012           00664 RETURN
                      00665 
000272                00666 DATAREG_SUB
                      00667 
                      00668 
000272 0E04           00669         MOVLW   0X04
000274 6F18           00670         MOVWF   COUNT0
                      00671 
000276                00672 DTR_ST1
                      00673 
000276 0E04           00674         MOVLW   0X04
000278 6F06           00675         MOVWF   DREGCOUNT
                      00676 
00027A                00677 DTR0
00027A 0E08           00678         MOVLW   0X08
00027C 6F07           00679         MOVWF   BYTECOUNT
                      00680 
00027E CFEF F10C      00681         MOVFF   INDF0,DATAHOLD
000282                00682 DTR1
000282 370C           00683         RLCF    DATAHOLD
                      00684         
000284 A0D8           00685         BTFSS   STATUS,C
000286 EF47 F001      00686         GOTO    DTR1_BIT0
00028A EF4A F001      00687         GOTO    DTR1_BIT1
                      00688 
00028E                00689 DTR1_BIT0
00028E 988C           00690         DAT_0
000290 EF4E F001      00691         GOTO    DTR2
                      00692 
000294                00693 DTR1_BIT1
000294 888C           00694         DAT_1
000296 EF4E F001      00695         GOTO    DTR2
Warning[203]: Found opcode in column 1. (NOP)
00029A 0000           00696 NOP
00029C                00697 DTR2
00029C 8C8C           00698         CLK_ON
00029E 9C8C           00699         CLK_OFF
0002A0 2F07           00700         DECFSZ  BYTECOUNT,F
0002A2 EF41 F001      00701         GOTO    DTR1
                      00702 
0002A6 0E20           00703         MOVLW   0X20
0002A8 26E9           00704         ADDWF   FSR0L
                      00705         
0002AA 2F06           00706         DECFSZ  DREGCOUNT,F
0002AC EF3D F001      00707         GOTO    DTR0
                      00708 
0002B0 0E80           00709         MOVLW   0X80
0002B2 26E9           00710         ADDWF   FSR0L
0002B4 2AE9           00711         INCF    FSR0L
                      00712 
0002B6 2F18           00713         DECFSZ  COUNT0,F
0002B8 EF3B F001      00714         GOTO    DTR_ST1
MPASM  5.51           2X2P10SCOREBOARD32K.ASM   4-20-2020  11:34:52         PAGE 17


LOC  OBJECT CODE     LINE SOURCE TEXT
  VALUE

                      00715 
Warning[203]: Found opcode in column 1. (RETURN)
0002BC 0012           00716 RETURN
                      00717 ;==========================================================
                      00718 
                      00719 
                      00720 
                      00721 
                      00722 ;=======================        DUMP    ===================
0002BE                00723 DUMPDATA
                      00724 
                      00725 
0002BE                00726 DMP0
                      00727 
                      00728 
0002BE 0E00           00729         MOVLW   0
0002C0 6EFB           00730         MOVWF   PCLATU,0
                      00731 
0002C2 0E03           00732         MOVLW   03
0002C4 6EFA           00733         MOVWF   PCLATH,0
                      00734 
                      00735 
0002C6 C10F F16C      00736         MOVFF   FONT,W_TEMP
                      00737 
0002CA 90D8           00738         BCF             STATUS,C
                      00739 
0002CC 376C           00740         RLCF    W_TEMP
                      00741 
                      00742 
0002CE 0E02           00743         MOVLW   0X02
0002D0 276C           00744         ADDWF   W_TEMP
0002D2 C16C FFE8      00745         MOVFF   W_TEMP,WREG
                      00746 
0002D6 EF80 F001      00747         GOTO    ADDFONT
                      00748 
Warning[205]: Found directive in column 1. (ORG)
000300                00749 ORG     0X0300
000300                00750 ADDFONT 
                      00751 
                      00752 
                      00753                 
000300 C10F FFE8      00754         MOVFF   FONT,WREG
                      00755 
                      00756 
                      00757 
                      00758 
000304 90D8           00759         BCF             STATUS,C
000306 34E8           00760         RLCF    WREG,0
000308 90D8           00761         BCF             STATUS,C
00030A 34E8           00762         RLCF    WREG,0
                      00763 
                      00764 
00030C 26F9           00765         ADDWF   PCL
MPASM  5.51           2X2P10SCOREBOARD32K.ASM   4-20-2020  11:34:52         PAGE 18


LOC  OBJECT CODE     LINE SOURCE TEXT
  VALUE

00030E EF8D F001      00766         GOTO    DMP_FONT0
                      00767         
000312 EFA7 F001      00768         GOTO    DMP_FONT1
                      00769 
000316 EFC1 F001      00770         GOTO    DMP_FONT2
                      00771 
                      00772 ;==========     DUMP FONT 0X00 ===========
00031A                00773 DMP_FONT0
                      00774 
00031A 0E01           00775         MOVLW           0X01
00031C 6EE2           00776         MOVWF           FSR1H,0
                      00777 
00031E 0E20           00778         MOVLW           0X20
000320 6EE1           00779         MOVWF           FSR1L,0
                      00780 
000322 0E00           00781         MOVLW           0
000324 6F0A           00782         MOVWF           BTCOUNT 
                      00783 
000326 0E20           00784         MOVLW           .32
000328 6F08           00785         MOVWF           TRAMCOUNT
                      00786 
00032A                00787 DMP_F00
                      00788 
                      00789 
00032A EC80 F00F      00790         CALL    DUMP_FONT0
                      00791 
00032E CFE8 FFE7      00792         MOVFF   WREG,INDF1
                      00793 
000332 2AE1           00794         INCF    FSR1L
000334 2B0A           00795         INCF    BTCOUNT
000336 2F08           00796         DECFSZ  TRAMCOUNT,F
000338 EF95 F001      00797         GOTO    DMP_F00
                      00798         
00033C ECF8 F001      00799         CALL    ADJ_CURSORX
000340 ECAB F002      00800         CALL    ADJ_CURSORY
000344 ECDC F001      00801         CALL    MOV_TEMPRAM2DRAM
000348 ECC8 F000      00802         CALL    CLR_TEMPRAM
                      00803 
Warning[203]: Found opcode in column 1. (RETURN)
00034C 0012           00804 RETURN
                      00805 ;=====================================
                      00806 
                      00807 ;==========     DUMP FONT 0X01 ===========
00034E                00808 DMP_FONT1
                      00809 
00034E 0E01           00810         MOVLW           0X01
000350 6EE2           00811         MOVWF           FSR1H,0
                      00812 
000352 0E20           00813         MOVLW           0X20
000354 6EE1           00814         MOVWF           FSR1L,0
                      00815 
000356 0E00           00816         MOVLW           0
000358 6F0A           00817         MOVWF           BTCOUNT 
MPASM  5.51           2X2P10SCOREBOARD32K.ASM   4-20-2020  11:34:52         PAGE 19


LOC  OBJECT CODE     LINE SOURCE TEXT
  VALUE

                      00818 
00035A 0E20           00819         MOVLW           .32
00035C 6F08           00820         MOVWF           TRAMCOUNT
                      00821 
00035E                00822 DMP_F10
                      00823 
                      00824 
00035E EC80 F00E      00825         CALL    DUMP_FONT01
                      00826 
000362 CFE8 FFE7      00827         MOVFF   WREG,INDF1
                      00828 
000366 2AE1           00829         INCF    FSR1L
000368 2B0A           00830         INCF    BTCOUNT
00036A 2F08           00831         DECFSZ  TRAMCOUNT,F
00036C EFAF F001      00832         GOTO    DMP_F10
                      00833         
000370 ECF8 F001      00834         CALL    ADJ_CURSORX
000374 ECAB F002      00835         CALL    ADJ_CURSORY
000378 ECDC F001      00836         CALL    MOV_TEMPRAM2DRAM
00037C ECC8 F000      00837         CALL    CLR_TEMPRAM
                      00838 
Warning[203]: Found opcode in column 1. (RETURN)
000380 0012           00839 RETURN
                      00840 ;=====================================
                      00841 
                      00842 
                      00843 ;==========     DUMP FONT 0X02===========
000382                00844 DMP_FONT2
                      00845 
000382 0E01           00846         MOVLW           0X01
000384 6EE2           00847         MOVWF           FSR1H,0
                      00848 
000386 0E20           00849         MOVLW           0X20
000388 6EE1           00850         MOVWF           FSR1L,0
                      00851 
00038A 0E00           00852         MOVLW           0
00038C 6F0A           00853         MOVWF           BTCOUNT 
                      00854 
00038E 0E20           00855         MOVLW           .32
000390 6F08           00856         MOVWF           TRAMCOUNT
                      00857 
000392                00858 DMP_F20
                      00859 
                      00860 
000392 EC00 F00F      00861         CALL    DUMP_FONT02
                      00862 
000396 CFE8 FFE7      00863         MOVFF   WREG,INDF1
                      00864 
00039A 2AE1           00865         INCF    FSR1L
00039C 2B0A           00866         INCF    BTCOUNT
00039E 2F08           00867         DECFSZ  TRAMCOUNT,F
0003A0 EFC9 F001      00868         GOTO    DMP_F20
                      00869         
MPASM  5.51           2X2P10SCOREBOARD32K.ASM   4-20-2020  11:34:52         PAGE 20


LOC  OBJECT CODE     LINE SOURCE TEXT
  VALUE

0003A4 ECF8 F001      00870         CALL    ADJ_CURSORX
0003A8 ECAB F002      00871         CALL    ADJ_CURSORY
0003AC ECDC F001      00872         CALL    MOV_TEMPRAM2DRAM
0003B0 ECC8 F000      00873         CALL    CLR_TEMPRAM
                      00874 
Warning[203]: Found opcode in column 1. (RETURN)
0003B4 0012           00875 RETURN
                      00876 ;=====================================
                      00877 
                      00878 
Warning[203]: Found opcode in column 1. (RETURN)
0003B6 0012           00879 RETURN
                      00880 ;==========================================================
                      00881 
                      00882 
                      00883 
                      00884 ;===================    TEMPRAM TO DRAM         ===============
0003B8                00885 MOV_TEMPRAM2DRAM
0003B8 0E20           00886         MOVLW   .32
0003BA 6F0B           00887         MOVWF   POINTER
                      00888 
                      00889 
                      00890         ;CURSOR X AND Y CHECK   FOR RAM_STPT (STARTING POINT OF RAM)
                      00891 
0003BC 0E01           00892         MOVLW   0X01            ;TEMP_RAM
0003BE 6EE2           00893         MOVWF   FSR1H
                      00894         
0003C0 0E3E           00895         MOVLW   0X3E
0003C2 6EE1           00896         MOVWF   FSR1L
                      00897 
0003C4 0E02           00898         MOVLW   0X02            ;DATA_RAM
0003C6 6EEA           00899         MOVWF   FSR0H
                      00900 
                      00901         ;MOVLW  0X00
                      00902         ;MOVWF  FSR0L
0003C8 C110 FFE9      00903         MOVFF   RAM_STPT,FSR0L
                      00904         
0003CC 0E10           00905         MOVLW   .16
0003CE 6F08           00906         MOVWF   TRAMCOUNT
                      00907 
0003D0                00908 MOV_TR2DR0
0003D0 CFE7 FFE8      00909         MOVFF   INDF1,WREG
0003D4 16EF           00910         ANDWF   INDF0
0003D6 2AE1           00911         INCF    FSR1L
0003D8 2AE9           00912         INCF    FSR0L
0003DA CFE7 FFE8      00913         MOVFF   INDF1,WREG
0003DE 16EF           00914         ANDWF   INDF0
                      00915         
0003E0 0E03           00916         MOVLW   0X03
0003E2 5EE1           00917         SUBWF   FSR1L
                      00918 
0003E4 0E07           00919         MOVLW   0X07
0003E6 26E9           00920         ADDWF   FSR0L
MPASM  5.51           2X2P10SCOREBOARD32K.ASM   4-20-2020  11:34:52         PAGE 21


LOC  OBJECT CODE     LINE SOURCE TEXT
  VALUE

0003E8 2F08           00921         DECFSZ  TRAMCOUNT,F
0003EA EFE8 F001      00922         GOTO    MOV_TR2DR0
                      00923         
                      00924         
                      00925 
                      00926 
                      00927 
                      00928 
                      00929 
Warning[203]: Found opcode in column 1. (RETURN)
0003EE 0012           00930 RETURN
                      00931 ;==========================================================
                      00932 
                      00933 ;===================    CURSOR X ADJUST ===============
0003F0                00934 ADJ_CURSORX
0003F0 C112 F16C      00935         MOVFF   CURSORX,W_TEMP
0003F4 0E08           00936         MOVLW   .8
0003F6 656C           00937         CPFSGT  W_TEMP
0003F8 EF00 F002      00938         GOTO    CSRX_LTEQ8
0003FC EF07 F002      00939         GOTO    CSRX_GTEQ8
                      00940 
000400                00941 CSRX_LTEQ8
000400 0E00           00942         MOVLW   0X00
000402 6F10           00943         MOVWF   RAM_STPT
                      00944 
000404 C112 F109      00945         MOVFF   CURSORX,TRAM_SHIFT
000408 EC77 F002      00946         CALL    TRAMSHIFT
                      00947 
00040C 0012           00948         RETURN
                      00949 
                      00950 
                      00951 
00040E                00952 CSRX_GTEQ8
00040E C112 F16C      00953         MOVFF   CURSORX,W_TEMP
000412 0E10           00954         MOVLW   .16
000414 656C           00955         CPFSGT  W_TEMP
000416 EF0F F002      00956         GOTO    CSRX_LTEQ16
00041A EF18 F002      00957         GOTO    CSRX_GTEQ16
                      00958 
00041E                00959 CSRX_LTEQ16
00041E 0E01           00960         MOVLW   0X01
000420 6F10           00961         MOVWF   RAM_STPT
                      00962 
000422 C112 F109      00963         MOVFF   CURSORX,TRAM_SHIFT
000426 0E08           00964         MOVLW   .8
000428 5F09           00965         SUBWF   TRAM_SHIFT
00042A EC77 F002      00966         CALL    TRAMSHIFT
                      00967 
00042E 0012           00968         RETURN
                      00969 
000430                00970 CSRX_GTEQ16
000430 C112 F16C      00971         MOVFF   CURSORX,W_TEMP
000434 0E18           00972         MOVLW   .24
MPASM  5.51           2X2P10SCOREBOARD32K.ASM   4-20-2020  11:34:52         PAGE 22


LOC  OBJECT CODE     LINE SOURCE TEXT
  VALUE

000436 656C           00973         CPFSGT  W_TEMP
000438 EF20 F002      00974         GOTO    CSRX_LTEQ24
00043C EF29 F002      00975         GOTO    CSRX_GTEQ24
                      00976 
000440                00977 CSRX_LTEQ24
000440 0E02           00978         MOVLW   0X02
000442 6F10           00979         MOVWF   RAM_STPT
                      00980 
000444 C112 F109      00981         MOVFF   CURSORX,TRAM_SHIFT
000448 0E10           00982         MOVLW   .16
00044A 5F09           00983         SUBWF   TRAM_SHIFT
00044C EC77 F002      00984         CALL    TRAMSHIFT
                      00985 
000450 0012           00986         RETURN  
000452                00987 CSRX_GTEQ24
000452 C112 F16C      00988         MOVFF   CURSORX,W_TEMP
000456 0E20           00989         MOVLW   .32
000458 656C           00990         CPFSGT  W_TEMP
00045A EF31 F002      00991         GOTO    CSRX_LTEQ32
00045E EF3A F002      00992         GOTO    CSRX_GTEQ32
                      00993 
000462                00994 CSRX_LTEQ32
000462 0E03           00995         MOVLW   0X03
000464 6F10           00996         MOVWF   RAM_STPT
                      00997 
000466 C112 F109      00998         MOVFF   CURSORX,TRAM_SHIFT
00046A 0E18           00999         MOVLW   .24
00046C 5F09           01000         SUBWF   TRAM_SHIFT
00046E EC77 F002      01001         CALL    TRAMSHIFT
                      01002 
000472 0012           01003         RETURN  
000474                01004 CSRX_GTEQ32
000474 C112 F16C      01005         MOVFF   CURSORX,W_TEMP
000478 0E28           01006         MOVLW   .40
00047A 656C           01007         CPFSGT  W_TEMP
00047C EF42 F002      01008         GOTO    CSRX_LTEQ40
000480 EF4B F002      01009         GOTO    CSRX_GTEQ40
                      01010 
000484                01011 CSRX_LTEQ40
000484 0E04           01012         MOVLW   0X04
000486 6F10           01013         MOVWF   RAM_STPT
                      01014 
000488 C112 F109      01015         MOVFF   CURSORX,TRAM_SHIFT
00048C 0E20           01016         MOVLW   .32
00048E 5F09           01017         SUBWF   TRAM_SHIFT
000490 EC77 F002      01018         CALL    TRAMSHIFT
                      01019 
000494 0012           01020         RETURN  
000496                01021 CSRX_GTEQ40
000496 C112 F16C      01022         MOVFF   CURSORX,W_TEMP
00049A 0E30           01023         MOVLW   .48
00049C 656C           01024         CPFSGT  W_TEMP
00049E EF53 F002      01025         GOTO    CSRX_LTEQ48
MPASM  5.51           2X2P10SCOREBOARD32K.ASM   4-20-2020  11:34:52         PAGE 23


LOC  OBJECT CODE     LINE SOURCE TEXT
  VALUE

0004A2 EF5C F002      01026         GOTO    CSRX_GTEQ48
                      01027 
0004A6                01028 CSRX_LTEQ48
0004A6 0E05           01029         MOVLW   0X05
0004A8 6F10           01030         MOVWF   RAM_STPT
                      01031 
0004AA C112 F109      01032         MOVFF   CURSORX,TRAM_SHIFT
0004AE 0E28           01033         MOVLW   .40
0004B0 5F09           01034         SUBWF   TRAM_SHIFT
0004B2 EC77 F002      01035         CALL    TRAMSHIFT
                      01036 
0004B6 0012           01037         RETURN  
0004B8                01038 CSRX_GTEQ48
0004B8 C112 F16C      01039         MOVFF   CURSORX,W_TEMP
0004BC 0E38           01040         MOVLW   .56
0004BE 656C           01041         CPFSGT  W_TEMP
0004C0 EF64 F002      01042         GOTO    CSRX_LTEQ56
0004C4 EF6D F002      01043         GOTO    CSRX_GTEQ56
                      01044 
0004C8                01045 CSRX_LTEQ56
0004C8 0E06           01046         MOVLW   0X06
0004CA 6F10           01047         MOVWF   RAM_STPT
                      01048 
0004CC C112 F109      01049         MOVFF   CURSORX,TRAM_SHIFT
0004D0 0E30           01050         MOVLW   .48
0004D2 5F09           01051         SUBWF   TRAM_SHIFT
0004D4 EC77 F002      01052         CALL    TRAMSHIFT
                      01053 
0004D8 0012           01054         RETURN  
0004DA                01055 CSRX_GTEQ56
0004DA 0E07           01056         MOVLW   0X07
0004DC 6F10           01057         MOVWF   RAM_STPT
                      01058 
0004DE C112 F109      01059         MOVFF   CURSORX,TRAM_SHIFT
0004E2 0E38           01060         MOVLW   .56
0004E4 5F09           01061         SUBWF   TRAM_SHIFT
0004E6 EC77 F002      01062         CALL    TRAMSHIFT
                      01063 
0004EA 0012           01064         RETURN
                      01065 
                      01066 
                      01067 
Warning[203]: Found opcode in column 1. (RETURN)
0004EC 0012           01068 RETURN
                      01069 
0004EE                01070 TRAMSHIFT
                      01071 ;               DECF    TRAM_SHIFT
0004EE                01072 TRS0
                      01073 
0004EE 80D8           01074                 BSF             STATUS,C
0004F0 3320           01075                 RRCF    TEMPRAM+00
0004F2 3321           01076                 RRCF    TEMPRAM+01
0004F4 80D8           01077                 BSF             STATUS,C
MPASM  5.51           2X2P10SCOREBOARD32K.ASM   4-20-2020  11:34:52         PAGE 24


LOC  OBJECT CODE     LINE SOURCE TEXT
  VALUE

0004F6 3322           01078                 RRCF    TEMPRAM+02
0004F8 3323           01079                 RRCF    TEMPRAM+03
0004FA 80D8           01080                 BSF             STATUS,C
0004FC 3324           01081                 RRCF    TEMPRAM+04
0004FE 3325           01082                 RRCF    TEMPRAM+05
000500 80D8           01083                 BSF             STATUS,C
000502 3326           01084                 RRCF    TEMPRAM+06
000504 3327           01085                 RRCF    TEMPRAM+07
000506 80D8           01086                 BSF             STATUS,C
000508 3328           01087                 RRCF    TEMPRAM+08
00050A 3329           01088                 RRCF    TEMPRAM+09
00050C 80D8           01089                 BSF             STATUS,C
00050E 332A           01090                 RRCF    TEMPRAM+0A
000510 332B           01091                 RRCF    TEMPRAM+0B
000512 80D8           01092                 BSF             STATUS,C
000514 332C           01093                 RRCF    TEMPRAM+0C
000516 332D           01094                 RRCF    TEMPRAM+0D
000518 80D8           01095                 BSF             STATUS,C
00051A 332E           01096                 RRCF    TEMPRAM+0E
00051C 332F           01097                 RRCF    TEMPRAM+0F
                      01098 
                      01099 
00051E 80D8           01100                 BSF             STATUS,C
000520 3330           01101                 RRCF    TEMPRAM+10
000522 3331           01102                 RRCF    TEMPRAM+11
000524 80D8           01103                 BSF             STATUS,C
000526 3332           01104                 RRCF    TEMPRAM+12
000528 3333           01105                 RRCF    TEMPRAM+13
00052A 80D8           01106                 BSF             STATUS,C
00052C 3334           01107                 RRCF    TEMPRAM+14
00052E 3335           01108                 RRCF    TEMPRAM+15
000530 80D8           01109                 BSF             STATUS,C
000532 3336           01110                 RRCF    TEMPRAM+16
000534 3337           01111                 RRCF    TEMPRAM+17
000536 80D8           01112                 BSF             STATUS,C
000538 3338           01113                 RRCF    TEMPRAM+18
00053A 3339           01114                 RRCF    TEMPRAM+19
00053C 80D8           01115                 BSF             STATUS,C
00053E 333A           01116                 RRCF    TEMPRAM+1A
000540 333B           01117                 RRCF    TEMPRAM+1B
000542 80D8           01118                 BSF             STATUS,C
000544 333C           01119                 RRCF    TEMPRAM+1C
000546 333D           01120                 RRCF    TEMPRAM+1D
000548 80D8           01121                 BSF             STATUS,C
00054A 333E           01122                 RRCF    TEMPRAM+1E
00054C 333F           01123                 RRCF    TEMPRAM+1F
00054E 2F09           01124         DECFSZ  TRAM_SHIFT,F
000550 EF77 F002      01125         GOTO    TRS0
                      01126 
                      01127 
Warning[203]: Found opcode in column 1. (RETURN)
000554 0012           01128 RETURN
                      01129 
MPASM  5.51           2X2P10SCOREBOARD32K.ASM   4-20-2020  11:34:52         PAGE 25


LOC  OBJECT CODE     LINE SOURCE TEXT
  VALUE

                      01130 ;======================================================
                      01131 
                      01132 
                      01133 ;===================    CURSOR Y ADJUST         ===============
000556                01134 ADJ_CURSORY
000556 C113 F16C      01135         MOVFF   CURSORY,W_TEMP
00055A 0E00           01136         MOVLW   0
00055C 636C           01137         CPFSEQ  W_TEMP
00055E EFB2 F002      01138         GOTO    CSRY_NEQ0_ST
000562 0012           01139         RETURN
                      01140 
000564                01141 CSRY_NEQ0_ST
000564 C113 F105      01142         MOVFF   CURSORY,LOOP
000568                01143 CSRY_NEQ0
000568 0E08           01144         MOVLW   0X08
00056A 2710           01145         ADDWF   RAM_STPT
00056C 2F05           01146         DECFSZ  LOOP,F
00056E EFB4 F002      01147         GOTO    CSRY_NEQ0
                      01148 
                      01149 
                      01150         
                      01151 
Warning[203]: Found opcode in column 1. (RETURN)
000572 0012           01152 RETURN
                      01153 ;==========================================================
                      01154 
                      01155 
                      01156 
                      01157 
                      01158 
                      01159 
Warning[205]: Found directive in column 1. (ORG)
001D00                01160 ORG 0X1D00
                      01161 
001D00                01162 DUMP_FONT01
                      01163 
001D00 0E00           01164         MOVLW   0
001D02 6EFB           01165         MOVWF   PCLATU,0
001D04 0E1D           01166         MOVLW   0X1D
001D06 6EFA           01167         MOVWF   PCLATH,0
                      01168 
                      01169 
001D08 C10E F16C      01170         MOVFF   CHAR,W_TEMP
001D0C 0E00           01171         MOVLW   0X00
001D0E 636C           01172         CPFSEQ  W_TEMP
001D10 EF8C F00E      01173         GOTO    DMPF1_0         ;IF CHAR!=0
001D14 EF92 F00E      01174         GOTO    DMPF1_1         ;IF CHAR=0
                      01175 
                      01176 
001D18                01177 DMPF1_0
                      01178 
001D18 C10E FFE8      01179         MOVFF   CHAR,WREG
                      01180 
MPASM  5.51           2X2P10SCOREBOARD32K.ASM   4-20-2020  11:34:52         PAGE 26


LOC  OBJECT CODE     LINE SOURCE TEXT
  VALUE

                      01181 
                      01182 
                      01183 
001D1C 90D8           01184         BCF             STATUS,C
001D1E 34E8           01185         RLCF    WREG,0
001D20 90D8           01186         BCF             STATUS,C
001D22 34E8           01187         RLCF    WREG,0
                      01188 
                      01189 
                      01190 
                      01191 
001D24                01192 DMPF1_1
                      01193 
                      01194 
001D24 26F9           01195         ADDWF   PCL
001D26 EF29 F010      01196         GOTO    FONT1_0         ;CHAR= 0X00                     "0"
                      01197 
001D2A EFA9 F010      01198         GOTO    FONT1_1         ;CHAR= 0X01                     "1"
                      01199 
001D2E EF29 F011      01200         GOTO    FONT1_2         ;CHAR= 0X02                     "2"
                      01201 
001D32 EFA9 F011      01202         GOTO    FONT1_3         ;CHAR= 0X03                     "3"
                      01203 
001D36 EF29 F012      01204         GOTO    FONT1_4         ;CHAR= 0X04                     "4"
                      01205 
001D3A EFA9 F012      01206         GOTO    FONT1_5         ;CHAR= 0X05                     "5"
                      01207 
001D3E EF29 F013      01208         GOTO    FONT1_6         ;CHAR= 0X06                     "6"
                      01209 
001D42 EFA9 F013      01210         GOTO    FONT1_7         ;CHAR= 0X07                     "7"             
                      01211 
001D46 EF29 F014      01212         GOTO    FONT1_8         ;CHAR= 0X08                     "8"
                      01213 
001D4A EFA9 F014      01214         GOTO    FONT1_9         ;CHAR= 0X09                     "9"
                      01215         
001D4E EF29 F015      01216         GOTO    FONT1_A         ;CHAR= 0X0A                     ":"
                      01217 
001D52 EF80 F015      01218         GOTO    FONT1_B         ;CHAR= 0X0B                     "."
                      01219 
001D56 EF00 F016      01220         GOTO    FONT1_C         ;CHAR= 0X0C                     "<"
                      01221 
001D5A EF80 F016      01222         GOTO    FONT1_D         ;CHAR= 0X0D                     ">"
                      01223 
001D5E EF00 F017      01224         GOTO    FONT1_E         ;CHAR= 0X0E                     "::"
                      01225         
001D62 EF80 F017      01226         GOTO    FONT1_F         ;CHAR= 0X0F                     ":: ::"
                      01227 
001D66 EF00 F018      01228         GOTO    FONT1_10        ;CHAR= 0X10                     ":: :: ::"
                      01229 
001D6A EF80 F018      01230         GOTO    FONT1_11        ;CHAR= 0X11                     ":: :: :: ::"
                      01231 
001D6E EF00 F019      01232         GOTO    FONT1_12        ;CHAR= 0X11                     ":: :: :: ::"
                      01233 
MPASM  5.51           2X2P10SCOREBOARD32K.ASM   4-20-2020  11:34:52         PAGE 27


LOC  OBJECT CODE     LINE SOURCE TEXT
  VALUE

Warning[205]: Found directive in column 1. (ORG)
001E00                01234 ORG 0X1E00
                      01235 
001E00                01236 DUMP_FONT02
                      01237 
001E00 0E00           01238         MOVLW   0
001E02 6EFB           01239         MOVWF   PCLATU,0
001E04 0E1E           01240         MOVLW   0X1E
001E06 6EFA           01241         MOVWF   PCLATH,0
                      01242 
                      01243 
001E08 C10E F16C      01244         MOVFF   CHAR,W_TEMP
001E0C 0E00           01245         MOVLW   0X00
001E0E 636C           01246         CPFSEQ  W_TEMP
001E10 EF0C F00F      01247         GOTO    DMPF2_0         ;IF CHAR!=0
001E14 EF12 F00F      01248         GOTO    DMPF2_1         ;IF CHAR=0
                      01249 
                      01250 
001E18                01251 DMPF2_0
                      01252 
001E18 C10E FFE8      01253         MOVFF   CHAR,WREG
                      01254 
                      01255 
                      01256 
                      01257 
001E1C 90D8           01258         BCF             STATUS,C
001E1E 34E8           01259         RLCF    WREG,0
001E20 90D8           01260         BCF             STATUS,C
001E22 34E8           01261         RLCF    WREG,0
                      01262 
                      01263 
                      01264 
                      01265 
001E24                01266 DMPF2_1
                      01267 
                      01268 
001E24 26F9           01269         ADDWF   PCL
001E26 EF00 F020      01270         GOTO    FONT2_0         ;CHAR= 0X00                     "0"
                      01271 
001E2A EF80 F020      01272         GOTO    FONT2_1         ;CHAR= 0X01                     "1"
                      01273 
001E2E EF00 F021      01274         GOTO    FONT2_2         ;CHAR= 0X02                     "2"
                      01275 
001E32 EF80 F021      01276         GOTO    FONT2_3         ;CHAR= 0X03                     "3"
                      01277 
001E36 EF00 F022      01278         GOTO    FONT2_4         ;CHAR= 0X04                     "4"
                      01279 
001E3A EF80 F022      01280         GOTO    FONT2_5         ;CHAR= 0X05                     "5"
                      01281 
001E3E EF00 F023      01282         GOTO    FONT2_6         ;CHAR= 0X06                     "6"
                      01283 
001E42 EF80 F023      01284         GOTO    FONT2_7         ;CHAR= 0X07                     "7"             
                      01285 
MPASM  5.51           2X2P10SCOREBOARD32K.ASM   4-20-2020  11:34:52         PAGE 28


LOC  OBJECT CODE     LINE SOURCE TEXT
  VALUE

001E46 EF00 F024      01286         GOTO    FONT2_8         ;CHAR= 0X08                     "8"
                      01287 
001E4A EF80 F024      01288         GOTO    FONT2_9         ;CHAR= 0X09                     "9"
                      01289         
001E4E EF00 F025      01290         GOTO    FONT2_A         ;CHAR= 0X0A                     "LOGOU10"
                      01291 
001E52 EF80 F025      01292         GOTO    FONT2_B         ;CHAR= 0X0B                     "LOGOU01"
                      01293 ;
                      01294 ;       GOTO    FONT2_C         ;CHAR= 0X0C                     "<"
                      01295 ;
                      01296 ;       GOTO    FONT2_D         ;CHAR= 0X0D                     ">"
                      01297 ;
                      01298 
Warning[205]: Found directive in column 1. (ORG)
001F00                01299 ORG 0X1F00
                      01300 
001F00                01301 DUMP_FONT0
                      01302 
001F00 0E00           01303         MOVLW   0
001F02 6EFB           01304         MOVWF   PCLATU,0
001F04 0E1F           01305         MOVLW   0X1F
001F06 6EFA           01306         MOVWF   PCLATH,0
                      01307 
                      01308 
001F08 C10E F16C      01309         MOVFF   CHAR,W_TEMP
001F0C 0E00           01310         MOVLW   0X00
001F0E 636C           01311         CPFSEQ  W_TEMP
001F10 EF8C F00F      01312         GOTO    DMPF0_0         ;IF CHAR!=0
001F14 EF92 F00F      01313         GOTO    DMPF0_1         ;IF CHAR=0
                      01314 
                      01315 
001F18                01316 DMPF0_0
                      01317 
001F18 C10E FFE8      01318         MOVFF   CHAR,WREG
                      01319 
                      01320 
                      01321 
                      01322 
001F1C 90D8           01323         BCF             STATUS,C
001F1E 34E8           01324         RLCF    WREG,0
001F20 90D8           01325         BCF             STATUS,C
001F22 34E8           01326         RLCF    WREG,0
                      01327 
                      01328 
                      01329 
                      01330 
001F24                01331 DMPF0_1
                      01332 
                      01333 
001F24 26F9           01334         ADDWF   PCL
001F26 EF00 F010      01335         GOTO    FONT0_0         ;CHAR= 0X00                     "0"
                      01336 
001F2A EF80 F010      01337         GOTO    FONT0_1         ;CHAR= 0X01                     "1"
MPASM  5.51           2X2P10SCOREBOARD32K.ASM   4-20-2020  11:34:52         PAGE 29


LOC  OBJECT CODE     LINE SOURCE TEXT
  VALUE

                      01338 
001F2E EF00 F011      01339         GOTO    FONT0_2         ;CHAR= 0X02                     "2"
                      01340 
001F32 EF80 F011      01341         GOTO    FONT0_3         ;CHAR= 0X03                     "3"
                      01342 
001F36 EF00 F012      01343         GOTO    FONT0_4         ;CHAR= 0X04                     "4"
                      01344 
001F3A EF80 F012      01345         GOTO    FONT0_5         ;CHAR= 0X05                     "5"
                      01346 
001F3E EF00 F013      01347         GOTO    FONT0_6         ;CHAR= 0X06                     "6"
                      01348 
001F42 EF80 F013      01349         GOTO    FONT0_7         ;CHAR= 0X07                     "7"             
                      01350 
001F46 EF00 F014      01351         GOTO    FONT0_8         ;CHAR= 0X08                     "8"
                      01352 
001F4A EF80 F014      01353         GOTO    FONT0_9         ;CHAR= 0X09                     "9"
                      01354         
001F4E EF00 F015      01355         GOTO    FONT0_A         ;CHAR= 0X09                     "OT"
                      01356 
Warning[205]: Found directive in column 1. (ORG)
002000                01357 ORG 0X2000
002000                01358 FONT0_0
002000 0E00           01359                         MOVLW   0
002002 6EFB           01360                         MOVWF   PCLATU,0
002004 0E20           01361                         MOVLW   0X20
002006 6EFA           01362                         MOVWF   PCLATH,0
                      01363 
002008 C10A FFE8      01364                         MOVFF   BTCOUNT,WREG
00200C 90D8           01365                         BCF             STATUS,C
00200E 36E8           01366                         RLCF    WREG
                      01367 
                      01368                 
002010 26F9           01369                         ADDWF   PCL,1,0
002012 0C8F 0CFF      01370                         DT      B'10001111',B'11111111';BTC=00
002016 0C77 0CFF      01371                         DT      B'01110111',B'11111111';BTC=01
00201A 0C77 0CFF      01372                         DT      B'01110111',B'11111111';BTC=02
00201E 0C77 0CFF      01373                         DT      B'01110111',B'11111111';BTC=03
002022 0C77 0CFF      01374                         DT      B'01110111',B'11111111';BTC=04
002026 0C77 0CFF      01375                         DT      B'01110111',B'11111111';BTC=05
00202A 0C8F 0CFF      01376                         DT      B'10001111',B'11111111';BTC=06
00202E 0CFF 0CFF      01377                         DT      B'11111111',B'11111111';BTC=07
002032 0CFF 0CFF      01378                         DT      B'11111111',B'11111111';BTC=08
002036 0CFF 0CFF      01379                         DT      B'11111111',B'11111111';BTC=09
00203A 0CFF 0CFF      01380                         DT      B'11111111',B'11111111';BTC=0A
00203E 0CFF 0CFF      01381                         DT      B'11111111',B'11111111';BTC=0B
002042 0CFF 0CFF      01382                         DT      B'11111111',B'11111111';BTC=0C
002046 0CFF 0CFF      01383                         DT      B'11111111',B'11111111';BTC=0D
00204A 0CFF 0CFF      01384                         DT      B'11111111',B'11111111';BTC=0E
00204E 0CFF 0CFF      01385                         DT      B'11111111',B'11111111';BTC=0F
                      01386 
                      01387 
002052                01388 FONT1_0
002052 0E00           01389                         MOVLW   0
MPASM  5.51           2X2P10SCOREBOARD32K.ASM   4-20-2020  11:34:52         PAGE 30


LOC  OBJECT CODE     LINE SOURCE TEXT
  VALUE

002054 6EFB           01390                         MOVWF   PCLATU,0
002056 0E20           01391                         MOVLW   0X20
002058 6EFA           01392                         MOVWF   PCLATH,0
                      01393 
00205A C10A FFE8      01394                         MOVFF   BTCOUNT,WREG
00205E 90D8           01395                         BCF             STATUS,C
002060 36E8           01396                         RLCF    WREG
                      01397 
                      01398                 
002062 26F9           01399                         ADDWF   PCL,1,0
                      01400 
002064 0CFF 0CFF      01401                         DT      B'11111111',B'11111111';BTC=00
002068 0CFF 0CFF      01402                         DT      B'11111111',B'11111111';BTC=01
00206C 0CFF 0CFF      01403                         DT      B'11111111',B'11111111';BTC=02
002070 0CFF 0CFF      01404                         DT      B'11111111',B'11111111';BTC=03
002074 0CFF 0CFF      01405                         DT      B'11111111',B'11111111';BTC=04
002078 0CFF 0CFF      01406                         DT      B'11111111',B'11111111';BTC=05
00207C 0C87 0CFF      01407                         DT      B'10000111',B'11111111';BTC=06
002080 0C7B 0CFF      01408                         DT      B'01111011',B'11111111';BTC=07
002084 0C7B 0CFF      01409                         DT      B'01111011',B'11111111';BTC=08
002088 0C7B 0CFF      01410                         DT      B'01111011',B'11111111';BTC=09
00208C 0C7B 0CFF      01411                         DT      B'01111011',B'11111111';BTC=0A
002090 0C7B 0CFF      01412                         DT      B'01111011',B'11111111';BTC=0B
002094 0C7B 0CFF      01413                         DT      B'01111011',B'11111111';BTC=0C
002098 0C7B 0CFF      01414                         DT      B'01111011',B'11111111';BTC=0D
00209C 0C7B 0CFF      01415                         DT      B'01111011',B'11111111';BTC=0E
0020A0 0C87 0CFF      01416                         DT      B'10000111',B'11111111';BTC=0F
                      01417 
                      01418 
                      01419 
Warning[205]: Found directive in column 1. (ORG)
002100                01420 ORG 0X2100
002100                01421 FONT0_1
002100 0E00           01422                         MOVLW   0
002102 6EFB           01423                         MOVWF   PCLATU,0
002104 0E21           01424                         MOVLW   0X21
002106 6EFA           01425                         MOVWF   PCLATH,0
                      01426 
002108 C10A FFE8      01427                         MOVFF   BTCOUNT,WREG
00210C 90D8           01428                         BCF             STATUS,C
00210E 36E8           01429                         RLCF    WREG
                      01430 
                      01431                 
002110 26F9           01432                         ADDWF   PCL,1,0
                      01433 
002112 0CBF 0CFF      01434                         DT      B'10111111',B'11111111';BTC=00
002116 0C3F 0CFF      01435                         DT      B'00111111',B'11111111';BTC=01
00211A 0CBF 0CFF      01436                         DT      B'10111111',B'11111111';BTC=02
00211E 0CBF 0CFF      01437                         DT      B'10111111',B'11111111';BTC=03
002122 0CBF 0CFF      01438                         DT      B'10111111',B'11111111';BTC=04
002126 0CBF 0CFF      01439                         DT      B'10111111',B'11111111';BTC=05
00212A 0C1F 0CFF      01440                         DT      B'00011111',B'11111111';BTC=06
00212E 0CFF 0CFF      01441                         DT      B'11111111',B'11111111';BTC=07
MPASM  5.51           2X2P10SCOREBOARD32K.ASM   4-20-2020  11:34:52         PAGE 31


LOC  OBJECT CODE     LINE SOURCE TEXT
  VALUE

002132 0CFF 0CFF      01442                         DT      B'11111111',B'11111111';BTC=08
002136 0CFF 0CFF      01443                         DT      B'11111111',B'11111111';BTC=09
00213A 0CFF 0CFF      01444                         DT      B'11111111',B'11111111';BTC=0A
00213E 0CFF 0CFF      01445                         DT      B'11111111',B'11111111';BTC=0B
002142 0CFF 0CFF      01446                         DT      B'11111111',B'11111111';BTC=0C
002146 0CFF 0CFF      01447                         DT      B'11111111',B'11111111';BTC=0D
00214A 0CFF 0CFF      01448                         DT      B'11111111',B'11111111';BTC=0E
00214E 0CFF 0CFF      01449                         DT      B'11111111',B'11111111';BTC=0F
                      01450 
002152                01451 FONT1_1
002152 0E00           01452                         MOVLW   0
002154 6EFB           01453                         MOVWF   PCLATU,0
002156 0E21           01454                         MOVLW   0X21
002158 6EFA           01455                         MOVWF   PCLATH,0
                      01456 
00215A C10A FFE8      01457                         MOVFF   BTCOUNT,WREG
00215E 90D8           01458                         BCF             STATUS,C
002160 36E8           01459                         RLCF    WREG
                      01460 
                      01461                 
002162 26F9           01462                         ADDWF   PCL,1,0
002164 0CFF 0CFF      01463                         DT      B'11111111',B'11111111';BTC=00
002168 0CFF 0CFF      01464                         DT      B'11111111',B'11111111';BTC=01
00216C 0CFF 0CFF      01465                         DT      B'11111111',B'11111111';BTC=02
002170 0CFF 0CFF      01466                         DT      B'11111111',B'11111111';BTC=03
002174 0CFF 0CFF      01467                         DT      B'11111111',B'11111111';BTC=04
002178 0CFF 0CFF      01468                         DT      B'11111111',B'11111111';BTC=05
00217C 0CDF 0CFF      01469                         DT      B'11011111',B'11111111';BTC=06
002180 0C9F 0CFF      01470                         DT      B'10011111',B'11111111';BTC=07
002184 0CDF 0CFF      01471                         DT      B'11011111',B'11111111';BTC=08
002188 0CDF 0CFF      01472                         DT      B'11011111',B'11111111';BTC=09
00218C 0CDF 0CFF      01473                         DT      B'11011111',B'11111111';BTC=0A
002190 0CDF 0CFF      01474                         DT      B'11011111',B'11111111';BTC=0B
002194 0CDF 0CFF      01475                         DT      B'11011111',B'11111111';BTC=0C
002198 0CDF 0CFF      01476                         DT      B'11011111',B'11111111';BTC=0D
00219C 0CDF 0CFF      01477                         DT      B'11011111',B'11111111';BTC=0E
0021A0 0C8F 0CFF      01478                         DT      B'10001111',B'11111111';BTC=0F
                      01479 
                      01480 
                      01481 
                      01482 
Warning[205]: Found directive in column 1. (ORG)
002200                01483 ORG 0X2200
002200                01484 FONT0_2
002200 0E00           01485                         MOVLW   0
002202 6EFB           01486                         MOVWF   PCLATU,0
002204 0E22           01487                         MOVLW   0X22
002206 6EFA           01488                         MOVWF   PCLATH,0
                      01489 
002208 C10A FFE8      01490                         MOVFF   BTCOUNT,WREG
00220C 90D8           01491                         BCF             STATUS,C
00220E 36E8           01492                         RLCF    WREG
                      01493 
MPASM  5.51           2X2P10SCOREBOARD32K.ASM   4-20-2020  11:34:52         PAGE 32


LOC  OBJECT CODE     LINE SOURCE TEXT
  VALUE

                      01494                 
002210 26F9           01495                         ADDWF   PCL,1,0
002212 0C8F 0CFF      01496                         DT      B'10001111',B'11111111';BTC=00
002216 0C77 0CFF      01497                         DT      B'01110111',B'11111111';BTC=01
00221A 0CF7 0CFF      01498                         DT      B'11110111',B'11111111';BTC=02
00221E 0C8F 0CFF      01499                         DT      B'10001111',B'11111111';BTC=03
002222 0C7F 0CFF      01500                         DT      B'01111111',B'11111111';BTC=04
002226 0C77 0CFF      01501                         DT      B'01110111',B'11111111';BTC=05
00222A 0C07 0CFF      01502                         DT      B'00000111',B'11111111';BTC=06
00222E 0CFF 0CFF      01503                         DT      B'11111111',B'11111111';BTC=07
002232 0CFF 0CFF      01504                         DT      B'11111111',B'11111111';BTC=08
002236 0CFF 0CFF      01505                         DT      B'11111111',B'11111111';BTC=09
00223A 0CFF 0CFF      01506                         DT      B'11111111',B'11111111';BTC=0A
00223E 0CFF 0CFF      01507                         DT      B'11111111',B'11111111';BTC=0B
002242 0CFF 0CFF      01508                         DT      B'11111111',B'11111111';BTC=0C
002246 0CFF 0CFF      01509                         DT      B'11111111',B'11111111';BTC=0D
00224A 0CFF 0CFF      01510                         DT      B'11111111',B'11111111';BTC=0E
00224E 0CFF 0CFF      01511                         DT      B'11111111',B'11111111';BTC=0F
                      01512 
                      01513 
002252                01514 FONT1_2
002252 0E00           01515                         MOVLW   0
002254 6EFB           01516                         MOVWF   PCLATU,0
002256 0E22           01517                         MOVLW   0X22
002258 6EFA           01518                         MOVWF   PCLATH,0
                      01519 
00225A C10A FFE8      01520                         MOVFF   BTCOUNT,WREG
00225E 90D8           01521                         BCF             STATUS,C
002260 36E8           01522                         RLCF    WREG
                      01523 
                      01524                 
002262 26F9           01525                         ADDWF   PCL,1,0
002264 0CFF 0CFF      01526                         DT      B'11111111',B'11111111';BTC=00
002268 0CFF 0CFF      01527                         DT      B'11111111',B'11111111';BTC=01
00226C 0CFF 0CFF      01528                         DT      B'11111111',B'11111111';BTC=02
002270 0CFF 0CFF      01529                         DT      B'11111111',B'11111111';BTC=03
002274 0CFF 0CFF      01530                         DT      B'11111111',B'11111111';BTC=04
002278 0CFF 0CFF      01531                         DT      B'11111111',B'11111111';BTC=05
00227C 0C87 0CFF      01532                         DT      B'10000111',B'11111111';BTC=06
002280 0C7B 0CFF      01533                         DT      B'01111011',B'11111111';BTC=07
002284 0CFB 0CFF      01534                         DT      B'11111011',B'11111111';BTC=08
002288 0CFB 0CFF      01535                         DT      B'11111011',B'11111111';BTC=09
00228C 0CFB 0CFF      01536                         DT      B'11111011',B'11111111';BTC=0A
002290 0C87 0CFF      01537                         DT      B'10000111',B'11111111';BTC=0B
002294 0C7F 0CFF      01538                         DT      B'01111111',B'11111111';BTC=0C
002298 0C7F 0CFF      01539                         DT      B'01111111',B'11111111';BTC=0D
00229C 0C7B 0CFF      01540                         DT      B'01111011',B'11111111';BTC=0E
0022A0 0C03 0CFF      01541                         DT      B'00000011',B'11111111';BTC=0F
                      01542 
Warning[205]: Found directive in column 1. (ORG)
002300                01543 ORG 0X2300
002300                01544 FONT0_3
002300 0E00           01545                         MOVLW   0
MPASM  5.51           2X2P10SCOREBOARD32K.ASM   4-20-2020  11:34:52         PAGE 33


LOC  OBJECT CODE     LINE SOURCE TEXT
  VALUE

002302 6EFB           01546                         MOVWF   PCLATU,0
002304 0E23           01547                         MOVLW   0X23
002306 6EFA           01548                         MOVWF   PCLATH,0
                      01549 
002308 C10A FFE8      01550                         MOVFF   BTCOUNT,WREG
00230C 90D8           01551                         BCF             STATUS,C
00230E 36E8           01552                         RLCF    WREG
                      01553 
                      01554                 
002310 26F9           01555                         ADDWF   PCL,1,0
002312 0C8F 0CFF      01556                         DT      B'10001111',B'11111111';BTC=00
002316 0C77 0CFF      01557                         DT      B'01110111',B'11111111';BTC=01
00231A 0CF7 0CFF      01558                         DT      B'11110111',B'11111111';BTC=02
00231E 0C8F 0CFF      01559                         DT      B'10001111',B'11111111';BTC=03
002322 0CF7 0CFF      01560                         DT      B'11110111',B'11111111';BTC=04
002326 0C77 0CFF      01561                         DT      B'01110111',B'11111111';BTC=05
00232A 0C8F 0CFF      01562                         DT      B'10001111',B'11111111';BTC=06
00232E 0CFF 0CFF      01563                         DT      B'11111111',B'11111111';BTC=07
002332 0CFF 0CFF      01564                         DT      B'11111111',B'11111111';BTC=08
002336 0CFF 0CFF      01565                         DT      B'11111111',B'11111111';BTC=09
00233A 0CFF 0CFF      01566                         DT      B'11111111',B'11111111';BTC=0A
00233E 0CFF 0CFF      01567                         DT      B'11111111',B'11111111';BTC=0B
002342 0CFF 0CFF      01568                         DT      B'11111111',B'11111111';BTC=0C
002346 0CFF 0CFF      01569                         DT      B'11111111',B'11111111';BTC=0D
00234A 0CFF 0CFF      01570                         DT      B'11111111',B'11111111';BTC=0E
00234E 0CFF 0CFF      01571                         DT      B'11111111',B'11111111';BTC=0F
002352                01572 FONT1_3
002352 0E00           01573                         MOVLW   0
002354 6EFB           01574                         MOVWF   PCLATU,0
002356 0E23           01575                         MOVLW   0X23
002358 6EFA           01576                         MOVWF   PCLATH,0
                      01577 
00235A C10A FFE8      01578                         MOVFF   BTCOUNT,WREG
00235E 90D8           01579                         BCF             STATUS,C
002360 36E8           01580                         RLCF    WREG
                      01581 
                      01582                 
002362 26F9           01583                         ADDWF   PCL,1,0
002364 0CFF 0CFF      01584                         DT      B'11111111',B'11111111';BTC=00
002368 0CFF 0CFF      01585                         DT      B'11111111',B'11111111';BTC=01
00236C 0CFF 0CFF      01586                         DT      B'11111111',B'11111111';BTC=02
002370 0CFF 0CFF      01587                         DT      B'11111111',B'11111111';BTC=03
002374 0CFF 0CFF      01588                         DT      B'11111111',B'11111111';BTC=04
002378 0CFF 0CFF      01589                         DT      B'11111111',B'11111111';BTC=05
00237C 0C87 0CFF      01590                         DT      B'10000111',B'11111111';BTC=06
002380 0C7B 0CFF      01591                         DT      B'01111011',B'11111111';BTC=07
002384 0CFB 0CFF      01592                         DT      B'11111011',B'11111111';BTC=08
002388 0CFB 0CFF      01593                         DT      B'11111011',B'11111111';BTC=09
00238C 0CFB 0CFF      01594                         DT      B'11111011',B'11111111';BTC=0A
002390 0C87 0CFF      01595                         DT      B'10000111',B'11111111';BTC=0B
002394 0CFB 0CFF      01596                         DT      B'11111011',B'11111111';BTC=0C
002398 0CFB 0CFF      01597                         DT      B'11111011',B'11111111';BTC=0D
00239C 0C7B 0CFF      01598                         DT      B'01111011',B'11111111';BTC=0E
MPASM  5.51           2X2P10SCOREBOARD32K.ASM   4-20-2020  11:34:52         PAGE 34


LOC  OBJECT CODE     LINE SOURCE TEXT
  VALUE

0023A0 0C87 0CFF      01599                         DT      B'10000111',B'11111111';BTC=0F
                      01600 
Warning[205]: Found directive in column 1. (ORG)
002400                01601 ORG 0X2400
002400                01602 FONT0_4
002400 0E00           01603                         MOVLW   0
002402 6EFB           01604                         MOVWF   PCLATU,0
002404 0E24           01605                         MOVLW   0X24
002406 6EFA           01606                         MOVWF   PCLATH,0
                      01607 
002408 C10A FFE8      01608                         MOVFF   BTCOUNT,WREG
00240C 90D8           01609                         BCF             STATUS,C
00240E 36E8           01610                         RLCF    WREG
                      01611 
                      01612                 
002410 26F9           01613                         ADDWF   PCL,1,0
002412 0CEF 0CFF      01614                         DT      B'11101111',B'11111111';BTC=00
002416 0CCF 0CFF      01615                         DT      B'11001111',B'11111111';BTC=01
00241A 0CAF 0CFF      01616                         DT      B'10101111',B'11111111';BTC=02
00241E 0C6F 0CFF      01617                         DT      B'01101111',B'11111111';BTC=03
002422 0C07 0CFF      01618                         DT      B'00000111',B'11111111';BTC=04
002426 0CEF 0CFF      01619                         DT      B'11101111',B'11111111';BTC=05
00242A 0CEF 0CFF      01620                         DT      B'11101111',B'11111111';BTC=06
00242E 0CFF 0CFF      01621                         DT      B'11111111',B'11111111';BTC=07
002432 0CFF 0CFF      01622                         DT      B'11111111',B'11111111';BTC=08
002436 0CFF 0CFF      01623                         DT      B'11111111',B'11111111';BTC=09
00243A 0CFF 0CFF      01624                         DT      B'11111111',B'11111111';BTC=0A
00243E 0CFF 0CFF      01625                         DT      B'11111111',B'11111111';BTC=0B
002442 0CFF 0CFF      01626                         DT      B'11111111',B'11111111';BTC=0C
002446 0CFF 0CFF      01627                         DT      B'11111111',B'11111111';BTC=0D
00244A 0CFF 0CFF      01628                         DT      B'11111111',B'11111111';BTC=0E
00244E 0CFF 0CFF      01629                         DT      B'11111111',B'11111111';BTC=0F
                      01630 
002452                01631 FONT1_4
002452 0E00           01632                         MOVLW   0
002454 6EFB           01633                         MOVWF   PCLATU,0
002456 0E24           01634                         MOVLW   0X24
002458 6EFA           01635                         MOVWF   PCLATH,0
                      01636 
00245A C10A FFE8      01637                         MOVFF   BTCOUNT,WREG
00245E 90D8           01638                         BCF             STATUS,C
002460 36E8           01639                         RLCF    WREG
                      01640 
                      01641                 
002462 26F9           01642                         ADDWF   PCL,1,0
002464 0CFF 0CFF      01643                         DT      B'11111111',B'11111111';BTC=00
002468 0CFF 0CFF      01644                         DT      B'11111111',B'11111111';BTC=01
00246C 0CFF 0CFF      01645                         DT      B'11111111',B'11111111';BTC=02
002470 0CFF 0CFF      01646                         DT      B'11111111',B'11111111';BTC=03
002474 0CFF 0CFF      01647                         DT      B'11111111',B'11111111';BTC=04
002478 0CFF 0CFF      01648                         DT      B'11111111',B'11111111';BTC=05
00247C 0CFB 0CFF      01649                         DT      B'11111011',B'11111111';BTC=06
002480 0CDB 0CFF      01650                         DT      B'11011011',B'11111111';BTC=07
MPASM  5.51           2X2P10SCOREBOARD32K.ASM   4-20-2020  11:34:52         PAGE 35


LOC  OBJECT CODE     LINE SOURCE TEXT
  VALUE

002484 0CDB 0CFF      01651                         DT      B'11011011',B'11111111';BTC=08
002488 0CBB 0CFF      01652                         DT      B'10111011',B'11111111';BTC=09
00248C 0C7B 0CFF      01653                         DT      B'01111011',B'11111111';BTC=0A
002490 0C03 0CFF      01654                         DT      B'00000011',B'11111111';BTC=0B
002494 0CFB 0CFF      01655                         DT      B'11111011',B'11111111';BTC=0C
002498 0CFB 0CFF      01656                         DT      B'11111011',B'11111111';BTC=0D
00249C 0CFB 0CFF      01657                         DT      B'11111011',B'11111111';BTC=0E
0024A0 0CFB 0CFF      01658                         DT      B'11111011',B'11111111';BTC=0F
                      01659 
Warning[205]: Found directive in column 1. (ORG)
002500                01660 ORG 0X2500
002500                01661 FONT0_5
002500 0E00           01662                         MOVLW   0
002502 6EFB           01663                         MOVWF   PCLATU,0
002504 0E25           01664                         MOVLW   0X25
002506 6EFA           01665                         MOVWF   PCLATH,0
                      01666 
002508 C10A FFE8      01667                         MOVFF   BTCOUNT,WREG
00250C 90D8           01668                         BCF             STATUS,C
00250E 36E8           01669                         RLCF    WREG
                      01670 
                      01671                 
002510 26F9           01672                         ADDWF   PCL,1,0
002512 0C07 0CFF      01673                         DT      B'00000111',B'11111111';BTC=00
002516 0C7F 0CFF      01674                         DT      B'01111111',B'11111111';BTC=01
00251A 0C7F 0CFF      01675                         DT      B'01111111',B'11111111';BTC=02
00251E 0C0F 0CFF      01676                         DT      B'00001111',B'11111111';BTC=03
002522 0CF7 0CFF      01677                         DT      B'11110111',B'11111111';BTC=04
002526 0CF7 0CFF      01678                         DT      B'11110111',B'11111111';BTC=05
00252A 0C0F 0CFF      01679                         DT      B'00001111',B'11111111';BTC=06
00252E 0CFF 0CFF      01680                         DT      B'11111111',B'11111111';BTC=07
002532 0CFF 0CFF      01681                         DT      B'11111111',B'11111111';BTC=08
002536 0CFF 0CFF      01682                         DT      B'11111111',B'11111111';BTC=09
00253A 0CFF 0CFF      01683                         DT      B'11111111',B'11111111';BTC=0A
00253E 0CFF 0CFF      01684                         DT      B'11111111',B'11111111';BTC=0B
002542 0CFF 0CFF      01685                         DT      B'11111111',B'11111111';BTC=0C
002546 0CFF 0CFF      01686                         DT      B'11111111',B'11111111';BTC=0D
00254A 0CFF 0CFF      01687                         DT      B'11111111',B'11111111';BTC=0E
00254E 0CFF 0CFF      01688                         DT      B'11111111',B'11111111';BTC=0F
                      01689 
002552                01690 FONT1_5
002552 0E00           01691                         MOVLW   0
002554 6EFB           01692                         MOVWF   PCLATU,0
002556 0E25           01693                         MOVLW   0X25
002558 6EFA           01694                         MOVWF   PCLATH,0
                      01695 
00255A C10A FFE8      01696                         MOVFF   BTCOUNT,WREG
00255E 90D8           01697                         BCF             STATUS,C
002560 36E8           01698                         RLCF    WREG
                      01699 
                      01700                 
002562 26F9           01701                         ADDWF   PCL,1,0
002564 0CFF 0CFF      01702                         DT      B'11111111',B'11111111';BTC=00
MPASM  5.51           2X2P10SCOREBOARD32K.ASM   4-20-2020  11:34:52         PAGE 36


LOC  OBJECT CODE     LINE SOURCE TEXT
  VALUE

002568 0CFF 0CFF      01703                         DT      B'11111111',B'11111111';BTC=01
00256C 0CFF 0CFF      01704                         DT      B'11111111',B'11111111';BTC=02
002570 0CFF 0CFF      01705                         DT      B'11111111',B'11111111';BTC=03
002574 0CFF 0CFF      01706                         DT      B'11111111',B'11111111';BTC=04
002578 0CFF 0CFF      01707                         DT      B'11111111',B'11111111';BTC=05
00257C 0C03 0CFF      01708                         DT      B'00000011',B'11111111';BTC=06
002580 0C7B 0CFF      01709                         DT      B'01111011',B'11111111';BTC=07
002584 0C7F 0CFF      01710                         DT      B'01111111',B'11111111';BTC=08
002588 0C7F 0CFF      01711                         DT      B'01111111',B'11111111';BTC=09
00258C 0C07 0CFF      01712                         DT      B'00000111',B'11111111';BTC=0A
002590 0CFB 0CFF      01713                         DT      B'11111011',B'11111111';BTC=0B
002594 0CFB 0CFF      01714                         DT      B'11111011',B'11111111';BTC=0C
002598 0CFB 0CFF      01715                         DT      B'11111011',B'11111111';BTC=0D
00259C 0CFB 0CFF      01716                         DT      B'11111011',B'11111111';BTC=0E
0025A0 0C07 0CFF      01717                         DT      B'00000111',B'11111111';BTC=0F
                      01718 
Warning[205]: Found directive in column 1. (ORG)
002600                01719 ORG 0X2600
002600                01720 FONT0_6
002600 0E00           01721                         MOVLW   0
002602 6EFB           01722                         MOVWF   PCLATU,0
002604 0E26           01723                         MOVLW   0X26
002606 6EFA           01724                         MOVWF   PCLATH,0
                      01725 
002608 C10A FFE8      01726                         MOVFF   BTCOUNT,WREG
00260C 90D8           01727                         BCF             STATUS,C
00260E 36E8           01728                         RLCF    WREG
                      01729 
                      01730                 
002610 26F9           01731                         ADDWF   PCL,1,0
002612 0C8F 0CFF      01732                         DT      B'10001111',B'11111111';BTC=00
002616 0C77 0CFF      01733                         DT      B'01110111',B'11111111';BTC=01
00261A 0C7F 0CFF      01734                         DT      B'01111111',B'11111111';BTC=02
00261E 0C0F 0CFF      01735                         DT      B'00001111',B'11111111';BTC=03
002622 0C77 0CFF      01736                         DT      B'01110111',B'11111111';BTC=04
002626 0C77 0CFF      01737                         DT      B'01110111',B'11111111';BTC=05
00262A 0C8F 0CFF      01738                         DT      B'10001111',B'11111111';BTC=06
00262E 0CFF 0CFF      01739                         DT      B'11111111',B'11111111';BTC=07
002632 0CFF 0CFF      01740                         DT      B'11111111',B'11111111';BTC=08
002636 0CFF 0CFF      01741                         DT      B'11111111',B'11111111';BTC=09
00263A 0CFF 0CFF      01742                         DT      B'11111111',B'11111111';BTC=0A
00263E 0CFF 0CFF      01743                         DT      B'11111111',B'11111111';BTC=0B
002642 0CFF 0CFF      01744                         DT      B'11111111',B'11111111';BTC=0C
002646 0CFF 0CFF      01745                         DT      B'11111111',B'11111111';BTC=0D
00264A 0CFF 0CFF      01746                         DT      B'11111111',B'11111111';BTC=0E
00264E 0CFF 0CFF      01747                         DT      B'11111111',B'11111111';BTC=0F
                      01748 
002652                01749 FONT1_6
002652 0E00           01750                         MOVLW   0
002654 6EFB           01751                         MOVWF   PCLATU,0
002656 0E26           01752                         MOVLW   0X26
002658 6EFA           01753                         MOVWF   PCLATH,0
                      01754 
MPASM  5.51           2X2P10SCOREBOARD32K.ASM   4-20-2020  11:34:52         PAGE 37


LOC  OBJECT CODE     LINE SOURCE TEXT
  VALUE

00265A C10A FFE8      01755                         MOVFF   BTCOUNT,WREG
00265E 90D8           01756                         BCF             STATUS,C
002660 36E8           01757                         RLCF    WREG
                      01758 
                      01759                 
002662 26F9           01760                         ADDWF   PCL,1,0
002664 0CFF 0CFF      01761                         DT      B'11111111',B'11111111';BTC=00
002668 0CFF 0CFF      01762                         DT      B'11111111',B'11111111';BTC=01
00266C 0CFF 0CFF      01763                         DT      B'11111111',B'11111111';BTC=02
002670 0CFF 0CFF      01764                         DT      B'11111111',B'11111111';BTC=03
002674 0CFF 0CFF      01765                         DT      B'11111111',B'11111111';BTC=04
002678 0CFF 0CFF      01766                         DT      B'11111111',B'11111111';BTC=05
00267C 0C87 0CFF      01767                         DT      B'10000111',B'11111111';BTC=06
002680 0C7B 0CFF      01768                         DT      B'01111011',B'11111111';BTC=07
002684 0C7F 0CFF      01769                         DT      B'01111111',B'11111111';BTC=08
002688 0C7F 0CFF      01770                         DT      B'01111111',B'11111111';BTC=09
00268C 0C07 0CFF      01771                         DT      B'00000111',B'11111111';BTC=0A
002690 0C7B 0CFF      01772                         DT      B'01111011',B'11111111';BTC=0B
002694 0C7B 0CFF      01773                         DT      B'01111011',B'11111111';BTC=0C
002698 0C7B 0CFF      01774                         DT      B'01111011',B'11111111';BTC=0D
00269C 0C7B 0CFF      01775                         DT      B'01111011',B'11111111';BTC=0E
0026A0 0C87 0CFF      01776                         DT      B'10000111',B'11111111';BTC=0F
                      01777 
Warning[205]: Found directive in column 1. (ORG)
002700                01778 ORG     0X2700
002700                01779 FONT0_7
002700 0E00           01780                         MOVLW   0
002702 6EFB           01781                         MOVWF   PCLATU,0
002704 0E27           01782                         MOVLW   0X27
002706 6EFA           01783                         MOVWF   PCLATH,0
                      01784 
002708 C10A FFE8      01785                         MOVFF   BTCOUNT,WREG
00270C 90D8           01786                         BCF             STATUS,C
00270E 36E8           01787                         RLCF    WREG
                      01788 
                      01789                 
002710 26F9           01790                         ADDWF   PCL,1,0
002712 0C07 0CFF      01791                         DT      B'00000111',B'11111111';BTC=00
002716 0CF7 0CFF      01792                         DT      B'11110111',B'11111111';BTC=01
00271A 0CEF 0CFF      01793                         DT      B'11101111',B'11111111';BTC=02
00271E 0CDF 0CFF      01794                         DT      B'11011111',B'11111111';BTC=03
002722 0CDF 0CFF      01795                         DT      B'11011111',B'11111111';BTC=04
002726 0CDF 0CFF      01796                         DT      B'11011111',B'11111111';BTC=05
00272A 0CDF 0CFF      01797                         DT      B'11011111',B'11111111';BTC=06
00272E 0CFF 0CFF      01798                         DT      B'11111111',B'11111111';BTC=07
002732 0CFF 0CFF      01799                         DT      B'11111111',B'11111111';BTC=08
002736 0CFF 0CFF      01800                         DT      B'11111111',B'11111111';BTC=09
00273A 0CFF 0CFF      01801                         DT      B'11111111',B'11111111';BTC=0A
00273E 0CFF 0CFF      01802                         DT      B'11111111',B'11111111';BTC=0B
002742 0CFF 0CFF      01803                         DT      B'11111111',B'11111111';BTC=0C
002746 0CFF 0CFF      01804                         DT      B'11111111',B'11111111';BTC=0D
00274A 0CFF 0CFF      01805                         DT      B'11111111',B'11111111';BTC=0E
00274E 0CFF 0CFF      01806                         DT      B'11111111',B'11111111';BTC=0F
MPASM  5.51           2X2P10SCOREBOARD32K.ASM   4-20-2020  11:34:52         PAGE 38


LOC  OBJECT CODE     LINE SOURCE TEXT
  VALUE

                      01807 
002752                01808 FONT1_7
002752 0E00           01809                         MOVLW   0
002754 6EFB           01810                         MOVWF   PCLATU,0
002756 0E27           01811                         MOVLW   0X27
002758 6EFA           01812                         MOVWF   PCLATH,0
                      01813 
00275A C10A FFE8      01814                         MOVFF   BTCOUNT,WREG
00275E 90D8           01815                         BCF             STATUS,C
002760 36E8           01816                         RLCF    WREG
                      01817 
                      01818                 
002762 26F9           01819                         ADDWF   PCL,1,0
002764 0CFF 0CFF      01820                         DT      B'11111111',B'11111111';BTC=00
002768 0CFF 0CFF      01821                         DT      B'11111111',B'11111111';BTC=01
00276C 0CFF 0CFF      01822                         DT      B'11111111',B'11111111';BTC=02
002770 0CFF 0CFF      01823                         DT      B'11111111',B'11111111';BTC=03
002774 0CFF 0CFF      01824                         DT      B'11111111',B'11111111';BTC=04
002778 0CFF 0CFF      01825                         DT      B'11111111',B'11111111';BTC=05
00277C 0C03 0CFF      01826                         DT      B'00000011',B'11111111';BTC=06
002780 0CFB 0CFF      01827                         DT      B'11111011',B'11111111';BTC=07
002784 0CFB 0CFF      01828                         DT      B'11111011',B'11111111';BTC=08
002788 0CF7 0CFF      01829                         DT      B'11110111',B'11111111';BTC=09
00278C 0CEF 0CFF      01830                         DT      B'11101111',B'11111111';BTC=0A
002790 0CDF 0CFF      01831                         DT      B'11011111',B'11111111';BTC=0B
002794 0CDF 0CFF      01832                         DT      B'11011111',B'11111111';BTC=0C
002798 0CDF 0CFF      01833                         DT      B'11011111',B'11111111';BTC=0D
00279C 0CDF 0CFF      01834                         DT      B'11011111',B'11111111';BTC=0E
0027A0 0CDF 0CFF      01835                         DT      B'11011111',B'11111111';BTC=0F
                      01836 
                      01837 
Warning[205]: Found directive in column 1. (ORG)
002800                01838 ORG 0X2800
002800                01839 FONT0_8
002800 0E00           01840                         MOVLW   0
002802 6EFB           01841                         MOVWF   PCLATU,0
002804 0E28           01842                         MOVLW   0X28
002806 6EFA           01843                         MOVWF   PCLATH,0
                      01844 
002808 C10A FFE8      01845                         MOVFF   BTCOUNT,WREG
00280C 90D8           01846                         BCF             STATUS,C
00280E 36E8           01847                         RLCF    WREG
                      01848 
                      01849                 
002810 26F9           01850                         ADDWF   PCL,1,0
002812 0C8F 0CFF      01851                         DT      B'10001111',B'11111111';BTC=00
002816 0C77 0CFF      01852                         DT      B'01110111',B'11111111';BTC=01
00281A 0C77 0CFF      01853                         DT      B'01110111',B'11111111';BTC=02
00281E 0C8F 0CFF      01854                         DT      B'10001111',B'11111111';BTC=03
002822 0C77 0CFF      01855                         DT      B'01110111',B'11111111';BTC=04
002826 0C77 0CFF      01856                         DT      B'01110111',B'11111111';BTC=05
00282A 0C8F 0CFF      01857                         DT      B'10001111',B'11111111';BTC=06
00282E 0CFF 0CFF      01858                         DT      B'11111111',B'11111111';BTC=07
MPASM  5.51           2X2P10SCOREBOARD32K.ASM   4-20-2020  11:34:52         PAGE 39


LOC  OBJECT CODE     LINE SOURCE TEXT
  VALUE

002832 0CFF 0CFF      01859                         DT      B'11111111',B'11111111';BTC=08
002836 0CFF 0CFF      01860                         DT      B'11111111',B'11111111';BTC=09
00283A 0CFF 0CFF      01861                         DT      B'11111111',B'11111111';BTC=0A
00283E 0CFF 0CFF      01862                         DT      B'11111111',B'11111111';BTC=0B
002842 0CFF 0CFF      01863                         DT      B'11111111',B'11111111';BTC=0C
002846 0CFF 0CFF      01864                         DT      B'11111111',B'11111111';BTC=0D
00284A 0CFF 0CFF      01865                         DT      B'11111111',B'11111111';BTC=0E
00284E 0CFF 0CFF      01866                         DT      B'11111111',B'11111111';BTC=0F
                      01867 
                      01868 
002852                01869 FONT1_8
002852 0E00           01870                         MOVLW   0
002854 6EFB           01871                         MOVWF   PCLATU,0
002856 0E28           01872                         MOVLW   0X28
002858 6EFA           01873                         MOVWF   PCLATH,0
                      01874 
00285A C10A FFE8      01875                         MOVFF   BTCOUNT,WREG
00285E 90D8           01876                         BCF             STATUS,C
002860 36E8           01877                         RLCF    WREG
                      01878 
                      01879                 
002862 26F9           01880                         ADDWF   PCL,1,0
002864 0CFF 0CFF      01881                         DT      B'11111111',B'11111111';BTC=00
002868 0CFF 0CFF      01882                         DT      B'11111111',B'11111111';BTC=01
00286C 0CFF 0CFF      01883                         DT      B'11111111',B'11111111';BTC=02
002870 0CFF 0CFF      01884                         DT      B'11111111',B'11111111';BTC=03
002874 0CFF 0CFF      01885                         DT      B'11111111',B'11111111';BTC=04
002878 0CFF 0CFF      01886                         DT      B'11111111',B'11111111';BTC=05
00287C 0C87 0CFF      01887                         DT      B'10000111',B'11111111';BTC=06
002880 0C7B 0CFF      01888                         DT      B'01111011',B'11111111';BTC=07
002884 0C7B 0CFF      01889                         DT      B'01111011',B'11111111';BTC=08
002888 0C7B 0CFF      01890                         DT      B'01111011',B'11111111';BTC=09
00288C 0C7B 0CFF      01891                         DT      B'01111011',B'11111111';BTC=0A
002890 0C87 0CFF      01892                         DT      B'10000111',B'11111111';BTC=0B
002894 0C7B 0CFF      01893                         DT      B'01111011',B'11111111';BTC=0C
002898 0C7B 0CFF      01894                         DT      B'01111011',B'11111111';BTC=0D
00289C 0C7B 0CFF      01895                         DT      B'01111011',B'11111111';BTC=0E
0028A0 0C87 0CFF      01896                         DT      B'10000111',B'11111111';BTC=0F
                      01897 
Warning[205]: Found directive in column 1. (ORG)
002900                01898 ORG 0X2900
002900                01899 FONT0_9
002900 0E00           01900                         MOVLW   0
002902 6EFB           01901                         MOVWF   PCLATU,0
002904 0E29           01902                         MOVLW   0X29
002906 6EFA           01903                         MOVWF   PCLATH,0
                      01904 
002908 C10A FFE8      01905                         MOVFF   BTCOUNT,WREG
00290C 90D8           01906                         BCF             STATUS,C
00290E 36E8           01907                         RLCF    WREG
                      01908 
                      01909                 
002910 26F9           01910                         ADDWF   PCL,1,0
MPASM  5.51           2X2P10SCOREBOARD32K.ASM   4-20-2020  11:34:52         PAGE 40


LOC  OBJECT CODE     LINE SOURCE TEXT
  VALUE

002912 0C8F 0CFF      01911                         DT      B'10001111',B'11111111';BTC=00
002916 0C77 0CFF      01912                         DT      B'01110111',B'11111111';BTC=01
00291A 0C77 0CFF      01913                         DT      B'01110111',B'11111111';BTC=02
00291E 0C87 0CFF      01914                         DT      B'10000111',B'11111111';BTC=03
002922 0CF7 0CFF      01915                         DT      B'11110111',B'11111111';BTC=04
002926 0C77 0CFF      01916                         DT      B'01110111',B'11111111';BTC=05
00292A 0C8F 0CFF      01917                         DT      B'10001111',B'11111111';BTC=06
00292E 0CFF 0CFF      01918                         DT      B'11111111',B'11111111';BTC=07
002932 0CFF 0CFF      01919                         DT      B'11111111',B'11111111';BTC=08
002936 0CFF 0CFF      01920                         DT      B'11111111',B'11111111';BTC=09
00293A 0CFF 0CFF      01921                         DT      B'11111111',B'11111111';BTC=0A
00293E 0CFF 0CFF      01922                         DT      B'11111111',B'11111111';BTC=0B
002942 0CFF 0CFF      01923                         DT      B'11111111',B'11111111';BTC=0C
002946 0CFF 0CFF      01924                         DT      B'11111111',B'11111111';BTC=0D
00294A 0CFF 0CFF      01925                         DT      B'11111111',B'11111111';BTC=0E
00294E 0CFF 0CFF      01926                         DT      B'11111111',B'11111111';BTC=0F
002952                01927 FONT1_9
002952 0E00           01928                         MOVLW   0
002954 6EFB           01929                         MOVWF   PCLATU,0
002956 0E29           01930                         MOVLW   0X29
002958 6EFA           01931                         MOVWF   PCLATH,0
                      01932 
00295A C10A FFE8      01933                         MOVFF   BTCOUNT,WREG
00295E 90D8           01934                         BCF             STATUS,C
002960 36E8           01935                         RLCF    WREG
                      01936 
                      01937                 
002962 26F9           01938                         ADDWF   PCL,1,0
002964 0CFF 0CFF      01939                         DT      B'11111111',B'11111111';BTC=00
002968 0CFF 0CFF      01940                         DT      B'11111111',B'11111111';BTC=01
00296C 0CFF 0CFF      01941                         DT      B'11111111',B'11111111';BTC=02
002970 0CFF 0CFF      01942                         DT      B'11111111',B'11111111';BTC=03
002974 0CFF 0CFF      01943                         DT      B'11111111',B'11111111';BTC=04
002978 0CFF 0CFF      01944                         DT      B'11111111',B'11111111';BTC=05
00297C 0C87 0CFF      01945                         DT      B'10000111',B'11111111';BTC=06
002980 0C7B 0CFF      01946                         DT      B'01111011',B'11111111';BTC=07
002984 0C7B 0CFF      01947                         DT      B'01111011',B'11111111';BTC=08
002988 0C7B 0CFF      01948                         DT      B'01111011',B'11111111';BTC=09
00298C 0C7B 0CFF      01949                         DT      B'01111011',B'11111111';BTC=0A
002990 0C83 0CFF      01950                         DT      B'10000011',B'11111111';BTC=0B
002994 0CFB 0CFF      01951                         DT      B'11111011',B'11111111';BTC=0C
002998 0CFB 0CFF      01952                         DT      B'11111011',B'11111111';BTC=0D
00299C 0C7B 0CFF      01953                         DT      B'01111011',B'11111111';BTC=0E
0029A0 0C87 0CFF      01954                         DT      B'10000111',B'11111111';BTC=0F
                      01955 
                      01956 
Warning[205]: Found directive in column 1. (ORG)
002A00                01957 ORG 0X2A00
002A00                01958 FONT0_A
002A00 0E00           01959                         MOVLW   0
002A02 6EFB           01960                         MOVWF   PCLATU,0
002A04 0E2A           01961                         MOVLW   0X2A
002A06 6EFA           01962                         MOVWF   PCLATH,0
MPASM  5.51           2X2P10SCOREBOARD32K.ASM   4-20-2020  11:34:52         PAGE 41


LOC  OBJECT CODE     LINE SOURCE TEXT
  VALUE

                      01963 
002A08 C10A FFE8      01964                         MOVFF   BTCOUNT,WREG
002A0C 90D8           01965                         BCF             STATUS,C
002A0E 36E8           01966                         RLCF    WREG
                      01967 
                      01968                 
002A10 26F9           01969                         ADDWF   PCL,1,0
002A12 0C8F 0CFF      01970                         DT      B'10001111',B'11111111';BTC=00
002A16 0C77 0CFF      01971                         DT      B'01110111',B'11111111';BTC=01
002A1A 0C77 0CFF      01972                         DT      B'01110111',B'11111111';BTC=02
002A1E 0C8F 0CFF      01973                         DT      B'10001111',B'11111111';BTC=03
002A22 0CFF 0CFF      01974                         DT      B'11111111',B'11111111';BTC=04
002A26 0C07 0CFF      01975                         DT      B'00000111',B'11111111';BTC=05
002A2A 0CDF 0CFF      01976                         DT      B'11011111',B'11111111';BTC=06
002A2E 0CDF 0CFF      01977                         DT      B'11011111',B'11111111';BTC=07
002A32 0CDF 0CFF      01978                         DT      B'11011111',B'11111111';BTC=08
002A36 0CFF 0CFF      01979                         DT      B'11111111',B'11111111';BTC=09
002A3A 0CFF 0CFF      01980                         DT      B'11111111',B'11111111';BTC=0A
002A3E 0CFF 0CFF      01981                         DT      B'11111111',B'11111111';BTC=0B
002A42 0CFF 0CFF      01982                         DT      B'11111111',B'11111111';BTC=0C
002A46 0CFF 0CFF      01983                         DT      B'11111111',B'11111111';BTC=0D
002A4A 0CFF 0CFF      01984                         DT      B'11111111',B'11111111';BTC=0E
002A4E 0CFF 0CFF      01985                         DT      B'11111111',B'11111111';BTC=0F
002A52                01986 FONT1_A
002A52 0E00           01987                         MOVLW   0
002A54 6EFB           01988                         MOVWF   PCLATU,0
002A56 0E2A           01989                         MOVLW   0X2A
002A58 6EFA           01990                         MOVWF   PCLATH,0
                      01991 
002A5A C10A FFE8      01992                         MOVFF   BTCOUNT,WREG
002A5E 90D8           01993                         BCF             STATUS,C
002A60 36E8           01994                         RLCF    WREG
                      01995 
                      01996                 
002A62 26F9           01997                         ADDWF   PCL,1,0
002A64 0CFF 0CFF      01998                         DT      B'11111111',B'11111111';BTC=00
002A68 0CFF 0CFF      01999                         DT      B'11111111',B'11111111';BTC=01
002A6C 0CFF 0CFF      02000                         DT      B'11111111',B'11111111';BTC=02
002A70 0CFF 0CFF      02001                         DT      B'11111111',B'11111111';BTC=03
002A74 0CFF 0CFF      02002                         DT      B'11111111',B'11111111';BTC=04
002A78 0CFF 0CFF      02003                         DT      B'11111111',B'11111111';BTC=05
002A7C 0CFF 0CFF      02004                         DT      B'11111111',B'11111111';BTC=06
002A80 0CFF 0CFF      02005                         DT      B'11111111',B'11111111';BTC=07
002A84 0C3F 0CFF      02006                         DT      B'00111111',B'11111111';BTC=08
002A88 0C3F 0CFF      02007                         DT      B'00111111',B'11111111';BTC=09
002A8C 0CFF 0CFF      02008                         DT      B'11111111',B'11111111';BTC=0A
002A90 0CFF 0CFF      02009                         DT      B'11111111',B'11111111';BTC=0B
002A94 0C3F 0CFF      02010                         DT      B'00111111',B'11111111';BTC=0C
002A98 0C3F 0CFF      02011                         DT      B'00111111',B'11111111';BTC=0D
002A9C 0CFF 0CFF      02012                         DT      B'11111111',B'11111111';BTC=0E
002AA0 0CFF 0CFF      02013                         DT      B'11111111',B'11111111';BTC=0F
                      02014 
Warning[205]: Found directive in column 1. (ORG)
MPASM  5.51           2X2P10SCOREBOARD32K.ASM   4-20-2020  11:34:52         PAGE 42


LOC  OBJECT CODE     LINE SOURCE TEXT
  VALUE

002B00                02015 ORG 0X2B00
                      02016 
002B00                02017 FONT1_B
002B00 0E00           02018                         MOVLW   0
002B02 6EFB           02019                         MOVWF   PCLATU,0
002B04 0E2B           02020                         MOVLW   0X2B
002B06 6EFA           02021                         MOVWF   PCLATH,0
                      02022 
002B08 C10A FFE8      02023                         MOVFF   BTCOUNT,WREG
002B0C 90D8           02024                         BCF             STATUS,C
002B0E 36E8           02025                         RLCF    WREG
                      02026 
                      02027                 
002B10 26F9           02028                         ADDWF   PCL,1,0
002B12 0CFF 0CFF      02029                         DT      B'11111111',B'11111111';BTC=00
002B16 0CFF 0CFF      02030                         DT      B'11111111',B'11111111';BTC=01
002B1A 0CFF 0CFF      02031                         DT      B'11111111',B'11111111';BTC=02
002B1E 0CFF 0CFF      02032                         DT      B'11111111',B'11111111';BTC=03
002B22 0CFF 0CFF      02033                         DT      B'11111111',B'11111111';BTC=04
002B26 0CFF 0CFF      02034                         DT      B'11111111',B'11111111';BTC=05
002B2A 0CFF 0CFF      02035                         DT      B'11111111',B'11111111';BTC=06
002B2E 0CFF 0CFF      02036                         DT      B'11111111',B'11111111';BTC=07
002B32 0CFF 0CFF      02037                         DT      B'11111111',B'11111111';BTC=08
002B36 0CFF 0CFF      02038                         DT      B'11111111',B'11111111';BTC=09
002B3A 0CFF 0CFF      02039                         DT      B'11111111',B'11111111';BTC=0A
002B3E 0CFF 0CFF      02040                         DT      B'11111111',B'11111111';BTC=0B
002B42 0CFF 0CFF      02041                         DT      B'11111111',B'11111111';BTC=0C
002B46 0CFF 0CFF      02042                         DT      B'11111111',B'11111111';BTC=0D
002B4A 0C3F 0CFF      02043                         DT      B'00111111',B'11111111';BTC=0E
002B4E 0C3F 0CFF      02044                         DT      B'00111111',B'11111111';BTC=0F
                      02045 
                      02046 
                      02047 
Warning[205]: Found directive in column 1. (ORG)
002C00                02048 ORG 0X2C00
                      02049 
002C00                02050 FONT1_C
002C00 0E00           02051                         MOVLW   0
002C02 6EFB           02052                         MOVWF   PCLATU,0
002C04 0E2C           02053                         MOVLW   0X2C
002C06 6EFA           02054                         MOVWF   PCLATH,0
                      02055 
002C08 C10A FFE8      02056                         MOVFF   BTCOUNT,WREG
002C0C 90D8           02057                         BCF             STATUS,C
002C0E 36E8           02058                         RLCF    WREG
                      02059 
                      02060                 
002C10 26F9           02061                         ADDWF   PCL,1,0
002C12 0CFF 0CFF      02062                         DT      B'11111111',B'11111111';BTC=02
002C16 0CFF 0CFF      02063                         DT      B'11111111',B'11111111';BTC=03
002C1A 0CFF 0CFF      02064                         DT      B'11111111',B'11111111';BTC=04
002C1E 0CFF 0CFF      02065                         DT      B'11111111',B'11111111';BTC=05
002C22 0CFF 0CFF      02066                         DT      B'11111111',B'11111111';BTC=06
MPASM  5.51           2X2P10SCOREBOARD32K.ASM   4-20-2020  11:34:52         PAGE 43


LOC  OBJECT CODE     LINE SOURCE TEXT
  VALUE

002C26 0CFF 0CFF      02067                         DT      B'11111111',B'11111111';BTC=07
002C2A 0CF7 0CFF      02068                         DT      B'11110111',B'11111111';BTC=08
002C2E 0CE7 0CFF      02069                         DT      B'11100111',B'11111111';BTC=09
002C32 0CC7 0CFF      02070                         DT      B'11000111',B'11111111';BTC=0A
002C36 0C87 0CFF      02071                         DT      B'10000111',B'11111111';BTC=0B
002C3A 0C07 0CFF      02072                         DT      B'00000111',B'11111111';BTC=0C
002C3E 0C87 0CFF      02073                         DT      B'10000111',B'11111111';BTC=0D
002C42 0CC7 0CFF      02074                         DT      B'11000111',B'11111111';BTC=0E
002C46 0CE7 0CFF      02075                         DT      B'11100111',B'11111111';BTC=0F
002C4A 0CF7 0CFF      02076                         DT      B'11110111',B'11111111';BTC=00
002C4E 0CFF 0CFF      02077                         DT      B'11111111',B'11111111';BTC=01
Warning[205]: Found directive in column 1. (ORG)
002D00                02078 ORG     0X2D00
                      02079 
002D00                02080 FONT1_D
002D00 0E00           02081                         MOVLW   0
002D02 6EFB           02082                         MOVWF   PCLATU,0
002D04 0E2D           02083                         MOVLW   0X2D
002D06 6EFA           02084                         MOVWF   PCLATH,0
                      02085 
002D08 C10A FFE8      02086                         MOVFF   BTCOUNT,WREG
002D0C 90D8           02087                         BCF             STATUS,C
002D0E 36E8           02088                         RLCF    WREG
                      02089 
                      02090                 
002D10 26F9           02091                         ADDWF   PCL,1,0
002D12 0CFF 0CFF      02092                         DT      B'11111111',B'11111111';BTC=02
002D16 0CFF 0CFF      02093                         DT      B'11111111',B'11111111';BTC=03
002D1A 0CFF 0CFF      02094                         DT      B'11111111',B'11111111';BTC=04
002D1E 0CFF 0CFF      02095                         DT      B'11111111',B'11111111';BTC=05
002D22 0CFF 0CFF      02096                         DT      B'11111111',B'11111111';BTC=06
002D26 0CFF 0CFF      02097                         DT      B'11111111',B'11111111';BTC=07
002D2A 0C7F 0CFF      02098                         DT      B'01111111',B'11111111';BTC=08
002D2E 0C3F 0CFF      02099                         DT      B'00111111',B'11111111';BTC=09
002D32 0C1F 0CFF      02100                         DT      B'00011111',B'11111111';BTC=0A
002D36 0C0F 0CFF      02101                         DT      B'00001111',B'11111111';BTC=0B
002D3A 0C07 0CFF      02102                         DT      B'00000111',B'11111111';BTC=0C
002D3E 0C0F 0CFF      02103                         DT      B'00001111',B'11111111';BTC=0D
002D42 0C1F 0CFF      02104                         DT      B'00011111',B'11111111';BTC=0E
002D46 0C3F 0CFF      02105                         DT      B'00111111',B'11111111';BTC=0F
002D4A 0C7F 0CFF      02106                         DT      B'01111111',B'11111111';BTC=00
002D4E 0CFF 0CFF      02107                         DT      B'11111111',B'11111111';BTC=01
                      02108 
                      02109 
Warning[205]: Found directive in column 1. (ORG)
002E00                02110 ORG     0X2E00
                      02111 
002E00                02112 FONT1_E
002E00 0E00           02113                         MOVLW   0
002E02 6EFB           02114                         MOVWF   PCLATU,0
002E04 0E2E           02115                         MOVLW   0X2E
002E06 6EFA           02116                         MOVWF   PCLATH,0
                      02117 
MPASM  5.51           2X2P10SCOREBOARD32K.ASM   4-20-2020  11:34:52         PAGE 44


LOC  OBJECT CODE     LINE SOURCE TEXT
  VALUE

002E08 C10A FFE8      02118                         MOVFF   BTCOUNT,WREG
002E0C 90D8           02119                         BCF             STATUS,C
002E0E 36E8           02120                         RLCF    WREG
                      02121 
                      02122                 
002E10 26F9           02123                         ADDWF   PCL,1,0
002E12 0CFF 0CFF      02124                         DT      B'11111111',B'11111111';BTC=00
002E16 0CFF 0CFF      02125                         DT      B'11111111',B'11111111';BTC=01
002E1A 0CFF 0CFF      02126                         DT      B'11111111',B'11111111';BTC=02
002E1E 0CFF 0CFF      02127                         DT      B'11111111',B'11111111';BTC=03
002E22 0CFF 0CFF      02128                         DT      B'11111111',B'11111111';BTC=04
002E26 0CFF 0CFF      02129                         DT      B'11111111',B'11111111';BTC=05
002E2A 0CFF 0CFF      02130                         DT      B'11111111',B'11111111';BTC=06
002E2E 0CFF 0CFF      02131                         DT      B'11111111',B'11111111';BTC=07
002E32 0CFF 0CFF      02132                         DT      B'11111111',B'11111111';BTC=08
002E36 0CFF 0CFF      02133                         DT      B'11111111',B'11111111';BTC=09
002E3A 0CFF 0CFF      02134                         DT      B'11111111',B'11111111';BTC=0A
002E3E 0CFF 0CFF      02135                         DT      B'11111111',B'11111111';BTC=0B
002E42 0CFF 0CFF      02136                         DT      B'11111111',B'11111111';BTC=0C
002E46 0CFF 0CFF      02137                         DT      B'11111111',B'11111111';BTC=0D
002E4A 0C3F 0CFF      02138                         DT      B'00111111',B'11111111';BTC=0E
002E4E 0C3F 0CFF      02139                         DT      B'00111111',B'11111111';BTC=0F
                      02140 
                      02141 
Warning[205]: Found directive in column 1. (ORG)
002F00                02142 ORG     0X2F00
                      02143 
002F00                02144 FONT1_F
002F00 0E00           02145                         MOVLW   0
002F02 6EFB           02146                         MOVWF   PCLATU,0
002F04 0E2F           02147                         MOVLW   0X2F
002F06 6EFA           02148                         MOVWF   PCLATH,0
                      02149 
002F08 C10A FFE8      02150                         MOVFF   BTCOUNT,WREG
002F0C 90D8           02151                         BCF             STATUS,C
002F0E 36E8           02152                         RLCF    WREG
                      02153 
                      02154                 
002F10 26F9           02155                         ADDWF   PCL,1,0
002F12 0CFF 0CFF      02156                         DT      B'11111111',B'11111111';BTC=00
002F16 0CFF 0CFF      02157                         DT      B'11111111',B'11111111';BTC=01
002F1A 0CFF 0CFF      02158                         DT      B'11111111',B'11111111';BTC=02
002F1E 0CFF 0CFF      02159                         DT      B'11111111',B'11111111';BTC=03
002F22 0CFF 0CFF      02160                         DT      B'11111111',B'11111111';BTC=04
002F26 0CFF 0CFF      02161                         DT      B'11111111',B'11111111';BTC=05
002F2A 0CFF 0CFF      02162                         DT      B'11111111',B'11111111';BTC=06
002F2E 0CFF 0CFF      02163                         DT      B'11111111',B'11111111';BTC=07
002F32 0CFF 0CFF      02164                         DT      B'11111111',B'11111111';BTC=08
002F36 0CFF 0CFF      02165                         DT      B'11111111',B'11111111';BTC=09
002F3A 0CFF 0CFF      02166                         DT      B'11111111',B'11111111';BTC=0A
002F3E 0CFF 0CFF      02167                         DT      B'11111111',B'11111111';BTC=0B
002F42 0CFF 0CFF      02168                         DT      B'11111111',B'11111111';BTC=0C
002F46 0CFF 0CFF      02169                         DT      B'11111111',B'11111111';BTC=0D
MPASM  5.51           2X2P10SCOREBOARD32K.ASM   4-20-2020  11:34:52         PAGE 45


LOC  OBJECT CODE     LINE SOURCE TEXT
  VALUE

002F4A 0C27 0CFF      02170                         DT      B'00100111',B'11111111';BTC=0E
002F4E 0C27 0CFF      02171                         DT      B'00100111',B'11111111';BTC=0F
                      02172 
Warning[205]: Found directive in column 1. (ORG)
003000                02173 ORG     0X3000
003000                02174 FONT1_10
003000 0E00           02175                         MOVLW   0
003002 6EFB           02176                         MOVWF   PCLATU,0
003004 0E30           02177                         MOVLW   0X30
003006 6EFA           02178                         MOVWF   PCLATH,0
                      02179 
003008 C10A FFE8      02180                         MOVFF   BTCOUNT,WREG
00300C 90D8           02181                         BCF             STATUS,C
00300E 36E8           02182                         RLCF    WREG
                      02183 
                      02184                 
003010 26F9           02185                         ADDWF   PCL,1,0
003012 0CFF 0CFF      02186                         DT      B'11111111',B'11111111';BTC=00
003016 0CFF 0CFF      02187                         DT      B'11111111',B'11111111';BTC=01
00301A 0CFF 0CFF      02188                         DT      B'11111111',B'11111111';BTC=02
00301E 0CFF 0CFF      02189                         DT      B'11111111',B'11111111';BTC=03
003022 0CFF 0CFF      02190                         DT      B'11111111',B'11111111';BTC=04
003026 0CFF 0CFF      02191                         DT      B'11111111',B'11111111';BTC=05
00302A 0CFF 0CFF      02192                         DT      B'11111111',B'11111111';BTC=06
00302E 0CFF 0CFF      02193                         DT      B'11111111',B'11111111';BTC=07
003032 0CFF 0CFF      02194                         DT      B'11111111',B'11111111';BTC=08
003036 0CFF 0CFF      02195                         DT      B'11111111',B'11111111';BTC=09
00303A 0CFF 0CFF      02196                         DT      B'11111111',B'11111111';BTC=0A
00303E 0CFF 0CFF      02197                         DT      B'11111111',B'11111111';BTC=0B
003042 0CFF 0CFF      02198                         DT      B'11111111',B'11111111';BTC=0C
003046 0CFF 0CFF      02199                         DT      B'11111111',B'11111111';BTC=0D
00304A 0C24 0CFF      02200                         DT      B'00100100',B'11111111';BTC=0E
00304E 0C24 0CFF      02201                         DT      B'00100100',B'11111111';BTC=0F
                      02202 
Warning[205]: Found directive in column 1. (ORG)
003100                02203 ORG     0X3100
003100                02204 FONT1_11
003100 0E00           02205                         MOVLW   0
003102 6EFB           02206                         MOVWF   PCLATU,0
003104 0E31           02207                         MOVLW   0X31
003106 6EFA           02208                         MOVWF   PCLATH,0
                      02209 
003108 C10A FFE8      02210                         MOVFF   BTCOUNT,WREG
00310C 90D8           02211                         BCF             STATUS,C
00310E 36E8           02212                         RLCF    WREG
                      02213 
                      02214                 
003110 26F9           02215                         ADDWF   PCL,1,0
003112 0CFF 0CFF      02216                         DT      B'11111111',B'11111111';BTC=00
003116 0CFF 0CFF      02217                         DT      B'11111111',B'11111111';BTC=01
00311A 0CFF 0CFF      02218                         DT      B'11111111',B'11111111';BTC=02
00311E 0CFF 0CFF      02219                         DT      B'11111111',B'11111111';BTC=03
003122 0CFF 0CFF      02220                         DT      B'11111111',B'11111111';BTC=04
MPASM  5.51           2X2P10SCOREBOARD32K.ASM   4-20-2020  11:34:52         PAGE 46


LOC  OBJECT CODE     LINE SOURCE TEXT
  VALUE

003126 0CFF 0CFF      02221                         DT      B'11111111',B'11111111';BTC=05
00312A 0CFF 0CFF      02222                         DT      B'11111111',B'11111111';BTC=06
00312E 0CFF 0CFF      02223                         DT      B'11111111',B'11111111';BTC=07
003132 0CFF 0CFF      02224                         DT      B'11111111',B'11111111';BTC=08
003136 0CFF 0CFF      02225                         DT      B'11111111',B'11111111';BTC=09
00313A 0CFF 0CFF      02226                         DT      B'11111111',B'11111111';BTC=0A
00313E 0CFF 0CFF      02227                         DT      B'11111111',B'11111111';BTC=0B
003142 0CFF 0CFF      02228                         DT      B'11111111',B'11111111';BTC=0C
003146 0CFF 0CFF      02229                         DT      B'11111111',B'11111111';BTC=0D
00314A 0C24 0C9F      02230                         DT      B'00100100',B'10011111';BTC=0E
00314E 0C24 0C9F      02231                         DT      B'00100100',B'10011111';BTC=0F
                      02232 
Warning[205]: Found directive in column 1. (ORG)
003200                02233 ORG     0X3200
003200                02234 FONT1_12
003200 0E00           02235                         MOVLW   0
003202 6EFB           02236                         MOVWF   PCLATU,0
003204 0E32           02237                         MOVLW   0X32
003206 6EFA           02238                         MOVWF   PCLATH,0
                      02239 
003208 C10A FFE8      02240                         MOVFF   BTCOUNT,WREG
00320C 90D8           02241                         BCF             STATUS,C
00320E 36E8           02242                         RLCF    WREG
                      02243 
                      02244                 
003210 26F9           02245                         ADDWF   PCL,1,0
003212 0CFF 0CFF      02246                         DT      B'11111111',B'11111111';BTC=00
003216 0CFF 0CFF      02247                         DT      B'11111111',B'11111111';BTC=01
00321A 0CFF 0CFF      02248                         DT      B'11111111',B'11111111';BTC=02
00321E 0CFF 0CFF      02249                         DT      B'11111111',B'11111111';BTC=03
003222 0CFF 0CFF      02250                         DT      B'11111111',B'11111111';BTC=04
003226 0CFF 0CFF      02251                         DT      B'11111111',B'11111111';BTC=05
00322A 0CFF 0CFF      02252                         DT      B'11111111',B'11111111';BTC=06
00322E 0CFF 0CFF      02253                         DT      B'11111111',B'11111111';BTC=07
003232 0CFF 0CFF      02254                         DT      B'11111111',B'11111111';BTC=08
003236 0CFF 0CFF      02255                         DT      B'11111111',B'11111111';BTC=09
00323A 0CFF 0CFF      02256                         DT      B'11111111',B'11111111';BTC=0A
00323E 0CFF 0CFF      02257                         DT      B'11111111',B'11111111';BTC=0B
003242 0CFF 0CFF      02258                         DT      B'11111111',B'11111111';BTC=0C
003246 0CFF 0CFF      02259                         DT      B'11111111',B'11111111';BTC=0D
00324A 0C00 0C1F      02260                         DT      B'00000000',B'00011111';BTC=0E
00324E 0C00 0C1F      02261                         DT      B'00000000',B'00011111';BTC=0F
                      02262 
                      02263 
                      02264 
Warning[205]: Found directive in column 1. (ORG)
004000                02265 ORG 0X4000
                      02266 
004000                02267 FONT2_0
004000 0E00           02268                         MOVLW   0
004002 6EFB           02269                         MOVWF   PCLATU,0
004004 0E40           02270                         MOVLW   0X40
004006 6EFA           02271                         MOVWF   PCLATH,0
MPASM  5.51           2X2P10SCOREBOARD32K.ASM   4-20-2020  11:34:52         PAGE 47


LOC  OBJECT CODE     LINE SOURCE TEXT
  VALUE

                      02272 
004008 C10A FFE8      02273                         MOVFF   BTCOUNT,WREG
00400C 90D8           02274                         BCF             STATUS,C
00400E 36E8           02275                         RLCF    WREG
                      02276 
                      02277                 
004010 26F9           02278                         ADDWF   PCL,1,0
004012 0CC0 0CFF      02279                         DT      B'11000000',B'11111111'
004016 0C80 0C7F      02280                         DT      B'10000000',B'01111111'
00401A 0C1E 0C3F      02281                         DT      B'00011110',B'00111111'
00401E 0C3F 0C3F      02282                         DT      B'00111111',B'00111111'
004022 0C3F 0C3F      02283                         DT      B'00111111',B'00111111'
004026 0C3F 0C3F      02284                         DT      B'00111111',B'00111111'
00402A 0C3F 0C3F      02285                         DT      B'00111111',B'00111111'
00402E 0C3F 0C3F      02286                         DT      B'00111111',B'00111111'
004032 0C3F 0C3F      02287                         DT      B'00111111',B'00111111'
004036 0C3F 0C3F      02288                         DT      B'00111111',B'00111111'
00403A 0C3F 0C3F      02289                         DT      B'00111111',B'00111111'
00403E 0C3F 0C3F      02290                         DT      B'00111111',B'00111111'
004042 0C1E 0C3F      02291                         DT      B'00011110',B'00111111'
004046 0C80 0C7F      02292                         DT      B'10000000',B'01111111'
00404A 0CC0 0CFF      02293                         DT      B'11000000',B'11111111'
00404E 0CFF 0CFF      02294                         DT      B'11111111',B'11111111'
                      02295 
Warning[205]: Found directive in column 1. (ORG)
004100                02296 ORG     0X4100
                      02297 
004100                02298 FONT2_1
004100 0E00           02299                         MOVLW   0
004102 6EFB           02300                         MOVWF   PCLATU,0
004104 0E41           02301                         MOVLW   0X41
004106 6EFA           02302                         MOVWF   PCLATH,0
                      02303 
004108 C10A FFE8      02304                         MOVFF   BTCOUNT,WREG
00410C 90D8           02305                         BCF             STATUS,C
00410E 36E8           02306                         RLCF    WREG
                      02307 
                      02308                 
004110 26F9           02309                         ADDWF   PCL,1,0
004112 0CE7 0CFF      02310                         DT      B'11100111',B'11111111';BTC=00
004116 0CE7 0CFF      02311                         DT      B'11100111',B'11111111';BTC=01
00411A 0CC7 0CFF      02312                         DT      B'11000111',B'11111111';BTC=02
00411E 0C87 0CFF      02313                         DT      B'10000111',B'11111111';BTC=03
004122 0C27 0CFF      02314                         DT      B'00100111',B'11111111';BTC=04
004126 0CE7 0CFF      02315                         DT      B'11100111',B'11111111';BTC=05
00412A 0CE7 0CFF      02316                         DT      B'11100111',B'11111111';BTC=06
00412E 0CE7 0CFF      02317                         DT      B'11100111',B'11111111';BTC=07
004132 0CE7 0CFF      02318                         DT      B'11100111',B'11111111';BTC=08
004136 0CE7 0CFF      02319                         DT      B'11100111',B'11111111';BTC=09
00413A 0CE7 0CFF      02320                         DT      B'11100111',B'11111111';BTC=0A
00413E 0CE7 0CFF      02321                         DT      B'11100111',B'11111111';BTC=0B
004142 0CE7 0CFF      02322                         DT      B'11100111',B'11111111';BTC=0C
004146 0C00 0CFF      02323                         DT      B'00000000',B'11111111';BTC=0D
MPASM  5.51           2X2P10SCOREBOARD32K.ASM   4-20-2020  11:34:52         PAGE 48


LOC  OBJECT CODE     LINE SOURCE TEXT
  VALUE

00414A 0C00 0CFF      02324                         DT      B'00000000',B'11111111';BTC=0E
00414E 0CFF 0CFF      02325                         DT      B'11111111',B'11111111';BTC=0F
                      02326 
                      02327 
                      02328 
Warning[205]: Found directive in column 1. (ORG)
004200                02329 ORG     0X4200
                      02330 
004200                02331 FONT2_2
004200 0E00           02332                         MOVLW   0
004202 6EFB           02333                         MOVWF   PCLATU,0
004204 0E42           02334                         MOVLW   0X42
004206 6EFA           02335                         MOVWF   PCLATH,0
                      02336 
004208 C10A FFE8      02337                         MOVFF   BTCOUNT,WREG
00420C 90D8           02338                         BCF             STATUS,C
00420E 36E8           02339                         RLCF    WREG
                      02340 
                      02341                 
004210 26F9           02342                         ADDWF   PCL,1,0
004212 0CC0 0CFF      02343                         DT      B'11000000',B'11111111' ;BTC=00
004216 0C80 0C7F      02344                         DT      B'10000000',B'01111111' ;BTC=01
00421A 0C3E 0C3F      02345                         DT      B'00111110',B'00111111' ;BTC=02
00421E 0CFF 0C3F      02346                         DT      B'11111111',B'00111111' ;BTC=03
004222 0CFF 0C3F      02347                         DT      B'11111111',B'00111111' ;BTC=04
004226 0CFF 0C3F      02348                         DT      B'11111111',B'00111111' ;BTC=05
00422A 0CFE 0C3F      02349                         DT      B'11111110',B'00111111' ;BTC=06
00422E 0CC0 0C7F      02350                         DT      B'11000000',B'01111111' ;BTC=07
004232 0C80 0CFF      02351                         DT      B'10000000',B'11111111' ;BTC=08
004236 0C1F 0CFF      02352                         DT      B'00011111',B'11111111' ;BTC=09
00423A 0C3F 0CFF      02353                         DT      B'00111111',B'11111111' ;BTC=0A
00423E 0C3F 0CFF      02354                         DT      B'00111111',B'11111111' ;BTC=0B
004242 0C3F 0C3F      02355                         DT      B'00111111',B'00111111' ;BTC=0C
004246 0C00 0C3F      02356                         DT      B'00000000',B'00111111' ;BTC=0D
00424A 0C00 0C3F      02357                         DT      B'00000000',B'00111111' ;BTC=0E
00424E 0CFF 0CFF      02358                         DT      B'11111111',B'11111111' ;BTC=0F
                      02359 
                      02360 
Warning[205]: Found directive in column 1. (ORG)
004300                02361 ORG     0X4300
                      02362 
                      02363 
                      02364 
004300                02365 FONT2_3
004300 0E00           02366                         MOVLW   0
004302 6EFB           02367                         MOVWF   PCLATU,0
004304 0E43           02368                         MOVLW   0X43
004306 6EFA           02369                         MOVWF   PCLATH,0
                      02370 
004308 C10A FFE8      02371                         MOVFF   BTCOUNT,WREG
00430C 90D8           02372                         BCF             STATUS,C
00430E 36E8           02373                         RLCF    WREG
                      02374 
MPASM  5.51           2X2P10SCOREBOARD32K.ASM   4-20-2020  11:34:52         PAGE 49


LOC  OBJECT CODE     LINE SOURCE TEXT
  VALUE

                      02375                 
004310 26F9           02376                         ADDWF   PCL,1,0
004312 0CC0 0CFF      02377                         DT      B'11000000',B'11111111' ;BTC=00
004316 0C80 0C7F      02378                         DT      B'10000000',B'01111111' ;BTC=01
00431A 0C1E 0C3F      02379                         DT      B'00011110',B'00111111' ;BTC=02
00431E 0C3F 0C3F      02380                         DT      B'00111111',B'00111111' ;BTC=03
004322 0CFF 0C3F      02381                         DT      B'11111111',B'00111111' ;BTC=04
004326 0CFF 0C3F      02382                         DT      B'11111111',B'00111111' ;BTC=05
00432A 0CFE 0C3F      02383                         DT      B'11111110',B'00111111' ;BTC=06
00432E 0CE0 0C7F      02384                         DT      B'11100000',B'01111111' ;BTC=07
004332 0CE0 0C7F      02385                         DT      B'11100000',B'01111111' ;BTC=08
004336 0CFE 0C3F      02386                         DT      B'11111110',B'00111111' ;BTC=09
00433A 0CFF 0C3F      02387                         DT      B'11111111',B'00111111' ;BTC=0A
00433E 0C3F 0C3F      02388                         DT      B'00111111',B'00111111' ;BTC=0B
004342 0C1E 0C3F      02389                         DT      B'00011110',B'00111111' ;BTC=0C
004346 0C80 0C7F      02390                         DT      B'10000000',B'01111111' ;BTC=0D
00434A 0CC0 0CFF      02391                         DT      B'11000000',B'11111111' ;BTC=0E
00434E 0CFF 0CFF      02392                         DT      B'11111111',B'11111111' ;BTC=0F
                      02393 
                      02394 
                      02395 
                      02396 
Warning[205]: Found directive in column 1. (ORG)
004400                02397 ORG     0X4400
                      02398 
004400                02399 FONT2_4
004400 0E00           02400                         MOVLW   0
004402 6EFB           02401                         MOVWF   PCLATU,0
004404 0E44           02402                         MOVLW   0X44
004406 6EFA           02403                         MOVWF   PCLATH,0
                      02404 
004408 C10A FFE8      02405                         MOVFF   BTCOUNT,WREG
00440C 90D8           02406                         BCF             STATUS,C
00440E 36E8           02407                         RLCF    WREG
                      02408 
                      02409                 
004410 26F9           02410                         ADDWF   PCL,1,0
004412 0CFF 0CBF      02411                         DT      B'11111111',B'10111111' ;BTC=00
004416 0CFD 0C3F      02412                         DT      B'11111101',B'00111111' ;BTC=01
00441A 0CF9 0C3F      02413                         DT      B'11111001',B'00111111' ;BTC=02
00441E 0CF9 0C3F      02414                         DT      B'11111001',B'00111111' ;BTC=03
004422 0CF3 0C3F      02415                         DT      B'11110011',B'00111111' ;BTC=04
004426 0CE7 0C3F      02416                         DT      B'11100111',B'00111111' ;BTC=05
00442A 0CCF 0C3F      02417                         DT      B'11001111',B'00111111' ;BTC=06
00442E 0C9F 0C3F      02418                         DT      B'10011111',B'00111111' ;BTC=07
004432 0C3F 0C3F      02419                         DT      B'00111111',B'00111111' ;BTC=08
004436 0C00 0C3F      02420                         DT      B'00000000',B'00111111' ;BTC=09
00443A 0C00 0C3F      02421                         DT      B'00000000',B'00111111' ;BTC=0A
00443E 0CFF 0C3F      02422                         DT      B'11111111',B'00111111' ;BTC=0B
004442 0CFF 0C3F      02423                         DT      B'11111111',B'00111111' ;BTC=0C
004446 0CFF 0C3F      02424                         DT      B'11111111',B'00111111' ;BTC=0D
00444A 0CFF 0C7F      02425                         DT      B'11111111',B'01111111' ;BTC=0E
00444E 0CFF 0CFF      02426                         DT      B'11111111',B'11111111' ;BTC=0F
MPASM  5.51           2X2P10SCOREBOARD32K.ASM   4-20-2020  11:34:52         PAGE 50


LOC  OBJECT CODE     LINE SOURCE TEXT
  VALUE

                      02427 
                      02428 
Warning[205]: Found directive in column 1. (ORG)
004500                02429 ORG     0X4500
                      02430 
004500                02431 FONT2_5
004500 0E00           02432                         MOVLW   0
004502 6EFB           02433                         MOVWF   PCLATU,0
004504 0E45           02434                         MOVLW   0X45
004506 6EFA           02435                         MOVWF   PCLATH,0
                      02436 
004508 C10A FFE8      02437                         MOVFF   BTCOUNT,WREG
00450C 90D8           02438                         BCF             STATUS,C
00450E 36E8           02439                         RLCF    WREG
                      02440 
                      02441                 
004510 26F9           02442                         ADDWF   PCL,1,0
004512 0C00 0C3F      02443                         DT      B'00000000',B'00111111' ;BTC=00
004516 0C00 0C3F      02444                         DT      B'00000000',B'00111111' ;BTC=01
00451A 0C3F 0C7F      02445                         DT      B'00111111',B'01111111' ;BTC=02
00451E 0C3F 0CFF      02446                         DT      B'00111111',B'11111111' ;BTC=03
004522 0C3F 0CFF      02447                         DT      B'00111111',B'11111111' ;BTC=04
004526 0C3F 0CFF      02448                         DT      B'00111111',B'11111111' ;BTC=05
00452A 0C00 0CFF      02449                         DT      B'00000000',B'11111111' ;BTC=06
00452E 0C00 0C7F      02450                         DT      B'00000000',B'01111111' ;BTC=07
004532 0CFE 0C3F      02451                         DT      B'11111110',B'00111111' ;BTC=08
004536 0CFF 0C3F      02452                         DT      B'11111111',B'00111111' ;BTC=09
00453A 0CFF 0C3F      02453                         DT      B'11111111',B'00111111' ;BTC=0A
00453E 0C3F 0C3F      02454                         DT      B'00111111',B'00111111' ;BTC=0B
004542 0C1E 0C3F      02455                         DT      B'00011110',B'00111111' ;BTC=0C
004546 0C80 0C7F      02456                         DT      B'10000000',B'01111111' ;BTC=0D
00454A 0CC0 0CFF      02457                         DT      B'11000000',B'11111111' ;BTC=0E
00454E 0CFF 0CFF      02458                         DT      B'11111111',B'11111111' ;BTC=0F
                      02459 
                      02460 
Warning[205]: Found directive in column 1. (ORG)
004600                02461 ORG     0X4600
                      02462 
004600                02463 FONT2_6
004600 0E00           02464                         MOVLW   0
004602 6EFB           02465                         MOVWF   PCLATU,0
004604 0E46           02466                         MOVLW   0X46
004606 6EFA           02467                         MOVWF   PCLATH,0
                      02468 
004608 C10A FFE8      02469                         MOVFF   BTCOUNT,WREG
00460C 90D8           02470                         BCF             STATUS,C
00460E 36E8           02471                         RLCF    WREG
                      02472 
                      02473                 
004610 26F9           02474                         ADDWF   PCL,1,0
004612 0CC0 0C7F      02475                         DT      B'11000000',B'01111111' ;BTC=00
004616 0C80 0C3F      02476                         DT      B'10000000',B'00111111' ;BTC=01
00461A 0C1E 0C3F      02477                         DT      B'00011110',B'00111111' ;BTC=02
MPASM  5.51           2X2P10SCOREBOARD32K.ASM   4-20-2020  11:34:52         PAGE 51


LOC  OBJECT CODE     LINE SOURCE TEXT
  VALUE

00461E 0C3F 0C3F      02478                         DT      B'00111111',B'00111111' ;BTC=03
004622 0C3F 0CFF      02479                         DT      B'00111111',B'11111111' ;BTC=04
004626 0C1F 0CFF      02480                         DT      B'00011111',B'11111111' ;BTC=05
00462A 0C00 0CFF      02481                         DT      B'00000000',B'11111111' ;BTC=06
00462E 0C00 0C7F      02482                         DT      B'00000000',B'01111111' ;BTC=07
004632 0C1E 0C3F      02483                         DT      B'00011110',B'00111111' ;BTC=08
004636 0C3F 0C3F      02484                         DT      B'00111111',B'00111111' ;BTC=09
00463A 0C3F 0C3F      02485                         DT      B'00111111',B'00111111' ;BTC=0A
00463E 0C3F 0C3F      02486                         DT      B'00111111',B'00111111' ;BTC=0B
004642 0C1E 0C3F      02487                         DT      B'00011110',B'00111111' ;BTC=0C
004646 0C80 0C7F      02488                         DT      B'10000000',B'01111111' ;BTC=0D
00464A 0CC0 0CFF      02489                         DT      B'11000000',B'11111111' ;BTC=0E
00464E 0CFF 0CFF      02490                         DT      B'11111111',B'11111111' ;BTC=0F
                      02491 
Warning[205]: Found directive in column 1. (ORG)
004700                02492 ORG     0X4700
                      02493 
004700                02494 FONT2_7
004700 0E00           02495                         MOVLW   0
004702 6EFB           02496                         MOVWF   PCLATU,0
004704 0E47           02497                         MOVLW   0X47
004706 6EFA           02498                         MOVWF   PCLATH,0
                      02499 
004708 C10A FFE8      02500                         MOVFF   BTCOUNT,WREG
00470C 90D8           02501                         BCF             STATUS,C
00470E 36E8           02502                         RLCF    WREG
                      02503 
                      02504                 
004710 26F9           02505                         ADDWF   PCL,1,0
004712 0C00 0C3F      02506                         DT      B'00000000',B'00111111' ;BTC=00
004716 0C00 0C3F      02507                         DT      B'00000000',B'00111111' ;BTC=01
00471A 0C3F 0C3F      02508                         DT      B'00111111',B'00111111' ;BTC=02
00471E 0C3F 0C3F      02509                         DT      B'00111111',B'00111111' ;BTC=03
004722 0CFF 0C3F      02510                         DT      B'11111111',B'00111111' ;BTC=04
004726 0CFE 0C3F      02511                         DT      B'11111110',B'00111111' ;BTC=05
00472A 0CFC 0C7F      02512                         DT      B'11111100',B'01111111' ;BTC=06
00472E 0CF8 0CFF      02513                         DT      B'11111000',B'11111111' ;BTC=07
004732 0CF1 0CFF      02514                         DT      B'11110001',B'11111111' ;BTC=08
004736 0CE3 0CFF      02515                         DT      B'11100011',B'11111111' ;BTC=09
00473A 0CE7 0CFF      02516                         DT      B'11100111',B'11111111' ;BTC=0A
00473E 0CE7 0CFF      02517                         DT      B'11100111',B'11111111' ;BTC=0B
004742 0CE7 0CFF      02518                         DT      B'11100111',B'11111111' ;BTC=0C
004746 0CE7 0CFF      02519                         DT      B'11100111',B'11111111' ;BTC=0D
00474A 0CE7 0CFF      02520                         DT      B'11100111',B'11111111' ;BTC=0E
00474E 0CFF 0CFF      02521                         DT      B'11111111',B'11111111' ;BTC=0F
                      02522 
                      02523 
Warning[205]: Found directive in column 1. (ORG)
004800                02524 ORG     0X4800
                      02525 
004800                02526 FONT2_8
004800 0E00           02527                         MOVLW   0
004802 6EFB           02528                         MOVWF   PCLATU,0
MPASM  5.51           2X2P10SCOREBOARD32K.ASM   4-20-2020  11:34:52         PAGE 52


LOC  OBJECT CODE     LINE SOURCE TEXT
  VALUE

004804 0E48           02529                         MOVLW   0X48
004806 6EFA           02530                         MOVWF   PCLATH,0
                      02531 
004808 C10A FFE8      02532                         MOVFF   BTCOUNT,WREG
00480C 90D8           02533                         BCF             STATUS,C
00480E 36E8           02534                         RLCF    WREG
                      02535 
                      02536                 
004810 26F9           02537                         ADDWF   PCL,1,0
004812 0CC0 0CFF      02538                         DT      B'11000000',B'11111111' ;BTC=00
004816 0C80 0C7F      02539                         DT      B'10000000',B'01111111' ;BTC=01
00481A 0C1E 0C3F      02540                         DT      B'00011110',B'00111111' ;BTC=02
00481E 0C3F 0C3F      02541                         DT      B'00111111',B'00111111' ;BTC=03
004822 0C3F 0C3F      02542                         DT      B'00111111',B'00111111' ;BTC=04
004826 0C1E 0C3F      02543                         DT      B'00011110',B'00111111' ;BTC=05
00482A 0C80 0C7F      02544                         DT      B'10000000',B'01111111' ;BTC=06
00482E 0C80 0C7F      02545                         DT      B'10000000',B'01111111' ;BTC=07
004832 0C1E 0C3F      02546                         DT      B'00011110',B'00111111' ;BTC=08
004836 0C3F 0C3F      02547                         DT      B'00111111',B'00111111' ;BTC=09
00483A 0C3F 0C3F      02548                         DT      B'00111111',B'00111111' ;BTC=0A
00483E 0C3F 0C3F      02549                         DT      B'00111111',B'00111111' ;BTC=0B
004842 0C1E 0C3F      02550                         DT      B'00011110',B'00111111' ;BTC=0C
004846 0C80 0C7F      02551                         DT      B'10000000',B'01111111' ;BTC=0D
00484A 0CC0 0CFF      02552                         DT      B'11000000',B'11111111' ;BTC=0E
00484E 0CFF 0CFF      02553                         DT      B'11111111',B'11111111' ;BTC=0F
                      02554 
                      02555 
Warning[205]: Found directive in column 1. (ORG)
004900                02556 ORG     0X4900
                      02557 
004900                02558 FONT2_9
004900 0E00           02559                         MOVLW   0
004902 6EFB           02560                         MOVWF   PCLATU,0
004904 0E49           02561                         MOVLW   0X49
004906 6EFA           02562                         MOVWF   PCLATH,0
                      02563 
004908 C10A FFE8      02564                         MOVFF   BTCOUNT,WREG
00490C 90D8           02565                         BCF             STATUS,C
00490E 36E8           02566                         RLCF    WREG
                      02567 
                      02568                 
004910 26F9           02569                         ADDWF   PCL,1,0
004912 0CC0 0CFF      02570                         DT      B'11000000',B'11111111' ;BTC=00
004916 0C80 0C7F      02571                         DT      B'10000000',B'01111111' ;BTC=01
00491A 0C1E 0C3F      02572                         DT      B'00011110',B'00111111' ;BTC=02
00491E 0C3F 0C3F      02573                         DT      B'00111111',B'00111111' ;BTC=03
004922 0C3F 0C3F      02574                         DT      B'00111111',B'00111111' ;BTC=04
004926 0C3F 0C3F      02575                         DT      B'00111111',B'00111111' ;BTC=05
00492A 0C1E 0C3F      02576                         DT      B'00011110',B'00111111' ;BTC=06
00492E 0C80 0C3F      02577                         DT      B'10000000',B'00111111' ;BTC=07
004932 0CC0 0C3F      02578                         DT      B'11000000',B'00111111' ;BTC=08
004936 0CFE 0C3F      02579                         DT      B'11111110',B'00111111' ;BTC=09
00493A 0CFF 0C3F      02580                         DT      B'11111111',B'00111111' ;BTC=0A
MPASM  5.51           2X2P10SCOREBOARD32K.ASM   4-20-2020  11:34:52         PAGE 53


LOC  OBJECT CODE     LINE SOURCE TEXT
  VALUE

00493E 0C3F 0C3F      02581                         DT      B'00111111',B'00111111' ;BTC=0B
004942 0C1E 0C3F      02582                         DT      B'00011110',B'00111111' ;BTC=0C
004946 0C80 0C7F      02583                         DT      B'10000000',B'01111111' ;BTC=0D
00494A 0CC0 0CFF      02584                         DT      B'11000000',B'11111111' ;BTC=0E
00494E 0CFF 0CFF      02585                         DT      B'11111111',B'11111111' ;BTC=0F
                      02586 
Warning[205]: Found directive in column 1. (ORG)
004A00                02587 ORG     0X4A00
                      02588 
004A00                02589 FONT2_A
004A00 0E00           02590                         MOVLW   0
004A02 6EFB           02591                         MOVWF   PCLATU,0
004A04 0E4A           02592                         MOVLW   0X4A
004A06 6EFA           02593                         MOVWF   PCLATH,0
                      02594 
004A08 C10A FFE8      02595                         MOVFF   BTCOUNT,WREG
004A0C 90D8           02596                         BCF             STATUS,C
004A0E 36E8           02597                         RLCF    WREG
                      02598 
                      02599                 
004A10 26F9           02600                         ADDWF   PCL,1,0
004A12 0CFF 0CFF      02601                         DT      B'11111111',B'11111111';BTC=00
004A16 0CFF 0CFF      02602                         DT      B'11111111',B'11111111';BTC=01
004A1A 0CFF 0CFF      02603                         DT      B'11111111',B'11111111';BTC=02
004A1E 0CFF 0CF0      02604                         DT      B'11111111',B'11110000';BTC=03
004A22 0CFF 0CE0      02605                         DT      B'11111111',B'11100000';BTC=04
004A26 0CFF 0CC0      02606                         DT      B'11111111',B'11000000';BTC=05
004A2A 0CFF 0C8F      02607                         DT      B'11111111',B'10001111';BTC=06
004A2E 0CFF 0C1F      02608                         DT      B'11111111',B'00011111';BTC=07
004A32 0CFE 0C3F      02609                         DT      B'11111110',B'00111111';BTC=08
004A36 0CFC 0C7F      02610                         DT      B'11111100',B'01111111';BTC=09
004A3A 0CF8 0CFF      02611                         DT      B'11111000',B'11111111';BTC=0A
004A3E 0CF1 0CFF      02612                         DT      B'11110001',B'11111111';BTC=0B
004A42 0CE3 0CFF      02613                         DT      B'11100011',B'11111111';BTC=0C
004A46 0CC7 0CFF      02614                         DT      B'11000111',B'11111111';BTC=0D
004A4A 0C8F 0C80      02615                         DT      B'10001111',B'10000000';BTC=0E
004A4E 0C1F 0C00      02616                         DT      B'00011111',B'00000000';BTC=0F
                      02617 
Warning[205]: Found directive in column 1. (ORG)
004B00                02618 ORG     0X4B00
                      02619 
004B00                02620 FONT2_B
004B00 0E00           02621                         MOVLW   0
004B02 6EFB           02622                         MOVWF   PCLATU,0
004B04 0E4B           02623                         MOVLW   0X4B
004B06 6EFA           02624                         MOVWF   PCLATH,0
                      02625 
004B08 C10A FFE8      02626                         MOVFF   BTCOUNT,WREG
004B0C 90D8           02627                         BCF             STATUS,C
004B0E 36E8           02628                         RLCF    WREG
                      02629 
                      02630                 
004B10 26F9           02631                         ADDWF   PCL,1,0
MPASM  5.51           2X2P10SCOREBOARD32K.ASM   4-20-2020  11:34:52         PAGE 54


LOC  OBJECT CODE     LINE SOURCE TEXT
  VALUE

004B12 0CFF 0C8F      02632                         DT      B'11111111',B'10001111';BTC=00
004B16 0CFF 0C1F      02633                         DT      B'11111111',B'00011111';BTC=01
004B1A 0CFE 0C3F      02634                         DT      B'11111110',B'00111111';BTC=02
004B1E 0C00 0C7F      02635                         DT      B'00000000',B'01111111';BTC=03
004B22 0C00 0CFF      02636                         DT      B'00000000',B'11111111';BTC=04
004B26 0C01 0CFF      02637                         DT      B'00000001',B'11111111';BTC=05
004B2A 0CE3 0CFF      02638                         DT      B'11100011',B'11111111';BTC=06
004B2E 0CC7 0CFF      02639                         DT      B'11000111',B'11111111';BTC=07
004B32 0CFF 0CFF      02640                         DT      B'11111111',B'11111111';BTC=08
004B36 0CFF 0CFF      02641                         DT      B'11111111',B'11111111';BTC=09
004B3A 0CFF 0CFF      02642                         DT      B'11111111',B'11111111';BTC=0A
004B3E 0CFF 0CFF      02643                         DT      B'11111111',B'11111111';BTC=0B
004B42 0CFF 0CFF      02644                         DT      B'11111111',B'11111111';BTC=0C
004B46 0CFF 0CFF      02645                         DT      B'11111111',B'11111111';BTC=0D
004B4A 0CFF 0CFF      02646                         DT      B'11111111',B'11111111';BTC=0E
004B4E 0C00 0C00      02647                         DT      B'00000000',B'00000000';BTC=0F
                      02648 
                      02649 
                      02650 
Warning[205]: Found directive in column 1. (ORG)
005000                02651 ORG 0X5000
                      02652 ;=======================        COMMANDS        ===================
005000                02653 COMMAND
005000 EC2B F029      02654         CALL    TRNSDATA_CPU2GPU
005004 A15A           02655         BTFSS   POS,0
005006 EF07 F028      02656         GOTO    CMD_BUZZOFF
00500A EF0A F028      02657         GOTO    CMD_BUZZON
                      02658 
00500E                02659 CMD_BUZZOFF
00500E 948C           02660         BCF LATD,2,0
Warning[203]: Found opcode in column 1. (GOTO)
005010 EF0B F028      02661 GOTO    CMD_ST
                      02662 
005014                02663 CMD_BUZZON
005014 848C           02664         BSF LATD,2,0
                      02665 
005016                02666 CMD_ST
005016 0E00           02667         MOVLW   0X00
005018 6F0F           02668         MOVWF   FONT
                      02669 
00501A 0E05           02670         MOVLW   0X05
00501C 635B           02671         CPFSEQ  PERIOD
00501E EF13 F028      02672         GOTO    SHOW_PERIOD
005022 0E0A           02673         MOVLW   0X0A
005024 6F5B           02674         MOVWF   PERIOD
                      02675         
005026                02676 SHOW_PERIOD
005026 C15B F10E      02677         MOVFF   PERIOD,CHAR
00502A 0E1E           02678         MOVLW   .30                     ;PERIOD
00502C 6F12           02679         MOVWF   CURSORX
00502E 0E01           02680         MOVLW   .1
005030 6F13           02681         MOVWF   CURSORY
005032 EC5F F001      02682         CALL    DUMPDATA
MPASM  5.51           2X2P10SCOREBOARD32K.ASM   4-20-2020  11:34:52         PAGE 55


LOC  OBJECT CODE     LINE SOURCE TEXT
  VALUE

                      02683 
                      02684 
                      02685 
                      02686         
                      02687 
005036 C159 F10E      02688         MOVFF   GT_MSEC,CHAR;MS
00503A 0E20           02689         MOVLW   .32
00503C 6F12           02690         MOVWF   CURSORX
00503E 0E10           02691         MOVLW   .16
005040 6F13           02692         MOVWF   CURSORY
005042 EC5F F001      02693         CALL    DUMPDATA
                      02694 
005046 0E02           02695         MOVLW   0X02
005048 6F0F           02696         MOVWF   FONT
                      02697 
                      02698 ;---------      SHOTCLOCK -------------
                      02699 
00504A 0E10           02700         MOVLW   .16
00504C 6F13           02701         MOVWF   CURSORY
                      02702         
00504E 0E0A           02703         MOVLW   0X0A
005050 6352           02704         CPFSEQ  SC_TENS
005052 EF2D F028      02705         GOTO    SHOW_SCTENS
005056 EF3F F028      02706         GOTO    SKIP_SCTENS
                      02707 
00505A                02708 SHOW_SCTENS
                      02709 
00505A 0E01           02710         MOVLW   0X01
00505C 6352           02711         CPFSEQ  SC_TENS
00505E EF39 F028      02712         GOTO    SCT_N1
                      02713 
                      02714 
005062 C152 F10E      02715         MOVFF   SC_TENS,CHAR
005066 0E2B           02716         MOVLW   .43
005068 6F12           02717         MOVWF   CURSORX
00506A EC5F F001      02718         CALL    DUMPDATA
00506E EF3F F028      02719         GOTO    SKIP_SCTENS
                      02720 
005072                02721 SCT_N1
005072 C152 F10E      02722         MOVFF   SC_TENS,CHAR
005076 0E29           02723         MOVLW   .41
005078 6F12           02724         MOVWF   CURSORX
00507A EC5F F001      02725         CALL    DUMPDATA
                      02726 
00507E                02727 SKIP_SCTENS
                      02728 
00507E 0E0A           02729         MOVLW   0X0A
005080 6353           02730         CPFSEQ  SC_ONES
005082 EF45 F028      02731         GOTO    SHOW_SCONES
005086 EF4B F028      02732         GOTO    SKIP_SCONES
                      02733 
00508A                02734 SHOW_SCONES
00508A C153 F10E      02735         MOVFF   SC_ONES,CHAR
MPASM  5.51           2X2P10SCOREBOARD32K.ASM   4-20-2020  11:34:52         PAGE 56


LOC  OBJECT CODE     LINE SOURCE TEXT
  VALUE

00508E 0E35           02736         MOVLW   .53
005090 6F12           02737         MOVWF   CURSORX
005092 EC5F F001      02738         CALL    DUMPDATA
005096                02739 SKIP_SCONES
                      02740 ;---------------------------------
                      02741 
                      02742 
005096 0E01           02743         MOVLW   0X01
005098 6F0F           02744         MOVWF   FONT
                      02745 
                      02746 ;---------      FOUL OUT -------------
                      02747 
00509A 0E0D           02748         MOVLW   .13
00509C 6F13           02749         MOVWF   CURSORY
                      02750         
00509E 0E00           02751         MOVLW   0X00
0050A0 6362           02752         CPFSEQ  FOUL_H
0050A2 EF55 F028      02753         GOTO    SHOW_FH
0050A6 EF5D F028      02754         GOTO    SKIP_FH
                      02755 
                      02756 
0050AA                02757 SHOW_FH
                      02758 
0050AA C162 F10E      02759         MOVFF   FOUL_H,CHAR
0050AE 0E0D           02760         MOVLW   0X0D
0050B0 270E           02761         ADDWF   CHAR
0050B2 0E01           02762         MOVLW   .1
0050B4 6F12           02763         MOVWF   CURSORX
0050B6 EC5F F001      02764         CALL    DUMPDATA
0050BA                02765 SKIP_FH
                      02766 
0050BA 0E00           02767         MOVLW   0X00
0050BC 6363           02768         CPFSEQ  FOUL_G
0050BE EF63 F028      02769         GOTO    SHOW_FG
0050C2 EF7E F028      02770         GOTO    SKIP_FG
                      02771         
0050C6                02772 SHOW_FG
0050C6 0E05           02773         MOVLW   0X05
0050C8 6363           02774         CPFSEQ  FOUL_G
0050CA EF69 F028      02775         GOTO    SHOW_FGN5
0050CE EF74 F028      02776         GOTO    SHOW_FG5
                      02777 
                      02778 
0050D2                02779 SHOW_FGN5
0050D2 0E40           02780         MOVLW   .64
0050D4 6F12           02781         MOVWF   CURSORX
0050D6 C163 F105      02782         MOVFF   FOUL_G,LOOP
0050DA                02783 SHOW_FG0
0050DA 0E03           02784         MOVLW   0X03
0050DC 5F12           02785         SUBWF   CURSORX
0050DE 2F05           02786         DECFSZ  LOOP,F
0050E0 EF6D F028      02787         GOTO    SHOW_FG0
0050E4 EF76 F028      02788         GOTO    SHOW_FG1
MPASM  5.51           2X2P10SCOREBOARD32K.ASM   4-20-2020  11:34:52         PAGE 57


LOC  OBJECT CODE     LINE SOURCE TEXT
  VALUE

                      02789 
0050E8                02790 SHOW_FG5
0050E8 0E34           02791         MOVLW   .52
0050EA 6F12           02792         MOVWF   CURSORX
                      02793 
0050EC                02794 SHOW_FG1        
                      02795 
0050EC 0E0C           02796         MOVLW   .12
0050EE 6F13           02797         MOVWF   CURSORY
0050F0 C163 F10E      02798         MOVFF   FOUL_G,CHAR
0050F4 0E0D           02799         MOVLW   0X0D
0050F6 270E           02800         ADDWF   CHAR
                      02801 
                      02802 
0050F8                02803 SHOW_FGDUMP
0050F8 EC5F F001      02804         CALL    DUMPDATA
0050FC                02805 SKIP_FG
                      02806 ;---------------------------------
                      02807 
                      02808 
                      02809 ;------------- TIME --------------
0050FC 0E16           02810         MOVLW   .22
0050FE 6F13           02811         MOVWF   CURSORY
                      02812 
005100 0E0A           02813         MOVLW   0X0A
005102 6355           02814         CPFSEQ  GTM_TENS
005104 EF86 F028      02815         GOTO    SHOW_GTMTENS
005108 EF92 F028      02816         GOTO    SKIP_GTMTENS
                      02817         
00510C                02818 SHOW_GTMTENS
00510C 0E00           02819         MOVLW   0X00
00510E 6355           02820         CPFSEQ  GTM_TENS
005110 EF8C F028      02821         GOTO    SHOW_GTMTENS0
005114 EF92 F028      02822         GOTO    SKIP_GTMTENS
                      02823 
005118                02824 SHOW_GTMTENS0   
005118 C155 F10E      02825         MOVFF   GTM_TENS,CHAR
00511C 0E01           02826         MOVLW   .1
00511E 6F12           02827         MOVWF   CURSORX
005120 EC5F F001      02828         CALL    DUMPDATA
005124                02829 SKIP_GTMTENS
                      02830 
005124 0E0A           02831         MOVLW   0X0A
005126 6356           02832         CPFSEQ  GTM_ONES
005128 EF98 F028      02833         GOTO    SHOW_GTMONES
00512C EF9E F028      02834         GOTO    SKIP_GTMONES
                      02835 
                      02836 
005130                02837 SHOW_GTMONES
005130 C156 F10E      02838         MOVFF   GTM_ONES,CHAR
005134 0E05           02839         MOVLW   .5
005136 6F12           02840         MOVWF   CURSORX
005138 EC5F F001      02841         CALL    DUMPDATA
MPASM  5.51           2X2P10SCOREBOARD32K.ASM   4-20-2020  11:34:52         PAGE 58


LOC  OBJECT CODE     LINE SOURCE TEXT
  VALUE

00513C                02842 SKIP_GTMONES
                      02843 
                      02844 
00513C 0E0A           02845         MOVLW   0X0A
00513E 6F0E           02846         MOVWF   CHAR
005140 0E0C           02847         MOVLW   .12
005142 6F12           02848         MOVWF   CURSORX
005144 EC5F F001      02849         CALL    DUMPDATA
                      02850 
                      02851 
005148 0E0A           02852         MOVLW   0X0A
00514A 6357           02853         CPFSEQ  GTS_TENS
00514C EFAA F028      02854         GOTO    SHOW_GTSTENS
005150 EFB0 F028      02855         GOTO    SKIP_GTSTENS
                      02856 
005154                02857 SHOW_GTSTENS
005154 C157 F10E      02858         MOVFF   GTS_TENS,CHAR
005158 0E0F           02859         MOVLW   .15
00515A 6F12           02860         MOVWF   CURSORX
00515C EC5F F001      02861         CALL    DUMPDATA
005160                02862 SKIP_GTSTENS
                      02863 
                      02864 
                      02865 
005160 0E0A           02866         MOVLW   0X0A
005162 6358           02867         CPFSEQ  GTS_ONES
005164 EFB6 F028      02868         GOTO    SHOW_GTSONES
005168 EFBC F028      02869         GOTO    SKIP_GTSONES
                      02870 
00516C                02871 SHOW_GTSONES
00516C C158 F10E      02872         MOVFF   GTS_ONES,CHAR
005170 0E16           02873         MOVLW   .22
005172 6F12           02874         MOVWF   CURSORX
005174 EC5F F001      02875         CALL    DUMPDATA
005178                02876 SKIP_GTSONES
                      02877 
005178 0E0B           02878         MOVLW   0X0B            ;DOT
00517A 6F0E           02879         MOVWF   CHAR
00517C 0E1D           02880         MOVLW   .29
00517E 6F12           02881         MOVWF   CURSORX
005180 EC5F F001      02882         CALL    DUMPDATA
                      02883 
                      02884 
                      02885 
                      02886 ;---------------------------------      
                      02887 
                      02888 
                      02889 
                      02890 ;-----------    GUEST SCORE     -------
005184 0E01           02891         MOVLW   0X01
005186 6F0F           02892         MOVWF   FONT
                      02893 
005188 0E00           02894         MOVLW   0
MPASM  5.51           2X2P10SCOREBOARD32K.ASM   4-20-2020  11:34:52         PAGE 59


LOC  OBJECT CODE     LINE SOURCE TEXT
  VALUE

00518A 6F13           02895         MOVWF   CURSORY
                      02896 
00518C 0E0A           02897         MOVLW   0X0A
00518E 635F           02898         CPFSEQ  GS_H
005190 EFCC F028      02899         GOTO    SHOW_GSH
005194 EFD2 F028      02900         GOTO    SKIP_GSH
                      02901 
005198                02902 SHOW_GSH
005198 C15F F10E      02903         MOVFF   GS_H,CHAR       
00519C 0E2D           02904         MOVLW   .45
00519E 6F12           02905         MOVWF   CURSORX
0051A0 EC5F F001      02906         CALL    DUMPDATA
0051A4                02907 SKIP_GSH
                      02908 
0051A4 0E0A           02909         MOVLW   0X0A
0051A6 6360           02910         CPFSEQ  GS_T
0051A8 EFD8 F028      02911         GOTO    SHOW_GST
0051AC EFDE F028      02912         GOTO    SKIP_GST
                      02913 
0051B0                02914 SHOW_GST
0051B0 C160 F10E      02915         MOVFF   GS_T,CHAR
0051B4 0E32           02916         MOVLW   .50
0051B6 6F12           02917         MOVWF   CURSORX
0051B8 EC5F F001      02918         CALL    DUMPDATA
0051BC                02919 SKIP_GST
                      02920 
0051BC 0E0A           02921         MOVLW   0X0A
0051BE 6361           02922         CPFSEQ  GS_O
0051C0 EFE4 F028      02923         GOTO    SHOW_GSO
0051C4 EFEA F028      02924         GOTO    SKIP_GSO
                      02925 
0051C8                02926 SHOW_GSO
0051C8 C161 F10E      02927         MOVFF   GS_O,CHAR
0051CC 0E39           02928         MOVLW   .57
0051CE 6F12           02929         MOVWF   CURSORX
0051D0 EC5F F001      02930         CALL    DUMPDATA
0051D4                02931 SKIP_GSO
                      02932 
                      02933 
                      02934 
                      02935 ;-----------------------------------
                      02936 ;-----------    BALL POSS       ---------
0051D4 B35A           02937         BTFSC   POS,1
0051D6 EFEF F028      02938         GOTO    SHOW_HPOS
0051DA EFF7 F028      02939         GOTO    SKIP_HPOS
                      02940 
                      02941 
0051DE                02942 SHOW_HPOS
0051DE 0E0C           02943         MOVLW   0X0C
0051E0 6F0E           02944         MOVWF   CHAR
0051E2 0E15           02945         MOVLW   .21                     ;<
0051E4 6F12           02946         MOVWF   CURSORX
0051E6 EC5F F001      02947         CALL    DUMPDATA
MPASM  5.51           2X2P10SCOREBOARD32K.ASM   4-20-2020  11:34:52         PAGE 60


LOC  OBJECT CODE     LINE SOURCE TEXT
  VALUE

0051EA EF03 F029      02948         GOTO    POS_END
0051EE                02949 SKIP_HPOS
0051EE B55A           02950         BTFSC   POS,2
0051F0 EFFC F028      02951         GOTO    SHOW_GPOS
0051F4 EF02 F029      02952         GOTO    SKIP_GPOS       
                      02953 
                      02954 
0051F8                02955 SHOW_GPOS
0051F8 0E0D           02956         MOVLW   0X0D            ;>
0051FA 6F0E           02957         MOVWF   CHAR
0051FC 0E27           02958         MOVLW   .39
0051FE 6F12           02959         MOVWF   CURSORX
005200 EC5F F001      02960         CALL    DUMPDATA
005204                02961 SKIP_GPOS
005204 0000           02962         NOP
                      02963 
005206                02964 POS_END
Warning[203]: Found opcode in column 1. (NOP)
005206 0000           02965 NOP
                      02966 ;-----------------------------------
                      02967 ;-----------    HOME SCORE      ---------
                      02968 
005208 0E0A           02969         MOVLW   0X0A
00520A 635C           02970         CPFSEQ  HS_H
00520C EF0A F029      02971         GOTO    SHOW_HSH
005210 EF10 F029      02972         GOTO    SKIP_HSH
                      02973 
                      02974 
005214                02975 SHOW_HSH
005214 C15C F10E      02976         MOVFF   HS_H,CHAR
005218 0E01           02977         MOVLW   .1
00521A 6F12           02978         MOVWF   CURSORX
00521C EC5F F001      02979         CALL    DUMPDATA
005220                02980 SKIP_HSH
                      02981 
                      02982 
005220 0E0A           02983         MOVLW   0X0A
005222 635D           02984         CPFSEQ  HS_T
005224 EF16 F029      02985         GOTO    SHOW_HST
005228 EF1C F029      02986         GOTO    SKIP_HST
                      02987 
                      02988 
00522C                02989 SHOW_HST
00522C C15D F10E      02990         MOVFF   HS_T,CHAR
005230 0E06           02991         MOVLW   .6
005232 6F12           02992         MOVWF   CURSORX
005234 EC5F F001      02993         CALL    DUMPDATA
005238                02994 SKIP_HST
                      02995 
005238 0E0A           02996         MOVLW   0X0A
00523A 635E           02997         CPFSEQ  HS_O
00523C EF22 F029      02998         GOTO    SHOW_HSO
005240 EF28 F029      02999         GOTO    SKIP_HSO
MPASM  5.51           2X2P10SCOREBOARD32K.ASM   4-20-2020  11:34:52         PAGE 61


LOC  OBJECT CODE     LINE SOURCE TEXT
  VALUE

                      03000 
                      03001 
005244                03002 SHOW_HSO
005244 C15E F10E      03003         MOVFF   HS_O,CHAR
005248 0E0D           03004         MOVLW   .13
00524A 6F12           03005         MOVWF   CURSORX
00524C EC5F F001      03006         CALL    DUMPDATA
005250                03007 SKIP_HSO
                      03008 ;--------------------------------------
                      03009 
005250 EC2B F029      03010         CALL    TRNSDATA_CPU2GPU
Warning[203]: Found opcode in column 1. (RETURN)
005254 0012           03011 RETURN
                      03012 ;==========================================================
                      03013 
005256                03014 TRNSDATA_CPU2GPU
005256 B1A8           03015         BTFSC   HEADERBIT,0
005258 EF52 F029      03016         GOTO    END_TRD
                      03017 
00525C 9EF2           03018         BCF             INTCON,7
00525E C170 F16C      03019         MOVFF   GPU_REG+00,W_TEMP
005262 0EAA           03020         MOVLW   0XAA
005264 636C           03021         CPFSEQ  W_TEMP
005266 EF52 F029      03022         GOTO    END_TRD
                      03023 
00526A C171 F16C      03024         MOVFF   GPU_REG+01,W_TEMP
00526E 0E55           03025         MOVLW   0X55
005270 636C           03026         CPFSEQ  W_TEMP
005272 EF52 F029      03027         GOTO    END_TRD
                      03028 
005276 C186 F16C      03029         MOVFF   GPU_REG+16,W_TEMP
00527A 0EAB           03030         MOVLW   0XAB
00527C 636C           03031         CPFSEQ  W_TEMP
00527E EF52 F029      03032         GOTO    END_TRD
                      03033 
005282 0E14           03034         MOVLW   .20
005284 6FA4           03035         MOVWF   GPR_LOOP
                      03036 
005286 0E01           03037         MOVLW   0X01
005288 6EEA           03038         MOVWF   FSR0H
                      03039         
00528A 0E52           03040         MOVLW   0X52
00528C 6EE9           03041         MOVWF   FSR0L
                      03042 
00528E 0E01           03043         MOVLW   0X01
005290 6EE2           03044         MOVWF   FSR1H
                      03045         
005292 0E72           03046         MOVLW   0X72
005294 6EE1           03047         MOVWF   FSR1L
                      03048 
                      03049 
005296                03050 TDCG0
005296 CFE7 FFEF      03051         MOVFF   INDF1,INDF0
MPASM  5.51           2X2P10SCOREBOARD32K.ASM   4-20-2020  11:34:52         PAGE 62


LOC  OBJECT CODE     LINE SOURCE TEXT
  VALUE

                      03052 
00529A 2AE9           03053         INCF    FSR0L
00529C 2AE1           03054         INCF    FSR1L
00529E 2FA4           03055         DECFSZ  GPR_LOOP,F
0052A0 EF4B F029      03056         GOTO    TDCG0
                      03057 
0052A4                03058 END_TRD 
                      03059 
Warning[203]: Found opcode in column 1. (BSF)
0052A4 8EF2           03060 BSF             INTCON,7
                      03061         
Warning[203]: Found opcode in column 1. (RETURN)
0052A6 0012           03062 RETURN  
                      03063 
                      03064 
                      03065 
0052A8                03066 INTERRUPT:
                      03067 ;================== INIT INT ==============================
                      03068 ;INITIALIZE     INTERRUPT
0052A8 CFD8 F16D      03069                 MOVFF   STATUS,STATUS_TEMP      ;SAVE STATUS REGISTER
0052AC CFE8 F11A      03070                 MOVFF   WREG,WREG_TEMP          ;SAVE WORKING REGISTER
0052B0 CFE0 F16E      03071                 MOVFF   BSR,BSR_TEMP            ;SAVE BSR REGISTER
                      03072 ;==========================================================
                      03073         
                      03074 
0052B4 9EF2           03075         BCF             INTCON,7
0052B6 AA9E           03076         BTFSS   PIR1,5
0052B8 EF82 F029      03077         GOTO    END_INT
                      03078 
0052BC 2AD9           03079         INCF    FSR2L
                      03080 
0052BE B1A8           03081         BTFSC   HEADERBIT,0
0052C0 EF72 F029      03082         GOTO    BUS_STARTED
                      03083 
0052C4 CFAE F1A5      03084         MOVFF   RCREG,GPREG_TEMP
0052C8 9A9E           03085         BCF             PIR1,5
                      03086         
0052CA 0EAA           03087         MOVLW   0XAA    ;HEADER
0052CC 63A5           03088         CPFSEQ  GPREG_TEMP
0052CE EF82 F029      03089         GOTO    END_INT
                      03090 
                      03091         
                      03092 
0052D2 81A8           03093         BSF             HEADERBIT,0
                      03094 
0052D4 0E01           03095         MOVLW   0X01            ;TEMP_RAM
0052D6 6EDA           03096         MOVWF   FSR2H
                      03097         
0052D8 0E70           03098         MOVLW   0X70
0052DA 6ED9           03099         MOVWF   FSR2L
                      03100 
0052DC C1A5 FFDF      03101         MOVFF   GPREG_TEMP,INDF2
0052E0 EF82 F029      03102         GOTO    END_INT
MPASM  5.51           2X2P10SCOREBOARD32K.ASM   4-20-2020  11:34:52         PAGE 63


LOC  OBJECT CODE     LINE SOURCE TEXT
  VALUE

                      03103 
0052E4                03104 BUS_STARTED
0052E4 CFAE F1A5      03105         MOVFF   RCREG,GPREG_TEMP
0052E8 9A9E           03106         BCF             PIR1,5
                      03107 
                      03108         
0052EA 0EAB           03109         MOVLW   0XAB
0052EC 63A5           03110         CPFSEQ  GPREG_TEMP
0052EE EF80 F029      03111         GOTO    BUS_IN
                      03112 
0052F2 0EAB           03113         MOVLW   0XAB
0052F4 CFE8 FFDF      03114         MOVFF   WREG,INDF2
0052F8 81A9           03115         BSF             FOOTERBIT,0
0052FA 91A8           03116         BCF             HEADERBIT,0
                      03117 
                      03118 
0052FC EF82 F029      03119         GOTO    END_INT
                      03120 
005300                03121 BUS_IN
005300 C1A5 FFDF      03122         MOVFF   GPREG_TEMP,INDF2
                      03123 
                      03124 
005304                03125 END_INT
005304 8EF2           03126         BSF             INTCON,7
                      03127 
                      03128 
                      03129 ;================== PRERET INT ============================
                      03130 ;PREPARE TO RETURN
005306 C16D FFD8      03131         MOVFF   STATUS_TEMP,STATUS      ;RESTORE STATUS REGISTER
00530A C11A FFE8      03132         MOVFF   WREG_TEMP,WREG          ;RESTORE WORKING REGISTER
00530E C16E FFE0      03133         MOVFF   BSR_TEMP,BSR            ;RESTORE BSR REGISTER
005312 CFE0 F16E      03134         MOVFF   BSR,BSR_TEMP            ;SAVE BSR REGISTER
                      03135 ;==========================================================
                      03136 
Warning[203]: Found opcode in column 1. (RETFIE)
005316 0010           03137 RETFIE
                      03138 
                      03139 
                      03140 
                      03141 
                      03142 
                      03143 
                      03144 
                      03145 
                      03146 ;=======================        DISPLAY_LOGO    ===========================
005318                03147 DISPLAY_LOGO
                      03148 
005318 0E00           03149         MOVLW   0X00
00531A 6F0D           03150         MOVWF   LINESCAN
                      03151 ;CALL   CLR_DRAM
00531C EC2B F029      03152         CALL    TRNSDATA_CPU2GPU
Warning[203]: Found opcode in column 1. (CALL)
005320 ECDD F029      03153 CALL    COMMAND_LOGO
MPASM  5.51           2X2P10SCOREBOARD32K.ASM   4-20-2020  11:34:52         PAGE 64


LOC  OBJECT CODE     LINE SOURCE TEXT
  VALUE

                      03154 
                      03155 
005324 0E98           03156         MOVLW   0X98
005326 6F11           03157         MOVWF   REG_STPT
                      03158 
005328 EC20 F001      03159         CALL    DATAREG
00532C 9E8C           03160         OE_OFF
00532E 8A8C           03161         LAT_ON
005330 9A8C           03162         LAT_OFF
                      03163 
005332 C1AC FFE8      03164         MOVFF   LOGO_DELAY,WREG
005336 ECA2 F000      03165         CALL    DELAY_MS
                      03166 
00533A 908C           03167         A_0
00533C 928C           03168         B_0
00533E 8E8C           03169         OE_ON
                      03170 
                      03171 
005340 0E04           03172         MOVLW   0X04
005342 6F0D           03173         MOVWF   LINESCAN
                      03174 ;CALL   CLR_DRAM
005344 EC2B F029      03175         CALL    TRNSDATA_CPU2GPU
Warning[203]: Found opcode in column 1. (CALL)
005348 ECDD F029      03176 CALL    COMMAND_LOGO
                      03177 
00534C 0E90           03178         MOVLW   0X90
00534E 6F11           03179         MOVWF   REG_STPT
                      03180 
005350 EC20 F001      03181         CALL    DATAREG
005354 9E8C           03182         OE_OFF
005356 8A8C           03183         LAT_ON
005358 9A8C           03184         LAT_OFF
                      03185 
00535A C1AC FFE8      03186         MOVFF   LOGO_DELAY,WREG
00535E ECA2 F000      03187         CALL    DELAY_MS
                      03188 
005362 808C           03189         A_1
005364 928C           03190         B_0
005366 8E8C           03191         OE_ON
                      03192 
                      03193 
005368 0E06           03194         MOVLW   0X06
00536A 6F0D           03195         MOVWF   LINESCAN
                      03196 ;CALL   CLR_DRAM
00536C EC2B F029      03197         CALL    TRNSDATA_CPU2GPU
Warning[203]: Found opcode in column 1. (CALL)
005370 ECDD F029      03198 CALL    COMMAND_LOGO
                      03199 
005374 0E88           03200         MOVLW   0X88
005376 6F11           03201         MOVWF   REG_STPT
                      03202 
005378 EC20 F001      03203         CALL    DATAREG
00537C 9E8C           03204         OE_OFF
MPASM  5.51           2X2P10SCOREBOARD32K.ASM   4-20-2020  11:34:52         PAGE 65


LOC  OBJECT CODE     LINE SOURCE TEXT
  VALUE

00537E 8A8C           03205         LAT_ON
005380 9A8C           03206         LAT_OFF
                      03207 
005382 C1AC FFE8      03208         MOVFF   LOGO_DELAY,WREG
005386 ECA2 F000      03209         CALL    DELAY_MS
                      03210 
00538A 908C           03211         A_0
00538C 828C           03212         B_1
00538E 8E8C           03213         OE_ON
                      03214 
                      03215 
                      03216 
005390 0E0C           03217         MOVLW   0X0C
005392 6F0D           03218         MOVWF   LINESCAN
                      03219 ;CALL   CLR_DRAM
Warning[203]: Found opcode in column 1. (CALL)
005394 EC2B F029      03220 CALL    TRNSDATA_CPU2GPU
Warning[203]: Found opcode in column 1. (CALL)
005398 ECDD F029      03221 CALL    COMMAND_LOGO
                      03222 
00539C 0E80           03223         MOVLW   0X80
00539E 6F11           03224         MOVWF   REG_STPT
                      03225 
0053A0 EC20 F001      03226         CALL    DATAREG
0053A4 9E8C           03227         OE_OFF
0053A6 8A8C           03228         LAT_ON
0053A8 9A8C           03229         LAT_OFF
                      03230 
0053AA C1AC FFE8      03231         MOVFF   LOGO_DELAY,WREG
0053AE ECA2 F000      03232         CALL    DELAY_MS
                      03233 
                      03234 
0053B2 808C           03235         A_1
0053B4 828C           03236         B_1
0053B6 8E8C           03237         OE_ON
                      03238 
                      03239 
                      03240 
Warning[203]: Found opcode in column 1. (RETURN)
0053B8 0012           03241 RETURN
                      03242 ;============================================================== 
                      03243 
                      03244 
                      03245 ;=======================        COMMANDS LOGO   ===================
0053BA                03246 COMMAND_LOGO
0053BA 0102           03247         MOVLB   0X02
                      03248 
                      03249 ;--------------   01   ----------------
0053BC 0EF8           03250         MOVLW   B'11111000'
0053BE 6F79           03251         MOVWF   DRAM+79
0053C0 6F71           03252         MOVWF   DRAM+71
0053C2 6F69           03253         MOVWF   DRAM+69
0053C4 6F61           03254         MOVWF   DRAM+61
MPASM  5.51           2X2P10SCOREBOARD32K.ASM   4-20-2020  11:34:52         PAGE 66


LOC  OBJECT CODE     LINE SOURCE TEXT
  VALUE

0053C6 6F59           03255         MOVWF   DRAM+59
0053C8 6F51           03256         MOVWF   DRAM+51
0053CA 6F49           03257         MOVWF   DRAM+49
0053CC 0EFC           03258         MOVLW   B'11111100'     
0053CE 6F41           03259         MOVWF   DRAM+41
0053D0 0EFE           03260         MOVLW   B'11111110'
0053D2 6F39           03261         MOVWF   DRAM+39
0053D4 0EFF           03262         MOVLW   B'11111111'
0053D6 6F31           03263         MOVWF   DRAM+31
                      03264 
                      03265 ;--------------------------------------
                      03266 
                      03267 ;--------------   02   ----------------
0053D8 0EF8           03268         MOVLW   B'11111000'
0053DA 6F7A           03269         MOVWF   DRAM+7A
0053DC 0E7F           03270         MOVLW   B'01111111'
0053DE 6F4A           03271         MOVWF   DRAM+4A
0053E0 0E00           03272         MOVLW   B'00000000'
0053E2 6F42           03273         MOVWF   DRAM+42
0053E4 0E00           03274         MOVLW   B'00000000'
0053E6 6F3A           03275         MOVWF   DRAM+3A
0053E8 0E00           03276         MOVLW   B'00000000'
0053EA 6F32           03277         MOVWF   DRAM+32
                      03278 
                      03279 ;--------------------------------------
                      03280 
                      03281 ;--------------   03   ----------------
0053EC 0E00           03282         MOVLW   B'00000000'
0053EE 6F7B           03283         MOVWF   DRAM+7B
                      03284         
0053F0 0EFE           03285         MOVLW   B'11111110'
0053F2 6F63           03286         MOVWF   DRAM+63
0053F4 0EFC           03287         MOVLW   B'11111100'
0053F6 6F5B           03288         MOVWF   DRAM+5B
0053F8 0EF8           03289         MOVLW   B'11111000'
0053FA 6F53           03290         MOVWF   DRAM+53
0053FC 0EF1           03291         MOVLW   B'11110001'
0053FE 6F4B           03292         MOVWF   DRAM+4B
005400 0E03           03293         MOVLW   B'00000011'
005402 6F43           03294         MOVWF   DRAM+43
005404 0E06           03295         MOVLW   B'00000110'
005406 6F3B           03296         MOVWF   DRAM+3B
005408 0E0C           03297         MOVLW   B'00001100'
00540A 6F33           03298         MOVWF   DRAM+33
00540C 0EF8           03299         MOVLW   B'11111000'
00540E 6F2B           03300         MOVWF   DRAM+2B
005410 0EF1           03301         MOVLW   B'11110001'
005412 6F23           03302         MOVWF   DRAM+23
                      03303 
                      03304 ;--------------------------------------
                      03305 
                      03306 ;--------------   04   ----------------
005414 0E00           03307         MOVLW   B'00000000'
MPASM  5.51           2X2P10SCOREBOARD32K.ASM   4-20-2020  11:34:52         PAGE 67


LOC  OBJECT CODE     LINE SOURCE TEXT
  VALUE

005416 6F7C           03308         MOVWF   DRAM+7C
005418 6F3C           03309         MOVWF   DRAM+3C
00541A 6F34           03310         MOVWF   DRAM+34
00541C 6F44           03311         MOVWF   DRAM+44
                      03312 
00541E 0E8F           03313         MOVLW   B'10001111'
005420 6F74           03314         MOVWF   DRAM+74
005422 0E1F           03315         MOVLW   B'00011111'
005424 6F6C           03316         MOVWF   DRAM+6C
005426 0E3F           03317         MOVLW   B'00111111'
005428 6F64           03318         MOVWF   DRAM+64
00542A 0E63           03319         MOVLW   B'01100011'
00542C 6F5C           03320         MOVWF   DRAM+5C
00542E 0EC7           03321         MOVLW   B'11000111'
005430 6F54           03322         MOVWF   DRAM+54
005432 0E8F           03323         MOVLW   B'10001111'
005434 6F4C           03324         MOVWF   DRAM+4C
                      03325 ;--------------------------------------
                      03326 
                      03327 ;--------------   05   ----------------
005436 0E0F           03328         MOVLW   B'00001111'
005438 6F7D           03329         MOVWF   DRAM+7D
00543A 0EFF           03330         MOVLW   B'11111111'
00543C 6F6D           03331         MOVWF   DRAM+6D
00543E 0EFF           03332         MOVLW   B'11111111'
005440 6F65           03333         MOVWF   DRAM+65
005442 0EFF           03334         MOVLW   B'11111111'
005444 6F5D           03335         MOVWF   DRAM+5D
005446 0EFE           03336         MOVLW   B'11111110'
005448 6F55           03337         MOVWF   DRAM+55
00544A 0EFC           03338         MOVLW   B'11111100'
00544C 6F4D           03339         MOVWF   DRAM+4D
00544E 0E00           03340         MOVLW   B'00000000'
005450 6F45           03341         MOVWF   DRAM+45
005452 0E01           03342         MOVLW   B'00000001'
005454 6F3D           03343         MOVWF   DRAM+3D
005456 0E03           03344         MOVLW   B'000000011'
005458 6F35           03345         MOVWF   DRAM+35
                      03346 ;--------------------------------------
                      03347 
                      03348 ;--------------   06   ----------------
00545A 0EF1           03349         MOVLW   B'11110001'
00545C 6F7E           03350         MOVWF   DRAM+7E
00545E 0EE3           03351         MOVLW   B'11100011'
005460 6F76           03352         MOVWF   DRAM+76
005462 0EC7           03353         MOVLW   B'11000111'
005464 6F6E           03354         MOVWF   DRAM+6E
005466 0E8F           03355         MOVLW   B'10001111'
005468 6F66           03356         MOVWF   DRAM+66
00546A 0E1F           03357         MOVLW   B'00011111'
00546C 6F5E           03358         MOVWF   DRAM+5E
00546E 0E3F           03359         MOVLW   B'00111111'
005470 6F56           03360         MOVWF   DRAM+56
MPASM  5.51           2X2P10SCOREBOARD32K.ASM   4-20-2020  11:34:52         PAGE 68


LOC  OBJECT CODE     LINE SOURCE TEXT
  VALUE

005472 0E7F           03361         MOVLW   B'01111111'
005474 6F4E           03362         MOVWF   DRAM+4E
                      03363 ;--------------------------------------
                      03364 
                      03365 ;--------------   11   ----------------
005476 0EFE           03366         MOVLW   B'11111110'
005478 6F91           03367         MOVWF   DRAM+91
00547A 0EFC           03368         MOVLW   B'11111100'
00547C 6F89           03369         MOVWF   DRAM+89
00547E 0EF8           03370         MOVLW   B'11111000'
005480 6F81           03371         MOVWF   DRAM+81
                      03372 
                      03373 
                      03374 ;--------------------------------------
                      03375 
                      03376 
                      03377 ;--------------   12   ----------------
005482 0EFE           03378         MOVLW   B'11111110'
005484 6FD2           03379         MOVWF   DRAM+0XD2
005486 0EFC           03380         MOVLW   B'11111100'
005488 6FCA           03381         MOVWF   DRAM+0XCA
00548A 0EF8           03382         MOVLW   B'11111000'
00548C 6FC2           03383         MOVWF   DRAM+0XC2
00548E 0EF1           03384         MOVLW   B'11110001'
005490 6FBA           03385         MOVWF   DRAM+0XBA
005492 0EE3           03386         MOVLW   B'11100011'
005494 6FB2           03387         MOVWF   DRAM+0XB2
005496 0EC7           03388         MOVLW   B'11000111'
005498 6FAA           03389         MOVWF   DRAM+0XAA
00549A 0E8F           03390         MOVLW   B'10001111'
00549C 6FA2           03391         MOVWF   DRAM+0XA2
00549E 0E1F           03392         MOVLW   B'00011111'
0054A0 6F9A           03393         MOVWF   DRAM+9A
0054A2 0E3F           03394         MOVLW   B'00111111'     
0054A4 6F92           03395         MOVWF   DRAM+92
0054A6 0E7E           03396         MOVLW   B'01111110'
0054A8 6F8A           03397         MOVWF   DRAM+8A
0054AA 0EFC           03398         MOVLW   B'11111100'
0054AC 6F82           03399         MOVWF   DRAM+82
                      03400 ;--------------------------------------
                      03401 
                      03402 ;--------------   13   ----------------
0054AE 0EC0           03403         MOVLW   B'11000000'
0054B0 6FE3           03404         MOVWF   DRAM+0XE3
0054B2 0E00           03405         MOVLW   B'00000000'
0054B4 6FDB           03406         MOVWF   DRAM+0XDB
0054B6 6F83           03407         MOVWF   DRAM+83
0054B8 6F8B           03408         MOVWF   DRAM+8B
0054BA 0E00           03409         MOVLW   B'00000000'
0054BC 6FD3           03410         MOVWF   DRAM+0XD3
0054BE 0E7F           03411         MOVLW   B'01111111'
0054C0 6FCB           03412         MOVWF   DRAM+0XCB
                      03413 ;--------------------------------------
MPASM  5.51           2X2P10SCOREBOARD32K.ASM   4-20-2020  11:34:52         PAGE 69


LOC  OBJECT CODE     LINE SOURCE TEXT
  VALUE

                      03414 
                      03415 ;--------------   14   ----------------
0054C2 0E00           03416         MOVLW   B'00000000'
0054C4 6FE4           03417         MOVWF   DRAM+0XE4
0054C6 6FDC           03418         MOVWF   DRAM+0XDC
0054C8 6F84           03419         MOVWF   DRAM+84
                      03420 
0054CA 0E00           03421         MOVLW   B'00000000'
0054CC 6FD4           03422         MOVWF   DRAM+0XD4
0054CE 0EFE           03423         MOVLW   B'11111110'
0054D0 6FAC           03424         MOVWF   DRAM+0XAC
0054D2 0EFC           03425         MOVLW   B'11111100'
0054D4 6FCC           03426         MOVWF   DRAM+0XCC
0054D6 6FA4           03427         MOVWF   DRAM+0XA4
0054D8 0EF8           03428         MOVLW   B'11111000'
0054DA 6FC4           03429         MOVWF   DRAM+0XC4
0054DC 6F9C           03430         MOVWF   DRAM+9C
0054DE 0EF1           03431         MOVLW   B'11110001'
0054E0 6FBC           03432         MOVWF   DRAM+0XBC
0054E2 6F94           03433         MOVWF   DRAM+94
0054E4 0EE3           03434         MOVLW   B'11100011'
0054E6 6FB4           03435         MOVWF   DRAM+0XB4
0054E8 0E00           03436         MOVLW   B'00000000'
0054EA 6F8C           03437         MOVWF   DRAM+8C
                      03438 ;--------------------------------------
                      03439 
                      03440 ;--------------   15   ----------------
0054EC 0EE3           03441         MOVLW   B'11100011'
0054EE 6FF5           03442         MOVWF   DRAM+0XF5
0054F0 0EC7           03443         MOVLW   B'11000111'
0054F2 6FED           03444         MOVWF   DRAM+0XED
0054F4 0E0C           03445         MOVLW   B'00001100'
0054F6 6FE5           03446         MOVWF   DRAM+0XE5
0054F8 0E18           03447         MOVLW   B'00011000'
0054FA 6FDD           03448         MOVWF   DRAM+0XDD
0054FC 0E30           03449         MOVLW   B'00110000'
0054FE 6FD5           03450         MOVWF   DRAM+0XD5
005500 0E63           03451         MOVLW   B'01100011'
005502 6FCD           03452         MOVWF   DRAM+0XCD
005504 0EC7           03453         MOVLW   B'11000111'
005506 6FC5           03454         MOVWF   DRAM+0XC5
005508 0E8F           03455         MOVLW   B'10001111'
00550A 6FBD           03456         MOVWF   DRAM+0XBD
00550C 0E1F           03457         MOVLW   B'00011111'
00550E 6FB5           03458         MOVWF   DRAM+0XB5
005510 0E03           03459         MOVLW   B'00000011'
005512 6F8D           03460         MOVWF   DRAM+8D
005514 0E07           03461         MOVLW   B'00000111'
005516 6F85           03462         MOVWF   DRAM+85
005518 0E3F           03463         MOVLW   B'00111111'
00551A 6FAD           03464         MOVWF   DRAM+0XAD
00551C 0E7F           03465         MOVLW   B'01111111'
00551E 6FA5           03466         MOVWF   DRAM+0XA5
MPASM  5.51           2X2P10SCOREBOARD32K.ASM   4-20-2020  11:34:52         PAGE 70


LOC  OBJECT CODE     LINE SOURCE TEXT
  VALUE

                      03467 ;--------------------------------------
                      03468 
                      03469 ;--------------   16   ----------------
005520 0E07           03470         MOVLW   B'00000111'
005522 6FE6           03471         MOVWF   DRAM+0XE6
005524 0E03           03472         MOVLW   B'00000011'
005526 6FDE           03473         MOVWF   DRAM+0XDE
005528 0E01           03474         MOVLW   B'00000001'
00552A 6FD6           03475         MOVWF   DRAM+0XD6
00552C 0EF0           03476         MOVLW   B'11110000'
00552E 6FCE           03477         MOVWF   DRAM+0XCE
005530 0EF8           03478         MOVLW   B'11111000'
005532 6FC6           03479         MOVWF   DRAM+0XC6
005534 6FBE           03480         MOVWF   DRAM+0XBE
005536 6FB6           03481         MOVWF   DRAM+0XB6
005538 6FAE           03482         MOVWF   DRAM+0XAE
00553A 6FA6           03483         MOVWF   DRAM+0XA6
00553C 6F9E           03484         MOVWF   DRAM+9E
00553E 6F96           03485         MOVWF   DRAM+96
005540 6F8E           03486         MOVWF   DRAM+8E
005542 6F86           03487         MOVWF   DRAM+86
                      03488 
                      03489 
                      03490 ;--------------------------------------
                      03491 
005544 0101           03492         MOVLB   0X01
                      03493 
                      03494 
                      03495 
Warning[203]: Found opcode in column 1. (RETURN)
005546 0012           03496 RETURN
                      03497 
                      03498 ;=====================================================
                      03499 
                      03500 
                      03501 
005548                03502 DISP_LOGO
Warning[203]: Found opcode in column 1. (MOVLW)
005548 0E09           03503 MOVLW   .9
Warning[203]: Found opcode in column 1. (MOVWF)
00554A 6FAC           03504 MOVWF   LOGO_DELAY
                      03505 
Warning[203]: Found opcode in column 1. (MOVLW)
00554C 0E08           03506 MOVLW   .8
Warning[203]: Found opcode in column 1. (MOVWF)
00554E 6FAB           03507 MOVWF   LOGO_LOOP1
                      03508 
005550                03509 DISPLOGO0
Warning[203]: Found opcode in column 1. (MOVLW)
005550 0E0A           03510 MOVLW   .10
Warning[203]: Found opcode in column 1. (MOVWF)
005552 6FAA           03511 MOVWF   LOGO_LOOP0
Warning[203]: Found opcode in column 1. (DECF)
MPASM  5.51           2X2P10SCOREBOARD32K.ASM   4-20-2020  11:34:52         PAGE 71


LOC  OBJECT CODE     LINE SOURCE TEXT
  VALUE

005554 07AC           03512 DECF    LOGO_DELAY
005556                03513 DISPLOGO1
Warning[203]: Found opcode in column 1. (CALL)
005556 EC8C F029      03514 CALL    DISPLAY_LOGO
Warning[203]: Found opcode in column 1. (DECFSZ)
00555A 2FAA           03515 DECFSZ  LOGO_LOOP0,F
Warning[203]: Found opcode in column 1. (GOTO)
00555C EFAB F02A      03516 GOTO    DISPLOGO1
                      03517 
Warning[203]: Found opcode in column 1. (DECFSZ)
005560 2FAB           03518 DECFSZ  LOGO_LOOP1,F
Warning[203]: Found opcode in column 1. (GOTO)
005562 EFA8 F02A      03519 GOTO    DISPLOGO0
                      03520 
                      03521 
                      03522 
Warning[203]: Found opcode in column 1. (MOVLW)
005566 0E08           03523 MOVLW   .8
Warning[203]: Found opcode in column 1. (MOVWF)
005568 6FAB           03524 MOVWF   LOGO_LOOP1
                      03525 
00556A                03526 DISPLOGO2
Warning[203]: Found opcode in column 1. (MOVLW)
00556A 0E0A           03527 MOVLW   .10
Warning[203]: Found opcode in column 1. (MOVWF)
00556C 6FAA           03528 MOVWF   LOGO_LOOP0
00556E                03529 DISPLOGO3
Warning[203]: Found opcode in column 1. (CALL)
00556E EC8C F029      03530 CALL    DISPLAY_LOGO
Warning[203]: Found opcode in column 1. (DECFSZ)
005572 2FAA           03531 DECFSZ  LOGO_LOOP0,F
Warning[203]: Found opcode in column 1. (GOTO)
005574 EFB7 F02A      03532 GOTO    DISPLOGO3
                      03533 
Warning[203]: Found opcode in column 1. (DECFSZ)
005578 2FAB           03534 DECFSZ  LOGO_LOOP1,F
Warning[203]: Found opcode in column 1. (GOTO)
00557A EFB5 F02A      03535 GOTO    DISPLOGO2
                      03536 
                      03537 
                      03538 
                      03539 
Warning[203]: Found opcode in column 1. (MOVLW)
00557E 0E08           03540 MOVLW   .8
Warning[203]: Found opcode in column 1. (MOVWF)
005580 6FAB           03541 MOVWF   LOGO_LOOP1
                      03542 
005582                03543 DISPLOGO4
Warning[203]: Found opcode in column 1. (MOVLW)
005582 0E0A           03544 MOVLW   .10
Warning[203]: Found opcode in column 1. (MOVWF)
005584 6FAA           03545 MOVWF   LOGO_LOOP0
Warning[203]: Found opcode in column 1. (INCF)
MPASM  5.51           2X2P10SCOREBOARD32K.ASM   4-20-2020  11:34:52         PAGE 72


LOC  OBJECT CODE     LINE SOURCE TEXT
  VALUE

005586 2BAC           03546 INCF    LOGO_DELAY
005588                03547 DISPLOGO5
Warning[203]: Found opcode in column 1. (CALL)
005588 EC8C F029      03548 CALL    DISPLAY_LOGO
Warning[203]: Found opcode in column 1. (DECFSZ)
00558C 2FAA           03549 DECFSZ  LOGO_LOOP0,F
Warning[203]: Found opcode in column 1. (GOTO)
00558E EFC4 F02A      03550 GOTO    DISPLOGO5
                      03551 
Warning[203]: Found opcode in column 1. (DECFSZ)
005592 2FAB           03552 DECFSZ  LOGO_LOOP1,F
Warning[203]: Found opcode in column 1. (GOTO)
005594 EFC1 F02A      03553 GOTO    DISPLOGO4
                      03554 
                      03555 
                      03556 
Warning[203]: Found opcode in column 1. (RETURN)
005598 0012           03557 RETURN
                      03558 
                      03559 
                      03560 
                      03561 
                      03562 
                      03563 
                      03564 
                      03565 
Warning[205]: Found directive in column 1. (END)
                      03566 END
MPASM  5.51           2X2P10SCOREBOARD32K.ASM   4-20-2020  11:34:52         PAGE 73


SYMBOL TABLE
  LABEL                             VALUE 

A                                 00000000
ABDEN                             00000000
ABDOVF                            00000007
ACCESS                            00000000
ACKDT                             00000005
ACKEN                             00000004
ACKSTAT                           00000006
ACQT0                             00000003
ACQT1                             00000004
ACQT2                             00000005
ADCON0                            00000FC2
ADCON1                            00000FC1
ADCON2                            00000FC0
ADCS0                             00000000
ADCS1                             00000001
ADCS2                             00000002
ADDEN                             00000003
ADDFONT                           00000300
ADEN                              00000003
ADFM                              00000007
ADIE                              00000006
ADIF                              00000006
ADIP                              00000006
ADJ_CURSORX                       000003F0
ADJ_CURSORY                       00000556
ADON                              00000000
ADRES                             00000FC3
ADRESH                            00000FC4
ADRESL                            00000FC3
AN10                              00000001
AN11                              00000004
AN12                              00000000
AN4                               00000005
AN5                               00000000
AN6                               00000001
AN7                               00000002
AN8                               00000002
AN9                               00000003
A_0                               BCF     LATD,0,0
A_1                               BSF     LATD,0,0
BANKED                            00000001
BAUDCON                           00000FB8
BAUDCTL                           00000FB8
BCLIE                             00000003
BCLIF                             00000003
BCLIP                             00000003
BF                                00000000
BGST                              00000005
BOR                               00000000
BRG16                             00000003
BRGH                              00000002
BSR                               00000FE0
BSR_TEMP                          0000016E
MPASM  5.51           2X2P10SCOREBOARD32K.ASM   4-20-2020  11:34:52         PAGE 74


SYMBOL TABLE
  LABEL                             VALUE 

BTCOUNT                           0000010A
BUS_IN                            00005300
BUS_STARTED                       000052E4
BYTECOUNT                         00000107
B_0                               BCF LATD,1,0
B_1                               BSF     LATD,1,0
C                                 00000000
C1INV                             00000004
C1OUT                             00000006
C2INV                             00000005
C2OUT                             00000007
CCP1                              00000002
CCP1CON                           00000FBD
CCP1IE                            00000002
CCP1IF                            00000002
CCP1IP                            00000002
CCP1M0                            00000000
CCP1M1                            00000001
CCP1M2                            00000002
CCP1M3                            00000003
CCP1X                             00000005
CCP1Y                             00000004
CCP2CON                           00000FBA
CCP2IE                            00000000
CCP2IF                            00000000
CCP2IP                            00000000
CCP2M0                            00000000
CCP2M1                            00000001
CCP2M2                            00000002
CCP2M3                            00000003
CCP2X                             00000005
CCP2Y                             00000004
CCP2_PORTB                        00000003
CCP2_PORTC                        00000001
CCPR1                             00000FBE
CCPR1H                            00000FBF
CCPR1L                            00000FBE
CCPR2                             00000FBB
CCPR2H                            00000FBC
CCPR2L                            00000FBB
CFGS                              00000006
CHAR                              0000010E
CHS0                              00000002
CHS1                              00000003
CHS2                              00000004
CHS3                              00000005
CIS                               00000003
CK                                00000006
CKE                               00000006
CKP                               00000004
CLK_OFF                           BCF     LATD,6,0
CLK_ON                            BSF     LATD,6,0
CLR_DRAM                          00000172
MPASM  5.51           2X2P10SCOREBOARD32K.ASM   4-20-2020  11:34:52         PAGE 75


SYMBOL TABLE
  LABEL                             VALUE 

CLR_DRAM0                         00000182
CLR_TEMPRAM                       00000190
CLR_TRAM0                         000001A0
CM0                               00000000
CM1                               00000001
CM2                               00000002
CMCON                             00000FB4
CMD_BUZZOFF                       0000500E
CMD_BUZZON                        00005014
CMD_ST                            00005016
CMIE                              00000006
CMIF                              00000006
CMIP                              00000006
COMMAND                           00005000
COMMAND_LOGO                      000053BA
COUNT0                            00000118
COUNT1                            00000119
CPB_ON_5H                         00000000
CPD_ON_5H                         00000000
CREN                              00000004
CS                                00000002
CSRC                              00000007
CSRX_GTEQ16                       00000430
CSRX_GTEQ24                       00000452
CSRX_GTEQ32                       00000474
CSRX_GTEQ40                       00000496
CSRX_GTEQ48                       000004B8
CSRX_GTEQ56                       000004DA
CSRX_GTEQ8                        0000040E
CSRX_LTEQ16                       0000041E
CSRX_LTEQ24                       00000440
CSRX_LTEQ32                       00000462
CSRX_LTEQ40                       00000484
CSRX_LTEQ48                       000004A6
CSRX_LTEQ56                       000004C8
CSRX_LTEQ8                        00000400
CSRY_NEQ0                         00000568
CSRY_NEQ0_ST                      00000564
CURSORX                           00000112
CURSORX_TEMP                      00000115
CURSORY                           00000113
CURSORY_TEMP                      00000114
CVR0                              00000000
CVR1                              00000001
CVR2                              00000002
CVR3                              00000003
CVRCON                            00000FB5
CVREN                             00000007
CVROE                             00000006
CVRR                              00000005
CVRSS                             00000004
D                                 00000005
DATAHOLD                          0000010C
MPASM  5.51           2X2P10SCOREBOARD32K.ASM   4-20-2020  11:34:52         PAGE 76


SYMBOL TABLE
  LABEL                             VALUE 

DATAREG                           00000240
DATAREG_SUB                       00000272
DAT_0                             BCF     LATD,4,0
DAT_1                             BSF     LATD,4,0
DC                                00000001
DC1B0                             00000004
DC1B1                             00000005
DC2B0                             00000004
DC2B1                             00000005
DDRA                              TRISA
DDRB                              TRISB
DDRC                              TRISC
DDRD                              TRISD
DDRE                              TRISE
DELAYMS                           00000101
DELAYS                            00000104
DELAYUS                           00000100
DELAY_MS                          00000144
DELAY_ONEMS                       00000132
DELAY_ONESEC                      00000152
DELAY_SEC                         00000164
DELAY_US                          00000120
DISPLAY                           000001AE
DISPLAY_LOGO                      00005318
DISPLOGO0                         00005550
DISPLOGO1                         00005556
DISPLOGO2                         0000556A
DISPLOGO3                         0000556E
DISPLOGO4                         00005582
DISPLOGO5                         00005588
DISP_LOGO                         00005548
DMP0                              000002BE
DMPF0_0                           00001F18
DMPF0_1                           00001F24
DMPF1_0                           00001D18
DMPF1_1                           00001D24
DMPF2_0                           00001E18
DMPF2_1                           00001E24
DMP_F00                           0000032A
DMP_F10                           0000035E
DMP_F20                           00000392
DMP_FONT0                         0000031A
DMP_FONT1                         0000034E
DMP_FONT2                         00000382
DONE                              00000001
DRAM                              00000200
DREGCOUNT                         00000106
DTR0                              0000027A
DTR1                              00000282
DTR1_BIT0                         0000028E
DTR1_BIT1                         00000294
DTR2                              0000029C
DTR_ST1                           00000276
MPASM  5.51           2X2P10SCOREBOARD32K.ASM   4-20-2020  11:34:52         PAGE 77


SYMBOL TABLE
  LABEL                             VALUE 

DUMPDATA                          000002BE
DUMP_FONT0                        00001F00
DUMP_FONT01                       00001D00
DUMP_FONT02                       00001E00
D_A                               00000005
D_NOT_A                           00000005
EBTR0_ON_7L                       00000000
EBTR1_ON_7L                       00000000
EBTR2_ON_7L                       00000000
EBTR3_ON_7L                       00000000
ECCP1AS                           00000FB6
ECCPAS0                           00000004
ECCPAS1                           00000005
ECCPAS2                           00000006
ECCPASE                           00000007
EEADR                             00000FA9
EEADRH                            00000FAA
EECON1                            00000FA6
EECON2                            00000FA7
EEDATA                            00000FA8
EEIE                              00000004
EEIF                              00000004
EEIP                              00000004
EEPGD                             00000007
END_INT                           00005304
END_TRD                           000052A4
EXAMPLE                           00000000
FAST                              00000001
FERR                              00000002
FONT                              0000010F
FONT0_0                           00002000
FONT0_1                           00002100
FONT0_2                           00002200
FONT0_3                           00002300
FONT0_4                           00002400
FONT0_5                           00002500
FONT0_6                           00002600
FONT0_7                           00002700
FONT0_8                           00002800
FONT0_9                           00002900
FONT0_A                           00002A00
FONT1_0                           00002052
FONT1_1                           00002152
FONT1_10                          00003000
FONT1_11                          00003100
FONT1_12                          00003200
FONT1_2                           00002252
FONT1_3                           00002352
FONT1_4                           00002452
FONT1_5                           00002552
FONT1_6                           00002652
FONT1_7                           00002752
FONT1_8                           00002852
MPASM  5.51           2X2P10SCOREBOARD32K.ASM   4-20-2020  11:34:52         PAGE 78


SYMBOL TABLE
  LABEL                             VALUE 

FONT1_9                           00002952
FONT1_A                           00002A52
FONT1_B                           00002B00
FONT1_C                           00002C00
FONT1_D                           00002D00
FONT1_E                           00002E00
FONT1_F                           00002F00
FONT2_0                           00004000
FONT2_1                           00004100
FONT2_2                           00004200
FONT2_3                           00004300
FONT2_4                           00004400
FONT2_5                           00004500
FONT2_6                           00004600
FONT2_7                           00004700
FONT2_8                           00004800
FONT2_9                           00004900
FONT2_A                           00004A00
FONT2_B                           00004B00
FOOTER                            00000166
FOOTERBIT                         000001A9
FOUL_G                            00000163
FOUL_H                            00000162
FREE                              00000004
FSR0                              00000000
FSR0H                             00000FEA
FSR0L                             00000FE9
FSR1                              00000001
FSR1H                             00000FE2
FSR1L                             00000FE1
FSR2                              00000002
FSR2H                             00000FDA
FSR2L                             00000FD9
GCEN                              00000007
GIE                               00000007
GIEH                              00000007
GIEL                              00000006
GIE_GIEH                          00000007
GO                                00000001
GO_DONE                           00000001
GO_NOT_DONE                       00000001
GPREG_TEMP                        000001A5
GPR_LOOP                          000001A4
GPSTARTBIT                        000001A7
GPU_REG                           00000170
GP_COUNTER                        000001A6
GS_H                              0000015F
GS_O                              00000161
GS_T                              00000160
GTM_ONES                          00000156
GTM_TENS                          00000155
GTS_ONES                          00000158
GTS_TENS                          00000157
MPASM  5.51           2X2P10SCOREBOARD32K.ASM   4-20-2020  11:34:52         PAGE 79


SYMBOL TABLE
  LABEL                             VALUE 

GT_MSEC                           00000159
HEADER0                           00000150
HEADER1                           00000151
HEADERBIT                         000001A8
HEIGHT                            00000117
HLVDCON                           00000FD2
HLVDEN                            00000004
HLVDIE                            00000002
HLVDIF                            00000002
HLVDIN                            00000005
HLVDIP                            00000002
HLVDL0                            00000000
HLVDL1                            00000001
HLVDL2                            00000002
HLVDL3                            00000003
HS_H                              0000015C
HS_O                              0000015E
HS_T                              0000015D
IBF                               00000007
IBOV                              00000005
IDLEN                             00000007
INDF0                             00000FEF
INDF1                             00000FE7
INDF2                             00000FDF
INIT                              00000032
INT0                              00000000
INT0E                             00000004
INT0F                             00000001
INT0IE                            00000004
INT0IF                            00000001
INT1                              00000001
INT1E                             00000003
INT1F                             00000000
INT1IE                            00000003
INT1IF                            00000000
INT1IP                            00000006
INT1P                             00000006
INT2                              00000002
INT2E                             00000004
INT2F                             00000001
INT2IE                            00000004
INT2IF                            00000001
INT2IP                            00000007
INT2P                             00000007
INTCON                            00000FF2
INTCON2                           00000FF1
INTCON3                           00000FF0
INTEDG0                           00000006
INTEDG1                           00000005
INTEDG2                           00000004
INTERRUPT                         000052A8
INTSRC                            00000007
IOFS                              00000002
MPASM  5.51           2X2P10SCOREBOARD32K.ASM   4-20-2020  11:34:52         PAGE 80


SYMBOL TABLE
  LABEL                             VALUE 

IPEN                              00000007
IPR1                              00000F9F
IPR2                              00000FA2
IRCF0                             00000004
IRCF1                             00000005
IRCF2                             00000006
IRVST                             00000005
IVRST                             00000005
KBI0                              00000004
KBI1                              00000005
KBI2                              00000006
KBI3                              00000007
LATA                              00000F89
LATA0                             00000000
LATA1                             00000001
LATA2                             00000002
LATA3                             00000003
LATA4                             00000004
LATA5                             00000005
LATA6                             00000006
LATA7                             00000007
LATB                              00000F8A
LATB0                             00000000
LATB1                             00000001
LATB2                             00000002
LATB3                             00000003
LATB4                             00000004
LATB5                             00000005
LATB6                             00000006
LATB7                             00000007
LATC                              00000F8B
LATC0                             00000000
LATC1                             00000001
LATC2                             00000002
LATC3                             00000003
LATC4                             00000004
LATC5                             00000005
LATC6                             00000006
LATC7                             00000007
LATD                              00000F8C
LATD0                             00000000
LATD1                             00000001
LATD2                             00000002
LATD3                             00000003
LATD4                             00000004
LATD5                             00000005
LATD6                             00000006
LATD7                             00000007
LATE                              00000F8D
LATE0                             00000000
LATE1                             00000001
LATE2                             00000002
LAT_OFF                           BCF     LATD,5,0
MPASM  5.51           2X2P10SCOREBOARD32K.ASM   4-20-2020  11:34:52         PAGE 81


SYMBOL TABLE
  LABEL                             VALUE 

LAT_ON                            BSF     LATD,5,0
LINESCAN                          0000010D
LOGO_DELAY                        000001AC
LOGO_LOOP0                        000001AA
LOGO_LOOP1                        000001AB
LOOP                              00000105
LVDCON                            00000FD2
LVDEN                             00000004
LVDIE                             00000002
LVDIF                             00000002
LVDIN                             00000005
LVDIP                             00000002
LVDL0                             00000000
LVDL1                             00000001
LVDL2                             00000002
LVDL3                             00000003
LVV0                              00000000
LVV1                              00000001
LVV2                              00000002
LVV3                              00000003
MAIN                              00000108
MCLR                              00000003
MN0                               000000EC
MOV_TEMPRAM2DRAM                  000003B8
MOV_TR2DR0                        000003D0
MSEC                              00000136
MSEC0                             00000146
N                                 00000004
NOT_A                             00000005
NOT_ADDRESS                       00000005
NOT_BOR                           00000000
NOT_CS                            00000002
NOT_DONE                          00000001
NOT_MCLR                          00000003
NOT_PD                            00000002
NOT_POR                           00000001
NOT_RBPU                          00000007
NOT_RD                            00000000
NOT_RI                            00000004
NOT_SS                            00000005
NOT_T1SYNC                        00000002
NOT_T3SYNC                        00000002
NOT_TO                            00000003
NOT_W                             00000002
NOT_WR                            00000001
NOT_WRITE                         00000002
OBF                               00000006
OERR                              00000001
OE_OFF                            BCF     LATD,7,0
OE_ON                             BSF     LATD,7,0
OSCCON                            00000FD3
OSCFIE                            00000007
OSCFIF                            00000007
MPASM  5.51           2X2P10SCOREBOARD32K.ASM   4-20-2020  11:34:52         PAGE 82


SYMBOL TABLE
  LABEL                             VALUE 

OSCFIP                            00000007
OSCTUNE                           00000F9B
OSTS                              00000003
OV                                00000003
P                                 00000004
P1B                               00000005
P1C                               00000006
P1D                               00000007
P1M0                              00000006
P1M1                              00000007
PC                                00000FF9
PCFG0                             00000000
PCFG1                             00000001
PCFG2                             00000002
PCFG3                             00000003
PCL                               00000FF9
PCLATH                            00000FFA
PCLATH_TEMP                       0000016F
PCLATU                            00000FFB
PD                                00000002
PDC0                              00000000
PDC1                              00000001
PDC2                              00000002
PDC3                              00000003
PDC4                              00000004
PDC5                              00000005
PDC6                              00000006
PEIE                              00000006
PEIE_GIEL                         00000006
PEN                               00000002
PERIOD                            0000015B
PGC                               00000006
PGD                               00000007
PGM                               00000005
PIE1                              00000F9D
PIE2                              00000FA0
PIR1                              00000F9E
PIR2                              00000FA1
PLLEN                             00000006
PLUSW0                            00000FEB
PLUSW1                            00000FE3
PLUSW2                            00000FDB
POINTER                           0000010B
POR                               00000001
PORTA                             00000F80
PORTB                             00000F81
PORTC                             00000F82
PORTD                             00000F83
PORTE                             00000F84
POS                               0000015A
POSTDEC0                          00000FED
POSTDEC1                          00000FE5
POSTDEC2                          00000FDD
MPASM  5.51           2X2P10SCOREBOARD32K.ASM   4-20-2020  11:34:52         PAGE 83


SYMBOL TABLE
  LABEL                             VALUE 

POSTINC0                          00000FEE
POSTINC1                          00000FE6
POSTINC2                          00000FDE
POS_END                           00005206
PR2                               00000FCB
PREINC0                           00000FEC
PREINC1                           00000FE4
PREINC2                           00000FDC
PROD                              00000FF3
PRODH                             00000FF4
PRODL                             00000FF3
PRSEN                             00000007
PSA                               00000003
PSP0                              00000000
PSP1                              00000001
PSP2                              00000002
PSP3                              00000003
PSP4                              00000004
PSP5                              00000005
PSP6                              00000006
PSP7                              00000007
PSPIE                             00000007
PSPIF                             00000007
PSPIP                             00000007
PSPMODE                           00000004
PSSAC0                            00000002
PSSAC1                            00000003
PSSBD0                            00000000
PSSBD1                            00000001
PWM1CON                           00000FB7
R                                 00000002
RA0                               00000000
RA1                               00000001
RA2                               00000002
RA3                               00000003
RA4                               00000004
RA5                               00000005
RA6                               00000006
RA7                               00000007
RAM_STPT                          00000110
RB0                               00000000
RB1                               00000001
RB2                               00000002
RB3                               00000003
RB4                               00000004
RB5                               00000005
RB6                               00000006
RB7                               00000007
RBIE                              00000003
RBIF                              00000000
RBIP                              00000000
RBPU                              00000007
RC0                               00000000
MPASM  5.51           2X2P10SCOREBOARD32K.ASM   4-20-2020  11:34:52         PAGE 84


SYMBOL TABLE
  LABEL                             VALUE 

RC1                               00000001
RC2                               00000002
RC3                               00000003
RC4                               00000004
RC5                               00000005
RC6                               00000006
RC7                               00000007
RCEN                              00000003
RCIDL                             00000006
RCIE                              00000005
RCIF                              00000005
RCIP                              00000005
RCMT                              00000006
RCON                              00000FD0
RCREG                             00000FAE
RCSTA                             00000FAB
RD                                00000000
RD0                               00000000
RD1                               00000001
RD16                              00000007
RD2                               00000002
RD3                               00000003
RD4                               00000004
RD5                               00000005
RD6                               00000006
RD7                               00000007
RE0                               00000000
RE1                               00000001
RE2                               00000002
RE3                               00000003
REG_STPT                          00000111
RI                                00000004
RSEN                              00000001
RS_REC                            00000167
RX                                00000007
RX9                               00000006
RX9D                              00000000
RXCKP                             00000005
RXDTP                             00000005
R_NOT_W                           00000002
R_W                               00000002
S                                 00000003
SBOREN                            00000006
SCK                               00000003
SCKP                              00000004
SCL                               00000003
SCS0                              00000000
SCS1                              00000001
SCT_N1                            00005072
SC_MSEC                           00000154
SC_ONES                           00000153
SC_TENS                           00000152
SDA                               00000004
MPASM  5.51           2X2P10SCOREBOARD32K.ASM   4-20-2020  11:34:52         PAGE 85


SYMBOL TABLE
  LABEL                             VALUE 

SDI                               00000004
SDO                               00000005
SEC                               00000103
SEC0                              00000156
SEC1                              00000166
SEN                               00000000
SENDB                             00000003
SHOW_FG                           000050C6
SHOW_FG0                          000050DA
SHOW_FG1                          000050EC
SHOW_FG5                          000050E8
SHOW_FGDUMP                       000050F8
SHOW_FGN5                         000050D2
SHOW_FH                           000050AA
SHOW_GPOS                         000051F8
SHOW_GSH                          00005198
SHOW_GSO                          000051C8
SHOW_GST                          000051B0
SHOW_GTMONES                      00005130
SHOW_GTMTENS                      0000510C
SHOW_GTMTENS0                     00005118
SHOW_GTSONES                      0000516C
SHOW_GTSTENS                      00005154
SHOW_HPOS                         000051DE
SHOW_HSH                          00005214
SHOW_HSO                          00005244
SHOW_HST                          0000522C
SHOW_PERIOD                       00005026
SHOW_SCONES                       0000508A
SHOW_SCTENS                       0000505A
SKIP_FG                           000050FC
SKIP_FH                           000050BA
SKIP_GPOS                         00005204
SKIP_GSH                          000051A4
SKIP_GSO                          000051D4
SKIP_GST                          000051BC
SKIP_GTMONES                      0000513C
SKIP_GTMTENS                      00005124
SKIP_GTSONES                      00005178
SKIP_GTSTENS                      00005160
SKIP_HPOS                         000051EE
SKIP_HSH                          00005220
SKIP_HSO                          00005250
SKIP_HST                          00005238
SKIP_SCONES                       00005096
SKIP_SCTENS                       0000507E
SMP                               00000007
SP0                               00000000
SP1                               00000001
SP2                               00000002
SP3                               00000003
SP4                               00000004
SPBRG                             00000FAF
MPASM  5.51           2X2P10SCOREBOARD32K.ASM   4-20-2020  11:34:52         PAGE 86


SYMBOL TABLE
  LABEL                             VALUE 

SPBRGH                            00000FB0
SPEN                              00000007
SPI_DATAIN                        00000102
SREN                              00000005
SS                                00000005
SSPADD                            00000FC8
SSPBUF                            00000FC9
SSPCON1                           00000FC6
SSPCON2                           00000FC5
SSPEN                             00000005
SSPIE                             00000003
SSPIF                             00000003
SSPIP                             00000003
SSPM0                             00000000
SSPM1                             00000001
SSPM2                             00000002
SSPM3                             00000003
SSPOV                             00000006
SSPSTAT                           00000FC7
STATUS                            00000FD8
STATUS_TEMP                       0000016D
STKFUL                            00000007
STKOVF                            00000007
STKPTR                            00000FFC
STKPTR0                           00000000
STKPTR1                           00000001
STKPTR2                           00000002
STKPTR3                           00000003
STKPTR4                           00000004
STKUNF                            00000006
SWDTE                             00000000
SWDTEN                            00000000
SYNC                              00000004
T016BIT                           00000006
T08BIT                            00000006
T0CKI                             00000004
T0CON                             00000FD5
T0CS                              00000005
T0IE                              00000005
T0IF                              00000002
T0PS0                             00000000
T0PS1                             00000001
T0PS2                             00000002
T0SE                              00000004
T13CKI                            00000000
T1CKI                             00000000
T1CKPS0                           00000004
T1CKPS1                           00000005
T1CON                             00000FCD
T1OSCEN                           00000003
T1OSI                             00000001
T1OSO                             00000000
T1RUN                             00000006
MPASM  5.51           2X2P10SCOREBOARD32K.ASM   4-20-2020  11:34:52         PAGE 87


SYMBOL TABLE
  LABEL                             VALUE 

T1SYNC                            00000002
T2CKPS0                           00000000
T2CKPS1                           00000001
T2CON                             00000FCA
T2OUTPS0                          00000003
T2OUTPS1                          00000004
T2OUTPS2                          00000005
T2OUTPS3                          00000006
T3CCP1                            00000003
T3CCP2                            00000006
T3CKPS0                           00000004
T3CKPS1                           00000005
T3CON                             00000FB1
T3SYNC                            00000002
TABLAT                            00000FF5
TBLPTR                            00000FF6
TBLPTRH                           00000FF7
TBLPTRL                           00000FF6
TBLPTRU                           00000FF8
TDCG0                             00005296
TEMPRAM                           00000120
TMR0                              00000FD6
TMR0H                             00000FD7
TMR0IE                            00000005
TMR0IF                            00000002
TMR0IP                            00000002
TMR0L                             00000FD6
TMR0ON                            00000007
TMR1                              00000FCE
TMR1CS                            00000001
TMR1H                             00000FCF
TMR1IE                            00000000
TMR1IF                            00000000
TMR1IP                            00000000
TMR1L                             00000FCE
TMR1ON                            00000000
TMR2                              00000FCC
TMR2IE                            00000001
TMR2IF                            00000001
TMR2IP                            00000001
TMR2ON                            00000002
TMR3                              00000FB2
TMR3CS                            00000001
TMR3H                             00000FB3
TMR3IE                            00000001
TMR3IF                            00000001
TMR3IP                            00000001
TMR3L                             00000FB2
TMR3ON                            00000000
TO                                00000003
TOS                               00000FFD
TOSH                              00000FFE
TOSL                              00000FFD
MPASM  5.51           2X2P10SCOREBOARD32K.ASM   4-20-2020  11:34:52         PAGE 88


SYMBOL TABLE
  LABEL                             VALUE 

TOSU                              00000FFF
TO_G                              00000165
TO_H                              00000164
TRAMCOUNT                         00000108
TRAMSHIFT                         000004EE
TRAM_SHIFT                        00000109
TRISA                             00000F92
TRISA0                            00000000
TRISA1                            00000001
TRISA2                            00000002
TRISA3                            00000003
TRISA4                            00000004
TRISA5                            00000005
TRISA6                            00000006
TRISA7                            00000007
TRISB                             00000F93
TRISB0                            00000000
TRISB1                            00000001
TRISB2                            00000002
TRISB3                            00000003
TRISB4                            00000004
TRISB5                            00000005
TRISB6                            00000006
TRISB7                            00000007
TRISC                             00000F94
TRISC0                            00000000
TRISC1                            00000001
TRISC2                            00000002
TRISC3                            00000003
TRISC4                            00000004
TRISC5                            00000005
TRISC6                            00000006
TRISC7                            00000007
TRISD                             00000F95
TRISD0                            00000000
TRISD1                            00000001
TRISD2                            00000002
TRISD3                            00000003
TRISD4                            00000004
TRISD5                            00000005
TRISD6                            00000006
TRISD7                            00000007
TRISE                             00000F96
TRISE0                            00000000
TRISE1                            00000001
TRISE2                            00000002
TRMT                              00000001
TRNSDATA_CPU2GPU                  00005256
TRS0                              000004EE
TRSMITSAMP                        00000110
TUN0                              00000000
TUN1                              00000001
TUN2                              00000002
MPASM  5.51           2X2P10SCOREBOARD32K.ASM   4-20-2020  11:34:52         PAGE 89


SYMBOL TABLE
  LABEL                             VALUE 

TUN3                              00000003
TUN4                              00000004
TX                                00000006
TX9                               00000006
TX9D                              00000000
TXCKP                             00000004
TXEN                              00000005
TXIE                              00000004
TXIF                              00000004
TXIP                              00000004
TXREG                             00000FAD
TXREG_T                           00000168
TXSTA                             00000FAC
UA                                00000001
USEC                              00000122
VCFG0                             00000004
VCFG1                             00000005
VDIRMAG                           00000007
VPP                               00000003
W                                 00000000
WCOL                              00000007
WDTCON                            00000FD1
WIDTH                             00000116
WR                                00000001
WREG                              00000FE8
WREG_TEMP                         0000011A
WREN                              00000002
WRERR                             00000003
WTHERE                            00000114
WUE                               00000001
W_TEMP                            0000016C
Z                                 00000002
_BOREN_NOSLP_2L                   000000FD
_BOREN_OFF_2L                     000000F9
_BOREN_ON_2L                      000000FB
_BOREN_SBORDIS_2L                 000000FF
_BORV_0_2L                        000000E7
_BORV_1_2L                        000000EF
_BORV_2_2L                        000000F7
_BORV_3_2L                        000000FF
_CCP2MX_PORTBE_3H                 000000FE
_CCP2MX_PORTC_3H                  000000FF
_CONFIG1H                         00300001
_CONFIG2H                         00300003
_CONFIG2L                         00300002
_CONFIG3H                         00300005
_CONFIG4L                         00300006
_CONFIG5H                         00300009
_CONFIG5L                         00300008
_CONFIG6H                         0030000B
_CONFIG6L                         0030000A
_CONFIG7H                         0030000D
_CONFIG7L                         0030000C
MPASM  5.51           2X2P10SCOREBOARD32K.ASM   4-20-2020  11:34:52         PAGE 90


SYMBOL TABLE
  LABEL                             VALUE 

_CP0_OFF_5L                       000000FF
_CP0_ON_5L                        000000FE
_CP1_OFF_5L                       000000FF
_CP1_ON_5L                        000000FD
_CP2_OFF_5L                       000000FF
_CP2_ON_5L                        000000FB
_CP3_OFF_5L                       000000FF
_CP3_ON_5L                        000000F7
_CPB_OFF_5H                       000000FF
_CPB_ON_5H                        000000BF
_CPD_OFF_5H                       000000FF
_CPD_ON_5H                        0000007F
_DEBUG_OFF_4L                     000000FF
_DEBUG_ON_4L                      0000007F
_DEVID1                           003FFFFE
_DEVID2                           003FFFFF
_EBTR0_OFF_7L                     000000FF
_EBTR0_ON_7L                      000000FE
_EBTR1_OFF_7L                     000000FF
_EBTR1_ON_7L                      000000FD
_EBTR2_OFF_7L                     000000FF
_EBTR2_ON_7L                      000000FB
_EBTR3_OFF_7L                     000000FF
_EBTR3_ON_7L                      000000F7
_EBTRB_OFF_7H                     000000FF
_EBTRB_ON_7H                      000000BF
_FCMEN_OFF_1H                     000000BF
_FCMEN_ON_1H                      000000FF
_IDLOC0                           00200000
_IDLOC1                           00200001
_IDLOC2                           00200002
_IDLOC3                           00200003
_IDLOC4                           00200004
_IDLOC5                           00200005
_IDLOC6                           00200006
_IDLOC7                           00200007
_IESO_OFF_1H                      0000007F
_IESO_ON_1H                       000000FF
_LPT1OSC_OFF_3H                   000000FB
_LPT1OSC_ON_3H                    000000FF
_LVP_OFF_4L                       000000FB
_LVP_ON_4L                        000000FF
_MCLRE_OFF_3H                     0000007F
_MCLRE_ON_3H                      000000FF
_OSC_ECIO6_1H                     000000F5
_OSC_EC_1H                        000000F4
_OSC_HSPLL_1H                     000000F6
_OSC_HS_1H                        000000F2
_OSC_INTIO67_1H                   000000F8
_OSC_INTIO7_1H                    000000F9
_OSC_LP_1H                        000000F0
_OSC_RCIO6_1H                     000000F7
_OSC_RC_1H                        000000F3
MPASM  5.51           2X2P10SCOREBOARD32K.ASM   4-20-2020  11:34:52         PAGE 91


SYMBOL TABLE
  LABEL                             VALUE 

_OSC_XT_1H                        000000F1
_PBADEN_OFF_3H                    000000FD
_PBADEN_ON_3H                     000000FF
_PWRT_OFF_2L                      000000FF
_PWRT_ON_2L                       000000FE
_STVREN_OFF_4L                    000000FE
_STVREN_ON_4L                     000000FF
_WDTPS_1024_2H                    000000F5
_WDTPS_128_2H                     000000EF
_WDTPS_16384_2H                   000000FD
_WDTPS_16_2H                      000000E9
_WDTPS_1_2H                       000000E1
_WDTPS_2048_2H                    000000F7
_WDTPS_256_2H                     000000F1
_WDTPS_2_2H                       000000E3
_WDTPS_32768_2H                   000000FF
_WDTPS_32_2H                      000000EB
_WDTPS_4096_2H                    000000F9
_WDTPS_4_2H                       000000E5
_WDTPS_512_2H                     000000F3
_WDTPS_64_2H                      000000ED
_WDTPS_8192_2H                    000000FB
_WDTPS_8_2H                       000000E7
_WDT_OFF_2H                       000000FE
_WDT_ON_2H                        000000FF
_WRT0_OFF_6L                      000000FF
_WRT0_ON_6L                       000000FE
_WRT1_OFF_6L                      000000FF
_WRT1_ON_6L                       000000FD
_WRT2_OFF_6L                      000000FF
_WRT2_ON_6L                       000000FB
_WRT3_OFF_6L                      000000FF
_WRT3_ON_6L                       000000F7
_WRTB_OFF_6H                      000000FF
_WRTB_ON_6H                       000000BF
_WRTC_OFF_6H                      000000FF
_WRTC_ON_6H                       000000DF
_WRTD_OFF_6H                      000000FF
_WRTD_ON_6H                       0000007F
_XINST_OFF_4L                     000000BF
_XINST_ON_4L                      000000FF
__18F4620                         00000001
__DEBUG                           1
MPASM  5.51           2X2P10SCOREBOARD32K.ASM   4-20-2020  11:34:52         PAGE 92


MEMORY USAGE MAP ('X' = Used,  '-' = Unused)


0000 : XXXX----XXXXXX-- --------XXXXXXXX XXXXXXXXXXXXXXXX XXXXXXXXXXXXXXXX
0040 : XXXXXXXXXXXXXXXX XXXXXXXXXXXXXXXX XXXXXXXXXXXXXXXX XXXXXXXXXXXXXXXX
0080 : XXXXXXXXXXXXXXXX XXXXXXXXXXXXXXXX XXXXXXXXXXXXXXXX XXXXXXXXXXXXXXXX
00C0 : XXXXXXXXXXXXXXXX XXXXXXXXXXXXXXXX XXXXXXXXXXXXXXXX XXXXXXXXXXXXXXXX
0100 : XXXXXXXXXXXXXXXX XXXXXXXXXXXXXXXX XXXXXXXXXXXXXXXX XXXXXXXXXXXXXXXX
0140 : XXXXXXXXXXXXXXXX XXXXXXXXXXXXXXXX XXXXXXXXXXXXXXXX XXXXXXXXXXXXXXXX
0180 : XXXXXXXXXXXXXXXX XXXXXXXXXXXXXXXX XXXXXXXXXXXXXXXX XXXXXXXXXXXXXXXX
01C0 : XXXXXXXXXXXXXXXX XXXXXXXXXXXXXXXX XXXXXXXXXXXXXXXX XXXXXXXXXXXXXXXX
0200 : XXXXXXXXXXXXXXXX XXXXXXXXXXXXXXXX XXXXXXXXXXXXXXXX XXXXXXXXXXXXXXXX
0240 : XXXXXXXXXXXXXXXX XXXXXXXXXXXXXXXX XXXXXXXXXXXXXXXX XXXXXXXXXXXXXXXX
0280 : XXXXXXXXXXXXXXXX XXXXXXXXXXXXXXXX XXXXXXXXXXXXXXXX XXXXXXXXXXXXXXXX
02C0 : XXXXXXXXXXXXXXXX XXXXXXXXXX------ ---------------- ----------------
0300 : XXXXXXXXXXXXXXXX XXXXXXXXXXXXXXXX XXXXXXXXXXXXXXXX XXXXXXXXXXXXXXXX
0340 : XXXXXXXXXXXXXXXX XXXXXXXXXXXXXXXX XXXXXXXXXXXXXXXX XXXXXXXXXXXXXXXX
0380 : XXXXXXXXXXXXXXXX XXXXXXXXXXXXXXXX XXXXXXXXXXXXXXXX XXXXXXXXXXXXXXXX
03C0 : XXXXXXXXXXXXXXXX XXXXXXXXXXXXXXXX XXXXXXXXXXXXXXXX XXXXXXXXXXXXXXXX
0400 : XXXXXXXXXXXXXXXX XXXXXXXXXXXXXXXX XXXXXXXXXXXXXXXX XXXXXXXXXXXXXXXX
0440 : XXXXXXXXXXXXXXXX XXXXXXXXXXXXXXXX XXXXXXXXXXXXXXXX XXXXXXXXXXXXXXXX
0480 : XXXXXXXXXXXXXXXX XXXXXXXXXXXXXXXX XXXXXXXXXXXXXXXX XXXXXXXXXXXXXXXX
04C0 : XXXXXXXXXXXXXXXX XXXXXXXXXXXXXXXX XXXXXXXXXXXXXXXX XXXXXXXXXXXXXXXX
0500 : XXXXXXXXXXXXXXXX XXXXXXXXXXXXXXXX XXXXXXXXXXXXXXXX XXXXXXXXXXXXXXXX
0540 : XXXXXXXXXXXXXXXX XXXXXXXXXXXXXXXX XXXXXXXXXXXXXXXX XXXX------------
1D00 : XXXXXXXXXXXXXXXX XXXXXXXXXXXXXXXX XXXXXXXXXXXXXXXX XXXXXXXXXXXXXXXX
1D40 : XXXXXXXXXXXXXXXX XXXXXXXXXXXXXXXX XXXXXXXXXXXXXXXX XX--------------
1E00 : XXXXXXXXXXXXXXXX XXXXXXXXXXXXXXXX XXXXXXXXXXXXXXXX XXXXXXXXXXXXXXXX
1E40 : XXXXXXXXXXXXXXXX XXXXXX---------- ---------------- ----------------
1F00 : XXXXXXXXXXXXXXXX XXXXXXXXXXXXXXXX XXXXXXXXXXXXXXXX XXXXXXXXXXXXXXXX
1F40 : XXXXXXXXXXXXXXXX XX-------------- ---------------- ----------------
2000 : XXXXXXXXXXXXXXXX XXXXXXXXXXXXXXXX XXXXXXXXXXXXXXXX XXXXXXXXXXXXXXXX
2040 : XXXXXXXXXXXXXXXX XXXXXXXXXXXXXXXX XXXXXXXXXXXXXXXX XXXXXXXXXXXXXXXX
2080 : XXXXXXXXXXXXXXXX XXXXXXXXXXXXXXXX XXXX------------ ----------------
2100 : XXXXXXXXXXXXXXXX XXXXXXXXXXXXXXXX XXXXXXXXXXXXXXXX XXXXXXXXXXXXXXXX
2140 : XXXXXXXXXXXXXXXX XXXXXXXXXXXXXXXX XXXXXXXXXXXXXXXX XXXXXXXXXXXXXXXX
2180 : XXXXXXXXXXXXXXXX XXXXXXXXXXXXXXXX XXXX------------ ----------------
2200 : XXXXXXXXXXXXXXXX XXXXXXXXXXXXXXXX XXXXXXXXXXXXXXXX XXXXXXXXXXXXXXXX
2240 : XXXXXXXXXXXXXXXX XXXXXXXXXXXXXXXX XXXXXXXXXXXXXXXX XXXXXXXXXXXXXXXX
2280 : XXXXXXXXXXXXXXXX XXXXXXXXXXXXXXXX XXXX------------ ----------------
2300 : XXXXXXXXXXXXXXXX XXXXXXXXXXXXXXXX XXXXXXXXXXXXXXXX XXXXXXXXXXXXXXXX
2340 : XXXXXXXXXXXXXXXX XXXXXXXXXXXXXXXX XXXXXXXXXXXXXXXX XXXXXXXXXXXXXXXX
2380 : XXXXXXXXXXXXXXXX XXXXXXXXXXXXXXXX XXXX------------ ----------------
2400 : XXXXXXXXXXXXXXXX XXXXXXXXXXXXXXXX XXXXXXXXXXXXXXXX XXXXXXXXXXXXXXXX
2440 : XXXXXXXXXXXXXXXX XXXXXXXXXXXXXXXX XXXXXXXXXXXXXXXX XXXXXXXXXXXXXXXX
2480 : XXXXXXXXXXXXXXXX XXXXXXXXXXXXXXXX XXXX------------ ----------------
2500 : XXXXXXXXXXXXXXXX XXXXXXXXXXXXXXXX XXXXXXXXXXXXXXXX XXXXXXXXXXXXXXXX
2540 : XXXXXXXXXXXXXXXX XXXXXXXXXXXXXXXX XXXXXXXXXXXXXXXX XXXXXXXXXXXXXXXX
2580 : XXXXXXXXXXXXXXXX XXXXXXXXXXXXXXXX XXXX------------ ----------------
MPASM  5.51           2X2P10SCOREBOARD32K.ASM   4-20-2020  11:34:52         PAGE 93


MEMORY USAGE MAP ('X' = Used,  '-' = Unused)


2600 : XXXXXXXXXXXXXXXX XXXXXXXXXXXXXXXX XXXXXXXXXXXXXXXX XXXXXXXXXXXXXXXX
2640 : XXXXXXXXXXXXXXXX XXXXXXXXXXXXXXXX XXXXXXXXXXXXXXXX XXXXXXXXXXXXXXXX
2680 : XXXXXXXXXXXXXXXX XXXXXXXXXXXXXXXX XXXX------------ ----------------
2700 : XXXXXXXXXXXXXXXX XXXXXXXXXXXXXXXX XXXXXXXXXXXXXXXX XXXXXXXXXXXXXXXX
2740 : XXXXXXXXXXXXXXXX XXXXXXXXXXXXXXXX XXXXXXXXXXXXXXXX XXXXXXXXXXXXXXXX
2780 : XXXXXXXXXXXXXXXX XXXXXXXXXXXXXXXX XXXX------------ ----------------
2800 : XXXXXXXXXXXXXXXX XXXXXXXXXXXXXXXX XXXXXXXXXXXXXXXX XXXXXXXXXXXXXXXX
2840 : XXXXXXXXXXXXXXXX XXXXXXXXXXXXXXXX XXXXXXXXXXXXXXXX XXXXXXXXXXXXXXXX
2880 : XXXXXXXXXXXXXXXX XXXXXXXXXXXXXXXX XXXX------------ ----------------
2900 : XXXXXXXXXXXXXXXX XXXXXXXXXXXXXXXX XXXXXXXXXXXXXXXX XXXXXXXXXXXXXXXX
2940 : XXXXXXXXXXXXXXXX XXXXXXXXXXXXXXXX XXXXXXXXXXXXXXXX XXXXXXXXXXXXXXXX
2980 : XXXXXXXXXXXXXXXX XXXXXXXXXXXXXXXX XXXX------------ ----------------
2A00 : XXXXXXXXXXXXXXXX XXXXXXXXXXXXXXXX XXXXXXXXXXXXXXXX XXXXXXXXXXXXXXXX
2A40 : XXXXXXXXXXXXXXXX XXXXXXXXXXXXXXXX XXXXXXXXXXXXXXXX XXXXXXXXXXXXXXXX
2A80 : XXXXXXXXXXXXXXXX XXXXXXXXXXXXXXXX XXXX------------ ----------------
2B00 : XXXXXXXXXXXXXXXX XXXXXXXXXXXXXXXX XXXXXXXXXXXXXXXX XXXXXXXXXXXXXXXX
2B40 : XXXXXXXXXXXXXXXX XX-------------- ---------------- ----------------
2C00 : XXXXXXXXXXXXXXXX XXXXXXXXXXXXXXXX XXXXXXXXXXXXXXXX XXXXXXXXXXXXXXXX
2C40 : XXXXXXXXXXXXXXXX XX-------------- ---------------- ----------------
2D00 : XXXXXXXXXXXXXXXX XXXXXXXXXXXXXXXX XXXXXXXXXXXXXXXX XXXXXXXXXXXXXXXX
2D40 : XXXXXXXXXXXXXXXX XX-------------- ---------------- ----------------
2E00 : XXXXXXXXXXXXXXXX XXXXXXXXXXXXXXXX XXXXXXXXXXXXXXXX XXXXXXXXXXXXXXXX
2E40 : XXXXXXXXXXXXXXXX XX-------------- ---------------- ----------------
2F00 : XXXXXXXXXXXXXXXX XXXXXXXXXXXXXXXX XXXXXXXXXXXXXXXX XXXXXXXXXXXXXXXX
2F40 : XXXXXXXXXXXXXXXX XX-------------- ---------------- ----------------
3000 : XXXXXXXXXXXXXXXX XXXXXXXXXXXXXXXX XXXXXXXXXXXXXXXX XXXXXXXXXXXXXXXX
3040 : XXXXXXXXXXXXXXXX XX-------------- ---------------- ----------------
3100 : XXXXXXXXXXXXXXXX XXXXXXXXXXXXXXXX XXXXXXXXXXXXXXXX XXXXXXXXXXXXXXXX
3140 : XXXXXXXXXXXXXXXX XX-------------- ---------------- ----------------
3200 : XXXXXXXXXXXXXXXX XXXXXXXXXXXXXXXX XXXXXXXXXXXXXXXX XXXXXXXXXXXXXXXX
3240 : XXXXXXXXXXXXXXXX XX-------------- ---------------- ----------------
4000 : XXXXXXXXXXXXXXXX XXXXXXXXXXXXXXXX XXXXXXXXXXXXXXXX XXXXXXXXXXXXXXXX
4040 : XXXXXXXXXXXXXXXX XX-------------- ---------------- ----------------
4100 : XXXXXXXXXXXXXXXX XXXXXXXXXXXXXXXX XXXXXXXXXXXXXXXX XXXXXXXXXXXXXXXX
4140 : XXXXXXXXXXXXXXXX XX-------------- ---------------- ----------------
4200 : XXXXXXXXXXXXXXXX XXXXXXXXXXXXXXXX XXXXXXXXXXXXXXXX XXXXXXXXXXXXXXXX
4240 : XXXXXXXXXXXXXXXX XX-------------- ---------------- ----------------
4300 : XXXXXXXXXXXXXXXX XXXXXXXXXXXXXXXX XXXXXXXXXXXXXXXX XXXXXXXXXXXXXXXX
4340 : XXXXXXXXXXXXXXXX XX-------------- ---------------- ----------------
4400 : XXXXXXXXXXXXXXXX XXXXXXXXXXXXXXXX XXXXXXXXXXXXXXXX XXXXXXXXXXXXXXXX
4440 : XXXXXXXXXXXXXXXX XX-------------- ---------------- ----------------
4500 : XXXXXXXXXXXXXXXX XXXXXXXXXXXXXXXX XXXXXXXXXXXXXXXX XXXXXXXXXXXXXXXX
4540 : XXXXXXXXXXXXXXXX XX-------------- ---------------- ----------------
4600 : XXXXXXXXXXXXXXXX XXXXXXXXXXXXXXXX XXXXXXXXXXXXXXXX XXXXXXXXXXXXXXXX
4640 : XXXXXXXXXXXXXXXX XX-------------- ---------------- ----------------
4700 : XXXXXXXXXXXXXXXX XXXXXXXXXXXXXXXX XXXXXXXXXXXXXXXX XXXXXXXXXXXXXXXX
MPASM  5.51           2X2P10SCOREBOARD32K.ASM   4-20-2020  11:34:52         PAGE 94


MEMORY USAGE MAP ('X' = Used,  '-' = Unused)


4740 : XXXXXXXXXXXXXXXX XX-------------- ---------------- ----------------
4800 : XXXXXXXXXXXXXXXX XXXXXXXXXXXXXXXX XXXXXXXXXXXXXXXX XXXXXXXXXXXXXXXX
4840 : XXXXXXXXXXXXXXXX XX-------------- ---------------- ----------------
4900 : XXXXXXXXXXXXXXXX XXXXXXXXXXXXXXXX XXXXXXXXXXXXXXXX XXXXXXXXXXXXXXXX
4940 : XXXXXXXXXXXXXXXX XX-------------- ---------------- ----------------
4A00 : XXXXXXXXXXXXXXXX XXXXXXXXXXXXXXXX XXXXXXXXXXXXXXXX XXXXXXXXXXXXXXXX
4A40 : XXXXXXXXXXXXXXXX XX-------------- ---------------- ----------------
4B00 : XXXXXXXXXXXXXXXX XXXXXXXXXXXXXXXX XXXXXXXXXXXXXXXX XXXXXXXXXXXXXXXX
4B40 : XXXXXXXXXXXXXXXX XX-------------- ---------------- ----------------
5000 : XXXXXXXXXXXXXXXX XXXXXXXXXXXXXXXX XXXXXXXXXXXXXXXX XXXXXXXXXXXXXXXX
5040 : XXXXXXXXXXXXXXXX XXXXXXXXXXXXXXXX XXXXXXXXXXXXXXXX XXXXXXXXXXXXXXXX
5080 : XXXXXXXXXXXXXXXX XXXXXXXXXXXXXXXX XXXXXXXXXXXXXXXX XXXXXXXXXXXXXXXX
50C0 : XXXXXXXXXXXXXXXX XXXXXXXXXXXXXXXX XXXXXXXXXXXXXXXX XXXXXXXXXXXXXXXX
5100 : XXXXXXXXXXXXXXXX XXXXXXXXXXXXXXXX XXXXXXXXXXXXXXXX XXXXXXXXXXXXXXXX
5140 : XXXXXXXXXXXXXXXX XXXXXXXXXXXXXXXX XXXXXXXXXXXXXXXX XXXXXXXXXXXXXXXX
5180 : XXXXXXXXXXXXXXXX XXXXXXXXXXXXXXXX XXXXXXXXXXXXXXXX XXXXXXXXXXXXXXXX
51C0 : XXXXXXXXXXXXXXXX XXXXXXXXXXXXXXXX XXXXXXXXXXXXXXXX XXXXXXXXXXXXXXXX
5200 : XXXXXXXXXXXXXXXX XXXXXXXXXXXXXXXX XXXXXXXXXXXXXXXX XXXXXXXXXXXXXXXX
5240 : XXXXXXXXXXXXXXXX XXXXXXXXXXXXXXXX XXXXXXXXXXXXXXXX XXXXXXXXXXXXXXXX
5280 : XXXXXXXXXXXXXXXX XXXXXXXXXXXXXXXX XXXXXXXXXXXXXXXX XXXXXXXXXXXXXXXX
52C0 : XXXXXXXXXXXXXXXX XXXXXXXXXXXXXXXX XXXXXXXXXXXXXXXX XXXXXXXXXXXXXXXX
5300 : XXXXXXXXXXXXXXXX XXXXXXXXXXXXXXXX XXXXXXXXXXXXXXXX XXXXXXXXXXXXXXXX
5340 : XXXXXXXXXXXXXXXX XXXXXXXXXXXXXXXX XXXXXXXXXXXXXXXX XXXXXXXXXXXXXXXX
5380 : XXXXXXXXXXXXXXXX XXXXXXXXXXXXXXXX XXXXXXXXXXXXXXXX XXXXXXXXXXXXXXXX
53C0 : XXXXXXXXXXXXXXXX XXXXXXXXXXXXXXXX XXXXXXXXXXXXXXXX XXXXXXXXXXXXXXXX
5400 : XXXXXXXXXXXXXXXX XXXXXXXXXXXXXXXX XXXXXXXXXXXXXXXX XXXXXXXXXXXXXXXX
5440 : XXXXXXXXXXXXXXXX XXXXXXXXXXXXXXXX XXXXXXXXXXXXXXXX XXXXXXXXXXXXXXXX
5480 : XXXXXXXXXXXXXXXX XXXXXXXXXXXXXXXX XXXXXXXXXXXXXXXX XXXXXXXXXXXXXXXX
54C0 : XXXXXXXXXXXXXXXX XXXXXXXXXXXXXXXX XXXXXXXXXXXXXXXX XXXXXXXXXXXXXXXX
5500 : XXXXXXXXXXXXXXXX XXXXXXXXXXXXXXXX XXXXXXXXXXXXXXXX XXXXXXXXXXXXXXXX
5540 : XXXXXXXXXXXXXXXX XXXXXXXXXXXXXXXX XXXXXXXXXXXXXXXX XXXXXXXXXXXXXXXX
5580 : XXXXXXXXXXXXXXXX XXXXXXXXXX------ ---------------- ----------------
0000 : -XXX-XX-XXXXXX-- ---------------- ---------------- ----------------

All other memory blocks unused.

Program Memory Bytes Used:  6515
Program Memory Bytes Free: 59021


Errors   :     0
Warnings :   214 reported,     0 suppressed
Messages :     0 reported,     0 suppressed

