;/////////////////////////////////////////////////////////////////////////////////
;// Code Generator: BoostC Compiler - http://www.sourceboost.com
;// Version       : 7.03
;// License Type  : Pro License
;// Limitations   : PIC12,PIC16 max code size:Unlimited, max RAM banks:Unlimited
;/////////////////////////////////////////////////////////////////////////////////

	ORG 0x00000000
0000  291E  	GOTO	_startup
	ORG 0x00000004
0004  00FF  	MOVWF Int1Context
0005  0E03  	SWAPF STATUS, W
0006  1283  	BCF STATUS, RP0
0007  1303  	BCF STATUS, RP1
0008  00B4  	MOVWF Int1BContext
0009  0E0A  	SWAPF PCLATH, W
000A  00B5  	MOVWF Int1BContext+D'1'
000B  0E04  	SWAPF FSR, W
000C  00B6  	MOVWF Int1BContext+D'2'
000D  118A  	BCF PCLATH,3
000E  120A  	BCF PCLATH,4
000F  294B  	GOTO	interrupt
	ORG 0x00000010
0010        delay_us_00000
0010        ; { delay_us ; function begin
0010        label1
0010  0000  	NOP
0011  0000  	NOP
0012  0BC8  	DECFSZ delay_us_00000_arg_del, F
0013  2810  	GOTO	label1
0014  0008  	RETURN
0015        ; } delay_us function end

	ORG 0x00000015
0015        __mul_8_8__00005
0015        ; { __mul_8_8__8 ; function begin
0015  01CA  	CLRF __mul_8_8__00005_1_i
0016  01CB  	CLRF CompTempVarRet451
0017        label2
0017  19CA  	BTFSC __mul_8_8__00005_1_i,3
0018  0008  	RETURN
0019  1C49  	BTFSS __mul_8_8__00005_arg_b,0
001A  281D  	GOTO	label3
001B  0848  	MOVF __mul_8_8__00005_arg_a, W
001C  07CB  	ADDWF CompTempVarRet451, F
001D        label3
001D  0CC9  	RRF __mul_8_8__00005_arg_b, F
001E  1003  	BCF gbl_status,0
001F  0DC8  	RLF __mul_8_8__00005_arg_a, F
0020  0ACA  	INCF __mul_8_8__00005_1_i, F
0021  2817  	GOTO	label2
0022        ; } __mul_8_8__8 function end

	ORG 0x00000022
0022        FCM_pwm1_00000
0022        ; { FCM_pwm1 ; function begin
0022  1283  	BCF STATUS, RP0
0023  1303  	BCF STATUS, RP1
0024  0842  	MOVF gbl_FCV_DIV_COUNTER, W
0025  3C10  	SUBLW 0x10
0026  1803  	BTFSC STATUS,C
0027  286D  	GOTO	label6
0028  0842  	MOVF gbl_FCV_DIV_COUNTER, W
0029  3C18  	SUBLW 0x18
002A  1803  	BTFSC STATUS,C
002B  285F  	GOTO	label5
002C  0842  	MOVF gbl_FCV_DIV_COUNTER, W
002D  3C28  	SUBLW 0x28
002E  1803  	BTFSC STATUS,C
002F  283D  	GOTO	label4
0030  30FD  	MOVLW 0xFD
0031  1683  	BSF STATUS, RP0
0032  0507  	ANDWF gbl_trisc, W
0033  0087  	MOVWF gbl_trisc
0034  30FD  	MOVLW 0xFD
0035  1283  	BCF STATUS, RP0
0036  0507  	ANDWF gbl_portc, W
0037  0087  	MOVWF gbl_portc
0038  3001  	MOVLW 0x01
0039  00C4  	MOVWF gbl_FCV_DUTY_COUNTER
003A  01C2  	CLRF gbl_FCV_DIV_COUNTER
003B  1043  	BCF gbl_FCV_FLAG0,0
003C  0008  	RETURN
003D        label4
003D  0344  	DECF gbl_FCV_DUTY_COUNTER, W
003E  00C4  	MOVWF gbl_FCV_DUTY_COUNTER
003F  0A42  	INCF gbl_FCV_DIV_COUNTER, W
0040  00C2  	MOVWF gbl_FCV_DIV_COUNTER
0041  30FD  	MOVLW 0xFD
0042  1683  	BSF STATUS, RP0
0043  0507  	ANDWF gbl_trisc, W
0044  0087  	MOVWF gbl_trisc
0045  30FD  	MOVLW 0xFD
0046  1283  	BCF STATUS, RP0
0047  0507  	ANDWF gbl_portc, W
0048  00C8  	MOVWF CompTempVar2191
0049  3002  	MOVLW 0x02
004A  0448  	IORWF CompTempVar2191, W
004B  0087  	MOVWF gbl_portc
004C  300A  	MOVLW 0x0A
004D  00C8  	MOVWF __mul_8_8__00005_arg_a
004E  0844  	MOVF gbl_FCV_DUTY_COUNTER, W
004F  00C9  	MOVWF __mul_8_8__00005_arg_b
0050  2015  	CALL __mul_8_8__00005
0051  084B  	MOVF CompTempVarRet451, W
0052  00C6  	MOVWF gbl_FCV_DELAY_1
0053  0846  	MOVF gbl_FCV_DELAY_1, W
0054  00C8  	MOVWF delay_us_00000_arg_del
0055  2010  	CALL delay_us_00000
0056  30FD  	MOVLW 0xFD
0057  1683  	BSF STATUS, RP0
0058  0507  	ANDWF gbl_trisc, W
0059  0087  	MOVWF gbl_trisc
005A  30FD  	MOVLW 0xFD
005B  1283  	BCF STATUS, RP0
005C  0507  	ANDWF gbl_portc, W
005D  0087  	MOVWF gbl_portc
005E  0008  	RETURN
005F        label5
005F  30FD  	MOVLW 0xFD
0060  1683  	BSF STATUS, RP0
0061  0507  	ANDWF gbl_trisc, W
0062  0087  	MOVWF gbl_trisc
0063  30FD  	MOVLW 0xFD
0064  1283  	BCF STATUS, RP0
0065  0507  	ANDWF gbl_portc, W
0066  00C8  	MOVWF CompTempVar2192
0067  3002  	MOVLW 0x02
0068  0448  	IORWF CompTempVar2192, W
0069  0087  	MOVWF gbl_portc
006A  0A42  	INCF gbl_FCV_DIV_COUNTER, W
006B  00C2  	MOVWF gbl_FCV_DIV_COUNTER
006C  0008  	RETURN
006D        label6
006D  30FD  	MOVLW 0xFD
006E  1683  	BSF STATUS, RP0
006F  0507  	ANDWF gbl_trisc, W
0070  0087  	MOVWF gbl_trisc
0071  30FD  	MOVLW 0xFD
0072  1283  	BCF STATUS, RP0
0073  0507  	ANDWF gbl_portc, W
0074  00C8  	MOVWF CompTempVar2193
0075  3002  	MOVLW 0x02
0076  0448  	IORWF CompTempVar2193, W
0077  0087  	MOVWF gbl_portc
0078  300A  	MOVLW 0x0A
0079  00C8  	MOVWF __mul_8_8__00005_arg_a
007A  0844  	MOVF gbl_FCV_DUTY_COUNTER, W
007B  00C9  	MOVWF __mul_8_8__00005_arg_b
007C  2015  	CALL __mul_8_8__00005
007D  084B  	MOVF CompTempVarRet451, W
007E  00C6  	MOVWF gbl_FCV_DELAY_1
007F  0846  	MOVF gbl_FCV_DELAY_1, W
0080  00C8  	MOVWF delay_us_00000_arg_del
0081  2010  	CALL delay_us_00000
0082  30FD  	MOVLW 0xFD
0083  1683  	BSF STATUS, RP0
0084  0507  	ANDWF gbl_trisc, W
0085  0087  	MOVWF gbl_trisc
0086  30FD  	MOVLW 0xFD
0087  1283  	BCF STATUS, RP0
0088  0507  	ANDWF gbl_portc, W
0089  0087  	MOVWF gbl_portc
008A  0A44  	INCF gbl_FCV_DUTY_COUNTER, W
008B  00C4  	MOVWF gbl_FCV_DUTY_COUNTER
008C  0A42  	INCF gbl_FCV_DIV_COUNTER, W
008D  00C2  	MOVWF gbl_FCV_DIV_COUNTER
008E  0008  	RETURN
008F        ; } FCM_pwm1 function end

	ORG 0x0000008F
008F        FCM_pwm0_00000
008F        ; { FCM_pwm0 ; function begin
008F  1283  	BCF STATUS, RP0
0090  1303  	BCF STATUS, RP1
0091  0842  	MOVF gbl_FCV_DIV_COUNTER, W
0092  3C10  	SUBLW 0x10
0093  1803  	BTFSC STATUS,C
0094  28DA  	GOTO	label9
0095  0842  	MOVF gbl_FCV_DIV_COUNTER, W
0096  3C18  	SUBLW 0x18
0097  1803  	BTFSC STATUS,C
0098  28CC  	GOTO	label8
0099  0842  	MOVF gbl_FCV_DIV_COUNTER, W
009A  3C28  	SUBLW 0x28
009B  1803  	BTFSC STATUS,C
009C  28AA  	GOTO	label7
009D  30FE  	MOVLW 0xFE
009E  1683  	BSF STATUS, RP0
009F  0507  	ANDWF gbl_trisc, W
00A0  0087  	MOVWF gbl_trisc
00A1  30FE  	MOVLW 0xFE
00A2  1283  	BCF STATUS, RP0
00A3  0507  	ANDWF gbl_portc, W
00A4  0087  	MOVWF gbl_portc
00A5  3001  	MOVLW 0x01
00A6  00C4  	MOVWF gbl_FCV_DUTY_COUNTER
00A7  01C2  	CLRF gbl_FCV_DIV_COUNTER
00A8  1443  	BSF gbl_FCV_FLAG0,0
00A9  0008  	RETURN
00AA        label7
00AA  0344  	DECF gbl_FCV_DUTY_COUNTER, W
00AB  00C4  	MOVWF gbl_FCV_DUTY_COUNTER
00AC  0A42  	INCF gbl_FCV_DIV_COUNTER, W
00AD  00C2  	MOVWF gbl_FCV_DIV_COUNTER
00AE  30FE  	MOVLW 0xFE
00AF  1683  	BSF STATUS, RP0
00B0  0507  	ANDWF gbl_trisc, W
00B1  0087  	MOVWF gbl_trisc
00B2  30FE  	MOVLW 0xFE
00B3  1283  	BCF STATUS, RP0
00B4  0507  	ANDWF gbl_portc, W
00B5  00C8  	MOVWF CompTempVar2188
00B6  3001  	MOVLW 0x01
00B7  0448  	IORWF CompTempVar2188, W
00B8  0087  	MOVWF gbl_portc
00B9  300A  	MOVLW 0x0A
00BA  00C8  	MOVWF __mul_8_8__00005_arg_a
00BB  0844  	MOVF gbl_FCV_DUTY_COUNTER, W
00BC  00C9  	MOVWF __mul_8_8__00005_arg_b
00BD  2015  	CALL __mul_8_8__00005
00BE  084B  	MOVF CompTempVarRet451, W
00BF  00C6  	MOVWF gbl_FCV_DELAY_1
00C0  0846  	MOVF gbl_FCV_DELAY_1, W
00C1  00C8  	MOVWF delay_us_00000_arg_del
00C2  2010  	CALL delay_us_00000
00C3  30FE  	MOVLW 0xFE
00C4  1683  	BSF STATUS, RP0
00C5  0507  	ANDWF gbl_trisc, W
00C6  0087  	MOVWF gbl_trisc
00C7  30FE  	MOVLW 0xFE
00C8  1283  	BCF STATUS, RP0
00C9  0507  	ANDWF gbl_portc, W
00CA  0087  	MOVWF gbl_portc
00CB  0008  	RETURN
00CC        label8
00CC  30FE  	MOVLW 0xFE
00CD  1683  	BSF STATUS, RP0
00CE  0507  	ANDWF gbl_trisc, W
00CF  0087  	MOVWF gbl_trisc
00D0  30FE  	MOVLW 0xFE
00D1  1283  	BCF STATUS, RP0
00D2  0507  	ANDWF gbl_portc, W
00D3  00C8  	MOVWF CompTempVar2189
00D4  3001  	MOVLW 0x01
00D5  0448  	IORWF CompTempVar2189, W
00D6  0087  	MOVWF gbl_portc
00D7  0A42  	INCF gbl_FCV_DIV_COUNTER, W
00D8  00C2  	MOVWF gbl_FCV_DIV_COUNTER
00D9  0008  	RETURN
00DA        label9
00DA  30FE  	MOVLW 0xFE
00DB  1683  	BSF STATUS, RP0
00DC  0507  	ANDWF gbl_trisc, W
00DD  0087  	MOVWF gbl_trisc
00DE  30FE  	MOVLW 0xFE
00DF  1283  	BCF STATUS, RP0
00E0  0507  	ANDWF gbl_portc, W
00E1  00C8  	MOVWF CompTempVar2190
00E2  3001  	MOVLW 0x01
00E3  0448  	IORWF CompTempVar2190, W
00E4  0087  	MOVWF gbl_portc
00E5  300A  	MOVLW 0x0A
00E6  00C8  	MOVWF __mul_8_8__00005_arg_a
00E7  0844  	MOVF gbl_FCV_DUTY_COUNTER, W
00E8  00C9  	MOVWF __mul_8_8__00005_arg_b
00E9  2015  	CALL __mul_8_8__00005
00EA  084B  	MOVF CompTempVarRet451, W
00EB  00C6  	MOVWF gbl_FCV_DELAY_1
00EC  0846  	MOVF gbl_FCV_DELAY_1, W
00ED  00C8  	MOVWF delay_us_00000_arg_del
00EE  2010  	CALL delay_us_00000
00EF  30FE  	MOVLW 0xFE
00F0  1683  	BSF STATUS, RP0
00F1  0507  	ANDWF gbl_trisc, W
00F2  0087  	MOVWF gbl_trisc
00F3  30FE  	MOVLW 0xFE
00F4  1283  	BCF STATUS, RP0
00F5  0507  	ANDWF gbl_portc, W
00F6  0087  	MOVWF gbl_portc
00F7  0A44  	INCF gbl_FCV_DUTY_COUNTER, W
00F8  00C4  	MOVWF gbl_FCV_DUTY_COUNTER
00F9  0A42  	INCF gbl_FCV_DIV_COUNTER, W
00FA  00C2  	MOVWF gbl_FCV_DIV_COUNTER
00FB  0008  	RETURN
00FC        ; } FCM_pwm0 function end

	ORG 0x000000FC
00FC        FCM_spwm_00000
00FC        ; { FCM_spwm ; function begin
00FC  1283  	BCF STATUS, RP0
00FD  1303  	BCF STATUS, RP1
00FE  1843  	BTFSC gbl_FCV_FLAG0,0
00FF  2902  	GOTO	label10
0100  208F  	CALL FCM_pwm0_00000
0101  0008  	RETURN
0102        label10
0102  2022  	CALL FCM_pwm1_00000
0103  0008  	RETURN
0104        ; } FCM_spwm function end

	ORG 0x00000104
0104        main
0104        ; { main ; function begin
0104  1283  	BCF STATUS, RP0
0105  1703  	BSF STATUS, RP1
0106  019E  	CLRF gbl_ansel
0107  019F  	CLRF gbl_anselh
0108  30C0  	MOVLW 0xC0
0109  1683  	BSF STATUS, RP0
010A  1303  	BCF STATUS, RP1
010B  0081  	MOVWF gbl_option_reg
010C  1283  	BCF STATUS, RP0
010D  01C4  	CLRF gbl_FCV_DUTY_COUNTER
010E  01C2  	CLRF gbl_FCV_DIV_COUNTER
010F  1043  	BCF gbl_FCV_FLAG0,0
0110  1683  	BSF STATUS, RP0
0111  1281  	BCF gbl_option_reg,5
0112  1601  	BSF gbl_option_reg,4
0113  30F0  	MOVLW 0xF0
0114  0501  	ANDWF gbl_option_reg, W
0115  1283  	BCF STATUS, RP0
0116  00C7  	MOVWF CompTempVar2194
0117  3001  	MOVLW 0x01
0118  0447  	IORWF CompTempVar2194, W
0119  1683  	BSF STATUS, RP0
011A  0081  	MOVWF gbl_option_reg
011B  178B  	BSF gbl_intcon,7
011C  168B  	BSF gbl_intcon,5
011D        label11
011D  291D  	GOTO	label11
011E        ; } main function end

	ORG 0x0000011E
011E        _startup
011E  30D5  	MOVLW 0xD5
011F  1283  	BCF STATUS, RP0
0120  1303  	BCF STATUS, RP1
0121  00A0  	MOVWF gbl_14_LSR
0122  30C4  	MOVLW 0xC4
0123  00A1  	MOVWF gbl_14_LSR+D'1'
0124  30BB  	MOVLW 0xBB
0125  00A2  	MOVWF gbl_14_LSR+D'2'
0126  30DC  	MOVLW 0xDC
0127  00A3  	MOVWF gbl_14_LSR+D'3'
0128  01A4  	CLRF gbl_15_gbl_aSig
0129  01A5  	CLRF gbl_15_gbl_aSig+D'1'
012A  01A6  	CLRF gbl_15_gbl_aSig+D'2'
012B  01A7  	CLRF gbl_15_gbl_aSig+D'3'
012C  01A8  	CLRF gbl_15_gbl_bSig
012D  01A9  	CLRF gbl_15_gbl_bSig+D'1'
012E  01AA  	CLRF gbl_15_gbl_bSig+D'2'
012F  01AB  	CLRF gbl_15_gbl_bSig+D'3'
0130  01AC  	CLRF gbl_15_gbl_zSig
0131  01AD  	CLRF gbl_15_gbl_zSig+D'1'
0132  01AE  	CLRF gbl_15_gbl_zSig+D'2'
0133  01AF  	CLRF gbl_15_gbl_zSig+D'3'
0134  01BC  	CLRF gbl_15_gbl_aExp
0135  01BD  	CLRF gbl_15_gbl_bExp
0136  01B7  	CLRF gbl_15_gbl_zExp
0137  01B8  	CLRF gbl_15_gbl_zExp+D'1'
0138  01BE  	CLRF gbl_15_gbl_aSign
0139  01BF  	CLRF gbl_15_gbl_bSign
013A  01C0  	CLRF gbl_15_gbl_zSign
013B  01C1  	CLRF gbl_15_gbl_zSigZero
013C  01B0  	CLRF gbl_15_gbl_ret
013D  01B1  	CLRF gbl_15_gbl_ret+D'1'
013E  01B2  	CLRF gbl_15_gbl_ret+D'2'
013F  01B3  	CLRF gbl_15_gbl_ret+D'3'
0140  01BA  	CLRF gbl_float_rounding_mode
0141  01BB  	CLRF gbl_float_exception_flags
0142  01B9  	CLRF gbl_float_detect_tininess
0143  01C2  	CLRF gbl_FCV_DIV_COUNTER
0144  1043  	BCF gbl_FCV_FLAG0,0
0145  01C4  	CLRF gbl_FCV_DUTY_COUNTER
0146  01C5  	CLRF gbl_FCV_DELAY_0
0147  01C6  	CLRF gbl_FCV_DELAY_1
0148  118A  	BCF PCLATH,3
0149  120A  	BCF PCLATH,4
014A  2904  	GOTO	main
	ORG 0x0000014B
014B        interrupt
014B        ; { interrupt ; function begin
014B  1D0B  	BTFSS gbl_intcon,2
014C  2951  	GOTO	label13
014D  1E8B  	BTFSS gbl_intcon,5
014E  2951  	GOTO	label13
014F  20FC  	CALL FCM_spwm_00000
0150  110B  	BCF gbl_intcon,2
0151        label13
0151  1283  	BCF STATUS, RP0
0152  1303  	BCF STATUS, RP1
0153  0E36  	SWAPF Int1BContext+D'2', W
0154  0084  	MOVWF FSR
0155  0E35  	SWAPF Int1BContext+D'1', W
0156  008A  	MOVWF PCLATH
0157  0E34  	SWAPF Int1BContext, W
0158  0083  	MOVWF STATUS
0159  0EFF  	SWAPF Int1Context, F
015A  0E7F  	SWAPF Int1Context, W
015B  0009  	RETFIE
015C        ; } interrupt function end

	ORG 0x00002007
2007  30C2  	DW 0x30C2
