;/////////////////////////////////////////////////////////////////////////////////
;// Code Generator: BoostC Compiler - http://www.sourceboost.com
;// Version       : 7.03
;// License Type  : Pro License
;// Limitations   : PIC12,PIC16 max code size:Unlimited, max RAM banks:Unlimited
;/////////////////////////////////////////////////////////////////////////////////

	ORG 0x00000000
0000  2A63  	GOTO	_startup
	ORG 0x00000004
0004  00FF  	MOVWF Int1Context
0005  0E03  	SWAPF STATUS, W
0006  1283  	BCF STATUS, RP0
0007  1303  	BCF STATUS, RP1
0008  00B4  	MOVWF Int1BContext
0009  0E0A  	SWAPF PCLATH, W
000A  00B5  	MOVWF Int1BContext+D'1'
000B  0E04  	SWAPF FSR, W
000C  00B6  	MOVWF Int1BContext+D'2'
000D  118A  	BCF PCLATH,3
000E  120A  	BCF PCLATH,4
000F  2A8E  	GOTO	interrupt
	ORG 0x00000010
0010        delay_us_00000
0010        ; { delay_us ; function begin
0010  3003  	MOVLW 0x03
0011  07D4  	ADDWF delay_us_00000_arg_del, F
0012  0CD4  	RRF delay_us_00000_arg_del, F
0013  0CD4  	RRF delay_us_00000_arg_del, F
0014  307F  	MOVLW 0x7F
0015  05D4  	ANDWF delay_us_00000_arg_del, F
0016        label1
0016  0000  	NOP
0017  0BD4  	DECFSZ delay_us_00000_arg_del, F
0018  2816  	GOTO	label1
0019  0008  	RETURN
001A        ; } delay_us function end

	ORG 0x0000001A
001A        delay_ms_00000
001A        ; { delay_ms ; function begin
001A  08CE  	MOVF delay_ms_00000_arg_del, F
001B  1D03  	BTFSS STATUS,Z
001C  281E  	GOTO	label2
001D  0008  	RETURN
001E        label2
001E  30F9  	MOVLW 0xF9
001F        label3
001F  3EFF  	ADDLW 0xFF
0020  1D03  	BTFSS STATUS,Z
0021  281F  	GOTO	label3
0022  0000  	NOP
0023  0BCE  	DECFSZ delay_ms_00000_arg_del, F
0024  281E  	GOTO	label2
0025  0008  	RETURN
0026        ; } delay_ms function end

	ORG 0x00000026
0026        delay_s_00000
0026        ; { delay_s ; function begin
0026        label4
0026  30FA  	MOVLW 0xFA
0027  00CE  	MOVWF delay_ms_00000_arg_del
0028  201A  	CALL delay_ms_00000
0029  30FA  	MOVLW 0xFA
002A  00CE  	MOVWF delay_ms_00000_arg_del
002B  201A  	CALL delay_ms_00000
002C  30FA  	MOVLW 0xFA
002D  00CE  	MOVWF delay_ms_00000_arg_del
002E  201A  	CALL delay_ms_00000
002F  30FA  	MOVLW 0xFA
0030  00CE  	MOVWF delay_ms_00000_arg_del
0031  201A  	CALL delay_ms_00000
0032  0BCD  	DECFSZ delay_s_00000_arg_del, F
0033  2826  	GOTO	label4
0034  0008  	RETURN
0035        ; } delay_s function end

	ORG 0x00000035
0035        FC_CAL_UAR_0005F
0035        ; { FC_CAL_UART_Receive_1 ; function begin
0035  30FF  	MOVLW 0xFF
0036  00CE  	MOVWF FC_CAL_UAR_0005F_1_retVal
0037  01CF  	CLRF FC_CAL_UAR_0005F_1_delay1
0038  01D0  	CLRF FC_CAL_UAR_0005F_1_regcheck
0039  01D1  	CLRF FC_CAL_UAR_0005F_1_bWaitForever
003A  01D2  	CLRF FC_CAL_UAR_0005F_1_rxStatus
003B  01D3  	CLRF FC_CAL_UAR_0005F_1_dummy
003C  0A4D  	INCF FC_CAL_UAR_0005F_arg_nTimeout, W
003D  1D03  	BTFSS STATUS,Z
003E  2841  	GOTO	label5
003F  3001  	MOVLW 0x01
0040  00D1  	MOVWF FC_CAL_UAR_0005F_1_bWaitForever
0041        label5
0041  08D2  	MOVF FC_CAL_UAR_0005F_1_rxStatus, F
0042  1D03  	BTFSS STATUS,Z
0043  2863  	GOTO	label8
0044  08D1  	MOVF FC_CAL_UAR_0005F_1_bWaitForever, F
0045  1D03  	BTFSS STATUS,Z
0046  285A  	GOTO	label7
0047  08CD  	MOVF FC_CAL_UAR_0005F_arg_nTimeout, F
0048  1D03  	BTFSS STATUS,Z
0049  284D  	GOTO	label6
004A  3001  	MOVLW 0x01
004B  00D2  	MOVWF FC_CAL_UAR_0005F_1_rxStatus
004C  285A  	GOTO	label7
004D        label6
004D  300A  	MOVLW 0x0A
004E  00D4  	MOVWF delay_us_00000_arg_del
004F  2010  	CALL delay_us_00000
0050  0A4F  	INCF FC_CAL_UAR_0005F_1_delay1, W
0051  00CF  	MOVWF FC_CAL_UAR_0005F_1_delay1
0052  084F  	MOVF FC_CAL_UAR_0005F_1_delay1, W
0053  3A64  	XORLW 0x64
0054  1D03  	BTFSS STATUS,Z
0055  285A  	GOTO	label7
0056  034D  	DECF FC_CAL_UAR_0005F_arg_nTimeout, W
0057  00CD  	MOVWF FC_CAL_UAR_0005F_arg_nTimeout
0058  0064  	CLRWDT
0059  01CF  	CLRF FC_CAL_UAR_0005F_1_delay1
005A        label7
005A  3020  	MOVLW 0x20
005B  050C  	ANDWF gbl_pir1, W
005C  00D0  	MOVWF FC_CAL_UAR_0005F_1_regcheck
005D  08D0  	MOVF FC_CAL_UAR_0005F_1_regcheck, F
005E  1903  	BTFSC STATUS,Z
005F  2841  	GOTO	label5
0060  3002  	MOVLW 0x02
0061  00D2  	MOVWF FC_CAL_UAR_0005F_1_rxStatus
0062  2841  	GOTO	label5
0063        label8
0063  0852  	MOVF FC_CAL_UAR_0005F_1_rxStatus, W
0064  3A02  	XORLW 0x02
0065  1D03  	BTFSS STATUS,Z
0066  287D  	GOTO	label11
0067  3004  	MOVLW 0x04
0068  0518  	ANDWF gbl_rcsta, W
0069  00D0  	MOVWF FC_CAL_UAR_0005F_1_regcheck
006A  08D0  	MOVF FC_CAL_UAR_0005F_1_regcheck, F
006B  1903  	BTFSC STATUS,Z
006C  2870  	GOTO	label9
006D  081A  	MOVF gbl_rcreg, W
006E  00D3  	MOVWF FC_CAL_UAR_0005F_1_dummy
006F  287D  	GOTO	label11
0070        label9
0070  3002  	MOVLW 0x02
0071  0518  	ANDWF gbl_rcsta, W
0072  00D0  	MOVWF FC_CAL_UAR_0005F_1_regcheck
0073  08D0  	MOVF FC_CAL_UAR_0005F_1_regcheck, F
0074  1903  	BTFSC STATUS,Z
0075  2879  	GOTO	label10
0076  1218  	BCF gbl_rcsta,4
0077  1618  	BSF gbl_rcsta,4
0078  287D  	GOTO	label11
0079        label10
0079  01CE  	CLRF FC_CAL_UAR_0005F_1_retVal
007A  081A  	MOVF gbl_rcreg, W
007B  044E  	IORWF FC_CAL_UAR_0005F_1_retVal, W
007C  00CE  	MOVWF FC_CAL_UAR_0005F_1_retVal
007D        label11
007D  084E  	MOVF FC_CAL_UAR_0005F_1_retVal, W
007E  00D4  	MOVWF CompTempVarRet2196
007F  01D5  	CLRF CompTempVarRet2196+D'1'
0080  0008  	RETURN
0081        ; } FC_CAL_UART_Receive_1 function end

	ORG 0x00000081
0081        FC_CAL_UAR_0005D
0081        ; { FC_CAL_UART_Init_1 ; function begin
0081  1683  	BSF STATUS, RP0
0082  1303  	BCF STATUS, RP1
0083  1518  	BSF gbl_txsta,2
0084  3019  	MOVLW 0x19
0085  0099  	MOVWF gbl_spbrg
0086  1283  	BCF STATUS, RP0
0087  0198  	CLRF gbl_rcsta
0088  1798  	BSF gbl_rcsta,7
0089  1683  	BSF STATUS, RP0
008A  1698  	BSF gbl_txsta,5
008B  1283  	BCF STATUS, RP0
008C  1618  	BSF gbl_rcsta,4
008D  1683  	BSF STATUS, RP0
008E  128C  	BCF gbl_pie1,5
008F  0008  	RETURN
0090        ; } FC_CAL_UART_Init_1 function end

	ORG 0x00000090
0090        FCM_row4_s_0005C
0090        ; { FCM_row4_stop ; function begin
0090  30FB  	MOVLW 0xFB
0091  1683  	BSF STATUS, RP0
0092  1303  	BCF STATUS, RP1
0093  0505  	ANDWF gbl_trisa, W
0094  0085  	MOVWF gbl_trisa
0095  30FB  	MOVLW 0xFB
0096  1283  	BCF STATUS, RP0
0097  0505  	ANDWF gbl_porta, W
0098  0085  	MOVWF gbl_porta
0099  30EF  	MOVLW 0xEF
009A  1683  	BSF STATUS, RP0
009B  0506  	ANDWF gbl_trisb, W
009C  0086  	MOVWF gbl_trisb
009D  30EF  	MOVLW 0xEF
009E  1283  	BCF STATUS, RP0
009F  0506  	ANDWF gbl_portb, W
00A0  0086  	MOVWF gbl_portb
00A1  0008  	RETURN
00A2        ; } FCM_row4_stop function end

	ORG 0x000000A2
00A2        FCM_row4_f_00054
00A2        ; { FCM_row4_forward ; function begin
00A2  30FB  	MOVLW 0xFB
00A3  1683  	BSF STATUS, RP0
00A4  1303  	BCF STATUS, RP1
00A5  0505  	ANDWF gbl_trisa, W
00A6  0085  	MOVWF gbl_trisa
00A7  30FB  	MOVLW 0xFB
00A8  1283  	BCF STATUS, RP0
00A9  0505  	ANDWF gbl_porta, W
00AA  0085  	MOVWF gbl_porta
00AB  30EF  	MOVLW 0xEF
00AC  1683  	BSF STATUS, RP0
00AD  0506  	ANDWF gbl_trisb, W
00AE  0086  	MOVWF gbl_trisb
00AF  30EF  	MOVLW 0xEF
00B0  1283  	BCF STATUS, RP0
00B1  0506  	ANDWF gbl_portb, W
00B2  00CD  	MOVWF CompTempVar2191
00B3  3010  	MOVLW 0x10
00B4  044D  	IORWF CompTempVar2191, W
00B5  0086  	MOVWF gbl_portb
00B6  0008  	RETURN
00B7        ; } FCM_row4_forward function end

	ORG 0x000000B7
00B7        FCM_row3_s_0005B
00B7        ; { FCM_row3_stop ; function begin
00B7  30FE  	MOVLW 0xFE
00B8  1683  	BSF STATUS, RP0
00B9  1303  	BCF STATUS, RP1
00BA  0505  	ANDWF gbl_trisa, W
00BB  0085  	MOVWF gbl_trisa
00BC  30FE  	MOVLW 0xFE
00BD  1283  	BCF STATUS, RP0
00BE  0505  	ANDWF gbl_porta, W
00BF  0085  	MOVWF gbl_porta
00C0  30FD  	MOVLW 0xFD
00C1  1683  	BSF STATUS, RP0
00C2  0505  	ANDWF gbl_trisa, W
00C3  0085  	MOVWF gbl_trisa
00C4  30FD  	MOVLW 0xFD
00C5  1283  	BCF STATUS, RP0
00C6  0505  	ANDWF gbl_porta, W
00C7  0085  	MOVWF gbl_porta
00C8  0008  	RETURN
00C9        ; } FCM_row3_stop function end

	ORG 0x000000C9
00C9        FCM_row3_f_00053
00C9        ; { FCM_row3_forward ; function begin
00C9  30FE  	MOVLW 0xFE
00CA  1683  	BSF STATUS, RP0
00CB  1303  	BCF STATUS, RP1
00CC  0505  	ANDWF gbl_trisa, W
00CD  0085  	MOVWF gbl_trisa
00CE  30FE  	MOVLW 0xFE
00CF  1283  	BCF STATUS, RP0
00D0  0505  	ANDWF gbl_porta, W
00D1  00CD  	MOVWF CompTempVar2190
00D2  3001  	MOVLW 0x01
00D3  044D  	IORWF CompTempVar2190, W
00D4  0085  	MOVWF gbl_porta
00D5  30FD  	MOVLW 0xFD
00D6  1683  	BSF STATUS, RP0
00D7  0505  	ANDWF gbl_trisa, W
00D8  0085  	MOVWF gbl_trisa
00D9  30FD  	MOVLW 0xFD
00DA  1283  	BCF STATUS, RP0
00DB  0505  	ANDWF gbl_porta, W
00DC  0085  	MOVWF gbl_porta
00DD  0008  	RETURN
00DE        ; } FCM_row3_forward function end

	ORG 0x000000DE
00DE        FCM_row2_s_0005A
00DE        ; { FCM_row2_stop ; function begin
00DE  30FB  	MOVLW 0xFB
00DF  1683  	BSF STATUS, RP0
00E0  1303  	BCF STATUS, RP1
00E1  0507  	ANDWF gbl_trisc, W
00E2  0087  	MOVWF gbl_trisc
00E3  30FB  	MOVLW 0xFB
00E4  1283  	BCF STATUS, RP0
00E5  0507  	ANDWF gbl_portc, W
00E6  0087  	MOVWF gbl_portc
00E7  30F7  	MOVLW 0xF7
00E8  1683  	BSF STATUS, RP0
00E9  0507  	ANDWF gbl_trisc, W
00EA  0087  	MOVWF gbl_trisc
00EB  30F7  	MOVLW 0xF7
00EC  1283  	BCF STATUS, RP0
00ED  0507  	ANDWF gbl_portc, W
00EE  0087  	MOVWF gbl_portc
00EF  0008  	RETURN
00F0        ; } FCM_row2_stop function end

	ORG 0x000000F0
00F0        FCM_row2_f_00057
00F0        ; { FCM_row2_forward ; function begin
00F0  30FB  	MOVLW 0xFB
00F1  1683  	BSF STATUS, RP0
00F2  1303  	BCF STATUS, RP1
00F3  0507  	ANDWF gbl_trisc, W
00F4  0087  	MOVWF gbl_trisc
00F5  30FB  	MOVLW 0xFB
00F6  1283  	BCF STATUS, RP0
00F7  0507  	ANDWF gbl_portc, W
00F8  0087  	MOVWF gbl_portc
00F9  30F7  	MOVLW 0xF7
00FA  1683  	BSF STATUS, RP0
00FB  0507  	ANDWF gbl_trisc, W
00FC  0087  	MOVWF gbl_trisc
00FD  30F7  	MOVLW 0xF7
00FE  1283  	BCF STATUS, RP0
00FF  0507  	ANDWF gbl_portc, W
0100  00CD  	MOVWF CompTempVar2194
0101  3008  	MOVLW 0x08
0102  044D  	IORWF CompTempVar2194, W
0103  0087  	MOVWF gbl_portc
0104  0008  	RETURN
0105        ; } FCM_row2_forward function end

	ORG 0x00000105
0105        FCM_row1_s_00059
0105        ; { FCM_row1_stop ; function begin
0105  30FE  	MOVLW 0xFE
0106  1683  	BSF STATUS, RP0
0107  1303  	BCF STATUS, RP1
0108  0507  	ANDWF gbl_trisc, W
0109  0087  	MOVWF gbl_trisc
010A  30FE  	MOVLW 0xFE
010B  1283  	BCF STATUS, RP0
010C  0507  	ANDWF gbl_portc, W
010D  0087  	MOVWF gbl_portc
010E  30FD  	MOVLW 0xFD
010F  1683  	BSF STATUS, RP0
0110  0507  	ANDWF gbl_trisc, W
0111  0087  	MOVWF gbl_trisc
0112  30FD  	MOVLW 0xFD
0113  1283  	BCF STATUS, RP0
0114  0507  	ANDWF gbl_portc, W
0115  0087  	MOVWF gbl_portc
0116  0008  	RETURN
0117        ; } FCM_row1_stop function end

	ORG 0x00000117
0117        FCM_row1_f_00051
0117        ; { FCM_row1_forward ; function begin
0117  30FE  	MOVLW 0xFE
0118  1683  	BSF STATUS, RP0
0119  1303  	BCF STATUS, RP1
011A  0507  	ANDWF gbl_trisc, W
011B  0087  	MOVWF gbl_trisc
011C  30FE  	MOVLW 0xFE
011D  1283  	BCF STATUS, RP0
011E  0507  	ANDWF gbl_portc, W
011F  0087  	MOVWF gbl_portc
0120  30FD  	MOVLW 0xFD
0121  1683  	BSF STATUS, RP0
0122  0507  	ANDWF gbl_trisc, W
0123  0087  	MOVWF gbl_trisc
0124  30FD  	MOVLW 0xFD
0125  1283  	BCF STATUS, RP0
0126  0507  	ANDWF gbl_portc, W
0127  00CD  	MOVWF CompTempVar2188
0128  3002  	MOVLW 0x02
0129  044D  	IORWF CompTempVar2188, W
012A  0087  	MOVWF gbl_portc
012B  0008  	RETURN
012C        ; } FCM_row1_forward function end

	ORG 0x0000012C
012C        FCD_RS2320_00064
012C        ; { FCD_RS2320_ReceiveRS232Char ; function begin
012C  084C  	MOVF FCD_RS2320_00064_arg_nTimeout, W
012D  00CD  	MOVWF FC_CAL_UAR_0005F_arg_nTimeout
012E  2035  	CALL FC_CAL_UAR_0005F
012F  0854  	MOVF CompTempVarRet2196, W
0130  00CD  	MOVWF CompTempVarRet2201
0131  0855  	MOVF CompTempVarRet2196+D'1', W
0132  00CE  	MOVWF CompTempVarRet2201+D'1'
0133  0008  	RETURN
0134        ; } FCD_RS2320_ReceiveRS232Char function end

	ORG 0x00000134
0134        main
0134        ; { main ; function begin
0134  1283  	BCF STATUS, RP0
0135  1703  	BSF STATUS, RP1
0136  019E  	CLRF gbl_ansel
0137  019F  	CLRF gbl_anselh
0138  2081  	CALL FC_CAL_UAR_0005D
0139  30C0  	MOVLW 0xC0
013A  0081  	MOVWF gbl_option_reg
013B  3003  	MOVLW 0x03
013C  1283  	BCF STATUS, RP0
013D  00C7  	MOVWF gbl_FCV_QUANT
013E        label12
013E  30BF  	MOVLW 0xBF
013F  1683  	BSF STATUS, RP0
0140  0507  	ANDWF gbl_trisc, W
0141  0087  	MOVWF gbl_trisc
0142  30BF  	MOVLW 0xBF
0143  1283  	BCF STATUS, RP0
0144  0507  	ANDWF gbl_portc, W
0145  0087  	MOVWF gbl_portc
0146        label13
0146  01B9  	CLRF gbl_FCV_DELAY
0147  01BA  	CLRF gbl_FCV_DELAY+D'1'
0148  01C7  	CLRF gbl_FCV_QUANT
0149  01C5  	CLRF gbl_FCV_ROW
014A  3064  	MOVLW 0x64
014B  00CC  	MOVWF FCD_RS2320_00064_arg_nTimeout
014C  212C  	CALL FCD_RS2320_00064
014D  084D  	MOVF CompTempVarRet2201, W
014E  00C6  	MOVWF gbl_FCV_RX
014F  0846  	MOVF gbl_FCV_RX, W
0150  3A52  	XORLW 0x52
0151  1D03  	BTFSS STATUS,Z
0152  293E  	GOTO	label12
0153  3064  	MOVLW 0x64
0154  00CC  	MOVWF FCD_RS2320_00064_arg_nTimeout
0155  212C  	CALL FCD_RS2320_00064
0156  084D  	MOVF CompTempVarRet2201, W
0157  00C6  	MOVWF gbl_FCV_RX
0158  01C9  	CLRF CompTempVar2207
0159  0846  	MOVF gbl_FCV_RX, W
015A  3C30  	SUBLW 0x30
015B  1C03  	BTFSS STATUS,C
015C  0AC9  	INCF CompTempVar2207, F
015D  01C8  	CLRF CompTempVar2206
015E  3035  	MOVLW 0x35
015F  0246  	SUBWF gbl_FCV_RX, W
0160  1C03  	BTFSS STATUS,C
0161  0AC8  	INCF CompTempVar2206, F
0162  0848  	MOVF CompTempVar2206, W
0163  0549  	ANDWF CompTempVar2207, W
0164  1903  	BTFSC STATUS,Z
0165  2946  	GOTO	label13
0166  3030  	MOVLW 0x30
0167  0246  	SUBWF gbl_FCV_RX, W
0168  00C5  	MOVWF gbl_FCV_ROW
0169  3064  	MOVLW 0x64
016A  00CC  	MOVWF FCD_RS2320_00064_arg_nTimeout
016B  212C  	CALL FCD_RS2320_00064
016C  084D  	MOVF CompTempVarRet2201, W
016D  00C6  	MOVWF gbl_FCV_RX
016E  0846  	MOVF gbl_FCV_RX, W
016F  3A51  	XORLW 0x51
0170  1D03  	BTFSS STATUS,Z
0171  2946  	GOTO	label13
0172  3064  	MOVLW 0x64
0173  00CC  	MOVWF FCD_RS2320_00064_arg_nTimeout
0174  212C  	CALL FCD_RS2320_00064
0175  084D  	MOVF CompTempVarRet2201, W
0176  00C6  	MOVWF gbl_FCV_RX
0177  01CB  	CLRF CompTempVar2209
0178  0846  	MOVF gbl_FCV_RX, W
0179  3C30  	SUBLW 0x30
017A  1C03  	BTFSS STATUS,C
017B  0ACB  	INCF CompTempVar2209, F
017C  01CA  	CLRF CompTempVar2208
017D  0846  	MOVF gbl_FCV_RX, W
017E  3C39  	SUBLW 0x39
017F  1803  	BTFSC STATUS,C
0180  0ACA  	INCF CompTempVar2208, F
0181  084A  	MOVF CompTempVar2208, W
0182  054B  	ANDWF CompTempVar2209, W
0183  1903  	BTFSC STATUS,Z
0184  2946  	GOTO	label13
0185  3030  	MOVLW 0x30
0186  0246  	SUBWF gbl_FCV_RX, W
0187  00C7  	MOVWF gbl_FCV_QUANT
0188  01C4  	CLRF gbl_FCV_LOOP
0189  0845  	MOVF gbl_FCV_ROW, W
018A  3A01  	XORLW 0x01
018B  1903  	BTFSC STATUS,Z
018C  2997  	GOTO	label14
018D  3A03  	XORLW 0x03
018E  1903  	BTFSC STATUS,Z
018F  29CA  	GOTO	label17
0190  3A01  	XORLW 0x01
0191  1903  	BTFSC STATUS,Z
0192  29FD  	GOTO	label20
0193  3A07  	XORLW 0x07
0194  1903  	BTFSC STATUS,Z
0195  2A30  	GOTO	label23
0196  2946  	GOTO	label13
0197        label14
0197  30BF  	MOVLW 0xBF
0198  1683  	BSF STATUS, RP0
0199  0507  	ANDWF gbl_trisc, W
019A  0087  	MOVWF gbl_trisc
019B  30BF  	MOVLW 0xBF
019C  1283  	BCF STATUS, RP0
019D  0507  	ANDWF gbl_portc, W
019E  00CD  	MOVWF CompTempVar2212
019F  3040  	MOVLW 0x40
01A0  044D  	IORWF CompTempVar2212, W
01A1  0087  	MOVWF gbl_portc
01A2  3002  	MOVLW 0x02
01A3  00CD  	MOVWF delay_s_00000_arg_del
01A4  2026  	CALL delay_s_00000
01A5        label15
01A5  01CC  	CLRF CompTempVar2211
01A6  0847  	MOVF gbl_FCV_QUANT, W
01A7  0244  	SUBWF gbl_FCV_LOOP, W
01A8  1903  	BTFSC STATUS,Z
01A9  0ACC  	INCF CompTempVar2211, F
01AA  08CC  	MOVF CompTempVar2211, F
01AB  1D03  	BTFSS STATUS,Z
01AC  29BE  	GOTO	label16
01AD  2117  	CALL FCM_row1_f_00051
01AE  30FF  	MOVLW 0xFF
01AF  00CE  	MOVWF delay_ms_00000_arg_del
01B0  201A  	CALL delay_ms_00000
01B1  30FF  	MOVLW 0xFF
01B2  00CE  	MOVWF delay_ms_00000_arg_del
01B3  201A  	CALL delay_ms_00000
01B4  305A  	MOVLW 0x5A
01B5  00CE  	MOVWF delay_ms_00000_arg_del
01B6  201A  	CALL delay_ms_00000
01B7  2105  	CALL FCM_row1_s_00059
01B8  3002  	MOVLW 0x02
01B9  00CD  	MOVWF delay_s_00000_arg_del
01BA  2026  	CALL delay_s_00000
01BB  0A44  	INCF gbl_FCV_LOOP, W
01BC  00C4  	MOVWF gbl_FCV_LOOP
01BD  29A5  	GOTO	label15
01BE        label16
01BE  3001  	MOVLW 0x01
01BF  00CD  	MOVWF delay_s_00000_arg_del
01C0  2026  	CALL delay_s_00000
01C1  30BF  	MOVLW 0xBF
01C2  1683  	BSF STATUS, RP0
01C3  0507  	ANDWF gbl_trisc, W
01C4  0087  	MOVWF gbl_trisc
01C5  30BF  	MOVLW 0xBF
01C6  1283  	BCF STATUS, RP0
01C7  0507  	ANDWF gbl_portc, W
01C8  0087  	MOVWF gbl_portc
01C9  293E  	GOTO	label12
01CA        label17
01CA  30BF  	MOVLW 0xBF
01CB  1683  	BSF STATUS, RP0
01CC  0507  	ANDWF gbl_trisc, W
01CD  0087  	MOVWF gbl_trisc
01CE  30BF  	MOVLW 0xBF
01CF  1283  	BCF STATUS, RP0
01D0  0507  	ANDWF gbl_portc, W
01D1  00CD  	MOVWF CompTempVar2215
01D2  3040  	MOVLW 0x40
01D3  044D  	IORWF CompTempVar2215, W
01D4  0087  	MOVWF gbl_portc
01D5  3002  	MOVLW 0x02
01D6  00CD  	MOVWF delay_s_00000_arg_del
01D7  2026  	CALL delay_s_00000
01D8        label18
01D8  01CC  	CLRF CompTempVar2214
01D9  0847  	MOVF gbl_FCV_QUANT, W
01DA  0244  	SUBWF gbl_FCV_LOOP, W
01DB  1903  	BTFSC STATUS,Z
01DC  0ACC  	INCF CompTempVar2214, F
01DD  08CC  	MOVF CompTempVar2214, F
01DE  1D03  	BTFSS STATUS,Z
01DF  29F1  	GOTO	label19
01E0  20F0  	CALL FCM_row2_f_00057
01E1  30FF  	MOVLW 0xFF
01E2  00CE  	MOVWF delay_ms_00000_arg_del
01E3  201A  	CALL delay_ms_00000
01E4  30FF  	MOVLW 0xFF
01E5  00CE  	MOVWF delay_ms_00000_arg_del
01E6  201A  	CALL delay_ms_00000
01E7  305A  	MOVLW 0x5A
01E8  00CE  	MOVWF delay_ms_00000_arg_del
01E9  201A  	CALL delay_ms_00000
01EA  20DE  	CALL FCM_row2_s_0005A
01EB  3002  	MOVLW 0x02
01EC  00CD  	MOVWF delay_s_00000_arg_del
01ED  2026  	CALL delay_s_00000
01EE  0A44  	INCF gbl_FCV_LOOP, W
01EF  00C4  	MOVWF gbl_FCV_LOOP
01F0  29D8  	GOTO	label18
01F1        label19
01F1  3001  	MOVLW 0x01
01F2  00CD  	MOVWF delay_s_00000_arg_del
01F3  2026  	CALL delay_s_00000
01F4  30BF  	MOVLW 0xBF
01F5  1683  	BSF STATUS, RP0
01F6  0507  	ANDWF gbl_trisc, W
01F7  0087  	MOVWF gbl_trisc
01F8  30BF  	MOVLW 0xBF
01F9  1283  	BCF STATUS, RP0
01FA  0507  	ANDWF gbl_portc, W
01FB  0087  	MOVWF gbl_portc
01FC  293E  	GOTO	label12
01FD        label20
01FD  30BF  	MOVLW 0xBF
01FE  1683  	BSF STATUS, RP0
01FF  0507  	ANDWF gbl_trisc, W
0200  0087  	MOVWF gbl_trisc
0201  30BF  	MOVLW 0xBF
0202  1283  	BCF STATUS, RP0
0203  0507  	ANDWF gbl_portc, W
0204  00CD  	MOVWF CompTempVar2218
0205  3040  	MOVLW 0x40
0206  044D  	IORWF CompTempVar2218, W
0207  0087  	MOVWF gbl_portc
0208  3002  	MOVLW 0x02
0209  00CD  	MOVWF delay_s_00000_arg_del
020A  2026  	CALL delay_s_00000
020B        label21
020B  01CC  	CLRF CompTempVar2217
020C  0847  	MOVF gbl_FCV_QUANT, W
020D  0244  	SUBWF gbl_FCV_LOOP, W
020E  1903  	BTFSC STATUS,Z
020F  0ACC  	INCF CompTempVar2217, F
0210  08CC  	MOVF CompTempVar2217, F
0211  1D03  	BTFSS STATUS,Z
0212  2A24  	GOTO	label22
0213  20C9  	CALL FCM_row3_f_00053
0214  30FF  	MOVLW 0xFF
0215  00CE  	MOVWF delay_ms_00000_arg_del
0216  201A  	CALL delay_ms_00000
0217  30FF  	MOVLW 0xFF
0218  00CE  	MOVWF delay_ms_00000_arg_del
0219  201A  	CALL delay_ms_00000
021A  305A  	MOVLW 0x5A
021B  00CE  	MOVWF delay_ms_00000_arg_del
021C  201A  	CALL delay_ms_00000
021D  20B7  	CALL FCM_row3_s_0005B
021E  3002  	MOVLW 0x02
021F  00CD  	MOVWF delay_s_00000_arg_del
0220  2026  	CALL delay_s_00000
0221  0A44  	INCF gbl_FCV_LOOP, W
0222  00C4  	MOVWF gbl_FCV_LOOP
0223  2A0B  	GOTO	label21
0224        label22
0224  3001  	MOVLW 0x01
0225  00CD  	MOVWF delay_s_00000_arg_del
0226  2026  	CALL delay_s_00000
0227  30BF  	MOVLW 0xBF
0228  1683  	BSF STATUS, RP0
0229  0507  	ANDWF gbl_trisc, W
022A  0087  	MOVWF gbl_trisc
022B  30BF  	MOVLW 0xBF
022C  1283  	BCF STATUS, RP0
022D  0507  	ANDWF gbl_portc, W
022E  0087  	MOVWF gbl_portc
022F  293E  	GOTO	label12
0230        label23
0230  30BF  	MOVLW 0xBF
0231  1683  	BSF STATUS, RP0
0232  0507  	ANDWF gbl_trisc, W
0233  0087  	MOVWF gbl_trisc
0234  30BF  	MOVLW 0xBF
0235  1283  	BCF STATUS, RP0
0236  0507  	ANDWF gbl_portc, W
0237  00CD  	MOVWF CompTempVar2221
0238  3040  	MOVLW 0x40
0239  044D  	IORWF CompTempVar2221, W
023A  0087  	MOVWF gbl_portc
023B  3002  	MOVLW 0x02
023C  00CD  	MOVWF delay_s_00000_arg_del
023D  2026  	CALL delay_s_00000
023E        label24
023E  01CC  	CLRF CompTempVar2220
023F  0847  	MOVF gbl_FCV_QUANT, W
0240  0244  	SUBWF gbl_FCV_LOOP, W
0241  1903  	BTFSC STATUS,Z
0242  0ACC  	INCF CompTempVar2220, F
0243  08CC  	MOVF CompTempVar2220, F
0244  1D03  	BTFSS STATUS,Z
0245  2A57  	GOTO	label25
0246  20A2  	CALL FCM_row4_f_00054
0247  30FF  	MOVLW 0xFF
0248  00CE  	MOVWF delay_ms_00000_arg_del
0249  201A  	CALL delay_ms_00000
024A  30FF  	MOVLW 0xFF
024B  00CE  	MOVWF delay_ms_00000_arg_del
024C  201A  	CALL delay_ms_00000
024D  305A  	MOVLW 0x5A
024E  00CE  	MOVWF delay_ms_00000_arg_del
024F  201A  	CALL delay_ms_00000
0250  2090  	CALL FCM_row4_s_0005C
0251  3002  	MOVLW 0x02
0252  00CD  	MOVWF delay_s_00000_arg_del
0253  2026  	CALL delay_s_00000
0254  0A44  	INCF gbl_FCV_LOOP, W
0255  00C4  	MOVWF gbl_FCV_LOOP
0256  2A3E  	GOTO	label24
0257        label25
0257  3001  	MOVLW 0x01
0258  00CD  	MOVWF delay_s_00000_arg_del
0259  2026  	CALL delay_s_00000
025A  30BF  	MOVLW 0xBF
025B  1683  	BSF STATUS, RP0
025C  0507  	ANDWF gbl_trisc, W
025D  0087  	MOVWF gbl_trisc
025E  30BF  	MOVLW 0xBF
025F  1283  	BCF STATUS, RP0
0260  0507  	ANDWF gbl_portc, W
0261  0087  	MOVWF gbl_portc
0262  293E  	GOTO	label12
0263        ; } main function end

	ORG 0x00000263
0263        _startup
0263  30D5  	MOVLW 0xD5
0264  1283  	BCF STATUS, RP0
0265  1303  	BCF STATUS, RP1
0266  00A0  	MOVWF gbl_14_LSR
0267  30C4  	MOVLW 0xC4
0268  00A1  	MOVWF gbl_14_LSR+D'1'
0269  30BB  	MOVLW 0xBB
026A  00A2  	MOVWF gbl_14_LSR+D'2'
026B  30DC  	MOVLW 0xDC
026C  00A3  	MOVWF gbl_14_LSR+D'3'
026D  01A4  	CLRF gbl_15_gbl_aSig
026E  01A5  	CLRF gbl_15_gbl_aSig+D'1'
026F  01A6  	CLRF gbl_15_gbl_aSig+D'2'
0270  01A7  	CLRF gbl_15_gbl_aSig+D'3'
0271  01A8  	CLRF gbl_15_gbl_bSig
0272  01A9  	CLRF gbl_15_gbl_bSig+D'1'
0273  01AA  	CLRF gbl_15_gbl_bSig+D'2'
0274  01AB  	CLRF gbl_15_gbl_bSig+D'3'
0275  01AC  	CLRF gbl_15_gbl_zSig
0276  01AD  	CLRF gbl_15_gbl_zSig+D'1'
0277  01AE  	CLRF gbl_15_gbl_zSig+D'2'
0278  01AF  	CLRF gbl_15_gbl_zSig+D'3'
0279  01BE  	CLRF gbl_15_gbl_aExp
027A  01BF  	CLRF gbl_15_gbl_bExp
027B  01B7  	CLRF gbl_15_gbl_zExp
027C  01B8  	CLRF gbl_15_gbl_zExp+D'1'
027D  01C0  	CLRF gbl_15_gbl_aSign
027E  01C1  	CLRF gbl_15_gbl_bSign
027F  01C2  	CLRF gbl_15_gbl_zSign
0280  01C3  	CLRF gbl_15_gbl_zSigZero
0281  01B0  	CLRF gbl_15_gbl_ret
0282  01B1  	CLRF gbl_15_gbl_ret+D'1'
0283  01B2  	CLRF gbl_15_gbl_ret+D'2'
0284  01B3  	CLRF gbl_15_gbl_ret+D'3'
0285  01BC  	CLRF gbl_float_rounding_mode
0286  01BD  	CLRF gbl_float_exception_flags
0287  01BB  	CLRF gbl_float_detect_tininess
0288  01C4  	CLRF gbl_FCV_LOOP
0289  01B9  	CLRF gbl_FCV_DELAY
028A  01BA  	CLRF gbl_FCV_DELAY+D'1'
028B  118A  	BCF PCLATH,3
028C  120A  	BCF PCLATH,4
028D  2934  	GOTO	main
	ORG 0x0000028E
028E        interrupt
028E        ; { interrupt ; function begin
028E  1283  	BCF STATUS, RP0
028F  1303  	BCF STATUS, RP1
0290  0E36  	SWAPF Int1BContext+D'2', W
0291  0084  	MOVWF FSR
0292  0E35  	SWAPF Int1BContext+D'1', W
0293  008A  	MOVWF PCLATH
0294  0E34  	SWAPF Int1BContext, W
0295  0083  	MOVWF STATUS
0296  0EFF  	SWAPF Int1Context, F
0297  0E7F  	SWAPF Int1Context, W
0298  0009  	RETFIE
0299        ; } interrupt function end

	ORG 0x00002007
2007  30D4  	DW 0x30D4
