;/////////////////////////////////////////////////////////////////////////////////
;// Code Generator: BoostC Compiler - http://www.sourceboost.com
;// Version       : 7.03
;// License Type  : Pro License
;// Limitations   : PIC12,PIC16 max code size:Unlimited, max RAM banks:Unlimited
;/////////////////////////////////////////////////////////////////////////////////

	ORG 0x00000000
0000  293C  	GOTO	_startup
	ORG 0x00000004
0004  00FF  	MOVWF Int1Context
0005  0E03  	SWAPF STATUS, W
0006  1283  	BCF STATUS, RP0
0007  1303  	BCF STATUS, RP1
0008  00B4  	MOVWF Int1BContext
0009  0E0A  	SWAPF PCLATH, W
000A  00B5  	MOVWF Int1BContext+D'1'
000B  0E04  	SWAPF FSR, W
000C  00B6  	MOVWF Int1BContext+D'2'
000D  118A  	BCF PCLATH,3
000E  120A  	BCF PCLATH,4
000F  2966  	GOTO	interrupt
	ORG 0x00000010
0010        delay_ms_00000
0010        ; { delay_ms ; function begin
0010  08C7  	MOVF delay_ms_00000_arg_del, F
0011  1D03  	BTFSS STATUS,Z
0012  2814  	GOTO	label1
0013  0008  	RETURN
0014        label1
0014  307C  	MOVLW 0x7C
0015        label2
0015  3EFF  	ADDLW 0xFF
0016  1D03  	BTFSS STATUS,Z
0017  2815  	GOTO	label2
0018  0000  	NOP
0019  0BC7  	DECFSZ delay_ms_00000_arg_del, F
001A  2814  	GOTO	label1
001B  0008  	RETURN
001C        ; } delay_ms function end

	ORG 0x0000001C
001C        delay_10us_00000
001C        ; { delay_10us ; function begin
001C        label3
001C  0000  	NOP
001D  0000  	NOP
001E  0BD6  	DECFSZ delay_10us_00000_arg_del, F
001F  281C  	GOTO	label3
0020  0008  	RETURN
0021        ; } delay_10us function end

	ORG 0x00000021
0021        Wdt_Delay__0003E
0021        ; { Wdt_Delay_Ms ; function begin
0021  01C6  	CLRF Wdt_Delay__0003E_1_i
0022        label4
0022  0845  	MOVF Wdt_Delay__0003E_arg_delay, W
0023  0246  	SUBWF Wdt_Delay__0003E_1_i, W
0024  1803  	BTFSC STATUS,C
0025  0008  	RETURN
0026  0064  	CLRWDT
0027  3001  	MOVLW 0x01
0028  00C7  	MOVWF delay_ms_00000_arg_del
0029  2010  	CALL delay_ms_00000
002A  0AC6  	INCF Wdt_Delay__0003E_1_i, F
002B  2822  	GOTO	label4
002C        ; } Wdt_Delay_Ms function end

	ORG 0x0000002C
002C        FC_CAL_I2C_00062
002C        ; { FC_CAL_I2C_Master_Init_1 ; function begin
002C  1683  	BSF STATUS, RP0
002D  1303  	BCF STATUS, RP1
002E  1607  	BSF gbl_trisc,4
002F  1587  	BSF gbl_trisc,3
0030  0008  	RETURN
0031        ; } FC_CAL_I2C_Master_Init_1 function end

	ORG 0x00000031
0031        FCD_LCDDis_00056
0031        ; { FCD_LCDDisplay0_RawSend ; function begin
0031  1107  	BCF gbl_portc,2
0032  1186  	BCF gbl_portb,3
0033  1206  	BCF gbl_portb,4
0034  1287  	BCF gbl_portc,5
0035  1007  	BCF gbl_portc,0
0036  1087  	BCF gbl_portc,1
0037  0E53  	SWAPF FCD_LCDDis_00056_arg_in, W
0038  390F  	ANDLW 0x0F
0039  00D5  	MOVWF FCD_LCDDis_00056_1_pt
003A  300F  	MOVLW 0x0F
003B  05D5  	ANDWF FCD_LCDDis_00056_1_pt, F
003C  1855  	BTFSC FCD_LCDDis_00056_1_pt,0
003D  1507  	BSF gbl_portc,2
003E  18D5  	BTFSC FCD_LCDDis_00056_1_pt,1
003F  1586  	BSF gbl_portb,3
0040  1955  	BTFSC FCD_LCDDis_00056_1_pt,2
0041  1606  	BSF gbl_portb,4
0042  19D5  	BTFSC FCD_LCDDis_00056_1_pt,3
0043  1687  	BSF gbl_portc,5
0044  08D4  	MOVF FCD_LCDDis_00056_arg_mask, F
0045  1D03  	BTFSS STATUS,Z
0046  1407  	BSF gbl_portc,0
0047  300A  	MOVLW 0x0A
0048  00D6  	MOVWF delay_10us_00000_arg_del
0049  201C  	CALL delay_10us_00000
004A  1487  	BSF gbl_portc,1
004B  300A  	MOVLW 0x0A
004C  00D6  	MOVWF delay_10us_00000_arg_del
004D  201C  	CALL delay_10us_00000
004E  1087  	BCF gbl_portc,1
004F  300F  	MOVLW 0x0F
0050  0553  	ANDWF FCD_LCDDis_00056_arg_in, W
0051  00D5  	MOVWF FCD_LCDDis_00056_1_pt
0052  300A  	MOVLW 0x0A
0053  00D6  	MOVWF delay_10us_00000_arg_del
0054  201C  	CALL delay_10us_00000
0055  1107  	BCF gbl_portc,2
0056  1186  	BCF gbl_portb,3
0057  1206  	BCF gbl_portb,4
0058  1287  	BCF gbl_portc,5
0059  1007  	BCF gbl_portc,0
005A  1087  	BCF gbl_portc,1
005B  1855  	BTFSC FCD_LCDDis_00056_1_pt,0
005C  1507  	BSF gbl_portc,2
005D  18D5  	BTFSC FCD_LCDDis_00056_1_pt,1
005E  1586  	BSF gbl_portb,3
005F  1955  	BTFSC FCD_LCDDis_00056_1_pt,2
0060  1606  	BSF gbl_portb,4
0061  19D5  	BTFSC FCD_LCDDis_00056_1_pt,3
0062  1687  	BSF gbl_portc,5
0063  08D4  	MOVF FCD_LCDDis_00056_arg_mask, F
0064  1D03  	BTFSS STATUS,Z
0065  1407  	BSF gbl_portc,0
0066  300A  	MOVLW 0x0A
0067  00D6  	MOVWF delay_10us_00000_arg_del
0068  201C  	CALL delay_10us_00000
0069  1487  	BSF gbl_portc,1
006A  300A  	MOVLW 0x0A
006B  00D6  	MOVWF delay_10us_00000_arg_del
006C  201C  	CALL delay_10us_00000
006D  1087  	BCF gbl_portc,1
006E  300A  	MOVLW 0x0A
006F  00D6  	MOVWF delay_10us_00000_arg_del
0070  201C  	CALL delay_10us_00000
0071  0008  	RETURN
0072        ; } FCD_LCDDisplay0_RawSend function end

	ORG 0x00000072
0072        FCD_LCDDis_0005D
0072        ; { FCD_LCDDisplay0_PrintString ; function begin
0072  01D2  	CLRF FCD_LCDDis_0005D_1_idx
0073  01D2  	CLRF FCD_LCDDis_0005D_1_idx
0074        label5
0074  0851  	MOVF FCD_LCDDis_0005D_arg_MSZ_String, W
0075  0252  	SUBWF FCD_LCDDis_0005D_1_idx, W
0076  1803  	BTFSC STATUS,C
0077  0008  	RETURN
0078  1383  	BCF STATUS,IRP
0079  1844  	BTFSC FCD_LCDDis_0005D_arg_String+D'1',0
007A  1783  	BSF STATUS,IRP
007B  0843  	MOVF FCD_LCDDis_0005D_arg_String, W
007C  0752  	ADDWF FCD_LCDDis_0005D_1_idx, W
007D  0084  	MOVWF FSR
007E  0880  	MOVF INDF, F
007F  1903  	BTFSC STATUS,Z
0080  0008  	RETURN
0081  1383  	BCF STATUS,IRP
0082  1844  	BTFSC FCD_LCDDis_0005D_arg_String+D'1',0
0083  1783  	BSF STATUS,IRP
0084  0843  	MOVF FCD_LCDDis_0005D_arg_String, W
0085  0752  	ADDWF FCD_LCDDis_0005D_1_idx, W
0086  0084  	MOVWF FSR
0087  0800  	MOVF INDF, W
0088  00D3  	MOVWF FCD_LCDDis_00056_arg_in
0089  3010  	MOVLW 0x10
008A  00D4  	MOVWF FCD_LCDDis_00056_arg_mask
008B  2031  	CALL FCD_LCDDis_00056
008C  0AD2  	INCF FCD_LCDDis_0005D_1_idx, F
008D  2874  	GOTO	label5
008E        ; } FCD_LCDDisplay0_PrintString function end

	ORG 0x0000008E
008E        FCD_LCDDis_0005B
008E        ; { FCD_LCDDisplay0_Cursor ; function begin
008E  08C4  	MOVF FCD_LCDDis_0005B_arg_y, F
008F  1D03  	BTFSS STATUS,Z
0090  2894  	GOTO	label6
0091  3080  	MOVLW 0x80
0092  00C4  	MOVWF FCD_LCDDis_0005B_arg_y
0093  28A3  	GOTO	label9
0094        label6
0094  0344  	DECF FCD_LCDDis_0005B_arg_y, W
0095  1D03  	BTFSS STATUS,Z
0096  289A  	GOTO	label7
0097  30C0  	MOVLW 0xC0
0098  00C4  	MOVWF FCD_LCDDis_0005B_arg_y
0099  28A3  	GOTO	label9
009A        label7
009A  0844  	MOVF FCD_LCDDis_0005B_arg_y, W
009B  3A02  	XORLW 0x02
009C  1D03  	BTFSS STATUS,Z
009D  28A1  	GOTO	label8
009E  3094  	MOVLW 0x94
009F  00C4  	MOVWF FCD_LCDDis_0005B_arg_y
00A0  28A3  	GOTO	label9
00A1        label8
00A1  30D4  	MOVLW 0xD4
00A2  00C4  	MOVWF FCD_LCDDis_0005B_arg_y
00A3        label9
00A3  0843  	MOVF FCD_LCDDis_0005B_arg_x, W
00A4  0744  	ADDWF FCD_LCDDis_0005B_arg_y, W
00A5  00D3  	MOVWF FCD_LCDDis_00056_arg_in
00A6  01D4  	CLRF FCD_LCDDis_00056_arg_mask
00A7  2031  	CALL FCD_LCDDis_00056
00A8  3002  	MOVLW 0x02
00A9  00C5  	MOVWF Wdt_Delay__0003E_arg_delay
00AA  2021  	CALL Wdt_Delay__0003E
00AB  0008  	RETURN
00AC        ; } FCD_LCDDisplay0_Cursor function end

	ORG 0x000000AC
00AC        FCD_LCDDis_00058
00AC        ; { FCD_LCDDisplay0_Clear ; function begin
00AC  3001  	MOVLW 0x01
00AD  1283  	BCF STATUS, RP0
00AE  1303  	BCF STATUS, RP1
00AF  00D3  	MOVWF FCD_LCDDis_00056_arg_in
00B0  01D4  	CLRF FCD_LCDDis_00056_arg_mask
00B1  2031  	CALL FCD_LCDDis_00056
00B2  3002  	MOVLW 0x02
00B3  00C5  	MOVWF Wdt_Delay__0003E_arg_delay
00B4  2021  	CALL Wdt_Delay__0003E
00B5  3002  	MOVLW 0x02
00B6  00D3  	MOVWF FCD_LCDDis_00056_arg_in
00B7  01D4  	CLRF FCD_LCDDis_00056_arg_mask
00B8  2031  	CALL FCD_LCDDis_00056
00B9  3002  	MOVLW 0x02
00BA  00C5  	MOVWF Wdt_Delay__0003E_arg_delay
00BB  2021  	CALL Wdt_Delay__0003E
00BC  0008  	RETURN
00BD        ; } FCD_LCDDisplay0_Clear function end

	ORG 0x000000BD
00BD        FCD_LCDDis_00057
00BD        ; { FCD_LCDDisplay0_Start ; function begin
00BD  1683  	BSF STATUS, RP0
00BE  1303  	BCF STATUS, RP1
00BF  1107  	BCF gbl_trisc,2
00C0  1283  	BCF STATUS, RP0
00C1  1107  	BCF gbl_portc,2
00C2  1683  	BSF STATUS, RP0
00C3  1186  	BCF gbl_trisb,3
00C4  1283  	BCF STATUS, RP0
00C5  1186  	BCF gbl_portb,3
00C6  1683  	BSF STATUS, RP0
00C7  1206  	BCF gbl_trisb,4
00C8  1283  	BCF STATUS, RP0
00C9  1206  	BCF gbl_portb,4
00CA  1683  	BSF STATUS, RP0
00CB  1287  	BCF gbl_trisc,5
00CC  1283  	BCF STATUS, RP0
00CD  1287  	BCF gbl_portc,5
00CE  1683  	BSF STATUS, RP0
00CF  1007  	BCF gbl_trisc,0
00D0  1283  	BCF STATUS, RP0
00D1  1007  	BCF gbl_portc,0
00D2  1683  	BSF STATUS, RP0
00D3  1087  	BCF gbl_trisc,1
00D4  1283  	BCF STATUS, RP0
00D5  1087  	BCF gbl_portc,1
00D6  300C  	MOVLW 0x0C
00D7  00C5  	MOVWF Wdt_Delay__0003E_arg_delay
00D8  2021  	CALL Wdt_Delay__0003E
00D9  3033  	MOVLW 0x33
00DA  00D3  	MOVWF FCD_LCDDis_00056_arg_in
00DB  01D4  	CLRF FCD_LCDDis_00056_arg_mask
00DC  2031  	CALL FCD_LCDDis_00056
00DD  3002  	MOVLW 0x02
00DE  00C5  	MOVWF Wdt_Delay__0003E_arg_delay
00DF  2021  	CALL Wdt_Delay__0003E
00E0  3033  	MOVLW 0x33
00E1  00D3  	MOVWF FCD_LCDDis_00056_arg_in
00E2  01D4  	CLRF FCD_LCDDis_00056_arg_mask
00E3  2031  	CALL FCD_LCDDis_00056
00E4  3002  	MOVLW 0x02
00E5  00C5  	MOVWF Wdt_Delay__0003E_arg_delay
00E6  2021  	CALL Wdt_Delay__0003E
00E7  3032  	MOVLW 0x32
00E8  00D3  	MOVWF FCD_LCDDis_00056_arg_in
00E9  01D4  	CLRF FCD_LCDDis_00056_arg_mask
00EA  2031  	CALL FCD_LCDDis_00056
00EB  3002  	MOVLW 0x02
00EC  00C5  	MOVWF Wdt_Delay__0003E_arg_delay
00ED  2021  	CALL Wdt_Delay__0003E
00EE  302C  	MOVLW 0x2C
00EF  00D3  	MOVWF FCD_LCDDis_00056_arg_in
00F0  01D4  	CLRF FCD_LCDDis_00056_arg_mask
00F1  2031  	CALL FCD_LCDDis_00056
00F2  3002  	MOVLW 0x02
00F3  00C5  	MOVWF Wdt_Delay__0003E_arg_delay
00F4  2021  	CALL Wdt_Delay__0003E
00F5  3006  	MOVLW 0x06
00F6  00D3  	MOVWF FCD_LCDDis_00056_arg_in
00F7  01D4  	CLRF FCD_LCDDis_00056_arg_mask
00F8  2031  	CALL FCD_LCDDis_00056
00F9  3002  	MOVLW 0x02
00FA  00C5  	MOVWF Wdt_Delay__0003E_arg_delay
00FB  2021  	CALL Wdt_Delay__0003E
00FC  300C  	MOVLW 0x0C
00FD  00D3  	MOVWF FCD_LCDDis_00056_arg_in
00FE  01D4  	CLRF FCD_LCDDis_00056_arg_mask
00FF  2031  	CALL FCD_LCDDis_00056
0100  3002  	MOVLW 0x02
0101  00C5  	MOVWF Wdt_Delay__0003E_arg_delay
0102  2021  	CALL Wdt_Delay__0003E
0103  3001  	MOVLW 0x01
0104  00D3  	MOVWF FCD_LCDDis_00056_arg_in
0105  01D4  	CLRF FCD_LCDDis_00056_arg_mask
0106  2031  	CALL FCD_LCDDis_00056
0107  3002  	MOVLW 0x02
0108  00C5  	MOVWF Wdt_Delay__0003E_arg_delay
0109  2021  	CALL Wdt_Delay__0003E
010A  3002  	MOVLW 0x02
010B  00D3  	MOVWF FCD_LCDDis_00056_arg_in
010C  01D4  	CLRF FCD_LCDDis_00056_arg_mask
010D  2031  	CALL FCD_LCDDis_00056
010E  3002  	MOVLW 0x02
010F  00C5  	MOVWF Wdt_Delay__0003E_arg_delay
0110  2021  	CALL Wdt_Delay__0003E
0111  0008  	RETURN
0112        ; } FCD_LCDDisplay0_Start function end

	ORG 0x00000112
0112        FCD_I2C_Ma_00069
0112        ; { FCD_I2C_Master0_MI2C_Init ; function begin
0112  202C  	CALL FC_CAL_I2C_00062
0113  0008  	RETURN
0114        ; } FCD_I2C_Master0_MI2C_Init function end

	ORG 0x00000114
0114        main
0114        ; { main ; function begin
0114  3007  	MOVLW 0x07
0115  1683  	BSF STATUS, RP0
0116  1303  	BCF STATUS, RP1
0117  009F  	MOVWF gbl_adcon1
0118  30C0  	MOVLW 0xC0
0119  0081  	MOVWF gbl_option_reg
011A  2112  	CALL FCD_I2C_Ma_00069
011B  20BD  	CALL FCD_LCDDis_00057
011C  20AC  	CALL FCD_LCDDis_00058
011D        label10
011D  01C3  	CLRF FCD_LCDDis_0005B_arg_x
011E  01C4  	CLRF FCD_LCDDis_0005B_arg_y
011F  208E  	CALL FCD_LCDDis_0005B
0120  3020  	MOVLW 0x20
0121  00CA  	MOVWF CompTempVar2237+D'5'
0122  3064  	MOVLW 0x64
0123  00CF  	MOVWF CompTempVar2237+D'10'
0124  3065  	MOVLW 0x65
0125  00C6  	MOVWF CompTempVar2237+D'1'
0126  3068  	MOVLW 0x68
0127  00C5  	MOVWF CompTempVar2237
0128  306C  	MOVLW 0x6C
0129  00C7  	MOVWF CompTempVar2237+D'2'
012A  00C8  	MOVWF CompTempVar2237+D'3'
012B  00CE  	MOVWF CompTempVar2237+D'9'
012C  306F  	MOVLW 0x6F
012D  00C9  	MOVWF CompTempVar2237+D'4'
012E  00CC  	MOVWF CompTempVar2237+D'7'
012F  3072  	MOVLW 0x72
0130  00CD  	MOVWF CompTempVar2237+D'8'
0131  3077  	MOVLW 0x77
0132  00CB  	MOVWF CompTempVar2237+D'6'
0133  01D0  	CLRF CompTempVar2237+D'11'
0134  3000  	MOVLW HIGH(CompTempVar2237+D'0')
0135  00C4  	MOVWF FCD_LCDDis_0005D_arg_String+D'1'
0136  3045  	MOVLW LOW(CompTempVar2237+D'0')
0137  00C3  	MOVWF FCD_LCDDis_0005D_arg_String
0138  300B  	MOVLW 0x0B
0139  00D1  	MOVWF FCD_LCDDis_0005D_arg_MSZ_String
013A  2072  	CALL FCD_LCDDis_0005D
013B  291D  	GOTO	label10
013C        ; } main function end

	ORG 0x0000013C
013C        _startup
013C  30D5  	MOVLW 0xD5
013D  1283  	BCF STATUS, RP0
013E  1303  	BCF STATUS, RP1
013F  00A0  	MOVWF gbl_14_LSR
0140  30C4  	MOVLW 0xC4
0141  00A1  	MOVWF gbl_14_LSR+D'1'
0142  30BB  	MOVLW 0xBB
0143  00A2  	MOVWF gbl_14_LSR+D'2'
0144  30DC  	MOVLW 0xDC
0145  00A3  	MOVWF gbl_14_LSR+D'3'
0146  01A4  	CLRF gbl_15_gbl_aSig
0147  01A5  	CLRF gbl_15_gbl_aSig+D'1'
0148  01A6  	CLRF gbl_15_gbl_aSig+D'2'
0149  01A7  	CLRF gbl_15_gbl_aSig+D'3'
014A  01A8  	CLRF gbl_15_gbl_bSig
014B  01A9  	CLRF gbl_15_gbl_bSig+D'1'
014C  01AA  	CLRF gbl_15_gbl_bSig+D'2'
014D  01AB  	CLRF gbl_15_gbl_bSig+D'3'
014E  01AC  	CLRF gbl_15_gbl_zSig
014F  01AD  	CLRF gbl_15_gbl_zSig+D'1'
0150  01AE  	CLRF gbl_15_gbl_zSig+D'2'
0151  01AF  	CLRF gbl_15_gbl_zSig+D'3'
0152  01BC  	CLRF gbl_15_gbl_aExp
0153  01BD  	CLRF gbl_15_gbl_bExp
0154  01B7  	CLRF gbl_15_gbl_zExp
0155  01B8  	CLRF gbl_15_gbl_zExp+D'1'
0156  01BE  	CLRF gbl_15_gbl_aSign
0157  01BF  	CLRF gbl_15_gbl_bSign
0158  01C0  	CLRF gbl_15_gbl_zSign
0159  01C1  	CLRF gbl_15_gbl_zSigZero
015A  01B0  	CLRF gbl_15_gbl_ret
015B  01B1  	CLRF gbl_15_gbl_ret+D'1'
015C  01B2  	CLRF gbl_15_gbl_ret+D'2'
015D  01B3  	CLRF gbl_15_gbl_ret+D'3'
015E  01BA  	CLRF gbl_float_rounding_mode
015F  01BB  	CLRF gbl_float_exception_flags
0160  01B9  	CLRF gbl_float_detect_tininess
0161  3001  	MOVLW 0x01
0162  00C2  	MOVWF gbl_FCV_RETURN
0163  118A  	BCF PCLATH,3
0164  120A  	BCF PCLATH,4
0165  2914  	GOTO	main
	ORG 0x00000166
0166        interrupt
0166        ; { interrupt ; function begin
0166  1283  	BCF STATUS, RP0
0167  1303  	BCF STATUS, RP1
0168  0E36  	SWAPF Int1BContext+D'2', W
0169  0084  	MOVWF FSR
016A  0E35  	SWAPF Int1BContext+D'1', W
016B  008A  	MOVWF PCLATH
016C  0E34  	SWAPF Int1BContext, W
016D  0083  	MOVWF STATUS
016E  0EFF  	SWAPF Int1Context, F
016F  0E7F  	SWAPF Int1Context, W
0170  0009  	RETFIE
0171        ; } interrupt function end

	ORG 0x00002007
2007  3F3A  	DW 0x3F3A
