;/////////////////////////////////////////////////////////////////////////////////
;// Code Generator: BoostC Compiler - http://www.sourceboost.com
;// Version       : 7.03
;// License Type  : Pro License
;// Limitations   : PIC12,PIC16 max code size:Unlimited, max RAM banks:Unlimited
;/////////////////////////////////////////////////////////////////////////////////

	ORG 0x00000000
0000  29BC  	GOTO	_startup
	ORG 0x00000004
0004  00FF  	MOVWF Int1Context
0005  0E03  	SWAPF STATUS, W
0006  1283  	BCF STATUS, RP0
0007  1303  	BCF STATUS, RP1
0008  00B4  	MOVWF Int1BContext
0009  0E0A  	SWAPF PCLATH, W
000A  00B5  	MOVWF Int1BContext+D'1'
000B  0E04  	SWAPF FSR, W
000C  00B6  	MOVWF Int1BContext+D'2'
000D  118A  	BCF PCLATH,3
000E  120A  	BCF PCLATH,4
000F  2A01  	GOTO	interrupt
	ORG 0x00000010
0010        delay_ms_00000
0010        ; { delay_ms ; function begin
0010  08E0  	MOVF delay_ms_00000_arg_del, F
0011  1D03  	BTFSS STATUS,Z
0012  2814  	GOTO	label1
0013  0008  	RETURN
0014        label1
0014  30CC  	MOVLW 0xCC
0015        label2
0015  3EFF  	ADDLW 0xFF
0016  1D03  	BTFSS STATUS,Z
0017  2815  	GOTO	label2
0018  0000  	NOP
0019  0BE0  	DECFSZ delay_ms_00000_arg_del, F
001A  2814  	GOTO	label1
001B  0008  	RETURN
001C        ; } delay_ms function end

	ORG 0x0000001C
001C        delay_s_00000
001C        ; { delay_s ; function begin
001C        label3
001C  30FA  	MOVLW 0xFA
001D  00E0  	MOVWF delay_ms_00000_arg_del
001E  2010  	CALL delay_ms_00000
001F  30FA  	MOVLW 0xFA
0020  00E0  	MOVWF delay_ms_00000_arg_del
0021  2010  	CALL delay_ms_00000
0022  30FA  	MOVLW 0xFA
0023  00E0  	MOVWF delay_ms_00000_arg_del
0024  2010  	CALL delay_ms_00000
0025  30FA  	MOVLW 0xFA
0026  00E0  	MOVWF delay_ms_00000_arg_del
0027  2010  	CALL delay_ms_00000
0028  0BDF  	DECFSZ delay_s_00000_arg_del, F
0029  281C  	GOTO	label3
002A  0008  	RETURN
002B        ; } delay_s function end

	ORG 0x0000002B
002B        FC_CAL_I2C_00069
002B        ; { FC_CAL_I2C_Master_TX_Byte_1 ; function begin
002B  118C  	BCF gbl_pir1,3
002C  0861  	MOVF FC_CAL_I2C_00069_arg_Data, W
002D  0093  	MOVWF gbl_sspbuf
002E        label4
002E  1D8C  	BTFSS gbl_pir1,3
002F  282E  	GOTO	label4
0030  1683  	BSF STATUS, RP0
0031  1F11  	BTFSS gbl_sspcon2,6
0032  2837  	GOTO	label5
0033  3001  	MOVLW 0x01
0034  1283  	BCF STATUS, RP0
0035  00E2  	MOVWF CompTempVarRet2193
0036  0008  	RETURN
0037        label5
0037  1283  	BCF STATUS, RP0
0038  01E2  	CLRF CompTempVarRet2193
0039  0008  	RETURN
003A        ; } FC_CAL_I2C_Master_TX_Byte_1 function end

	ORG 0x0000003A
003A        FC_CAL_I2C_00068
003A        ; { FC_CAL_I2C_Master_Stop_1 ; function begin
003A  1283  	BCF STATUS, RP0
003B  1303  	BCF STATUS, RP1
003C  118C  	BCF gbl_pir1,3
003D  1683  	BSF STATUS, RP0
003E  1511  	BSF gbl_sspcon2,2
003F        label6
003F  1911  	BTFSC gbl_sspcon2,2
0040  283F  	GOTO	label6
0041  300A  	MOVLW 0x0A
0042  1283  	BCF STATUS, RP0
0043  00E0  	MOVWF delay_ms_00000_arg_del
0044  2010  	CALL delay_ms_00000
0045  0008  	RETURN
0046        ; } FC_CAL_I2C_Master_Stop_1 function end

	ORG 0x00000046
0046        FC_CAL_I2C_00066
0046        ; { FC_CAL_I2C_Master_Start_1 ; function begin
0046  1283  	BCF STATUS, RP0
0047  1303  	BCF STATUS, RP1
0048  118C  	BCF gbl_pir1,3
0049  1683  	BSF STATUS, RP0
004A  1411  	BSF gbl_sspcon2,0
004B        label7
004B  1811  	BTFSC gbl_sspcon2,0
004C  284B  	GOTO	label7
004D  0008  	RETURN
004E        ; } FC_CAL_I2C_Master_Start_1 function end

	ORG 0x0000004E
004E        FC_CAL_I2C_00064
004E        ; { FC_CAL_I2C_Master_Init_1 ; function begin
004E  1683  	BSF STATUS, RP0
004F  1303  	BCF STATUS, RP1
0050  1794  	BSF gbl_sspstat,7
0051  1314  	BCF gbl_sspstat,6
0052  3028  	MOVLW 0x28
0053  1283  	BCF STATUS, RP0
0054  0094  	MOVWF gbl_sspcon
0055  3040  	MOVLW 0x40
0056  1683  	BSF STATUS, RP0
0057  0093  	MOVWF gbl_sspadd
0058  0191  	CLRF gbl_sspcon2
0059  178B  	BSF gbl_intcon,7
005A  1607  	BSF gbl_trisc,4
005B  1587  	BSF gbl_trisc,3
005C  0008  	RETURN
005D        ; } FC_CAL_I2C_Master_Init_1 function end

	ORG 0x0000005D
005D        FCD_I2C_Ma_00060
005D        ; { FCD_I2C_Master0_MI2C_Stop ; function begin
005D  203A  	CALL FC_CAL_I2C_00068
005E  0008  	RETURN
005F        ; } FCD_I2C_Master0_MI2C_Stop function end

	ORG 0x0000005F
005F        FCD_I2C_Ma_0005F
005F        ; { FCD_I2C_Master0_MI2C_Transmit_Byte ; function begin
005F  0860  	MOVF FCD_I2C_Ma_0005F_arg_Data, W
0060  00E1  	MOVWF FC_CAL_I2C_00069_arg_Data
0061  202B  	CALL FC_CAL_I2C_00069
0062  0862  	MOVF CompTempVarRet2193, W
0063  00E1  	MOVWF CompTempVarRet2188
0064  0008  	RETURN
0065        ; } FCD_I2C_Master0_MI2C_Transmit_Byte function end

	ORG 0x00000065
0065        FCD_I2C_Ma_0005E
0065        ; { FCD_I2C_Master0_MI2C_Start ; function begin
0065  2046  	CALL FC_CAL_I2C_00066
0066  0008  	RETURN
0067        ; } FCD_I2C_Master0_MI2C_Start function end

	ORG 0x00000067
0067        FCM_patter_00061
0067        ; { FCM_pattern1 ; function begin
0067  1283  	BCF STATUS, RP0
0068  1303  	BCF STATUS, RP1
0069  01E0  	CLRF FCD_I2C_Ma_0005F_arg_Data
006A  205F  	CALL FCD_I2C_Ma_0005F
006B  0861  	MOVF CompTempVarRet2188, W
006C  00D2  	MOVWF gbl_FCV_RT_BYTE
006D  307E  	MOVLW 0x7E
006E  00E0  	MOVWF FCD_I2C_Ma_0005F_arg_Data
006F  205F  	CALL FCD_I2C_Ma_0005F
0070  0861  	MOVF CompTempVarRet2188, W
0071  00D2  	MOVWF gbl_FCV_RT_BYTE
0072  3042  	MOVLW 0x42
0073  00E0  	MOVWF FCD_I2C_Ma_0005F_arg_Data
0074  205F  	CALL FCD_I2C_Ma_0005F
0075  0861  	MOVF CompTempVarRet2188, W
0076  00D2  	MOVWF gbl_FCV_RT_BYTE
0077  3042  	MOVLW 0x42
0078  00E0  	MOVWF FCD_I2C_Ma_0005F_arg_Data
0079  205F  	CALL FCD_I2C_Ma_0005F
007A  0861  	MOVF CompTempVarRet2188, W
007B  00D2  	MOVWF gbl_FCV_RT_BYTE
007C  3042  	MOVLW 0x42
007D  00E0  	MOVWF FCD_I2C_Ma_0005F_arg_Data
007E  205F  	CALL FCD_I2C_Ma_0005F
007F  0861  	MOVF CompTempVarRet2188, W
0080  00D2  	MOVWF gbl_FCV_RT_BYTE
0081  3042  	MOVLW 0x42
0082  00E0  	MOVWF FCD_I2C_Ma_0005F_arg_Data
0083  205F  	CALL FCD_I2C_Ma_0005F
0084  0861  	MOVF CompTempVarRet2188, W
0085  00D2  	MOVWF gbl_FCV_RT_BYTE
0086  307E  	MOVLW 0x7E
0087  00E0  	MOVWF FCD_I2C_Ma_0005F_arg_Data
0088  205F  	CALL FCD_I2C_Ma_0005F
0089  0861  	MOVF CompTempVarRet2188, W
008A  00D2  	MOVWF gbl_FCV_RT_BYTE
008B  01E0  	CLRF FCD_I2C_Ma_0005F_arg_Data
008C  205F  	CALL FCD_I2C_Ma_0005F
008D  0861  	MOVF CompTempVarRet2188, W
008E  00D2  	MOVWF gbl_FCV_RT_BYTE
008F  0008  	RETURN
0090        ; } FCM_pattern1 function end

	ORG 0x00000090
0090        FCM_oled_i_0005D
0090        ; { FCM_oled_init ; function begin
0090  3078  	MOVLW 0x78
0091  1283  	BCF STATUS, RP0
0092  1303  	BCF STATUS, RP1
0093  00DE  	MOVWF gbl_FCV_OLED_ADDRESS
0094  3080  	MOVLW 0x80
0095  00C8  	MOVWF gbl_FCV_OLED_CONTROL_BYTE__00003
0096  01D3  	CLRF gbl_FCV_OLED_CONTROL_BYTE__00006
0097  3040  	MOVLW 0x40
0098  00DA  	MOVWF gbl_FCV_OLED_CONTROL_BYTE__0000A
0099  3081  	MOVLW 0x81
009A  00D5  	MOVWF gbl_FCV_OLED_CMD_SET_CONTRAST
009B  30A4  	MOVLW 0xA4
009C  00DC  	MOVWF gbl_FCV_OLED_CMD_DISPLAY_RAM
009D  30A5  	MOVLW 0xA5
009E  00D7  	MOVWF gbl_FCV_OLED_CMD_DISPLAY_ALLON
009F  30A6  	MOVLW 0xA6
00A0  00D0  	MOVWF gbl_FCV_OLED_CMD_DISPLAY_NORMAL
00A1  30A7  	MOVLW 0xA7
00A2  00DB  	MOVWF gbl_FCV_OLED_CMD_DISPLAY_I_0000B
00A3  30AE  	MOVLW 0xAE
00A4  00DD  	MOVWF gbl_FCV_OLED_CMD_DISPLAY_OFF
00A5  30AF  	MOVLW 0xAF
00A6  00CD  	MOVWF gbl_FCV_OLED_CMD_DISPLAY_ON
00A7  3020  	MOVLW 0x20
00A8  00C7  	MOVWF gbl_FCV_OLED_CMD_SET_MEMOR_00002
00A9  3021  	MOVLW 0x21
00AA  00D9  	MOVWF gbl_FCV_OLED_CMD_SET_COLUM_00009
00AB  3022  	MOVLW 0x22
00AC  00CA  	MOVWF gbl_FCV_OLED_CMD_SET_PAGE_RANGE
00AD  3040  	MOVLW 0x40
00AE  00C4  	MOVWF gbl_FCV_OLED_CMD_SET_DISPL_00000
00AF  30A1  	MOVLW 0xA1
00B0  00CB  	MOVWF gbl_FCV_OLED_CMD_SET_SEGME_00004
00B1  30A8  	MOVLW 0xA8
00B2  00C6  	MOVWF gbl_FCV_OLED_CMD_SET_MUX_RATIO
00B3  30C8  	MOVLW 0xC8
00B4  00D8  	MOVWF gbl_FCV_OLED_CMD_SET_COM_S_00008
00B5  30D3  	MOVLW 0xD3
00B6  00C5  	MOVWF gbl_FCV_OLED_CMD_SET_DISPL_00001
00B7  30DA  	MOVLW 0xDA
00B8  00CE  	MOVWF gbl_FCV_OLED_CMD_SET_COM_PINMAP
00B9  30D5  	MOVLW 0xD5
00BA  00D1  	MOVWF gbl_FCV_OLED_CMD_SET_DISPL_00005
00BB  30D9  	MOVLW 0xD9
00BC  00C9  	MOVWF gbl_FCV_OLED_CMD_SET_PRECHARGE
00BD  30DB  	MOVLW 0xDB
00BE  00D4  	MOVWF gbl_FCV_OLED_CMD_SET_VCOMH_00007
00BF  308D  	MOVLW 0x8D
00C0  00CF  	MOVWF gbl_FCV_OLED_CMD_SET_CHARGE_PUMP
00C1  30E3  	MOVLW 0xE3
00C2  00CC  	MOVWF gbl_FCV_OLED_CMD_NOP
00C3  2065  	CALL FCD_I2C_Ma_0005E
00C4  1283  	BCF STATUS, RP0
00C5  01D2  	CLRF gbl_FCV_RT_BYTE
00C6  085E  	MOVF gbl_FCV_OLED_ADDRESS, W
00C7  00E0  	MOVWF FCD_I2C_Ma_0005F_arg_Data
00C8  205F  	CALL FCD_I2C_Ma_0005F
00C9  0861  	MOVF CompTempVarRet2188, W
00CA  00D2  	MOVWF gbl_FCV_RT_BYTE
00CB  0853  	MOVF gbl_FCV_OLED_CONTROL_BYTE__00006, W
00CC  00E0  	MOVWF FCD_I2C_Ma_0005F_arg_Data
00CD  205F  	CALL FCD_I2C_Ma_0005F
00CE  0861  	MOVF CompTempVarRet2188, W
00CF  00D2  	MOVWF gbl_FCV_RT_BYTE
00D0  085D  	MOVF gbl_FCV_OLED_CMD_DISPLAY_OFF, W
00D1  00E0  	MOVWF FCD_I2C_Ma_0005F_arg_Data
00D2  205F  	CALL FCD_I2C_Ma_0005F
00D3  0861  	MOVF CompTempVarRet2188, W
00D4  00D2  	MOVWF gbl_FCV_RT_BYTE
00D5  0846  	MOVF gbl_FCV_OLED_CMD_SET_MUX_RATIO, W
00D6  00E0  	MOVWF FCD_I2C_Ma_0005F_arg_Data
00D7  205F  	CALL FCD_I2C_Ma_0005F
00D8  0861  	MOVF CompTempVarRet2188, W
00D9  00D2  	MOVWF gbl_FCV_RT_BYTE
00DA  303F  	MOVLW 0x3F
00DB  00E0  	MOVWF FCD_I2C_Ma_0005F_arg_Data
00DC  205F  	CALL FCD_I2C_Ma_0005F
00DD  0861  	MOVF CompTempVarRet2188, W
00DE  00D2  	MOVWF gbl_FCV_RT_BYTE
00DF  0845  	MOVF gbl_FCV_OLED_CMD_SET_DISPL_00001, W
00E0  00E0  	MOVWF FCD_I2C_Ma_0005F_arg_Data
00E1  205F  	CALL FCD_I2C_Ma_0005F
00E2  0861  	MOVF CompTempVarRet2188, W
00E3  00D2  	MOVWF gbl_FCV_RT_BYTE
00E4  01E0  	CLRF FCD_I2C_Ma_0005F_arg_Data
00E5  205F  	CALL FCD_I2C_Ma_0005F
00E6  0861  	MOVF CompTempVarRet2188, W
00E7  00D2  	MOVWF gbl_FCV_RT_BYTE
00E8  0844  	MOVF gbl_FCV_OLED_CMD_SET_DISPL_00000, W
00E9  00E0  	MOVWF FCD_I2C_Ma_0005F_arg_Data
00EA  205F  	CALL FCD_I2C_Ma_0005F
00EB  0861  	MOVF CompTempVarRet2188, W
00EC  00D2  	MOVWF gbl_FCV_RT_BYTE
00ED  084B  	MOVF gbl_FCV_OLED_CMD_SET_SEGME_00004, W
00EE  00E0  	MOVWF FCD_I2C_Ma_0005F_arg_Data
00EF  205F  	CALL FCD_I2C_Ma_0005F
00F0  0861  	MOVF CompTempVarRet2188, W
00F1  00D2  	MOVWF gbl_FCV_RT_BYTE
00F2  0858  	MOVF gbl_FCV_OLED_CMD_SET_COM_S_00008, W
00F3  00E0  	MOVWF FCD_I2C_Ma_0005F_arg_Data
00F4  205F  	CALL FCD_I2C_Ma_0005F
00F5  0861  	MOVF CompTempVarRet2188, W
00F6  00D2  	MOVWF gbl_FCV_RT_BYTE
00F7  084E  	MOVF gbl_FCV_OLED_CMD_SET_COM_PINMAP, W
00F8  00E0  	MOVWF FCD_I2C_Ma_0005F_arg_Data
00F9  205F  	CALL FCD_I2C_Ma_0005F
00FA  0861  	MOVF CompTempVarRet2188, W
00FB  00D2  	MOVWF gbl_FCV_RT_BYTE
00FC  3012  	MOVLW 0x12
00FD  00E0  	MOVWF FCD_I2C_Ma_0005F_arg_Data
00FE  205F  	CALL FCD_I2C_Ma_0005F
00FF  0861  	MOVF CompTempVarRet2188, W
0100  00D2  	MOVWF gbl_FCV_RT_BYTE
0101  0855  	MOVF gbl_FCV_OLED_CMD_SET_CONTRAST, W
0102  00E0  	MOVWF FCD_I2C_Ma_0005F_arg_Data
0103  205F  	CALL FCD_I2C_Ma_0005F
0104  0861  	MOVF CompTempVarRet2188, W
0105  00D2  	MOVWF gbl_FCV_RT_BYTE
0106  307F  	MOVLW 0x7F
0107  00E0  	MOVWF FCD_I2C_Ma_0005F_arg_Data
0108  205F  	CALL FCD_I2C_Ma_0005F
0109  0861  	MOVF CompTempVarRet2188, W
010A  00D2  	MOVWF gbl_FCV_RT_BYTE
010B  085C  	MOVF gbl_FCV_OLED_CMD_DISPLAY_RAM, W
010C  00E0  	MOVWF FCD_I2C_Ma_0005F_arg_Data
010D  205F  	CALL FCD_I2C_Ma_0005F
010E  0861  	MOVF CompTempVarRet2188, W
010F  00D2  	MOVWF gbl_FCV_RT_BYTE
0110  0850  	MOVF gbl_FCV_OLED_CMD_DISPLAY_NORMAL, W
0111  00E0  	MOVWF FCD_I2C_Ma_0005F_arg_Data
0112  205F  	CALL FCD_I2C_Ma_0005F
0113  0861  	MOVF CompTempVarRet2188, W
0114  00D2  	MOVWF gbl_FCV_RT_BYTE
0115  0851  	MOVF gbl_FCV_OLED_CMD_SET_DISPL_00005, W
0116  00E0  	MOVWF FCD_I2C_Ma_0005F_arg_Data
0117  205F  	CALL FCD_I2C_Ma_0005F
0118  0861  	MOVF CompTempVarRet2188, W
0119  00D2  	MOVWF gbl_FCV_RT_BYTE
011A  3080  	MOVLW 0x80
011B  00E0  	MOVWF FCD_I2C_Ma_0005F_arg_Data
011C  205F  	CALL FCD_I2C_Ma_0005F
011D  0861  	MOVF CompTempVarRet2188, W
011E  00D2  	MOVWF gbl_FCV_RT_BYTE
011F  084F  	MOVF gbl_FCV_OLED_CMD_SET_CHARGE_PUMP, W
0120  00E0  	MOVWF FCD_I2C_Ma_0005F_arg_Data
0121  205F  	CALL FCD_I2C_Ma_0005F
0122  0861  	MOVF CompTempVarRet2188, W
0123  00D2  	MOVWF gbl_FCV_RT_BYTE
0124  3014  	MOVLW 0x14
0125  00E0  	MOVWF FCD_I2C_Ma_0005F_arg_Data
0126  205F  	CALL FCD_I2C_Ma_0005F
0127  0861  	MOVF CompTempVarRet2188, W
0128  00D2  	MOVWF gbl_FCV_RT_BYTE
0129  0849  	MOVF gbl_FCV_OLED_CMD_SET_PRECHARGE, W
012A  00E0  	MOVWF FCD_I2C_Ma_0005F_arg_Data
012B  205F  	CALL FCD_I2C_Ma_0005F
012C  0861  	MOVF CompTempVarRet2188, W
012D  00D2  	MOVWF gbl_FCV_RT_BYTE
012E  3022  	MOVLW 0x22
012F  00E0  	MOVWF FCD_I2C_Ma_0005F_arg_Data
0130  205F  	CALL FCD_I2C_Ma_0005F
0131  0861  	MOVF CompTempVarRet2188, W
0132  00D2  	MOVWF gbl_FCV_RT_BYTE
0133  0854  	MOVF gbl_FCV_OLED_CMD_SET_VCOMH_00007, W
0134  00E0  	MOVWF FCD_I2C_Ma_0005F_arg_Data
0135  205F  	CALL FCD_I2C_Ma_0005F
0136  0861  	MOVF CompTempVarRet2188, W
0137  00D2  	MOVWF gbl_FCV_RT_BYTE
0138  3030  	MOVLW 0x30
0139  00E0  	MOVWF FCD_I2C_Ma_0005F_arg_Data
013A  205F  	CALL FCD_I2C_Ma_0005F
013B  0861  	MOVF CompTempVarRet2188, W
013C  00D2  	MOVWF gbl_FCV_RT_BYTE
013D  0847  	MOVF gbl_FCV_OLED_CMD_SET_MEMOR_00002, W
013E  00E0  	MOVWF FCD_I2C_Ma_0005F_arg_Data
013F  205F  	CALL FCD_I2C_Ma_0005F
0140  0861  	MOVF CompTempVarRet2188, W
0141  00D2  	MOVWF gbl_FCV_RT_BYTE
0142  01E0  	CLRF FCD_I2C_Ma_0005F_arg_Data
0143  205F  	CALL FCD_I2C_Ma_0005F
0144  0861  	MOVF CompTempVarRet2188, W
0145  00D2  	MOVWF gbl_FCV_RT_BYTE
0146  084D  	MOVF gbl_FCV_OLED_CMD_DISPLAY_ON, W
0147  00E0  	MOVWF FCD_I2C_Ma_0005F_arg_Data
0148  205F  	CALL FCD_I2C_Ma_0005F
0149  0861  	MOVF CompTempVarRet2188, W
014A  00D2  	MOVWF gbl_FCV_RT_BYTE
014B  205D  	CALL FCD_I2C_Ma_00060
014C  0008  	RETURN
014D        ; } FCM_oled_init function end

	ORG 0x0000014D
014D        FCM_oled_c_00063
014D        ; { FCM_oled_clear ; function begin
014D  2065  	CALL FCD_I2C_Ma_0005E
014E  1283  	BCF STATUS, RP0
014F  01D2  	CLRF gbl_FCV_RT_BYTE
0150  085E  	MOVF gbl_FCV_OLED_ADDRESS, W
0151  00E0  	MOVWF FCD_I2C_Ma_0005F_arg_Data
0152  205F  	CALL FCD_I2C_Ma_0005F
0153  0861  	MOVF CompTempVarRet2188, W
0154  00D2  	MOVWF gbl_FCV_RT_BYTE
0155  0853  	MOVF gbl_FCV_OLED_CONTROL_BYTE__00006, W
0156  00E0  	MOVWF FCD_I2C_Ma_0005F_arg_Data
0157  205F  	CALL FCD_I2C_Ma_0005F
0158  0861  	MOVF CompTempVarRet2188, W
0159  00D2  	MOVWF gbl_FCV_RT_BYTE
015A  0859  	MOVF gbl_FCV_OLED_CMD_SET_COLUM_00009, W
015B  00E0  	MOVWF FCD_I2C_Ma_0005F_arg_Data
015C  205F  	CALL FCD_I2C_Ma_0005F
015D  0861  	MOVF CompTempVarRet2188, W
015E  00D2  	MOVWF gbl_FCV_RT_BYTE
015F  01E0  	CLRF FCD_I2C_Ma_0005F_arg_Data
0160  205F  	CALL FCD_I2C_Ma_0005F
0161  0861  	MOVF CompTempVarRet2188, W
0162  00D2  	MOVWF gbl_FCV_RT_BYTE
0163  307F  	MOVLW 0x7F
0164  00E0  	MOVWF FCD_I2C_Ma_0005F_arg_Data
0165  205F  	CALL FCD_I2C_Ma_0005F
0166  0861  	MOVF CompTempVarRet2188, W
0167  00D2  	MOVWF gbl_FCV_RT_BYTE
0168  084A  	MOVF gbl_FCV_OLED_CMD_SET_PAGE_RANGE, W
0169  00E0  	MOVWF FCD_I2C_Ma_0005F_arg_Data
016A  205F  	CALL FCD_I2C_Ma_0005F
016B  0861  	MOVF CompTempVarRet2188, W
016C  00D2  	MOVWF gbl_FCV_RT_BYTE
016D  01E0  	CLRF FCD_I2C_Ma_0005F_arg_Data
016E  205F  	CALL FCD_I2C_Ma_0005F
016F  0861  	MOVF CompTempVarRet2188, W
0170  00D2  	MOVWF gbl_FCV_RT_BYTE
0171  3007  	MOVLW 0x07
0172  00E0  	MOVWF FCD_I2C_Ma_0005F_arg_Data
0173  205F  	CALL FCD_I2C_Ma_0005F
0174  0861  	MOVF CompTempVarRet2188, W
0175  00D2  	MOVWF gbl_FCV_RT_BYTE
0176  205D  	CALL FCD_I2C_Ma_00060
0177  2065  	CALL FCD_I2C_Ma_0005E
0178  1283  	BCF STATUS, RP0
0179  01D2  	CLRF gbl_FCV_RT_BYTE
017A  085E  	MOVF gbl_FCV_OLED_ADDRESS, W
017B  00E0  	MOVWF FCD_I2C_Ma_0005F_arg_Data
017C  205F  	CALL FCD_I2C_Ma_0005F
017D  0861  	MOVF CompTempVarRet2188, W
017E  00D2  	MOVWF gbl_FCV_RT_BYTE
017F  085A  	MOVF gbl_FCV_OLED_CONTROL_BYTE__0000A, W
0180  00E0  	MOVWF FCD_I2C_Ma_0005F_arg_Data
0181  205F  	CALL FCD_I2C_Ma_0005F
0182  0861  	MOVF CompTempVarRet2188, W
0183  00D2  	MOVWF gbl_FCV_RT_BYTE
0184  01B9  	CLRF gbl_FCV_COUNTER
0185  01BA  	CLRF gbl_FCV_COUNTER+D'1'
0186        label8
0186  01DF  	CLRF CompTempVar2190
0187  3000  	MOVLW 0x00
0188  0239  	SUBWF gbl_FCV_COUNTER, W
0189  1D03  	BTFSS STATUS,Z
018A  298F  	GOTO	label9
018B  083A  	MOVF gbl_FCV_COUNTER+D'1', W
018C  3C04  	SUBLW 0x04
018D  1903  	BTFSC STATUS,Z
018E  0ADF  	INCF CompTempVar2190, F
018F        label9
018F  08DF  	MOVF CompTempVar2190, F
0190  1D03  	BTFSS STATUS,Z
0191  299C  	GOTO	label10
0192  01E0  	CLRF FCD_I2C_Ma_0005F_arg_Data
0193  205F  	CALL FCD_I2C_Ma_0005F
0194  0861  	MOVF CompTempVarRet2188, W
0195  00D2  	MOVWF gbl_FCV_RT_BYTE
0196  08B9  	MOVF gbl_FCV_COUNTER, F
0197  08BA  	MOVF gbl_FCV_COUNTER+D'1', F
0198  0AB9  	INCF gbl_FCV_COUNTER, F
0199  1903  	BTFSC STATUS,Z
019A  0ABA  	INCF gbl_FCV_COUNTER+D'1', F
019B  2986  	GOTO	label8
019C        label10
019C  205D  	CALL FCD_I2C_Ma_00060
019D  0008  	RETURN
019E        ; } FCM_oled_clear function end

	ORG 0x0000019E
019E        FCD_I2C_Ma_0006B
019E        ; { FCD_I2C_Master0_MI2C_Init ; function begin
019E  204E  	CALL FC_CAL_I2C_00064
019F  0008  	RETURN
01A0        ; } FCD_I2C_Master0_MI2C_Init function end

	ORG 0x000001A0
01A0        main
01A0        ; { main ; function begin
01A0  3007  	MOVLW 0x07
01A1  1683  	BSF STATUS, RP0
01A2  1303  	BCF STATUS, RP1
01A3  009F  	MOVWF gbl_adcon1
01A4  30C0  	MOVLW 0xC0
01A5  0081  	MOVWF gbl_option_reg
01A6  219E  	CALL FCD_I2C_Ma_0006B
01A7  2090  	CALL FCM_oled_i_0005D
01A8        label11
01A8  214D  	CALL FCM_oled_c_00063
01A9  2065  	CALL FCD_I2C_Ma_0005E
01AA  1283  	BCF STATUS, RP0
01AB  01D2  	CLRF gbl_FCV_RT_BYTE
01AC  085E  	MOVF gbl_FCV_OLED_ADDRESS, W
01AD  00E0  	MOVWF FCD_I2C_Ma_0005F_arg_Data
01AE  205F  	CALL FCD_I2C_Ma_0005F
01AF  0861  	MOVF CompTempVarRet2188, W
01B0  00D2  	MOVWF gbl_FCV_RT_BYTE
01B1  085A  	MOVF gbl_FCV_OLED_CONTROL_BYTE__0000A, W
01B2  00E0  	MOVWF FCD_I2C_Ma_0005F_arg_Data
01B3  205F  	CALL FCD_I2C_Ma_0005F
01B4  0861  	MOVF CompTempVarRet2188, W
01B5  00D2  	MOVWF gbl_FCV_RT_BYTE
01B6  2067  	CALL FCM_patter_00061
01B7  205D  	CALL FCD_I2C_Ma_00060
01B8  3005  	MOVLW 0x05
01B9  00DF  	MOVWF delay_s_00000_arg_del
01BA  201C  	CALL delay_s_00000
01BB  29A8  	GOTO	label11
01BC        ; } main function end

	ORG 0x000001BC
01BC        _startup
01BC  30D5  	MOVLW 0xD5
01BD  1283  	BCF STATUS, RP0
01BE  1303  	BCF STATUS, RP1
01BF  00A0  	MOVWF gbl_14_LSR
01C0  30C4  	MOVLW 0xC4
01C1  00A1  	MOVWF gbl_14_LSR+D'1'
01C2  30BB  	MOVLW 0xBB
01C3  00A2  	MOVWF gbl_14_LSR+D'2'
01C4  30DC  	MOVLW 0xDC
01C5  00A3  	MOVWF gbl_14_LSR+D'3'
01C6  01A4  	CLRF gbl_15_gbl_aSig
01C7  01A5  	CLRF gbl_15_gbl_aSig+D'1'
01C8  01A6  	CLRF gbl_15_gbl_aSig+D'2'
01C9  01A7  	CLRF gbl_15_gbl_aSig+D'3'
01CA  01A8  	CLRF gbl_15_gbl_bSig
01CB  01A9  	CLRF gbl_15_gbl_bSig+D'1'
01CC  01AA  	CLRF gbl_15_gbl_bSig+D'2'
01CD  01AB  	CLRF gbl_15_gbl_bSig+D'3'
01CE  01AC  	CLRF gbl_15_gbl_zSig
01CF  01AD  	CLRF gbl_15_gbl_zSig+D'1'
01D0  01AE  	CLRF gbl_15_gbl_zSig+D'2'
01D1  01AF  	CLRF gbl_15_gbl_zSig+D'3'
01D2  01BE  	CLRF gbl_15_gbl_aExp
01D3  01BF  	CLRF gbl_15_gbl_bExp
01D4  01B7  	CLRF gbl_15_gbl_zExp
01D5  01B8  	CLRF gbl_15_gbl_zExp+D'1'
01D6  01C0  	CLRF gbl_15_gbl_aSign
01D7  01C1  	CLRF gbl_15_gbl_bSign
01D8  01C2  	CLRF gbl_15_gbl_zSign
01D9  01C3  	CLRF gbl_15_gbl_zSigZero
01DA  01B0  	CLRF gbl_15_gbl_ret
01DB  01B1  	CLRF gbl_15_gbl_ret+D'1'
01DC  01B2  	CLRF gbl_15_gbl_ret+D'2'
01DD  01B3  	CLRF gbl_15_gbl_ret+D'3'
01DE  01BC  	CLRF gbl_float_rounding_mode
01DF  01BD  	CLRF gbl_float_exception_flags
01E0  01BB  	CLRF gbl_float_detect_tininess
01E1  01C4  	CLRF gbl_FCV_OLED_CMD_SET_DISPL_00000
01E2  01C5  	CLRF gbl_FCV_OLED_CMD_SET_DISPL_00001
01E3  01C6  	CLRF gbl_FCV_OLED_CMD_SET_MUX_RATIO
01E4  01C7  	CLRF gbl_FCV_OLED_CMD_SET_MEMOR_00002
01E5  01C8  	CLRF gbl_FCV_OLED_CONTROL_BYTE__00003
01E6  01B9  	CLRF gbl_FCV_COUNTER
01E7  01BA  	CLRF gbl_FCV_COUNTER+D'1'
01E8  01C9  	CLRF gbl_FCV_OLED_CMD_SET_PRECHARGE
01E9  01CA  	CLRF gbl_FCV_OLED_CMD_SET_PAGE_RANGE
01EA  01CB  	CLRF gbl_FCV_OLED_CMD_SET_SEGME_00004
01EB  01CC  	CLRF gbl_FCV_OLED_CMD_NOP
01EC  01CD  	CLRF gbl_FCV_OLED_CMD_DISPLAY_ON
01ED  01CE  	CLRF gbl_FCV_OLED_CMD_SET_COM_PINMAP
01EE  01CF  	CLRF gbl_FCV_OLED_CMD_SET_CHARGE_PUMP
01EF  01D0  	CLRF gbl_FCV_OLED_CMD_DISPLAY_NORMAL
01F0  01D1  	CLRF gbl_FCV_OLED_CMD_SET_DISPL_00005
01F1  01D2  	CLRF gbl_FCV_RT_BYTE
01F2  01D3  	CLRF gbl_FCV_OLED_CONTROL_BYTE__00006
01F3  01D4  	CLRF gbl_FCV_OLED_CMD_SET_VCOMH_00007
01F4  01D5  	CLRF gbl_FCV_OLED_CMD_SET_CONTRAST
01F5  01D6  	CLRF gbl_FCV_OLED_I2C_ADDRESS
01F6  01D7  	CLRF gbl_FCV_OLED_CMD_DISPLAY_ALLON
01F7  01D8  	CLRF gbl_FCV_OLED_CMD_SET_COM_S_00008
01F8  01D9  	CLRF gbl_FCV_OLED_CMD_SET_COLUM_00009
01F9  01DA  	CLRF gbl_FCV_OLED_CONTROL_BYTE__0000A
01FA  01DB  	CLRF gbl_FCV_OLED_CMD_DISPLAY_I_0000B
01FB  01DC  	CLRF gbl_FCV_OLED_CMD_DISPLAY_RAM
01FC  01DD  	CLRF gbl_FCV_OLED_CMD_DISPLAY_OFF
01FD  01DE  	CLRF gbl_FCV_OLED_ADDRESS
01FE  118A  	BCF PCLATH,3
01FF  120A  	BCF PCLATH,4
0200  29A0  	GOTO	main
	ORG 0x00000201
0201        interrupt
0201        ; { interrupt ; function begin
0201  1283  	BCF STATUS, RP0
0202  1303  	BCF STATUS, RP1
0203  0E36  	SWAPF Int1BContext+D'2', W
0204  0084  	MOVWF FSR
0205  0E35  	SWAPF Int1BContext+D'1', W
0206  008A  	MOVWF PCLATH
0207  0E34  	SWAPF Int1BContext, W
0208  0083  	MOVWF STATUS
0209  0EFF  	SWAPF Int1Context, F
020A  0E7F  	SWAPF Int1Context, W
020B  0009  	RETFIE
020C        ; } interrupt function end

	ORG 0x00002007
2007  3F32  	DW 0x3F32
