;/////////////////////////////////////////////////////////////////////////////////
;// Code Generator: BoostC Compiler - http://www.sourceboost.com
;// Version       : 7.03
;// License Type  : Pro License
;// Limitations   : PIC12,PIC16 max code size:Unlimited, max RAM banks:Unlimited
;/////////////////////////////////////////////////////////////////////////////////

	ORG 0x00000000
0000  158A  	BSF PCLATH,3
0001  290F  	GOTO	_startup
	ORG 0x00000004
0004  00FF  	MOVWF Int1Context
0005  0E03  	SWAPF STATUS, W
0006  1283  	BCF STATUS, RP0
0007  1303  	BCF STATUS, RP1
0008  00BC  	MOVWF Int1BContext
0009  0E0A  	SWAPF PCLATH, W
000A  00BD  	MOVWF Int1BContext+D'1'
000B  0E04  	SWAPF FSR, W
000C  00BE  	MOVWF Int1BContext+D'2'
000D  158A  	BSF PCLATH,3
000E  120A  	BCF PCLATH,4
000F  295F  	GOTO	interrupt
	ORG 0x00000010
0010        delay_ms_00000
0010        ; { delay_ms ; function begin
0010  08FD  	MOVF delay_ms_00000_arg_del, F
0011  1D03  	BTFSS STATUS,Z
0012  2814  	GOTO	label1
0013  0008  	RETURN
0014        label1
0014  30CC  	MOVLW 0xCC
0015        label2
0015  3EFF  	ADDLW 0xFF
0016  1D03  	BTFSS STATUS,Z
0017  2815  	GOTO	label2
0018  0000  	NOP
0019  0BFD  	DECFSZ delay_ms_00000_arg_del, F
001A  2814  	GOTO	label1
001B  0008  	RETURN
001C        ; } delay_ms function end

	ORG 0x0000001C
001C        delay_us_00000
001C        ; { delay_us ; function begin
001C  3003  	MOVLW 0x03
001D  07A0  	ADDWF delay_us_00000_arg_del, F
001E  0CA0  	RRF delay_us_00000_arg_del, F
001F  0CA0  	RRF delay_us_00000_arg_del, F
0020  307F  	MOVLW 0x7F
0021  05A0  	ANDWF delay_us_00000_arg_del, F
0022        label3
0022  0000  	NOP
0023  0BA0  	DECFSZ delay_us_00000_arg_del, F
0024  2822  	GOTO	label3
0025  0008  	RETURN
0026        ; } delay_us function end

	ORG 0x00000026
0026        delay_s_00000
0026        ; { delay_s ; function begin
0026        label4
0026  30FA  	MOVLW 0xFA
0027  00FD  	MOVWF delay_ms_00000_arg_del
0028  2010  	CALL delay_ms_00000
0029  30FA  	MOVLW 0xFA
002A  00FD  	MOVWF delay_ms_00000_arg_del
002B  2010  	CALL delay_ms_00000
002C  30FA  	MOVLW 0xFA
002D  00FD  	MOVWF delay_ms_00000_arg_del
002E  2010  	CALL delay_ms_00000
002F  30FA  	MOVLW 0xFA
0030  00FD  	MOVWF delay_ms_00000_arg_del
0031  2010  	CALL delay_ms_00000
0032  0BF9  	DECFSZ delay_s_00000_arg_del, F
0033  2826  	GOTO	label4
0034  0008  	RETURN
0035        ; } delay_s function end

	ORG 0x00000035
0035        FC_CAL_PWM_0006B
0035        ; { FC_CAL_PWM_Set_Duty_8Bit_1 ; function begin
0035  087E  	MOVF FC_CAL_PWM_0006B_arg_duty, W
0036  009B  	MOVWF gbl_ccpr2l
0037  0008  	RETURN
0038        ; } FC_CAL_PWM_Set_Duty_8Bit_1 function end

	ORG 0x00000038
0038        FC_CAL_I2C_00079
0038        ; { FC_CAL_I2C_Master_RX_Byte_1 ; function begin
0038  118C  	BCF gbl_pir1,3
0039  1683  	BSF STATUS, RP0
003A  1591  	BSF gbl_sspcon2,3
003B        label5
003B  1283  	BCF STATUS, RP0
003C  1D8C  	BTFSS gbl_pir1,3
003D  283B  	GOTO	label5
003E  08F6  	MOVF FC_CAL_I2C_00079_arg_Last, F
003F  1903  	BTFSC STATUS,Z
0040  2844  	GOTO	label6
0041  1683  	BSF STATUS, RP0
0042  1691  	BSF gbl_sspcon2,5
0043  2846  	GOTO	label7
0044        label6
0044  1683  	BSF STATUS, RP0
0045  1291  	BCF gbl_sspcon2,5
0046        label7
0046  1611  	BSF gbl_sspcon2,4
0047        label8
0047  1A11  	BTFSC gbl_sspcon2,4
0048  2847  	GOTO	label8
0049  1283  	BCF STATUS, RP0
004A  0813  	MOVF gbl_sspbuf, W
004B  00F7  	MOVWF CompTempVarRet2288
004C  0008  	RETURN
004D        ; } FC_CAL_I2C_Master_RX_Byte_1 function end

	ORG 0x0000004D
004D        FC_CAL_I2C_00078
004D        ; { FC_CAL_I2C_Master_TX_Byte_1 ; function begin
004D  118C  	BCF gbl_pir1,3
004E  0876  	MOVF FC_CAL_I2C_00078_arg_Data, W
004F  0093  	MOVWF gbl_sspbuf
0050        label9
0050  1D8C  	BTFSS gbl_pir1,3
0051  2850  	GOTO	label9
0052  1683  	BSF STATUS, RP0
0053  1F11  	BTFSS gbl_sspcon2,6
0054  2859  	GOTO	label10
0055  3001  	MOVLW 0x01
0056  1283  	BCF STATUS, RP0
0057  00F7  	MOVWF CompTempVarRet2287
0058  0008  	RETURN
0059        label10
0059  1283  	BCF STATUS, RP0
005A  01F7  	CLRF CompTempVarRet2287
005B  0008  	RETURN
005C        ; } FC_CAL_I2C_Master_TX_Byte_1 function end

	ORG 0x0000005C
005C        FC_CAL_I2C_00077
005C        ; { FC_CAL_I2C_Master_Stop_1 ; function begin
005C  1283  	BCF STATUS, RP0
005D  1303  	BCF STATUS, RP1
005E  118C  	BCF gbl_pir1,3
005F  1683  	BSF STATUS, RP0
0060  1511  	BSF gbl_sspcon2,2
0061        label11
0061  1911  	BTFSC gbl_sspcon2,2
0062  2861  	GOTO	label11
0063  300A  	MOVLW 0x0A
0064  1283  	BCF STATUS, RP0
0065  00FD  	MOVWF delay_ms_00000_arg_del
0066  2010  	CALL delay_ms_00000
0067  0008  	RETURN
0068        ; } FC_CAL_I2C_Master_Stop_1 function end

	ORG 0x00000068
0068        FC_CAL_I2C_00076
0068        ; { FC_CAL_I2C_Master_Restart_1 ; function begin
0068  1283  	BCF STATUS, RP0
0069  1303  	BCF STATUS, RP1
006A  118C  	BCF gbl_pir1,3
006B  1683  	BSF STATUS, RP0
006C  1491  	BSF gbl_sspcon2,1
006D        label12
006D  1891  	BTFSC gbl_sspcon2,1
006E  286D  	GOTO	label12
006F  0008  	RETURN
0070        ; } FC_CAL_I2C_Master_Restart_1 function end

	ORG 0x00000070
0070        FC_CAL_I2C_00075
0070        ; { FC_CAL_I2C_Master_Start_1 ; function begin
0070  1283  	BCF STATUS, RP0
0071  1303  	BCF STATUS, RP1
0072  118C  	BCF gbl_pir1,3
0073  1683  	BSF STATUS, RP0
0074  1411  	BSF gbl_sspcon2,0
0075        label13
0075  1811  	BTFSC gbl_sspcon2,0
0076  2875  	GOTO	label13
0077  0008  	RETURN
0078        ; } FC_CAL_I2C_Master_Start_1 function end

	ORG 0x00000078
0078        FCM_scan_o_00051
0078        ; { FCM_scan_off ; function begin
0078  30FE  	MOVLW 0xFE
0079  1683  	BSF STATUS, RP0
007A  1303  	BCF STATUS, RP1
007B  0505  	ANDWF gbl_trisa, W
007C  0085  	MOVWF gbl_trisa
007D  30FE  	MOVLW 0xFE
007E  1283  	BCF STATUS, RP0
007F  0505  	ANDWF gbl_porta, W
0080  0085  	MOVWF gbl_porta
0081  30FD  	MOVLW 0xFD
0082  1683  	BSF STATUS, RP0
0083  0505  	ANDWF gbl_trisa, W
0084  0085  	MOVWF gbl_trisa
0085  30FD  	MOVLW 0xFD
0086  1283  	BCF STATUS, RP0
0087  0505  	ANDWF gbl_porta, W
0088  0085  	MOVWF gbl_porta
0089  30FB  	MOVLW 0xFB
008A  1683  	BSF STATUS, RP0
008B  0505  	ANDWF gbl_trisa, W
008C  0085  	MOVWF gbl_trisa
008D  30FB  	MOVLW 0xFB
008E  1283  	BCF STATUS, RP0
008F  0505  	ANDWF gbl_porta, W
0090  0085  	MOVWF gbl_porta
0091  30F7  	MOVLW 0xF7
0092  1683  	BSF STATUS, RP0
0093  0505  	ANDWF gbl_trisa, W
0094  0085  	MOVWF gbl_trisa
0095  30F7  	MOVLW 0xF7
0096  1283  	BCF STATUS, RP0
0097  0505  	ANDWF gbl_porta, W
0098  0085  	MOVWF gbl_porta
0099  0008  	RETURN
009A        ; } FCM_scan_off function end

	ORG 0x0000009A
009A        FCM_scan4_00000
009A        ; { FCM_scan4 ; function begin
009A  30FE  	MOVLW 0xFE
009B  1683  	BSF STATUS, RP0
009C  1303  	BCF STATUS, RP1
009D  0505  	ANDWF gbl_trisa, W
009E  0085  	MOVWF gbl_trisa
009F  30FE  	MOVLW 0xFE
00A0  1283  	BCF STATUS, RP0
00A1  0505  	ANDWF gbl_porta, W
00A2  00FD  	MOVWF CompTempVar2198
00A3  3001  	MOVLW 0x01
00A4  047D  	IORWF CompTempVar2198, W
00A5  0085  	MOVWF gbl_porta
00A6  30FD  	MOVLW 0xFD
00A7  1683  	BSF STATUS, RP0
00A8  0505  	ANDWF gbl_trisa, W
00A9  0085  	MOVWF gbl_trisa
00AA  30FD  	MOVLW 0xFD
00AB  1283  	BCF STATUS, RP0
00AC  0505  	ANDWF gbl_porta, W
00AD  0085  	MOVWF gbl_porta
00AE  30FB  	MOVLW 0xFB
00AF  1683  	BSF STATUS, RP0
00B0  0505  	ANDWF gbl_trisa, W
00B1  0085  	MOVWF gbl_trisa
00B2  30FB  	MOVLW 0xFB
00B3  1283  	BCF STATUS, RP0
00B4  0505  	ANDWF gbl_porta, W
00B5  0085  	MOVWF gbl_porta
00B6  30F7  	MOVLW 0xF7
00B7  1683  	BSF STATUS, RP0
00B8  0505  	ANDWF gbl_trisa, W
00B9  0085  	MOVWF gbl_trisa
00BA  30F7  	MOVLW 0xF7
00BB  1283  	BCF STATUS, RP0
00BC  0505  	ANDWF gbl_porta, W
00BD  0085  	MOVWF gbl_porta
00BE  0008  	RETURN
00BF        ; } FCM_scan4 function end

	ORG 0x000000BF
00BF        FCM_scan3_00000
00BF        ; { FCM_scan3 ; function begin
00BF  30FE  	MOVLW 0xFE
00C0  1683  	BSF STATUS, RP0
00C1  1303  	BCF STATUS, RP1
00C2  0505  	ANDWF gbl_trisa, W
00C3  0085  	MOVWF gbl_trisa
00C4  30FE  	MOVLW 0xFE
00C5  1283  	BCF STATUS, RP0
00C6  0505  	ANDWF gbl_porta, W
00C7  0085  	MOVWF gbl_porta
00C8  30FD  	MOVLW 0xFD
00C9  1683  	BSF STATUS, RP0
00CA  0505  	ANDWF gbl_trisa, W
00CB  0085  	MOVWF gbl_trisa
00CC  30FD  	MOVLW 0xFD
00CD  1283  	BCF STATUS, RP0
00CE  0505  	ANDWF gbl_porta, W
00CF  00FD  	MOVWF CompTempVar2197
00D0  3002  	MOVLW 0x02
00D1  047D  	IORWF CompTempVar2197, W
00D2  0085  	MOVWF gbl_porta
00D3  30FB  	MOVLW 0xFB
00D4  1683  	BSF STATUS, RP0
00D5  0505  	ANDWF gbl_trisa, W
00D6  0085  	MOVWF gbl_trisa
00D7  30FB  	MOVLW 0xFB
00D8  1283  	BCF STATUS, RP0
00D9  0505  	ANDWF gbl_porta, W
00DA  0085  	MOVWF gbl_porta
00DB  30F7  	MOVLW 0xF7
00DC  1683  	BSF STATUS, RP0
00DD  0505  	ANDWF gbl_trisa, W
00DE  0085  	MOVWF gbl_trisa
00DF  30F7  	MOVLW 0xF7
00E0  1283  	BCF STATUS, RP0
00E1  0505  	ANDWF gbl_porta, W
00E2  0085  	MOVWF gbl_porta
00E3  0008  	RETURN
00E4        ; } FCM_scan3 function end

	ORG 0x000000E4
00E4        FCM_scan2_00000
00E4        ; { FCM_scan2 ; function begin
00E4  30FE  	MOVLW 0xFE
00E5  1683  	BSF STATUS, RP0
00E6  1303  	BCF STATUS, RP1
00E7  0505  	ANDWF gbl_trisa, W
00E8  0085  	MOVWF gbl_trisa
00E9  30FE  	MOVLW 0xFE
00EA  1283  	BCF STATUS, RP0
00EB  0505  	ANDWF gbl_porta, W
00EC  0085  	MOVWF gbl_porta
00ED  30FD  	MOVLW 0xFD
00EE  1683  	BSF STATUS, RP0
00EF  0505  	ANDWF gbl_trisa, W
00F0  0085  	MOVWF gbl_trisa
00F1  30FD  	MOVLW 0xFD
00F2  1283  	BCF STATUS, RP0
00F3  0505  	ANDWF gbl_porta, W
00F4  0085  	MOVWF gbl_porta
00F5  30FB  	MOVLW 0xFB
00F6  1683  	BSF STATUS, RP0
00F7  0505  	ANDWF gbl_trisa, W
00F8  0085  	MOVWF gbl_trisa
00F9  30FB  	MOVLW 0xFB
00FA  1283  	BCF STATUS, RP0
00FB  0505  	ANDWF gbl_porta, W
00FC  00FD  	MOVWF CompTempVar2196
00FD  3004  	MOVLW 0x04
00FE  047D  	IORWF CompTempVar2196, W
00FF  0085  	MOVWF gbl_porta
0100  30F7  	MOVLW 0xF7
0101  1683  	BSF STATUS, RP0
0102  0505  	ANDWF gbl_trisa, W
0103  0085  	MOVWF gbl_trisa
0104  30F7  	MOVLW 0xF7
0105  1283  	BCF STATUS, RP0
0106  0505  	ANDWF gbl_porta, W
0107  0085  	MOVWF gbl_porta
0108  0008  	RETURN
0109        ; } FCM_scan2 function end

	ORG 0x00000109
0109        FCM_scan1_00000
0109        ; { FCM_scan1 ; function begin
0109  30FE  	MOVLW 0xFE
010A  1683  	BSF STATUS, RP0
010B  1303  	BCF STATUS, RP1
010C  0505  	ANDWF gbl_trisa, W
010D  0085  	MOVWF gbl_trisa
010E  30FE  	MOVLW 0xFE
010F  1283  	BCF STATUS, RP0
0110  0505  	ANDWF gbl_porta, W
0111  0085  	MOVWF gbl_porta
0112  30FD  	MOVLW 0xFD
0113  1683  	BSF STATUS, RP0
0114  0505  	ANDWF gbl_trisa, W
0115  0085  	MOVWF gbl_trisa
0116  30FD  	MOVLW 0xFD
0117  1283  	BCF STATUS, RP0
0118  0505  	ANDWF gbl_porta, W
0119  0085  	MOVWF gbl_porta
011A  30FB  	MOVLW 0xFB
011B  1683  	BSF STATUS, RP0
011C  0505  	ANDWF gbl_trisa, W
011D  0085  	MOVWF gbl_trisa
011E  30FB  	MOVLW 0xFB
011F  1283  	BCF STATUS, RP0
0120  0505  	ANDWF gbl_porta, W
0121  0085  	MOVWF gbl_porta
0122  30F7  	MOVLW 0xF7
0123  1683  	BSF STATUS, RP0
0124  0505  	ANDWF gbl_trisa, W
0125  0085  	MOVWF gbl_trisa
0126  30F7  	MOVLW 0xF7
0127  1283  	BCF STATUS, RP0
0128  0505  	ANDWF gbl_porta, W
0129  00FD  	MOVWF CompTempVar2195
012A  3008  	MOVLW 0x08
012B  047D  	IORWF CompTempVar2195, W
012C  0085  	MOVWF gbl_porta
012D  0008  	RETURN
012E        ; } FCM_scan1 function end

	ORG 0x0000012E
012E        FCD_LED1_L_00058
012E        ; { FCD_LED1_LEDOff ; function begin
012E  1683  	BSF STATUS, RP0
012F  1303  	BCF STATUS, RP1
0130  1287  	BCF gbl_trisc,5
0131  1283  	BCF STATUS, RP0
0132  1287  	BCF gbl_portc,5
0133  0008  	RETURN
0134        ; } FCD_LED1_LEDOff function end

	ORG 0x00000134
0134        FCD_LED0_L_00055
0134        ; { FCD_LED0_LEDOff ; function begin
0134  1683  	BSF STATUS, RP0
0135  1303  	BCF STATUS, RP1
0136  1285  	BCF gbl_trisa,5
0137  1283  	BCF STATUS, RP0
0138  1285  	BCF gbl_porta,5
0139  0008  	RETURN
013A        ; } FCD_LED0_LEDOff function end

	ORG 0x0000013A
013A        __rem_32_3_00002
013A        ; { __rem_32_32 ; function begin
013A  01AD  	CLRF CompTempVarRet212
013B  01AE  	CLRF CompTempVarRet212+D'1'
013C  01AF  	CLRF CompTempVarRet212+D'2'
013D  01B0  	CLRF CompTempVarRet212+D'3'
013E  01A8  	CLRF __rem_32_3_00002_1_c
013F  01A9  	CLRF __rem_32_3_00002_1_c+D'1'
0140  01AA  	CLRF __rem_32_3_00002_1_c+D'2'
0141  01AB  	CLRF __rem_32_3_00002_1_c+D'3'
0142  01AC  	CLRF __rem_32_3_00002_1_i
0143        label14
0143  1AAC  	BTFSC __rem_32_3_00002_1_i,5
0144  0008  	RETURN
0145  1003  	BCF STATUS,C
0146  0DA8  	RLF __rem_32_3_00002_1_c, F
0147  0DA9  	RLF __rem_32_3_00002_1_c+D'1', F
0148  0DAA  	RLF __rem_32_3_00002_1_c+D'2', F
0149  0DAB  	RLF __rem_32_3_00002_1_c+D'3', F
014A  0DA0  	RLF __rem_32_3_00002_arg_a, F
014B  0DA1  	RLF __rem_32_3_00002_arg_a+D'1', F
014C  0DA2  	RLF __rem_32_3_00002_arg_a+D'2', F
014D  0DA3  	RLF __rem_32_3_00002_arg_a+D'3', F
014E  0DAD  	RLF CompTempVarRet212, F
014F  0DAE  	RLF CompTempVarRet212+D'1', F
0150  0DAF  	RLF CompTempVarRet212+D'2', F
0151  0DB0  	RLF CompTempVarRet212+D'3', F
0152  0827  	MOVF __rem_32_3_00002_arg_b+D'3', W
0153  0230  	SUBWF CompTempVarRet212+D'3', W
0154  1D03  	BTFSS STATUS,Z
0155  2960  	GOTO	label15
0156  0826  	MOVF __rem_32_3_00002_arg_b+D'2', W
0157  022F  	SUBWF CompTempVarRet212+D'2', W
0158  1D03  	BTFSS STATUS,Z
0159  2960  	GOTO	label15
015A  0825  	MOVF __rem_32_3_00002_arg_b+D'1', W
015B  022E  	SUBWF CompTempVarRet212+D'1', W
015C  1D03  	BTFSS STATUS,Z
015D  2960  	GOTO	label15
015E  0824  	MOVF __rem_32_3_00002_arg_b, W
015F  022D  	SUBWF CompTempVarRet212, W
0160        label15
0160  1C03  	BTFSS STATUS,C
0161  2971  	GOTO	label16
0162  0824  	MOVF __rem_32_3_00002_arg_b, W
0163  02AD  	SUBWF CompTempVarRet212, F
0164  0825  	MOVF __rem_32_3_00002_arg_b+D'1', W
0165  1C03  	BTFSS STATUS,C
0166  0F25  	INCFSZ __rem_32_3_00002_arg_b+D'1', W
0167  02AE  	SUBWF CompTempVarRet212+D'1', F
0168  0826  	MOVF __rem_32_3_00002_arg_b+D'2', W
0169  1C03  	BTFSS STATUS,C
016A  0F26  	INCFSZ __rem_32_3_00002_arg_b+D'2', W
016B  02AF  	SUBWF CompTempVarRet212+D'2', F
016C  0827  	MOVF __rem_32_3_00002_arg_b+D'3', W
016D  1C03  	BTFSS STATUS,C
016E  0F27  	INCFSZ __rem_32_3_00002_arg_b+D'3', W
016F  02B0  	SUBWF CompTempVarRet212+D'3', F
0170  1428  	BSF __rem_32_3_00002_1_c,0
0171        label16
0171  0AAC  	INCF __rem_32_3_00002_1_i, F
0172  2943  	GOTO	label14
0173        ; } __rem_32_32 function end

	ORG 0x00000173
0173        __div_8_8_00000
0173        ; { __div_8_8 ; function begin
0173  01F9  	CLRF __div_8_8_00000_1_r
0174  01FB  	CLRF CompTempVarRet218
0175  01FA  	CLRF __div_8_8_00000_1_i
0176        label17
0176  19FA  	BTFSC __div_8_8_00000_1_i,3
0177  0008  	RETURN
0178  1003  	BCF STATUS,C
0179  0DFB  	RLF CompTempVarRet218, F
017A  0DF7  	RLF __div_8_8_00000_arg_a, F
017B  0DF9  	RLF __div_8_8_00000_1_r, F
017C  0878  	MOVF __div_8_8_00000_arg_b, W
017D  0279  	SUBWF __div_8_8_00000_1_r, W
017E  1C03  	BTFSS STATUS,C
017F  2982  	GOTO	label18
0180  00F9  	MOVWF __div_8_8_00000_1_r
0181  147B  	BSF CompTempVarRet218,0
0182        label18
0182  0AFA  	INCF __div_8_8_00000_1_i, F
0183  2976  	GOTO	label17
0184        ; } __div_8_8 function end

	ORG 0x00000184
0184        __div_32_3_00001
0184        ; { __div_32_32 ; function begin
0184  01AC  	CLRF __div_32_3_00001_1_r
0185  01AD  	CLRF __div_32_3_00001_1_r+D'1'
0186  01AE  	CLRF __div_32_3_00001_1_r+D'2'
0187  01AF  	CLRF __div_32_3_00001_1_r+D'3'
0188  01B1  	CLRF CompTempVarRet210
0189  01B2  	CLRF CompTempVarRet210+D'1'
018A  01B3  	CLRF CompTempVarRet210+D'2'
018B  01B4  	CLRF CompTempVarRet210+D'3'
018C  01B0  	CLRF __div_32_3_00001_1_i
018D        label19
018D  1AB0  	BTFSC __div_32_3_00001_1_i,5
018E  0008  	RETURN
018F  1003  	BCF STATUS,C
0190  0DB1  	RLF CompTempVarRet210, F
0191  0DB2  	RLF CompTempVarRet210+D'1', F
0192  0DB3  	RLF CompTempVarRet210+D'2', F
0193  0DB4  	RLF CompTempVarRet210+D'3', F
0194  0DA0  	RLF __div_32_3_00001_arg_a, F
0195  0DA1  	RLF __div_32_3_00001_arg_a+D'1', F
0196  0DA2  	RLF __div_32_3_00001_arg_a+D'2', F
0197  0DA3  	RLF __div_32_3_00001_arg_a+D'3', F
0198  0DAC  	RLF __div_32_3_00001_1_r, F
0199  0DAD  	RLF __div_32_3_00001_1_r+D'1', F
019A  0DAE  	RLF __div_32_3_00001_1_r+D'2', F
019B  0DAF  	RLF __div_32_3_00001_1_r+D'3', F
019C  0827  	MOVF __div_32_3_00001_arg_b+D'3', W
019D  022F  	SUBWF __div_32_3_00001_1_r+D'3', W
019E  1D03  	BTFSS STATUS,Z
019F  29AA  	GOTO	label20
01A0  0826  	MOVF __div_32_3_00001_arg_b+D'2', W
01A1  022E  	SUBWF __div_32_3_00001_1_r+D'2', W
01A2  1D03  	BTFSS STATUS,Z
01A3  29AA  	GOTO	label20
01A4  0825  	MOVF __div_32_3_00001_arg_b+D'1', W
01A5  022D  	SUBWF __div_32_3_00001_1_r+D'1', W
01A6  1D03  	BTFSS STATUS,Z
01A7  29AA  	GOTO	label20
01A8  0824  	MOVF __div_32_3_00001_arg_b, W
01A9  022C  	SUBWF __div_32_3_00001_1_r, W
01AA        label20
01AA  1C03  	BTFSS STATUS,C
01AB  29BB  	GOTO	label21
01AC  0824  	MOVF __div_32_3_00001_arg_b, W
01AD  02AC  	SUBWF __div_32_3_00001_1_r, F
01AE  0825  	MOVF __div_32_3_00001_arg_b+D'1', W
01AF  1C03  	BTFSS STATUS,C
01B0  0F25  	INCFSZ __div_32_3_00001_arg_b+D'1', W
01B1  02AD  	SUBWF __div_32_3_00001_1_r+D'1', F
01B2  0826  	MOVF __div_32_3_00001_arg_b+D'2', W
01B3  1C03  	BTFSS STATUS,C
01B4  0F26  	INCFSZ __div_32_3_00001_arg_b+D'2', W
01B5  02AE  	SUBWF __div_32_3_00001_1_r+D'2', F
01B6  0827  	MOVF __div_32_3_00001_arg_b+D'3', W
01B7  1C03  	BTFSS STATUS,C
01B8  0F27  	INCFSZ __div_32_3_00001_arg_b+D'3', W
01B9  02AF  	SUBWF __div_32_3_00001_1_r+D'3', F
01BA  1431  	BSF CompTempVarRet210,0
01BB        label21
01BB  0AB0  	INCF __div_32_3_00001_1_i, F
01BC  298D  	GOTO	label19
01BD        ; } __div_32_32 function end

	ORG 0x000001BD
01BD        FC_CAL_EE__0007E
01BD        ; { FC_CAL_EE_Write ; function begin
01BD        label22
01BD  1703  	BSF STATUS, RP1
01BE  188C  	BTFSC gbl_eecon1,1
01BF  29BD  	GOTO	label22
01C0  1303  	BCF STATUS, RP1
01C1  0822  	MOVF FC_CAL_EE__0007E_arg_Address, W
01C2  1283  	BCF STATUS, RP0
01C3  1703  	BSF STATUS, RP1
01C4  008D  	MOVWF gbl_eeadr
01C5  1683  	BSF STATUS, RP0
01C6  1303  	BCF STATUS, RP1
01C7  0824  	MOVF FC_CAL_EE__0007E_arg_Data, W
01C8  1283  	BCF STATUS, RP0
01C9  1703  	BSF STATUS, RP1
01CA  008C  	MOVWF gbl_eedata
01CB  1683  	BSF STATUS, RP0
01CC  138C  	BCF gbl_eecon1,7
01CD  150C  	BSF gbl_eecon1,2
01CE  3080  	MOVLW 0x80
01CF  050B  	ANDWF gbl_intcon, W
01D0  1303  	BCF STATUS, RP1
01D1  00A5  	MOVWF FC_CAL_EE__0007E_1_bInterr_0007F
01D2  138B  	BCF gbl_intcon,7
01D3  3055  	MOVLW 0x55
01D4  1703  	BSF STATUS, RP1
01D5  008D  	MOVWF gbl_eecon2
01D6  30AA  	MOVLW 0xAA
01D7  008D  	MOVWF gbl_eecon2
01D8  148C  	BSF gbl_eecon1,1
01D9        label23
01D9  188C  	BTFSC gbl_eecon1,1
01DA  29D9  	GOTO	label23
01DB  1303  	BCF STATUS, RP1
01DC  08A5  	MOVF FC_CAL_EE__0007E_1_bInterr_0007F, F
01DD  1903  	BTFSC STATUS,Z
01DE  29E0  	GOTO	label24
01DF  178B  	BSF gbl_intcon,7
01E0        label24
01E0  1703  	BSF STATUS, RP1
01E1  110C  	BCF gbl_eecon1,2
01E2  0008  	RETURN
01E3        ; } FC_CAL_EE_Write function end

	ORG 0x000001E3
01E3        FCM_seg_pa_00052
01E3        ; { FCM_seg_pattern ; function begin
01E3  1283  	BCF STATUS, RP0
01E4  1303  	BCF STATUS, RP1
01E5  0861  	MOVF gbl_FCV_DIGIT, W
01E6  3A01  	XORLW 0x01
01E7  1903  	BTFSC STATUS,Z
01E8  2A05  	GOTO	label25
01E9  3A03  	XORLW 0x03
01EA  1903  	BTFSC STATUS,Z
01EB  2A0B  	GOTO	label26
01EC  3A01  	XORLW 0x01
01ED  1903  	BTFSC STATUS,Z
01EE  2A11  	GOTO	label27
01EF  3A07  	XORLW 0x07
01F0  1903  	BTFSC STATUS,Z
01F1  2A17  	GOTO	label28
01F2  3A01  	XORLW 0x01
01F3  1903  	BTFSC STATUS,Z
01F4  2A1D  	GOTO	label29
01F5  3A03  	XORLW 0x03
01F6  1903  	BTFSC STATUS,Z
01F7  2A23  	GOTO	label30
01F8  3A01  	XORLW 0x01
01F9  1903  	BTFSC STATUS,Z
01FA  2A29  	GOTO	label31
01FB  3A0F  	XORLW 0x0F
01FC  1903  	BTFSC STATUS,Z
01FD  2A2F  	GOTO	label32
01FE  3A01  	XORLW 0x01
01FF  1903  	BTFSC STATUS,Z
0200  2A35  	GOTO	label33
0201  3A09  	XORLW 0x09
0202  1903  	BTFSC STATUS,Z
0203  2A3B  	GOTO	label34
0204  2A3B  	GOTO	label34
0205        label25
0205  1683  	BSF STATUS, RP0
0206  0186  	CLRF gbl_trisb
0207  3013  	MOVLW 0x13
0208  1283  	BCF STATUS, RP0
0209  0086  	MOVWF gbl_portb
020A  0008  	RETURN
020B        label26
020B  1683  	BSF STATUS, RP0
020C  0186  	CLRF gbl_trisb
020D  30BD  	MOVLW 0xBD
020E  1283  	BCF STATUS, RP0
020F  0086  	MOVWF gbl_portb
0210  0008  	RETURN
0211        label27
0211  1683  	BSF STATUS, RP0
0212  0186  	CLRF gbl_trisb
0213  30B7  	MOVLW 0xB7
0214  1283  	BCF STATUS, RP0
0215  0086  	MOVWF gbl_portb
0216  0008  	RETURN
0217        label28
0217  1683  	BSF STATUS, RP0
0218  0186  	CLRF gbl_trisb
0219  30D3  	MOVLW 0xD3
021A  1283  	BCF STATUS, RP0
021B  0086  	MOVWF gbl_portb
021C  0008  	RETURN
021D        label29
021D  1683  	BSF STATUS, RP0
021E  0186  	CLRF gbl_trisb
021F  30E7  	MOVLW 0xE7
0220  1283  	BCF STATUS, RP0
0221  0086  	MOVWF gbl_portb
0222  0008  	RETURN
0223        label30
0223  1683  	BSF STATUS, RP0
0224  0186  	CLRF gbl_trisb
0225  30EF  	MOVLW 0xEF
0226  1283  	BCF STATUS, RP0
0227  0086  	MOVWF gbl_portb
0228  0008  	RETURN
0229        label31
0229  1683  	BSF STATUS, RP0
022A  0186  	CLRF gbl_trisb
022B  3033  	MOVLW 0x33
022C  1283  	BCF STATUS, RP0
022D  0086  	MOVWF gbl_portb
022E  0008  	RETURN
022F        label32
022F  1683  	BSF STATUS, RP0
0230  0186  	CLRF gbl_trisb
0231  30FF  	MOVLW 0xFF
0232  1283  	BCF STATUS, RP0
0233  0086  	MOVWF gbl_portb
0234  0008  	RETURN
0235        label33
0235  1683  	BSF STATUS, RP0
0236  0186  	CLRF gbl_trisb
0237  30F7  	MOVLW 0xF7
0238  1283  	BCF STATUS, RP0
0239  0086  	MOVWF gbl_portb
023A  0008  	RETURN
023B        label34
023B  1683  	BSF STATUS, RP0
023C  0186  	CLRF gbl_trisb
023D  307F  	MOVLW 0x7F
023E  1283  	BCF STATUS, RP0
023F  0086  	MOVWF gbl_portb
0240  0008  	RETURN
0241        ; } FCM_seg_pattern function end

	ORG 0x00000241
0241        FCM_lights_0005F
0241        ; { FCM_lights_off ; function begin
0241  2134  	CALL FCD_LED0_L_00055
0242  212E  	CALL FCD_LED1_L_00058
0243  0008  	RETURN
0244        ; } FCM_lights_off function end

	ORG 0x00000244
0244        FCM_displa_00063
0244        ; { FCM_display_repeat ; function begin
0244  2078  	CALL FCM_scan_o_00051
0245  2109  	CALL FCM_scan1_00000
0246  1683  	BSF STATUS, RP0
0247  0186  	CLRF gbl_trisb
0248  3081  	MOVLW 0x81
0249  1283  	BCF STATUS, RP0
024A  0086  	MOVWF gbl_portb
024B  3004  	MOVLW 0x04
024C  00FD  	MOVWF delay_ms_00000_arg_del
024D  2010  	CALL delay_ms_00000
024E  2078  	CALL FCM_scan_o_00051
024F  20E4  	CALL FCM_scan2_00000
0250  1683  	BSF STATUS, RP0
0251  0186  	CLRF gbl_trisb
0252  3081  	MOVLW 0x81
0253  1283  	BCF STATUS, RP0
0254  0086  	MOVWF gbl_portb
0255  3004  	MOVLW 0x04
0256  00FD  	MOVWF delay_ms_00000_arg_del
0257  2010  	CALL delay_ms_00000
0258  2078  	CALL FCM_scan_o_00051
0259  20BF  	CALL FCM_scan3_00000
025A  1683  	BSF STATUS, RP0
025B  0186  	CLRF gbl_trisb
025C  3081  	MOVLW 0x81
025D  1283  	BCF STATUS, RP0
025E  0086  	MOVWF gbl_portb
025F  3004  	MOVLW 0x04
0260  00FD  	MOVWF delay_ms_00000_arg_del
0261  2010  	CALL delay_ms_00000
0262  1683  	BSF STATUS, RP0
0263  0186  	CLRF gbl_trisb
0264  3081  	MOVLW 0x81
0265  1283  	BCF STATUS, RP0
0266  0086  	MOVWF gbl_portb
0267  2078  	CALL FCM_scan_o_00051
0268  209A  	CALL FCM_scan4_00000
0269  1683  	BSF STATUS, RP0
026A  0186  	CLRF gbl_trisb
026B  30E0  	MOVLW 0xE0
026C  1283  	BCF STATUS, RP0
026D  0086  	MOVWF gbl_portb
026E  3004  	MOVLW 0x04
026F  00FD  	MOVWF delay_ms_00000_arg_del
0270  2010  	CALL delay_ms_00000
0271  0008  	RETURN
0272        ; } FCM_display_repeat function end

	ORG 0x00000272
0272        FCD_PWM0_S_00061
0272        ; { FCD_PWM0_SetDutyCycle ; function begin
0272  087D  	MOVF FCD_PWM0_S_00061_arg_nDuty, W
0273  00FE  	MOVWF FC_CAL_PWM_0006B_arg_duty
0274  2035  	CALL FC_CAL_PWM_0006B
0275  0008  	RETURN
0276        ; } FCD_PWM0_SetDutyCycle function end

	ORG 0x00000276
0276        FCD_LED0_L_00057
0276        ; { FCD_LED0_LEDOn ; function begin
0276  1683  	BSF STATUS, RP0
0277  1303  	BCF STATUS, RP1
0278  1285  	BCF gbl_trisa,5
0279  1283  	BCF STATUS, RP0
027A  1685  	BSF gbl_porta,5
027B  0008  	RETURN
027C        ; } FCD_LED0_LEDOn function end

	ORG 0x0000027C
027C        FCD_I2C_Ma_0005E
027C        ; { FCD_I2C_Master0_MI2C_Stop ; function begin
027C  205C  	CALL FC_CAL_I2C_00077
027D  0008  	RETURN
027E        ; } FCD_I2C_Master0_MI2C_Stop function end

	ORG 0x0000027E
027E        FCD_I2C_Ma_0005D
027E        ; { FCD_I2C_Master0_MI2C_Receive_Byte ; function begin
027E  0875  	MOVF FCD_I2C_Ma_0005D_arg_Last, W
027F  00F6  	MOVWF FC_CAL_I2C_00079_arg_Last
0280  2038  	CALL FC_CAL_I2C_00079
0281  0877  	MOVF CompTempVarRet2288, W
0282  00F6  	MOVWF CompTempVarRet2245
0283  0008  	RETURN
0284        ; } FCD_I2C_Master0_MI2C_Receive_Byte function end

	ORG 0x00000284
0284        FCD_I2C_Ma_0005C
0284        ; { FCD_I2C_Master0_MI2C_Restart ; function begin
0284  2068  	CALL FC_CAL_I2C_00076
0285  0008  	RETURN
0286        ; } FCD_I2C_Master0_MI2C_Restart function end

	ORG 0x00000286
0286        FCD_I2C_Ma_0005B
0286        ; { FCD_I2C_Master0_MI2C_Transmit_Byte ; function begin
0286  0875  	MOVF FCD_I2C_Ma_0005B_arg_Data, W
0287  00F6  	MOVWF FC_CAL_I2C_00078_arg_Data
0288  204D  	CALL FC_CAL_I2C_00078
0289  0877  	MOVF CompTempVarRet2287, W
028A  00F6  	MOVWF CompTempVarRet2244
028B  0008  	RETURN
028C        ; } FCD_I2C_Master0_MI2C_Transmit_Byte function end

	ORG 0x0000028C
028C        FCD_I2C_Ma_0005A
028C        ; { FCD_I2C_Master0_MI2C_Start ; function begin
028C  2070  	CALL FC_CAL_I2C_00075
028D  0008  	RETURN
028E        ; } FCD_I2C_Master0_MI2C_Start function end

	ORG 0x0000028E
028E        FC_CAL_UAR_00083
028E        ; { FC_CAL_UART_Receive_1 ; function begin
028E  30FF  	MOVLW 0xFF
028F  00F9  	MOVWF FC_CAL_UAR_00083_1_retVal
0290  01FA  	CLRF FC_CAL_UAR_00083_1_delay1
0291  01FB  	CLRF FC_CAL_UAR_00083_1_regcheck
0292  01FC  	CLRF FC_CAL_UAR_00083_1_bWaitForever
0293  01FD  	CLRF FC_CAL_UAR_00083_1_rxStatus
0294  01FE  	CLRF FC_CAL_UAR_00083_1_dummy
0295  0A78  	INCF FC_CAL_UAR_00083_arg_nTimeout, W
0296  1D03  	BTFSS STATUS,Z
0297  2A9A  	GOTO	label35
0298  3001  	MOVLW 0x01
0299  00FC  	MOVWF FC_CAL_UAR_00083_1_bWaitForever
029A        label35
029A  08FD  	MOVF FC_CAL_UAR_00083_1_rxStatus, F
029B  1D03  	BTFSS STATUS,Z
029C  2ABE  	GOTO	label38
029D  08FC  	MOVF FC_CAL_UAR_00083_1_bWaitForever, F
029E  1D03  	BTFSS STATUS,Z
029F  2AB5  	GOTO	label37
02A0  08F8  	MOVF FC_CAL_UAR_00083_arg_nTimeout, F
02A1  1D03  	BTFSS STATUS,Z
02A2  2AA6  	GOTO	label36
02A3  3001  	MOVLW 0x01
02A4  00FD  	MOVWF FC_CAL_UAR_00083_1_rxStatus
02A5  2AB5  	GOTO	label37
02A6        label36
02A6  300A  	MOVLW 0x0A
02A7  1683  	BSF STATUS, RP0
02A8  00A0  	MOVWF delay_us_00000_arg_del
02A9  201C  	CALL delay_us_00000
02AA  1283  	BCF STATUS, RP0
02AB  0A7A  	INCF FC_CAL_UAR_00083_1_delay1, W
02AC  00FA  	MOVWF FC_CAL_UAR_00083_1_delay1
02AD  087A  	MOVF FC_CAL_UAR_00083_1_delay1, W
02AE  3A64  	XORLW 0x64
02AF  1D03  	BTFSS STATUS,Z
02B0  2AB5  	GOTO	label37
02B1  0378  	DECF FC_CAL_UAR_00083_arg_nTimeout, W
02B2  00F8  	MOVWF FC_CAL_UAR_00083_arg_nTimeout
02B3  0064  	CLRWDT
02B4  01FA  	CLRF FC_CAL_UAR_00083_1_delay1
02B5        label37
02B5  3020  	MOVLW 0x20
02B6  050C  	ANDWF gbl_pir1, W
02B7  00FB  	MOVWF FC_CAL_UAR_00083_1_regcheck
02B8  08FB  	MOVF FC_CAL_UAR_00083_1_regcheck, F
02B9  1903  	BTFSC STATUS,Z
02BA  2A9A  	GOTO	label35
02BB  3002  	MOVLW 0x02
02BC  00FD  	MOVWF FC_CAL_UAR_00083_1_rxStatus
02BD  2A9A  	GOTO	label35
02BE        label38
02BE  087D  	MOVF FC_CAL_UAR_00083_1_rxStatus, W
02BF  3A02  	XORLW 0x02
02C0  1D03  	BTFSS STATUS,Z
02C1  2AD8  	GOTO	label41
02C2  3004  	MOVLW 0x04
02C3  0518  	ANDWF gbl_rcsta, W
02C4  00FB  	MOVWF FC_CAL_UAR_00083_1_regcheck
02C5  08FB  	MOVF FC_CAL_UAR_00083_1_regcheck, F
02C6  1903  	BTFSC STATUS,Z
02C7  2ACB  	GOTO	label39
02C8  081A  	MOVF gbl_rcreg, W
02C9  00FE  	MOVWF FC_CAL_UAR_00083_1_dummy
02CA  2AD8  	GOTO	label41
02CB        label39
02CB  3002  	MOVLW 0x02
02CC  0518  	ANDWF gbl_rcsta, W
02CD  00FB  	MOVWF FC_CAL_UAR_00083_1_regcheck
02CE  08FB  	MOVF FC_CAL_UAR_00083_1_regcheck, F
02CF  1903  	BTFSC STATUS,Z
02D0  2AD4  	GOTO	label40
02D1  1218  	BCF gbl_rcsta,4
02D2  1618  	BSF gbl_rcsta,4
02D3  2AD8  	GOTO	label41
02D4        label40
02D4  01F9  	CLRF FC_CAL_UAR_00083_1_retVal
02D5  081A  	MOVF gbl_rcreg, W
02D6  0479  	IORWF FC_CAL_UAR_00083_1_retVal, W
02D7  00F9  	MOVWF FC_CAL_UAR_00083_1_retVal
02D8        label41
02D8  0879  	MOVF FC_CAL_UAR_00083_1_retVal, W
02D9  1683  	BSF STATUS, RP0
02DA  00A0  	MOVWF CompTempVarRet2294
02DB  01A1  	CLRF CompTempVarRet2294+D'1'
02DC  0008  	RETURN
02DD        ; } FC_CAL_UART_Receive_1 function end

	ORG 0x000002DD
02DD        FC_CAL_UAR_00082
02DD        ; { FC_CAL_UART_Send_1 ; function begin
02DD        label42
02DD  1283  	BCF STATUS, RP0
02DE  1E0C  	BTFSS gbl_pir1,4
02DF  2ADD  	GOTO	label42
02E0  1683  	BSF STATUS, RP0
02E1  0820  	MOVF FC_CAL_UAR_00082_arg_nChar, W
02E2  1283  	BCF STATUS, RP0
02E3  0099  	MOVWF gbl_txreg
02E4  0008  	RETURN
02E5        ; } FC_CAL_UART_Send_1 function end

	ORG 0x000002E5
02E5        FC_CAL_PWM_0006C
02E5        ; { FC_CAL_PWM_Change_Period_1 ; function begin
02E5  0875  	MOVF FC_CAL_PWM_0006C_arg_period, W
02E6  1683  	BSF STATUS, RP0
02E7  0092  	MOVWF gbl_pr2
02E8  3001  	MOVLW 0x01
02E9  1283  	BCF STATUS, RP0
02EA  0676  	XORWF FC_CAL_PWM_0006C_arg_prescaler, W
02EB  1903  	BTFSC STATUS,Z
02EC  0877  	MOVF FC_CAL_PWM_0006C_arg_prescaler+D'1', W
02ED  1903  	BTFSC STATUS,Z
02EE  2AFC  	GOTO	label43
02EF  3004  	MOVLW 0x04
02F0  0676  	XORWF FC_CAL_PWM_0006C_arg_prescaler, W
02F1  1903  	BTFSC STATUS,Z
02F2  0877  	MOVF FC_CAL_PWM_0006C_arg_prescaler+D'1', W
02F3  1903  	BTFSC STATUS,Z
02F4  2AFF  	GOTO	label44
02F5  3010  	MOVLW 0x10
02F6  0676  	XORWF FC_CAL_PWM_0006C_arg_prescaler, W
02F7  1903  	BTFSC STATUS,Z
02F8  0877  	MOVF FC_CAL_PWM_0006C_arg_prescaler+D'1', W
02F9  1903  	BTFSC STATUS,Z
02FA  2B02  	GOTO	label45
02FB  0008  	RETURN
02FC        label43
02FC  3004  	MOVLW 0x04
02FD  0092  	MOVWF gbl_t2con
02FE  0008  	RETURN
02FF        label44
02FF  3005  	MOVLW 0x05
0300  0092  	MOVWF gbl_t2con
0301  0008  	RETURN
0302        label45
0302  3006  	MOVLW 0x06
0303  0092  	MOVWF gbl_t2con
0304  0008  	RETURN
0305        ; } FC_CAL_PWM_Change_Period_1 function end

	ORG 0x00000305
0305        FC_CAL_PWM_00069
0305        ; { FC_CAL_PWM_Enable_Channel_1 ; function begin
0305  1683  	BSF STATUS, RP0
0306  1303  	BCF STATUS, RP1
0307  1087  	BCF gbl_trisc,1
0308  1283  	BCF STATUS, RP0
0309  1087  	BCF gbl_portc,1
030A  300C  	MOVLW 0x0C
030B  009D  	MOVWF gbl_ccp2con
030C  0008  	RETURN
030D        ; } FC_CAL_PWM_Enable_Channel_1 function end

	ORG 0x0000030D
030D        FC_CAL_I2C_00073
030D        ; { FC_CAL_I2C_Master_Init_1 ; function begin
030D  1683  	BSF STATUS, RP0
030E  1303  	BCF STATUS, RP1
030F  1794  	BSF gbl_sspstat,7
0310  1314  	BCF gbl_sspstat,6
0311  3028  	MOVLW 0x28
0312  1283  	BCF STATUS, RP0
0313  0094  	MOVWF gbl_sspcon
0314  30A0  	MOVLW 0xA0
0315  1683  	BSF STATUS, RP0
0316  0093  	MOVWF gbl_sspadd
0317  0191  	CLRF gbl_sspcon2
0318  178B  	BSF gbl_intcon,7
0319  1607  	BSF gbl_trisc,4
031A  1587  	BSF gbl_trisc,3
031B  0008  	RETURN
031C        ; } FC_CAL_I2C_Master_Init_1 function end

	ORG 0x0000031C
031C        FC_CAL_EE__0007D
031C        ; { FC_CAL_EE_Read ; function begin
031C  01F9  	CLRF FC_CAL_EE__0007D_1_data
031D  0877  	MOVF FC_CAL_EE__0007D_arg_Address, W
031E  1703  	BSF STATUS, RP1
031F  008D  	MOVWF gbl_eeadr
0320  1683  	BSF STATUS, RP0
0321  138C  	BCF gbl_eecon1,7
0322  140C  	BSF gbl_eecon1,0
0323  1283  	BCF STATUS, RP0
0324  080C  	MOVF gbl_eedata, W
0325  1303  	BCF STATUS, RP1
0326  00F9  	MOVWF FC_CAL_EE__0007D_1_data
0327  0879  	MOVF FC_CAL_EE__0007D_1_data, W
0328  00FA  	MOVWF CompTempVarRet2292
0329  0008  	RETURN
032A        ; } FC_CAL_EE_Read function end

	ORG 0x0000032A
032A        FCM_repeat_00000
032A        ; { FCM_repeat ; function begin
032A  1283  	BCF STATUS, RP0
032B  1303  	BCF STATUS, RP1
032C  01ED  	CLRF gbl_FCLV_LOOP4
032D        label46
032D  300A  	MOVLW 0x0A
032E  026D  	SUBWF gbl_FCLV_LOOP4, W
032F  1803  	BTFSC STATUS,C
0330  2B37  	GOTO	label47
0331  2244  	CALL FCM_displa_00063
0332  2241  	CALL FCM_lights_0005F
0333  01FD  	CLRF FCD_PWM0_S_00061_arg_nDuty
0334  2272  	CALL FCD_PWM0_S_00061
0335  0AED  	INCF gbl_FCLV_LOOP4, F
0336  2B2D  	GOTO	label46
0337        label47
0337  01EE  	CLRF gbl_FCLV_LOOP5
0338        label48
0338  300A  	MOVLW 0x0A
0339  026E  	SUBWF gbl_FCLV_LOOP5, W
033A  1803  	BTFSC STATUS,C
033B  2B43  	GOTO	label49
033C  2244  	CALL FCM_displa_00063
033D  2241  	CALL FCM_lights_0005F
033E  30A0  	MOVLW 0xA0
033F  00FD  	MOVWF FCD_PWM0_S_00061_arg_nDuty
0340  2272  	CALL FCD_PWM0_S_00061
0341  0AEE  	INCF gbl_FCLV_LOOP5, F
0342  2B38  	GOTO	label48
0343        label49
0343  01EF  	CLRF gbl_FCLV_LOOP6
0344        label50
0344  300A  	MOVLW 0x0A
0345  026F  	SUBWF gbl_FCLV_LOOP6, W
0346  1803  	BTFSC STATUS,C
0347  2B4E  	GOTO	label51
0348  2244  	CALL FCM_displa_00063
0349  2241  	CALL FCM_lights_0005F
034A  01FD  	CLRF FCD_PWM0_S_00061_arg_nDuty
034B  2272  	CALL FCD_PWM0_S_00061
034C  0AEF  	INCF gbl_FCLV_LOOP6, F
034D  2B44  	GOTO	label50
034E        label51
034E  01F0  	CLRF gbl_FCLV_LOOP7
034F        label52
034F  300A  	MOVLW 0x0A
0350  0270  	SUBWF gbl_FCLV_LOOP7, W
0351  1803  	BTFSC STATUS,C
0352  2B5A  	GOTO	label53
0353  2244  	CALL FCM_displa_00063
0354  2241  	CALL FCM_lights_0005F
0355  30A0  	MOVLW 0xA0
0356  00FD  	MOVWF FCD_PWM0_S_00061_arg_nDuty
0357  2272  	CALL FCD_PWM0_S_00061
0358  0AF0  	INCF gbl_FCLV_LOOP7, F
0359  2B4F  	GOTO	label52
035A        label53
035A  01F1  	CLRF gbl_FCLV_LOOP8
035B        label54
035B  300A  	MOVLW 0x0A
035C  0271  	SUBWF gbl_FCLV_LOOP8, W
035D  1803  	BTFSC STATUS,C
035E  2B65  	GOTO	label55
035F  2244  	CALL FCM_displa_00063
0360  2241  	CALL FCM_lights_0005F
0361  01FD  	CLRF FCD_PWM0_S_00061_arg_nDuty
0362  2272  	CALL FCD_PWM0_S_00061
0363  0AF1  	INCF gbl_FCLV_LOOP8, F
0364  2B5B  	GOTO	label54
0365        label55
0365  01F2  	CLRF gbl_FCLV_LOOP9
0366        label56
0366  300A  	MOVLW 0x0A
0367  0272  	SUBWF gbl_FCLV_LOOP9, W
0368  1803  	BTFSC STATUS,C
0369  2B71  	GOTO	label57
036A  2244  	CALL FCM_displa_00063
036B  2241  	CALL FCM_lights_0005F
036C  30A0  	MOVLW 0xA0
036D  00FD  	MOVWF FCD_PWM0_S_00061_arg_nDuty
036E  2272  	CALL FCD_PWM0_S_00061
036F  0AF2  	INCF gbl_FCLV_LOOP9, F
0370  2B66  	GOTO	label56
0371        label57
0371  01F3  	CLRF gbl_FCLV_LOOP10
0372        label58
0372  300A  	MOVLW 0x0A
0373  0273  	SUBWF gbl_FCLV_LOOP10, W
0374  1803  	BTFSC STATUS,C
0375  0008  	RETURN
0376  2244  	CALL FCM_displa_00063
0377  2241  	CALL FCM_lights_0005F
0378  01FD  	CLRF FCD_PWM0_S_00061_arg_nDuty
0379  2272  	CALL FCD_PWM0_S_00061
037A  0AF3  	INCF gbl_FCLV_LOOP10, F
037B  2B72  	GOTO	label58
037C        ; } FCM_repeat function end

	ORG 0x0000037C
037C        FCM_i2c_co_00059
037C        ; { FCM_i2c_comm ; function begin
037C  228C  	CALL FCD_I2C_Ma_0005A
037D  1283  	BCF STATUS, RP0
037E  01DE  	CLRF gbl_FCV_RT_BYTE
037F  30B4  	MOVLW 0xB4
0380  00F5  	MOVWF FCD_I2C_Ma_0005B_arg_Data
0381  2286  	CALL FCD_I2C_Ma_0005B
0382  0876  	MOVF CompTempVarRet2244, W
0383  00DE  	MOVWF gbl_FCV_RT_BYTE
0384  01DE  	CLRF gbl_FCV_RT_BYTE
0385  3007  	MOVLW 0x07
0386  00F5  	MOVWF FCD_I2C_Ma_0005B_arg_Data
0387  2286  	CALL FCD_I2C_Ma_0005B
0388  0876  	MOVF CompTempVarRet2244, W
0389  00DE  	MOVWF gbl_FCV_RT_BYTE
038A  2284  	CALL FCD_I2C_Ma_0005C
038B  1283  	BCF STATUS, RP0
038C  01DE  	CLRF gbl_FCV_RT_BYTE
038D  30B4  	MOVLW 0xB4
038E  00F5  	MOVWF FCD_I2C_Ma_0005B_arg_Data
038F  2286  	CALL FCD_I2C_Ma_0005B
0390  0876  	MOVF CompTempVarRet2244, W
0391  00DE  	MOVWF gbl_FCV_RT_BYTE
0392  085E  	MOVF gbl_FCV_RT_BYTE, W
0393  00F5  	MOVWF FCD_I2C_Ma_0005D_arg_Last
0394  227E  	CALL FCD_I2C_Ma_0005D
0395  0876  	MOVF CompTempVarRet2245, W
0396  00E3  	MOVWF gbl_FCV_I2C_RX
0397  0863  	MOVF gbl_FCV_I2C_RX, W
0398  00D4  	MOVWF gbl_FCV_DATA0
0399  085E  	MOVF gbl_FCV_RT_BYTE, W
039A  00F5  	MOVWF FCD_I2C_Ma_0005D_arg_Last
039B  227E  	CALL FCD_I2C_Ma_0005D
039C  0876  	MOVF CompTempVarRet2245, W
039D  00E3  	MOVWF gbl_FCV_I2C_RX
039E  0863  	MOVF gbl_FCV_I2C_RX, W
039F  00D5  	MOVWF gbl_FCV_DATA1
03A0  085E  	MOVF gbl_FCV_RT_BYTE, W
03A1  00F5  	MOVWF FCD_I2C_Ma_0005D_arg_Last
03A2  227E  	CALL FCD_I2C_Ma_0005D
03A3  0876  	MOVF CompTempVarRet2245, W
03A4  00E3  	MOVWF gbl_FCV_I2C_RX
03A5  0863  	MOVF gbl_FCV_I2C_RX, W
03A6  00D8  	MOVWF gbl_FCV_DATA2
03A7  227C  	CALL FCD_I2C_Ma_0005E
03A8  0008  	RETURN
03A9        ; } FCM_i2c_comm function end

	ORG 0x000003A9
03A9        FCM_failed_00000
03A9        ; { FCM_failed ; function begin
03A9  2276  	CALL FCD_LED0_L_00057
03AA  212E  	CALL FCD_LED1_L_00058
03AB  0008  	RETURN
03AC        ; } FCM_failed function end

	ORG 0x000003AC
03AC        FCM_displa_00066
03AC        ; { FCM_display_temp_calib ; function begin
03AC  1683  	BSF STATUS, RP0
03AD  1303  	BCF STATUS, RP1
03AE  01A8  	CLRF CompTempVar2276
03AF  1283  	BCF STATUS, RP0
03B0  0838  	MOVF gbl_FCV_TEMP_C, W
03B1  1683  	BSF STATUS, RP0
03B2  00A0  	MOVWF __div_32_3_00001_arg_a
03B3  1283  	BCF STATUS, RP0
03B4  0839  	MOVF gbl_FCV_TEMP_C+D'1', W
03B5  1683  	BSF STATUS, RP0
03B6  00A1  	MOVWF __div_32_3_00001_arg_a+D'1'
03B7  1283  	BCF STATUS, RP0
03B8  083A  	MOVF gbl_FCV_TEMP_C+D'2', W
03B9  1683  	BSF STATUS, RP0
03BA  00A2  	MOVWF __div_32_3_00001_arg_a+D'2'
03BB  1283  	BCF STATUS, RP0
03BC  083B  	MOVF gbl_FCV_TEMP_C+D'3', W
03BD  1683  	BSF STATUS, RP0
03BE  00A3  	MOVWF __div_32_3_00001_arg_a+D'3'
03BF  1283  	BCF STATUS, RP0
03C0  1FBB  	BTFSS gbl_FCV_TEMP_C+D'3',7
03C1  2BCF  	GOTO	label59
03C2  1683  	BSF STATUS, RP0
03C3  09A0  	COMF __div_32_3_00001_arg_a, F
03C4  09A1  	COMF __div_32_3_00001_arg_a+D'1', F
03C5  09A2  	COMF __div_32_3_00001_arg_a+D'2', F
03C6  09A3  	COMF __div_32_3_00001_arg_a+D'3', F
03C7  0AA0  	INCF __div_32_3_00001_arg_a, F
03C8  1903  	BTFSC STATUS,Z
03C9  0AA1  	INCF __div_32_3_00001_arg_a+D'1', F
03CA  1903  	BTFSC STATUS,Z
03CB  0AA2  	INCF __div_32_3_00001_arg_a+D'2', F
03CC  1903  	BTFSC STATUS,Z
03CD  0AA3  	INCF __div_32_3_00001_arg_a+D'3', F
03CE  0AA8  	INCF CompTempVar2276, F
03CF        label59
03CF  300A  	MOVLW 0x0A
03D0  1683  	BSF STATUS, RP0
03D1  00A4  	MOVWF __div_32_3_00001_arg_b
03D2  01A5  	CLRF __div_32_3_00001_arg_b+D'1'
03D3  01A6  	CLRF __div_32_3_00001_arg_b+D'2'
03D4  01A7  	CLRF __div_32_3_00001_arg_b+D'3'
03D5  2184  	CALL __div_32_3_00001
03D6  0831  	MOVF CompTempVarRet210, W
03D7  1283  	BCF STATUS, RP0
03D8  00D2  	MOVWF gbl_FCV_TEMP_TENS
03D9  1683  	BSF STATUS, RP0
03DA  1C28  	BTFSS CompTempVar2276,0
03DB  2BDF  	GOTO	label60
03DC  1283  	BCF STATUS, RP0
03DD  09D2  	COMF gbl_FCV_TEMP_TENS, F
03DE  0AD2  	INCF gbl_FCV_TEMP_TENS, F
03DF        label60
03DF  1283  	BCF STATUS, RP0
03E0  0838  	MOVF gbl_FCV_TEMP_C, W
03E1  1683  	BSF STATUS, RP0
03E2  00A0  	MOVWF __rem_32_3_00002_arg_a
03E3  1283  	BCF STATUS, RP0
03E4  0839  	MOVF gbl_FCV_TEMP_C+D'1', W
03E5  1683  	BSF STATUS, RP0
03E6  00A1  	MOVWF __rem_32_3_00002_arg_a+D'1'
03E7  1283  	BCF STATUS, RP0
03E8  083A  	MOVF gbl_FCV_TEMP_C+D'2', W
03E9  1683  	BSF STATUS, RP0
03EA  00A2  	MOVWF __rem_32_3_00002_arg_a+D'2'
03EB  1283  	BCF STATUS, RP0
03EC  083B  	MOVF gbl_FCV_TEMP_C+D'3', W
03ED  1683  	BSF STATUS, RP0
03EE  00A3  	MOVWF __rem_32_3_00002_arg_a+D'3'
03EF  1283  	BCF STATUS, RP0
03F0  1FBB  	BTFSS gbl_FCV_TEMP_C+D'3',7
03F1  2BFE  	GOTO	label61
03F2  1683  	BSF STATUS, RP0
03F3  09A0  	COMF __rem_32_3_00002_arg_a, F
03F4  09A1  	COMF __rem_32_3_00002_arg_a+D'1', F
03F5  09A2  	COMF __rem_32_3_00002_arg_a+D'2', F
03F6  09A3  	COMF __rem_32_3_00002_arg_a+D'3', F
03F7  0AA0  	INCF __rem_32_3_00002_arg_a, F
03F8  1903  	BTFSC STATUS,Z
03F9  0AA1  	INCF __rem_32_3_00002_arg_a+D'1', F
03FA  1903  	BTFSC STATUS,Z
03FB  0AA2  	INCF __rem_32_3_00002_arg_a+D'2', F
03FC  1903  	BTFSC STATUS,Z
03FD  0AA3  	INCF __rem_32_3_00002_arg_a+D'3', F
03FE        label61
03FE  300A  	MOVLW 0x0A
03FF  1683  	BSF STATUS, RP0
0400  00A4  	MOVWF __rem_32_3_00002_arg_b
0401  01A5  	CLRF __rem_32_3_00002_arg_b+D'1'
0402  01A6  	CLRF __rem_32_3_00002_arg_b+D'2'
0403  01A7  	CLRF __rem_32_3_00002_arg_b+D'3'
0404  213A  	CALL __rem_32_3_00002
0405  082D  	MOVF CompTempVarRet212, W
0406  1283  	BCF STATUS, RP0
0407  00DC  	MOVWF gbl_FCV_TEMP_ONES
0408  1FBB  	BTFSS gbl_FCV_TEMP_C+D'3',7
0409  2C0C  	GOTO	label62
040A  09DC  	COMF gbl_FCV_TEMP_ONES, F
040B  0ADC  	INCF gbl_FCV_TEMP_ONES, F
040C        label62
040C  0841  	MOVF gbl_FCV_TEMP_CDP, W
040D  00DA  	MOVWF gbl_FCV_TEMP_DEC
040E  1683  	BSF STATUS, RP0
040F  0186  	CLRF gbl_trisb
0410  3001  	MOVLW 0x01
0411  1283  	BCF STATUS, RP0
0412  0086  	MOVWF gbl_portb
0413  2078  	CALL FCM_scan_o_00051
0414  2109  	CALL FCM_scan1_00000
0415  0852  	MOVF gbl_FCV_TEMP_TENS, W
0416  00E1  	MOVWF gbl_FCV_DIGIT
0417  21E3  	CALL FCM_seg_pa_00052
0418  3004  	MOVLW 0x04
0419  00FD  	MOVWF delay_ms_00000_arg_del
041A  2010  	CALL delay_ms_00000
041B  1683  	BSF STATUS, RP0
041C  0186  	CLRF gbl_trisb
041D  3001  	MOVLW 0x01
041E  1283  	BCF STATUS, RP0
041F  0086  	MOVWF gbl_portb
0420  2078  	CALL FCM_scan_o_00051
0421  20E4  	CALL FCM_scan2_00000
0422  085C  	MOVF gbl_FCV_TEMP_ONES, W
0423  00E1  	MOVWF gbl_FCV_DIGIT
0424  21E3  	CALL FCM_seg_pa_00052
0425  30FE  	MOVLW 0xFE
0426  1683  	BSF STATUS, RP0
0427  0506  	ANDWF gbl_trisb, W
0428  0086  	MOVWF gbl_trisb
0429  30FE  	MOVLW 0xFE
042A  1283  	BCF STATUS, RP0
042B  0506  	ANDWF gbl_portb, W
042C  0086  	MOVWF gbl_portb
042D  3004  	MOVLW 0x04
042E  00FD  	MOVWF delay_ms_00000_arg_del
042F  2010  	CALL delay_ms_00000
0430  1683  	BSF STATUS, RP0
0431  0186  	CLRF gbl_trisb
0432  3001  	MOVLW 0x01
0433  1283  	BCF STATUS, RP0
0434  0086  	MOVWF gbl_portb
0435  2078  	CALL FCM_scan_o_00051
0436  20BF  	CALL FCM_scan3_00000
0437  085A  	MOVF gbl_FCV_TEMP_DEC, W
0438  00E1  	MOVWF gbl_FCV_DIGIT
0439  21E3  	CALL FCM_seg_pa_00052
043A  3004  	MOVLW 0x04
043B  00FD  	MOVWF delay_ms_00000_arg_del
043C  2010  	CALL delay_ms_00000
043D  1683  	BSF STATUS, RP0
043E  0186  	CLRF gbl_trisb
043F  3001  	MOVLW 0x01
0440  1283  	BCF STATUS, RP0
0441  0086  	MOVWF gbl_portb
0442  2078  	CALL FCM_scan_o_00051
0443  209A  	CALL FCM_scan4_00000
0444  1683  	BSF STATUS, RP0
0445  0186  	CLRF gbl_trisb
0446  30F0  	MOVLW 0xF0
0447  1283  	BCF STATUS, RP0
0448  0086  	MOVWF gbl_portb
0449  3004  	MOVLW 0x04
044A  00FD  	MOVWF delay_ms_00000_arg_del
044B  2010  	CALL delay_ms_00000
044C  0008  	RETURN
044D        ; } FCM_display_temp_calib function end

	ORG 0x0000044D
044D        FCM_displa_00053
044D        ; { FCM_display_temp ; function begin
044D  1683  	BSF STATUS, RP0
044E  1303  	BCF STATUS, RP1
044F  01A8  	CLRF CompTempVar2207
0450  1283  	BCF STATUS, RP0
0451  0838  	MOVF gbl_FCV_TEMP_C, W
0452  1683  	BSF STATUS, RP0
0453  00A0  	MOVWF __div_32_3_00001_arg_a
0454  1283  	BCF STATUS, RP0
0455  0839  	MOVF gbl_FCV_TEMP_C+D'1', W
0456  1683  	BSF STATUS, RP0
0457  00A1  	MOVWF __div_32_3_00001_arg_a+D'1'
0458  1283  	BCF STATUS, RP0
0459  083A  	MOVF gbl_FCV_TEMP_C+D'2', W
045A  1683  	BSF STATUS, RP0
045B  00A2  	MOVWF __div_32_3_00001_arg_a+D'2'
045C  1283  	BCF STATUS, RP0
045D  083B  	MOVF gbl_FCV_TEMP_C+D'3', W
045E  1683  	BSF STATUS, RP0
045F  00A3  	MOVWF __div_32_3_00001_arg_a+D'3'
0460  1283  	BCF STATUS, RP0
0461  1FBB  	BTFSS gbl_FCV_TEMP_C+D'3',7
0462  2C70  	GOTO	label63
0463  1683  	BSF STATUS, RP0
0464  09A0  	COMF __div_32_3_00001_arg_a, F
0465  09A1  	COMF __div_32_3_00001_arg_a+D'1', F
0466  09A2  	COMF __div_32_3_00001_arg_a+D'2', F
0467  09A3  	COMF __div_32_3_00001_arg_a+D'3', F
0468  0AA0  	INCF __div_32_3_00001_arg_a, F
0469  1903  	BTFSC STATUS,Z
046A  0AA1  	INCF __div_32_3_00001_arg_a+D'1', F
046B  1903  	BTFSC STATUS,Z
046C  0AA2  	INCF __div_32_3_00001_arg_a+D'2', F
046D  1903  	BTFSC STATUS,Z
046E  0AA3  	INCF __div_32_3_00001_arg_a+D'3', F
046F  0AA8  	INCF CompTempVar2207, F
0470        label63
0470  300A  	MOVLW 0x0A
0471  1683  	BSF STATUS, RP0
0472  00A4  	MOVWF __div_32_3_00001_arg_b
0473  01A5  	CLRF __div_32_3_00001_arg_b+D'1'
0474  01A6  	CLRF __div_32_3_00001_arg_b+D'2'
0475  01A7  	CLRF __div_32_3_00001_arg_b+D'3'
0476  2184  	CALL __div_32_3_00001
0477  0831  	MOVF CompTempVarRet210, W
0478  1283  	BCF STATUS, RP0
0479  00D2  	MOVWF gbl_FCV_TEMP_TENS
047A  1683  	BSF STATUS, RP0
047B  1C28  	BTFSS CompTempVar2207,0
047C  2C80  	GOTO	label64
047D  1283  	BCF STATUS, RP0
047E  09D2  	COMF gbl_FCV_TEMP_TENS, F
047F  0AD2  	INCF gbl_FCV_TEMP_TENS, F
0480        label64
0480  1283  	BCF STATUS, RP0
0481  0838  	MOVF gbl_FCV_TEMP_C, W
0482  1683  	BSF STATUS, RP0
0483  00A0  	MOVWF __rem_32_3_00002_arg_a
0484  1283  	BCF STATUS, RP0
0485  0839  	MOVF gbl_FCV_TEMP_C+D'1', W
0486  1683  	BSF STATUS, RP0
0487  00A1  	MOVWF __rem_32_3_00002_arg_a+D'1'
0488  1283  	BCF STATUS, RP0
0489  083A  	MOVF gbl_FCV_TEMP_C+D'2', W
048A  1683  	BSF STATUS, RP0
048B  00A2  	MOVWF __rem_32_3_00002_arg_a+D'2'
048C  1283  	BCF STATUS, RP0
048D  083B  	MOVF gbl_FCV_TEMP_C+D'3', W
048E  1683  	BSF STATUS, RP0
048F  00A3  	MOVWF __rem_32_3_00002_arg_a+D'3'
0490  1283  	BCF STATUS, RP0
0491  1FBB  	BTFSS gbl_FCV_TEMP_C+D'3',7
0492  2C9F  	GOTO	label65
0493  1683  	BSF STATUS, RP0
0494  09A0  	COMF __rem_32_3_00002_arg_a, F
0495  09A1  	COMF __rem_32_3_00002_arg_a+D'1', F
0496  09A2  	COMF __rem_32_3_00002_arg_a+D'2', F
0497  09A3  	COMF __rem_32_3_00002_arg_a+D'3', F
0498  0AA0  	INCF __rem_32_3_00002_arg_a, F
0499  1903  	BTFSC STATUS,Z
049A  0AA1  	INCF __rem_32_3_00002_arg_a+D'1', F
049B  1903  	BTFSC STATUS,Z
049C  0AA2  	INCF __rem_32_3_00002_arg_a+D'2', F
049D  1903  	BTFSC STATUS,Z
049E  0AA3  	INCF __rem_32_3_00002_arg_a+D'3', F
049F        label65
049F  300A  	MOVLW 0x0A
04A0  1683  	BSF STATUS, RP0
04A1  00A4  	MOVWF __rem_32_3_00002_arg_b
04A2  01A5  	CLRF __rem_32_3_00002_arg_b+D'1'
04A3  01A6  	CLRF __rem_32_3_00002_arg_b+D'2'
04A4  01A7  	CLRF __rem_32_3_00002_arg_b+D'3'
04A5  213A  	CALL __rem_32_3_00002
04A6  082D  	MOVF CompTempVarRet212, W
04A7  1283  	BCF STATUS, RP0
04A8  00DC  	MOVWF gbl_FCV_TEMP_ONES
04A9  1FBB  	BTFSS gbl_FCV_TEMP_C+D'3',7
04AA  2CAD  	GOTO	label66
04AB  09DC  	COMF gbl_FCV_TEMP_ONES, F
04AC  0ADC  	INCF gbl_FCV_TEMP_ONES, F
04AD        label66
04AD  0841  	MOVF gbl_FCV_TEMP_CDP, W
04AE  00DA  	MOVWF gbl_FCV_TEMP_DEC
04AF  1683  	BSF STATUS, RP0
04B0  0186  	CLRF gbl_trisb
04B1  3001  	MOVLW 0x01
04B2  1283  	BCF STATUS, RP0
04B3  0086  	MOVWF gbl_portb
04B4  2078  	CALL FCM_scan_o_00051
04B5  2109  	CALL FCM_scan1_00000
04B6  0852  	MOVF gbl_FCV_TEMP_TENS, W
04B7  00E1  	MOVWF gbl_FCV_DIGIT
04B8  21E3  	CALL FCM_seg_pa_00052
04B9  3004  	MOVLW 0x04
04BA  00FD  	MOVWF delay_ms_00000_arg_del
04BB  2010  	CALL delay_ms_00000
04BC  1683  	BSF STATUS, RP0
04BD  0186  	CLRF gbl_trisb
04BE  3001  	MOVLW 0x01
04BF  1283  	BCF STATUS, RP0
04C0  0086  	MOVWF gbl_portb
04C1  2078  	CALL FCM_scan_o_00051
04C2  20E4  	CALL FCM_scan2_00000
04C3  085C  	MOVF gbl_FCV_TEMP_ONES, W
04C4  00E1  	MOVWF gbl_FCV_DIGIT
04C5  21E3  	CALL FCM_seg_pa_00052
04C6  30FE  	MOVLW 0xFE
04C7  1683  	BSF STATUS, RP0
04C8  0506  	ANDWF gbl_trisb, W
04C9  0086  	MOVWF gbl_trisb
04CA  30FE  	MOVLW 0xFE
04CB  1283  	BCF STATUS, RP0
04CC  0506  	ANDWF gbl_portb, W
04CD  0086  	MOVWF gbl_portb
04CE  3004  	MOVLW 0x04
04CF  00FD  	MOVWF delay_ms_00000_arg_del
04D0  2010  	CALL delay_ms_00000
04D1  1683  	BSF STATUS, RP0
04D2  0186  	CLRF gbl_trisb
04D3  3001  	MOVLW 0x01
04D4  1283  	BCF STATUS, RP0
04D5  0086  	MOVWF gbl_portb
04D6  2078  	CALL FCM_scan_o_00051
04D7  20BF  	CALL FCM_scan3_00000
04D8  085A  	MOVF gbl_FCV_TEMP_DEC, W
04D9  00E1  	MOVWF gbl_FCV_DIGIT
04DA  21E3  	CALL FCM_seg_pa_00052
04DB  3004  	MOVLW 0x04
04DC  00FD  	MOVWF delay_ms_00000_arg_del
04DD  2010  	CALL delay_ms_00000
04DE  1683  	BSF STATUS, RP0
04DF  0186  	CLRF gbl_trisb
04E0  3001  	MOVLW 0x01
04E1  1283  	BCF STATUS, RP0
04E2  0086  	MOVWF gbl_portb
04E3  2078  	CALL FCM_scan_o_00051
04E4  209A  	CALL FCM_scan4_00000
04E5  1683  	BSF STATUS, RP0
04E6  0186  	CLRF gbl_trisb
04E7  30E0  	MOVLW 0xE0
04E8  1283  	BCF STATUS, RP0
04E9  0086  	MOVWF gbl_portb
04EA  3004  	MOVLW 0x04
04EB  00FD  	MOVWF delay_ms_00000_arg_del
04EC  2010  	CALL delay_ms_00000
04ED  0008  	RETURN
04EE        ; } FCM_display_temp function end

	ORG 0x000004EE
04EE        FCM_calc_00000
04EE        ; { FCM_calc ; function begin
04EE  1283  	BCF STATUS, RP0
04EF  1303  	BCF STATUS, RP1
04F0  0854  	MOVF gbl_FCV_DATA0, W
04F1  00DD  	MOVWF gbl_FCV_LSB
04F2  0855  	MOVF gbl_FCV_DATA1, W
04F3  00E0  	MOVWF gbl_FCV_MSB
04F4  0860  	MOVF gbl_FCV_MSB, W
04F5  00B4  	MOVWF gbl_FCV_RAW
04F6  01B5  	CLRF gbl_FCV_RAW+D'1'
04F7  01B6  	CLRF gbl_FCV_RAW+D'2'
04F8  01B7  	CLRF gbl_FCV_RAW+D'3'
04F9  01EC  	CLRF gbl_FCLV_LOOP3
04FA        label67
04FA  3008  	MOVLW 0x08
04FB  026C  	SUBWF gbl_FCLV_LOOP3, W
04FC  1803  	BTFSC STATUS,C
04FD  2D09  	GOTO	label68
04FE  08B4  	MOVF gbl_FCV_RAW, F
04FF  08B5  	MOVF gbl_FCV_RAW+D'1', F
0500  08B6  	MOVF gbl_FCV_RAW+D'2', F
0501  08B7  	MOVF gbl_FCV_RAW+D'3', F
0502  1003  	BCF STATUS,C
0503  0DB4  	RLF gbl_FCV_RAW, F
0504  0DB5  	RLF gbl_FCV_RAW+D'1', F
0505  0DB6  	RLF gbl_FCV_RAW+D'2', F
0506  0DB7  	RLF gbl_FCV_RAW+D'3', F
0507  0AEC  	INCF gbl_FCLV_LOOP3, F
0508  2CFA  	GOTO	label67
0509        label68
0509  085D  	MOVF gbl_FCV_LSB, W
050A  00F5  	MOVWF CompTempVar2221
050B  01F6  	CLRF CompTempVar2222
050C  01F7  	CLRF CompTempVar2223
050D  01F8  	CLRF CompTempVar2224
050E  0834  	MOVF gbl_FCV_RAW, W
050F  07F5  	ADDWF CompTempVar2221, F
0510  0835  	MOVF gbl_FCV_RAW+D'1', W
0511  1803  	BTFSC STATUS,C
0512  0F35  	INCFSZ gbl_FCV_RAW+D'1', W
0513  07F6  	ADDWF CompTempVar2222, F
0514  0836  	MOVF gbl_FCV_RAW+D'2', W
0515  1803  	BTFSC STATUS,C
0516  0F36  	INCFSZ gbl_FCV_RAW+D'2', W
0517  07F7  	ADDWF CompTempVar2223, F
0518  0837  	MOVF gbl_FCV_RAW+D'3', W
0519  1803  	BTFSC STATUS,C
051A  0F37  	INCFSZ gbl_FCV_RAW+D'3', W
051B  07F8  	ADDWF CompTempVar2224, F
051C  0875  	MOVF CompTempVar2221, W
051D  00B4  	MOVWF gbl_FCV_RAW
051E  0876  	MOVF CompTempVar2222, W
051F  00B5  	MOVWF gbl_FCV_RAW+D'1'
0520  0877  	MOVF CompTempVar2223, W
0521  00B6  	MOVWF gbl_FCV_RAW+D'2'
0522  0878  	MOVF CompTempVar2224, W
0523  00B7  	MOVWF gbl_FCV_RAW+D'3'
0524  01FD  	CLRF CompTempVar2234
0525  0834  	MOVF gbl_FCV_RAW, W
0526  1683  	BSF STATUS, RP0
0527  00A0  	MOVWF __div_32_3_00001_arg_a
0528  1283  	BCF STATUS, RP0
0529  0835  	MOVF gbl_FCV_RAW+D'1', W
052A  1683  	BSF STATUS, RP0
052B  00A1  	MOVWF __div_32_3_00001_arg_a+D'1'
052C  1283  	BCF STATUS, RP0
052D  0836  	MOVF gbl_FCV_RAW+D'2', W
052E  1683  	BSF STATUS, RP0
052F  00A2  	MOVWF __div_32_3_00001_arg_a+D'2'
0530  1283  	BCF STATUS, RP0
0531  0837  	MOVF gbl_FCV_RAW+D'3', W
0532  1683  	BSF STATUS, RP0
0533  00A3  	MOVWF __div_32_3_00001_arg_a+D'3'
0534  1283  	BCF STATUS, RP0
0535  1FB7  	BTFSS gbl_FCV_RAW+D'3',7
0536  2D45  	GOTO	label69
0537  1683  	BSF STATUS, RP0
0538  09A0  	COMF __div_32_3_00001_arg_a, F
0539  09A1  	COMF __div_32_3_00001_arg_a+D'1', F
053A  09A2  	COMF __div_32_3_00001_arg_a+D'2', F
053B  09A3  	COMF __div_32_3_00001_arg_a+D'3', F
053C  0AA0  	INCF __div_32_3_00001_arg_a, F
053D  1903  	BTFSC STATUS,Z
053E  0AA1  	INCF __div_32_3_00001_arg_a+D'1', F
053F  1903  	BTFSC STATUS,Z
0540  0AA2  	INCF __div_32_3_00001_arg_a+D'2', F
0541  1903  	BTFSC STATUS,Z
0542  0AA3  	INCF __div_32_3_00001_arg_a+D'3', F
0543  1283  	BCF STATUS, RP0
0544  0AFD  	INCF CompTempVar2234, F
0545        label69
0545  3032  	MOVLW 0x32
0546  1683  	BSF STATUS, RP0
0547  00A4  	MOVWF __div_32_3_00001_arg_b
0548  01A5  	CLRF __div_32_3_00001_arg_b+D'1'
0549  01A6  	CLRF __div_32_3_00001_arg_b+D'2'
054A  01A7  	CLRF __div_32_3_00001_arg_b+D'3'
054B  2184  	CALL __div_32_3_00001
054C  0831  	MOVF CompTempVarRet210, W
054D  1283  	BCF STATUS, RP0
054E  00B8  	MOVWF gbl_FCV_TEMP_C
054F  1683  	BSF STATUS, RP0
0550  0832  	MOVF CompTempVarRet210+D'1', W
0551  1283  	BCF STATUS, RP0
0552  00B9  	MOVWF gbl_FCV_TEMP_C+D'1'
0553  1683  	BSF STATUS, RP0
0554  0833  	MOVF CompTempVarRet210+D'2', W
0555  1283  	BCF STATUS, RP0
0556  00BA  	MOVWF gbl_FCV_TEMP_C+D'2'
0557  1683  	BSF STATUS, RP0
0558  0834  	MOVF CompTempVarRet210+D'3', W
0559  1283  	BCF STATUS, RP0
055A  00BB  	MOVWF gbl_FCV_TEMP_C+D'3'
055B  1C7D  	BTFSS CompTempVar2234,0
055C  2D68  	GOTO	label70
055D  09B8  	COMF gbl_FCV_TEMP_C, F
055E  09B9  	COMF gbl_FCV_TEMP_C+D'1', F
055F  09BA  	COMF gbl_FCV_TEMP_C+D'2', F
0560  09BB  	COMF gbl_FCV_TEMP_C+D'3', F
0561  0AB8  	INCF gbl_FCV_TEMP_C, F
0562  1903  	BTFSC STATUS,Z
0563  0AB9  	INCF gbl_FCV_TEMP_C+D'1', F
0564  1903  	BTFSC STATUS,Z
0565  0ABA  	INCF gbl_FCV_TEMP_C+D'2', F
0566  1903  	BTFSC STATUS,Z
0567  0ABB  	INCF gbl_FCV_TEMP_C+D'3', F
0568        label70
0568  0843  	MOVF gbl_FCV_CALIB_SUBTRACTOR, W
0569  1683  	BSF STATUS, RP0
056A  00A8  	MOVWF CompTempVar2225
056B  1283  	BCF STATUS, RP0
056C  0844  	MOVF gbl_FCV_CALIB_SUBTRACTOR+D'1', W
056D  1683  	BSF STATUS, RP0
056E  00A9  	MOVWF CompTempVar2225+D'1'
056F  01AA  	CLRF CompTempVar2225+D'2'
0570  01AB  	CLRF CompTempVar2225+D'3'
0571  0828  	MOVF CompTempVar2225, W
0572  1283  	BCF STATUS, RP0
0573  02B8  	SUBWF gbl_FCV_TEMP_C, F
0574  1683  	BSF STATUS, RP0
0575  0829  	MOVF CompTempVar2225+D'1', W
0576  1803  	BTFSC STATUS,C
0577  2D7B  	GOTO	label71
0578  0F29  	INCFSZ CompTempVar2225+D'1', W
0579  2D7B  	GOTO	label71
057A  2D7D  	GOTO	label72
057B        label71
057B  1283  	BCF STATUS, RP0
057C  02B9  	SUBWF gbl_FCV_TEMP_C+D'1', F
057D        label72
057D  1683  	BSF STATUS, RP0
057E  082A  	MOVF CompTempVar2225+D'2', W
057F  1803  	BTFSC STATUS,C
0580  2D84  	GOTO	label73
0581  0F2A  	INCFSZ CompTempVar2225+D'2', W
0582  2D84  	GOTO	label73
0583  2D86  	GOTO	label74
0584        label73
0584  1283  	BCF STATUS, RP0
0585  02BA  	SUBWF gbl_FCV_TEMP_C+D'2', F
0586        label74
0586  1683  	BSF STATUS, RP0
0587  082B  	MOVF CompTempVar2225+D'3', W
0588  1803  	BTFSC STATUS,C
0589  2D8D  	GOTO	label75
058A  0F2B  	INCFSZ CompTempVar2225+D'3', W
058B  2D8D  	GOTO	label75
058C  2D8F  	GOTO	label76
058D        label75
058D  1283  	BCF STATUS, RP0
058E  02BB  	SUBWF gbl_FCV_TEMP_C+D'3', F
058F        label76
058F  1283  	BCF STATUS, RP0
0590  0834  	MOVF gbl_FCV_RAW, W
0591  1683  	BSF STATUS, RP0
0592  00A0  	MOVWF __rem_32_3_00002_arg_a
0593  1283  	BCF STATUS, RP0
0594  0835  	MOVF gbl_FCV_RAW+D'1', W
0595  1683  	BSF STATUS, RP0
0596  00A1  	MOVWF __rem_32_3_00002_arg_a+D'1'
0597  1283  	BCF STATUS, RP0
0598  0836  	MOVF gbl_FCV_RAW+D'2', W
0599  1683  	BSF STATUS, RP0
059A  00A2  	MOVWF __rem_32_3_00002_arg_a+D'2'
059B  1283  	BCF STATUS, RP0
059C  0837  	MOVF gbl_FCV_RAW+D'3', W
059D  1683  	BSF STATUS, RP0
059E  00A3  	MOVWF __rem_32_3_00002_arg_a+D'3'
059F  1283  	BCF STATUS, RP0
05A0  1FB7  	BTFSS gbl_FCV_RAW+D'3',7
05A1  2DAE  	GOTO	label77
05A2  1683  	BSF STATUS, RP0
05A3  09A0  	COMF __rem_32_3_00002_arg_a, F
05A4  09A1  	COMF __rem_32_3_00002_arg_a+D'1', F
05A5  09A2  	COMF __rem_32_3_00002_arg_a+D'2', F
05A6  09A3  	COMF __rem_32_3_00002_arg_a+D'3', F
05A7  0AA0  	INCF __rem_32_3_00002_arg_a, F
05A8  1903  	BTFSC STATUS,Z
05A9  0AA1  	INCF __rem_32_3_00002_arg_a+D'1', F
05AA  1903  	BTFSC STATUS,Z
05AB  0AA2  	INCF __rem_32_3_00002_arg_a+D'2', F
05AC  1903  	BTFSC STATUS,Z
05AD  0AA3  	INCF __rem_32_3_00002_arg_a+D'3', F
05AE        label77
05AE  3032  	MOVLW 0x32
05AF  1683  	BSF STATUS, RP0
05B0  00A4  	MOVWF __rem_32_3_00002_arg_b
05B1  01A5  	CLRF __rem_32_3_00002_arg_b+D'1'
05B2  01A6  	CLRF __rem_32_3_00002_arg_b+D'2'
05B3  01A7  	CLRF __rem_32_3_00002_arg_b+D'3'
05B4  213A  	CALL __rem_32_3_00002
05B5  082D  	MOVF CompTempVarRet212, W
05B6  1283  	BCF STATUS, RP0
05B7  00D7  	MOVWF gbl_FCV_DP2
05B8  1FB7  	BTFSS gbl_FCV_RAW+D'3',7
05B9  2DBC  	GOTO	label78
05BA  09D7  	COMF gbl_FCV_DP2, F
05BB  0AD7  	INCF gbl_FCV_DP2, F
05BC        label78
05BC  3064  	MOVLW 0x64
05BD  0257  	SUBWF gbl_FCV_DP2, W
05BE  1C03  	BTFSS STATUS,C
05BF  2DC9  	GOTO	label79
05C0  0857  	MOVF gbl_FCV_DP2, W
05C1  00F7  	MOVWF __div_8_8_00000_arg_a
05C2  3064  	MOVLW 0x64
05C3  00F8  	MOVWF __div_8_8_00000_arg_b
05C4  2173  	CALL __div_8_8_00000
05C5  087B  	MOVF CompTempVarRet218, W
05C6  00C1  	MOVWF gbl_FCV_TEMP_CDP
05C7  01C2  	CLRF gbl_FCV_TEMP_CDP+D'1'
05C8  2DE7  	GOTO	label81
05C9        label79
05C9  01F6  	CLRF CompTempVar2239
05CA  300A  	MOVLW 0x0A
05CB  0257  	SUBWF gbl_FCV_DP2, W
05CC  1803  	BTFSC STATUS,C
05CD  0AF6  	INCF CompTempVar2239, F
05CE  01F5  	CLRF CompTempVar2238
05CF  0857  	MOVF gbl_FCV_DP2, W
05D0  3C64  	SUBLW 0x64
05D1  1803  	BTFSC STATUS,C
05D2  0AF5  	INCF CompTempVar2238, F
05D3  0875  	MOVF CompTempVar2238, W
05D4  0576  	ANDWF CompTempVar2239, W
05D5  1903  	BTFSC STATUS,Z
05D6  2DE0  	GOTO	label80
05D7  0857  	MOVF gbl_FCV_DP2, W
05D8  00F7  	MOVWF __div_8_8_00000_arg_a
05D9  300A  	MOVLW 0x0A
05DA  00F8  	MOVWF __div_8_8_00000_arg_b
05DB  2173  	CALL __div_8_8_00000
05DC  087B  	MOVF CompTempVarRet218, W
05DD  00C1  	MOVWF gbl_FCV_TEMP_CDP
05DE  01C2  	CLRF gbl_FCV_TEMP_CDP+D'1'
05DF  2DE7  	GOTO	label81
05E0        label80
05E0  300A  	MOVLW 0x0A
05E1  0257  	SUBWF gbl_FCV_DP2, W
05E2  1803  	BTFSC STATUS,C
05E3  2DE7  	GOTO	label81
05E4  0857  	MOVF gbl_FCV_DP2, W
05E5  00C1  	MOVWF gbl_FCV_TEMP_CDP
05E6  01C2  	CLRF gbl_FCV_TEMP_CDP+D'1'
05E7        label81
05E7  0847  	MOVF gbl_FCV_CALIB_OFFSET, W
05E8  07C1  	ADDWF gbl_FCV_TEMP_CDP, F
05E9  0848  	MOVF gbl_FCV_CALIB_OFFSET+D'1', W
05EA  00F5  	MOVWF CompTempVar2243
05EB  0842  	MOVF gbl_FCV_TEMP_CDP+D'1', W
05EC  1803  	BTFSC STATUS,C
05ED  0AF5  	INCF CompTempVar2243, F
05EE  07F5  	ADDWF CompTempVar2243, F
05EF  0875  	MOVF CompTempVar2243, W
05F0  00C2  	MOVWF gbl_FCV_TEMP_CDP+D'1'
05F1  0008  	RETURN
05F2        ; } FCM_calc function end

	ORG 0x000005F2
05F2        FCM_all_in_00054
05F2        ; { FCM_all_input ; function begin
05F2  3001  	MOVLW 0x01
05F3  1683  	BSF STATUS, RP0
05F4  1303  	BCF STATUS, RP1
05F5  0407  	IORWF gbl_trisc, W
05F6  0087  	MOVWF gbl_trisc
05F7  3001  	MOVLW 0x01
05F8  1283  	BCF STATUS, RP0
05F9  0507  	ANDWF gbl_portc, W
05FA  00FD  	MOVWF CompTempVar2209
05FB  01FE  	CLRF CompTempVar2210
05FC  037D  	DECF CompTempVar2209, W
05FD  1903  	BTFSC STATUS,Z
05FE  0AFE  	INCF CompTempVar2210, F
05FF  105B  	BCF gbl_FCV_PROX_BIT,0
0600  087E  	MOVF CompTempVar2210, W
0601  1D03  	BTFSS STATUS,Z
0602  145B  	BSF gbl_FCV_PROX_BIT,0
0603  3010  	MOVLW 0x10
0604  1683  	BSF STATUS, RP0
0605  0405  	IORWF gbl_trisa, W
0606  0085  	MOVWF gbl_trisa
0607  3010  	MOVLW 0x10
0608  1283  	BCF STATUS, RP0
0609  0505  	ANDWF gbl_porta, W
060A  00FD  	MOVWF CompTempVar2211
060B  01FE  	CLRF CompTempVar2212
060C  3010  	MOVLW 0x10
060D  027D  	SUBWF CompTempVar2211, W
060E  1903  	BTFSC STATUS,Z
060F  0AFE  	INCF CompTempVar2212, F
0610  11DB  	BCF gbl_FCV_SWG,3
0611  087E  	MOVF CompTempVar2212, W
0612  1D03  	BTFSS STATUS,Z
0613  15DB  	BSF gbl_FCV_SWG,3
0614  3004  	MOVLW 0x04
0615  1683  	BSF STATUS, RP0
0616  0407  	IORWF gbl_trisc, W
0617  0087  	MOVWF gbl_trisc
0618  3004  	MOVLW 0x04
0619  1283  	BCF STATUS, RP0
061A  0507  	ANDWF gbl_portc, W
061B  00FD  	MOVWF CompTempVar2213
061C  01E2  	CLRF gbl_FCV_SWR
061D  3004  	MOVLW 0x04
061E  027D  	SUBWF CompTempVar2213, W
061F  1903  	BTFSC STATUS,Z
0620  0AE2  	INCF gbl_FCV_SWR, F
0621  0008  	RETURN
0622        ; } FCM_all_input function end

	ORG 0x00000622
0622        FCD_LED1_L_00056
0622        ; { FCD_LED1_LEDOn ; function begin
0622  1683  	BSF STATUS, RP0
0623  1303  	BCF STATUS, RP1
0624  1287  	BCF gbl_trisc,5
0625  1283  	BCF STATUS, RP0
0626  1687  	BSF gbl_portc,5
0627  0008  	RETURN
0628        ; } FCD_LED1_LEDOn function end

	ORG 0x00000628
0628        FCD_EEPROM_00067
0628        ; { FCD_EEPROM0_WriteEEPROM ; function begin
0628  1283  	BCF STATUS, RP0
0629  087D  	MOVF FCD_EEPROM_00067_arg_addr, W
062A  1683  	BSF STATUS, RP0
062B  00A2  	MOVWF FC_CAL_EE__0007E_arg_Address
062C  1283  	BCF STATUS, RP0
062D  087E  	MOVF FCD_EEPROM_00067_arg_addr+D'1', W
062E  1683  	BSF STATUS, RP0
062F  00A3  	MOVWF FC_CAL_EE__0007E_arg_Address+D'1'
0630  0820  	MOVF FCD_EEPROM_00067_arg_data, W
0631  00A4  	MOVWF FC_CAL_EE__0007E_arg_Data
0632  21BD  	CALL FC_CAL_EE__0007E
0633  0008  	RETURN
0634        ; } FCD_EEPROM0_WriteEEPROM function end

	ORG 0x00000634
0634        FC_CAL_UAR_00081
0634        ; { FC_CAL_UART_Init_1 ; function begin
0634  1683  	BSF STATUS, RP0
0635  1303  	BCF STATUS, RP1
0636  1518  	BSF gbl_txsta,2
0637  3014  	MOVLW 0x14
0638  0099  	MOVWF gbl_spbrg
0639  1283  	BCF STATUS, RP0
063A  0198  	CLRF gbl_rcsta
063B  1798  	BSF gbl_rcsta,7
063C  1683  	BSF STATUS, RP0
063D  1698  	BSF gbl_txsta,5
063E  1283  	BCF STATUS, RP0
063F  1618  	BSF gbl_rcsta,4
0640  1683  	BSF STATUS, RP0
0641  128C  	BCF gbl_pie1,5
0642  0008  	RETURN
0643        ; } FC_CAL_UART_Init_1 function end

	ORG 0x00000643
0643        FCM_pass_00000
0643        ; { FCM_pass ; function begin
0643  2134  	CALL FCD_LED0_L_00055
0644  2622  	CALL FCD_LED1_L_00056
0645  0008  	RETURN
0646        ; } FCM_pass function end

	ORG 0x00000646
0646        FCM_get_te_00062
0646        ; { FCM_get_temp ; function begin
0646        label82
0646  237C  	CALL FCM_i2c_co_00059
0647  0855  	MOVF gbl_FCV_DATA1, W
0648  00E6  	MOVWF gbl_FCV_DATA_PREV
0649  237C  	CALL FCM_i2c_co_00059
064A  0855  	MOVF gbl_FCV_DATA1, W
064B  0266  	SUBWF gbl_FCV_DATA_PREV, W
064C  00E9  	MOVWF gbl_FCV_DATA_DIFF
064D  0869  	MOVF gbl_FCV_DATA_DIFF, W
064E  3C0A  	SUBLW 0x0A
064F  1C03  	BTFSS STATUS,C
0650  2E46  	GOTO	label82
0651        label83
0651  237C  	CALL FCM_i2c_co_00059
0652  0855  	MOVF gbl_FCV_DATA1, W
0653  00E6  	MOVWF gbl_FCV_DATA_PREV
0654  237C  	CALL FCM_i2c_co_00059
0655  0855  	MOVF gbl_FCV_DATA1, W
0656  0266  	SUBWF gbl_FCV_DATA_PREV, W
0657  00E9  	MOVWF gbl_FCV_DATA_DIFF
0658  0869  	MOVF gbl_FCV_DATA_DIFF, W
0659  3C0A  	SUBLW 0x0A
065A  1C03  	BTFSS STATUS,C
065B  2E51  	GOTO	label83
065C  24EE  	CALL FCM_calc_00000
065D  0008  	RETURN
065E        ; } FCM_get_temp function end

	ORG 0x0000065E
065E        FCM_displa_00064
065E        ; { FCM_display_fail ; function begin
065E  1283  	BCF STATUS, RP0
065F  1303  	BCF STATUS, RP1
0660  01F4  	CLRF gbl_FCLV_LOOP11
0661        label84
0661  305A  	MOVLW 0x5A
0662  0274  	SUBWF gbl_FCLV_LOOP11, W
0663  1803  	BTFSC STATUS,C
0664  0008  	RETURN
0665  244D  	CALL FCM_displa_00053
0666  23A9  	CALL FCM_failed_00000
0667  30A0  	MOVLW 0xA0
0668  00FD  	MOVWF FCD_PWM0_S_00061_arg_nDuty
0669  2272  	CALL FCD_PWM0_S_00061
066A  0AF4  	INCF gbl_FCLV_LOOP11, F
066B  2E61  	GOTO	label84
066C        ; } FCM_display_fail function end

	ORG 0x0000066C
066C        FCM_calibr_00065
066C        ; { FCM_calibrate ; function begin
066C  2241  	CALL FCM_lights_0005F
066D        label85
066D  01F8  	CLRF CompTempVar2247
066E  1DDB  	BTFSS gbl_FCV_SWG,3
066F  0AF8  	INCF CompTempVar2247, F
0670  01F7  	CLRF CompTempVar2246
0671  0AF7  	INCF CompTempVar2246, F
0672  08E2  	MOVF gbl_FCV_SWR, F
0673  1D03  	BTFSS STATUS,Z
0674  1077  	BCF CompTempVar2246,0
0675  0877  	MOVF CompTempVar2246, W
0676  0478  	IORWF CompTempVar2247, W
0677  1903  	BTFSC STATUS,Z
0678  2E7C  	GOTO	label86
0679  25F2  	CALL FCM_all_in_00054
067A  23AC  	CALL FCM_displa_00066
067B  2E6D  	GOTO	label85
067C        label86
067C  01E5  	CLRF gbl_FCV_CALIB_COUNT
067D        label87
067D  01D9  	CLRF gbl_FCV_RESET_COUNTER
067E  25F2  	CALL FCM_all_in_00054
067F  01FA  	CLRF CompTempVar2249
0680  1DDB  	BTFSS gbl_FCV_SWG,3
0681  0AFA  	INCF CompTempVar2249, F
0682  01F9  	CLRF CompTempVar2248
0683  0362  	DECF gbl_FCV_SWR, W
0684  1903  	BTFSC STATUS,Z
0685  0AF9  	INCF CompTempVar2248, F
0686  0879  	MOVF CompTempVar2248, W
0687  057A  	ANDWF CompTempVar2249, W
0688  1903  	BTFSC STATUS,Z
0689  2EBC  	GOTO	label90
068A  01E5  	CLRF gbl_FCV_CALIB_COUNT
068B  08C1  	MOVF gbl_FCV_TEMP_CDP, F
068C  08C2  	MOVF gbl_FCV_TEMP_CDP+D'1', F
068D  0AC1  	INCF gbl_FCV_TEMP_CDP, F
068E  1903  	BTFSC STATUS,Z
068F  0AC2  	INCF gbl_FCV_TEMP_CDP+D'1', F
0690  08C7  	MOVF gbl_FCV_CALIB_OFFSET, F
0691  08C8  	MOVF gbl_FCV_CALIB_OFFSET+D'1', F
0692  0AC7  	INCF gbl_FCV_CALIB_OFFSET, F
0693  1903  	BTFSC STATUS,Z
0694  0AC8  	INCF gbl_FCV_CALIB_OFFSET+D'1', F
0695  0847  	MOVF gbl_FCV_CALIB_OFFSET, W
0696  3C09  	SUBLW 0x09
0697  0848  	MOVF gbl_FCV_CALIB_OFFSET+D'1', W
0698  1803  	BTFSC STATUS,C
0699  1D03  	BTFSS STATUS,Z
069A  1BC8  	BTFSC gbl_FCV_CALIB_OFFSET+D'1',7
069B  2E9E  	GOTO	label88
069C  01C7  	CLRF gbl_FCV_CALIB_OFFSET
069D  01C8  	CLRF gbl_FCV_CALIB_OFFSET+D'1'
069E        label88
069E  0841  	MOVF gbl_FCV_TEMP_CDP, W
069F  3C09  	SUBLW 0x09
06A0  0842  	MOVF gbl_FCV_TEMP_CDP+D'1', W
06A1  1803  	BTFSC STATUS,C
06A2  1D03  	BTFSS STATUS,Z
06A3  1BC2  	BTFSC gbl_FCV_TEMP_CDP+D'1',7
06A4  2EB7  	GOTO	label89
06A5  3001  	MOVLW 0x01
06A6  02C3  	SUBWF gbl_FCV_CALIB_SUBTRACTOR, F
06A7  08C4  	MOVF gbl_FCV_CALIB_SUBTRACTOR+D'1', F
06A8  1C03  	BTFSS STATUS,C
06A9  03C4  	DECF gbl_FCV_CALIB_SUBTRACTOR+D'1', F
06AA  08B8  	MOVF gbl_FCV_TEMP_C, F
06AB  08B9  	MOVF gbl_FCV_TEMP_C+D'1', F
06AC  08BA  	MOVF gbl_FCV_TEMP_C+D'2', F
06AD  08BB  	MOVF gbl_FCV_TEMP_C+D'3', F
06AE  0AB8  	INCF gbl_FCV_TEMP_C, F
06AF  1903  	BTFSC STATUS,Z
06B0  0AB9  	INCF gbl_FCV_TEMP_C+D'1', F
06B1  1903  	BTFSC STATUS,Z
06B2  0ABA  	INCF gbl_FCV_TEMP_C+D'2', F
06B3  1903  	BTFSC STATUS,Z
06B4  0ABB  	INCF gbl_FCV_TEMP_C+D'3', F
06B5  01C1  	CLRF gbl_FCV_TEMP_CDP
06B6  01C2  	CLRF gbl_FCV_TEMP_CDP+D'1'
06B7        label89
06B7  19DB  	BTFSC gbl_FCV_SWG,3
06B8  2F1A  	GOTO	label94
06B9  25F2  	CALL FCM_all_in_00054
06BA  23AC  	CALL FCM_displa_00066
06BB  2EB7  	GOTO	label89
06BC        label90
06BC  01FC  	CLRF CompTempVar2261
06BD  19DB  	BTFSC gbl_FCV_SWG,3
06BE  0AFC  	INCF CompTempVar2261, F
06BF  01FB  	CLRF CompTempVar2260
06C0  0AFB  	INCF CompTempVar2260, F
06C1  08E2  	MOVF gbl_FCV_SWR, F
06C2  1D03  	BTFSS STATUS,Z
06C3  107B  	BCF CompTempVar2260,0
06C4  087B  	MOVF CompTempVar2260, W
06C5  057C  	ANDWF CompTempVar2261, W
06C6  1903  	BTFSC STATUS,Z
06C7  2F1A  	GOTO	label94
06C8  01E5  	CLRF gbl_FCV_CALIB_COUNT
06C9  3001  	MOVLW 0x01
06CA  02C1  	SUBWF gbl_FCV_TEMP_CDP, F
06CB  08C2  	MOVF gbl_FCV_TEMP_CDP+D'1', F
06CC  1C03  	BTFSS STATUS,C
06CD  03C2  	DECF gbl_FCV_TEMP_CDP+D'1', F
06CE  3001  	MOVLW 0x01
06CF  02C7  	SUBWF gbl_FCV_CALIB_OFFSET, F
06D0  08C8  	MOVF gbl_FCV_CALIB_OFFSET+D'1', F
06D1  1C03  	BTFSS STATUS,C
06D2  03C8  	DECF gbl_FCV_CALIB_OFFSET+D'1', F
06D3  1FC8  	BTFSS gbl_FCV_CALIB_OFFSET+D'1',7
06D4  2ED8  	GOTO	label91
06D5  3009  	MOVLW 0x09
06D6  00C7  	MOVWF gbl_FCV_CALIB_OFFSET
06D7  01C8  	CLRF gbl_FCV_CALIB_OFFSET+D'1'
06D8        label91
06D8  1FC2  	BTFSS gbl_FCV_TEMP_CDP+D'1',7
06D9  2EF6  	GOTO	label92
06DA  08C3  	MOVF gbl_FCV_CALIB_SUBTRACTOR, F
06DB  08C4  	MOVF gbl_FCV_CALIB_SUBTRACTOR+D'1', F
06DC  0AC3  	INCF gbl_FCV_CALIB_SUBTRACTOR, F
06DD  1903  	BTFSC STATUS,Z
06DE  0AC4  	INCF gbl_FCV_CALIB_SUBTRACTOR+D'1', F
06DF  3001  	MOVLW 0x01
06E0  02B8  	SUBWF gbl_FCV_TEMP_C, F
06E1  08B9  	MOVF gbl_FCV_TEMP_C+D'1', F
06E2  08BA  	MOVF gbl_FCV_TEMP_C+D'2', F
06E3  08BB  	MOVF gbl_FCV_TEMP_C+D'3', F
06E4  3000  	MOVLW 0x00
06E5  00FD  	MOVWF CompTempVar2272
06E6  1C03  	BTFSS STATUS,C
06E7  0F7D  	INCFSZ CompTempVar2272, W
06E8  02B9  	SUBWF gbl_FCV_TEMP_C+D'1', F
06E9  3000  	MOVLW 0x00
06EA  00FD  	MOVWF CompTempVar2272
06EB  1C03  	BTFSS STATUS,C
06EC  0F7D  	INCFSZ CompTempVar2272, W
06ED  02BA  	SUBWF gbl_FCV_TEMP_C+D'2', F
06EE  3000  	MOVLW 0x00
06EF  00FD  	MOVWF CompTempVar2272
06F0  1C03  	BTFSS STATUS,C
06F1  0F7D  	INCFSZ CompTempVar2272, W
06F2  02BB  	SUBWF gbl_FCV_TEMP_C+D'3', F
06F3  3009  	MOVLW 0x09
06F4  00C1  	MOVWF gbl_FCV_TEMP_CDP
06F5  01C2  	CLRF gbl_FCV_TEMP_CDP+D'1'
06F6        label92
06F6  08E2  	MOVF gbl_FCV_SWR, F
06F7  1D03  	BTFSS STATUS,Z
06F8  2F1A  	GOTO	label94
06F9  25F2  	CALL FCM_all_in_00054
06FA  23AC  	CALL FCM_displa_00066
06FB  0A59  	INCF gbl_FCV_RESET_COUNTER, W
06FC  1D03  	BTFSS STATUS,Z
06FD  2F17  	GOTO	label93
06FE  232A  	CALL FCM_repeat_00000
06FF  3001  	MOVLW 0x01
0700  00FD  	MOVWF FCD_EEPROM_00067_arg_addr
0701  01FE  	CLRF FCD_EEPROM_00067_arg_addr+D'1'
0702  3015  	MOVLW 0x15
0703  1683  	BSF STATUS, RP0
0704  00A0  	MOVWF FCD_EEPROM_00067_arg_data
0705  01A1  	CLRF FCD_EEPROM_00067_arg_data+D'1'
0706  2628  	CALL FCD_EEPROM_00067
0707  3002  	MOVLW 0x02
0708  1283  	BCF STATUS, RP0
0709  1303  	BCF STATUS, RP1
070A  00FD  	MOVWF FCD_EEPROM_00067_arg_addr
070B  01FE  	CLRF FCD_EEPROM_00067_arg_addr+D'1'
070C  3003  	MOVLW 0x03
070D  1683  	BSF STATUS, RP0
070E  00A0  	MOVWF FCD_EEPROM_00067_arg_data
070F  01A1  	CLRF FCD_EEPROM_00067_arg_data+D'1'
0710  2628  	CALL FCD_EEPROM_00067
0711  3064  	MOVLW 0x64
0712  1283  	BCF STATUS, RP0
0713  1303  	BCF STATUS, RP1
0714  00FD  	MOVWF delay_ms_00000_arg_del
0715  2010  	CALL delay_ms_00000
0716  0008  	RETURN
0717        label93
0717  0A59  	INCF gbl_FCV_RESET_COUNTER, W
0718  00D9  	MOVWF gbl_FCV_RESET_COUNTER
0719  2EF6  	GOTO	label92
071A        label94
071A  23AC  	CALL FCM_displa_00066
071B  0A65  	INCF gbl_FCV_CALIB_COUNT, W
071C  00E5  	MOVWF gbl_FCV_CALIB_COUNT
071D  0865  	MOVF gbl_FCV_CALIB_COUNT, W
071E  3A96  	XORLW 0x96
071F  1D03  	BTFSS STATUS,Z
0720  2E7D  	GOTO	label87
0721  30FA  	MOVLW 0xFA
0722  0243  	SUBWF gbl_FCV_CALIB_SUBTRACTOR, W
0723  00C5  	MOVWF gbl_FCV_SAVE_CALIB0
0724  0844  	MOVF gbl_FCV_CALIB_SUBTRACTOR+D'1', W
0725  00C6  	MOVWF gbl_FCV_SAVE_CALIB0+D'1'
0726  1C03  	BTFSS STATUS,C
0727  03C6  	DECF gbl_FCV_SAVE_CALIB0+D'1', F
0728  0847  	MOVF gbl_FCV_CALIB_OFFSET, W
0729  00E8  	MOVWF gbl_FCV_SAVE_CALIB1
072A  3001  	MOVLW 0x01
072B  00FD  	MOVWF FCD_EEPROM_00067_arg_addr
072C  01FE  	CLRF FCD_EEPROM_00067_arg_addr+D'1'
072D  0845  	MOVF gbl_FCV_SAVE_CALIB0, W
072E  1683  	BSF STATUS, RP0
072F  00A0  	MOVWF FCD_EEPROM_00067_arg_data
0730  1283  	BCF STATUS, RP0
0731  0846  	MOVF gbl_FCV_SAVE_CALIB0+D'1', W
0732  1683  	BSF STATUS, RP0
0733  00A1  	MOVWF FCD_EEPROM_00067_arg_data+D'1'
0734  2628  	CALL FCD_EEPROM_00067
0735  3002  	MOVLW 0x02
0736  1283  	BCF STATUS, RP0
0737  1303  	BCF STATUS, RP1
0738  00FD  	MOVWF FCD_EEPROM_00067_arg_addr
0739  01FE  	CLRF FCD_EEPROM_00067_arg_addr+D'1'
073A  0868  	MOVF gbl_FCV_SAVE_CALIB1, W
073B  1683  	BSF STATUS, RP0
073C  00A0  	MOVWF FCD_EEPROM_00067_arg_data
073D  01A1  	CLRF FCD_EEPROM_00067_arg_data+D'1'
073E  2628  	CALL FCD_EEPROM_00067
073F  3064  	MOVLW 0x64
0740  1283  	BCF STATUS, RP0
0741  1303  	BCF STATUS, RP1
0742  00FD  	MOVWF delay_ms_00000_arg_del
0743  2010  	CALL delay_ms_00000
0744  0008  	RETURN
0745        ; } FCM_calibrate function end

	ORG 0x00000745
0745        FCM_beep_o_00060
0745        ; { FCM_beep_once ; function begin
0745  30A0  	MOVLW 0xA0
0746  1283  	BCF STATUS, RP0
0747  1303  	BCF STATUS, RP1
0748  00FD  	MOVWF FCD_PWM0_S_00061_arg_nDuty
0749  2272  	CALL FCD_PWM0_S_00061
074A  3064  	MOVLW 0x64
074B  00FD  	MOVWF delay_ms_00000_arg_del
074C  2010  	CALL delay_ms_00000
074D  01FD  	CLRF FCD_PWM0_S_00061_arg_nDuty
074E  2272  	CALL FCD_PWM0_S_00061
074F  0008  	RETURN
0750        ; } FCM_beep_once function end

	ORG 0x00000750
0750        FCD_RS2320_00088
0750        ; { FCD_RS2320_ReceiveRS232Char ; function begin
0750  0877  	MOVF FCD_RS2320_00088_arg_nTimeout, W
0751  00F8  	MOVWF FC_CAL_UAR_00083_arg_nTimeout
0752  228E  	CALL FC_CAL_UAR_00083
0753  0820  	MOVF CompTempVarRet2294, W
0754  1283  	BCF STATUS, RP0
0755  00F8  	MOVWF CompTempVarRet2299
0756  1683  	BSF STATUS, RP0
0757  0821  	MOVF CompTempVarRet2294+D'1', W
0758  1283  	BCF STATUS, RP0
0759  00F9  	MOVWF CompTempVarRet2299+D'1'
075A  0008  	RETURN
075B        ; } FCD_RS2320_ReceiveRS232Char function end

	ORG 0x0000075B
075B        FCD_RS2320_00087
075B        ; { FCD_RS2320_SendRS232String ; function begin
075B  01FD  	CLRF FCD_RS2320_00087_1_idx
075C        label95
075C  087C  	MOVF FCD_RS2320_00087_arg_MSZ_String, W
075D  027D  	SUBWF FCD_RS2320_00087_1_idx, W
075E  1803  	BTFSC STATUS,C
075F  0008  	RETURN
0760  1383  	BCF STATUS,IRP
0761  1876  	BTFSC FCD_RS2320_00087_arg_String+D'1',0
0762  1783  	BSF STATUS,IRP
0763  0875  	MOVF FCD_RS2320_00087_arg_String, W
0764  077D  	ADDWF FCD_RS2320_00087_1_idx, W
0765  0084  	MOVWF FSR
0766  0880  	MOVF INDF, F
0767  1903  	BTFSC STATUS,Z
0768  0008  	RETURN
0769  1383  	BCF STATUS,IRP
076A  1876  	BTFSC FCD_RS2320_00087_arg_String+D'1',0
076B  1783  	BSF STATUS,IRP
076C  0875  	MOVF FCD_RS2320_00087_arg_String, W
076D  077D  	ADDWF FCD_RS2320_00087_1_idx, W
076E  0084  	MOVWF FSR
076F  0800  	MOVF INDF, W
0770  1683  	BSF STATUS, RP0
0771  00A0  	MOVWF FC_CAL_UAR_00082_arg_nChar
0772  01A1  	CLRF FC_CAL_UAR_00082_arg_nChar+D'1'
0773  22DD  	CALL FC_CAL_UAR_00082
0774  0AFD  	INCF FCD_RS2320_00087_1_idx, F
0775  2F5C  	GOTO	label95
0776        ; } FCD_RS2320_SendRS232String function end

	ORG 0x00000776
0776        FCD_PWM0_E_0006E
0776        ; { FCD_PWM0_Enable ; function begin
0776  30FF  	MOVLW 0xFF
0777  1283  	BCF STATUS, RP0
0778  1303  	BCF STATUS, RP1
0779  00F5  	MOVWF FC_CAL_PWM_0006C_arg_period
077A  3001  	MOVLW 0x01
077B  00F6  	MOVWF FC_CAL_PWM_0006C_arg_prescaler
077C  01F7  	CLRF FC_CAL_PWM_0006C_arg_prescaler+D'1'
077D  22E5  	CALL FC_CAL_PWM_0006C
077E  2305  	CALL FC_CAL_PWM_00069
077F  0008  	RETURN
0780        ; } FCD_PWM0_Enable function end

	ORG 0x00000780
0780        FCD_I2C_Ma_0007A
0780        ; { FCD_I2C_Master0_MI2C_Init ; function begin
0780  230D  	CALL FC_CAL_I2C_00073
0781  0008  	RETURN
0782        ; } FCD_I2C_Master0_MI2C_Init function end

	ORG 0x00000782
0782        FCD_EEPROM_00080
0782        ; { FCD_EEPROM0_EEPROMRead ; function begin
0782  0875  	MOVF FCD_EEPROM_00080_arg_addr, W
0783  00F7  	MOVWF FC_CAL_EE__0007D_arg_Address
0784  0876  	MOVF FCD_EEPROM_00080_arg_addr+D'1', W
0785  00F8  	MOVWF FC_CAL_EE__0007D_arg_Address+D'1'
0786  231C  	CALL FC_CAL_EE__0007D
0787  087A  	MOVF CompTempVarRet2292, W
0788  00F7  	MOVWF CompTempVarRet2293
0789  01F8  	CLRF CompTempVarRet2293+D'1'
078A  0008  	RETURN
078B        ; } FCD_EEPROM0_EEPROMRead function end

	ORG 0x0000078B
078B        main
078B        ; { main ; function begin
078B  3007  	MOVLW 0x07
078C  1683  	BSF STATUS, RP0
078D  1303  	BCF STATUS, RP1
078E  009F  	MOVWF gbl_adcon1
078F  2634  	CALL FC_CAL_UAR_00081
0790  30C0  	MOVLW 0xC0
0791  0081  	MOVWF gbl_option_reg
0792  307B  	MOVLW 0x7B
0793  1283  	BCF STATUS, RP0
0794  00D4  	MOVWF gbl_FCV_DATA0
0795  30FF  	MOVLW 0xFF
0796  00D5  	MOVWF gbl_FCV_DATA1
0797  00D8  	MOVWF gbl_FCV_DATA2
0798  01DD  	CLRF gbl_FCV_LSB
0799  01E0  	CLRF gbl_FCV_MSB
079A  01D2  	CLRF gbl_FCV_TEMP_TENS
079B  01DC  	CLRF gbl_FCV_TEMP_ONES
079C  01DA  	CLRF gbl_FCV_TEMP_DEC
079D  2780  	CALL FCD_I2C_Ma_0007A
079E  2776  	CALL FCD_PWM0_E_0006E
079F  2134  	CALL FCD_LED0_L_00055
07A0  212E  	CALL FCD_LED1_L_00058
07A1  30FF  	MOVLW 0xFF
07A2  00FD  	MOVWF delay_ms_00000_arg_del
07A3  2010  	CALL delay_ms_00000
07A4  302D  	MOVLW 0x2D
07A5  00FD  	MOVWF delay_ms_00000_arg_del
07A6  2010  	CALL delay_ms_00000
07A7        label96
07A7  2241  	CALL FCM_lights_0005F
07A8  3001  	MOVLW 0x01
07A9  00F5  	MOVWF FCD_EEPROM_00080_arg_addr
07AA  01F6  	CLRF FCD_EEPROM_00080_arg_addr+D'1'
07AB  2782  	CALL FCD_EEPROM_00080
07AC  0877  	MOVF CompTempVarRet2293, W
07AD  00C3  	MOVWF gbl_FCV_CALIB_SUBTRACTOR
07AE  0878  	MOVF CompTempVarRet2293+D'1', W
07AF  00C4  	MOVWF gbl_FCV_CALIB_SUBTRACTOR+D'1'
07B0  3002  	MOVLW 0x02
07B1  00F5  	MOVWF FCD_EEPROM_00080_arg_addr
07B2  01F6  	CLRF FCD_EEPROM_00080_arg_addr+D'1'
07B3  2782  	CALL FCD_EEPROM_00080
07B4  0877  	MOVF CompTempVarRet2293, W
07B5  00C7  	MOVWF gbl_FCV_CALIB_OFFSET
07B6  0878  	MOVF CompTempVarRet2293+D'1', W
07B7  00C8  	MOVWF gbl_FCV_CALIB_OFFSET+D'1'
07B8  30FA  	MOVLW 0xFA
07B9  07C3  	ADDWF gbl_FCV_CALIB_SUBTRACTOR, F
07BA  08C4  	MOVF gbl_FCV_CALIB_SUBTRACTOR+D'1', F
07BB  1803  	BTFSC STATUS,C
07BC  0AC4  	INCF gbl_FCV_CALIB_SUBTRACTOR+D'1', F
07BD        label97
07BD  01DF  	CLRF gbl_FCV_PROX_COUNTER
07BE  01E7  	CLRF gbl_FCV_SW_CALIB
07BF        label98
07BF  25F2  	CALL FCM_all_in_00054
07C0  158A  	BSF PCLATH,3
07C1  185B  	BTFSC gbl_FCV_PROX_BIT,0
07C2  28B7  	GOTO	label115
07C3  085F  	MOVF gbl_FCV_PROX_COUNTER, W
07C4  3A0A  	XORLW 0x0A
07C5  118A  	BCF PCLATH,3
07C6  1903  	BTFSC STATUS,Z
07C7  2FCE  	GOTO	label99
07C8  301E  	MOVLW 0x1E
07C9  00FD  	MOVWF delay_ms_00000_arg_del
07CA  2010  	CALL delay_ms_00000
07CB  0A5F  	INCF gbl_FCV_PROX_COUNTER, W
07CC  00DF  	MOVWF gbl_FCV_PROX_COUNTER
07CD  2FBF  	GOTO	label98
07CE        label99
07CE  2745  	CALL FCM_beep_o_00060
07CF  2646  	CALL FCM_get_te_00062
07D0  01FD  	CLRF CompTempVar2308
07D1  0838  	MOVF gbl_FCV_TEMP_C, W
07D2  1683  	BSF STATUS, RP0
07D3  00A0  	MOVWF __div_32_3_00001_arg_a
07D4  1283  	BCF STATUS, RP0
07D5  0839  	MOVF gbl_FCV_TEMP_C+D'1', W
07D6  1683  	BSF STATUS, RP0
07D7  00A1  	MOVWF __div_32_3_00001_arg_a+D'1'
07D8  1283  	BCF STATUS, RP0
07D9  083A  	MOVF gbl_FCV_TEMP_C+D'2', W
07DA  1683  	BSF STATUS, RP0
07DB  00A2  	MOVWF __div_32_3_00001_arg_a+D'2'
07DC  1283  	BCF STATUS, RP0
07DD  083B  	MOVF gbl_FCV_TEMP_C+D'3', W
07DE  1683  	BSF STATUS, RP0
07DF  00A3  	MOVWF __div_32_3_00001_arg_a+D'3'
07E0  1283  	BCF STATUS, RP0
07E1  1FBB  	BTFSS gbl_FCV_TEMP_C+D'3',7
07E2  2FF1  	GOTO	label100
07E3  1683  	BSF STATUS, RP0
07E4  09A0  	COMF __div_32_3_00001_arg_a, F
07E5  09A1  	COMF __div_32_3_00001_arg_a+D'1', F
07E6  09A2  	COMF __div_32_3_00001_arg_a+D'2', F
07E7  09A3  	COMF __div_32_3_00001_arg_a+D'3', F
07E8  0AA0  	INCF __div_32_3_00001_arg_a, F
07E9  1903  	BTFSC STATUS,Z
07EA  0AA1  	INCF __div_32_3_00001_arg_a+D'1', F
07EB  1903  	BTFSC STATUS,Z
07EC  0AA2  	INCF __div_32_3_00001_arg_a+D'2', F
07ED  1903  	BTFSC STATUS,Z
07EE  0AA3  	INCF __div_32_3_00001_arg_a+D'3', F
07EF  1283  	BCF STATUS, RP0
07F0  0AFD  	INCF CompTempVar2308, F
07F1        label100
07F1  300A  	MOVLW 0x0A
07F2  1683  	BSF STATUS, RP0
07F3  00A4  	MOVWF __div_32_3_00001_arg_b
07F4  01A5  	CLRF __div_32_3_00001_arg_b+D'1'
07F5  01A6  	CLRF __div_32_3_00001_arg_b+D'2'
07F6  01A7  	CLRF __div_32_3_00001_arg_b+D'3'
07F7  2184  	CALL __div_32_3_00001
07F8  0831  	MOVF CompTempVarRet210, W
07F9  1283  	BCF STATUS, RP0
07FA  00D2  	MOVWF gbl_FCV_TEMP_TENS
07FB  1C7D  	BTFSS CompTempVar2308,0
07FC  2FFF  	GOTO	label101
07FD  09D2  	COMF gbl_FCV_TEMP_TENS, F
07FE  0AD2  	INCF gbl_FCV_TEMP_TENS, F
07FF        label101
07FF  0838  	MOVF gbl_FCV_TEMP_C, W
0800  1683  	BSF STATUS, RP0
0801  00A0  	MOVWF __rem_32_3_00002_arg_a
0802  1283  	BCF STATUS, RP0
0803  0839  	MOVF gbl_FCV_TEMP_C+D'1', W
0804  1683  	BSF STATUS, RP0
0805  00A1  	MOVWF __rem_32_3_00002_arg_a+D'1'
0806  1283  	BCF STATUS, RP0
0807  083A  	MOVF gbl_FCV_TEMP_C+D'2', W
0808  1683  	BSF STATUS, RP0
0809  00A2  	MOVWF __rem_32_3_00002_arg_a+D'2'
080A  1283  	BCF STATUS, RP0
080B  083B  	MOVF gbl_FCV_TEMP_C+D'3', W
080C  1683  	BSF STATUS, RP0
080D  00A3  	MOVWF __rem_32_3_00002_arg_a+D'3'
080E  1283  	BCF STATUS, RP0
080F  158A  	BSF PCLATH,3
0810  1FBB  	BTFSS gbl_FCV_TEMP_C+D'3',7
0811  281E  	GOTO	label102
0812  1683  	BSF STATUS, RP0
0813  09A0  	COMF __rem_32_3_00002_arg_a, F
0814  09A1  	COMF __rem_32_3_00002_arg_a+D'1', F
0815  09A2  	COMF __rem_32_3_00002_arg_a+D'2', F
0816  09A3  	COMF __rem_32_3_00002_arg_a+D'3', F
0817  0AA0  	INCF __rem_32_3_00002_arg_a, F
0818  1903  	BTFSC STATUS,Z
0819  0AA1  	INCF __rem_32_3_00002_arg_a+D'1', F
081A  1903  	BTFSC STATUS,Z
081B  0AA2  	INCF __rem_32_3_00002_arg_a+D'2', F
081C  1903  	BTFSC STATUS,Z
081D  0AA3  	INCF __rem_32_3_00002_arg_a+D'3', F
081E        label102
081E  300A  	MOVLW 0x0A
081F  1683  	BSF STATUS, RP0
0820  00A4  	MOVWF __rem_32_3_00002_arg_b
0821  01A5  	CLRF __rem_32_3_00002_arg_b+D'1'
0822  01A6  	CLRF __rem_32_3_00002_arg_b+D'2'
0823  01A7  	CLRF __rem_32_3_00002_arg_b+D'3'
0824  118A  	BCF PCLATH,3
0825  213A  	CALL __rem_32_3_00002
0826  082D  	MOVF CompTempVarRet212, W
0827  1283  	BCF STATUS, RP0
0828  00DC  	MOVWF gbl_FCV_TEMP_ONES
0829  158A  	BSF PCLATH,3
082A  1FBB  	BTFSS gbl_FCV_TEMP_C+D'3',7
082B  282E  	GOTO	label103
082C  09DC  	COMF gbl_FCV_TEMP_ONES, F
082D  0ADC  	INCF gbl_FCV_TEMP_ONES, F
082E        label103
082E  0841  	MOVF gbl_FCV_TEMP_CDP, W
082F  00DA  	MOVWF gbl_FCV_TEMP_DEC
0830  3000  	MOVLW 0x00
0831  023B  	SUBWF gbl_FCV_TEMP_C+D'3', W
0832  1D03  	BTFSS STATUS,Z
0833  283E  	GOTO	label104
0834  3000  	MOVLW 0x00
0835  023A  	SUBWF gbl_FCV_TEMP_C+D'2', W
0836  1D03  	BTFSS STATUS,Z
0837  283E  	GOTO	label104
0838  3000  	MOVLW 0x00
0839  0239  	SUBWF gbl_FCV_TEMP_C+D'1', W
083A  1D03  	BTFSS STATUS,Z
083B  283E  	GOTO	label104
083C  3022  	MOVLW 0x22
083D  0238  	SUBWF gbl_FCV_TEMP_C, W
083E        label104
083E  1C03  	BTFSS STATUS,C
083F  2842  	GOTO	label105
0840  1FBB  	BTFSS gbl_FCV_TEMP_C+D'3',7
0841  2846  	GOTO	label106
0842        label105
0842  118A  	BCF PCLATH,3
0843  232A  	CALL FCM_repeat_00000
0844  158A  	BSF PCLATH,3
0845  28AF  	GOTO	label113
0846        label106
0846  3000  	MOVLW 0x00
0847  023B  	SUBWF gbl_FCV_TEMP_C+D'3', W
0848  1D03  	BTFSS STATUS,Z
0849  2854  	GOTO	label107
084A  3000  	MOVLW 0x00
084B  023A  	SUBWF gbl_FCV_TEMP_C+D'2', W
084C  1D03  	BTFSS STATUS,Z
084D  2854  	GOTO	label107
084E  3000  	MOVLW 0x00
084F  0239  	SUBWF gbl_FCV_TEMP_C+D'1', W
0850  1D03  	BTFSS STATUS,Z
0851  2854  	GOTO	label107
0852  3026  	MOVLW 0x26
0853  0238  	SUBWF gbl_FCV_TEMP_C, W
0854        label107
0854  1103  	BCF STATUS,Z
0855  1C03  	BTFSS STATUS,C
0856  286D  	GOTO	label109
0857  1BBB  	BTFSC gbl_FCV_TEMP_C+D'3',7
0858  286D  	GOTO	label109
0859        label108
0859  3046  	MOVLW 0x46
085A  00F7  	MOVWF CompTempVar2310
085B  3041  	MOVLW 0x41
085C  00F8  	MOVWF CompTempVar2310+D'1'
085D  3049  	MOVLW 0x49
085E  00F9  	MOVWF CompTempVar2310+D'2'
085F  304C  	MOVLW 0x4C
0860  00FA  	MOVWF CompTempVar2310+D'3'
0861  01FB  	CLRF CompTempVar2310+D'4'
0862  3000  	MOVLW HIGH(CompTempVar2310+D'0')
0863  00F6  	MOVWF FCD_RS2320_00087_arg_String+D'1'
0864  3077  	MOVLW LOW(CompTempVar2310+D'0')
0865  00F5  	MOVWF FCD_RS2320_00087_arg_String
0866  3004  	MOVLW 0x04
0867  00FC  	MOVWF FCD_RS2320_00087_arg_MSZ_String
0868  118A  	BCF PCLATH,3
0869  275B  	CALL FCD_RS2320_00087
086A  265E  	CALL FCM_displa_00064
086B  158A  	BSF PCLATH,3
086C  28AF  	GOTO	label113
086D        label109
086D  01F6  	CLRF CompTempVar2313
086E  0AF6  	INCF CompTempVar2313, F
086F  0838  	MOVF gbl_FCV_TEMP_C, W
0870  3C25  	SUBLW 0x25
0871  1D03  	BTFSS STATUS,Z
0872  01F6  	CLRF CompTempVar2313
0873  0839  	MOVF gbl_FCV_TEMP_C+D'1', W
0874  3C00  	SUBLW 0x00
0875  1D03  	BTFSS STATUS,Z
0876  01F6  	CLRF CompTempVar2313
0877  083A  	MOVF gbl_FCV_TEMP_C+D'2', W
0878  3C00  	SUBLW 0x00
0879  1D03  	BTFSS STATUS,Z
087A  01F6  	CLRF CompTempVar2313
087B  083B  	MOVF gbl_FCV_TEMP_C+D'3', W
087C  3C00  	SUBLW 0x00
087D  1D03  	BTFSS STATUS,Z
087E  01F6  	CLRF CompTempVar2313
087F  01F5  	CLRF CompTempVar2312
0880  0842  	MOVF gbl_FCV_TEMP_CDP+D'1', W
0881  3A80  	XORLW 0x80
0882  00F7  	MOVWF CompTempVar2314
0883  3080  	MOVLW 0x80
0884  0277  	SUBWF CompTempVar2314, W
0885  1D03  	BTFSS STATUS,Z
0886  2889  	GOTO	label110
0887  3008  	MOVLW 0x08
0888  0241  	SUBWF gbl_FCV_TEMP_CDP, W
0889        label110
0889  1803  	BTFSC STATUS,C
088A  0AF5  	INCF CompTempVar2312, F
088B  0875  	MOVF CompTempVar2312, W
088C  0576  	ANDWF CompTempVar2313, W
088D  1D03  	BTFSS STATUS,Z
088E  2859  	GOTO	label108
088F  01EB  	CLRF gbl_FCLV_LOOP2
0890        label111
0890  305A  	MOVLW 0x5A
0891  026B  	SUBWF gbl_FCLV_LOOP2, W
0892  1803  	BTFSC STATUS,C
0893  289A  	GOTO	label112
0894  118A  	BCF PCLATH,3
0895  244D  	CALL FCM_displa_00053
0896  2643  	CALL FCM_pass_00000
0897  0AEB  	INCF gbl_FCLV_LOOP2, F
0898  158A  	BSF PCLATH,3
0899  2890  	GOTO	label111
089A        label112
089A  0852  	MOVF gbl_FCV_TEMP_TENS, W
089B  00F7  	MOVWF FCD_RS2320_00088_arg_nTimeout
089C  118A  	BCF PCLATH,3
089D  2750  	CALL FCD_RS2320_00088
089E  0878  	MOVF CompTempVarRet2299, W
089F  00D6  	MOVWF gbl_FCV_RET_BYTE
08A0  085C  	MOVF gbl_FCV_TEMP_ONES, W
08A1  00F7  	MOVWF FCD_RS2320_00088_arg_nTimeout
08A2  2750  	CALL FCD_RS2320_00088
08A3  0878  	MOVF CompTempVarRet2299, W
08A4  00D6  	MOVWF gbl_FCV_RET_BYTE
08A5  302E  	MOVLW 0x2E
08A6  00F7  	MOVWF FCD_RS2320_00088_arg_nTimeout
08A7  2750  	CALL FCD_RS2320_00088
08A8  0878  	MOVF CompTempVarRet2299, W
08A9  00D6  	MOVWF gbl_FCV_RET_BYTE
08AA  085A  	MOVF gbl_FCV_TEMP_DEC, W
08AB  00F7  	MOVWF FCD_RS2320_00088_arg_nTimeout
08AC  2750  	CALL FCD_RS2320_00088
08AD  0878  	MOVF CompTempVarRet2299, W
08AE  00D6  	MOVWF gbl_FCV_RET_BYTE
08AF        label113
08AF  118A  	BCF PCLATH,3
08B0  2078  	CALL FCM_scan_o_00051
08B1        label114
08B1  118A  	BCF PCLATH,3
08B2  185B  	BTFSC gbl_FCV_PROX_BIT,0
08B3  2FA7  	GOTO	label96
08B4  25F2  	CALL FCM_all_in_00054
08B5  158A  	BSF PCLATH,3
08B6  28B1  	GOTO	label114
08B7        label115
08B7  3064  	MOVLW 0x64
08B8  00FD  	MOVWF delay_ms_00000_arg_del
08B9  118A  	BCF PCLATH,3
08BA  2010  	CALL delay_ms_00000
08BB  01F6  	CLRF CompTempVar2316
08BC  1DDB  	BTFSS gbl_FCV_SWG,3
08BD  0AF6  	INCF CompTempVar2316, F
08BE  01F5  	CLRF CompTempVar2315
08BF  0AF5  	INCF CompTempVar2315, F
08C0  08E2  	MOVF gbl_FCV_SWR, F
08C1  1D03  	BTFSS STATUS,Z
08C2  1075  	BCF CompTempVar2315,0
08C3  0875  	MOVF CompTempVar2315, W
08C4  0576  	ANDWF CompTempVar2316, W
08C5  158A  	BSF PCLATH,3
08C6  1903  	BTFSC STATUS,Z
08C7  28D6  	GOTO	label117
08C8  0867  	MOVF gbl_FCV_SW_CALIB, W
08C9  3A0A  	XORLW 0x0A
08CA  1903  	BTFSC STATUS,Z
08CB  28D3  	GOTO	label116
08CC  301E  	MOVLW 0x1E
08CD  00FD  	MOVWF delay_ms_00000_arg_del
08CE  118A  	BCF PCLATH,3
08CF  2010  	CALL delay_ms_00000
08D0  0A67  	INCF gbl_FCV_SW_CALIB, W
08D1  00E7  	MOVWF gbl_FCV_SW_CALIB
08D2  2FBF  	GOTO	label98
08D3        label116
08D3  118A  	BCF PCLATH,3
08D4  266C  	CALL FCM_calibr_00065
08D5  2FA7  	GOTO	label96
08D6        label117
08D6  01F8  	CLRF CompTempVar2318
08D7  19DB  	BTFSC gbl_FCV_SWG,3
08D8  0AF8  	INCF CompTempVar2318, F
08D9  01F7  	CLRF CompTempVar2317
08DA  0AF7  	INCF CompTempVar2317, F
08DB  08E2  	MOVF gbl_FCV_SWR, F
08DC  1D03  	BTFSS STATUS,Z
08DD  1077  	BCF CompTempVar2317,0
08DE  0877  	MOVF CompTempVar2317, W
08DF  0578  	ANDWF CompTempVar2318, W
08E0  1903  	BTFSC STATUS,Z
08E1  290A  	GOTO	label120
08E2  01EA  	CLRF gbl_FCLV_LOOP1
08E3        label118
08E3  301E  	MOVLW 0x1E
08E4  026A  	SUBWF gbl_FCLV_LOOP1, W
08E5  1803  	BTFSC STATUS,C
08E6  28F2  	GOTO	label119
08E7  118A  	BCF PCLATH,3
08E8  25F2  	CALL FCM_all_in_00054
08E9  3064  	MOVLW 0x64
08EA  00FD  	MOVWF delay_ms_00000_arg_del
08EB  2010  	CALL delay_ms_00000
08EC  0362  	DECF gbl_FCV_SWR, W
08ED  1903  	BTFSC STATUS,Z
08EE  2FBD  	GOTO	label97
08EF  0AEA  	INCF gbl_FCLV_LOOP1, F
08F0  158A  	BSF PCLATH,3
08F1  28E3  	GOTO	label118
08F2        label119
08F2  30DF  	MOVLW 0xDF
08F3  1683  	BSF STATUS, RP0
08F4  0507  	ANDWF gbl_trisc, W
08F5  0087  	MOVWF gbl_trisc
08F6  30DF  	MOVLW 0xDF
08F7  1283  	BCF STATUS, RP0
08F8  0507  	ANDWF gbl_portc, W
08F9  00F9  	MOVWF CompTempVar2319
08FA  3020  	MOVLW 0x20
08FB  0479  	IORWF CompTempVar2319, W
08FC  0087  	MOVWF gbl_portc
08FD  3003  	MOVLW 0x03
08FE  00F9  	MOVWF delay_s_00000_arg_del
08FF  118A  	BCF PCLATH,3
0900  2026  	CALL delay_s_00000
0901  30DF  	MOVLW 0xDF
0902  1683  	BSF STATUS, RP0
0903  0507  	ANDWF gbl_trisc, W
0904  0087  	MOVWF gbl_trisc
0905  30DF  	MOVLW 0xDF
0906  1283  	BCF STATUS, RP0
0907  0507  	ANDWF gbl_portc, W
0908  0087  	MOVWF gbl_portc
0909  2FA7  	GOTO	label96
090A        label120
090A  118A  	BCF PCLATH,3
090B  2078  	CALL FCM_scan_o_00051
090C  01FD  	CLRF FCD_PWM0_S_00061_arg_nDuty
090D  2272  	CALL FCD_PWM0_S_00061
090E  2FA7  	GOTO	label96
090F        ; } main function end

	ORG 0x0000090F
090F        _startup
090F  30D5  	MOVLW 0xD5
0910  1283  	BCF STATUS, RP0
0911  1303  	BCF STATUS, RP1
0912  00A0  	MOVWF gbl_14_LSR
0913  30C4  	MOVLW 0xC4
0914  00A1  	MOVWF gbl_14_LSR+D'1'
0915  30BB  	MOVLW 0xBB
0916  00A2  	MOVWF gbl_14_LSR+D'2'
0917  30DC  	MOVLW 0xDC
0918  00A3  	MOVWF gbl_14_LSR+D'3'
0919  01A4  	CLRF gbl_15_gbl_aSig
091A  01A5  	CLRF gbl_15_gbl_aSig+D'1'
091B  01A6  	CLRF gbl_15_gbl_aSig+D'2'
091C  01A7  	CLRF gbl_15_gbl_aSig+D'3'
091D  01A8  	CLRF gbl_15_gbl_bSig
091E  01A9  	CLRF gbl_15_gbl_bSig+D'1'
091F  01AA  	CLRF gbl_15_gbl_bSig+D'2'
0920  01AB  	CLRF gbl_15_gbl_bSig+D'3'
0921  01AC  	CLRF gbl_15_gbl_zSig
0922  01AD  	CLRF gbl_15_gbl_zSig+D'1'
0923  01AE  	CLRF gbl_15_gbl_zSig+D'2'
0924  01AF  	CLRF gbl_15_gbl_zSig+D'3'
0925  01CC  	CLRF gbl_15_gbl_aExp
0926  01CD  	CLRF gbl_15_gbl_bExp
0927  01BF  	CLRF gbl_15_gbl_zExp
0928  01C0  	CLRF gbl_15_gbl_zExp+D'1'
0929  01CE  	CLRF gbl_15_gbl_aSign
092A  01CF  	CLRF gbl_15_gbl_bSign
092B  01D0  	CLRF gbl_15_gbl_zSign
092C  01D1  	CLRF gbl_15_gbl_zSigZero
092D  01B0  	CLRF gbl_15_gbl_ret
092E  01B1  	CLRF gbl_15_gbl_ret+D'1'
092F  01B2  	CLRF gbl_15_gbl_ret+D'2'
0930  01B3  	CLRF gbl_15_gbl_ret+D'3'
0931  01CA  	CLRF gbl_float_rounding_mode
0932  01CB  	CLRF gbl_float_exception_flags
0933  01C9  	CLRF gbl_float_detect_tininess
0934  01D2  	CLRF gbl_FCV_TEMP_TENS
0935  01D3  	CLRF gbl_FCV_D_BYTE
0936  01B4  	CLRF gbl_FCV_RAW
0937  01B5  	CLRF gbl_FCV_RAW+D'1'
0938  01B6  	CLRF gbl_FCV_RAW+D'2'
0939  01B7  	CLRF gbl_FCV_RAW+D'3'
093A  30FF  	MOVLW 0xFF
093B  00D4  	MOVWF gbl_FCV_DATA0
093C  01C1  	CLRF gbl_FCV_TEMP_CDP
093D  01C2  	CLRF gbl_FCV_TEMP_CDP+D'1'
093E  30FF  	MOVLW 0xFF
093F  00D5  	MOVWF gbl_FCV_DATA1
0940  01D6  	CLRF gbl_FCV_RET_BYTE
0941  01D7  	CLRF gbl_FCV_DP2
0942  30FF  	MOVLW 0xFF
0943  00D8  	MOVWF gbl_FCV_DATA2
0944  01D9  	CLRF gbl_FCV_RESET_COUNTER
0945  01DA  	CLRF gbl_FCV_TEMP_DEC
0946  145B  	BSF gbl_FCV_PROX_BIT,0
0947  01DC  	CLRF gbl_FCV_TEMP_ONES
0948  30FF  	MOVLW 0xFF
0949  00DD  	MOVWF gbl_FCV_LSB
094A  30FF  	MOVLW 0xFF
094B  00DE  	MOVWF gbl_FCV_RT_BYTE
094C  01DF  	CLRF gbl_FCV_PROX_COUNTER
094D  30FF  	MOVLW 0xFF
094E  00E0  	MOVWF gbl_FCV_MSB
094F  01E1  	CLRF gbl_FCV_DIGIT
0950  3001  	MOVLW 0x01
0951  00E2  	MOVWF gbl_FCV_SWR
0952  14DB  	BSF gbl_FCV_SW0,1
0953  155B  	BSF gbl_FCV_FLAGBIT,2
0954  01E3  	CLRF gbl_FCV_I2C_RX
0955  01E4  	CLRF gbl_FCV_CALIB_FACTOR
0956  01E6  	CLRF gbl_FCV_DATA_PREV
0957  01C5  	CLRF gbl_FCV_SAVE_CALIB0
0958  01C6  	CLRF gbl_FCV_SAVE_CALIB0+D'1'
0959  01E7  	CLRF gbl_FCV_SW_CALIB
095A  15DB  	BSF gbl_FCV_SWG,3
095B  01E9  	CLRF gbl_FCV_DATA_DIFF
095C  118A  	BCF PCLATH,3
095D  120A  	BCF PCLATH,4
095E  2F8B  	GOTO	main
	ORG 0x0000095F
095F        interrupt
095F        ; { interrupt ; function begin
095F  1283  	BCF STATUS, RP0
0960  1303  	BCF STATUS, RP1
0961  0E3E  	SWAPF Int1BContext+D'2', W
0962  0084  	MOVWF FSR
0963  0E3D  	SWAPF Int1BContext+D'1', W
0964  008A  	MOVWF PCLATH
0965  0E3C  	SWAPF Int1BContext, W
0966  0083  	MOVWF STATUS
0967  0EFF  	SWAPF Int1Context, F
0968  0E7F  	SWAPF Int1Context, W
0969  0009  	RETFIE
096A        ; } interrupt function end

	ORG 0x00002007
2007  1F32  	DW 0x1F32
