;/////////////////////////////////////////////////////////////////////////////////
;// Code Generator: BoostC Compiler - http://www.sourceboost.com
;// Version       : 7.03
;// License Type  : Pro License
;// Limitations   : PIC12,PIC16 max code size:Unlimited, max RAM banks:Unlimited
;/////////////////////////////////////////////////////////////////////////////////

	ORG 0x00000000
0000  2B2A  	GOTO	_startup
	ORG 0x00000004
0004  00FF  	MOVWF Int1Context
0005  0E03  	SWAPF STATUS, W
0006  1283  	BCF STATUS, RP0
0007  1303  	BCF STATUS, RP1
0008  00BC  	MOVWF Int1BContext
0009  0E0A  	SWAPF PCLATH, W
000A  00BD  	MOVWF Int1BContext+D'1'
000B  0E04  	SWAPF FSR, W
000C  00BE  	MOVWF Int1BContext+D'2'
000D  118A  	BCF PCLATH,3
000E  120A  	BCF PCLATH,4
000F  2B6D  	GOTO	interrupt
	ORG 0x00000010
0010        delay_us_00000
0010        ; { delay_us ; function begin
0010  3003  	MOVLW 0x03
0011  07DE  	ADDWF delay_us_00000_arg_del, F
0012  0CDE  	RRF delay_us_00000_arg_del, F
0013  0CDE  	RRF delay_us_00000_arg_del, F
0014  307F  	MOVLW 0x7F
0015  05DE  	ANDWF delay_us_00000_arg_del, F
0016        label1
0016  0000  	NOP
0017  0BDE  	DECFSZ delay_us_00000_arg_del, F
0018  2816  	GOTO	label1
0019  0008  	RETURN
001A        ; } delay_us function end

	ORG 0x0000001A
001A        delay_ms_00000
001A        ; { delay_ms ; function begin
001A  08DB  	MOVF delay_ms_00000_arg_del, F
001B  1D03  	BTFSS STATUS,Z
001C  281E  	GOTO	label2
001D  0008  	RETURN
001E        label2
001E  30F9  	MOVLW 0xF9
001F        label3
001F  3EFF  	ADDLW 0xFF
0020  1D03  	BTFSS STATUS,Z
0021  281F  	GOTO	label3
0022  0000  	NOP
0023  0BDB  	DECFSZ delay_ms_00000_arg_del, F
0024  281E  	GOTO	label2
0025  0008  	RETURN
0026        ; } delay_ms function end

	ORG 0x00000026
0026        delay_s_00000
0026        ; { delay_s ; function begin
0026        label4
0026  30FA  	MOVLW 0xFA
0027  00DB  	MOVWF delay_ms_00000_arg_del
0028  201A  	CALL delay_ms_00000
0029  30FA  	MOVLW 0xFA
002A  00DB  	MOVWF delay_ms_00000_arg_del
002B  201A  	CALL delay_ms_00000
002C  30FA  	MOVLW 0xFA
002D  00DB  	MOVWF delay_ms_00000_arg_del
002E  201A  	CALL delay_ms_00000
002F  30FA  	MOVLW 0xFA
0030  00DB  	MOVWF delay_ms_00000_arg_del
0031  201A  	CALL delay_ms_00000
0032  0BDA  	DECFSZ delay_s_00000_arg_del, F
0033  2826  	GOTO	label4
0034  0008  	RETURN
0035        ; } delay_s function end

	ORG 0x00000035
0035        FC_CAL_I2C_00062
0035        ; { FC_CAL_I2C_Master_RX_Byte_1 ; function begin
0035  01DD  	CLRF FC_CAL_I2C_00062_1_Data
0036  1683  	BSF STATUS, RP0
0037  1607  	BSF gbl_trisc,4
0038  3014  	MOVLW 0x14
0039  1283  	BCF STATUS, RP0
003A  00DE  	MOVWF delay_us_00000_arg_del
003B  2010  	CALL delay_us_00000
003C  3080  	MOVLW 0x80
003D  00DC  	MOVWF FC_CAL_I2C_00062_1_bit_mask
003E        label5
003E  08DC  	MOVF FC_CAL_I2C_00062_1_bit_mask, F
003F  1903  	BTFSC STATUS,Z
0040  285A  	GOTO	label7
0041  1683  	BSF STATUS, RP0
0042  1587  	BSF gbl_trisc,3
0043  3014  	MOVLW 0x14
0044  1283  	BCF STATUS, RP0
0045  00DE  	MOVWF delay_us_00000_arg_del
0046  2010  	CALL delay_us_00000
0047  1683  	BSF STATUS, RP0
0048  1607  	BSF gbl_trisc,4
0049  1283  	BCF STATUS, RP0
004A  1E07  	BTFSS gbl_portc,4
004B  284F  	GOTO	label6
004C  085C  	MOVF FC_CAL_I2C_00062_1_bit_mask, W
004D  045D  	IORWF FC_CAL_I2C_00062_1_Data, W
004E  00DD  	MOVWF FC_CAL_I2C_00062_1_Data
004F        label6
004F  1683  	BSF STATUS, RP0
0050  1187  	BCF gbl_trisc,3
0051  1283  	BCF STATUS, RP0
0052  1187  	BCF gbl_portc,3
0053  3014  	MOVLW 0x14
0054  00DE  	MOVWF delay_us_00000_arg_del
0055  2010  	CALL delay_us_00000
0056  08DC  	MOVF FC_CAL_I2C_00062_1_bit_mask, F
0057  1003  	BCF STATUS,C
0058  0CDC  	RRF FC_CAL_I2C_00062_1_bit_mask, F
0059  283E  	GOTO	label5
005A        label7
005A  08DB  	MOVF FC_CAL_I2C_00062_arg_Last, F
005B  1903  	BTFSC STATUS,Z
005C  2860  	GOTO	label8
005D  1683  	BSF STATUS, RP0
005E  1607  	BSF gbl_trisc,4
005F  2864  	GOTO	label9
0060        label8
0060  1683  	BSF STATUS, RP0
0061  1207  	BCF gbl_trisc,4
0062  1283  	BCF STATUS, RP0
0063  1207  	BCF gbl_portc,4
0064        label9
0064  3014  	MOVLW 0x14
0065  1283  	BCF STATUS, RP0
0066  00DE  	MOVWF delay_us_00000_arg_del
0067  2010  	CALL delay_us_00000
0068  1683  	BSF STATUS, RP0
0069  1587  	BSF gbl_trisc,3
006A  3014  	MOVLW 0x14
006B  1283  	BCF STATUS, RP0
006C  00DE  	MOVWF delay_us_00000_arg_del
006D  2010  	CALL delay_us_00000
006E  1683  	BSF STATUS, RP0
006F  1187  	BCF gbl_trisc,3
0070  1283  	BCF STATUS, RP0
0071  1187  	BCF gbl_portc,3
0072  3014  	MOVLW 0x14
0073  00DE  	MOVWF delay_us_00000_arg_del
0074  2010  	CALL delay_us_00000
0075  085D  	MOVF FC_CAL_I2C_00062_1_Data, W
0076  00DE  	MOVWF CompTempVarRet2228
0077  0008  	RETURN
0078        ; } FC_CAL_I2C_Master_RX_Byte_1 function end

	ORG 0x00000078
0078        FC_CAL_I2C_00061
0078        ; { FC_CAL_I2C_Master_TX_Byte_1 ; function begin
0078  01DD  	CLRF FC_CAL_I2C_00061_1_local_ack
0079  3080  	MOVLW 0x80
007A  00DC  	MOVWF FC_CAL_I2C_00061_1_bit_mask
007B        label10
007B  08DC  	MOVF FC_CAL_I2C_00061_1_bit_mask, F
007C  1903  	BTFSC STATUS,Z
007D  289E  	GOTO	label13
007E  085C  	MOVF FC_CAL_I2C_00061_1_bit_mask, W
007F  055B  	ANDWF FC_CAL_I2C_00061_arg_Data, W
0080  1903  	BTFSC STATUS,Z
0081  2885  	GOTO	label11
0082  1683  	BSF STATUS, RP0
0083  1607  	BSF gbl_trisc,4
0084  2889  	GOTO	label12
0085        label11
0085  1683  	BSF STATUS, RP0
0086  1207  	BCF gbl_trisc,4
0087  1283  	BCF STATUS, RP0
0088  1207  	BCF gbl_portc,4
0089        label12
0089  3014  	MOVLW 0x14
008A  1283  	BCF STATUS, RP0
008B  00DE  	MOVWF delay_us_00000_arg_del
008C  2010  	CALL delay_us_00000
008D  1683  	BSF STATUS, RP0
008E  1587  	BSF gbl_trisc,3
008F  3014  	MOVLW 0x14
0090  1283  	BCF STATUS, RP0
0091  00DE  	MOVWF delay_us_00000_arg_del
0092  2010  	CALL delay_us_00000
0093  1683  	BSF STATUS, RP0
0094  1187  	BCF gbl_trisc,3
0095  1283  	BCF STATUS, RP0
0096  1187  	BCF gbl_portc,3
0097  3014  	MOVLW 0x14
0098  00DE  	MOVWF delay_us_00000_arg_del
0099  2010  	CALL delay_us_00000
009A  08DC  	MOVF FC_CAL_I2C_00061_1_bit_mask, F
009B  1003  	BCF STATUS,C
009C  0CDC  	RRF FC_CAL_I2C_00061_1_bit_mask, F
009D  287B  	GOTO	label10
009E        label13
009E  1683  	BSF STATUS, RP0
009F  1607  	BSF gbl_trisc,4
00A0  3014  	MOVLW 0x14
00A1  1283  	BCF STATUS, RP0
00A2  00DE  	MOVWF delay_us_00000_arg_del
00A3  2010  	CALL delay_us_00000
00A4  1683  	BSF STATUS, RP0
00A5  1587  	BSF gbl_trisc,3
00A6  3014  	MOVLW 0x14
00A7  1283  	BCF STATUS, RP0
00A8  00DE  	MOVWF delay_us_00000_arg_del
00A9  2010  	CALL delay_us_00000
00AA  1683  	BSF STATUS, RP0
00AB  1607  	BSF gbl_trisc,4
00AC  1283  	BCF STATUS, RP0
00AD  1E07  	BTFSS gbl_portc,4
00AE  28B1  	GOTO	label14
00AF  3001  	MOVLW 0x01
00B0  00DD  	MOVWF FC_CAL_I2C_00061_1_local_ack
00B1        label14
00B1  3014  	MOVLW 0x14
00B2  00DE  	MOVWF delay_us_00000_arg_del
00B3  2010  	CALL delay_us_00000
00B4  1683  	BSF STATUS, RP0
00B5  1187  	BCF gbl_trisc,3
00B6  1283  	BCF STATUS, RP0
00B7  1187  	BCF gbl_portc,3
00B8  3014  	MOVLW 0x14
00B9  00DE  	MOVWF delay_us_00000_arg_del
00BA  2010  	CALL delay_us_00000
00BB  085D  	MOVF FC_CAL_I2C_00061_1_local_ack, W
00BC  00DE  	MOVWF CompTempVarRet2226
00BD  0008  	RETURN
00BE        ; } FC_CAL_I2C_Master_TX_Byte_1 function end

	ORG 0x000000BE
00BE        FC_CAL_I2C_00060
00BE        ; { FC_CAL_I2C_Master_Stop_1 ; function begin
00BE  1683  	BSF STATUS, RP0
00BF  1303  	BCF STATUS, RP1
00C0  1187  	BCF gbl_trisc,3
00C1  1283  	BCF STATUS, RP0
00C2  1187  	BCF gbl_portc,3
00C3  1683  	BSF STATUS, RP0
00C4  1207  	BCF gbl_trisc,4
00C5  1283  	BCF STATUS, RP0
00C6  1207  	BCF gbl_portc,4
00C7  3014  	MOVLW 0x14
00C8  00DE  	MOVWF delay_us_00000_arg_del
00C9  2010  	CALL delay_us_00000
00CA  1683  	BSF STATUS, RP0
00CB  1587  	BSF gbl_trisc,3
00CC  3014  	MOVLW 0x14
00CD  1283  	BCF STATUS, RP0
00CE  00DE  	MOVWF delay_us_00000_arg_del
00CF  2010  	CALL delay_us_00000
00D0  1683  	BSF STATUS, RP0
00D1  1607  	BSF gbl_trisc,4
00D2  300A  	MOVLW 0x0A
00D3  1283  	BCF STATUS, RP0
00D4  00DB  	MOVWF delay_ms_00000_arg_del
00D5  201A  	CALL delay_ms_00000
00D6  0008  	RETURN
00D7        ; } FC_CAL_I2C_Master_Stop_1 function end

	ORG 0x000000D7
00D7        FC_CAL_I2C_0005F
00D7        ; { FC_CAL_I2C_Master_Restart_1 ; function begin
00D7  1683  	BSF STATUS, RP0
00D8  1303  	BCF STATUS, RP1
00D9  1607  	BSF gbl_trisc,4
00DA  3014  	MOVLW 0x14
00DB  1283  	BCF STATUS, RP0
00DC  00DE  	MOVWF delay_us_00000_arg_del
00DD  2010  	CALL delay_us_00000
00DE  1683  	BSF STATUS, RP0
00DF  1587  	BSF gbl_trisc,3
00E0  3014  	MOVLW 0x14
00E1  1283  	BCF STATUS, RP0
00E2  00DE  	MOVWF delay_us_00000_arg_del
00E3  2010  	CALL delay_us_00000
00E4  1683  	BSF STATUS, RP0
00E5  1207  	BCF gbl_trisc,4
00E6  1283  	BCF STATUS, RP0
00E7  1207  	BCF gbl_portc,4
00E8  3014  	MOVLW 0x14
00E9  00DE  	MOVWF delay_us_00000_arg_del
00EA  2010  	CALL delay_us_00000
00EB  1683  	BSF STATUS, RP0
00EC  1187  	BCF gbl_trisc,3
00ED  1283  	BCF STATUS, RP0
00EE  1187  	BCF gbl_portc,3
00EF  3014  	MOVLW 0x14
00F0  00DE  	MOVWF delay_us_00000_arg_del
00F1  2010  	CALL delay_us_00000
00F2  0008  	RETURN
00F3        ; } FC_CAL_I2C_Master_Restart_1 function end

	ORG 0x000000F3
00F3        FC_CAL_I2C_0005E
00F3        ; { FC_CAL_I2C_Master_Start_1 ; function begin
00F3  1683  	BSF STATUS, RP0
00F4  1303  	BCF STATUS, RP1
00F5  1587  	BSF gbl_trisc,3
00F6  1607  	BSF gbl_trisc,4
00F7  3014  	MOVLW 0x14
00F8  1283  	BCF STATUS, RP0
00F9  00DE  	MOVWF delay_us_00000_arg_del
00FA  2010  	CALL delay_us_00000
00FB  1683  	BSF STATUS, RP0
00FC  1207  	BCF gbl_trisc,4
00FD  1283  	BCF STATUS, RP0
00FE  1207  	BCF gbl_portc,4
00FF  3014  	MOVLW 0x14
0100  00DE  	MOVWF delay_us_00000_arg_del
0101  2010  	CALL delay_us_00000
0102  1683  	BSF STATUS, RP0
0103  1187  	BCF gbl_trisc,3
0104  1283  	BCF STATUS, RP0
0105  1187  	BCF gbl_portc,3
0106  3014  	MOVLW 0x14
0107  00DE  	MOVWF delay_us_00000_arg_del
0108  2010  	CALL delay_us_00000
0109  0008  	RETURN
010A        ; } FC_CAL_I2C_Master_Start_1 function end

	ORG 0x0000010A
010A        FC_CAL_I2C_0005C
010A        ; { FC_CAL_I2C_Master_Init_1 ; function begin
010A  1683  	BSF STATUS, RP0
010B  1303  	BCF STATUS, RP1
010C  1607  	BSF gbl_trisc,4
010D  1587  	BSF gbl_trisc,3
010E  0008  	RETURN
010F        ; } FC_CAL_I2C_Master_Init_1 function end

	ORG 0x0000010F
010F        FCM_seg_pa_00054
010F        ; { FCM_seg_pattern ; function begin
010F  1283  	BCF STATUS, RP0
0110  1303  	BCF STATUS, RP1
0111  0856  	MOVF gbl_FCV_DIGIT, W
0112  3A01  	XORLW 0x01
0113  1903  	BTFSC STATUS,Z
0114  2931  	GOTO	label15
0115  3A03  	XORLW 0x03
0116  1903  	BTFSC STATUS,Z
0117  2937  	GOTO	label16
0118  3A01  	XORLW 0x01
0119  1903  	BTFSC STATUS,Z
011A  293D  	GOTO	label17
011B  3A07  	XORLW 0x07
011C  1903  	BTFSC STATUS,Z
011D  2943  	GOTO	label18
011E  3A01  	XORLW 0x01
011F  1903  	BTFSC STATUS,Z
0120  2949  	GOTO	label19
0121  3A03  	XORLW 0x03
0122  1903  	BTFSC STATUS,Z
0123  294F  	GOTO	label20
0124  3A01  	XORLW 0x01
0125  1903  	BTFSC STATUS,Z
0126  2955  	GOTO	label21
0127  3A0F  	XORLW 0x0F
0128  1903  	BTFSC STATUS,Z
0129  295B  	GOTO	label22
012A  3A01  	XORLW 0x01
012B  1903  	BTFSC STATUS,Z
012C  2961  	GOTO	label23
012D  3A09  	XORLW 0x09
012E  1903  	BTFSC STATUS,Z
012F  2967  	GOTO	label24
0130  296D  	GOTO	label25
0131        label15
0131  1683  	BSF STATUS, RP0
0132  0185  	CLRF gbl_trisa
0133  3030  	MOVLW 0x30
0134  1283  	BCF STATUS, RP0
0135  0085  	MOVWF gbl_porta
0136  0008  	RETURN
0137        label16
0137  1683  	BSF STATUS, RP0
0138  0185  	CLRF gbl_trisa
0139  306D  	MOVLW 0x6D
013A  1283  	BCF STATUS, RP0
013B  0085  	MOVWF gbl_porta
013C  0008  	RETURN
013D        label17
013D  1683  	BSF STATUS, RP0
013E  0185  	CLRF gbl_trisa
013F  3079  	MOVLW 0x79
0140  1283  	BCF STATUS, RP0
0141  0085  	MOVWF gbl_porta
0142  0008  	RETURN
0143        label18
0143  1683  	BSF STATUS, RP0
0144  0185  	CLRF gbl_trisa
0145  3033  	MOVLW 0x33
0146  1283  	BCF STATUS, RP0
0147  0085  	MOVWF gbl_porta
0148  0008  	RETURN
0149        label19
0149  1683  	BSF STATUS, RP0
014A  0185  	CLRF gbl_trisa
014B  305B  	MOVLW 0x5B
014C  1283  	BCF STATUS, RP0
014D  0085  	MOVWF gbl_porta
014E  0008  	RETURN
014F        label20
014F  1683  	BSF STATUS, RP0
0150  0185  	CLRF gbl_trisa
0151  305F  	MOVLW 0x5F
0152  1283  	BCF STATUS, RP0
0153  0085  	MOVWF gbl_porta
0154  0008  	RETURN
0155        label21
0155  1683  	BSF STATUS, RP0
0156  0185  	CLRF gbl_trisa
0157  3070  	MOVLW 0x70
0158  1283  	BCF STATUS, RP0
0159  0085  	MOVWF gbl_porta
015A  0008  	RETURN
015B        label22
015B  1683  	BSF STATUS, RP0
015C  0185  	CLRF gbl_trisa
015D  307F  	MOVLW 0x7F
015E  1283  	BCF STATUS, RP0
015F  0085  	MOVWF gbl_porta
0160  0008  	RETURN
0161        label23
0161  1683  	BSF STATUS, RP0
0162  0185  	CLRF gbl_trisa
0163  307B  	MOVLW 0x7B
0164  1283  	BCF STATUS, RP0
0165  0085  	MOVWF gbl_porta
0166  0008  	RETURN
0167        label24
0167  1683  	BSF STATUS, RP0
0168  0185  	CLRF gbl_trisa
0169  307E  	MOVLW 0x7E
016A  1283  	BCF STATUS, RP0
016B  0085  	MOVWF gbl_porta
016C  0008  	RETURN
016D        label25
016D  1683  	BSF STATUS, RP0
016E  0185  	CLRF gbl_trisa
016F  3001  	MOVLW 0x01
0170  1283  	BCF STATUS, RP0
0171  0085  	MOVWF gbl_porta
0172  0008  	RETURN
0173        ; } FCM_seg_pattern function end

	ORG 0x00000173
0173        FCM_scan_o_00053
0173        ; { FCM_scan_off ; function begin
0173  30FB  	MOVLW 0xFB
0174  1683  	BSF STATUS, RP0
0175  1303  	BCF STATUS, RP1
0176  0506  	ANDWF gbl_trisb, W
0177  0086  	MOVWF gbl_trisb
0178  30FB  	MOVLW 0xFB
0179  1283  	BCF STATUS, RP0
017A  0506  	ANDWF gbl_portb, W
017B  0086  	MOVWF gbl_portb
017C  30F7  	MOVLW 0xF7
017D  1683  	BSF STATUS, RP0
017E  0506  	ANDWF gbl_trisb, W
017F  0086  	MOVWF gbl_trisb
0180  30F7  	MOVLW 0xF7
0181  1283  	BCF STATUS, RP0
0182  0506  	ANDWF gbl_portb, W
0183  0086  	MOVWF gbl_portb
0184  30EF  	MOVLW 0xEF
0185  1683  	BSF STATUS, RP0
0186  0506  	ANDWF gbl_trisb, W
0187  0086  	MOVWF gbl_trisb
0188  30EF  	MOVLW 0xEF
0189  1283  	BCF STATUS, RP0
018A  0506  	ANDWF gbl_portb, W
018B  0086  	MOVWF gbl_portb
018C  30DF  	MOVLW 0xDF
018D  1683  	BSF STATUS, RP0
018E  0506  	ANDWF gbl_trisb, W
018F  0086  	MOVWF gbl_trisb
0190  30DF  	MOVLW 0xDF
0191  1283  	BCF STATUS, RP0
0192  0506  	ANDWF gbl_portb, W
0193  0086  	MOVWF gbl_portb
0194  0008  	RETURN
0195        ; } FCM_scan_off function end

	ORG 0x00000195
0195        FCM_scan4_00000
0195        ; { FCM_scan4 ; function begin
0195  30FB  	MOVLW 0xFB
0196  1683  	BSF STATUS, RP0
0197  1303  	BCF STATUS, RP1
0198  0506  	ANDWF gbl_trisb, W
0199  0086  	MOVWF gbl_trisb
019A  30FB  	MOVLW 0xFB
019B  1283  	BCF STATUS, RP0
019C  0506  	ANDWF gbl_portb, W
019D  0086  	MOVWF gbl_portb
019E  30F7  	MOVLW 0xF7
019F  1683  	BSF STATUS, RP0
01A0  0506  	ANDWF gbl_trisb, W
01A1  0086  	MOVWF gbl_trisb
01A2  30F7  	MOVLW 0xF7
01A3  1283  	BCF STATUS, RP0
01A4  0506  	ANDWF gbl_portb, W
01A5  0086  	MOVWF gbl_portb
01A6  30EF  	MOVLW 0xEF
01A7  1683  	BSF STATUS, RP0
01A8  0506  	ANDWF gbl_trisb, W
01A9  0086  	MOVWF gbl_trisb
01AA  30EF  	MOVLW 0xEF
01AB  1283  	BCF STATUS, RP0
01AC  0506  	ANDWF gbl_portb, W
01AD  0086  	MOVWF gbl_portb
01AE  30DF  	MOVLW 0xDF
01AF  1683  	BSF STATUS, RP0
01B0  0506  	ANDWF gbl_trisb, W
01B1  0086  	MOVWF gbl_trisb
01B2  30DF  	MOVLW 0xDF
01B3  1283  	BCF STATUS, RP0
01B4  0506  	ANDWF gbl_portb, W
01B5  00DA  	MOVWF CompTempVar2199
01B6  3020  	MOVLW 0x20
01B7  045A  	IORWF CompTempVar2199, W
01B8  0086  	MOVWF gbl_portb
01B9  0008  	RETURN
01BA        ; } FCM_scan4 function end

	ORG 0x000001BA
01BA        FCM_scan3_00000
01BA        ; { FCM_scan3 ; function begin
01BA  30FB  	MOVLW 0xFB
01BB  1683  	BSF STATUS, RP0
01BC  1303  	BCF STATUS, RP1
01BD  0506  	ANDWF gbl_trisb, W
01BE  0086  	MOVWF gbl_trisb
01BF  30FB  	MOVLW 0xFB
01C0  1283  	BCF STATUS, RP0
01C1  0506  	ANDWF gbl_portb, W
01C2  0086  	MOVWF gbl_portb
01C3  30F7  	MOVLW 0xF7
01C4  1683  	BSF STATUS, RP0
01C5  0506  	ANDWF gbl_trisb, W
01C6  0086  	MOVWF gbl_trisb
01C7  30F7  	MOVLW 0xF7
01C8  1283  	BCF STATUS, RP0
01C9  0506  	ANDWF gbl_portb, W
01CA  0086  	MOVWF gbl_portb
01CB  30EF  	MOVLW 0xEF
01CC  1683  	BSF STATUS, RP0
01CD  0506  	ANDWF gbl_trisb, W
01CE  0086  	MOVWF gbl_trisb
01CF  30EF  	MOVLW 0xEF
01D0  1283  	BCF STATUS, RP0
01D1  0506  	ANDWF gbl_portb, W
01D2  00DA  	MOVWF CompTempVar2198
01D3  3010  	MOVLW 0x10
01D4  045A  	IORWF CompTempVar2198, W
01D5  0086  	MOVWF gbl_portb
01D6  30DF  	MOVLW 0xDF
01D7  1683  	BSF STATUS, RP0
01D8  0506  	ANDWF gbl_trisb, W
01D9  0086  	MOVWF gbl_trisb
01DA  30DF  	MOVLW 0xDF
01DB  1283  	BCF STATUS, RP0
01DC  0506  	ANDWF gbl_portb, W
01DD  0086  	MOVWF gbl_portb
01DE  0008  	RETURN
01DF        ; } FCM_scan3 function end

	ORG 0x000001DF
01DF        FCM_scan2_00000
01DF        ; { FCM_scan2 ; function begin
01DF  30FB  	MOVLW 0xFB
01E0  1683  	BSF STATUS, RP0
01E1  1303  	BCF STATUS, RP1
01E2  0506  	ANDWF gbl_trisb, W
01E3  0086  	MOVWF gbl_trisb
01E4  30FB  	MOVLW 0xFB
01E5  1283  	BCF STATUS, RP0
01E6  0506  	ANDWF gbl_portb, W
01E7  0086  	MOVWF gbl_portb
01E8  30F7  	MOVLW 0xF7
01E9  1683  	BSF STATUS, RP0
01EA  0506  	ANDWF gbl_trisb, W
01EB  0086  	MOVWF gbl_trisb
01EC  30F7  	MOVLW 0xF7
01ED  1283  	BCF STATUS, RP0
01EE  0506  	ANDWF gbl_portb, W
01EF  00DA  	MOVWF CompTempVar2197
01F0  3008  	MOVLW 0x08
01F1  045A  	IORWF CompTempVar2197, W
01F2  0086  	MOVWF gbl_portb
01F3  30EF  	MOVLW 0xEF
01F4  1683  	BSF STATUS, RP0
01F5  0506  	ANDWF gbl_trisb, W
01F6  0086  	MOVWF gbl_trisb
01F7  30EF  	MOVLW 0xEF
01F8  1283  	BCF STATUS, RP0
01F9  0506  	ANDWF gbl_portb, W
01FA  0086  	MOVWF gbl_portb
01FB  30DF  	MOVLW 0xDF
01FC  1683  	BSF STATUS, RP0
01FD  0506  	ANDWF gbl_trisb, W
01FE  0086  	MOVWF gbl_trisb
01FF  30DF  	MOVLW 0xDF
0200  1283  	BCF STATUS, RP0
0201  0506  	ANDWF gbl_portb, W
0202  0086  	MOVWF gbl_portb
0203  0008  	RETURN
0204        ; } FCM_scan2 function end

	ORG 0x00000204
0204        FCM_scan1_00000
0204        ; { FCM_scan1 ; function begin
0204  30FB  	MOVLW 0xFB
0205  1683  	BSF STATUS, RP0
0206  1303  	BCF STATUS, RP1
0207  0506  	ANDWF gbl_trisb, W
0208  0086  	MOVWF gbl_trisb
0209  30FB  	MOVLW 0xFB
020A  1283  	BCF STATUS, RP0
020B  0506  	ANDWF gbl_portb, W
020C  00DA  	MOVWF CompTempVar2195
020D  3004  	MOVLW 0x04
020E  045A  	IORWF CompTempVar2195, W
020F  0086  	MOVWF gbl_portb
0210  30F7  	MOVLW 0xF7
0211  1683  	BSF STATUS, RP0
0212  0506  	ANDWF gbl_trisb, W
0213  0086  	MOVWF gbl_trisb
0214  30F7  	MOVLW 0xF7
0215  1283  	BCF STATUS, RP0
0216  0506  	ANDWF gbl_portb, W
0217  0086  	MOVWF gbl_portb
0218  30EF  	MOVLW 0xEF
0219  1683  	BSF STATUS, RP0
021A  0506  	ANDWF gbl_trisb, W
021B  0086  	MOVWF gbl_trisb
021C  30EF  	MOVLW 0xEF
021D  1283  	BCF STATUS, RP0
021E  0506  	ANDWF gbl_portb, W
021F  0086  	MOVWF gbl_portb
0220  30DF  	MOVLW 0xDF
0221  1683  	BSF STATUS, RP0
0222  0506  	ANDWF gbl_trisb, W
0223  0086  	MOVWF gbl_trisb
0224  30DF  	MOVLW 0xDF
0225  1283  	BCF STATUS, RP0
0226  0506  	ANDWF gbl_portb, W
0227  0086  	MOVWF gbl_portb
0228  0008  	RETURN
0229        ; } FCM_scan1 function end

	ORG 0x00000229
0229        FCM_ikotle_00051
0229        ; { FCM_ikotled ; function begin
0229  1683  	BSF STATUS, RP0
022A  1303  	BCF STATUS, RP1
022B  0185  	CLRF gbl_trisa
022C  1283  	BCF STATUS, RP0
022D  0185  	CLRF gbl_porta
022E  3001  	MOVLW 0x01
022F  00CB  	MOVWF gbl_FCV_D_BYTE
0230  30C8  	MOVLW 0xC8
0231  00DB  	MOVWF delay_ms_00000_arg_del
0232  201A  	CALL delay_ms_00000
0233  01D9  	CLRF gbl_FCLV_LOOP2
0234        label26
0234  3008  	MOVLW 0x08
0235  0259  	SUBWF gbl_FCLV_LOOP2, W
0236  1803  	BTFSC STATUS,C
0237  0008  	RETURN
0238  1683  	BSF STATUS, RP0
0239  0185  	CLRF gbl_trisa
023A  1283  	BCF STATUS, RP0
023B  084B  	MOVF gbl_FCV_D_BYTE, W
023C  0085  	MOVWF gbl_porta
023D  08CB  	MOVF gbl_FCV_D_BYTE, F
023E  1003  	BCF STATUS,C
023F  0DCB  	RLF gbl_FCV_D_BYTE, F
0240  30C8  	MOVLW 0xC8
0241  00DB  	MOVWF delay_ms_00000_arg_del
0242  201A  	CALL delay_ms_00000
0243  0AD9  	INCF gbl_FCLV_LOOP2, F
0244  2A34  	GOTO	label26
0245        ; } FCM_ikotled function end

	ORG 0x00000245
0245        FCD_I2C_Ma_0005A
0245        ; { FCD_I2C_Master0_MI2C_Stop ; function begin
0245  20BE  	CALL FC_CAL_I2C_00060
0246  0008  	RETURN
0247        ; } FCD_I2C_Master0_MI2C_Stop function end

	ORG 0x00000247
0247        FCD_I2C_Ma_00059
0247        ; { FCD_I2C_Master0_MI2C_Receive_Byte ; function begin
0247  085A  	MOVF FCD_I2C_Ma_00059_arg_Last, W
0248  00DB  	MOVWF FC_CAL_I2C_00062_arg_Last
0249  2035  	CALL FC_CAL_I2C_00062
024A  085E  	MOVF CompTempVarRet2228, W
024B  00DB  	MOVWF CompTempVarRet2201
024C  0008  	RETURN
024D        ; } FCD_I2C_Master0_MI2C_Receive_Byte function end

	ORG 0x0000024D
024D        FCD_I2C_Ma_00058
024D        ; { FCD_I2C_Master0_MI2C_Restart ; function begin
024D  20D7  	CALL FC_CAL_I2C_0005F
024E  0008  	RETURN
024F        ; } FCD_I2C_Master0_MI2C_Restart function end

	ORG 0x0000024F
024F        FCD_I2C_Ma_00057
024F        ; { FCD_I2C_Master0_MI2C_Transmit_Byte ; function begin
024F  085A  	MOVF FCD_I2C_Ma_00057_arg_Data, W
0250  00DB  	MOVWF FC_CAL_I2C_00061_arg_Data
0251  2078  	CALL FC_CAL_I2C_00061
0252  085E  	MOVF CompTempVarRet2226, W
0253  00DB  	MOVWF CompTempVarRet2200
0254  0008  	RETURN
0255        ; } FCD_I2C_Master0_MI2C_Transmit_Byte function end

	ORG 0x00000255
0255        FCD_I2C_Ma_00056
0255        ; { FCD_I2C_Master0_MI2C_Start ; function begin
0255  20F3  	CALL FC_CAL_I2C_0005E
0256  0008  	RETURN
0257        ; } FCD_I2C_Master0_MI2C_Start function end

	ORG 0x00000257
0257        __rem_8_8_00000
0257        ; { __rem_8_8 ; function begin
0257  01E0  	CLRF CompTempVarRet220
0258  01DE  	CLRF __rem_8_8_00000_1_c
0259  01DF  	CLRF __rem_8_8_00000_1_i
025A        label27
025A  19DF  	BTFSC __rem_8_8_00000_1_i,3
025B  0008  	RETURN
025C  1003  	BCF STATUS,C
025D  0DDE  	RLF __rem_8_8_00000_1_c, F
025E  0DDC  	RLF __rem_8_8_00000_arg_a, F
025F  0DE0  	RLF CompTempVarRet220, F
0260  085D  	MOVF __rem_8_8_00000_arg_b, W
0261  0260  	SUBWF CompTempVarRet220, W
0262  1C03  	BTFSS STATUS,C
0263  2A66  	GOTO	label28
0264  00E0  	MOVWF CompTempVarRet220
0265  145E  	BSF __rem_8_8_00000_1_c,0
0266        label28
0266  0ADF  	INCF __rem_8_8_00000_1_i, F
0267  2A5A  	GOTO	label27
0268        ; } __rem_8_8 function end

	ORG 0x00000268
0268        __div_8_8_00000
0268        ; { __div_8_8 ; function begin
0268  01DE  	CLRF __div_8_8_00000_1_r
0269  01E0  	CLRF CompTempVarRet218
026A  01DF  	CLRF __div_8_8_00000_1_i
026B        label29
026B  19DF  	BTFSC __div_8_8_00000_1_i,3
026C  0008  	RETURN
026D  1003  	BCF STATUS,C
026E  0DE0  	RLF CompTempVarRet218, F
026F  0DDA  	RLF __div_8_8_00000_arg_a, F
0270  0DDE  	RLF __div_8_8_00000_1_r, F
0271  085B  	MOVF __div_8_8_00000_arg_b, W
0272  025E  	SUBWF __div_8_8_00000_1_r, W
0273  1C03  	BTFSS STATUS,C
0274  2A77  	GOTO	label30
0275  00DE  	MOVWF __div_8_8_00000_1_r
0276  1460  	BSF CompTempVarRet218,0
0277        label30
0277  0ADF  	INCF __div_8_8_00000_1_i, F
0278  2A6B  	GOTO	label29
0279        ; } __div_8_8 function end

	ORG 0x00000279
0279        FCM_intro_00000
0279        ; { FCM_intro ; function begin
0279  2204  	CALL FCM_scan1_00000
027A  2229  	CALL FCM_ikotle_00051
027B  21DF  	CALL FCM_scan2_00000
027C  2229  	CALL FCM_ikotle_00051
027D  21BA  	CALL FCM_scan3_00000
027E  2229  	CALL FCM_ikotle_00051
027F  2195  	CALL FCM_scan4_00000
0280  1683  	BSF STATUS, RP0
0281  0185  	CLRF gbl_trisa
0282  3043  	MOVLW 0x43
0283  1283  	BCF STATUS, RP0
0284  0085  	MOVWF gbl_porta
0285  3001  	MOVLW 0x01
0286  00DA  	MOVWF delay_s_00000_arg_del
0287  2026  	CALL delay_s_00000
0288  30FF  	MOVLW 0xFF
0289  00DB  	MOVWF delay_ms_00000_arg_del
028A  201A  	CALL delay_ms_00000
028B  30F5  	MOVLW 0xF5
028C  00DB  	MOVWF delay_ms_00000_arg_del
028D  201A  	CALL delay_ms_00000
028E  0008  	RETURN
028F        ; } FCM_intro function end

	ORG 0x0000028F
028F        FCM_i2c_co_00055
028F        ; { FCM_i2c_comm ; function begin
028F  2255  	CALL FCD_I2C_Ma_00056
0290  01D3  	CLRF gbl_FCV_RT_BYTE
0291  30B4  	MOVLW 0xB4
0292  00DA  	MOVWF FCD_I2C_Ma_00057_arg_Data
0293  224F  	CALL FCD_I2C_Ma_00057
0294  085B  	MOVF CompTempVarRet2200, W
0295  00D3  	MOVWF gbl_FCV_RT_BYTE
0296  01D3  	CLRF gbl_FCV_RT_BYTE
0297  3007  	MOVLW 0x07
0298  00DA  	MOVWF FCD_I2C_Ma_00057_arg_Data
0299  224F  	CALL FCD_I2C_Ma_00057
029A  085B  	MOVF CompTempVarRet2200, W
029B  00D3  	MOVWF gbl_FCV_RT_BYTE
029C  224D  	CALL FCD_I2C_Ma_00058
029D  01D3  	CLRF gbl_FCV_RT_BYTE
029E  30B4  	MOVLW 0xB4
029F  00DA  	MOVWF FCD_I2C_Ma_00057_arg_Data
02A0  224F  	CALL FCD_I2C_Ma_00057
02A1  085B  	MOVF CompTempVarRet2200, W
02A2  00D3  	MOVWF gbl_FCV_RT_BYTE
02A3  0853  	MOVF gbl_FCV_RT_BYTE, W
02A4  00DA  	MOVWF FCD_I2C_Ma_00059_arg_Last
02A5  2247  	CALL FCD_I2C_Ma_00059
02A6  085B  	MOVF CompTempVarRet2201, W
02A7  00D7  	MOVWF gbl_FCV_I2C_RX
02A8  0857  	MOVF gbl_FCV_I2C_RX, W
02A9  00CD  	MOVWF gbl_FCV_DATA0
02AA  0853  	MOVF gbl_FCV_RT_BYTE, W
02AB  00DA  	MOVWF FCD_I2C_Ma_00059_arg_Last
02AC  2247  	CALL FCD_I2C_Ma_00059
02AD  085B  	MOVF CompTempVarRet2201, W
02AE  00D7  	MOVWF gbl_FCV_I2C_RX
02AF  0857  	MOVF gbl_FCV_I2C_RX, W
02B0  00CE  	MOVWF gbl_FCV_DATA1
02B1  0853  	MOVF gbl_FCV_RT_BYTE, W
02B2  00DA  	MOVWF FCD_I2C_Ma_00059_arg_Last
02B3  2247  	CALL FCD_I2C_Ma_00059
02B4  085B  	MOVF CompTempVarRet2201, W
02B5  00D7  	MOVWF gbl_FCV_I2C_RX
02B6  0857  	MOVF gbl_FCV_I2C_RX, W
02B7  00D0  	MOVWF gbl_FCV_DATA2
02B8  2245  	CALL FCD_I2C_Ma_0005A
02B9  0008  	RETURN
02BA        ; } FCM_i2c_comm function end

	ORG 0x000002BA
02BA        FCM_displa_00052
02BA        ; { FCM_display_temp ; function begin
02BA  1683  	BSF STATUS, RP0
02BB  1303  	BCF STATUS, RP1
02BC  0185  	CLRF gbl_trisa
02BD  1283  	BCF STATUS, RP0
02BE  0185  	CLRF gbl_porta
02BF  2173  	CALL FCM_scan_o_00053
02C0  2204  	CALL FCM_scan1_00000
02C1  084A  	MOVF gbl_FCV_TEMP_TENS, W
02C2  00D6  	MOVWF gbl_FCV_DIGIT
02C3  210F  	CALL FCM_seg_pa_00054
02C4  3005  	MOVLW 0x05
02C5  00DE  	MOVWF delay_us_00000_arg_del
02C6  2010  	CALL delay_us_00000
02C7  1683  	BSF STATUS, RP0
02C8  0185  	CLRF gbl_trisa
02C9  1283  	BCF STATUS, RP0
02CA  0185  	CLRF gbl_porta
02CB  2173  	CALL FCM_scan_o_00053
02CC  21DF  	CALL FCM_scan2_00000
02CD  0852  	MOVF gbl_FCV_TEMP_ONES, W
02CE  00D6  	MOVWF gbl_FCV_DIGIT
02CF  210F  	CALL FCM_seg_pa_00054
02D0  3005  	MOVLW 0x05
02D1  00DE  	MOVWF delay_us_00000_arg_del
02D2  2010  	CALL delay_us_00000
02D3  1683  	BSF STATUS, RP0
02D4  0185  	CLRF gbl_trisa
02D5  1283  	BCF STATUS, RP0
02D6  0185  	CLRF gbl_porta
02D7  2173  	CALL FCM_scan_o_00053
02D8  21BA  	CALL FCM_scan3_00000
02D9  0851  	MOVF gbl_FCV_TEMP_DEC, W
02DA  00D6  	MOVWF gbl_FCV_DIGIT
02DB  210F  	CALL FCM_seg_pa_00054
02DC  3005  	MOVLW 0x05
02DD  00DE  	MOVWF delay_us_00000_arg_del
02DE  2010  	CALL delay_us_00000
02DF  1683  	BSF STATUS, RP0
02E0  0185  	CLRF gbl_trisa
02E1  1283  	BCF STATUS, RP0
02E2  0185  	CLRF gbl_porta
02E3  2173  	CALL FCM_scan_o_00053
02E4  2195  	CALL FCM_scan4_00000
02E5  1683  	BSF STATUS, RP0
02E6  0185  	CLRF gbl_trisa
02E7  3043  	MOVLW 0x43
02E8  1283  	BCF STATUS, RP0
02E9  0085  	MOVWF gbl_porta
02EA  3005  	MOVLW 0x05
02EB  00DE  	MOVWF delay_us_00000_arg_del
02EC  2010  	CALL delay_us_00000
02ED  0008  	RETURN
02EE        ; } FCM_display_temp function end

	ORG 0x000002EE
02EE        FCD_I2C_Ma_00063
02EE        ; { FCD_I2C_Master0_MI2C_Init ; function begin
02EE  210A  	CALL FC_CAL_I2C_0005C
02EF  0008  	RETURN
02F0        ; } FCD_I2C_Master0_MI2C_Init function end

	ORG 0x000002F0
02F0        main
02F0        ; { main ; function begin
02F0  1683  	BSF STATUS, RP0
02F1  1703  	BSF STATUS, RP1
02F2  0188  	CLRF gbl_ansel
02F3  0189  	CLRF gbl_anselh
02F4  30C0  	MOVLW 0xC0
02F5  1303  	BCF STATUS, RP1
02F6  0081  	MOVWF gbl_option_reg
02F7  307B  	MOVLW 0x7B
02F8  1283  	BCF STATUS, RP0
02F9  00CD  	MOVWF gbl_FCV_DATA0
02FA  30FF  	MOVLW 0xFF
02FB  00CE  	MOVWF gbl_FCV_DATA1
02FC  00D0  	MOVWF gbl_FCV_DATA2
02FD  01D4  	CLRF gbl_FCV_LSB
02FE  01D5  	CLRF gbl_FCV_MSB
02FF  3001  	MOVLW 0x01
0300  00CA  	MOVWF gbl_FCV_TEMP_TENS
0301  3002  	MOVLW 0x02
0302  00D2  	MOVWF gbl_FCV_TEMP_ONES
0303  3003  	MOVLW 0x03
0304  00D1  	MOVWF gbl_FCV_TEMP_DEC
0305  2279  	CALL FCM_intro_00000
0306  22EE  	CALL FCD_I2C_Ma_00063
0307        label31
0307  228F  	CALL FCM_i2c_co_00055
0308  084D  	MOVF gbl_FCV_DATA0, W
0309  00DA  	MOVWF __div_8_8_00000_arg_a
030A  3064  	MOVLW 0x64
030B  00DB  	MOVWF __div_8_8_00000_arg_b
030C  2268  	CALL __div_8_8_00000
030D  0860  	MOVF CompTempVarRet218, W
030E  00CA  	MOVWF gbl_FCV_TEMP_TENS
030F  084D  	MOVF gbl_FCV_DATA0, W
0310  00DA  	MOVWF __div_8_8_00000_arg_a
0311  300A  	MOVLW 0x0A
0312  00DB  	MOVWF __div_8_8_00000_arg_b
0313  2268  	CALL __div_8_8_00000
0314  0860  	MOVF CompTempVarRet218, W
0315  00DC  	MOVWF __rem_8_8_00000_arg_a
0316  300A  	MOVLW 0x0A
0317  00DD  	MOVWF __rem_8_8_00000_arg_b
0318  2257  	CALL __rem_8_8_00000
0319  0860  	MOVF CompTempVarRet220, W
031A  00D2  	MOVWF gbl_FCV_TEMP_ONES
031B  084D  	MOVF gbl_FCV_DATA0, W
031C  00DC  	MOVWF __rem_8_8_00000_arg_a
031D  300A  	MOVLW 0x0A
031E  00DD  	MOVWF __rem_8_8_00000_arg_b
031F  2257  	CALL __rem_8_8_00000
0320  0860  	MOVF CompTempVarRet220, W
0321  00D1  	MOVWF gbl_FCV_TEMP_DEC
0322  01D8  	CLRF gbl_FCLV_LOOP1
0323        label32
0323  30C8  	MOVLW 0xC8
0324  0258  	SUBWF gbl_FCLV_LOOP1, W
0325  1803  	BTFSC STATUS,C
0326  2B07  	GOTO	label31
0327  22BA  	CALL FCM_displa_00052
0328  0AD8  	INCF gbl_FCLV_LOOP1, F
0329  2B23  	GOTO	label32
032A        ; } main function end

	ORG 0x0000032A
032A        _startup
032A  30D5  	MOVLW 0xD5
032B  1283  	BCF STATUS, RP0
032C  1303  	BCF STATUS, RP1
032D  00A0  	MOVWF gbl_14_LSR
032E  30C4  	MOVLW 0xC4
032F  00A1  	MOVWF gbl_14_LSR+D'1'
0330  30BB  	MOVLW 0xBB
0331  00A2  	MOVWF gbl_14_LSR+D'2'
0332  30DC  	MOVLW 0xDC
0333  00A3  	MOVWF gbl_14_LSR+D'3'
0334  01A4  	CLRF gbl_15_gbl_aSig
0335  01A5  	CLRF gbl_15_gbl_aSig+D'1'
0336  01A6  	CLRF gbl_15_gbl_aSig+D'2'
0337  01A7  	CLRF gbl_15_gbl_aSig+D'3'
0338  01A8  	CLRF gbl_15_gbl_bSig
0339  01A9  	CLRF gbl_15_gbl_bSig+D'1'
033A  01AA  	CLRF gbl_15_gbl_bSig+D'2'
033B  01AB  	CLRF gbl_15_gbl_bSig+D'3'
033C  01AC  	CLRF gbl_15_gbl_zSig
033D  01AD  	CLRF gbl_15_gbl_zSig+D'1'
033E  01AE  	CLRF gbl_15_gbl_zSig+D'2'
033F  01AF  	CLRF gbl_15_gbl_zSig+D'3'
0340  01C4  	CLRF gbl_15_gbl_aExp
0341  01C5  	CLRF gbl_15_gbl_bExp
0342  01BF  	CLRF gbl_15_gbl_zExp
0343  01C0  	CLRF gbl_15_gbl_zExp+D'1'
0344  01C6  	CLRF gbl_15_gbl_aSign
0345  01C7  	CLRF gbl_15_gbl_bSign
0346  01C8  	CLRF gbl_15_gbl_zSign
0347  01C9  	CLRF gbl_15_gbl_zSigZero
0348  01B0  	CLRF gbl_15_gbl_ret
0349  01B1  	CLRF gbl_15_gbl_ret+D'1'
034A  01B2  	CLRF gbl_15_gbl_ret+D'2'
034B  01B3  	CLRF gbl_15_gbl_ret+D'3'
034C  01C2  	CLRF gbl_float_rounding_mode
034D  01C3  	CLRF gbl_float_exception_flags
034E  01C1  	CLRF gbl_float_detect_tininess
034F  01CA  	CLRF gbl_FCV_TEMP_TENS
0350  30FF  	MOVLW 0xFF
0351  00CB  	MOVWF gbl_FCV_D_BYTE
0352  01CC  	CLRF gbl_FCV_TEMP_CDP
0353  01B4  	CLRF gbl_FCV_RAW
0354  01B5  	CLRF gbl_FCV_RAW+D'1'
0355  01B6  	CLRF gbl_FCV_RAW+D'2'
0356  01B7  	CLRF gbl_FCV_RAW+D'3'
0357  30FF  	MOVLW 0xFF
0358  00CD  	MOVWF gbl_FCV_DATA0
0359  30FF  	MOVLW 0xFF
035A  00CE  	MOVWF gbl_FCV_DATA1
035B  01CF  	CLRF gbl_FCV_DP2
035C  30FF  	MOVLW 0xFF
035D  00D0  	MOVWF gbl_FCV_DATA2
035E  01D1  	CLRF gbl_FCV_TEMP_DEC
035F  01D2  	CLRF gbl_FCV_TEMP_ONES
0360  3001  	MOVLW 0x01
0361  00D3  	MOVWF gbl_FCV_RT_BYTE
0362  01D4  	CLRF gbl_FCV_LSB
0363  01D5  	CLRF gbl_FCV_MSB
0364  01D6  	CLRF gbl_FCV_DIGIT
0365  01B8  	CLRF gbl_FCV_TEMP_C
0366  01B9  	CLRF gbl_FCV_TEMP_C+D'1'
0367  01BA  	CLRF gbl_FCV_TEMP_C+D'2'
0368  01BB  	CLRF gbl_FCV_TEMP_C+D'3'
0369  01D7  	CLRF gbl_FCV_I2C_RX
036A  118A  	BCF PCLATH,3
036B  120A  	BCF PCLATH,4
036C  2AF0  	GOTO	main
	ORG 0x0000036D
036D        interrupt
036D        ; { interrupt ; function begin
036D  1283  	BCF STATUS, RP0
036E  1303  	BCF STATUS, RP1
036F  0E3E  	SWAPF Int1BContext+D'2', W
0370  0084  	MOVWF FSR
0371  0E3D  	SWAPF Int1BContext+D'1', W
0372  008A  	MOVWF PCLATH
0373  0E3C  	SWAPF Int1BContext, W
0374  0083  	MOVWF STATUS
0375  0EFF  	SWAPF Int1Context, F
0376  0E7F  	SWAPF Int1Context, W
0377  0009  	RETFIE
0378        ; } interrupt function end

	ORG 0x00002007
2007  20D4  	DW 0x20D4
2008  3EFF  	DW 0x3EFF
