MPLINK 4.49, Linker
Linker Map File - Created Wed Jul 10 17:01:55 2019

                                 Section Info
                  Section       Type    Address   Location Size(Bytes)
                ---------  ---------  ---------  ---------  ---------
                   .org_0       code   0x000000    program   0x000000
                   .org_1       code   0x000000    program   0x000002
                   .org_2       code   0x000004    program   0x000132
                   .org_3       code   0x000100    program   0x0001f2
                   .org_4       code   0x000200    program   0x0001f4
                   .org_5       code   0x000300    program   0x0001c0
                   .org_6       code   0x000400    program   0x0001e2
                   .org_7       code   0x000500    program   0x0001cc
                   .org_8       code   0x000600    program   0x0001ce
                   .org_9       code   0x000700    program   0x0001da
                  .org_10       code   0x000800    program   0x00012c
                  .org_11       code   0x000900    program   0x0001ac
                  .org_12       code   0x000a00    program   0x0001f4
                  .org_13       code   0x000b00    program   0x0000fc
                  .org_14       code   0x000c00    program   0x000120
                  .org_15       code   0x000d00    program   0x00012c
                  .org_16       code   0x000e00    program   0x00015e
.config_2007_HUB12_RTC6.O       code   0x002007    program   0x000002
                  .org_17       code   0x002100    program   0x000008



                              Program Memory Usage 
                               Start         End      
                           ---------   ---------      
                            0x000000    0x000000      
                            0x000004    0x00009c      
                            0x000100    0x0001f8      
                            0x000200    0x0002f9      
                            0x000300    0x0003df      
                            0x000400    0x0004f0      
                            0x000500    0x0005e5      
                            0x000600    0x0006e6      
                            0x000700    0x0007ec      
                            0x000800    0x000895      
                            0x000900    0x0009d5      
                            0x000a00    0x000af9      
                            0x000b00    0x000b7d      
                            0x000c00    0x000c8f      
                            0x000d00    0x000d95      
                            0x000e00    0x000eae      
                            0x002007    0x002007      
                            0x002100    0x002103      
            3030 out of 4359 program addresses used, program memory utilization is 69%



                              Symbols - Sorted by Name
                     Name    Address   Location    Storage File                     
                ---------  ---------  ---------  --------- ---------                
                  ACKTEST   0x00098e    program     static C:\Users\gerpe\OneDrive\GER-PER 2016\Documents\KennyNeutron\HUB12\20190613_HUB12_RTC\HUB12_RTC6.ASM
                     CHAR   0x0001b0    program     static C:\Users\gerpe\OneDrive\GER-PER 2016\Documents\KennyNeutron\HUB12\20190613_HUB12_RTC\HUB12_RTC6.ASM
                    CHARB   0x000200    program     static C:\Users\gerpe\OneDrive\GER-PER 2016\Documents\KennyNeutron\HUB12\20190613_HUB12_RTC\HUB12_RTC6.ASM
                     CLR0   0x000172    program     static C:\Users\gerpe\OneDrive\GER-PER 2016\Documents\KennyNeutron\HUB12\20190613_HUB12_RTC\HUB12_RTC6.ASM
                    CLRAM   0x00016e    program     static C:\Users\gerpe\OneDrive\GER-PER 2016\Documents\KennyNeutron\HUB12\20190613_HUB12_RTC\HUB12_RTC6.ASM
                 CLR_IRAM   0x000178    program     static C:\Users\gerpe\OneDrive\GER-PER 2016\Documents\KennyNeutron\HUB12\20190613_HUB12_RTC\HUB12_RTC6.ASM
                DATALATCH   0x000120    program     static C:\Users\gerpe\OneDrive\GER-PER 2016\Documents\KennyNeutron\HUB12\20190613_HUB12_RTC\HUB12_RTC6.ASM
                 DELAY_MS   0x00010f    program     static C:\Users\gerpe\OneDrive\GER-PER 2016\Documents\KennyNeutron\HUB12\20190613_HUB12_RTC\HUB12_RTC6.ASM
              DELAY_ONEMS   0x000108    program     static C:\Users\gerpe\OneDrive\GER-PER 2016\Documents\KennyNeutron\HUB12\20190613_HUB12_RTC\HUB12_RTC6.ASM
             DELAY_ONESEC   0x000114    program     static C:\Users\gerpe\OneDrive\GER-PER 2016\Documents\KennyNeutron\HUB12\20190613_HUB12_RTC\HUB12_RTC6.ASM
                DELAY_SEC   0x00011b    program     static C:\Users\gerpe\OneDrive\GER-PER 2016\Documents\KennyNeutron\HUB12\20190613_HUB12_RTC\HUB12_RTC6.ASM
                 DELAY_US   0x000100    program     static C:\Users\gerpe\OneDrive\GER-PER 2016\Documents\KennyNeutron\HUB12\20190613_HUB12_RTC\HUB12_RTC6.ASM
                   DISPAM   0x000b4e    program     static C:\Users\gerpe\OneDrive\GER-PER 2016\Documents\KennyNeutron\HUB12\20190613_HUB12_RTC\HUB12_RTC6.ASM
                  DISPLAY   0x000133    program     static C:\Users\gerpe\OneDrive\GER-PER 2016\Documents\KennyNeutron\HUB12\20190613_HUB12_RTC\HUB12_RTC6.ASM
                   DISPPM   0x000b66    program     static C:\Users\gerpe\OneDrive\GER-PER 2016\Documents\KennyNeutron\HUB12\20190613_HUB12_RTC\HUB12_RTC6.ASM
                    DMPF0   0x0004ba    program     static C:\Users\gerpe\OneDrive\GER-PER 2016\Documents\KennyNeutron\HUB12\20190613_HUB12_RTC\HUB12_RTC6.ASM
                    DMPF1   0x000c0e    program     static C:\Users\gerpe\OneDrive\GER-PER 2016\Documents\KennyNeutron\HUB12\20190613_HUB12_RTC\HUB12_RTC6.ASM
                    DMPF2   0x0004cc    program     static C:\Users\gerpe\OneDrive\GER-PER 2016\Documents\KennyNeutron\HUB12\20190613_HUB12_RTC\HUB12_RTC6.ASM
                DMP_FONT0   0x0004b8    program     static C:\Users\gerpe\OneDrive\GER-PER 2016\Documents\KennyNeutron\HUB12\20190613_HUB12_RTC\HUB12_RTC6.ASM
                DMP_FONT1   0x000c0c    program     static C:\Users\gerpe\OneDrive\GER-PER 2016\Documents\KennyNeutron\HUB12\20190613_HUB12_RTC\HUB12_RTC6.ASM
                DMP_FONT2   0x0004ca    program     static C:\Users\gerpe\OneDrive\GER-PER 2016\Documents\KennyNeutron\HUB12\20190613_HUB12_RTC\HUB12_RTC6.ASM
         DSHIFT_DOWN_GRPA   0x000a00    program     static C:\Users\gerpe\OneDrive\GER-PER 2016\Documents\KennyNeutron\HUB12\20190613_HUB12_RTC\HUB12_RTC6.ASM
         DSHIFT_DOWN_GRPB   0x000a23    program     static C:\Users\gerpe\OneDrive\GER-PER 2016\Documents\KennyNeutron\HUB12\20190613_HUB12_RTC\HUB12_RTC6.ASM
         DSHIFT_DOWN_GRPC   0x000a46    program     static C:\Users\gerpe\OneDrive\GER-PER 2016\Documents\KennyNeutron\HUB12\20190613_HUB12_RTC\HUB12_RTC6.ASM
         DSHIFT_DOWN_GRPD   0x000a69    program     static C:\Users\gerpe\OneDrive\GER-PER 2016\Documents\KennyNeutron\HUB12\20190613_HUB12_RTC\HUB12_RTC6.ASM
                     DSP0   0x000124    program     static C:\Users\gerpe\OneDrive\GER-PER 2016\Documents\KennyNeutron\HUB12\20190613_HUB12_RTC\HUB12_RTC6.ASM
                     DUMP   0x000499    program     static C:\Users\gerpe\OneDrive\GER-PER 2016\Documents\KennyNeutron\HUB12\20190613_HUB12_RTC\HUB12_RTC6.ASM
                    EIGHT   0x00026b    program     static C:\Users\gerpe\OneDrive\GER-PER 2016\Documents\KennyNeutron\HUB12\20190613_HUB12_RTC\HUB12_RTC6.ASM
                     FIVE   0x000232    program     static C:\Users\gerpe\OneDrive\GER-PER 2016\Documents\KennyNeutron\HUB12\20190613_HUB12_RTC\HUB12_RTC6.ASM
             FONT1DISPLAY   0x000c00    program     static C:\Users\gerpe\OneDrive\GER-PER 2016\Documents\KennyNeutron\HUB12\20190613_HUB12_RTC\HUB12_RTC6.ASM
                   FONT_0   0x0004a4    program     static C:\Users\gerpe\OneDrive\GER-PER 2016\Documents\KennyNeutron\HUB12\20190613_HUB12_RTC\HUB12_RTC6.ASM
                   FONT_1   0x0004c4    program     static C:\Users\gerpe\OneDrive\GER-PER 2016\Documents\KennyNeutron\HUB12\20190613_HUB12_RTC\HUB12_RTC6.ASM
                   FONT_2   0x0004dd    program     static C:\Users\gerpe\OneDrive\GER-PER 2016\Documents\KennyNeutron\HUB12\20190613_HUB12_RTC\HUB12_RTC6.ASM
                     FOUR   0x00021f    program     static C:\Users\gerpe\OneDrive\GER-PER 2016\Documents\KennyNeutron\HUB12\20190613_HUB12_RTC\HUB12_RTC6.ASM
                 GETDATA0   0x0002c4    program     static C:\Users\gerpe\OneDrive\GER-PER 2016\Documents\KennyNeutron\HUB12\20190613_HUB12_RTC\HUB12_RTC6.ASM
                 GETDATA1   0x0002cd    program     static C:\Users\gerpe\OneDrive\GER-PER 2016\Documents\KennyNeutron\HUB12\20190613_HUB12_RTC\HUB12_RTC6.ASM
                 GETDATA2   0x0002e7    program     static C:\Users\gerpe\OneDrive\GER-PER 2016\Documents\KennyNeutron\HUB12\20190613_HUB12_RTC\HUB12_RTC6.ASM
                    GRP_A   0x00061c    program     static C:\Users\gerpe\OneDrive\GER-PER 2016\Documents\KennyNeutron\HUB12\20190613_HUB12_RTC\HUB12_RTC6.ASM
                    GRP_B   0x000670    program     static C:\Users\gerpe\OneDrive\GER-PER 2016\Documents\KennyNeutron\HUB12\20190613_HUB12_RTC\HUB12_RTC6.ASM
                    GRP_C   0x0006b2    program     static C:\Users\gerpe\OneDrive\GER-PER 2016\Documents\KennyNeutron\HUB12\20190613_HUB12_RTC\HUB12_RTC6.ASM
                    GRP_D   0x0006e4    program     static C:\Users\gerpe\OneDrive\GER-PER 2016\Documents\KennyNeutron\HUB12\20190613_HUB12_RTC\HUB12_RTC6.ASM
               H1SHOWDAT0   0x000061    program     static C:\Users\gerpe\OneDrive\GER-PER 2016\Documents\KennyNeutron\HUB12\20190613_HUB12_RTC\HUB12_RTC6.ASM
               H1SHOWTIM0   0x000067    program     static C:\Users\gerpe\OneDrive\GER-PER 2016\Documents\KennyNeutron\HUB12\20190613_HUB12_RTC\HUB12_RTC6.ASM
               H1SHOWTIM1   0x000070    program     static C:\Users\gerpe\OneDrive\GER-PER 2016\Documents\KennyNeutron\HUB12\20190613_HUB12_RTC\HUB12_RTC6.ASM
               H2SHOWDAT0   0x000080    program     static C:\Users\gerpe\OneDrive\GER-PER 2016\Documents\KennyNeutron\HUB12\20190613_HUB12_RTC\HUB12_RTC6.ASM
               H2SHOWDAT1   0x000089    program     static C:\Users\gerpe\OneDrive\GER-PER 2016\Documents\KennyNeutron\HUB12\20190613_HUB12_RTC\HUB12_RTC6.ASM
               H2SHOWTIM0   0x00008f    program     static C:\Users\gerpe\OneDrive\GER-PER 2016\Documents\KennyNeutron\HUB12\20190613_HUB12_RTC\HUB12_RTC6.ASM
                    HRIS1   0x0002cb    program     static C:\Users\gerpe\OneDrive\GER-PER 2016\Documents\KennyNeutron\HUB12\20190613_HUB12_RTC\HUB12_RTC6.ASM
                   HRISPM   0x0002c2    program     static C:\Users\gerpe\OneDrive\GER-PER 2016\Documents\KennyNeutron\HUB12\20190613_HUB12_RTC\HUB12_RTC6.ASM
                     HUB1   0x000057    program     static C:\Users\gerpe\OneDrive\GER-PER 2016\Documents\KennyNeutron\HUB12\20190613_HUB12_RTC\HUB12_RTC6.ASM
             HUB1SHOWTEMP   0x000e76    program     static C:\Users\gerpe\OneDrive\GER-PER 2016\Documents\KennyNeutron\HUB12\20190613_HUB12_RTC\HUB12_RTC6.ASM
             HUB1SHOWTIME   0x000e00    program     static C:\Users\gerpe\OneDrive\GER-PER 2016\Documents\KennyNeutron\HUB12\20190613_HUB12_RTC\HUB12_RTC6.ASM
             HUB1SHOWYEAR   0x000e3d    program     static C:\Users\gerpe\OneDrive\GER-PER 2016\Documents\KennyNeutron\HUB12\20190613_HUB12_RTC\HUB12_RTC6.ASM
                     HUB2   0x000076    program     static C:\Users\gerpe\OneDrive\GER-PER 2016\Documents\KennyNeutron\HUB12\20190613_HUB12_RTC\HUB12_RTC6.ASM
             HUB2SHOWDATE   0x000d59    program     static C:\Users\gerpe\OneDrive\GER-PER 2016\Documents\KennyNeutron\HUB12\20190613_HUB12_RTC\HUB12_RTC6.ASM
             HUB2SHOWTIME   0x000d00    program     static C:\Users\gerpe\OneDrive\GER-PER 2016\Documents\KennyNeutron\HUB12\20190613_HUB12_RTC\HUB12_RTC6.ASM
              I2CDELAY_US   0x0009ce    program     static C:\Users\gerpe\OneDrive\GER-PER 2016\Documents\KennyNeutron\HUB12\20190613_HUB12_RTC\HUB12_RTC6.ASM
                  I2CMOSI   0x000961    program     static C:\Users\gerpe\OneDrive\GER-PER 2016\Documents\KennyNeutron\HUB12\20190613_HUB12_RTC\HUB12_RTC6.ASM
                 I2CMOSI0   0x000961    program     static C:\Users\gerpe\OneDrive\GER-PER 2016\Documents\KennyNeutron\HUB12\20190613_HUB12_RTC\HUB12_RTC6.ASM
                 I2CMOSI1   0x000966    program     static C:\Users\gerpe\OneDrive\GER-PER 2016\Documents\KennyNeutron\HUB12\20190613_HUB12_RTC\HUB12_RTC6.ASM
                 I2CMOSI2   0x00096c    program     static C:\Users\gerpe\OneDrive\GER-PER 2016\Documents\KennyNeutron\HUB12\20190613_HUB12_RTC\HUB12_RTC6.ASM
            I2CMOSI_DBIT0   0x000969    program     static C:\Users\gerpe\OneDrive\GER-PER 2016\Documents\KennyNeutron\HUB12\20190613_HUB12_RTC\HUB12_RTC6.ASM
            I2CMOSI_DBIT1   0x00096b    program     static C:\Users\gerpe\OneDrive\GER-PER 2016\Documents\KennyNeutron\HUB12\20190613_HUB12_RTC\HUB12_RTC6.ASM
                   I2CRD0   0x000926    program     static C:\Users\gerpe\OneDrive\GER-PER 2016\Documents\KennyNeutron\HUB12\20190613_HUB12_RTC\HUB12_RTC6.ASM
                   I2CRD1   0x00092b    program     static C:\Users\gerpe\OneDrive\GER-PER 2016\Documents\KennyNeutron\HUB12\20190613_HUB12_RTC\HUB12_RTC6.ASM
                   I2CRD2   0x000931    program     static C:\Users\gerpe\OneDrive\GER-PER 2016\Documents\KennyNeutron\HUB12\20190613_HUB12_RTC\HUB12_RTC6.ASM
            I2CRD_MASTERA   0x00093f    program     static C:\Users\gerpe\OneDrive\GER-PER 2016\Documents\KennyNeutron\HUB12\20190613_HUB12_RTC\HUB12_RTC6.ASM
            I2CRD_MASTERN   0x000941    program     static C:\Users\gerpe\OneDrive\GER-PER 2016\Documents\KennyNeutron\HUB12\20190613_HUB12_RTC\HUB12_RTC6.ASM
               I2CRD_SDA0   0x00092e    program     static C:\Users\gerpe\OneDrive\GER-PER 2016\Documents\KennyNeutron\HUB12\20190613_HUB12_RTC\HUB12_RTC6.ASM
               I2CRD_SDA1   0x000930    program     static C:\Users\gerpe\OneDrive\GER-PER 2016\Documents\KennyNeutron\HUB12\20190613_HUB12_RTC\HUB12_RTC6.ASM
                  I2CREAD   0x000900    program     static C:\Users\gerpe\OneDrive\GER-PER 2016\Documents\KennyNeutron\HUB12\20190613_HUB12_RTC\HUB12_RTC6.ASM
                 I2CSTART   0x0009ac    program     static C:\Users\gerpe\OneDrive\GER-PER 2016\Documents\KennyNeutron\HUB12\20190613_HUB12_RTC\HUB12_RTC6.ASM
                  I2CSTOP   0x0009bd    program     static C:\Users\gerpe\OneDrive\GER-PER 2016\Documents\KennyNeutron\HUB12\20190613_HUB12_RTC\HUB12_RTC6.ASM
                I2CUPDATE   0x000168    program     static C:\Users\gerpe\OneDrive\GER-PER 2016\Documents\KennyNeutron\HUB12\20190613_HUB12_RTC\HUB12_RTC6.ASM
                  I2CUSEC   0x0009d1    program     static C:\Users\gerpe\OneDrive\GER-PER 2016\Documents\KennyNeutron\HUB12\20190613_HUB12_RTC\HUB12_RTC6.ASM
                   I2CWR0   0x000955    program     static C:\Users\gerpe\OneDrive\GER-PER 2016\Documents\KennyNeutron\HUB12\20190613_HUB12_RTC\HUB12_RTC6.ASM
                 I2CWRITE   0x000947    program     static C:\Users\gerpe\OneDrive\GER-PER 2016\Documents\KennyNeutron\HUB12\20190613_HUB12_RTC\HUB12_RTC6.ASM
              I2C_DAT2BCD   0x000291    program     static C:\Users\gerpe\OneDrive\GER-PER 2016\Documents\KennyNeutron\HUB12\20190613_HUB12_RTC\HUB12_RTC6.ASM
              I2C_GETDATA   0x0002a4    program     static C:\Users\gerpe\OneDrive\GER-PER 2016\Documents\KennyNeutron\HUB12\20190613_HUB12_RTC\HUB12_RTC6.ASM
            I2C_MASTERACK   0x000993    program     static C:\Users\gerpe\OneDrive\GER-PER 2016\Documents\KennyNeutron\HUB12\20190613_HUB12_RTC\HUB12_RTC6.ASM
           I2C_MASTERNACK   0x00099d    program     static C:\Users\gerpe\OneDrive\GER-PER 2016\Documents\KennyNeutron\HUB12\20190613_HUB12_RTC\HUB12_RTC6.ASM
                I2C_SDAIN   0x000974    program     static C:\Users\gerpe\OneDrive\GER-PER 2016\Documents\KennyNeutron\HUB12\20190613_HUB12_RTC\HUB12_RTC6.ASM
               I2C_SDAOUT   0x00097a    program     static C:\Users\gerpe\OneDrive\GER-PER 2016\Documents\KennyNeutron\HUB12\20190613_HUB12_RTC\HUB12_RTC6.ASM
             I2C_SLAVEACK   0x000987    program     static C:\Users\gerpe\OneDrive\GER-PER 2016\Documents\KennyNeutron\HUB12\20190613_HUB12_RTC\HUB12_RTC6.ASM
                    IDUMP   0x000792    program     static C:\Users\gerpe\OneDrive\GER-PER 2016\Documents\KennyNeutron\HUB12\20190613_HUB12_RTC\HUB12_RTC6.ASM
                  IFONT_0   0x00079b    program     static C:\Users\gerpe\OneDrive\GER-PER 2016\Documents\KennyNeutron\HUB12\20190613_HUB12_RTC\HUB12_RTC6.ASM
                  IFONT_1   0x0007b3    program     static C:\Users\gerpe\OneDrive\GER-PER 2016\Documents\KennyNeutron\HUB12\20190613_HUB12_RTC\HUB12_RTC6.ASM
                  IFONT_2   0x0007cd    program     static C:\Users\gerpe\OneDrive\GER-PER 2016\Documents\KennyNeutron\HUB12\20190613_HUB12_RTC\HUB12_RTC6.ASM
                   IGRP_A   0x00051d    program     static C:\Users\gerpe\OneDrive\GER-PER 2016\Documents\KennyNeutron\HUB12\20190613_HUB12_RTC\HUB12_RTC6.ASM
                   IGRP_B   0x00056f    program     static C:\Users\gerpe\OneDrive\GER-PER 2016\Documents\KennyNeutron\HUB12\20190613_HUB12_RTC\HUB12_RTC6.ASM
                   IGRP_C   0x0005b1    program     static C:\Users\gerpe\OneDrive\GER-PER 2016\Documents\KennyNeutron\HUB12\20190613_HUB12_RTC\HUB12_RTC6.ASM
                   IGRP_D   0x0005e3    program     static C:\Users\gerpe\OneDrive\GER-PER 2016\Documents\KennyNeutron\HUB12\20190613_HUB12_RTC\HUB12_RTC6.ASM
                     INIT   0x000010    program     static C:\Users\gerpe\OneDrive\GER-PER 2016\Documents\KennyNeutron\HUB12\20190613_HUB12_RTC\HUB12_RTC6.ASM
                  IPUTNUM   0x000800    program     static C:\Users\gerpe\OneDrive\GER-PER 2016\Documents\KennyNeutron\HUB12\20190613_HUB12_RTC\HUB12_RTC6.ASM
                     IRM0   0x00017e    program     static C:\Users\gerpe\OneDrive\GER-PER 2016\Documents\KennyNeutron\HUB12\20190613_HUB12_RTC\HUB12_RTC6.ASM
                    ISB00   0x00085a    program     static C:\Users\gerpe\OneDrive\GER-PER 2016\Documents\KennyNeutron\HUB12\20190613_HUB12_RTC\HUB12_RTC6.ASM
                    ISB01   0x00085c    program     static C:\Users\gerpe\OneDrive\GER-PER 2016\Documents\KennyNeutron\HUB12\20190613_HUB12_RTC\HUB12_RTC6.ASM
                    ISBR0   0x000853    program     static C:\Users\gerpe\OneDrive\GER-PER 2016\Documents\KennyNeutron\HUB12\20190613_HUB12_RTC\HUB12_RTC6.ASM
                    ISBR1   0x000856    program     static C:\Users\gerpe\OneDrive\GER-PER 2016\Documents\KennyNeutron\HUB12\20190613_HUB12_RTC\HUB12_RTC6.ASM
                ISB_BEGIN   0x000858    program     static C:\Users\gerpe\OneDrive\GER-PER 2016\Documents\KennyNeutron\HUB12\20190613_HUB12_RTC\HUB12_RTC6.ASM
                    ISC00   0x000871    program     static C:\Users\gerpe\OneDrive\GER-PER 2016\Documents\KennyNeutron\HUB12\20190613_HUB12_RTC\HUB12_RTC6.ASM
                    ISC01   0x000873    program     static C:\Users\gerpe\OneDrive\GER-PER 2016\Documents\KennyNeutron\HUB12\20190613_HUB12_RTC\HUB12_RTC6.ASM
                    ISCR0   0x00086a    program     static C:\Users\gerpe\OneDrive\GER-PER 2016\Documents\KennyNeutron\HUB12\20190613_HUB12_RTC\HUB12_RTC6.ASM
                    ISCR1   0x00086d    program     static C:\Users\gerpe\OneDrive\GER-PER 2016\Documents\KennyNeutron\HUB12\20190613_HUB12_RTC\HUB12_RTC6.ASM
                ISC_BEGIN   0x00086f    program     static C:\Users\gerpe\OneDrive\GER-PER 2016\Documents\KennyNeutron\HUB12\20190613_HUB12_RTC\HUB12_RTC6.ASM
                    ISD00   0x000888    program     static C:\Users\gerpe\OneDrive\GER-PER 2016\Documents\KennyNeutron\HUB12\20190613_HUB12_RTC\HUB12_RTC6.ASM
                    ISD01   0x00088a    program     static C:\Users\gerpe\OneDrive\GER-PER 2016\Documents\KennyNeutron\HUB12\20190613_HUB12_RTC\HUB12_RTC6.ASM
                    ISDR0   0x000881    program     static C:\Users\gerpe\OneDrive\GER-PER 2016\Documents\KennyNeutron\HUB12\20190613_HUB12_RTC\HUB12_RTC6.ASM
                    ISDR1   0x000884    program     static C:\Users\gerpe\OneDrive\GER-PER 2016\Documents\KennyNeutron\HUB12\20190613_HUB12_RTC\HUB12_RTC6.ASM
                ISD_BEGIN   0x000886    program     static C:\Users\gerpe\OneDrive\GER-PER 2016\Documents\KennyNeutron\HUB12\20190613_HUB12_RTC\HUB12_RTC6.ASM
                   ISHFTL   0x00083f    program     static C:\Users\gerpe\OneDrive\GER-PER 2016\Documents\KennyNeutron\HUB12\20190613_HUB12_RTC\HUB12_RTC6.ASM
                 ISHFTL00   0x000845    program     static C:\Users\gerpe\OneDrive\GER-PER 2016\Documents\KennyNeutron\HUB12\20190613_HUB12_RTC\HUB12_RTC6.ASM
                  ISHIFTL   0x00083f    program     static C:\Users\gerpe\OneDrive\GER-PER 2016\Documents\KennyNeutron\HUB12\20190613_HUB12_RTC\HUB12_RTC6.ASM
             ISHIFTL_GRPA   0x00084f    program     static C:\Users\gerpe\OneDrive\GER-PER 2016\Documents\KennyNeutron\HUB12\20190613_HUB12_RTC\HUB12_RTC6.ASM
             ISHIFTL_GRPB   0x00084f    program     static C:\Users\gerpe\OneDrive\GER-PER 2016\Documents\KennyNeutron\HUB12\20190613_HUB12_RTC\HUB12_RTC6.ASM
             ISHIFTL_GRPC   0x000866    program     static C:\Users\gerpe\OneDrive\GER-PER 2016\Documents\KennyNeutron\HUB12\20190613_HUB12_RTC\HUB12_RTC6.ASM
             ISHIFTL_GRPD   0x00087d    program     static C:\Users\gerpe\OneDrive\GER-PER 2016\Documents\KennyNeutron\HUB12\20190613_HUB12_RTC\HUB12_RTC6.ASM
                  ISHIFTR   0x000500    program     static C:\Users\gerpe\OneDrive\GER-PER 2016\Documents\KennyNeutron\HUB12\20190613_HUB12_RTC\HUB12_RTC6.ASM
         ISHIFT_DOWN_GRPA   0x000a8c    program     static C:\Users\gerpe\OneDrive\GER-PER 2016\Documents\KennyNeutron\HUB12\20190613_HUB12_RTC\HUB12_RTC6.ASM
         ISHIFT_DOWN_GRPB   0x000ab3    program     static C:\Users\gerpe\OneDrive\GER-PER 2016\Documents\KennyNeutron\HUB12\20190613_HUB12_RTC\HUB12_RTC6.ASM
         ISHIFT_DOWN_GRPC   0x000b00    program     static C:\Users\gerpe\OneDrive\GER-PER 2016\Documents\KennyNeutron\HUB12\20190613_HUB12_RTC\HUB12_RTC6.ASM
         ISHIFT_DOWN_GRPD   0x000b27    program     static C:\Users\gerpe\OneDrive\GER-PER 2016\Documents\KennyNeutron\HUB12\20190613_HUB12_RTC\HUB12_RTC6.ASM
                   ISRA00   0x000525    program     static C:\Users\gerpe\OneDrive\GER-PER 2016\Documents\KennyNeutron\HUB12\20190613_HUB12_RTC\HUB12_RTC6.ASM
                   ISRA08   0x00054c    program     static C:\Users\gerpe\OneDrive\GER-PER 2016\Documents\KennyNeutron\HUB12\20190613_HUB12_RTC\HUB12_RTC6.ASM
                ISRA08_R1   0x00054b    program     static C:\Users\gerpe\OneDrive\GER-PER 2016\Documents\KennyNeutron\HUB12\20190613_HUB12_RTC\HUB12_RTC6.ASM
                   ISRB00   0x000577    program     static C:\Users\gerpe\OneDrive\GER-PER 2016\Documents\KennyNeutron\HUB12\20190613_HUB12_RTC\HUB12_RTC6.ASM
                   ISRB08   0x000596    program     static C:\Users\gerpe\OneDrive\GER-PER 2016\Documents\KennyNeutron\HUB12\20190613_HUB12_RTC\HUB12_RTC6.ASM
                ISRB08_R1   0x000595    program     static C:\Users\gerpe\OneDrive\GER-PER 2016\Documents\KennyNeutron\HUB12\20190613_HUB12_RTC\HUB12_RTC6.ASM
                   ISRC00   0x0005b9    program     static C:\Users\gerpe\OneDrive\GER-PER 2016\Documents\KennyNeutron\HUB12\20190613_HUB12_RTC\HUB12_RTC6.ASM
                   ISRC08   0x0005d0    program     static C:\Users\gerpe\OneDrive\GER-PER 2016\Documents\KennyNeutron\HUB12\20190613_HUB12_RTC\HUB12_RTC6.ASM
                ISRC08_R1   0x0005cf    program     static C:\Users\gerpe\OneDrive\GER-PER 2016\Documents\KennyNeutron\HUB12\20190613_HUB12_RTC\HUB12_RTC6.ASM
                   L_CHAR   0x000c16    program     static C:\Users\gerpe\OneDrive\GER-PER 2016\Documents\KennyNeutron\HUB12\20190613_HUB12_RTC\HUB12_RTC6.ASM
                  L_EIGHT   0x000c7a    program     static C:\Users\gerpe\OneDrive\GER-PER 2016\Documents\KennyNeutron\HUB12\20190613_HUB12_RTC\HUB12_RTC6.ASM
                   L_FIVE   0x000c59    program     static C:\Users\gerpe\OneDrive\GER-PER 2016\Documents\KennyNeutron\HUB12\20190613_HUB12_RTC\HUB12_RTC6.ASM
                   L_FOUR   0x000c4e    program     static C:\Users\gerpe\OneDrive\GER-PER 2016\Documents\KennyNeutron\HUB12\20190613_HUB12_RTC\HUB12_RTC6.ASM
                   L_NINE   0x000c85    program     static C:\Users\gerpe\OneDrive\GER-PER 2016\Documents\KennyNeutron\HUB12\20190613_HUB12_RTC\HUB12_RTC6.ASM
                    L_ONE   0x000c2d    program     static C:\Users\gerpe\OneDrive\GER-PER 2016\Documents\KennyNeutron\HUB12\20190613_HUB12_RTC\HUB12_RTC6.ASM
                  L_SEVEN   0x000c6f    program     static C:\Users\gerpe\OneDrive\GER-PER 2016\Documents\KennyNeutron\HUB12\20190613_HUB12_RTC\HUB12_RTC6.ASM
                    L_SIX   0x000c64    program     static C:\Users\gerpe\OneDrive\GER-PER 2016\Documents\KennyNeutron\HUB12\20190613_HUB12_RTC\HUB12_RTC6.ASM
                  L_THREE   0x000c43    program     static C:\Users\gerpe\OneDrive\GER-PER 2016\Documents\KennyNeutron\HUB12\20190613_HUB12_RTC\HUB12_RTC6.ASM
                    L_TWO   0x000c38    program     static C:\Users\gerpe\OneDrive\GER-PER 2016\Documents\KennyNeutron\HUB12\20190613_HUB12_RTC\HUB12_RTC6.ASM
                   L_ZERO   0x000c22    program     static C:\Users\gerpe\OneDrive\GER-PER 2016\Documents\KennyNeutron\HUB12\20190613_HUB12_RTC\HUB12_RTC6.ASM
                     MAIN   0x00003a    program     static C:\Users\gerpe\OneDrive\GER-PER 2016\Documents\KennyNeutron\HUB12\20190613_HUB12_RTC\HUB12_RTC6.ASM
                   MONTH0   0x0002e5    program     static C:\Users\gerpe\OneDrive\GER-PER 2016\Documents\KennyNeutron\HUB12\20190613_HUB12_RTC\HUB12_RTC6.ASM
                   MONTH1   0x0002e2    program     static C:\Users\gerpe\OneDrive\GER-PER 2016\Documents\KennyNeutron\HUB12\20190613_HUB12_RTC\HUB12_RTC6.ASM
                     MSEC   0x00010a    program     static C:\Users\gerpe\OneDrive\GER-PER 2016\Documents\KennyNeutron\HUB12\20190613_HUB12_RTC\HUB12_RTC6.ASM
                    MSEC0   0x000110    program     static C:\Users\gerpe\OneDrive\GER-PER 2016\Documents\KennyNeutron\HUB12\20190613_HUB12_RTC\HUB12_RTC6.ASM
                     NINE   0x00027e    program     static C:\Users\gerpe\OneDrive\GER-PER 2016\Documents\KennyNeutron\HUB12\20190613_HUB12_RTC\HUB12_RTC6.ASM
                      ONE   0x0001d3    program     static C:\Users\gerpe\OneDrive\GER-PER 2016\Documents\KennyNeutron\HUB12\20190613_HUB12_RTC\HUB12_RTC6.ASM
                   PUTNUM   0x0007b8    program     static C:\Users\gerpe\OneDrive\GER-PER 2016\Documents\KennyNeutron\HUB12\20190613_HUB12_RTC\HUB12_RTC6.ASM
                     SB00   0x00071d    program     static C:\Users\gerpe\OneDrive\GER-PER 2016\Documents\KennyNeutron\HUB12\20190613_HUB12_RTC\HUB12_RTC6.ASM
                     SB01   0x00071f    program     static C:\Users\gerpe\OneDrive\GER-PER 2016\Documents\KennyNeutron\HUB12\20190613_HUB12_RTC\HUB12_RTC6.ASM
                     SBR0   0x000716    program     static C:\Users\gerpe\OneDrive\GER-PER 2016\Documents\KennyNeutron\HUB12\20190613_HUB12_RTC\HUB12_RTC6.ASM
                     SBR1   0x000719    program     static C:\Users\gerpe\OneDrive\GER-PER 2016\Documents\KennyNeutron\HUB12\20190613_HUB12_RTC\HUB12_RTC6.ASM
                 SB_BEGIN   0x00071b    program     static C:\Users\gerpe\OneDrive\GER-PER 2016\Documents\KennyNeutron\HUB12\20190613_HUB12_RTC\HUB12_RTC6.ASM
                     SC00   0x000736    program     static C:\Users\gerpe\OneDrive\GER-PER 2016\Documents\KennyNeutron\HUB12\20190613_HUB12_RTC\HUB12_RTC6.ASM
                     SC01   0x000738    program     static C:\Users\gerpe\OneDrive\GER-PER 2016\Documents\KennyNeutron\HUB12\20190613_HUB12_RTC\HUB12_RTC6.ASM
                SCL_PULSE   0x000980    program     static C:\Users\gerpe\OneDrive\GER-PER 2016\Documents\KennyNeutron\HUB12\20190613_HUB12_RTC\HUB12_RTC6.ASM
                     SCR0   0x00072f    program     static C:\Users\gerpe\OneDrive\GER-PER 2016\Documents\KennyNeutron\HUB12\20190613_HUB12_RTC\HUB12_RTC6.ASM
                     SCR1   0x000732    program     static C:\Users\gerpe\OneDrive\GER-PER 2016\Documents\KennyNeutron\HUB12\20190613_HUB12_RTC\HUB12_RTC6.ASM
                   SCRL_A   0x000ada    program     static C:\Users\gerpe\OneDrive\GER-PER 2016\Documents\KennyNeutron\HUB12\20190613_HUB12_RTC\HUB12_RTC6.ASM
                   SCRL_B   0x000ae1    program     static C:\Users\gerpe\OneDrive\GER-PER 2016\Documents\KennyNeutron\HUB12\20190613_HUB12_RTC\HUB12_RTC6.ASM
                   SCRL_C   0x000ae8    program     static C:\Users\gerpe\OneDrive\GER-PER 2016\Documents\KennyNeutron\HUB12\20190613_HUB12_RTC\HUB12_RTC6.ASM
                   SCRL_D   0x000af1    program     static C:\Users\gerpe\OneDrive\GER-PER 2016\Documents\KennyNeutron\HUB12\20190613_HUB12_RTC\HUB12_RTC6.ASM
                 SC_BEGIN   0x000734    program     static C:\Users\gerpe\OneDrive\GER-PER 2016\Documents\KennyNeutron\HUB12\20190613_HUB12_RTC\HUB12_RTC6.ASM
                     SD00   0x00074f    program     static C:\Users\gerpe\OneDrive\GER-PER 2016\Documents\KennyNeutron\HUB12\20190613_HUB12_RTC\HUB12_RTC6.ASM
                     SD01   0x000751    program     static C:\Users\gerpe\OneDrive\GER-PER 2016\Documents\KennyNeutron\HUB12\20190613_HUB12_RTC\HUB12_RTC6.ASM
                     SDR0   0x000748    program     static C:\Users\gerpe\OneDrive\GER-PER 2016\Documents\KennyNeutron\HUB12\20190613_HUB12_RTC\HUB12_RTC6.ASM
                     SDR1   0x00074b    program     static C:\Users\gerpe\OneDrive\GER-PER 2016\Documents\KennyNeutron\HUB12\20190613_HUB12_RTC\HUB12_RTC6.ASM
                 SD_BEGIN   0x00074d    program     static C:\Users\gerpe\OneDrive\GER-PER 2016\Documents\KennyNeutron\HUB12\20190613_HUB12_RTC\HUB12_RTC6.ASM
                     SEC0   0x000116    program     static C:\Users\gerpe\OneDrive\GER-PER 2016\Documents\KennyNeutron\HUB12\20190613_HUB12_RTC\HUB12_RTC6.ASM
                     SEC1   0x00011c    program     static C:\Users\gerpe\OneDrive\GER-PER 2016\Documents\KennyNeutron\HUB12\20190613_HUB12_RTC\HUB12_RTC6.ASM
                  SETTIME   0x000041    program     static C:\Users\gerpe\OneDrive\GER-PER 2016\Documents\KennyNeutron\HUB12\20190613_HUB12_RTC\HUB12_RTC6.ASM
                    SEVEN   0x000258    program     static C:\Users\gerpe\OneDrive\GER-PER 2016\Documents\KennyNeutron\HUB12\20190613_HUB12_RTC\HUB12_RTC6.ASM
                    SHFTL   0x000700    program     static C:\Users\gerpe\OneDrive\GER-PER 2016\Documents\KennyNeutron\HUB12\20190613_HUB12_RTC\HUB12_RTC6.ASM
                  SHFTL00   0x000706    program     static C:\Users\gerpe\OneDrive\GER-PER 2016\Documents\KennyNeutron\HUB12\20190613_HUB12_RTC\HUB12_RTC6.ASM
              SHIFTL_GRPA   0x000710    program     static C:\Users\gerpe\OneDrive\GER-PER 2016\Documents\KennyNeutron\HUB12\20190613_HUB12_RTC\HUB12_RTC6.ASM
              SHIFTL_GRPB   0x000710    program     static C:\Users\gerpe\OneDrive\GER-PER 2016\Documents\KennyNeutron\HUB12\20190613_HUB12_RTC\HUB12_RTC6.ASM
              SHIFTL_GRPC   0x000729    program     static C:\Users\gerpe\OneDrive\GER-PER 2016\Documents\KennyNeutron\HUB12\20190613_HUB12_RTC\HUB12_RTC6.ASM
              SHIFTL_GRPD   0x000742    program     static C:\Users\gerpe\OneDrive\GER-PER 2016\Documents\KennyNeutron\HUB12\20190613_HUB12_RTC\HUB12_RTC6.ASM
                   SHIFTR   0x000600    program     static C:\Users\gerpe\OneDrive\GER-PER 2016\Documents\KennyNeutron\HUB12\20190613_HUB12_RTC\HUB12_RTC6.ASM
                 SHIFT_YU   0x00075b    program     static C:\Users\gerpe\OneDrive\GER-PER 2016\Documents\KennyNeutron\HUB12\20190613_HUB12_RTC\HUB12_RTC6.ASM
                SHIFT_YUB   0x000816    program     static C:\Users\gerpe\OneDrive\GER-PER 2016\Documents\KennyNeutron\HUB12\20190613_HUB12_RTC\HUB12_RTC6.ASM
                      SIX   0x000245    program     static C:\Users\gerpe\OneDrive\GER-PER 2016\Documents\KennyNeutron\HUB12\20190613_HUB12_RTC\HUB12_RTC6.ASM
                     SLB0   0x00018a    program     static C:\Users\gerpe\OneDrive\GER-PER 2016\Documents\KennyNeutron\HUB12\20190613_HUB12_RTC\HUB12_RTC6.ASM
                     SLB1   0x00018e    program     static C:\Users\gerpe\OneDrive\GER-PER 2016\Documents\KennyNeutron\HUB12\20190613_HUB12_RTC\HUB12_RTC6.ASM
                     SLB2   0x000196    program     static C:\Users\gerpe\OneDrive\GER-PER 2016\Documents\KennyNeutron\HUB12\20190613_HUB12_RTC\HUB12_RTC6.ASM
                   SLICEB   0x000188    program     static C:\Users\gerpe\OneDrive\GER-PER 2016\Documents\KennyNeutron\HUB12\20190613_HUB12_RTC\HUB12_RTC6.ASM
                   SLICET   0x00019c    program     static C:\Users\gerpe\OneDrive\GER-PER 2016\Documents\KennyNeutron\HUB12\20190613_HUB12_RTC\HUB12_RTC6.ASM
                     SLT0   0x00019e    program     static C:\Users\gerpe\OneDrive\GER-PER 2016\Documents\KennyNeutron\HUB12\20190613_HUB12_RTC\HUB12_RTC6.ASM
                     SLT1   0x0001a2    program     static C:\Users\gerpe\OneDrive\GER-PER 2016\Documents\KennyNeutron\HUB12\20190613_HUB12_RTC\HUB12_RTC6.ASM
                     SLT2   0x0001aa    program     static C:\Users\gerpe\OneDrive\GER-PER 2016\Documents\KennyNeutron\HUB12\20190613_HUB12_RTC\HUB12_RTC6.ASM
                    SRA00   0x000626    program     static C:\Users\gerpe\OneDrive\GER-PER 2016\Documents\KennyNeutron\HUB12\20190613_HUB12_RTC\HUB12_RTC6.ASM
                    SRA08   0x00064d    program     static C:\Users\gerpe\OneDrive\GER-PER 2016\Documents\KennyNeutron\HUB12\20190613_HUB12_RTC\HUB12_RTC6.ASM
                 SRA08_R1   0x00064c    program     static C:\Users\gerpe\OneDrive\GER-PER 2016\Documents\KennyNeutron\HUB12\20190613_HUB12_RTC\HUB12_RTC6.ASM
                    SRB00   0x000678    program     static C:\Users\gerpe\OneDrive\GER-PER 2016\Documents\KennyNeutron\HUB12\20190613_HUB12_RTC\HUB12_RTC6.ASM
                    SRB08   0x000697    program     static C:\Users\gerpe\OneDrive\GER-PER 2016\Documents\KennyNeutron\HUB12\20190613_HUB12_RTC\HUB12_RTC6.ASM
                 SRB08_R1   0x000696    program     static C:\Users\gerpe\OneDrive\GER-PER 2016\Documents\KennyNeutron\HUB12\20190613_HUB12_RTC\HUB12_RTC6.ASM
                    SRC00   0x0006ba    program     static C:\Users\gerpe\OneDrive\GER-PER 2016\Documents\KennyNeutron\HUB12\20190613_HUB12_RTC\HUB12_RTC6.ASM
                    SRC08   0x0006d1    program     static C:\Users\gerpe\OneDrive\GER-PER 2016\Documents\KennyNeutron\HUB12\20190613_HUB12_RTC\HUB12_RTC6.ASM
                 SRC08_R1   0x0006d0    program     static C:\Users\gerpe\OneDrive\GER-PER 2016\Documents\KennyNeutron\HUB12\20190613_HUB12_RTC\HUB12_RTC6.ASM
                    THREE   0x00020c    program     static C:\Users\gerpe\OneDrive\GER-PER 2016\Documents\KennyNeutron\HUB12\20190613_HUB12_RTC\HUB12_RTC6.ASM
                    TIMAM   0x000d53    program     static C:\Users\gerpe\OneDrive\GER-PER 2016\Documents\KennyNeutron\HUB12\20190613_HUB12_RTC\HUB12_RTC6.ASM
                    TIMPM   0x000d4d    program     static C:\Users\gerpe\OneDrive\GER-PER 2016\Documents\KennyNeutron\HUB12\20190613_HUB12_RTC\HUB12_RTC6.ASM
                      TWO   0x0001e6    program     static C:\Users\gerpe\OneDrive\GER-PER 2016\Documents\KennyNeutron\HUB12\20190613_HUB12_RTC\HUB12_RTC6.ASM
                   T_CHAR   0x000300    program     static C:\Users\gerpe\OneDrive\GER-PER 2016\Documents\KennyNeutron\HUB12\20190613_HUB12_RTC\HUB12_RTC6.ASM
                  T_CHARB   0x000400    program     static C:\Users\gerpe\OneDrive\GER-PER 2016\Documents\KennyNeutron\HUB12\20190613_HUB12_RTC\HUB12_RTC6.ASM
                  T_EIGHT   0x000452    program     static C:\Users\gerpe\OneDrive\GER-PER 2016\Documents\KennyNeutron\HUB12\20190613_HUB12_RTC\HUB12_RTC6.ASM
                   T_FIVE   0x0003bd    program     static C:\Users\gerpe\OneDrive\GER-PER 2016\Documents\KennyNeutron\HUB12\20190613_HUB12_RTC\HUB12_RTC6.ASM
                   T_FOUR   0x00039a    program     static C:\Users\gerpe\OneDrive\GER-PER 2016\Documents\KennyNeutron\HUB12\20190613_HUB12_RTC\HUB12_RTC6.ASM
                   T_NINE   0x000475    program     static C:\Users\gerpe\OneDrive\GER-PER 2016\Documents\KennyNeutron\HUB12\20190613_HUB12_RTC\HUB12_RTC6.ASM
                    T_ONE   0x000331    program     static C:\Users\gerpe\OneDrive\GER-PER 2016\Documents\KennyNeutron\HUB12\20190613_HUB12_RTC\HUB12_RTC6.ASM
                  T_SEVEN   0x00042f    program     static C:\Users\gerpe\OneDrive\GER-PER 2016\Documents\KennyNeutron\HUB12\20190613_HUB12_RTC\HUB12_RTC6.ASM
                    T_SIX   0x00040c    program     static C:\Users\gerpe\OneDrive\GER-PER 2016\Documents\KennyNeutron\HUB12\20190613_HUB12_RTC\HUB12_RTC6.ASM
                  T_THREE   0x000377    program     static C:\Users\gerpe\OneDrive\GER-PER 2016\Documents\KennyNeutron\HUB12\20190613_HUB12_RTC\HUB12_RTC6.ASM
                    T_TWO   0x000354    program     static C:\Users\gerpe\OneDrive\GER-PER 2016\Documents\KennyNeutron\HUB12\20190613_HUB12_RTC\HUB12_RTC6.ASM
                   T_ZERO   0x00030e    program     static C:\Users\gerpe\OneDrive\GER-PER 2016\Documents\KennyNeutron\HUB12\20190613_HUB12_RTC\HUB12_RTC6.ASM
                     USEC   0x000101    program     static C:\Users\gerpe\OneDrive\GER-PER 2016\Documents\KennyNeutron\HUB12\20190613_HUB12_RTC\HUB12_RTC6.ASM
                      YU0   0x000762    program     static C:\Users\gerpe\OneDrive\GER-PER 2016\Documents\KennyNeutron\HUB12\20190613_HUB12_RTC\HUB12_RTC6.ASM
                      YU1   0x00081a    program     static C:\Users\gerpe\OneDrive\GER-PER 2016\Documents\KennyNeutron\HUB12\20190613_HUB12_RTC\HUB12_RTC6.ASM
                     ZERO   0x0001be    program     static C:\Users\gerpe\OneDrive\GER-PER 2016\Documents\KennyNeutron\HUB12\20190613_HUB12_RTC\HUB12_RTC6.ASM



                              Symbols - Sorted by Address
                     Name    Address   Location    Storage File                     
                ---------  ---------  ---------  --------- ---------                
                     INIT   0x000010    program     static C:\Users\gerpe\OneDrive\GER-PER 2016\Documents\KennyNeutron\HUB12\20190613_HUB12_RTC\HUB12_RTC6.ASM
                     MAIN   0x00003a    program     static C:\Users\gerpe\OneDrive\GER-PER 2016\Documents\KennyNeutron\HUB12\20190613_HUB12_RTC\HUB12_RTC6.ASM
                  SETTIME   0x000041    program     static C:\Users\gerpe\OneDrive\GER-PER 2016\Documents\KennyNeutron\HUB12\20190613_HUB12_RTC\HUB12_RTC6.ASM
                     HUB1   0x000057    program     static C:\Users\gerpe\OneDrive\GER-PER 2016\Documents\KennyNeutron\HUB12\20190613_HUB12_RTC\HUB12_RTC6.ASM
               H1SHOWDAT0   0x000061    program     static C:\Users\gerpe\OneDrive\GER-PER 2016\Documents\KennyNeutron\HUB12\20190613_HUB12_RTC\HUB12_RTC6.ASM
               H1SHOWTIM0   0x000067    program     static C:\Users\gerpe\OneDrive\GER-PER 2016\Documents\KennyNeutron\HUB12\20190613_HUB12_RTC\HUB12_RTC6.ASM
               H1SHOWTIM1   0x000070    program     static C:\Users\gerpe\OneDrive\GER-PER 2016\Documents\KennyNeutron\HUB12\20190613_HUB12_RTC\HUB12_RTC6.ASM
                     HUB2   0x000076    program     static C:\Users\gerpe\OneDrive\GER-PER 2016\Documents\KennyNeutron\HUB12\20190613_HUB12_RTC\HUB12_RTC6.ASM
               H2SHOWDAT0   0x000080    program     static C:\Users\gerpe\OneDrive\GER-PER 2016\Documents\KennyNeutron\HUB12\20190613_HUB12_RTC\HUB12_RTC6.ASM
               H2SHOWDAT1   0x000089    program     static C:\Users\gerpe\OneDrive\GER-PER 2016\Documents\KennyNeutron\HUB12\20190613_HUB12_RTC\HUB12_RTC6.ASM
               H2SHOWTIM0   0x00008f    program     static C:\Users\gerpe\OneDrive\GER-PER 2016\Documents\KennyNeutron\HUB12\20190613_HUB12_RTC\HUB12_RTC6.ASM
                 DELAY_US   0x000100    program     static C:\Users\gerpe\OneDrive\GER-PER 2016\Documents\KennyNeutron\HUB12\20190613_HUB12_RTC\HUB12_RTC6.ASM
                     USEC   0x000101    program     static C:\Users\gerpe\OneDrive\GER-PER 2016\Documents\KennyNeutron\HUB12\20190613_HUB12_RTC\HUB12_RTC6.ASM
              DELAY_ONEMS   0x000108    program     static C:\Users\gerpe\OneDrive\GER-PER 2016\Documents\KennyNeutron\HUB12\20190613_HUB12_RTC\HUB12_RTC6.ASM
                     MSEC   0x00010a    program     static C:\Users\gerpe\OneDrive\GER-PER 2016\Documents\KennyNeutron\HUB12\20190613_HUB12_RTC\HUB12_RTC6.ASM
                 DELAY_MS   0x00010f    program     static C:\Users\gerpe\OneDrive\GER-PER 2016\Documents\KennyNeutron\HUB12\20190613_HUB12_RTC\HUB12_RTC6.ASM
                    MSEC0   0x000110    program     static C:\Users\gerpe\OneDrive\GER-PER 2016\Documents\KennyNeutron\HUB12\20190613_HUB12_RTC\HUB12_RTC6.ASM
             DELAY_ONESEC   0x000114    program     static C:\Users\gerpe\OneDrive\GER-PER 2016\Documents\KennyNeutron\HUB12\20190613_HUB12_RTC\HUB12_RTC6.ASM
                     SEC0   0x000116    program     static C:\Users\gerpe\OneDrive\GER-PER 2016\Documents\KennyNeutron\HUB12\20190613_HUB12_RTC\HUB12_RTC6.ASM
                DELAY_SEC   0x00011b    program     static C:\Users\gerpe\OneDrive\GER-PER 2016\Documents\KennyNeutron\HUB12\20190613_HUB12_RTC\HUB12_RTC6.ASM
                     SEC1   0x00011c    program     static C:\Users\gerpe\OneDrive\GER-PER 2016\Documents\KennyNeutron\HUB12\20190613_HUB12_RTC\HUB12_RTC6.ASM
                DATALATCH   0x000120    program     static C:\Users\gerpe\OneDrive\GER-PER 2016\Documents\KennyNeutron\HUB12\20190613_HUB12_RTC\HUB12_RTC6.ASM
                     DSP0   0x000124    program     static C:\Users\gerpe\OneDrive\GER-PER 2016\Documents\KennyNeutron\HUB12\20190613_HUB12_RTC\HUB12_RTC6.ASM
                  DISPLAY   0x000133    program     static C:\Users\gerpe\OneDrive\GER-PER 2016\Documents\KennyNeutron\HUB12\20190613_HUB12_RTC\HUB12_RTC6.ASM
                I2CUPDATE   0x000168    program     static C:\Users\gerpe\OneDrive\GER-PER 2016\Documents\KennyNeutron\HUB12\20190613_HUB12_RTC\HUB12_RTC6.ASM
                    CLRAM   0x00016e    program     static C:\Users\gerpe\OneDrive\GER-PER 2016\Documents\KennyNeutron\HUB12\20190613_HUB12_RTC\HUB12_RTC6.ASM
                     CLR0   0x000172    program     static C:\Users\gerpe\OneDrive\GER-PER 2016\Documents\KennyNeutron\HUB12\20190613_HUB12_RTC\HUB12_RTC6.ASM
                 CLR_IRAM   0x000178    program     static C:\Users\gerpe\OneDrive\GER-PER 2016\Documents\KennyNeutron\HUB12\20190613_HUB12_RTC\HUB12_RTC6.ASM
                     IRM0   0x00017e    program     static C:\Users\gerpe\OneDrive\GER-PER 2016\Documents\KennyNeutron\HUB12\20190613_HUB12_RTC\HUB12_RTC6.ASM
                   SLICEB   0x000188    program     static C:\Users\gerpe\OneDrive\GER-PER 2016\Documents\KennyNeutron\HUB12\20190613_HUB12_RTC\HUB12_RTC6.ASM
                     SLB0   0x00018a    program     static C:\Users\gerpe\OneDrive\GER-PER 2016\Documents\KennyNeutron\HUB12\20190613_HUB12_RTC\HUB12_RTC6.ASM
                     SLB1   0x00018e    program     static C:\Users\gerpe\OneDrive\GER-PER 2016\Documents\KennyNeutron\HUB12\20190613_HUB12_RTC\HUB12_RTC6.ASM
                     SLB2   0x000196    program     static C:\Users\gerpe\OneDrive\GER-PER 2016\Documents\KennyNeutron\HUB12\20190613_HUB12_RTC\HUB12_RTC6.ASM
                   SLICET   0x00019c    program     static C:\Users\gerpe\OneDrive\GER-PER 2016\Documents\KennyNeutron\HUB12\20190613_HUB12_RTC\HUB12_RTC6.ASM
                     SLT0   0x00019e    program     static C:\Users\gerpe\OneDrive\GER-PER 2016\Documents\KennyNeutron\HUB12\20190613_HUB12_RTC\HUB12_RTC6.ASM
                     SLT1   0x0001a2    program     static C:\Users\gerpe\OneDrive\GER-PER 2016\Documents\KennyNeutron\HUB12\20190613_HUB12_RTC\HUB12_RTC6.ASM
                     SLT2   0x0001aa    program     static C:\Users\gerpe\OneDrive\GER-PER 2016\Documents\KennyNeutron\HUB12\20190613_HUB12_RTC\HUB12_RTC6.ASM
                     CHAR   0x0001b0    program     static C:\Users\gerpe\OneDrive\GER-PER 2016\Documents\KennyNeutron\HUB12\20190613_HUB12_RTC\HUB12_RTC6.ASM
                     ZERO   0x0001be    program     static C:\Users\gerpe\OneDrive\GER-PER 2016\Documents\KennyNeutron\HUB12\20190613_HUB12_RTC\HUB12_RTC6.ASM
                      ONE   0x0001d3    program     static C:\Users\gerpe\OneDrive\GER-PER 2016\Documents\KennyNeutron\HUB12\20190613_HUB12_RTC\HUB12_RTC6.ASM
                      TWO   0x0001e6    program     static C:\Users\gerpe\OneDrive\GER-PER 2016\Documents\KennyNeutron\HUB12\20190613_HUB12_RTC\HUB12_RTC6.ASM
                    CHARB   0x000200    program     static C:\Users\gerpe\OneDrive\GER-PER 2016\Documents\KennyNeutron\HUB12\20190613_HUB12_RTC\HUB12_RTC6.ASM
                    THREE   0x00020c    program     static C:\Users\gerpe\OneDrive\GER-PER 2016\Documents\KennyNeutron\HUB12\20190613_HUB12_RTC\HUB12_RTC6.ASM
                     FOUR   0x00021f    program     static C:\Users\gerpe\OneDrive\GER-PER 2016\Documents\KennyNeutron\HUB12\20190613_HUB12_RTC\HUB12_RTC6.ASM
                     FIVE   0x000232    program     static C:\Users\gerpe\OneDrive\GER-PER 2016\Documents\KennyNeutron\HUB12\20190613_HUB12_RTC\HUB12_RTC6.ASM
                      SIX   0x000245    program     static C:\Users\gerpe\OneDrive\GER-PER 2016\Documents\KennyNeutron\HUB12\20190613_HUB12_RTC\HUB12_RTC6.ASM
                    SEVEN   0x000258    program     static C:\Users\gerpe\OneDrive\GER-PER 2016\Documents\KennyNeutron\HUB12\20190613_HUB12_RTC\HUB12_RTC6.ASM
                    EIGHT   0x00026b    program     static C:\Users\gerpe\OneDrive\GER-PER 2016\Documents\KennyNeutron\HUB12\20190613_HUB12_RTC\HUB12_RTC6.ASM
                     NINE   0x00027e    program     static C:\Users\gerpe\OneDrive\GER-PER 2016\Documents\KennyNeutron\HUB12\20190613_HUB12_RTC\HUB12_RTC6.ASM
              I2C_DAT2BCD   0x000291    program     static C:\Users\gerpe\OneDrive\GER-PER 2016\Documents\KennyNeutron\HUB12\20190613_HUB12_RTC\HUB12_RTC6.ASM
              I2C_GETDATA   0x0002a4    program     static C:\Users\gerpe\OneDrive\GER-PER 2016\Documents\KennyNeutron\HUB12\20190613_HUB12_RTC\HUB12_RTC6.ASM
                   HRISPM   0x0002c2    program     static C:\Users\gerpe\OneDrive\GER-PER 2016\Documents\KennyNeutron\HUB12\20190613_HUB12_RTC\HUB12_RTC6.ASM
                 GETDATA0   0x0002c4    program     static C:\Users\gerpe\OneDrive\GER-PER 2016\Documents\KennyNeutron\HUB12\20190613_HUB12_RTC\HUB12_RTC6.ASM
                    HRIS1   0x0002cb    program     static C:\Users\gerpe\OneDrive\GER-PER 2016\Documents\KennyNeutron\HUB12\20190613_HUB12_RTC\HUB12_RTC6.ASM
                 GETDATA1   0x0002cd    program     static C:\Users\gerpe\OneDrive\GER-PER 2016\Documents\KennyNeutron\HUB12\20190613_HUB12_RTC\HUB12_RTC6.ASM
                   MONTH1   0x0002e2    program     static C:\Users\gerpe\OneDrive\GER-PER 2016\Documents\KennyNeutron\HUB12\20190613_HUB12_RTC\HUB12_RTC6.ASM
                   MONTH0   0x0002e5    program     static C:\Users\gerpe\OneDrive\GER-PER 2016\Documents\KennyNeutron\HUB12\20190613_HUB12_RTC\HUB12_RTC6.ASM
                 GETDATA2   0x0002e7    program     static C:\Users\gerpe\OneDrive\GER-PER 2016\Documents\KennyNeutron\HUB12\20190613_HUB12_RTC\HUB12_RTC6.ASM
                   T_CHAR   0x000300    program     static C:\Users\gerpe\OneDrive\GER-PER 2016\Documents\KennyNeutron\HUB12\20190613_HUB12_RTC\HUB12_RTC6.ASM
                   T_ZERO   0x00030e    program     static C:\Users\gerpe\OneDrive\GER-PER 2016\Documents\KennyNeutron\HUB12\20190613_HUB12_RTC\HUB12_RTC6.ASM
                    T_ONE   0x000331    program     static C:\Users\gerpe\OneDrive\GER-PER 2016\Documents\KennyNeutron\HUB12\20190613_HUB12_RTC\HUB12_RTC6.ASM
                    T_TWO   0x000354    program     static C:\Users\gerpe\OneDrive\GER-PER 2016\Documents\KennyNeutron\HUB12\20190613_HUB12_RTC\HUB12_RTC6.ASM
                  T_THREE   0x000377    program     static C:\Users\gerpe\OneDrive\GER-PER 2016\Documents\KennyNeutron\HUB12\20190613_HUB12_RTC\HUB12_RTC6.ASM
                   T_FOUR   0x00039a    program     static C:\Users\gerpe\OneDrive\GER-PER 2016\Documents\KennyNeutron\HUB12\20190613_HUB12_RTC\HUB12_RTC6.ASM
                   T_FIVE   0x0003bd    program     static C:\Users\gerpe\OneDrive\GER-PER 2016\Documents\KennyNeutron\HUB12\20190613_HUB12_RTC\HUB12_RTC6.ASM
                  T_CHARB   0x000400    program     static C:\Users\gerpe\OneDrive\GER-PER 2016\Documents\KennyNeutron\HUB12\20190613_HUB12_RTC\HUB12_RTC6.ASM
                    T_SIX   0x00040c    program     static C:\Users\gerpe\OneDrive\GER-PER 2016\Documents\KennyNeutron\HUB12\20190613_HUB12_RTC\HUB12_RTC6.ASM
                  T_SEVEN   0x00042f    program     static C:\Users\gerpe\OneDrive\GER-PER 2016\Documents\KennyNeutron\HUB12\20190613_HUB12_RTC\HUB12_RTC6.ASM
                  T_EIGHT   0x000452    program     static C:\Users\gerpe\OneDrive\GER-PER 2016\Documents\KennyNeutron\HUB12\20190613_HUB12_RTC\HUB12_RTC6.ASM
                   T_NINE   0x000475    program     static C:\Users\gerpe\OneDrive\GER-PER 2016\Documents\KennyNeutron\HUB12\20190613_HUB12_RTC\HUB12_RTC6.ASM
                     DUMP   0x000499    program     static C:\Users\gerpe\OneDrive\GER-PER 2016\Documents\KennyNeutron\HUB12\20190613_HUB12_RTC\HUB12_RTC6.ASM
                   FONT_0   0x0004a4    program     static C:\Users\gerpe\OneDrive\GER-PER 2016\Documents\KennyNeutron\HUB12\20190613_HUB12_RTC\HUB12_RTC6.ASM
                DMP_FONT0   0x0004b8    program     static C:\Users\gerpe\OneDrive\GER-PER 2016\Documents\KennyNeutron\HUB12\20190613_HUB12_RTC\HUB12_RTC6.ASM
                    DMPF0   0x0004ba    program     static C:\Users\gerpe\OneDrive\GER-PER 2016\Documents\KennyNeutron\HUB12\20190613_HUB12_RTC\HUB12_RTC6.ASM
                   FONT_1   0x0004c4    program     static C:\Users\gerpe\OneDrive\GER-PER 2016\Documents\KennyNeutron\HUB12\20190613_HUB12_RTC\HUB12_RTC6.ASM
                DMP_FONT2   0x0004ca    program     static C:\Users\gerpe\OneDrive\GER-PER 2016\Documents\KennyNeutron\HUB12\20190613_HUB12_RTC\HUB12_RTC6.ASM
                    DMPF2   0x0004cc    program     static C:\Users\gerpe\OneDrive\GER-PER 2016\Documents\KennyNeutron\HUB12\20190613_HUB12_RTC\HUB12_RTC6.ASM
                   FONT_2   0x0004dd    program     static C:\Users\gerpe\OneDrive\GER-PER 2016\Documents\KennyNeutron\HUB12\20190613_HUB12_RTC\HUB12_RTC6.ASM
                  ISHIFTR   0x000500    program     static C:\Users\gerpe\OneDrive\GER-PER 2016\Documents\KennyNeutron\HUB12\20190613_HUB12_RTC\HUB12_RTC6.ASM
                   IGRP_A   0x00051d    program     static C:\Users\gerpe\OneDrive\GER-PER 2016\Documents\KennyNeutron\HUB12\20190613_HUB12_RTC\HUB12_RTC6.ASM
                   ISRA00   0x000525    program     static C:\Users\gerpe\OneDrive\GER-PER 2016\Documents\KennyNeutron\HUB12\20190613_HUB12_RTC\HUB12_RTC6.ASM
                ISRA08_R1   0x00054b    program     static C:\Users\gerpe\OneDrive\GER-PER 2016\Documents\KennyNeutron\HUB12\20190613_HUB12_RTC\HUB12_RTC6.ASM
                   ISRA08   0x00054c    program     static C:\Users\gerpe\OneDrive\GER-PER 2016\Documents\KennyNeutron\HUB12\20190613_HUB12_RTC\HUB12_RTC6.ASM
                   IGRP_B   0x00056f    program     static C:\Users\gerpe\OneDrive\GER-PER 2016\Documents\KennyNeutron\HUB12\20190613_HUB12_RTC\HUB12_RTC6.ASM
                   ISRB00   0x000577    program     static C:\Users\gerpe\OneDrive\GER-PER 2016\Documents\KennyNeutron\HUB12\20190613_HUB12_RTC\HUB12_RTC6.ASM
                ISRB08_R1   0x000595    program     static C:\Users\gerpe\OneDrive\GER-PER 2016\Documents\KennyNeutron\HUB12\20190613_HUB12_RTC\HUB12_RTC6.ASM
                   ISRB08   0x000596    program     static C:\Users\gerpe\OneDrive\GER-PER 2016\Documents\KennyNeutron\HUB12\20190613_HUB12_RTC\HUB12_RTC6.ASM
                   IGRP_C   0x0005b1    program     static C:\Users\gerpe\OneDrive\GER-PER 2016\Documents\KennyNeutron\HUB12\20190613_HUB12_RTC\HUB12_RTC6.ASM
                   ISRC00   0x0005b9    program     static C:\Users\gerpe\OneDrive\GER-PER 2016\Documents\KennyNeutron\HUB12\20190613_HUB12_RTC\HUB12_RTC6.ASM
                ISRC08_R1   0x0005cf    program     static C:\Users\gerpe\OneDrive\GER-PER 2016\Documents\KennyNeutron\HUB12\20190613_HUB12_RTC\HUB12_RTC6.ASM
                   ISRC08   0x0005d0    program     static C:\Users\gerpe\OneDrive\GER-PER 2016\Documents\KennyNeutron\HUB12\20190613_HUB12_RTC\HUB12_RTC6.ASM
                   IGRP_D   0x0005e3    program     static C:\Users\gerpe\OneDrive\GER-PER 2016\Documents\KennyNeutron\HUB12\20190613_HUB12_RTC\HUB12_RTC6.ASM
                   SHIFTR   0x000600    program     static C:\Users\gerpe\OneDrive\GER-PER 2016\Documents\KennyNeutron\HUB12\20190613_HUB12_RTC\HUB12_RTC6.ASM
                    GRP_A   0x00061c    program     static C:\Users\gerpe\OneDrive\GER-PER 2016\Documents\KennyNeutron\HUB12\20190613_HUB12_RTC\HUB12_RTC6.ASM
                    SRA00   0x000626    program     static C:\Users\gerpe\OneDrive\GER-PER 2016\Documents\KennyNeutron\HUB12\20190613_HUB12_RTC\HUB12_RTC6.ASM
                 SRA08_R1   0x00064c    program     static C:\Users\gerpe\OneDrive\GER-PER 2016\Documents\KennyNeutron\HUB12\20190613_HUB12_RTC\HUB12_RTC6.ASM
                    SRA08   0x00064d    program     static C:\Users\gerpe\OneDrive\GER-PER 2016\Documents\KennyNeutron\HUB12\20190613_HUB12_RTC\HUB12_RTC6.ASM
                    GRP_B   0x000670    program     static C:\Users\gerpe\OneDrive\GER-PER 2016\Documents\KennyNeutron\HUB12\20190613_HUB12_RTC\HUB12_RTC6.ASM
                    SRB00   0x000678    program     static C:\Users\gerpe\OneDrive\GER-PER 2016\Documents\KennyNeutron\HUB12\20190613_HUB12_RTC\HUB12_RTC6.ASM
                 SRB08_R1   0x000696    program     static C:\Users\gerpe\OneDrive\GER-PER 2016\Documents\KennyNeutron\HUB12\20190613_HUB12_RTC\HUB12_RTC6.ASM
                    SRB08   0x000697    program     static C:\Users\gerpe\OneDrive\GER-PER 2016\Documents\KennyNeutron\HUB12\20190613_HUB12_RTC\HUB12_RTC6.ASM
                    GRP_C   0x0006b2    program     static C:\Users\gerpe\OneDrive\GER-PER 2016\Documents\KennyNeutron\HUB12\20190613_HUB12_RTC\HUB12_RTC6.ASM
                    SRC00   0x0006ba    program     static C:\Users\gerpe\OneDrive\GER-PER 2016\Documents\KennyNeutron\HUB12\20190613_HUB12_RTC\HUB12_RTC6.ASM
                 SRC08_R1   0x0006d0    program     static C:\Users\gerpe\OneDrive\GER-PER 2016\Documents\KennyNeutron\HUB12\20190613_HUB12_RTC\HUB12_RTC6.ASM
                    SRC08   0x0006d1    program     static C:\Users\gerpe\OneDrive\GER-PER 2016\Documents\KennyNeutron\HUB12\20190613_HUB12_RTC\HUB12_RTC6.ASM
                    GRP_D   0x0006e4    program     static C:\Users\gerpe\OneDrive\GER-PER 2016\Documents\KennyNeutron\HUB12\20190613_HUB12_RTC\HUB12_RTC6.ASM
                    SHFTL   0x000700    program     static C:\Users\gerpe\OneDrive\GER-PER 2016\Documents\KennyNeutron\HUB12\20190613_HUB12_RTC\HUB12_RTC6.ASM
                  SHFTL00   0x000706    program     static C:\Users\gerpe\OneDrive\GER-PER 2016\Documents\KennyNeutron\HUB12\20190613_HUB12_RTC\HUB12_RTC6.ASM
              SHIFTL_GRPA   0x000710    program     static C:\Users\gerpe\OneDrive\GER-PER 2016\Documents\KennyNeutron\HUB12\20190613_HUB12_RTC\HUB12_RTC6.ASM
              SHIFTL_GRPB   0x000710    program     static C:\Users\gerpe\OneDrive\GER-PER 2016\Documents\KennyNeutron\HUB12\20190613_HUB12_RTC\HUB12_RTC6.ASM
                     SBR0   0x000716    program     static C:\Users\gerpe\OneDrive\GER-PER 2016\Documents\KennyNeutron\HUB12\20190613_HUB12_RTC\HUB12_RTC6.ASM
                     SBR1   0x000719    program     static C:\Users\gerpe\OneDrive\GER-PER 2016\Documents\KennyNeutron\HUB12\20190613_HUB12_RTC\HUB12_RTC6.ASM
                 SB_BEGIN   0x00071b    program     static C:\Users\gerpe\OneDrive\GER-PER 2016\Documents\KennyNeutron\HUB12\20190613_HUB12_RTC\HUB12_RTC6.ASM
                     SB00   0x00071d    program     static C:\Users\gerpe\OneDrive\GER-PER 2016\Documents\KennyNeutron\HUB12\20190613_HUB12_RTC\HUB12_RTC6.ASM
                     SB01   0x00071f    program     static C:\Users\gerpe\OneDrive\GER-PER 2016\Documents\KennyNeutron\HUB12\20190613_HUB12_RTC\HUB12_RTC6.ASM
              SHIFTL_GRPC   0x000729    program     static C:\Users\gerpe\OneDrive\GER-PER 2016\Documents\KennyNeutron\HUB12\20190613_HUB12_RTC\HUB12_RTC6.ASM
                     SCR0   0x00072f    program     static C:\Users\gerpe\OneDrive\GER-PER 2016\Documents\KennyNeutron\HUB12\20190613_HUB12_RTC\HUB12_RTC6.ASM
                     SCR1   0x000732    program     static C:\Users\gerpe\OneDrive\GER-PER 2016\Documents\KennyNeutron\HUB12\20190613_HUB12_RTC\HUB12_RTC6.ASM
                 SC_BEGIN   0x000734    program     static C:\Users\gerpe\OneDrive\GER-PER 2016\Documents\KennyNeutron\HUB12\20190613_HUB12_RTC\HUB12_RTC6.ASM
                     SC00   0x000736    program     static C:\Users\gerpe\OneDrive\GER-PER 2016\Documents\KennyNeutron\HUB12\20190613_HUB12_RTC\HUB12_RTC6.ASM
                     SC01   0x000738    program     static C:\Users\gerpe\OneDrive\GER-PER 2016\Documents\KennyNeutron\HUB12\20190613_HUB12_RTC\HUB12_RTC6.ASM
              SHIFTL_GRPD   0x000742    program     static C:\Users\gerpe\OneDrive\GER-PER 2016\Documents\KennyNeutron\HUB12\20190613_HUB12_RTC\HUB12_RTC6.ASM
                     SDR0   0x000748    program     static C:\Users\gerpe\OneDrive\GER-PER 2016\Documents\KennyNeutron\HUB12\20190613_HUB12_RTC\HUB12_RTC6.ASM
                     SDR1   0x00074b    program     static C:\Users\gerpe\OneDrive\GER-PER 2016\Documents\KennyNeutron\HUB12\20190613_HUB12_RTC\HUB12_RTC6.ASM
                 SD_BEGIN   0x00074d    program     static C:\Users\gerpe\OneDrive\GER-PER 2016\Documents\KennyNeutron\HUB12\20190613_HUB12_RTC\HUB12_RTC6.ASM
                     SD00   0x00074f    program     static C:\Users\gerpe\OneDrive\GER-PER 2016\Documents\KennyNeutron\HUB12\20190613_HUB12_RTC\HUB12_RTC6.ASM
                     SD01   0x000751    program     static C:\Users\gerpe\OneDrive\GER-PER 2016\Documents\KennyNeutron\HUB12\20190613_HUB12_RTC\HUB12_RTC6.ASM
                 SHIFT_YU   0x00075b    program     static C:\Users\gerpe\OneDrive\GER-PER 2016\Documents\KennyNeutron\HUB12\20190613_HUB12_RTC\HUB12_RTC6.ASM
                      YU0   0x000762    program     static C:\Users\gerpe\OneDrive\GER-PER 2016\Documents\KennyNeutron\HUB12\20190613_HUB12_RTC\HUB12_RTC6.ASM
                    IDUMP   0x000792    program     static C:\Users\gerpe\OneDrive\GER-PER 2016\Documents\KennyNeutron\HUB12\20190613_HUB12_RTC\HUB12_RTC6.ASM
                  IFONT_0   0x00079b    program     static C:\Users\gerpe\OneDrive\GER-PER 2016\Documents\KennyNeutron\HUB12\20190613_HUB12_RTC\HUB12_RTC6.ASM
                  IFONT_1   0x0007b3    program     static C:\Users\gerpe\OneDrive\GER-PER 2016\Documents\KennyNeutron\HUB12\20190613_HUB12_RTC\HUB12_RTC6.ASM
                   PUTNUM   0x0007b8    program     static C:\Users\gerpe\OneDrive\GER-PER 2016\Documents\KennyNeutron\HUB12\20190613_HUB12_RTC\HUB12_RTC6.ASM
                  IFONT_2   0x0007cd    program     static C:\Users\gerpe\OneDrive\GER-PER 2016\Documents\KennyNeutron\HUB12\20190613_HUB12_RTC\HUB12_RTC6.ASM
                  IPUTNUM   0x000800    program     static C:\Users\gerpe\OneDrive\GER-PER 2016\Documents\KennyNeutron\HUB12\20190613_HUB12_RTC\HUB12_RTC6.ASM
                SHIFT_YUB   0x000816    program     static C:\Users\gerpe\OneDrive\GER-PER 2016\Documents\KennyNeutron\HUB12\20190613_HUB12_RTC\HUB12_RTC6.ASM
                      YU1   0x00081a    program     static C:\Users\gerpe\OneDrive\GER-PER 2016\Documents\KennyNeutron\HUB12\20190613_HUB12_RTC\HUB12_RTC6.ASM
                   ISHFTL   0x00083f    program     static C:\Users\gerpe\OneDrive\GER-PER 2016\Documents\KennyNeutron\HUB12\20190613_HUB12_RTC\HUB12_RTC6.ASM
                  ISHIFTL   0x00083f    program     static C:\Users\gerpe\OneDrive\GER-PER 2016\Documents\KennyNeutron\HUB12\20190613_HUB12_RTC\HUB12_RTC6.ASM
                 ISHFTL00   0x000845    program     static C:\Users\gerpe\OneDrive\GER-PER 2016\Documents\KennyNeutron\HUB12\20190613_HUB12_RTC\HUB12_RTC6.ASM
             ISHIFTL_GRPA   0x00084f    program     static C:\Users\gerpe\OneDrive\GER-PER 2016\Documents\KennyNeutron\HUB12\20190613_HUB12_RTC\HUB12_RTC6.ASM
             ISHIFTL_GRPB   0x00084f    program     static C:\Users\gerpe\OneDrive\GER-PER 2016\Documents\KennyNeutron\HUB12\20190613_HUB12_RTC\HUB12_RTC6.ASM
                    ISBR0   0x000853    program     static C:\Users\gerpe\OneDrive\GER-PER 2016\Documents\KennyNeutron\HUB12\20190613_HUB12_RTC\HUB12_RTC6.ASM
                    ISBR1   0x000856    program     static C:\Users\gerpe\OneDrive\GER-PER 2016\Documents\KennyNeutron\HUB12\20190613_HUB12_RTC\HUB12_RTC6.ASM
                ISB_BEGIN   0x000858    program     static C:\Users\gerpe\OneDrive\GER-PER 2016\Documents\KennyNeutron\HUB12\20190613_HUB12_RTC\HUB12_RTC6.ASM
                    ISB00   0x00085a    program     static C:\Users\gerpe\OneDrive\GER-PER 2016\Documents\KennyNeutron\HUB12\20190613_HUB12_RTC\HUB12_RTC6.ASM
                    ISB01   0x00085c    program     static C:\Users\gerpe\OneDrive\GER-PER 2016\Documents\KennyNeutron\HUB12\20190613_HUB12_RTC\HUB12_RTC6.ASM
             ISHIFTL_GRPC   0x000866    program     static C:\Users\gerpe\OneDrive\GER-PER 2016\Documents\KennyNeutron\HUB12\20190613_HUB12_RTC\HUB12_RTC6.ASM
                    ISCR0   0x00086a    program     static C:\Users\gerpe\OneDrive\GER-PER 2016\Documents\KennyNeutron\HUB12\20190613_HUB12_RTC\HUB12_RTC6.ASM
                    ISCR1   0x00086d    program     static C:\Users\gerpe\OneDrive\GER-PER 2016\Documents\KennyNeutron\HUB12\20190613_HUB12_RTC\HUB12_RTC6.ASM
                ISC_BEGIN   0x00086f    program     static C:\Users\gerpe\OneDrive\GER-PER 2016\Documents\KennyNeutron\HUB12\20190613_HUB12_RTC\HUB12_RTC6.ASM
                    ISC00   0x000871    program     static C:\Users\gerpe\OneDrive\GER-PER 2016\Documents\KennyNeutron\HUB12\20190613_HUB12_RTC\HUB12_RTC6.ASM
                    ISC01   0x000873    program     static C:\Users\gerpe\OneDrive\GER-PER 2016\Documents\KennyNeutron\HUB12\20190613_HUB12_RTC\HUB12_RTC6.ASM
             ISHIFTL_GRPD   0x00087d    program     static C:\Users\gerpe\OneDrive\GER-PER 2016\Documents\KennyNeutron\HUB12\20190613_HUB12_RTC\HUB12_RTC6.ASM
                    ISDR0   0x000881    program     static C:\Users\gerpe\OneDrive\GER-PER 2016\Documents\KennyNeutron\HUB12\20190613_HUB12_RTC\HUB12_RTC6.ASM
                    ISDR1   0x000884    program     static C:\Users\gerpe\OneDrive\GER-PER 2016\Documents\KennyNeutron\HUB12\20190613_HUB12_RTC\HUB12_RTC6.ASM
                ISD_BEGIN   0x000886    program     static C:\Users\gerpe\OneDrive\GER-PER 2016\Documents\KennyNeutron\HUB12\20190613_HUB12_RTC\HUB12_RTC6.ASM
                    ISD00   0x000888    program     static C:\Users\gerpe\OneDrive\GER-PER 2016\Documents\KennyNeutron\HUB12\20190613_HUB12_RTC\HUB12_RTC6.ASM
                    ISD01   0x00088a    program     static C:\Users\gerpe\OneDrive\GER-PER 2016\Documents\KennyNeutron\HUB12\20190613_HUB12_RTC\HUB12_RTC6.ASM
                  I2CREAD   0x000900    program     static C:\Users\gerpe\OneDrive\GER-PER 2016\Documents\KennyNeutron\HUB12\20190613_HUB12_RTC\HUB12_RTC6.ASM
                   I2CRD0   0x000926    program     static C:\Users\gerpe\OneDrive\GER-PER 2016\Documents\KennyNeutron\HUB12\20190613_HUB12_RTC\HUB12_RTC6.ASM
                   I2CRD1   0x00092b    program     static C:\Users\gerpe\OneDrive\GER-PER 2016\Documents\KennyNeutron\HUB12\20190613_HUB12_RTC\HUB12_RTC6.ASM
               I2CRD_SDA0   0x00092e    program     static C:\Users\gerpe\OneDrive\GER-PER 2016\Documents\KennyNeutron\HUB12\20190613_HUB12_RTC\HUB12_RTC6.ASM
               I2CRD_SDA1   0x000930    program     static C:\Users\gerpe\OneDrive\GER-PER 2016\Documents\KennyNeutron\HUB12\20190613_HUB12_RTC\HUB12_RTC6.ASM
                   I2CRD2   0x000931    program     static C:\Users\gerpe\OneDrive\GER-PER 2016\Documents\KennyNeutron\HUB12\20190613_HUB12_RTC\HUB12_RTC6.ASM
            I2CRD_MASTERA   0x00093f    program     static C:\Users\gerpe\OneDrive\GER-PER 2016\Documents\KennyNeutron\HUB12\20190613_HUB12_RTC\HUB12_RTC6.ASM
            I2CRD_MASTERN   0x000941    program     static C:\Users\gerpe\OneDrive\GER-PER 2016\Documents\KennyNeutron\HUB12\20190613_HUB12_RTC\HUB12_RTC6.ASM
                 I2CWRITE   0x000947    program     static C:\Users\gerpe\OneDrive\GER-PER 2016\Documents\KennyNeutron\HUB12\20190613_HUB12_RTC\HUB12_RTC6.ASM
                   I2CWR0   0x000955    program     static C:\Users\gerpe\OneDrive\GER-PER 2016\Documents\KennyNeutron\HUB12\20190613_HUB12_RTC\HUB12_RTC6.ASM
                 I2CMOSI0   0x000961    program     static C:\Users\gerpe\OneDrive\GER-PER 2016\Documents\KennyNeutron\HUB12\20190613_HUB12_RTC\HUB12_RTC6.ASM
                  I2CMOSI   0x000961    program     static C:\Users\gerpe\OneDrive\GER-PER 2016\Documents\KennyNeutron\HUB12\20190613_HUB12_RTC\HUB12_RTC6.ASM
                 I2CMOSI1   0x000966    program     static C:\Users\gerpe\OneDrive\GER-PER 2016\Documents\KennyNeutron\HUB12\20190613_HUB12_RTC\HUB12_RTC6.ASM
            I2CMOSI_DBIT0   0x000969    program     static C:\Users\gerpe\OneDrive\GER-PER 2016\Documents\KennyNeutron\HUB12\20190613_HUB12_RTC\HUB12_RTC6.ASM
            I2CMOSI_DBIT1   0x00096b    program     static C:\Users\gerpe\OneDrive\GER-PER 2016\Documents\KennyNeutron\HUB12\20190613_HUB12_RTC\HUB12_RTC6.ASM
                 I2CMOSI2   0x00096c    program     static C:\Users\gerpe\OneDrive\GER-PER 2016\Documents\KennyNeutron\HUB12\20190613_HUB12_RTC\HUB12_RTC6.ASM
                I2C_SDAIN   0x000974    program     static C:\Users\gerpe\OneDrive\GER-PER 2016\Documents\KennyNeutron\HUB12\20190613_HUB12_RTC\HUB12_RTC6.ASM
               I2C_SDAOUT   0x00097a    program     static C:\Users\gerpe\OneDrive\GER-PER 2016\Documents\KennyNeutron\HUB12\20190613_HUB12_RTC\HUB12_RTC6.ASM
                SCL_PULSE   0x000980    program     static C:\Users\gerpe\OneDrive\GER-PER 2016\Documents\KennyNeutron\HUB12\20190613_HUB12_RTC\HUB12_RTC6.ASM
             I2C_SLAVEACK   0x000987    program     static C:\Users\gerpe\OneDrive\GER-PER 2016\Documents\KennyNeutron\HUB12\20190613_HUB12_RTC\HUB12_RTC6.ASM
                  ACKTEST   0x00098e    program     static C:\Users\gerpe\OneDrive\GER-PER 2016\Documents\KennyNeutron\HUB12\20190613_HUB12_RTC\HUB12_RTC6.ASM
            I2C_MASTERACK   0x000993    program     static C:\Users\gerpe\OneDrive\GER-PER 2016\Documents\KennyNeutron\HUB12\20190613_HUB12_RTC\HUB12_RTC6.ASM
           I2C_MASTERNACK   0x00099d    program     static C:\Users\gerpe\OneDrive\GER-PER 2016\Documents\KennyNeutron\HUB12\20190613_HUB12_RTC\HUB12_RTC6.ASM
                 I2CSTART   0x0009ac    program     static C:\Users\gerpe\OneDrive\GER-PER 2016\Documents\KennyNeutron\HUB12\20190613_HUB12_RTC\HUB12_RTC6.ASM
                  I2CSTOP   0x0009bd    program     static C:\Users\gerpe\OneDrive\GER-PER 2016\Documents\KennyNeutron\HUB12\20190613_HUB12_RTC\HUB12_RTC6.ASM
              I2CDELAY_US   0x0009ce    program     static C:\Users\gerpe\OneDrive\GER-PER 2016\Documents\KennyNeutron\HUB12\20190613_HUB12_RTC\HUB12_RTC6.ASM
                  I2CUSEC   0x0009d1    program     static C:\Users\gerpe\OneDrive\GER-PER 2016\Documents\KennyNeutron\HUB12\20190613_HUB12_RTC\HUB12_RTC6.ASM
         DSHIFT_DOWN_GRPA   0x000a00    program     static C:\Users\gerpe\OneDrive\GER-PER 2016\Documents\KennyNeutron\HUB12\20190613_HUB12_RTC\HUB12_RTC6.ASM
         DSHIFT_DOWN_GRPB   0x000a23    program     static C:\Users\gerpe\OneDrive\GER-PER 2016\Documents\KennyNeutron\HUB12\20190613_HUB12_RTC\HUB12_RTC6.ASM
         DSHIFT_DOWN_GRPC   0x000a46    program     static C:\Users\gerpe\OneDrive\GER-PER 2016\Documents\KennyNeutron\HUB12\20190613_HUB12_RTC\HUB12_RTC6.ASM
         DSHIFT_DOWN_GRPD   0x000a69    program     static C:\Users\gerpe\OneDrive\GER-PER 2016\Documents\KennyNeutron\HUB12\20190613_HUB12_RTC\HUB12_RTC6.ASM
         ISHIFT_DOWN_GRPA   0x000a8c    program     static C:\Users\gerpe\OneDrive\GER-PER 2016\Documents\KennyNeutron\HUB12\20190613_HUB12_RTC\HUB12_RTC6.ASM
         ISHIFT_DOWN_GRPB   0x000ab3    program     static C:\Users\gerpe\OneDrive\GER-PER 2016\Documents\KennyNeutron\HUB12\20190613_HUB12_RTC\HUB12_RTC6.ASM
                   SCRL_A   0x000ada    program     static C:\Users\gerpe\OneDrive\GER-PER 2016\Documents\KennyNeutron\HUB12\20190613_HUB12_RTC\HUB12_RTC6.ASM
                   SCRL_B   0x000ae1    program     static C:\Users\gerpe\OneDrive\GER-PER 2016\Documents\KennyNeutron\HUB12\20190613_HUB12_RTC\HUB12_RTC6.ASM
                   SCRL_C   0x000ae8    program     static C:\Users\gerpe\OneDrive\GER-PER 2016\Documents\KennyNeutron\HUB12\20190613_HUB12_RTC\HUB12_RTC6.ASM
                   SCRL_D   0x000af1    program     static C:\Users\gerpe\OneDrive\GER-PER 2016\Documents\KennyNeutron\HUB12\20190613_HUB12_RTC\HUB12_RTC6.ASM
         ISHIFT_DOWN_GRPC   0x000b00    program     static C:\Users\gerpe\OneDrive\GER-PER 2016\Documents\KennyNeutron\HUB12\20190613_HUB12_RTC\HUB12_RTC6.ASM
         ISHIFT_DOWN_GRPD   0x000b27    program     static C:\Users\gerpe\OneDrive\GER-PER 2016\Documents\KennyNeutron\HUB12\20190613_HUB12_RTC\HUB12_RTC6.ASM
                   DISPAM   0x000b4e    program     static C:\Users\gerpe\OneDrive\GER-PER 2016\Documents\KennyNeutron\HUB12\20190613_HUB12_RTC\HUB12_RTC6.ASM
                   DISPPM   0x000b66    program     static C:\Users\gerpe\OneDrive\GER-PER 2016\Documents\KennyNeutron\HUB12\20190613_HUB12_RTC\HUB12_RTC6.ASM
             FONT1DISPLAY   0x000c00    program     static C:\Users\gerpe\OneDrive\GER-PER 2016\Documents\KennyNeutron\HUB12\20190613_HUB12_RTC\HUB12_RTC6.ASM
                DMP_FONT1   0x000c0c    program     static C:\Users\gerpe\OneDrive\GER-PER 2016\Documents\KennyNeutron\HUB12\20190613_HUB12_RTC\HUB12_RTC6.ASM
                    DMPF1   0x000c0e    program     static C:\Users\gerpe\OneDrive\GER-PER 2016\Documents\KennyNeutron\HUB12\20190613_HUB12_RTC\HUB12_RTC6.ASM
                   L_CHAR   0x000c16    program     static C:\Users\gerpe\OneDrive\GER-PER 2016\Documents\KennyNeutron\HUB12\20190613_HUB12_RTC\HUB12_RTC6.ASM
                   L_ZERO   0x000c22    program     static C:\Users\gerpe\OneDrive\GER-PER 2016\Documents\KennyNeutron\HUB12\20190613_HUB12_RTC\HUB12_RTC6.ASM
                    L_ONE   0x000c2d    program     static C:\Users\gerpe\OneDrive\GER-PER 2016\Documents\KennyNeutron\HUB12\20190613_HUB12_RTC\HUB12_RTC6.ASM
                    L_TWO   0x000c38    program     static C:\Users\gerpe\OneDrive\GER-PER 2016\Documents\KennyNeutron\HUB12\20190613_HUB12_RTC\HUB12_RTC6.ASM
                  L_THREE   0x000c43    program     static C:\Users\gerpe\OneDrive\GER-PER 2016\Documents\KennyNeutron\HUB12\20190613_HUB12_RTC\HUB12_RTC6.ASM
                   L_FOUR   0x000c4e    program     static C:\Users\gerpe\OneDrive\GER-PER 2016\Documents\KennyNeutron\HUB12\20190613_HUB12_RTC\HUB12_RTC6.ASM
                   L_FIVE   0x000c59    program     static C:\Users\gerpe\OneDrive\GER-PER 2016\Documents\KennyNeutron\HUB12\20190613_HUB12_RTC\HUB12_RTC6.ASM
                    L_SIX   0x000c64    program     static C:\Users\gerpe\OneDrive\GER-PER 2016\Documents\KennyNeutron\HUB12\20190613_HUB12_RTC\HUB12_RTC6.ASM
                  L_SEVEN   0x000c6f    program     static C:\Users\gerpe\OneDrive\GER-PER 2016\Documents\KennyNeutron\HUB12\20190613_HUB12_RTC\HUB12_RTC6.ASM
                  L_EIGHT   0x000c7a    program     static C:\Users\gerpe\OneDrive\GER-PER 2016\Documents\KennyNeutron\HUB12\20190613_HUB12_RTC\HUB12_RTC6.ASM
                   L_NINE   0x000c85    program     static C:\Users\gerpe\OneDrive\GER-PER 2016\Documents\KennyNeutron\HUB12\20190613_HUB12_RTC\HUB12_RTC6.ASM
             HUB2SHOWTIME   0x000d00    program     static C:\Users\gerpe\OneDrive\GER-PER 2016\Documents\KennyNeutron\HUB12\20190613_HUB12_RTC\HUB12_RTC6.ASM
                    TIMPM   0x000d4d    program     static C:\Users\gerpe\OneDrive\GER-PER 2016\Documents\KennyNeutron\HUB12\20190613_HUB12_RTC\HUB12_RTC6.ASM
                    TIMAM   0x000d53    program     static C:\Users\gerpe\OneDrive\GER-PER 2016\Documents\KennyNeutron\HUB12\20190613_HUB12_RTC\HUB12_RTC6.ASM
             HUB2SHOWDATE   0x000d59    program     static C:\Users\gerpe\OneDrive\GER-PER 2016\Documents\KennyNeutron\HUB12\20190613_HUB12_RTC\HUB12_RTC6.ASM
             HUB1SHOWTIME   0x000e00    program     static C:\Users\gerpe\OneDrive\GER-PER 2016\Documents\KennyNeutron\HUB12\20190613_HUB12_RTC\HUB12_RTC6.ASM
             HUB1SHOWYEAR   0x000e3d    program     static C:\Users\gerpe\OneDrive\GER-PER 2016\Documents\KennyNeutron\HUB12\20190613_HUB12_RTC\HUB12_RTC6.ASM
             HUB1SHOWTEMP   0x000e76    program     static C:\Users\gerpe\OneDrive\GER-PER 2016\Documents\KennyNeutron\HUB12\20190613_HUB12_RTC\HUB12_RTC6.ASM


