;/////////////////////////////////////////////////////////////////////////////////
;// Code Generator: BoostC Compiler - http://www.sourceboost.com
;// Version       : 7.03
;// License Type  : Pro License
;// Limitations   : PIC12,PIC16 max code size:Unlimited, max RAM banks:Unlimited
;/////////////////////////////////////////////////////////////////////////////////

	ORG 0x00000000
0000  2892  	GOTO	_startup
	ORG 0x00000004
0004  00FF  	MOVWF Int1Context
0005  0E03  	SWAPF STATUS, W
0006  1283  	BCF STATUS, RP0
0007  1303  	BCF STATUS, RP1
0008  00B4  	MOVWF Int1BContext
0009  0E0A  	SWAPF PCLATH, W
000A  00B5  	MOVWF Int1BContext+D'1'
000B  0E04  	SWAPF FSR, W
000C  00B6  	MOVWF Int1BContext+D'2'
000D  118A  	BCF PCLATH,3
000E  120A  	BCF PCLATH,4
000F  28BB  	GOTO	interrupt
	ORG 0x00000010
0010        FC_CAL_UAR_00052
0010        ; { FC_CAL_UART_Send_1 ; function begin
0010        label1
0010  1E0C  	BTFSS gbl_pir1,4
0011  2810  	GOTO	label1
0012  0849  	MOVF FC_CAL_UAR_00052_arg_nChar, W
0013  0099  	MOVWF gbl_txreg
0014  0008  	RETURN
0015        ; } FC_CAL_UART_Send_1 function end

	ORG 0x00000015
0015        FC_CAL_UAR_00051
0015        ; { FC_CAL_UART_Init_1 ; function begin
0015  1683  	BSF STATUS, RP0
0016  1303  	BCF STATUS, RP1
0017  1518  	BSF gbl_txsta,2
0018  3081  	MOVLW 0x81
0019  0099  	MOVWF gbl_spbrg
001A  1283  	BCF STATUS, RP0
001B  0198  	CLRF gbl_rcsta
001C  1798  	BSF gbl_rcsta,7
001D  1683  	BSF STATUS, RP0
001E  1698  	BSF gbl_txsta,5
001F  1283  	BCF STATUS, RP0
0020  1618  	BSF gbl_rcsta,4
0021  1683  	BSF STATUS, RP0
0022  128C  	BCF gbl_pie1,5
0023  0008  	RETURN
0024        ; } FC_CAL_UART_Init_1 function end

	ORG 0x00000024
0024        FCD_RS2320_00057
0024        ; { FCD_RS2320_SendRS232String ; function begin
0024  01C8  	CLRF FCD_RS2320_00057_1_idx
0025        label2
0025  0847  	MOVF FCD_RS2320_00057_arg_MSZ_String, W
0026  0248  	SUBWF FCD_RS2320_00057_1_idx, W
0027  1803  	BTFSC STATUS,C
0028  0008  	RETURN
0029  1383  	BCF STATUS,IRP
002A  1844  	BTFSC FCD_RS2320_00057_arg_String+D'1',0
002B  1783  	BSF STATUS,IRP
002C  0843  	MOVF FCD_RS2320_00057_arg_String, W
002D  0748  	ADDWF FCD_RS2320_00057_1_idx, W
002E  0084  	MOVWF FSR
002F  0880  	MOVF INDF, F
0030  1903  	BTFSC STATUS,Z
0031  0008  	RETURN
0032  1383  	BCF STATUS,IRP
0033  1844  	BTFSC FCD_RS2320_00057_arg_String+D'1',0
0034  1783  	BSF STATUS,IRP
0035  0843  	MOVF FCD_RS2320_00057_arg_String, W
0036  0748  	ADDWF FCD_RS2320_00057_1_idx, W
0037  0084  	MOVWF FSR
0038  0800  	MOVF INDF, W
0039  00C9  	MOVWF FC_CAL_UAR_00052_arg_nChar
003A  01CA  	CLRF FC_CAL_UAR_00052_arg_nChar+D'1'
003B  2010  	CALL FC_CAL_UAR_00052
003C  0AC8  	INCF FCD_RS2320_00057_1_idx, F
003D  2825  	GOTO	label2
003E        ; } FCD_RS2320_SendRS232String function end

	ORG 0x0000003E
003E        FCD_RS2320_00056
003E        ; { FCD_RS2320_SendRS232Char ; function begin
003E  0843  	MOVF FCD_RS2320_00056_arg_nChar, W
003F  00C9  	MOVWF FC_CAL_UAR_00052_arg_nChar
0040  0844  	MOVF FCD_RS2320_00056_arg_nChar+D'1', W
0041  00CA  	MOVWF FC_CAL_UAR_00052_arg_nChar+D'1'
0042  2010  	CALL FC_CAL_UAR_00052
0043  0008  	RETURN
0044        ; } FCD_RS2320_SendRS232Char function end

	ORG 0x00000044
0044        main
0044        ; { main ; function begin
0044  1283  	BCF STATUS, RP0
0045  1703  	BSF STATUS, RP1
0046  019E  	CLRF gbl_ansel
0047  019F  	CLRF gbl_anselh
0048  2015  	CALL FC_CAL_UAR_00051
0049  30C0  	MOVLW 0xC0
004A  0081  	MOVWF gbl_option_reg
004B        label3
004B  30FF  	MOVLW 0xFF
004C  1683  	BSF STATUS, RP0
004D  0407  	IORWF gbl_trisc, W
004E  0087  	MOVWF gbl_trisc
004F  1283  	BCF STATUS, RP0
0050  0807  	MOVF gbl_portc, W
0051  00C2  	MOVWF gbl_FCV_SWITCH
0052  0842  	MOVF gbl_FCV_SWITCH, W
0053  3A01  	XORLW 0x01
0054  1903  	BTFSC STATUS,Z
0055  2869  	GOTO	label4
0056  3A03  	XORLW 0x03
0057  1903  	BTFSC STATUS,Z
0058  2874  	GOTO	label5
0059  3A06  	XORLW 0x06
005A  1903  	BTFSC STATUS,Z
005B  2879  	GOTO	label6
005C  3A0C  	XORLW 0x0C
005D  1903  	BTFSC STATUS,Z
005E  287E  	GOTO	label7
005F  3A18  	XORLW 0x18
0060  1903  	BTFSC STATUS,Z
0061  2883  	GOTO	label8
0062  3A30  	XORLW 0x30
0063  1903  	BTFSC STATUS,Z
0064  2888  	GOTO	label9
0065  3A20  	XORLW 0x20
0066  1903  	BTFSC STATUS,Z
0067  288D  	GOTO	label10
0068  284B  	GOTO	label3
0069        label4
0069  3041  	MOVLW 0x41
006A  00C5  	MOVWF CompTempVar2198
006B  01C6  	CLRF CompTempVar2198+D'1'
006C  3000  	MOVLW HIGH(CompTempVar2198+D'0')
006D  00C4  	MOVWF FCD_RS2320_00057_arg_String+D'1'
006E  3045  	MOVLW LOW(CompTempVar2198+D'0')
006F  00C3  	MOVWF FCD_RS2320_00057_arg_String
0070  3001  	MOVLW 0x01
0071  00C7  	MOVWF FCD_RS2320_00057_arg_MSZ_String
0072  2024  	CALL FCD_RS2320_00057
0073  284B  	GOTO	label3
0074        label5
0074  3042  	MOVLW 0x42
0075  00C3  	MOVWF FCD_RS2320_00056_arg_nChar
0076  01C4  	CLRF FCD_RS2320_00056_arg_nChar+D'1'
0077  203E  	CALL FCD_RS2320_00056
0078  284B  	GOTO	label3
0079        label6
0079  3043  	MOVLW 0x43
007A  00C3  	MOVWF FCD_RS2320_00056_arg_nChar
007B  01C4  	CLRF FCD_RS2320_00056_arg_nChar+D'1'
007C  203E  	CALL FCD_RS2320_00056
007D  284B  	GOTO	label3
007E        label7
007E  3044  	MOVLW 0x44
007F  00C3  	MOVWF FCD_RS2320_00056_arg_nChar
0080  01C4  	CLRF FCD_RS2320_00056_arg_nChar+D'1'
0081  203E  	CALL FCD_RS2320_00056
0082  284B  	GOTO	label3
0083        label8
0083  3045  	MOVLW 0x45
0084  00C3  	MOVWF FCD_RS2320_00056_arg_nChar
0085  01C4  	CLRF FCD_RS2320_00056_arg_nChar+D'1'
0086  203E  	CALL FCD_RS2320_00056
0087  284B  	GOTO	label3
0088        label9
0088  3046  	MOVLW 0x46
0089  00C3  	MOVWF FCD_RS2320_00056_arg_nChar
008A  01C4  	CLRF FCD_RS2320_00056_arg_nChar+D'1'
008B  203E  	CALL FCD_RS2320_00056
008C  284B  	GOTO	label3
008D        label10
008D  305A  	MOVLW 0x5A
008E  00C3  	MOVWF FCD_RS2320_00056_arg_nChar
008F  01C4  	CLRF FCD_RS2320_00056_arg_nChar+D'1'
0090  203E  	CALL FCD_RS2320_00056
0091  284B  	GOTO	label3
0092        ; } main function end

	ORG 0x00000092
0092        _startup
0092  30D5  	MOVLW 0xD5
0093  1283  	BCF STATUS, RP0
0094  1303  	BCF STATUS, RP1
0095  00A0  	MOVWF gbl_14_LSR
0096  30C4  	MOVLW 0xC4
0097  00A1  	MOVWF gbl_14_LSR+D'1'
0098  30BB  	MOVLW 0xBB
0099  00A2  	MOVWF gbl_14_LSR+D'2'
009A  30DC  	MOVLW 0xDC
009B  00A3  	MOVWF gbl_14_LSR+D'3'
009C  01A4  	CLRF gbl_15_gbl_aSig
009D  01A5  	CLRF gbl_15_gbl_aSig+D'1'
009E  01A6  	CLRF gbl_15_gbl_aSig+D'2'
009F  01A7  	CLRF gbl_15_gbl_aSig+D'3'
00A0  01A8  	CLRF gbl_15_gbl_bSig
00A1  01A9  	CLRF gbl_15_gbl_bSig+D'1'
00A2  01AA  	CLRF gbl_15_gbl_bSig+D'2'
00A3  01AB  	CLRF gbl_15_gbl_bSig+D'3'
00A4  01AC  	CLRF gbl_15_gbl_zSig
00A5  01AD  	CLRF gbl_15_gbl_zSig+D'1'
00A6  01AE  	CLRF gbl_15_gbl_zSig+D'2'
00A7  01AF  	CLRF gbl_15_gbl_zSig+D'3'
00A8  01BC  	CLRF gbl_15_gbl_aExp
00A9  01BD  	CLRF gbl_15_gbl_bExp
00AA  01B7  	CLRF gbl_15_gbl_zExp
00AB  01B8  	CLRF gbl_15_gbl_zExp+D'1'
00AC  01BE  	CLRF gbl_15_gbl_aSign
00AD  01BF  	CLRF gbl_15_gbl_bSign
00AE  01C0  	CLRF gbl_15_gbl_zSign
00AF  01C1  	CLRF gbl_15_gbl_zSigZero
00B0  01B0  	CLRF gbl_15_gbl_ret
00B1  01B1  	CLRF gbl_15_gbl_ret+D'1'
00B2  01B2  	CLRF gbl_15_gbl_ret+D'2'
00B3  01B3  	CLRF gbl_15_gbl_ret+D'3'
00B4  01BA  	CLRF gbl_float_rounding_mode
00B5  01BB  	CLRF gbl_float_exception_flags
00B6  01B9  	CLRF gbl_float_detect_tininess
00B7  01C2  	CLRF gbl_FCV_SWITCH
00B8  118A  	BCF PCLATH,3
00B9  120A  	BCF PCLATH,4
00BA  2844  	GOTO	main
	ORG 0x000000BB
00BB        interrupt
00BB        ; { interrupt ; function begin
00BB  1283  	BCF STATUS, RP0
00BC  1303  	BCF STATUS, RP1
00BD  0E36  	SWAPF Int1BContext+D'2', W
00BE  0084  	MOVWF FSR
00BF  0E35  	SWAPF Int1BContext+D'1', W
00C0  008A  	MOVWF PCLATH
00C1  0E34  	SWAPF Int1BContext, W
00C2  0083  	MOVWF STATUS
00C3  0EFF  	SWAPF Int1Context, F
00C4  0E7F  	SWAPF Int1Context, W
00C5  0009  	RETFIE
00C6        ; } interrupt function end

	ORG 0x00002007
2007  30D2  	DW 0x30D2
