;/////////////////////////////////////////////////////////////////////////////////
;// Code Generator: BoostC Compiler - http://www.sourceboost.com
;// Version       : 7.03
;// License Type  : Pro License
;// Limitations   : PIC12,PIC16 max code size:Unlimited, max RAM banks:Unlimited
;/////////////////////////////////////////////////////////////////////////////////

	ORG 0x00000000
0000  2CD9  	GOTO	_startup
	ORG 0x00000004
0004  00FF  	MOVWF Int1Context
0005  0E03  	SWAPF STATUS, W
0006  1283  	BCF STATUS, RP0
0007  1303  	BCF STATUS, RP1
0008  00B4  	MOVWF Int1BContext
0009  0E0A  	SWAPF PCLATH, W
000A  00B5  	MOVWF Int1BContext+D'1'
000B  0E04  	SWAPF FSR, W
000C  00B6  	MOVWF Int1BContext+D'2'
000D  118A  	BCF PCLATH,3
000E  120A  	BCF PCLATH,4
000F  2D09  	GOTO	interrupt
	ORG 0x00000010
0010        delay_us_00000
0010        ; { delay_us ; function begin
0010        label1
0010  0000  	NOP
0011  0000  	NOP
0012  0BE4  	DECFSZ delay_us_00000_arg_del, F
0013  2810  	GOTO	label1
0014  0008  	RETURN
0015        ; } delay_us function end

	ORG 0x00000015
0015        delay_ms_00000
0015        ; { delay_ms ; function begin
0015  08DC  	MOVF delay_ms_00000_arg_del, F
0016  1D03  	BTFSS STATUS,Z
0017  2819  	GOTO	label2
0018  0008  	RETURN
0019        label2
0019  30F9  	MOVLW 0xF9
001A        label3
001A  0000  	NOP
001B  0000  	NOP
001C  0000  	NOP
001D  0000  	NOP
001E  0000  	NOP
001F  0000  	NOP
0020  0000  	NOP
0021  0000  	NOP
0022  0000  	NOP
0023  0000  	NOP
0024  0000  	NOP
0025  0000  	NOP
0026  0000  	NOP
0027  0000  	NOP
0028  0000  	NOP
0029  0000  	NOP
002A  3EFF  	ADDLW 0xFF
002B  1D03  	BTFSS STATUS,Z
002C  281A  	GOTO	label3
002D  0000  	NOP
002E  0000  	NOP
002F  0000  	NOP
0030  0000  	NOP
0031  0000  	NOP
0032  0000  	NOP
0033  0000  	NOP
0034  0000  	NOP
0035  0000  	NOP
0036  0000  	NOP
0037  0000  	NOP
0038  0000  	NOP
0039  0000  	NOP
003A  0000  	NOP
003B  0000  	NOP
003C  0000  	NOP
003D  0000  	NOP
003E  0BDC  	DECFSZ delay_ms_00000_arg_del, F
003F  2819  	GOTO	label2
0040  0008  	RETURN
0041        ; } delay_ms function end

	ORG 0x00000041
0041        FC_CAL_PWM_0005E
0041        ; { FC_CAL_PWM_Change_Period_1 ; function begin
0041  085C  	MOVF FC_CAL_PWM_0005E_arg_period, W
0042  1683  	BSF STATUS, RP0
0043  0092  	MOVWF gbl_pr2
0044  3001  	MOVLW 0x01
0045  1283  	BCF STATUS, RP0
0046  065D  	XORWF FC_CAL_PWM_0005E_arg_prescaler, W
0047  1903  	BTFSC STATUS,Z
0048  085E  	MOVF FC_CAL_PWM_0005E_arg_prescaler+D'1', W
0049  1903  	BTFSC STATUS,Z
004A  2858  	GOTO	label4
004B  3004  	MOVLW 0x04
004C  065D  	XORWF FC_CAL_PWM_0005E_arg_prescaler, W
004D  1903  	BTFSC STATUS,Z
004E  085E  	MOVF FC_CAL_PWM_0005E_arg_prescaler+D'1', W
004F  1903  	BTFSC STATUS,Z
0050  285B  	GOTO	label5
0051  3010  	MOVLW 0x10
0052  065D  	XORWF FC_CAL_PWM_0005E_arg_prescaler, W
0053  1903  	BTFSC STATUS,Z
0054  085E  	MOVF FC_CAL_PWM_0005E_arg_prescaler+D'1', W
0055  1903  	BTFSC STATUS,Z
0056  285E  	GOTO	label6
0057  0008  	RETURN
0058        label4
0058  3004  	MOVLW 0x04
0059  0092  	MOVWF gbl_t2con
005A  0008  	RETURN
005B        label5
005B  3005  	MOVLW 0x05
005C  0092  	MOVWF gbl_t2con
005D  0008  	RETURN
005E        label6
005E  3006  	MOVLW 0x06
005F  0092  	MOVWF gbl_t2con
0060  0008  	RETURN
0061        ; } FC_CAL_PWM_Change_Period_1 function end

	ORG 0x00000061
0061        FC_CAL_PWM_0005D
0061        ; { FC_CAL_PWM_Set_Duty_8Bit_1 ; function begin
0061  085D  	MOVF FC_CAL_PWM_0005D_arg_duty, W
0062  0095  	MOVWF gbl_ccpr1l
0063  0008  	RETURN
0064        ; } FC_CAL_PWM_Set_Duty_8Bit_1 function end

	ORG 0x00000064
0064        FC_CAL_PWM_0005C
0064        ; { FC_CAL_PWM_Disable_Channel_1 ; function begin
0064  1283  	BCF STATUS, RP0
0065  1303  	BCF STATUS, RP1
0066  0197  	CLRF gbl_ccp1con
0067  1683  	BSF STATUS, RP0
0068  1507  	BSF gbl_trisc,2
0069  0008  	RETURN
006A        ; } FC_CAL_PWM_Disable_Channel_1 function end

	ORG 0x0000006A
006A        FC_CAL_PWM_0005B
006A        ; { FC_CAL_PWM_Enable_Channel_1 ; function begin
006A  1683  	BSF STATUS, RP0
006B  1303  	BCF STATUS, RP1
006C  1107  	BCF gbl_trisc,2
006D  1283  	BCF STATUS, RP0
006E  1107  	BCF gbl_portc,2
006F  300C  	MOVLW 0x0C
0070  0097  	MOVWF gbl_ccp1con
0071  0008  	RETURN
0072        ; } FC_CAL_PWM_Enable_Channel_1 function end

	ORG 0x00000072
0072        __rem_16_1_00004
0072        ; { __rem_16_16 ; function begin
0072  01E8  	CLRF CompTempVarRet216
0073  01E9  	CLRF CompTempVarRet216+D'1'
0074  01E5  	CLRF __rem_16_1_00004_1_c
0075  01E6  	CLRF __rem_16_1_00004_1_c+D'1'
0076  01E7  	CLRF __rem_16_1_00004_1_i
0077        label7
0077  1A67  	BTFSC __rem_16_1_00004_1_i,4
0078  0008  	RETURN
0079  1003  	BCF STATUS,C
007A  0DE5  	RLF __rem_16_1_00004_1_c, F
007B  0DE6  	RLF __rem_16_1_00004_1_c+D'1', F
007C  0DDC  	RLF __rem_16_1_00004_arg_a, F
007D  0DDD  	RLF __rem_16_1_00004_arg_a+D'1', F
007E  0DE8  	RLF CompTempVarRet216, F
007F  0DE9  	RLF CompTempVarRet216+D'1', F
0080  085F  	MOVF __rem_16_1_00004_arg_b+D'1', W
0081  0269  	SUBWF CompTempVarRet216+D'1', W
0082  1D03  	BTFSS STATUS,Z
0083  2886  	GOTO	label8
0084  085E  	MOVF __rem_16_1_00004_arg_b, W
0085  0268  	SUBWF CompTempVarRet216, W
0086        label8
0086  1C03  	BTFSS STATUS,C
0087  288F  	GOTO	label9
0088  085E  	MOVF __rem_16_1_00004_arg_b, W
0089  02E8  	SUBWF CompTempVarRet216, F
008A  085F  	MOVF __rem_16_1_00004_arg_b+D'1', W
008B  1C03  	BTFSS STATUS,C
008C  03E9  	DECF CompTempVarRet216+D'1', F
008D  02E9  	SUBWF CompTempVarRet216+D'1', F
008E  1465  	BSF __rem_16_1_00004_1_c,0
008F        label9
008F  0AE7  	INCF __rem_16_1_00004_1_i, F
0090  2877  	GOTO	label7
0091        ; } __rem_16_16 function end

	ORG 0x00000091
0091        __div_16_1_00003
0091        ; { __div_16_16 ; function begin
0091  01E6  	CLRF __div_16_1_00003_1_r
0092  01E7  	CLRF __div_16_1_00003_1_r+D'1'
0093  01E9  	CLRF CompTempVarRet214
0094  01EA  	CLRF CompTempVarRet214+D'1'
0095  01E8  	CLRF __div_16_1_00003_1_i
0096        label10
0096  1A68  	BTFSC __div_16_1_00003_1_i,4
0097  0008  	RETURN
0098  1003  	BCF STATUS,C
0099  0DE9  	RLF CompTempVarRet214, F
009A  0DEA  	RLF CompTempVarRet214+D'1', F
009B  0DE0  	RLF __div_16_1_00003_arg_a, F
009C  0DE1  	RLF __div_16_1_00003_arg_a+D'1', F
009D  0DE6  	RLF __div_16_1_00003_1_r, F
009E  0DE7  	RLF __div_16_1_00003_1_r+D'1', F
009F  0863  	MOVF __div_16_1_00003_arg_b+D'1', W
00A0  0267  	SUBWF __div_16_1_00003_1_r+D'1', W
00A1  1D03  	BTFSS STATUS,Z
00A2  28A5  	GOTO	label11
00A3  0862  	MOVF __div_16_1_00003_arg_b, W
00A4  0266  	SUBWF __div_16_1_00003_1_r, W
00A5        label11
00A5  1C03  	BTFSS STATUS,C
00A6  28AE  	GOTO	label12
00A7  0862  	MOVF __div_16_1_00003_arg_b, W
00A8  02E6  	SUBWF __div_16_1_00003_1_r, F
00A9  0863  	MOVF __div_16_1_00003_arg_b+D'1', W
00AA  1C03  	BTFSS STATUS,C
00AB  03E7  	DECF __div_16_1_00003_1_r+D'1', F
00AC  02E7  	SUBWF __div_16_1_00003_1_r+D'1', F
00AD  1469  	BSF CompTempVarRet214,0
00AE        label12
00AE  0AE8  	INCF __div_16_1_00003_1_i, F
00AF  2896  	GOTO	label10
00B0        ; } __div_16_16 function end

	ORG 0x000000B0
00B0        FC_CAL_UAR_00065
00B0        ; { FC_CAL_UART_Receive_1 ; function begin
00B0  30FF  	MOVLW 0xFF
00B1  00DE  	MOVWF FC_CAL_UAR_00065_1_retVal
00B2  01DF  	CLRF FC_CAL_UAR_00065_1_delay1
00B3  01E0  	CLRF FC_CAL_UAR_00065_1_regcheck
00B4  01E1  	CLRF FC_CAL_UAR_00065_1_bWaitForever
00B5  01E2  	CLRF FC_CAL_UAR_00065_1_rxStatus
00B6  01E3  	CLRF FC_CAL_UAR_00065_1_dummy
00B7  0A5D  	INCF FC_CAL_UAR_00065_arg_nTimeout, W
00B8  1D03  	BTFSS STATUS,Z
00B9  28BC  	GOTO	label13
00BA  3001  	MOVLW 0x01
00BB  00E1  	MOVWF FC_CAL_UAR_00065_1_bWaitForever
00BC        label13
00BC  08E2  	MOVF FC_CAL_UAR_00065_1_rxStatus, F
00BD  1D03  	BTFSS STATUS,Z
00BE  28DE  	GOTO	label16
00BF  08E1  	MOVF FC_CAL_UAR_00065_1_bWaitForever, F
00C0  1D03  	BTFSS STATUS,Z
00C1  28D5  	GOTO	label15
00C2  08DD  	MOVF FC_CAL_UAR_00065_arg_nTimeout, F
00C3  1D03  	BTFSS STATUS,Z
00C4  28C8  	GOTO	label14
00C5  3001  	MOVLW 0x01
00C6  00E2  	MOVWF FC_CAL_UAR_00065_1_rxStatus
00C7  28D5  	GOTO	label15
00C8        label14
00C8  300A  	MOVLW 0x0A
00C9  00E4  	MOVWF delay_us_00000_arg_del
00CA  2010  	CALL delay_us_00000
00CB  0A5F  	INCF FC_CAL_UAR_00065_1_delay1, W
00CC  00DF  	MOVWF FC_CAL_UAR_00065_1_delay1
00CD  085F  	MOVF FC_CAL_UAR_00065_1_delay1, W
00CE  3A64  	XORLW 0x64
00CF  1D03  	BTFSS STATUS,Z
00D0  28D5  	GOTO	label15
00D1  035D  	DECF FC_CAL_UAR_00065_arg_nTimeout, W
00D2  00DD  	MOVWF FC_CAL_UAR_00065_arg_nTimeout
00D3  0064  	CLRWDT
00D4  01DF  	CLRF FC_CAL_UAR_00065_1_delay1
00D5        label15
00D5  3020  	MOVLW 0x20
00D6  050C  	ANDWF gbl_pir1, W
00D7  00E0  	MOVWF FC_CAL_UAR_00065_1_regcheck
00D8  08E0  	MOVF FC_CAL_UAR_00065_1_regcheck, F
00D9  1903  	BTFSC STATUS,Z
00DA  28BC  	GOTO	label13
00DB  3002  	MOVLW 0x02
00DC  00E2  	MOVWF FC_CAL_UAR_00065_1_rxStatus
00DD  28BC  	GOTO	label13
00DE        label16
00DE  0862  	MOVF FC_CAL_UAR_00065_1_rxStatus, W
00DF  3A02  	XORLW 0x02
00E0  1D03  	BTFSS STATUS,Z
00E1  28F8  	GOTO	label19
00E2  3004  	MOVLW 0x04
00E3  0518  	ANDWF gbl_rcsta, W
00E4  00E0  	MOVWF FC_CAL_UAR_00065_1_regcheck
00E5  08E0  	MOVF FC_CAL_UAR_00065_1_regcheck, F
00E6  1903  	BTFSC STATUS,Z
00E7  28EB  	GOTO	label17
00E8  081A  	MOVF gbl_rcreg, W
00E9  00E3  	MOVWF FC_CAL_UAR_00065_1_dummy
00EA  28F8  	GOTO	label19
00EB        label17
00EB  3002  	MOVLW 0x02
00EC  0518  	ANDWF gbl_rcsta, W
00ED  00E0  	MOVWF FC_CAL_UAR_00065_1_regcheck
00EE  08E0  	MOVF FC_CAL_UAR_00065_1_regcheck, F
00EF  1903  	BTFSC STATUS,Z
00F0  28F4  	GOTO	label18
00F1  1218  	BCF gbl_rcsta,4
00F2  1618  	BSF gbl_rcsta,4
00F3  28F8  	GOTO	label19
00F4        label18
00F4  01DE  	CLRF FC_CAL_UAR_00065_1_retVal
00F5  081A  	MOVF gbl_rcreg, W
00F6  045E  	IORWF FC_CAL_UAR_00065_1_retVal, W
00F7  00DE  	MOVWF FC_CAL_UAR_00065_1_retVal
00F8        label19
00F8  085E  	MOVF FC_CAL_UAR_00065_1_retVal, W
00F9  00E4  	MOVWF CompTempVarRet2237
00FA  01E5  	CLRF CompTempVarRet2237+D'1'
00FB  0008  	RETURN
00FC        ; } FC_CAL_UART_Receive_1 function end

	ORG 0x000000FC
00FC        FCM_displa_00052
00FC        ; { FCM_display ; function begin
00FC  1283  	BCF STATUS, RP0
00FD  1303  	BCF STATUS, RP1
00FE  01D4  	CLRF gbl_FCLV_LOOP2
00FF        label20
00FF  3008  	MOVLW 0x08
0100  0254  	SUBWF gbl_FCLV_LOOP2, W
0101  1803  	BTFSC STATUS,C
0102  293D  	GOTO	label23
0103  3001  	MOVLW 0x01
0104  054D  	ANDWF gbl_FCV_BITS, W
0105  00DC  	MOVWF CompTempVar2188
0106  01DD  	CLRF CompTempVar2189
0107  08DC  	MOVF CompTempVar2188, F
0108  1D03  	BTFSS STATUS,Z
0109  145D  	BSF CompTempVar2189,0
010A  104C  	BCF gbl_FCV_DAT,0
010B  085D  	MOVF CompTempVar2189, W
010C  1D03  	BTFSS STATUS,Z
010D  144C  	BSF gbl_FCV_DAT,0
010E  30FE  	MOVLW 0xFE
010F  1683  	BSF STATUS, RP0
0110  0505  	ANDWF gbl_trisa, W
0111  0085  	MOVWF gbl_trisa
0112  1283  	BCF STATUS, RP0
0113  1C4C  	BTFSS gbl_FCV_DAT,0
0114  291C  	GOTO	label21
0115  30FE  	MOVLW 0xFE
0116  0505  	ANDWF gbl_porta, W
0117  00DC  	MOVWF CompTempVar2190
0118  3001  	MOVLW 0x01
0119  045C  	IORWF CompTempVar2190, W
011A  0085  	MOVWF gbl_porta
011B  291F  	GOTO	label22
011C        label21
011C  30FE  	MOVLW 0xFE
011D  0505  	ANDWF gbl_porta, W
011E  0085  	MOVWF gbl_porta
011F        label22
011F  30DF  	MOVLW 0xDF
0120  1683  	BSF STATUS, RP0
0121  0506  	ANDWF gbl_trisb, W
0122  0086  	MOVWF gbl_trisb
0123  30DF  	MOVLW 0xDF
0124  1283  	BCF STATUS, RP0
0125  0506  	ANDWF gbl_portb, W
0126  00DC  	MOVWF CompTempVar2191
0127  3020  	MOVLW 0x20
0128  045C  	IORWF CompTempVar2191, W
0129  0086  	MOVWF gbl_portb
012A  300A  	MOVLW 0x0A
012B  00E4  	MOVWF delay_us_00000_arg_del
012C  2010  	CALL delay_us_00000
012D  30DF  	MOVLW 0xDF
012E  1683  	BSF STATUS, RP0
012F  0506  	ANDWF gbl_trisb, W
0130  0086  	MOVWF gbl_trisb
0131  30DF  	MOVLW 0xDF
0132  1283  	BCF STATUS, RP0
0133  0506  	ANDWF gbl_portb, W
0134  0086  	MOVWF gbl_portb
0135  300A  	MOVLW 0x0A
0136  00E4  	MOVWF delay_us_00000_arg_del
0137  2010  	CALL delay_us_00000
0138  08CD  	MOVF gbl_FCV_BITS, F
0139  1003  	BCF STATUS,C
013A  0CCD  	RRF gbl_FCV_BITS, F
013B  0AD4  	INCF gbl_FCLV_LOOP2, F
013C  28FF  	GOTO	label20
013D        label23
013D  30EF  	MOVLW 0xEF
013E  1683  	BSF STATUS, RP0
013F  0506  	ANDWF gbl_trisb, W
0140  0086  	MOVWF gbl_trisb
0141  30EF  	MOVLW 0xEF
0142  1283  	BCF STATUS, RP0
0143  0506  	ANDWF gbl_portb, W
0144  00DC  	MOVWF CompTempVar2193
0145  3010  	MOVLW 0x10
0146  045C  	IORWF CompTempVar2193, W
0147  0086  	MOVWF gbl_portb
0148  300A  	MOVLW 0x0A
0149  00E4  	MOVWF delay_us_00000_arg_del
014A  2010  	CALL delay_us_00000
014B  30EF  	MOVLW 0xEF
014C  1683  	BSF STATUS, RP0
014D  0506  	ANDWF gbl_trisb, W
014E  0086  	MOVWF gbl_trisb
014F  30EF  	MOVLW 0xEF
0150  1283  	BCF STATUS, RP0
0151  0506  	ANDWF gbl_portb, W
0152  0086  	MOVWF gbl_portb
0153  300A  	MOVLW 0x0A
0154  00E4  	MOVWF delay_us_00000_arg_del
0155  2010  	CALL delay_us_00000
0156  0008  	RETURN
0157        ; } FCM_display function end

	ORG 0x00000157
0157        FCM_databa_00051
0157        ; { FCM_databank ; function begin
0157  1283  	BCF STATUS, RP0
0158  1303  	BCF STATUS, RP1
0159  0850  	MOVF gbl_FCV_DIGIT, W
015A  3A01  	XORLW 0x01
015B  1903  	BTFSC STATUS,Z
015C  2979  	GOTO	label24
015D  3A03  	XORLW 0x03
015E  1903  	BTFSC STATUS,Z
015F  297C  	GOTO	label25
0160  3A01  	XORLW 0x01
0161  1903  	BTFSC STATUS,Z
0162  297F  	GOTO	label26
0163  3A07  	XORLW 0x07
0164  1903  	BTFSC STATUS,Z
0165  2982  	GOTO	label27
0166  3A01  	XORLW 0x01
0167  1903  	BTFSC STATUS,Z
0168  2985  	GOTO	label28
0169  3A03  	XORLW 0x03
016A  1903  	BTFSC STATUS,Z
016B  2988  	GOTO	label29
016C  3A01  	XORLW 0x01
016D  1903  	BTFSC STATUS,Z
016E  298B  	GOTO	label30
016F  3A0F  	XORLW 0x0F
0170  1903  	BTFSC STATUS,Z
0171  298E  	GOTO	label31
0172  3A01  	XORLW 0x01
0173  1903  	BTFSC STATUS,Z
0174  2991  	GOTO	label32
0175  3A09  	XORLW 0x09
0176  1903  	BTFSC STATUS,Z
0177  2994  	GOTO	label33
0178  0008  	RETURN
0179        label24
0179  309F  	MOVLW 0x9F
017A  00CD  	MOVWF gbl_FCV_BITS
017B  0008  	RETURN
017C        label25
017C  3024  	MOVLW 0x24
017D  00CD  	MOVWF gbl_FCV_BITS
017E  0008  	RETURN
017F        label26
017F  300D  	MOVLW 0x0D
0180  00CD  	MOVWF gbl_FCV_BITS
0181  0008  	RETURN
0182        label27
0182  3099  	MOVLW 0x99
0183  00CD  	MOVWF gbl_FCV_BITS
0184  0008  	RETURN
0185        label28
0185  3049  	MOVLW 0x49
0186  00CD  	MOVWF gbl_FCV_BITS
0187  0008  	RETURN
0188        label29
0188  3041  	MOVLW 0x41
0189  00CD  	MOVWF gbl_FCV_BITS
018A  0008  	RETURN
018B        label30
018B  301F  	MOVLW 0x1F
018C  00CD  	MOVWF gbl_FCV_BITS
018D  0008  	RETURN
018E        label31
018E  3001  	MOVLW 0x01
018F  00CD  	MOVWF gbl_FCV_BITS
0190  0008  	RETURN
0191        label32
0191  3009  	MOVLW 0x09
0192  00CD  	MOVWF gbl_FCV_BITS
0193  0008  	RETURN
0194        label33
0194  3003  	MOVLW 0x03
0195  00CD  	MOVWF gbl_FCV_BITS
0196  0008  	RETURN
0197        ; } FCM_databank function end

	ORG 0x00000197
0197        FCD_PWM0_S_00059
0197        ; { FCD_PWM0_SetDutyCycle ; function begin
0197  085C  	MOVF FCD_PWM0_S_00059_arg_nDuty, W
0198  00DD  	MOVWF FC_CAL_PWM_0005D_arg_duty
0199  2061  	CALL FC_CAL_PWM_0005D
019A  0008  	RETURN
019B        ; } FCD_PWM0_SetDutyCycle function end

	ORG 0x0000019B
019B        FCD_PWM0_E_00058
019B        ; { FCD_PWM0_Enable ; function begin
019B  3050  	MOVLW 0x50
019C  1283  	BCF STATUS, RP0
019D  1303  	BCF STATUS, RP1
019E  00DC  	MOVWF FC_CAL_PWM_0005E_arg_period
019F  3010  	MOVLW 0x10
01A0  00DD  	MOVWF FC_CAL_PWM_0005E_arg_prescaler
01A1  01DE  	CLRF FC_CAL_PWM_0005E_arg_prescaler+D'1'
01A2  2041  	CALL FC_CAL_PWM_0005E
01A3  206A  	CALL FC_CAL_PWM_0005B
01A4  0008  	RETURN
01A5        ; } FCD_PWM0_Enable function end

	ORG 0x000001A5
01A5        FCD_PWM0_D_0005A
01A5        ; { FCD_PWM0_Disable ; function begin
01A5  2064  	CALL FC_CAL_PWM_0005C
01A6  0008  	RETURN
01A7        ; } FCD_PWM0_Disable function end

	ORG 0x000001A7
01A7        FCM_reset_00000
01A7        ; { FCM_reset ; function begin
01A7  30FF  	MOVLW 0xFF
01A8  1283  	BCF STATUS, RP0
01A9  1303  	BCF STATUS, RP1
01AA  063A  	XORWF gbl_FCV_QUE1+D'1', W
01AB  1D03  	BTFSS STATUS,Z
01AC  29B1  	GOTO	label34
01AD  0839  	MOVF gbl_FCV_QUE1, W
01AE  3AFF  	XORLW 0xFF
01AF  1903  	BTFSC STATUS,Z
01B0  29BA  	GOTO	label35
01B1        label34
01B1  0839  	MOVF gbl_FCV_QUE1, W
01B2  3AE8  	XORLW 0xE8
01B3  1FBA  	BTFSS gbl_FCV_QUE1+D'1',7
01B4  3003  	MOVLW 0x03
01B5  1903  	BTFSC STATUS,Z
01B6  063A  	XORWF gbl_FCV_QUE1+D'1', W
01B7  1903  	BTFSC STATUS,Z
01B8  29BF  	GOTO	label36
01B9  29D4  	GOTO	label38
01BA        label35
01BA  30E7  	MOVLW 0xE7
01BB  00B9  	MOVWF gbl_FCV_QUE1
01BC  3003  	MOVLW 0x03
01BD  00BA  	MOVWF gbl_FCV_QUE1+D'1'
01BE  29D4  	GOTO	label38
01BF        label36
01BF  01B9  	CLRF gbl_FCV_QUE1
01C0  01BA  	CLRF gbl_FCV_QUE1+D'1'
01C1  01D8  	CLRF gbl_FCLV_LOOP6
01C2        label37
01C2  300A  	MOVLW 0x0A
01C3  0258  	SUBWF gbl_FCLV_LOOP6, W
01C4  1803  	BTFSC STATUS,C
01C5  29D4  	GOTO	label38
01C6  219B  	CALL FCD_PWM0_E_00058
01C7  304B  	MOVLW 0x4B
01C8  00DC  	MOVWF FCD_PWM0_S_00059_arg_nDuty
01C9  2197  	CALL FCD_PWM0_S_00059
01CA  3096  	MOVLW 0x96
01CB  00DC  	MOVWF delay_ms_00000_arg_del
01CC  2015  	CALL delay_ms_00000
01CD  21A5  	CALL FCD_PWM0_D_0005A
01CE  3096  	MOVLW 0x96
01CF  1283  	BCF STATUS, RP0
01D0  00DC  	MOVWF delay_ms_00000_arg_del
01D1  2015  	CALL delay_ms_00000
01D2  0AD8  	INCF gbl_FCLV_LOOP6, F
01D3  29C2  	GOTO	label37
01D4        label38
01D4  30FF  	MOVLW 0xFF
01D5  063C  	XORWF gbl_FCV_QUE2+D'1', W
01D6  1D03  	BTFSS STATUS,Z
01D7  29DC  	GOTO	label39
01D8  083B  	MOVF gbl_FCV_QUE2, W
01D9  3AFF  	XORLW 0xFF
01DA  1903  	BTFSC STATUS,Z
01DB  29E5  	GOTO	label40
01DC        label39
01DC  083B  	MOVF gbl_FCV_QUE2, W
01DD  3AE8  	XORLW 0xE8
01DE  1FBC  	BTFSS gbl_FCV_QUE2+D'1',7
01DF  3003  	MOVLW 0x03
01E0  1903  	BTFSC STATUS,Z
01E1  063C  	XORWF gbl_FCV_QUE2+D'1', W
01E2  1903  	BTFSC STATUS,Z
01E3  29EA  	GOTO	label41
01E4  29FF  	GOTO	label43
01E5        label40
01E5  30E7  	MOVLW 0xE7
01E6  00BB  	MOVWF gbl_FCV_QUE2
01E7  3003  	MOVLW 0x03
01E8  00BC  	MOVWF gbl_FCV_QUE2+D'1'
01E9  29FF  	GOTO	label43
01EA        label41
01EA  01BB  	CLRF gbl_FCV_QUE2
01EB  01BC  	CLRF gbl_FCV_QUE2+D'1'
01EC  01D9  	CLRF gbl_FCLV_LOOP7
01ED        label42
01ED  300A  	MOVLW 0x0A
01EE  0259  	SUBWF gbl_FCLV_LOOP7, W
01EF  1803  	BTFSC STATUS,C
01F0  29FF  	GOTO	label43
01F1  219B  	CALL FCD_PWM0_E_00058
01F2  304B  	MOVLW 0x4B
01F3  00DC  	MOVWF FCD_PWM0_S_00059_arg_nDuty
01F4  2197  	CALL FCD_PWM0_S_00059
01F5  3096  	MOVLW 0x96
01F6  00DC  	MOVWF delay_ms_00000_arg_del
01F7  2015  	CALL delay_ms_00000
01F8  21A5  	CALL FCD_PWM0_D_0005A
01F9  3096  	MOVLW 0x96
01FA  1283  	BCF STATUS, RP0
01FB  00DC  	MOVWF delay_ms_00000_arg_del
01FC  2015  	CALL delay_ms_00000
01FD  0AD9  	INCF gbl_FCLV_LOOP7, F
01FE  29ED  	GOTO	label42
01FF        label43
01FF  30FF  	MOVLW 0xFF
0200  063E  	XORWF gbl_FCV_QUE3+D'1', W
0201  1D03  	BTFSS STATUS,Z
0202  2A07  	GOTO	label44
0203  083D  	MOVF gbl_FCV_QUE3, W
0204  3AFF  	XORLW 0xFF
0205  1903  	BTFSC STATUS,Z
0206  2A10  	GOTO	label45
0207        label44
0207  083D  	MOVF gbl_FCV_QUE3, W
0208  3AE8  	XORLW 0xE8
0209  1FBE  	BTFSS gbl_FCV_QUE3+D'1',7
020A  3003  	MOVLW 0x03
020B  1903  	BTFSC STATUS,Z
020C  063E  	XORWF gbl_FCV_QUE3+D'1', W
020D  1903  	BTFSC STATUS,Z
020E  2A15  	GOTO	label46
020F  0008  	RETURN
0210        label45
0210  30E7  	MOVLW 0xE7
0211  00BD  	MOVWF gbl_FCV_QUE3
0212  3003  	MOVLW 0x03
0213  00BE  	MOVWF gbl_FCV_QUE3+D'1'
0214  0008  	RETURN
0215        label46
0215  01BD  	CLRF gbl_FCV_QUE3
0216  01BE  	CLRF gbl_FCV_QUE3+D'1'
0217  01DA  	CLRF gbl_FCLV_LOOP8
0218        label47
0218  300A  	MOVLW 0x0A
0219  025A  	SUBWF gbl_FCLV_LOOP8, W
021A  1803  	BTFSC STATUS,C
021B  0008  	RETURN
021C  219B  	CALL FCD_PWM0_E_00058
021D  304B  	MOVLW 0x4B
021E  00DC  	MOVWF FCD_PWM0_S_00059_arg_nDuty
021F  2197  	CALL FCD_PWM0_S_00059
0220  3096  	MOVLW 0x96
0221  00DC  	MOVWF delay_ms_00000_arg_del
0222  2015  	CALL delay_ms_00000
0223  21A5  	CALL FCD_PWM0_D_0005A
0224  3096  	MOVLW 0x96
0225  1283  	BCF STATUS, RP0
0226  00DC  	MOVWF delay_ms_00000_arg_del
0227  2015  	CALL delay_ms_00000
0228  0ADA  	INCF gbl_FCLV_LOOP8, F
0229  2A18  	GOTO	label47
022A        ; } FCM_reset function end

	ORG 0x0000022A
022A        FCM_displa_00055
022A        ; { FCM_display_win3 ; function begin
022A  1283  	BCF STATUS, RP0
022B  1303  	BCF STATUS, RP1
022C  01DC  	CLRF CompTempVar2209
022D  083D  	MOVF gbl_FCV_QUE3, W
022E  00E0  	MOVWF __div_16_1_00003_arg_a
022F  083E  	MOVF gbl_FCV_QUE3+D'1', W
0230  00E1  	MOVWF __div_16_1_00003_arg_a+D'1'
0231  1FBE  	BTFSS gbl_FCV_QUE3+D'1',7
0232  2A39  	GOTO	label48
0233  09E0  	COMF __div_16_1_00003_arg_a, F
0234  09E1  	COMF __div_16_1_00003_arg_a+D'1', F
0235  0AE0  	INCF __div_16_1_00003_arg_a, F
0236  1903  	BTFSC STATUS,Z
0237  0AE1  	INCF __div_16_1_00003_arg_a+D'1', F
0238  0ADC  	INCF CompTempVar2209, F
0239        label48
0239  3064  	MOVLW 0x64
023A  00E2  	MOVWF __div_16_1_00003_arg_b
023B  01E3  	CLRF __div_16_1_00003_arg_b+D'1'
023C  2091  	CALL __div_16_1_00003
023D  0869  	MOVF CompTempVarRet214, W
023E  00D2  	MOVWF gbl_FCV_HUNDREDS
023F  1C5C  	BTFSS CompTempVar2209,0
0240  2A43  	GOTO	label49
0241  09D2  	COMF gbl_FCV_HUNDREDS, F
0242  0AD2  	INCF gbl_FCV_HUNDREDS, F
0243        label49
0243  083D  	MOVF gbl_FCV_QUE3, W
0244  00DC  	MOVWF __rem_16_1_00004_arg_a
0245  083E  	MOVF gbl_FCV_QUE3+D'1', W
0246  00DD  	MOVWF __rem_16_1_00004_arg_a+D'1'
0247  1FBE  	BTFSS gbl_FCV_QUE3+D'1',7
0248  2A4E  	GOTO	label50
0249  09DC  	COMF __rem_16_1_00004_arg_a, F
024A  09DD  	COMF __rem_16_1_00004_arg_a+D'1', F
024B  0ADC  	INCF __rem_16_1_00004_arg_a, F
024C  1903  	BTFSC STATUS,Z
024D  0ADD  	INCF __rem_16_1_00004_arg_a+D'1', F
024E        label50
024E  3064  	MOVLW 0x64
024F  00DE  	MOVWF __rem_16_1_00004_arg_b
0250  01DF  	CLRF __rem_16_1_00004_arg_b+D'1'
0251  2072  	CALL __rem_16_1_00004
0252  0868  	MOVF CompTempVarRet216, W
0253  00E0  	MOVWF __div_16_1_00003_arg_a
0254  0869  	MOVF CompTempVarRet216+D'1', W
0255  00E4  	MOVWF CompTempVar2211
0256  1FBE  	BTFSS gbl_FCV_QUE3+D'1',7
0257  2A5D  	GOTO	label51
0258  09E0  	COMF __div_16_1_00003_arg_a, F
0259  09E4  	COMF CompTempVar2211, F
025A  0AE0  	INCF __div_16_1_00003_arg_a, F
025B  1903  	BTFSC STATUS,Z
025C  0AE4  	INCF CompTempVar2211, F
025D        label51
025D  01E5  	CLRF CompTempVar2213
025E  0864  	MOVF CompTempVar2211, W
025F  00E1  	MOVWF __div_16_1_00003_arg_a+D'1'
0260  1FE4  	BTFSS CompTempVar2211,7
0261  2A68  	GOTO	label52
0262  09E0  	COMF __div_16_1_00003_arg_a, F
0263  09E1  	COMF __div_16_1_00003_arg_a+D'1', F
0264  0AE0  	INCF __div_16_1_00003_arg_a, F
0265  1903  	BTFSC STATUS,Z
0266  0AE1  	INCF __div_16_1_00003_arg_a+D'1', F
0267  0AE5  	INCF CompTempVar2213, F
0268        label52
0268  300A  	MOVLW 0x0A
0269  00E2  	MOVWF __div_16_1_00003_arg_b
026A  01E3  	CLRF __div_16_1_00003_arg_b+D'1'
026B  2091  	CALL __div_16_1_00003
026C  0869  	MOVF CompTempVarRet214, W
026D  00CE  	MOVWF gbl_FCV_TENS
026E  1C65  	BTFSS CompTempVar2213,0
026F  2A72  	GOTO	label53
0270  09CE  	COMF gbl_FCV_TENS, F
0271  0ACE  	INCF gbl_FCV_TENS, F
0272        label53
0272  083D  	MOVF gbl_FCV_QUE3, W
0273  00DC  	MOVWF __rem_16_1_00004_arg_a
0274  083E  	MOVF gbl_FCV_QUE3+D'1', W
0275  00DD  	MOVWF __rem_16_1_00004_arg_a+D'1'
0276  1FBE  	BTFSS gbl_FCV_QUE3+D'1',7
0277  2A7D  	GOTO	label54
0278  09DC  	COMF __rem_16_1_00004_arg_a, F
0279  09DD  	COMF __rem_16_1_00004_arg_a+D'1', F
027A  0ADC  	INCF __rem_16_1_00004_arg_a, F
027B  1903  	BTFSC STATUS,Z
027C  0ADD  	INCF __rem_16_1_00004_arg_a+D'1', F
027D        label54
027D  300A  	MOVLW 0x0A
027E  00DE  	MOVWF __rem_16_1_00004_arg_b
027F  01DF  	CLRF __rem_16_1_00004_arg_b+D'1'
0280  2072  	CALL __rem_16_1_00004
0281  0868  	MOVF CompTempVarRet216, W
0282  00D1  	MOVWF gbl_FCV_ONES
0283  1FBE  	BTFSS gbl_FCV_QUE3+D'1',7
0284  2A87  	GOTO	label55
0285  09D1  	COMF gbl_FCV_ONES, F
0286  0AD1  	INCF gbl_FCV_ONES, F
0287        label55
0287  3003  	MOVLW 0x03
0288  00CB  	MOVWF gbl_FCV_WINDOW
0289  084B  	MOVF gbl_FCV_WINDOW, W
028A  00D0  	MOVWF gbl_FCV_DIGIT
028B  2157  	CALL FCM_databa_00051
028C  20FC  	CALL FCM_displa_00052
028D  0851  	MOVF gbl_FCV_ONES, W
028E  00D0  	MOVWF gbl_FCV_DIGIT
028F  2157  	CALL FCM_databa_00051
0290  20FC  	CALL FCM_displa_00052
0291  084E  	MOVF gbl_FCV_TENS, W
0292  00D0  	MOVWF gbl_FCV_DIGIT
0293  2157  	CALL FCM_databa_00051
0294  20FC  	CALL FCM_displa_00052
0295  0852  	MOVF gbl_FCV_HUNDREDS, W
0296  00D0  	MOVWF gbl_FCV_DIGIT
0297  2157  	CALL FCM_databa_00051
0298  20FC  	CALL FCM_displa_00052
0299  0008  	RETURN
029A        ; } FCM_display_win3 function end

	ORG 0x0000029A
029A        FCM_displa_00054
029A        ; { FCM_display_win2 ; function begin
029A  1283  	BCF STATUS, RP0
029B  1303  	BCF STATUS, RP1
029C  01DC  	CLRF CompTempVar2202
029D  083B  	MOVF gbl_FCV_QUE2, W
029E  00E0  	MOVWF __div_16_1_00003_arg_a
029F  083C  	MOVF gbl_FCV_QUE2+D'1', W
02A0  00E1  	MOVWF __div_16_1_00003_arg_a+D'1'
02A1  1FBC  	BTFSS gbl_FCV_QUE2+D'1',7
02A2  2AA9  	GOTO	label56
02A3  09E0  	COMF __div_16_1_00003_arg_a, F
02A4  09E1  	COMF __div_16_1_00003_arg_a+D'1', F
02A5  0AE0  	INCF __div_16_1_00003_arg_a, F
02A6  1903  	BTFSC STATUS,Z
02A7  0AE1  	INCF __div_16_1_00003_arg_a+D'1', F
02A8  0ADC  	INCF CompTempVar2202, F
02A9        label56
02A9  3064  	MOVLW 0x64
02AA  00E2  	MOVWF __div_16_1_00003_arg_b
02AB  01E3  	CLRF __div_16_1_00003_arg_b+D'1'
02AC  2091  	CALL __div_16_1_00003
02AD  0869  	MOVF CompTempVarRet214, W
02AE  00D2  	MOVWF gbl_FCV_HUNDREDS
02AF  1C5C  	BTFSS CompTempVar2202,0
02B0  2AB3  	GOTO	label57
02B1  09D2  	COMF gbl_FCV_HUNDREDS, F
02B2  0AD2  	INCF gbl_FCV_HUNDREDS, F
02B3        label57
02B3  083B  	MOVF gbl_FCV_QUE2, W
02B4  00DC  	MOVWF __rem_16_1_00004_arg_a
02B5  083C  	MOVF gbl_FCV_QUE2+D'1', W
02B6  00DD  	MOVWF __rem_16_1_00004_arg_a+D'1'
02B7  1FBC  	BTFSS gbl_FCV_QUE2+D'1',7
02B8  2ABE  	GOTO	label58
02B9  09DC  	COMF __rem_16_1_00004_arg_a, F
02BA  09DD  	COMF __rem_16_1_00004_arg_a+D'1', F
02BB  0ADC  	INCF __rem_16_1_00004_arg_a, F
02BC  1903  	BTFSC STATUS,Z
02BD  0ADD  	INCF __rem_16_1_00004_arg_a+D'1', F
02BE        label58
02BE  3064  	MOVLW 0x64
02BF  00DE  	MOVWF __rem_16_1_00004_arg_b
02C0  01DF  	CLRF __rem_16_1_00004_arg_b+D'1'
02C1  2072  	CALL __rem_16_1_00004
02C2  0868  	MOVF CompTempVarRet216, W
02C3  00E0  	MOVWF __div_16_1_00003_arg_a
02C4  0869  	MOVF CompTempVarRet216+D'1', W
02C5  00E4  	MOVWF CompTempVar2204
02C6  1FBC  	BTFSS gbl_FCV_QUE2+D'1',7
02C7  2ACD  	GOTO	label59
02C8  09E0  	COMF __div_16_1_00003_arg_a, F
02C9  09E4  	COMF CompTempVar2204, F
02CA  0AE0  	INCF __div_16_1_00003_arg_a, F
02CB  1903  	BTFSC STATUS,Z
02CC  0AE4  	INCF CompTempVar2204, F
02CD        label59
02CD  01E5  	CLRF CompTempVar2206
02CE  0864  	MOVF CompTempVar2204, W
02CF  00E1  	MOVWF __div_16_1_00003_arg_a+D'1'
02D0  1FE4  	BTFSS CompTempVar2204,7
02D1  2AD8  	GOTO	label60
02D2  09E0  	COMF __div_16_1_00003_arg_a, F
02D3  09E1  	COMF __div_16_1_00003_arg_a+D'1', F
02D4  0AE0  	INCF __div_16_1_00003_arg_a, F
02D5  1903  	BTFSC STATUS,Z
02D6  0AE1  	INCF __div_16_1_00003_arg_a+D'1', F
02D7  0AE5  	INCF CompTempVar2206, F
02D8        label60
02D8  300A  	MOVLW 0x0A
02D9  00E2  	MOVWF __div_16_1_00003_arg_b
02DA  01E3  	CLRF __div_16_1_00003_arg_b+D'1'
02DB  2091  	CALL __div_16_1_00003
02DC  0869  	MOVF CompTempVarRet214, W
02DD  00CE  	MOVWF gbl_FCV_TENS
02DE  1C65  	BTFSS CompTempVar2206,0
02DF  2AE2  	GOTO	label61
02E0  09CE  	COMF gbl_FCV_TENS, F
02E1  0ACE  	INCF gbl_FCV_TENS, F
02E2        label61
02E2  083B  	MOVF gbl_FCV_QUE2, W
02E3  00DC  	MOVWF __rem_16_1_00004_arg_a
02E4  083C  	MOVF gbl_FCV_QUE2+D'1', W
02E5  00DD  	MOVWF __rem_16_1_00004_arg_a+D'1'
02E6  1FBC  	BTFSS gbl_FCV_QUE2+D'1',7
02E7  2AED  	GOTO	label62
02E8  09DC  	COMF __rem_16_1_00004_arg_a, F
02E9  09DD  	COMF __rem_16_1_00004_arg_a+D'1', F
02EA  0ADC  	INCF __rem_16_1_00004_arg_a, F
02EB  1903  	BTFSC STATUS,Z
02EC  0ADD  	INCF __rem_16_1_00004_arg_a+D'1', F
02ED        label62
02ED  300A  	MOVLW 0x0A
02EE  00DE  	MOVWF __rem_16_1_00004_arg_b
02EF  01DF  	CLRF __rem_16_1_00004_arg_b+D'1'
02F0  2072  	CALL __rem_16_1_00004
02F1  0868  	MOVF CompTempVarRet216, W
02F2  00D1  	MOVWF gbl_FCV_ONES
02F3  1FBC  	BTFSS gbl_FCV_QUE2+D'1',7
02F4  2AF7  	GOTO	label63
02F5  09D1  	COMF gbl_FCV_ONES, F
02F6  0AD1  	INCF gbl_FCV_ONES, F
02F7        label63
02F7  3002  	MOVLW 0x02
02F8  00CB  	MOVWF gbl_FCV_WINDOW
02F9  084B  	MOVF gbl_FCV_WINDOW, W
02FA  00D0  	MOVWF gbl_FCV_DIGIT
02FB  2157  	CALL FCM_databa_00051
02FC  20FC  	CALL FCM_displa_00052
02FD  0851  	MOVF gbl_FCV_ONES, W
02FE  00D0  	MOVWF gbl_FCV_DIGIT
02FF  2157  	CALL FCM_databa_00051
0300  20FC  	CALL FCM_displa_00052
0301  084E  	MOVF gbl_FCV_TENS, W
0302  00D0  	MOVWF gbl_FCV_DIGIT
0303  2157  	CALL FCM_databa_00051
0304  20FC  	CALL FCM_displa_00052
0305  0852  	MOVF gbl_FCV_HUNDREDS, W
0306  00D0  	MOVWF gbl_FCV_DIGIT
0307  2157  	CALL FCM_databa_00051
0308  20FC  	CALL FCM_displa_00052
0309  0008  	RETURN
030A        ; } FCM_display_win2 function end

	ORG 0x0000030A
030A        FCM_displa_00053
030A        ; { FCM_display_win1 ; function begin
030A  1283  	BCF STATUS, RP0
030B  1303  	BCF STATUS, RP1
030C  01DC  	CLRF CompTempVar2195
030D  0839  	MOVF gbl_FCV_QUE1, W
030E  00E0  	MOVWF __div_16_1_00003_arg_a
030F  083A  	MOVF gbl_FCV_QUE1+D'1', W
0310  00E1  	MOVWF __div_16_1_00003_arg_a+D'1'
0311  1FBA  	BTFSS gbl_FCV_QUE1+D'1',7
0312  2B19  	GOTO	label64
0313  09E0  	COMF __div_16_1_00003_arg_a, F
0314  09E1  	COMF __div_16_1_00003_arg_a+D'1', F
0315  0AE0  	INCF __div_16_1_00003_arg_a, F
0316  1903  	BTFSC STATUS,Z
0317  0AE1  	INCF __div_16_1_00003_arg_a+D'1', F
0318  0ADC  	INCF CompTempVar2195, F
0319        label64
0319  3064  	MOVLW 0x64
031A  00E2  	MOVWF __div_16_1_00003_arg_b
031B  01E3  	CLRF __div_16_1_00003_arg_b+D'1'
031C  2091  	CALL __div_16_1_00003
031D  0869  	MOVF CompTempVarRet214, W
031E  00D2  	MOVWF gbl_FCV_HUNDREDS
031F  1C5C  	BTFSS CompTempVar2195,0
0320  2B23  	GOTO	label65
0321  09D2  	COMF gbl_FCV_HUNDREDS, F
0322  0AD2  	INCF gbl_FCV_HUNDREDS, F
0323        label65
0323  0839  	MOVF gbl_FCV_QUE1, W
0324  00DC  	MOVWF __rem_16_1_00004_arg_a
0325  083A  	MOVF gbl_FCV_QUE1+D'1', W
0326  00DD  	MOVWF __rem_16_1_00004_arg_a+D'1'
0327  1FBA  	BTFSS gbl_FCV_QUE1+D'1',7
0328  2B2E  	GOTO	label66
0329  09DC  	COMF __rem_16_1_00004_arg_a, F
032A  09DD  	COMF __rem_16_1_00004_arg_a+D'1', F
032B  0ADC  	INCF __rem_16_1_00004_arg_a, F
032C  1903  	BTFSC STATUS,Z
032D  0ADD  	INCF __rem_16_1_00004_arg_a+D'1', F
032E        label66
032E  3064  	MOVLW 0x64
032F  00DE  	MOVWF __rem_16_1_00004_arg_b
0330  01DF  	CLRF __rem_16_1_00004_arg_b+D'1'
0331  2072  	CALL __rem_16_1_00004
0332  0868  	MOVF CompTempVarRet216, W
0333  00E0  	MOVWF __div_16_1_00003_arg_a
0334  0869  	MOVF CompTempVarRet216+D'1', W
0335  00E4  	MOVWF CompTempVar2197
0336  1FBA  	BTFSS gbl_FCV_QUE1+D'1',7
0337  2B3D  	GOTO	label67
0338  09E0  	COMF __div_16_1_00003_arg_a, F
0339  09E4  	COMF CompTempVar2197, F
033A  0AE0  	INCF __div_16_1_00003_arg_a, F
033B  1903  	BTFSC STATUS,Z
033C  0AE4  	INCF CompTempVar2197, F
033D        label67
033D  01E5  	CLRF CompTempVar2199
033E  0864  	MOVF CompTempVar2197, W
033F  00E1  	MOVWF __div_16_1_00003_arg_a+D'1'
0340  1FE4  	BTFSS CompTempVar2197,7
0341  2B48  	GOTO	label68
0342  09E0  	COMF __div_16_1_00003_arg_a, F
0343  09E1  	COMF __div_16_1_00003_arg_a+D'1', F
0344  0AE0  	INCF __div_16_1_00003_arg_a, F
0345  1903  	BTFSC STATUS,Z
0346  0AE1  	INCF __div_16_1_00003_arg_a+D'1', F
0347  0AE5  	INCF CompTempVar2199, F
0348        label68
0348  300A  	MOVLW 0x0A
0349  00E2  	MOVWF __div_16_1_00003_arg_b
034A  01E3  	CLRF __div_16_1_00003_arg_b+D'1'
034B  2091  	CALL __div_16_1_00003
034C  0869  	MOVF CompTempVarRet214, W
034D  00CE  	MOVWF gbl_FCV_TENS
034E  1C65  	BTFSS CompTempVar2199,0
034F  2B52  	GOTO	label69
0350  09CE  	COMF gbl_FCV_TENS, F
0351  0ACE  	INCF gbl_FCV_TENS, F
0352        label69
0352  0839  	MOVF gbl_FCV_QUE1, W
0353  00DC  	MOVWF __rem_16_1_00004_arg_a
0354  083A  	MOVF gbl_FCV_QUE1+D'1', W
0355  00DD  	MOVWF __rem_16_1_00004_arg_a+D'1'
0356  1FBA  	BTFSS gbl_FCV_QUE1+D'1',7
0357  2B5D  	GOTO	label70
0358  09DC  	COMF __rem_16_1_00004_arg_a, F
0359  09DD  	COMF __rem_16_1_00004_arg_a+D'1', F
035A  0ADC  	INCF __rem_16_1_00004_arg_a, F
035B  1903  	BTFSC STATUS,Z
035C  0ADD  	INCF __rem_16_1_00004_arg_a+D'1', F
035D        label70
035D  300A  	MOVLW 0x0A
035E  00DE  	MOVWF __rem_16_1_00004_arg_b
035F  01DF  	CLRF __rem_16_1_00004_arg_b+D'1'
0360  2072  	CALL __rem_16_1_00004
0361  0868  	MOVF CompTempVarRet216, W
0362  00D1  	MOVWF gbl_FCV_ONES
0363  1FBA  	BTFSS gbl_FCV_QUE1+D'1',7
0364  2B67  	GOTO	label71
0365  09D1  	COMF gbl_FCV_ONES, F
0366  0AD1  	INCF gbl_FCV_ONES, F
0367        label71
0367  3001  	MOVLW 0x01
0368  00CB  	MOVWF gbl_FCV_WINDOW
0369  084B  	MOVF gbl_FCV_WINDOW, W
036A  00D0  	MOVWF gbl_FCV_DIGIT
036B  2157  	CALL FCM_databa_00051
036C  20FC  	CALL FCM_displa_00052
036D  0851  	MOVF gbl_FCV_ONES, W
036E  00D0  	MOVWF gbl_FCV_DIGIT
036F  2157  	CALL FCM_databa_00051
0370  20FC  	CALL FCM_displa_00052
0371  084E  	MOVF gbl_FCV_TENS, W
0372  00D0  	MOVWF gbl_FCV_DIGIT
0373  2157  	CALL FCM_databa_00051
0374  20FC  	CALL FCM_displa_00052
0375  0852  	MOVF gbl_FCV_HUNDREDS, W
0376  00D0  	MOVWF gbl_FCV_DIGIT
0377  2157  	CALL FCM_databa_00051
0378  20FC  	CALL FCM_displa_00052
0379  0008  	RETURN
037A        ; } FCM_display_win1 function end

	ORG 0x0000037A
037A        FCD_RS2320_00057
037A        ; { FCD_RS2320_ReceiveRS232Char ; function begin
037A  085C  	MOVF FCD_RS2320_00057_arg_nTimeout, W
037B  00DD  	MOVWF FC_CAL_UAR_00065_arg_nTimeout
037C  20B0  	CALL FC_CAL_UAR_00065
037D  0864  	MOVF CompTempVarRet2237, W
037E  00DD  	MOVWF CompTempVarRet2227
037F  0865  	MOVF CompTempVarRet2237+D'1', W
0380  00DE  	MOVWF CompTempVarRet2227+D'1'
0381  0008  	RETURN
0382        ; } FCD_RS2320_ReceiveRS232Char function end

	ORG 0x00000382
0382        FC_CAL_UAR_00063
0382        ; { FC_CAL_UART_Init_1 ; function begin
0382  1683  	BSF STATUS, RP0
0383  1303  	BCF STATUS, RP1
0384  1518  	BSF gbl_txsta,2
0385  3081  	MOVLW 0x81
0386  0099  	MOVWF gbl_spbrg
0387  1283  	BCF STATUS, RP0
0388  0198  	CLRF gbl_rcsta
0389  1798  	BSF gbl_rcsta,7
038A  1683  	BSF STATUS, RP0
038B  1698  	BSF gbl_txsta,5
038C  1283  	BCF STATUS, RP0
038D  1618  	BSF gbl_rcsta,4
038E  1683  	BSF STATUS, RP0
038F  128C  	BCF gbl_pie1,5
0390  0008  	RETURN
0391        ; } FC_CAL_UART_Init_1 function end

	ORG 0x00000391
0391        FCM_reciev_00056
0391        ; { FCM_recieve ; function begin
0391  1283  	BCF STATUS, RP0
0392  1303  	BCF STATUS, RP1
0393  084A  	MOVF gbl_FCV_RECIEVE, W
0394  3A41  	XORLW 0x41
0395  1903  	BTFSC STATUS,Z
0396  2B9E  	GOTO	label72
0397  3A03  	XORLW 0x03
0398  1903  	BTFSC STATUS,Z
0399  2BD1  	GOTO	label77
039A  3A01  	XORLW 0x01
039B  1903  	BTFSC STATUS,Z
039C  2C04  	GOTO	label82
039D  0008  	RETURN
039E        label72
039E  3064  	MOVLW 0x64
039F  00DC  	MOVWF FCD_RS2320_00057_arg_nTimeout
03A0  237A  	CALL FCD_RS2320_00057
03A1  085D  	MOVF CompTempVarRet2227, W
03A2  00CA  	MOVWF gbl_FCV_RECIEVE
03A3  084A  	MOVF gbl_FCV_RECIEVE, W
03A4  3A31  	XORLW 0x31
03A5  1903  	BTFSC STATUS,Z
03A6  2BAB  	GOTO	label73
03A7  3A03  	XORLW 0x03
03A8  1903  	BTFSC STATUS,Z
03A9  2BB1  	GOTO	label74
03AA  2BB6  	GOTO	label75
03AB        label73
03AB  08B9  	MOVF gbl_FCV_QUE1, F
03AC  08BA  	MOVF gbl_FCV_QUE1+D'1', F
03AD  0AB9  	INCF gbl_FCV_QUE1, F
03AE  1903  	BTFSC STATUS,Z
03AF  0ABA  	INCF gbl_FCV_QUE1+D'1', F
03B0  2BB6  	GOTO	label75
03B1        label74
03B1  3001  	MOVLW 0x01
03B2  02B9  	SUBWF gbl_FCV_QUE1, F
03B3  08BA  	MOVF gbl_FCV_QUE1+D'1', F
03B4  1C03  	BTFSS STATUS,C
03B5  03BA  	DECF gbl_FCV_QUE1+D'1', F
03B6        label75
03B6  21A7  	CALL FCM_reset_00000
03B7  230A  	CALL FCM_displa_00053
03B8  01D5  	CLRF gbl_FCLV_LOOP3
03B9        label76
03B9  3003  	MOVLW 0x03
03BA  0255  	SUBWF gbl_FCLV_LOOP3, W
03BB  1803  	BTFSC STATUS,C
03BC  0008  	RETURN
03BD  219B  	CALL FCD_PWM0_E_00058
03BE  304B  	MOVLW 0x4B
03BF  00DC  	MOVWF FCD_PWM0_S_00059_arg_nDuty
03C0  2197  	CALL FCD_PWM0_S_00059
03C1  30FF  	MOVLW 0xFF
03C2  00DC  	MOVWF delay_ms_00000_arg_del
03C3  2015  	CALL delay_ms_00000
03C4  30F5  	MOVLW 0xF5
03C5  00DC  	MOVWF delay_ms_00000_arg_del
03C6  2015  	CALL delay_ms_00000
03C7  21A5  	CALL FCD_PWM0_D_0005A
03C8  30FF  	MOVLW 0xFF
03C9  1283  	BCF STATUS, RP0
03CA  00DC  	MOVWF delay_ms_00000_arg_del
03CB  2015  	CALL delay_ms_00000
03CC  30F5  	MOVLW 0xF5
03CD  00DC  	MOVWF delay_ms_00000_arg_del
03CE  2015  	CALL delay_ms_00000
03CF  0AD5  	INCF gbl_FCLV_LOOP3, F
03D0  2BB9  	GOTO	label76
03D1        label77
03D1  3064  	MOVLW 0x64
03D2  00DC  	MOVWF FCD_RS2320_00057_arg_nTimeout
03D3  237A  	CALL FCD_RS2320_00057
03D4  085D  	MOVF CompTempVarRet2227, W
03D5  00CA  	MOVWF gbl_FCV_RECIEVE
03D6  084A  	MOVF gbl_FCV_RECIEVE, W
03D7  3A31  	XORLW 0x31
03D8  1903  	BTFSC STATUS,Z
03D9  2BDE  	GOTO	label78
03DA  3A03  	XORLW 0x03
03DB  1903  	BTFSC STATUS,Z
03DC  2BE4  	GOTO	label79
03DD  2BE9  	GOTO	label80
03DE        label78
03DE  08BB  	MOVF gbl_FCV_QUE2, F
03DF  08BC  	MOVF gbl_FCV_QUE2+D'1', F
03E0  0ABB  	INCF gbl_FCV_QUE2, F
03E1  1903  	BTFSC STATUS,Z
03E2  0ABC  	INCF gbl_FCV_QUE2+D'1', F
03E3  2BE9  	GOTO	label80
03E4        label79
03E4  3001  	MOVLW 0x01
03E5  02BB  	SUBWF gbl_FCV_QUE2, F
03E6  08BC  	MOVF gbl_FCV_QUE2+D'1', F
03E7  1C03  	BTFSS STATUS,C
03E8  03BC  	DECF gbl_FCV_QUE2+D'1', F
03E9        label80
03E9  21A7  	CALL FCM_reset_00000
03EA  229A  	CALL FCM_displa_00054
03EB  01D6  	CLRF gbl_FCLV_LOOP4
03EC        label81
03EC  3003  	MOVLW 0x03
03ED  0256  	SUBWF gbl_FCLV_LOOP4, W
03EE  1803  	BTFSC STATUS,C
03EF  0008  	RETURN
03F0  219B  	CALL FCD_PWM0_E_00058
03F1  304B  	MOVLW 0x4B
03F2  00DC  	MOVWF FCD_PWM0_S_00059_arg_nDuty
03F3  2197  	CALL FCD_PWM0_S_00059
03F4  30FF  	MOVLW 0xFF
03F5  00DC  	MOVWF delay_ms_00000_arg_del
03F6  2015  	CALL delay_ms_00000
03F7  30F5  	MOVLW 0xF5
03F8  00DC  	MOVWF delay_ms_00000_arg_del
03F9  2015  	CALL delay_ms_00000
03FA  21A5  	CALL FCD_PWM0_D_0005A
03FB  30FF  	MOVLW 0xFF
03FC  1283  	BCF STATUS, RP0
03FD  00DC  	MOVWF delay_ms_00000_arg_del
03FE  2015  	CALL delay_ms_00000
03FF  30F5  	MOVLW 0xF5
0400  00DC  	MOVWF delay_ms_00000_arg_del
0401  2015  	CALL delay_ms_00000
0402  0AD6  	INCF gbl_FCLV_LOOP4, F
0403  2BEC  	GOTO	label81
0404        label82
0404  3064  	MOVLW 0x64
0405  00DC  	MOVWF FCD_RS2320_00057_arg_nTimeout
0406  237A  	CALL FCD_RS2320_00057
0407  085D  	MOVF CompTempVarRet2227, W
0408  00CA  	MOVWF gbl_FCV_RECIEVE
0409  084A  	MOVF gbl_FCV_RECIEVE, W
040A  3A31  	XORLW 0x31
040B  1903  	BTFSC STATUS,Z
040C  2C11  	GOTO	label83
040D  3A03  	XORLW 0x03
040E  1903  	BTFSC STATUS,Z
040F  2C17  	GOTO	label84
0410  2C1C  	GOTO	label85
0411        label83
0411  08BD  	MOVF gbl_FCV_QUE3, F
0412  08BE  	MOVF gbl_FCV_QUE3+D'1', F
0413  0ABD  	INCF gbl_FCV_QUE3, F
0414  1903  	BTFSC STATUS,Z
0415  0ABE  	INCF gbl_FCV_QUE3+D'1', F
0416  2C1C  	GOTO	label85
0417        label84
0417  3001  	MOVLW 0x01
0418  02BD  	SUBWF gbl_FCV_QUE3, F
0419  08BE  	MOVF gbl_FCV_QUE3+D'1', F
041A  1C03  	BTFSS STATUS,C
041B  03BE  	DECF gbl_FCV_QUE3+D'1', F
041C        label85
041C  21A7  	CALL FCM_reset_00000
041D  222A  	CALL FCM_displa_00055
041E  01D7  	CLRF gbl_FCLV_LOOP5
041F        label86
041F  3003  	MOVLW 0x03
0420  0257  	SUBWF gbl_FCLV_LOOP5, W
0421  1803  	BTFSC STATUS,C
0422  0008  	RETURN
0423  219B  	CALL FCD_PWM0_E_00058
0424  304B  	MOVLW 0x4B
0425  00DC  	MOVWF FCD_PWM0_S_00059_arg_nDuty
0426  2197  	CALL FCD_PWM0_S_00059
0427  30FF  	MOVLW 0xFF
0428  00DC  	MOVWF delay_ms_00000_arg_del
0429  2015  	CALL delay_ms_00000
042A  30F5  	MOVLW 0xF5
042B  00DC  	MOVWF delay_ms_00000_arg_del
042C  2015  	CALL delay_ms_00000
042D  21A5  	CALL FCD_PWM0_D_0005A
042E  30FF  	MOVLW 0xFF
042F  1283  	BCF STATUS, RP0
0430  00DC  	MOVWF delay_ms_00000_arg_del
0431  2015  	CALL delay_ms_00000
0432  30F5  	MOVLW 0xF5
0433  00DC  	MOVWF delay_ms_00000_arg_del
0434  2015  	CALL delay_ms_00000
0435  0AD7  	INCF gbl_FCLV_LOOP5, F
0436  2C1F  	GOTO	label86
0437        ; } FCM_recieve function end

	ORG 0x00000437
0437        main
0437        ; { main ; function begin
0437  1683  	BSF STATUS, RP0
0438  1703  	BSF STATUS, RP1
0439  0188  	CLRF gbl_ansel
043A  0189  	CLRF gbl_anselh
043B  2382  	CALL FC_CAL_UAR_00063
043C  30C0  	MOVLW 0xC0
043D  0081  	MOVWF gbl_option_reg
043E  3001  	MOVLW 0x01
043F  1283  	BCF STATUS, RP0
0440  00D0  	MOVWF gbl_FCV_DIGIT
0441  30FE  	MOVLW 0xFE
0442  1683  	BSF STATUS, RP0
0443  0505  	ANDWF gbl_trisa, W
0444  0085  	MOVWF gbl_trisa
0445  30FE  	MOVLW 0xFE
0446  1283  	BCF STATUS, RP0
0447  0505  	ANDWF gbl_porta, W
0448  0085  	MOVWF gbl_porta
0449  30DF  	MOVLW 0xDF
044A  1683  	BSF STATUS, RP0
044B  0506  	ANDWF gbl_trisb, W
044C  0086  	MOVWF gbl_trisb
044D  30DF  	MOVLW 0xDF
044E  1283  	BCF STATUS, RP0
044F  0506  	ANDWF gbl_portb, W
0450  0086  	MOVWF gbl_portb
0451  30EF  	MOVLW 0xEF
0452  1683  	BSF STATUS, RP0
0453  0506  	ANDWF gbl_trisb, W
0454  0086  	MOVWF gbl_trisb
0455  30EF  	MOVLW 0xEF
0456  1283  	BCF STATUS, RP0
0457  0506  	ANDWF gbl_portb, W
0458  0086  	MOVWF gbl_portb
0459  307B  	MOVLW 0x7B
045A  00B9  	MOVWF gbl_FCV_QUE1
045B  01BA  	CLRF gbl_FCV_QUE1+D'1'
045C  30C8  	MOVLW 0xC8
045D  00BB  	MOVWF gbl_FCV_QUE2
045E  3001  	MOVLW 0x01
045F  00BC  	MOVWF gbl_FCV_QUE2+D'1'
0460  3015  	MOVLW 0x15
0461  00BD  	MOVWF gbl_FCV_QUE3
0462  3003  	MOVLW 0x03
0463  00BE  	MOVWF gbl_FCV_QUE3+D'1'
0464  3001  	MOVLW 0x01
0465  00CF  	MOVWF gbl_FCV_WIN
0466        label87
0466  3064  	MOVLW 0x64
0467  00DC  	MOVWF FCD_RS2320_00057_arg_nTimeout
0468  237A  	CALL FCD_RS2320_00057
0469  085D  	MOVF CompTempVarRet2227, W
046A  00CA  	MOVWF gbl_FCV_RECIEVE
046B  084A  	MOVF gbl_FCV_RECIEVE, W
046C  3A44  	XORLW 0x44
046D  1D03  	BTFSS STATUS,Z
046E  2CAA  	GOTO	label94
046F  3064  	MOVLW 0x64
0470  00DC  	MOVWF FCD_RS2320_00057_arg_nTimeout
0471  237A  	CALL FCD_RS2320_00057
0472  085D  	MOVF CompTempVarRet2227, W
0473  00CA  	MOVWF gbl_FCV_RECIEVE
0474  084A  	MOVF gbl_FCV_RECIEVE, W
0475  3A41  	XORLW 0x41
0476  1903  	BTFSC STATUS,Z
0477  2C82  	GOTO	label88
0478  3A03  	XORLW 0x03
0479  1903  	BTFSC STATUS,Z
047A  2C86  	GOTO	label89
047B  3A01  	XORLW 0x01
047C  1903  	BTFSC STATUS,Z
047D  2C8A  	GOTO	label90
047E  3A06  	XORLW 0x06
047F  1903  	BTFSC STATUS,Z
0480  2C8E  	GOTO	label91
0481  2C97  	GOTO	label92
0482        label88
0482  01B9  	CLRF gbl_FCV_QUE1
0483  01BA  	CLRF gbl_FCV_QUE1+D'1'
0484  230A  	CALL FCM_displa_00053
0485  2C97  	GOTO	label92
0486        label89
0486  01BB  	CLRF gbl_FCV_QUE2
0487  01BC  	CLRF gbl_FCV_QUE2+D'1'
0488  229A  	CALL FCM_displa_00054
0489  2C97  	GOTO	label92
048A        label90
048A  01BD  	CLRF gbl_FCV_QUE3
048B  01BE  	CLRF gbl_FCV_QUE3+D'1'
048C  222A  	CALL FCM_displa_00055
048D  2C97  	GOTO	label92
048E        label91
048E  01B9  	CLRF gbl_FCV_QUE1
048F  01BA  	CLRF gbl_FCV_QUE1+D'1'
0490  01BB  	CLRF gbl_FCV_QUE2
0491  01BC  	CLRF gbl_FCV_QUE2+D'1'
0492  01BD  	CLRF gbl_FCV_QUE3
0493  01BE  	CLRF gbl_FCV_QUE3+D'1'
0494  230A  	CALL FCM_displa_00053
0495  229A  	CALL FCM_displa_00054
0496  222A  	CALL FCM_displa_00055
0497        label92
0497  01D3  	CLRF gbl_FCLV_LOOP1
0498        label93
0498  300A  	MOVLW 0x0A
0499  0253  	SUBWF gbl_FCLV_LOOP1, W
049A  1803  	BTFSC STATUS,C
049B  2CAB  	GOTO	label95
049C  219B  	CALL FCD_PWM0_E_00058
049D  304B  	MOVLW 0x4B
049E  00DC  	MOVWF FCD_PWM0_S_00059_arg_nDuty
049F  2197  	CALL FCD_PWM0_S_00059
04A0  3096  	MOVLW 0x96
04A1  00DC  	MOVWF delay_ms_00000_arg_del
04A2  2015  	CALL delay_ms_00000
04A3  21A5  	CALL FCD_PWM0_D_0005A
04A4  3096  	MOVLW 0x96
04A5  1283  	BCF STATUS, RP0
04A6  00DC  	MOVWF delay_ms_00000_arg_del
04A7  2015  	CALL delay_ms_00000
04A8  0AD3  	INCF gbl_FCLV_LOOP1, F
04A9  2C98  	GOTO	label93
04AA        label94
04AA  2391  	CALL FCM_reciev_00056
04AB        label95
04AB  3001  	MOVLW 0x01
04AC  00DC  	MOVWF delay_ms_00000_arg_del
04AD  2015  	CALL delay_ms_00000
04AE  08BF  	MOVF gbl_FCV_IHAP, F
04AF  08C0  	MOVF gbl_FCV_IHAP+D'1', F
04B0  0ABF  	INCF gbl_FCV_IHAP, F
04B1  1903  	BTFSC STATUS,Z
04B2  0AC0  	INCF gbl_FCV_IHAP+D'1', F
04B3  01DB  	CLRF CompTempVar2246
04B4  301E  	MOVLW 0x1E
04B5  023F  	SUBWF gbl_FCV_IHAP, W
04B6  1903  	BTFSC STATUS,Z
04B7  0840  	MOVF gbl_FCV_IHAP+D'1', W
04B8  1903  	BTFSC STATUS,Z
04B9  0ADB  	INCF CompTempVar2246, F
04BA  08DB  	MOVF CompTempVar2246, F
04BB  1903  	BTFSC STATUS,Z
04BC  2C66  	GOTO	label87
04BD        label96
04BD  084F  	MOVF gbl_FCV_WIN, W
04BE  3A01  	XORLW 0x01
04BF  1903  	BTFSC STATUS,Z
04C0  2CCB  	GOTO	label97
04C1  3A03  	XORLW 0x03
04C2  1903  	BTFSC STATUS,Z
04C3  2CCD  	GOTO	label98
04C4  3A01  	XORLW 0x01
04C5  1903  	BTFSC STATUS,Z
04C6  2CCF  	GOTO	label99
04C7  3A07  	XORLW 0x07
04C8  1903  	BTFSC STATUS,Z
04C9  2CD1  	GOTO	label100
04CA  2CD4  	GOTO	label101
04CB        label97
04CB  230A  	CALL FCM_displa_00053
04CC  2CD4  	GOTO	label101
04CD        label98
04CD  229A  	CALL FCM_displa_00054
04CE  2CD4  	GOTO	label101
04CF        label99
04CF  222A  	CALL FCM_displa_00055
04D0  2CD4  	GOTO	label101
04D1        label100
04D1  3001  	MOVLW 0x01
04D2  00CF  	MOVWF gbl_FCV_WIN
04D3  2CBD  	GOTO	label96
04D4        label101
04D4  0A4F  	INCF gbl_FCV_WIN, W
04D5  00CF  	MOVWF gbl_FCV_WIN
04D6  01BF  	CLRF gbl_FCV_IHAP
04D7  01C0  	CLRF gbl_FCV_IHAP+D'1'
04D8  2C66  	GOTO	label87
04D9        ; } main function end

	ORG 0x000004D9
04D9        _startup
04D9  30D5  	MOVLW 0xD5
04DA  1283  	BCF STATUS, RP0
04DB  1303  	BCF STATUS, RP1
04DC  00A0  	MOVWF gbl_14_LSR
04DD  30C4  	MOVLW 0xC4
04DE  00A1  	MOVWF gbl_14_LSR+D'1'
04DF  30BB  	MOVLW 0xBB
04E0  00A2  	MOVWF gbl_14_LSR+D'2'
04E1  30DC  	MOVLW 0xDC
04E2  00A3  	MOVWF gbl_14_LSR+D'3'
04E3  01A4  	CLRF gbl_15_gbl_aSig
04E4  01A5  	CLRF gbl_15_gbl_aSig+D'1'
04E5  01A6  	CLRF gbl_15_gbl_aSig+D'2'
04E6  01A7  	CLRF gbl_15_gbl_aSig+D'3'
04E7  01A8  	CLRF gbl_15_gbl_bSig
04E8  01A9  	CLRF gbl_15_gbl_bSig+D'1'
04E9  01AA  	CLRF gbl_15_gbl_bSig+D'2'
04EA  01AB  	CLRF gbl_15_gbl_bSig+D'3'
04EB  01AC  	CLRF gbl_15_gbl_zSig
04EC  01AD  	CLRF gbl_15_gbl_zSig+D'1'
04ED  01AE  	CLRF gbl_15_gbl_zSig+D'2'
04EE  01AF  	CLRF gbl_15_gbl_zSig+D'3'
04EF  01C4  	CLRF gbl_15_gbl_aExp
04F0  01C5  	CLRF gbl_15_gbl_bExp
04F1  01B7  	CLRF gbl_15_gbl_zExp
04F2  01B8  	CLRF gbl_15_gbl_zExp+D'1'
04F3  01C6  	CLRF gbl_15_gbl_aSign
04F4  01C7  	CLRF gbl_15_gbl_bSign
04F5  01C8  	CLRF gbl_15_gbl_zSign
04F6  01C9  	CLRF gbl_15_gbl_zSigZero
04F7  01B0  	CLRF gbl_15_gbl_ret
04F8  01B1  	CLRF gbl_15_gbl_ret+D'1'
04F9  01B2  	CLRF gbl_15_gbl_ret+D'2'
04FA  01B3  	CLRF gbl_15_gbl_ret+D'3'
04FB  01C2  	CLRF gbl_float_rounding_mode
04FC  01C3  	CLRF gbl_float_exception_flags
04FD  01C1  	CLRF gbl_float_detect_tininess
04FE  01B9  	CLRF gbl_FCV_QUE1
04FF  01BA  	CLRF gbl_FCV_QUE1+D'1'
0500  01BB  	CLRF gbl_FCV_QUE2
0501  01BC  	CLRF gbl_FCV_QUE2+D'1'
0502  01BD  	CLRF gbl_FCV_QUE3
0503  01BE  	CLRF gbl_FCV_QUE3+D'1'
0504  01BF  	CLRF gbl_FCV_IHAP
0505  01C0  	CLRF gbl_FCV_IHAP+D'1'
0506  118A  	BCF PCLATH,3
0507  120A  	BCF PCLATH,4
0508  2C37  	GOTO	main
	ORG 0x00000509
0509        interrupt
0509        ; { interrupt ; function begin
0509  1283  	BCF STATUS, RP0
050A  1303  	BCF STATUS, RP1
050B  0E36  	SWAPF Int1BContext+D'2', W
050C  0084  	MOVWF FSR
050D  0E35  	SWAPF Int1BContext+D'1', W
050E  008A  	MOVWF PCLATH
050F  0E34  	SWAPF Int1BContext, W
0510  0083  	MOVWF STATUS
0511  0EFF  	SWAPF Int1Context, F
0512  0E7F  	SWAPF Int1Context, W
0513  0009  	RETFIE
0514        ; } interrupt function end

	ORG 0x00002007
2007  20D2  	DW 0x20D2
2008  3EFF  	DW 0x3EFF
