MPASM  5.51                 20200227_P6MM.ASM   2-27-2020  19:46:00         PAGE  1


LOC  OBJECT CODE     LINE SOURCE TEXT
  VALUE

                      00001 ;******************************************************************************
                      00002 ;                                                                             *
                      00003 ;    FILENAME:     HUB6GPU_PIC18F4620                                         *
                      00004 ;    DATE:         OCTOBER 15,2019                                            *
                      00005 ;    FILE VERSION: V1.0                                                       *
                      00006 ;                                                                             *
                      00007 ;    AUTHOR:       KENNYNEUTRON                                               *
                      00008 ;    COMPANY:      GER-PER ENGINEERING                                        *
                      00009 ;                                                                             * 
                      00010 ;******************************************************************************
                      00011 ;                                                                             *
                      00012 ;    FILES REQUIRED: P18F2620.INC                                             *
                      00013 ;                                                                             *
                      00014 ;******************************************************************************
                      00015 
                      00016         LIST P=18F4620                  ;DIRECTIVE TO DEFINE PROCESSOR
                      00017         #INCLUDE <P18F4620.INC> ;PROCESSOR SPECIFIC VARIABLE DEFINITIONS
                      00001         LIST
                      00002 
                      00003 ;==========================================================================
                      00004 ;  MPASM PIC18F4620 processor include
                      00005 ; 
                      00006 ;  (c) Copyright 1999-2013 Microchip Technology, All rights reserved
                      00007 ;==========================================================================
                      00008 
                      01439         LIST
                      00018 
                      00019 
                      00020 ;******************************************************************************
                      00021 ;CONFIGURATION BITS
                      00022 ;MICROCHIP HAS CHANGED THE FORMAT FOR DEFINING THE CONFIGURATION BITS, PLEASE 
                      00023 ;SEE THE .INC FILE FOR FUTHER DETAILS ON NOTATION.  BELOW ARE A FEW EXAMPLES.
                      00024 
                      00025 
                      00026 ;CONFIG
                      00027 
                      00028 
                      00029 
Warning[205]: Found directive in column 1. (CONFIG)
06 19 1E 01 80 0F C0 000030 CONFIG  OSC             =       HSPLL   ;OSCILLATOR
       F E0 0F 40 
Warning[205]: Found directive in column 1. (CONFIG)
                      00031 CONFIG  FCMEN   =       OFF             ;FAIL-SAFE CLOCK MONITOR
Warning[205]: Found directive in column 1. (CONFIG)
                      00032 CONFIG  IESO    =       OFF             ;INTERNAL/EXTERNAL SWITCH-OVER
Warning[205]: Found directive in column 1. (CONFIG)
                      00033 CONFIG  PWRT    =       OFF             ;POWER-UP TIMER
Warning[205]: Found directive in column 1. (CONFIG)
                      00034 CONFIG  BOREN   =       OFF             ;BROWN OUT RESET ENABLE
Warning[205]: Found directive in column 1. (CONFIG)
                      00035 CONFIG  PBADEN  =       OFF     ;PORTB A/D ENABLE
Warning[205]: Found directive in column 1. (CONFIG)
                      00036 CONFIG  LPT1OSC =       OFF             ;LOW-POWER TIMER1 OSCILLATOR
MPASM  5.51                 20200227_P6MM.ASM   2-27-2020  19:46:00         PAGE  2


LOC  OBJECT CODE     LINE SOURCE TEXT
  VALUE

Warning[205]: Found directive in column 1. (CONFIG)
                      00037 CONFIG  MCLRE   =       OFF             ;MEMORY CLEAR EXTERNAL
Warning[205]: Found directive in column 1. (CONFIG)
                      00038 CONFIG  STVREN  =       OFF             ;STACK FULL/UNDERFLOW RESET ENABLE
Warning[205]: Found directive in column 1. (CONFIG)
                      00039 CONFIG  LVP     =       OFF             ;SINGLE SUPPLY ICSP
Warning[205]: Found directive in column 1. (CONFIG)
                      00040 CONFIG  XINST   =       OFF             ;EXTENDED INSTRUCTION SET
Warning[205]: Found directive in column 1. (CONFIG)
                      00041 CONFIG  DEBUG   =       OFF             ;BACKGROUND DEBUGGERS
Warning[205]: Found directive in column 1. (CONFIG)
                      00042 CONFIG  CP0     =       OFF             ;CODE PROTECT
                      00043 
                      00044 
Warning[205]: Found directive in column 1. (CONFIG)
                      00045 CONFIG  WDT             =       OFF             ;WATCHDOG TIMER
                      00046 ;CONFIG WDTPS   =       512             ;WATCHDOG TIMER POSTSCALER 1:1= 4MSECONDS
                      00047 ;******************************************************************************
                      00048 ;VARIABLE DEFINITIONS
                      00049 ; THESE VARIABLES ARE ONLY NEEDED IF LOW PRIORITY INTERRUPTS ARE USED. 
                      00050 ; MORE VARIABLES MAY BE NEEDED TO STORE OTHER SPECIAL FUNCTION REGISTERS USED
                      00051 ; IN THE INTERRUPT ROUTINES.
                      00052 
                      00053                 #DEFINE         OE_ON           BCF     LATD,7,0
                      00054                 #DEFINE         OE_OFF          BSF     LATD,7,0
                      00055 
                      00056 
                      00057                 #DEFINE         LAT_ON          BSF     LATD,6,0
                      00058                 #DEFINE         LAT_OFF         BCF     LATD,6,0
                      00059 
                      00060                 #DEFINE         CLK_ON          BSF     LATD,5,0
                      00061                 #DEFINE         CLK_OFF         BCF     LATD,5,0
                      00062 
                      00063                 #DEFINE         R0_0            BCF     LATB,0,0
                      00064                 #DEFINE         R0_1            BSF     LATB,0,0
                      00065                 
                      00066                 #DEFINE         R1_0            BCF     LATB,1,0
                      00067                 #DEFINE         R1_1            BSF     LATB,1,0
                      00068 
                      00069                 #DEFINE         G0_0            BCF     LATB,2,0
                      00070                 #DEFINE         G0_1            BSF     LATB,2,0
                      00071                 
                      00072                 #DEFINE         G1_0            BCF     LATB,3,0
                      00073                 #DEFINE         G1_1            BSF     LATB,3,0
                      00074 
                      00075                 CBLOCK  0X16C
  0000016C            00076                 W_TEMP  ;VARIABLE USED FOR CONTEXT SAVING 
  0000016D            00077                 STATUS_TEMP     ;VARIABLE USED FOR CONTEXT SAVING
  0000016E            00078                 BSR_TEMP        ;VARIABLE USED FOR CONTEXT SAVING
  0000016F            00079                 PCLATH_TEMP
                      00080                 ENDC
                      00081 
                      00082                 CBLOCK  0X000
MPASM  5.51                 20200227_P6MM.ASM   2-27-2020  19:46:00         PAGE  3


LOC  OBJECT CODE     LINE SOURCE TEXT
  VALUE

  00000000            00083                         EXAMPLE         ;EXAMPLE OF A VARIABLE IN ACCESS RAM
                      00084                 ENDC
                      00085 
                      00086                 CBLOCK  0X100
  00000100            00087                         DRAM: .64
                      00088                         ;DELAYUS, DELAYMS,  SPI_DATAIN, ;SEC,DELAYS,    ;DELAY VARIABLES
                      00089                         ;=======================================================
  00000140            00090                         LINE
  00000141            00091                         LOOP,COUNT0,COUNT1,COUNT2
                      00092 
  00000145            00093                         POINTER,BTCOUNT
  00000147            00094                         COLOR,NUMBER,ROW,FONT,STPT
                      00095 
  0000014C            00096                         CURSORX,CURSORY,CURSORX_TEMP
  0000014F            00097                         WIDTH
  00000150            00098                         SCROLL_BIT
                      00099                 ENDC
                      00100 
                      00101                 CBLOCK 0X151
  00000151            00102                         REDHALF0,REDHALF1                       ;RED UPPER HALF : RED LOWER HALF RAMS
  00000153            00103                         GRNHALF0,GRNHALF1                       ;GRN UPPER HALF : GRN LOWER HAL
                      00104 
  00000155            00105                         TEMPRAM:.8
                      00106 
                      00107 
  0000015D            00108                         HUB
  0000015E            00109                         COLORA, COLOR_FSRH,COLOR_FSRL
                      00110 
  00000161            00111                         CCOUNT
  00000162            00112                         SCRLLOOP
  00000163            00113                         CSRBIT
  00000164            00114                         CFSRLOOP
  00000165            00115                         CSRHBYTE
                      00116 
                      00117 
  00000166            00118                         MOVX_TEMPH,MOVX_TEMPL
                      00119                         
  00000168            00120                         CHARFSRH,CHARFSRL
                      00121 
  0000016A            00122                         ENDPOINT0,ENDPOINT1
                      00123 
                      00124 
                      00125                 ENDC
                      00126 
                      00127                 CBLOCK  0X170
  00000170            00128                         CHAR:.48
                      00129                 ENDC
                      00130 
                      00131                 CBLOCK  0X1A0
                      00132 
  000001A0            00133                 MOVX:.96
                      00134 
                      00135                 ENDC
MPASM  5.51                 20200227_P6MM.ASM   2-27-2020  19:46:00         PAGE  4


LOC  OBJECT CODE     LINE SOURCE TEXT
  VALUE

                      00136 
                      00137 
                      00138                 CBLOCK  0X200
  00000200            00139                 COLORM:48
                      00140                 
                      00141                 ENDC
                      00142 
                      00143                 CBLOCK  0X300
  00000300            00144                 CMD_MEMORY:0XFF
                      00145                 ENDC
                      00146 ;******************************************************************************
                      00147 ;EEPROM DATA
                      00148 ; DATA TO BE PROGRAMMED INTO THE DATA EEPROM IS DEFINED HERE
                      00149 
F00000                00150                 ORG     0XF00000
                      00151                         
                      00152         ;       DE      "TEST DATA",0,1,2,3,4,5
                      00153 
                      00154 ;******************************************************************************
                      00155 ;RESET VECTOR
                      00156 ; THIS CODE WILL START EXECUTING WHEN A RESET OCCURS.
                      00157 
000000                00158                 ORG     0X0000
                      00159 
000000 EF1A F000      00160                 GOTO    INIT            ;GO TO START OF MAIN CODE
                      00161 
                      00162 ;******************************************************************************
                      00163 ;HIGH PRIORITY INTERRUPT VECTOR
                      00164 ; THIS CODE WILL START EXECUTING WHEN A HIGH PRIORITY INTERRUPT OCCURS OR
                      00165 ; WHEN ANY INTERRUPT OCCURS IF INTERRUPT PRIORITIES ARE NOT ENABLED.
                      00166 
000008                00167                 ORG     0X0008
                      00168 
000008 D014           00169                 BRA     HIGHINT         ;GO TO HIGH PRIORITY INTERRUPT ROUTINE
                      00170 
                      00171 ;******************************************************************************
                      00172 ;LOW PRIORITY INTERRUPT VECTOR AND ROUTINE
                      00173 ; THIS CODE WILL START EXECUTING WHEN A LOW PRIORITY INTERRUPT OCCURS.
                      00174 ; THIS CODE CAN BE REMOVED IF LOW PRIORITY INTERRUPTS ARE NOT USED.
                      00175 
000018                00176                 ORG     0X0018
                      00177 
000018 CFD8 F16D      00178                 MOVFF   STATUS,STATUS_TEMP      ;SAVE STATUS REGISTER
00001C CFE8 F16C      00179                 MOVFF   WREG,W_TEMP             ;SAVE WORKING REGISTER
000020 CFE0 F16E      00180                 MOVFF   BSR,BSR_TEMP            ;SAVE BSR REGISTER
                      00181 
                      00182 ;       *** LOW PRIORITY INTERRUPT CODE GOES HERE ***
                      00183 
                      00184 
000024 C16E FFE0      00185                 MOVFF   BSR_TEMP,BSR            ;RESTORE BSR REGISTER
000028 C16C FFE8      00186                 MOVFF   W_TEMP,WREG                             ;RESTORE WORKING REGISTER
00002C C16D FFD8      00187                 MOVFF   STATUS_TEMP,STATUS      ;RESTORE STATUS REGISTER
000030 0010           00188                 RETFIE
MPASM  5.51                 20200227_P6MM.ASM   2-27-2020  19:46:00         PAGE  5


LOC  OBJECT CODE     LINE SOURCE TEXT
  VALUE

                      00189 
                      00190 ;******************************************************************************
                      00191                                 ;HIGH PRIORITY INTERRUPT ROUTINE
                      00192                                 ; THE HIGH PRIORITY INTERRUPT CODE IS PLACED HERE TO AVOID CONFLICTING W
                            ITH
                      00193                                 ; THE LOW PRIORITY INTERRUPT VECTOR.
                      00194 
000032                00195 HIGHINT:
                      00196 
                      00197                                 ;       *** HIGH PRIORITY INTERRUPT CODE GOES HERE ***
                      00198 
                      00199 
000032 0011           00200                 RETFIE  FAST
                      00201 
                      00202 ;$$$$$$$$$$$$$$$$$$$$$$$$       INITIALIZE              $$$$$$$$$$$$$$$$$$$$$$$$$$$$$$$$$
000034                00203 INIT
                      00204 ;========================= INITIALIZE PORTA =================================
Warning[203]: Found opcode in column 1. (CLRF)
000034 6A80           00205 CLRF PORTA              ; INITIALIZE PORTA BY
                      00206                                 ; CLEARING OUTPUT
                      00207                                 ; DATA LATCHES
Warning[203]: Found opcode in column 1. (CLRF)
000036 6A89           00208 CLRF LATA               ; ALTERNATE METHOD
                      00209                                 ; TO CLEAR OUTPUT
                      00210                                 ; DATA LATCHES
Warning[203]: Found opcode in column 1. (MOVLW)
000038 0E07           00211 MOVLW 07H               ; CONFIGURE A/D
Warning[203]: Found opcode in column 1. (MOVWF)
00003A 6EC1           00212 MOVWF ADCON1    ; FOR DIGITAL INPUTS
Warning[203]: Found opcode in column 1. (MOVWF)
00003C 6E07           00213 MOVWF 07H               ; CONFIGURE COMPARATORS
Warning[203]: Found opcode in column 1. (MOVWF)
00003E 6EB4           00214 MOVWF CMCON     ; FOR DIGITAL INPUT
Warning[203]: Found opcode in column 1. (MOVLW)
000040 0ECF           00215 MOVLW 0CFH              ; VALUE USED TO
                      00216                                 ; INITIALIZE DATA
                      00217                                 ; DIRECTION
Warning[203]: Found opcode in column 1. (MOVWF)
000042 6E92           00218 MOVWF TRISA     ; SET RA<7:6,3:0> AS INPUTS
                      00219                                 ; RA<5:4> AS OUTPUTS
                      00220 ;============================================================================
                      00221 
                      00222 
                      00223 ;========================= INITIALIZE PORTB =================================
Warning[203]: Found opcode in column 1. (CLRF)
000044 6A81           00224 CLRF PORTB              ; INITIALIZE PORTB BY
                      00225                                 ; CLEARING OUTPUT
                      00226                                 ; DATA LATCHES
Warning[203]: Found opcode in column 1. (CLRF)
000046 6A8A           00227 CLRF LATB               ; ALTERNATE METHOD
                      00228                                 ; TO CLEAR OUTPUT
                      00229                                 ; DATA LATCHES
Warning[203]: Found opcode in column 1. (MOVLW)
MPASM  5.51                 20200227_P6MM.ASM   2-27-2020  19:46:00         PAGE  6


LOC  OBJECT CODE     LINE SOURCE TEXT
  VALUE

000048 0E0F           00230 MOVLW 0FH               ; SET RB<4:0> AS
Warning[203]: Found opcode in column 1. (MOVWF)
00004A 6EC1           00231 MOVWF ADCON1    ; DIGITAL I/O PINS
                      00232                                 ; (REQUIRED IF CONFIG BIT
                      00233                                 ; PBADEN IS SET)
Warning[203]: Found opcode in column 1. (MOVLW)
00004C 0E00           00234 MOVLW 0                 ; VALUE USED TO
                      00235                                 ; INITIALIZE DATA
                      00236                                 ; DIRECTION
Warning[203]: Found opcode in column 1. (MOVWF)
00004E 6E93           00237 MOVWF TRISB     ; SET RB<3:0> AS INPUTS
                      00238                                 ; RB<7:0> AS INPUTS
                      00239 ;============================================================================
                      00240 
                      00241 
                      00242 ;========================= INITIALIZE PORTC =================================
Warning[203]: Found opcode in column 1. (CLRF)
000050 6A82           00243 CLRF PORTC
Warning[203]: Found opcode in column 1. (CLRF)
000052 6A8B           00244 CLRF LATC
Warning[203]: Found opcode in column 1. (MOVLW)
000054 0EFC           00245 MOVLW B'11111100'
Warning[203]: Found opcode in column 1. (MOVWF)
000056 6E94           00246 MOVWF TRISC
                      00247 
                      00248 ;PORT C0 ===> N/A
                      00249 ;PORT C1 ===> N/A
                      00250 ;PORT C2 ===> N/A
                      00251 ;PORT C3 ===> SPI CLK   (SCL)
                      00252 ;PORT C4 ===> SPI DATAIN (SDI)
                      00253 ;PORT C5 ===> SPI DATAOUT (SDO)
                      00254 ;PORT C6 ===> N/A
                      00255 ;PORT C7 ===> N/A
                      00256 
                      00257 ;============================================================================ 
                      00258 
                      00259 
                      00260 ;========================= INITIALIZE PORTD =================================
Warning[203]: Found opcode in column 1. (CLRF)
000058 6A83           00261 CLRF PORTD              ; INITIALIZE PORTD BY
                      00262                                 ; CLEARING OUTPUT
                      00263                                 ; DATA LATCHES
Warning[203]: Found opcode in column 1. (CLRF)
00005A 6A8C           00264 CLRF LATD               ; ALTERNATE METHOD
                      00265                                 ; TO CLEAR OUTPUT
                      00266                                 ; DATA LATCHES
Warning[203]: Found opcode in column 1. (MOVLW)
00005C 0E00           00267 MOVLW 0                 ; VALUE USED TO
                      00268                                 ; INITIALIZE DATA
                      00269                                 ; DIRECTION
Warning[203]: Found opcode in column 1. (MOVWF)
00005E 6E95           00270 MOVWF TRISD     ; SET RD<3:0> AS INPUTS
                      00271                                 ; RD<5:4> AS OUTPUTS
MPASM  5.51                 20200227_P6MM.ASM   2-27-2020  19:46:00         PAGE  7


LOC  OBJECT CODE     LINE SOURCE TEXT
  VALUE

                      00272                                 ; RD<7:6> AS INPUTS
                      00273 ;============================================================================
                      00274 
                      00275 ;========================= INITIALIZE PORTE =================================
Warning[203]: Found opcode in column 1. (CLRF)
000060 6A84           00276 CLRF PORTE              ; INITIALIZE PORTE BY
                      00277                                 ; CLEARING OUTPUT
                      00278                                 ; DATA LATCHES
Warning[203]: Found opcode in column 1. (CLRF)
000062 6A8D           00279 CLRF LATE               ; ALTERNATE METHOD
                      00280                                 ; TO CLEAR OUTPUT
                      00281                                 ; DATA LATCHES
Warning[203]: Found opcode in column 1. (MOVLW)
000064 0E0A           00282 MOVLW 0AH               ; CONFIGURE A/D
Warning[203]: Found opcode in column 1. (MOVWF)
000066 6EC1           00283 MOVWF ADCON1    ; FOR DIGITAL INPUTS
Warning[203]: Found opcode in column 1. (MOVLW)
000068 0E07           00284 MOVLW 0X07              ; VALUE USED TO
                      00285                                 ; INITIALIZE DATA
                      00286                                 ; DIRECTION
Warning[203]: Found opcode in column 1. (MOVWF)
00006A 6E96           00287 MOVWF TRISE,0   ; SET RE<0> AS INPUTS
                      00288                                 ; RE<1> AS OUTPUTS
                      00289                                 ; RE<2> AS INPUTS
                      00290 ;============================================================================
                      00291 
                      00292 ;============== WATCHDOG TIMER =========
                      00293 ;BSF    WDTCON,0,0
                      00294 
                      00295 ;=======================================
                      00296 
                      00297 
                      00298 
                      00299 
Warning[203]: Found opcode in column 1. (MOVLB)
00006C 0101           00300 MOVLB   0X01            
Warning[203]: Found opcode in column 1. (BCF)
00006E 908A           00301 R0_0
Warning[203]: Found opcode in column 1. (BCF)
000070 928A           00302 R1_0
Warning[203]: Found opcode in column 1. (BCF)
000072 948A           00303 G0_0
Warning[203]: Found opcode in column 1. (BCF)
000074 968A           00304 G1_0
                      00305 
Warning[203]: Found opcode in column 1. (BCF)
000076 908B           00306 BCF     LATC,0,0
                      00307 
Warning[203]: Found opcode in column 1. (BCF)
000078 988C           00308 BCF     LATD,4,0
Warning[203]: Found opcode in column 1. (BSF)
00007A 868C           00309 BSF     LATD,3,0
Warning[203]: Found opcode in column 1. (BSF)
MPASM  5.51                 20200227_P6MM.ASM   2-27-2020  19:46:00         PAGE  8


LOC  OBJECT CODE     LINE SOURCE TEXT
  VALUE

00007C 848C           00310 BSF     LATD,2,0
Warning[203]: Found opcode in column 1. (BSF)
00007E 828C           00311 BSF     LATD,1,0
Warning[203]: Found opcode in column 1. (BSF)
000080 808C           00312 BSF     LATD,0,0
                      00313 
Warning[203]: Found opcode in column 1. (MOVLW)
000082 0E00           00314 MOVLW   0
Warning[203]: Found opcode in column 1. (MOVWF)
000084 6F63           00315 MOVWF   CSRBIT
                      00316 
Warning[203]: Found opcode in column 1. (MOVLW)
000086 0E00           00317 MOVLW   0
Warning[203]: Found opcode in column 1. (MOVWF)
000088 6F5E           00318 MOVWF   COLORA,1
                      00319 
Warning[203]: Found opcode in column 1. (MOVLW)
00008A 0E00           00320 MOVLW   0
Warning[203]: Found opcode in column 1. (MOVWF)
00008C 6F50           00321 MOVWF   SCROLL_BIT
                      00322 
                      00323 
                      00324 
Warning[203]: Found opcode in column 1. (CALL)
00008E EC2C F001      00325 CALL    CLR_CSR
                      00326 
Warning[203]: Found opcode in column 1. (CALL)
000092 EC11 F001      00327 CALL    CLR_CHAR
                      00328 
Warning[203]: Found opcode in column 1. (CALL)
000096 EC53 F040      00329 CALL    CLR_CMD_MEMORY
                      00330 
                      00331 
Warning[203]: Found opcode in column 1. (CALL)
00009A EC1F F001      00332 CALL    CLR_COLORM
                      00333 
                      00334 
Warning[203]: Found opcode in column 1. (MOVLW)
00009E 0E06           00335 MOVLW   06
Warning[203]: Found opcode in column 1. (MOVWF)
0000A0 6F70           00336 MOVWF   CHAR+00 ;G
                      00337 
Warning[203]: Found opcode in column 1. (MOVLW)
0000A2 0E34           00338 MOVLW   34
Warning[203]: Found opcode in column 1. (MOVWF)
0000A4 6F71           00339 MOVWF   CHAR+01 ;E
                      00340 
Warning[203]: Found opcode in column 1. (MOVLW)
0000A6 0E41           00341 MOVLW   41
Warning[203]: Found opcode in column 1. (MOVWF)
0000A8 6F72           00342 MOVWF   CHAR+02 ;R
                      00343 
Warning[203]: Found opcode in column 1. (MOVLW)
MPASM  5.51                 20200227_P6MM.ASM   2-27-2020  19:46:00         PAGE  9


LOC  OBJECT CODE     LINE SOURCE TEXT
  VALUE

0000AA 0E25           00344 MOVLW   25
Warning[203]: Found opcode in column 1. (MOVWF)
0000AC 6F73           00345 MOVWF   CHAR+03 ;-
                      00346 
Warning[203]: Found opcode in column 1. (MOVLW)
0000AE 0E0F           00347 MOVLW   0F
Warning[203]: Found opcode in column 1. (MOVWF)
0000B0 6F74           00348 MOVWF   CHAR+04 ;P
                      00349 
Warning[203]: Found opcode in column 1. (MOVLW)
0000B2 0E34           00350 MOVLW   34
Warning[203]: Found opcode in column 1. (MOVWF)
0000B4 6F75           00351 MOVWF   CHAR+05 ;E
                      00352 
Warning[203]: Found opcode in column 1. (MOVLW)
0000B6 0E41           00353 MOVLW   41
Warning[203]: Found opcode in column 1. (MOVWF)
0000B8 6F76           00354 MOVWF   CHAR+06 ;R
                      00355 
Warning[203]: Found opcode in column 1. (MOVLW)
0000BA 0E2A           00356 MOVLW   2A
Warning[203]: Found opcode in column 1. (MOVWF)
0000BC 6F77           00357 MOVWF   CHAR+07 ;_
                      00358 
Warning[203]: Found opcode in column 1. (MOVLW)
0000BE 0E04           00359 MOVLW   04
Warning[203]: Found opcode in column 1. (MOVWF)
0000C0 6F78           00360 MOVWF   CHAR+08 ;E
                      00361 
Warning[203]: Found opcode in column 1. (MOVLW)
0000C2 0E3D           00362 MOVLW   3D
Warning[203]: Found opcode in column 1. (MOVWF)
0000C4 6F79           00363 MOVWF   CHAR+09 ;N
                      00364 
Warning[203]: Found opcode in column 1. (MOVLW)
0000C6 0E36           00365 MOVLW   36
Warning[203]: Found opcode in column 1. (MOVWF)
0000C8 6F7A           00366 MOVWF   CHAR+0A ;G
                      00367 
Warning[203]: Found opcode in column 1. (MOVLW)
0000CA 0E38           00368 MOVLW   38
Warning[203]: Found opcode in column 1. (MOVWF)
0000CC 6F7B           00369 MOVWF   CHAR+0B ;I
                      00370 
Warning[203]: Found opcode in column 1. (MOVLW)
0000CE 0E3D           00371 MOVLW   3D
Warning[203]: Found opcode in column 1. (MOVWF)
0000D0 6F7C           00372 MOVWF   CHAR+0C ;N
                      00373 
Warning[203]: Found opcode in column 1. (MOVLW)
0000D2 0E34           00374 MOVLW   34
Warning[203]: Found opcode in column 1. (MOVWF)
0000D4 6F7D           00375 MOVWF   CHAR+0D ;E
MPASM  5.51                 20200227_P6MM.ASM   2-27-2020  19:46:00         PAGE 10


LOC  OBJECT CODE     LINE SOURCE TEXT
  VALUE

                      00376 
Warning[203]: Found opcode in column 1. (MOVLW)
0000D6 0E34           00377 MOVLW   34
Warning[203]: Found opcode in column 1. (MOVWF)
0000D8 6F7E           00378 MOVWF   CHAR+0E ;E
                      00379 
Warning[203]: Found opcode in column 1. (MOVLW)
0000DA 0E41           00380 MOVLW   41
Warning[203]: Found opcode in column 1. (MOVWF)
0000DC 6F7F           00381 MOVWF   CHAR+0F ;R
                      00382 
Warning[203]: Found opcode in column 1. (MOVLW)
0000DE 0E38           00383 MOVLW   38
Warning[203]: Found opcode in column 1. (MOVWF)
0000E0 6F80           00384 MOVWF   CHAR+10 ;I
                      00385 
Warning[203]: Found opcode in column 1. (MOVLW)
0000E2 0E3D           00386 MOVLW   3D
Warning[203]: Found opcode in column 1. (MOVWF)
0000E4 6F81           00387 MOVWF   CHAR+11 ;N
                      00388 
Warning[203]: Found opcode in column 1. (MOVLW)
0000E6 0E36           00389 MOVLW   36
Warning[203]: Found opcode in column 1. (MOVWF)
0000E8 6F82           00390 MOVWF   CHAR+12 ;G
                      00391 
Warning[203]: Found opcode in column 1. (MOVLW)
0000EA 0E2A           00392 MOVLW   2A
Warning[203]: Found opcode in column 1. (MOVWF)
0000EC 6F83           00393 MOVWF   CHAR+13 ;_
                      00394 
Warning[203]: Found opcode in column 1. (MOVLW)
0000EE 0E1C           00395 MOVLW   1C
Warning[203]: Found opcode in column 1. (MOVWF)
0000F0 6F84           00396 MOVWF   CHAR+14 ;2
                      00397 
Warning[203]: Found opcode in column 1. (MOVLW)
0000F2 0E1A           00398 MOVLW   1A
Warning[203]: Found opcode in column 1. (MOVWF)
0000F4 6F85           00399 MOVWF   CHAR+15 ;0
                      00400 
Warning[203]: Found opcode in column 1. (MOVLW)
0000F6 0E1B           00401 MOVLW   1B
Warning[203]: Found opcode in column 1. (MOVWF)
0000F8 6F86           00402 MOVWF   CHAR+16 ;1
                      00403 
Warning[203]: Found opcode in column 1. (MOVLW)
0000FA 0E23           00404 MOVLW   23
Warning[203]: Found opcode in column 1. (MOVWF)
0000FC 6F87           00405 MOVWF   CHAR+17 ;9
                      00406 ;========================
                      00407 
                      00408 
MPASM  5.51                 20200227_P6MM.ASM   2-27-2020  19:46:00         PAGE 11


LOC  OBJECT CODE     LINE SOURCE TEXT
  VALUE

                      00409 
                      00410 
Warning[203]: Found opcode in column 1. (MOVLB)
0000FE 0101           00411 MOVLB   1
                      00412 
                      00413 
                      00414 
                      00415 ;CALL   DATATRANS_CMD_TO_EEPROM
                      00416 
                      00417 
                      00418 ;CALL   DATATRANS_EEPROM_TO_CMD
                      00419 
                      00420 ;CALL   READ_CMD_MEMORY
                      00421 
Warning[203]: Found opcode in column 1. (GOTO)
000100 EF82 F000      00422 GOTO    MAIN
                      00423 ;#######################        MAIN PROGRAM  ###########################
000104                00424 MAIN
                      00425 
                      00426 
                      00427 
                      00428 
000104 ECAF F000      00429                 CALL    DISPLAY
                      00430 
                      00431 
                      00432 
Warning[203]: Found opcode in column 1. (GOTO)
000108 EF82 F000      00433 GOTO    MAIN
                      00434 
                      00435 ;####################################################################
                      00436 
                      00437 ;========= STATIC DISPLAY =========
                      00438 ;MAIN
                      00439 ;               BCF             LATC,7,0
                      00440 ;               MOVLW   1
                      00441 ;               MOVWF   COLORA
                      00442 ;               MOVLW   0
                      00443 ;               MOVWF   MOVX+00
                      00444 ;               MOVLW   4
                      00445 ;               MOVWF   MOVX+01
                      00446 ;               CALL    CURSORFSR
                      00447 ;               CALL    DISPLAY
                      00448 ;
                      00449 ;               BSF             LATC,7,0
                      00450 ;               MOVLW   1
                      00451 ;               MOVWF   COLORA
                      00452 ;               MOVLW   0
                      00453 ;               MOVWF   MOVX+00
                      00454 ;               MOVLW   4
                      00455 ;               MOVWF   MOVX+01
                      00456 ;               CALL    CURSORFSR
                      00457 ;               CALL    DISPLAY
                      00458 
MPASM  5.51                 20200227_P6MM.ASM   2-27-2020  19:46:00         PAGE 12


LOC  OBJECT CODE     LINE SOURCE TEXT
  VALUE

                      00459 
                      00460 
                      00461                 ;BCF            LATC,0,0 ;ACK
00010C 808B           00462                 BSF             LATC,0,0 ;ACK
                      00463 
00010E EC00 F040      00464                 CALL    READ_CMD_MEMORY
000112 ECC4 F000      00465                 CALL    CURSORFSR
000116 ECAF F000      00466                 CALL    DISPLAY
00011A 808B           00467                 BSF             LATC,0,0 ;ACK   
Warning[203]: Found opcode in column 1. (GOTO)
00011C EF82 F000      00468 GOTO    MAIN
                      00469 ;==================================
                      00470 
                      00471 
                      00472 
                      00473 
                      00474 
                      00475 
                      00476 
                      00477 
                      00478 
                      00479 ;=================== SUBROUTINE FOR SCROLLING =================
000120                00480 MNSUB
000120 ECC4 F000      00481                 CALL    CURSORFSR
                      00482 
000124 ECA7 F000      00483                 CALL    DISP
000128 07A0           00484                 DECF    MOVX+00
                      00485 
00012A 0E01           00486                 MOVLW   1
00012C 6EEA           00487                 MOVWF   FSR0H
00012E C16A FFE9      00488                 MOVFF   ENDPOINT0,FSR0L
                      00489 
000132 0E00           00490                 MOVLW   0
000134 62EF           00491                 CPFSEQ  INDF0           ;ENDING OF THE SENTENCE
000136 EF90 F000      00492                 GOTO    MNSUB
                      00493 
                      00494 
00013A 0E01           00495                 MOVLW   1
00013C 6EEA           00496                 MOVWF   FSR0H
00013E C16B FFE9      00497                 MOVFF   ENDPOINT1,FSR0L
                      00498 
000142 0E04           00499                 MOVLW   4
000144 62EF           00500                 CPFSEQ  INDF0           ;ENDING OF THE SENTENCE
000146 EF90 F000      00501                 GOTO    MNSUB
00014A 0000           00502                 NOP
                      00503                 
                      00504                 
                      00505 
                      00506 
Warning[203]: Found opcode in column 1. (RETURN)
00014C 0012           00507 RETURN
                      00508 ;==============================================================
                      00509 
MPASM  5.51                 20200227_P6MM.ASM   2-27-2020  19:46:00         PAGE 13


LOC  OBJECT CODE     LINE SOURCE TEXT
  VALUE

                      00510 ;=====  REPEATING OF THE DISPLAY SUBROUTINE FOR =============== 
                      00511 ;=====  DISPLAYING MULTIPLE DATA
00014E                00512 DISP
                      00513 
00014E 0E08           00514         MOVLW   8       ;SCROLLING SPEED
000150 6F61           00515         MOVWF   CCOUNT
                      00516 
000152                00517 DDISP
000152 ECAF F000      00518         CALL    DISPLAY
000156 2F61           00519         DECFSZ  CCOUNT,F
000158 EFA9 F000      00520         GOTO    DDISP
                      00521 
Warning[203]: Found opcode in column 1. (RETURN)
00015C 0012           00522 RETURN
                      00523 ;==============================================================
                      00524 
                      00525 
                      00526 ;========================       DISPLAYING      =======================
00015E                00527 DISPLAY
00015E 0E10           00528                 MOVLW   .16
000160 6F44           00529                 MOVWF   COUNT2
000162 0E00           00530                 MOVLW   0
000164 6F49           00531                 MOVWF   ROW
                      00532 
000166                00533 DISP0   
000166 9E8C           00534                 OE_ON
000168 EC3D F001      00535                 CALL    CLR_RAM
00016C ECFC F000      00536                 CALL    COMMAND
                      00537 
000170 EC54 F001      00538                 CALL    DATAREG
000174 8E8C           00539                 OE_OFF
000176 C149 FF8C      00540                 MOVFF   ROW,LATD
00017A 8C8C           00541                 LAT_ON
00017C 9C8C           00542                 LAT_OFF
00017E 2B49           00543                 INCF    ROW
000180 2F44           00544                 DECFSZ  COUNT2,F
                      00545 
000182 EFB3 F000      00546                 GOTO    DISP0
                      00547 
                      00548 
                      00549 
Warning[203]: Found opcode in column 1. (RETURN)
000186 0012           00550 RETURN
                      00551 ;==============================================================
                      00552 
                      00553 ;================       THIS WILL ADD VALUES TO THE MOVX(MOVING CURSORX) VALUES =====
000188                00554 CURSORFSR
000188 0E30           00555                 MOVLW   .48
00018A 6F64           00556                 MOVWF   CFSRLOOP
                      00557 
00018C 0E01           00558                 MOVLW   1
00018E 6EDA           00559                 MOVWF   FSR2H
000190 0EA0           00560                 MOVLW   0XA0
MPASM  5.51                 20200227_P6MM.ASM   2-27-2020  19:46:00         PAGE 14


LOC  OBJECT CODE     LINE SOURCE TEXT
  VALUE

000192 6ED9           00561                 MOVWF   FSR2L
                      00562 ;----------------------------
000194 0E01           00563                 MOVLW   1
000196 6EEA           00564                 MOVWF   FSR0H
000198 0E6F           00565                 MOVLW   0X6F
00019A 6EE9           00566                 MOVWF   FSR0L
                      00567 
00019C 0EA0           00568                 MOVLW   0XA0
00019E 6F6A           00569                 MOVWF   ENDPOINT0
                      00570 ;----------------------------
                      00571 
0001A0 0EFF           00572                 MOVLW   .255
0001A2 63A0           00573                 CPFSEQ  MOVX+00,1
0001A4 EFD5 F000      00574                 GOTO    CFSR0
                      00575 
0001A8 07A1           00576                 DECF    MOVX+01
                      00577 
0001AA                00578 CFSR0
0001AA 2AE9           00579                 INCF    FSR0L
                      00580 ;----------------------------
0001AC 0EFF           00581                 MOVLW   .255
0001AE 62EF           00582                 CPFSEQ  INDF0
0001B0 EFDC F000      00583                 GOTO    CFSR1
0001B4 EFF7 F000      00584                 GOTO    CFSR2
0001B8                00585 CFSR1
                      00586 ;----------------------------
0001B8 CFDF F167      00587                 MOVFF   INDF2,MOVX_TEMPL                ;CURSORL
0001BC 2AD9           00588                 INCF    FSR2L
0001BE CFDF F166      00589                 MOVFF   INDF2,MOVX_TEMPH                ;CURSORH
                      00590 
0001C2 2AD9           00591                 INCF    FSR2L
                      00592 
0001C4 C167 FFDF      00593                 MOVFF   MOVX_TEMPL,INDF2
                      00594 
                      00595 ;=============  ADD WIDTH CONTROL       ======
                      00596 ;               MOVLW   .21
0001C8 CFFA F16F      00597                 MOVFF   PCLATH,PCLATH_TEMP
0001CC EC00 F038      00598                 CALL    WIDTH_CHECK
0001D0 26DF           00599                 ADDWF   INDF2
0001D2 C16F FFFA      00600                 MOVFF   PCLATH_TEMP,PCLATH
                      00601 ;=========================================
                      00602 
0001D6 A0D8           00603                 BTFSS   STATUS,C
0001D8 EFEF F000      00604                 GOTO    CFSR1C0
                      00605                 
                      00606 
0001DC 2B66           00607                 INCF    MOVX_TEMPH
                      00608 
                      00609 
0001DE                00610 CFSR1C0
0001DE 2AD9           00611                 INCF    FSR2L
0001E0 C166 FFDF      00612                 MOVFF   MOVX_TEMPH,INDF2
                      00613 
MPASM  5.51                 20200227_P6MM.ASM   2-27-2020  19:46:00         PAGE 15


LOC  OBJECT CODE     LINE SOURCE TEXT
  VALUE

                      00614                 
                      00615 
0001E4 06D9           00616                 DECF    FSR2L
                      00617 ;----------------------------
0001E6 2B6A           00618                 INCF    ENDPOINT0
0001E8 2B6A           00619                 INCF    ENDPOINT0
                      00620 ;----------------------------
                      00621 
                      00622 ;               DECFSZ  CFSRLOOP        
0001EA EFD5 F000      00623                 GOTO    CFSR0
0001EE                00624 CFSR2
0001EE 98D8           00625                 BCF             STATUS,N
0001F0 C16A F16B      00626                 MOVFF   ENDPOINT0,ENDPOINT1
0001F4 2B6B           00627                 INCF    ENDPOINT1
                      00628                 
Warning[203]: Found opcode in column 1. (RETURN)
0001F6 0012           00629 RETURN
                      00630 
                      00631 
                      00632 
                      00633 
                      00634 
                      00635 
                      00636 
                      00637 ;=======================        COMMANDS                ===================
0001F8                00638 COMMAND
                      00639 
                      00640 ;=====  BEFORE SMART DISPLAYING THIS IS HOW TO DISPLAY MANUALLY =====
                      00641 
                      00642 
0001F8 0E00           00643                 MOVLW   00
0001FA 6F5D           00644                 MOVWF   HUB
                      00645 
                      00646 
                      00647 
                      00648 
0001FC 0E00           00649                 MOVLW   00
0001FE 6F40           00650                 MOVWF   LINE
                      00651 
000200 0E01           00652                 MOVLW   01
000202 6F47           00653                 MOVWF   COLOR
                      00654 
000204 0E04           00655                 MOVLW   04
000206 6F48           00656                 MOVWF   NUMBER
                      00657 
000208 0E02           00658                 MOVLW   .2
00020A 6F4C           00659                 MOVWF   CURSORX
00020C EC9D F001      00660                 CALL    DUMP
                      00661 
                      00662 
000210 0E02           00663                 MOVLW   02
000212 6F47           00664                 MOVWF   COLOR
                      00665         
MPASM  5.51                 20200227_P6MM.ASM   2-27-2020  19:46:00         PAGE 16


LOC  OBJECT CODE     LINE SOURCE TEXT
  VALUE

000214 0E34           00666                 MOVLW   34
000216 6F48           00667                 MOVWF   NUMBER
                      00668 
000218 0E0E           00669                 MOVLW   .14
00021A 6F4C           00670                 MOVWF   CURSORX
                      00671 
00021C EC9D F001      00672                 CALL    DUMP
                      00673 
                      00674 
                      00675 
                      00676 ;====================================================================
                      00677 
                      00678 
Warning[203]: Found opcode in column 1. (RETURN)
000220 0012           00679 RETURN
                      00680 
                      00681 
                      00682 ;;==================================================================    
                      00683 ;HUBCHECKDUMP
                      00684 ;               MOVLW   .127
                      00685 ;               CPFSLT  CURSORX,1
                      00686 ;               
                      00687 ;               GOTO    CMDG127
                      00688 ;HBCD
                      00689 ;               MOVLW   .64
                      00690 ;               CPFSEQ  CURSORX,1
                      00691 ;               GOTO    CMD0
                      00692 ;               GOTO    CMD64
                      00693 ;
                      00694 ;CMD0           
                      00695 ;               MOVLW   .63
                      00696 ;               CPFSGT  CURSORX,1
                      00697 ;               GOTO    CMDD
                      00698 ;
                      00699 ;               MOVLW   0X20
                      00700 ;               MOVWF   HUB
                      00701 ;               
                      00702 ;               MOVLW   .64
                      00703 ;               SUBWF   CURSORX
                      00704 ;               
                      00705 ;
                      00706 ;CMDD
                      00707 ;               
                      00708 ;               CALL    DUMP
                      00709 ;RETURN
                      00710 ;
                      00711 ;CMD64
                      00712 ;               MOVLW   0X20
                      00713 ;               MOVWF   HUB
                      00714 ;
                      00715 ;
                      00716 ;               MOVLW   .0
                      00717 ;               MOVWF   CURSORX
MPASM  5.51                 20200227_P6MM.ASM   2-27-2020  19:46:00         PAGE 17


LOC  OBJECT CODE     LINE SOURCE TEXT
  VALUE

                      00718 ;               CALL    DUMP
                      00719 ;RETURN
                      00720 ;
                      00721 ;CMDG127
                      00722 ;               MOVLW   .127
                      00723 ;               CPFSEQ  CURSORX,1
                      00724 ;               GOTO    CMDG127C
                      00725 ;               GOTO    HBCD
                      00726 ;CMDG127C
                      00727 ;               MOVLW   .232
                      00728 ;               CPFSGT  CURSORX,1
                      00729 ;               RETURN  
                      00730 ;
                      00731 ;               BSF             CSRBIT,0
                      00732 ;               MOVFF   CURSORX,CURSORX_TEMP
                      00733 ;
                      00734 ;               MOVLW   .208
                      00735 ;               SUBWF   CURSORX
                      00736 ;               CALL    DUMP
                      00737 ;RETURN
                      00738 ;;==============================================================
                      00739 
                      00740 ;=======================        CLEAR   CHAR            ===============
000222                00741 CLR_CHAR
000222 0101           00742         MOVLB           0X01    ;BANK1
000224 0E30           00743         MOVLW           .48
000226 6F45           00744         MOVWF           POINTER
                      00745 
000228 0E01           00746         MOVLW           0X01
00022A 6EDA           00747         MOVWF           FSR2H
                      00748 
00022C 0E70           00749         MOVLW           0X70
00022E 6ED9           00750         MOVWF           FSR2L,0  
                      00751 
                      00752 
                      00753 
000230                00754 CLRCHAR0
000230 0EFF           00755         MOVLW           0XFF
000232 6EDF           00756         MOVWF           INDF2
000234 2AD9           00757         INCF            FSR2L
                      00758 
000236 2F45           00759         DECFSZ          POINTER, F
000238 EF18 F001      00760         GOTO            CLRCHAR0
                      00761 
Warning[203]: Found opcode in column 1. (RETURN)
00023C 0012           00762 RETURN
                      00763 ;==============================================================
                      00764 
                      00765 ;=======================        CLEAR   COLOR           ===============
00023E                00766 CLR_COLORM
                      00767 ;       MOVLB           0X01    ;BANK1
00023E 0E30           00768         MOVLW           .48
000240 6F45           00769         MOVWF           POINTER
MPASM  5.51                 20200227_P6MM.ASM   2-27-2020  19:46:00         PAGE 18


LOC  OBJECT CODE     LINE SOURCE TEXT
  VALUE

                      00770 
000242 0E02           00771         MOVLW           0X02
000244 6EDA           00772         MOVWF           FSR2H
                      00773 
000246 0E00           00774         MOVLW           0X00
000248 6ED9           00775         MOVWF           FSR2L,0  
                      00776 
                      00777 
                      00778 
00024A                00779 CLRCLM0
00024A 0E00           00780         MOVLW           0
00024C 6EDF           00781         MOVWF           INDF2
00024E 2AD9           00782         INCF            FSR2L
000250 2F45           00783         DECFSZ          POINTER, F
000252 EF25 F001      00784         GOTO            CLRCLM0
                      00785 
Warning[203]: Found opcode in column 1. (RETURN)
000256 0012           00786 RETURN
                      00787 ;==============================================================
                      00788 
                      00789 
                      00790 ;=======================        CLEAR   CURSOR          ===============
000258                00791 CLR_CSR
000258 0101           00792         MOVLB           0X01    ;BANK1
00025A 0E30           00793         MOVLW           .48
00025C 6F45           00794         MOVWF           POINTER
                      00795 
00025E 0E01           00796         MOVLW           0X01
000260 6EDA           00797         MOVWF           FSR2H
                      00798 
000262 0EA0           00799         MOVLW           0XA0
000264 6ED9           00800         MOVWF           FSR2L,0  
                      00801 
                      00802 
                      00803 
000266                00804 CLRFSR0
000266 0E00           00805         MOVLW           00
000268 6EDF           00806         MOVWF           INDF2
00026A 2AD9           00807         INCF            FSR2L
00026C 0E01           00808         MOVLW           01
00026E 6EDF           00809         MOVWF           INDF2
000270 2AD9           00810         INCF            FSR2L
000272 2F45           00811         DECFSZ          POINTER, F
000274 EF33 F001      00812         GOTO            CLRFSR0
                      00813 
Warning[203]: Found opcode in column 1. (RETURN)
000278 0012           00814 RETURN
                      00815 ;==============================================================
                      00816 
                      00817 ;=======================        CLEAR   RAM             ===================
00027A                00818 CLR_RAM
00027A 0101           00819         MOVLB           0X01    ;BANK1
00027C 0E40           00820         MOVLW           .64
MPASM  5.51                 20200227_P6MM.ASM   2-27-2020  19:46:00         PAGE 19


LOC  OBJECT CODE     LINE SOURCE TEXT
  VALUE

00027E 6F45           00821         MOVWF           POINTER
                      00822 
000280 0E01           00823         MOVLW           0X01
000282 6EEA           00824         MOVWF           FSR0H,0
                      00825 
000284 0E00           00826         MOVLW           0X00
000286 6EE9           00827         MOVWF           FSR0L,0  
                      00828 
000288 0EFF           00829         MOVLW           0XFF
                      00830 
00028A                00831 CLR0
00028A 6EEF           00832         MOVWF           INDF0
                      00833 
00028C 2AE9           00834         INCF            FSR0L
00028E 2F45           00835         DECFSZ          POINTER, F
000290 EF45 F001      00836         GOTO            CLR0
                      00837         
                      00838         
000294 0EFF           00839                 MOVLW   0XFF
000296 6F55           00840                 MOVWF   TEMPRAM+00
000298 6F56           00841                 MOVWF   TEMPRAM+01
00029A 6F57           00842                 MOVWF   TEMPRAM+02
00029C 6F58           00843                 MOVWF   TEMPRAM+03
00029E 6F59           00844                 MOVWF   TEMPRAM+04
0002A0 6F5A           00845                 MOVWF   TEMPRAM+05
0002A2 6F5B           00846                 MOVWF   TEMPRAM+06
0002A4 6F5C           00847                 MOVWF   TEMPRAM+07
                      00848 
0002A6 0012           00849         RETURN
                      00850 ;==============================================================
                      00851 
                      00852 
                      00853 ;=======================        REGISTER DATA           ===============
0002A8                00854 DATAREG
                      00855 
                      00856 
                      00857 
0002A8 0E01           00858         MOVLW   0X01
0002AA 6EEA           00859         MOVWF   FSR0H
                      00860 
0002AC 0E00           00861         MOVLW   0X00
0002AE 6EE9           00862         MOVWF   FSR0L
0002B0 EC5B F001      00863         CALL    DATAREGSUB
                      00864         
Warning[203]: Found opcode in column 1. (RETURN)
0002B4 0012           00865 RETURN
                      00866 ;==============================================================
                      00867 
                      00868 
                      00869 
                      00870 ;==================== DATA REGISRY SUB ROUTINE ================
0002B6                00871 DATAREGSUB
0002B6 0E08           00872         MOVLW   8
MPASM  5.51                 20200227_P6MM.ASM   2-27-2020  19:46:00         PAGE 20


LOC  OBJECT CODE     LINE SOURCE TEXT
  VALUE

0002B8 6F42           00873         MOVWF   COUNT0
                      00874         
                      00875 
0002BA                00876 DR0
0002BA CFEF F151      00877         MOVFF   INDF0,REDHALF0
                      00878         
0002BE 86E9           00879         BSF             FSR0L,3
                      00880         
0002C0 CFEF F152      00881         MOVFF   INDF0,REDHALF1
                      00882 
                      00883 
0002C4 88E9           00884         BSF             FSR0L,4
                      00885         
0002C6 CFEF F154      00886         MOVFF   INDF0,GRNHALF1
                      00887 
                      00888         
0002CA 96E9           00889         BCF             FSR0L,3
                      00890 
0002CC CFEF F153      00891         MOVFF   INDF0,GRNHALF0
                      00892 
0002D0 0E08           00893         MOVLW   8
0002D2 6F43           00894         MOVWF   COUNT1
                      00895 
0002D4                00896 DR1
0002D4 3751           00897         RLCF            REDHALF0
                      00898         
0002D6 A0D8           00899         BTFSS   STATUS,C
0002D8 EF70 F001      00900         GOTO    R0LO
0002DC EF73 F001      00901         GOTO    R0HI
                      00902 
0002E0                00903 R0LO
0002E0 808A           00904         R0_1
0002E2 EF74 F001      00905         GOTO    DR2
0002E6                00906 R0HI
0002E6 908A           00907         R0_0
                      00908 ;-------------------
0002E8                00909 DR2
0002E8 3752           00910         RLCF    REDHALF1
                      00911         
0002EA A0D8           00912         BTFSS   STATUS,C
0002EC EF7A F001      00913         GOTO    R1LO
0002F0 EF7D F001      00914         GOTO    R1HI
                      00915 
0002F4                00916 R1LO
0002F4 828A           00917         R1_1
0002F6 EF7E F001      00918         GOTO    DR3
                      00919 
0002FA                00920 R1HI
0002FA 928A           00921         R1_0
                      00922 ;-------------------
0002FC                00923 DR3
                      00924         
0002FC 3753           00925         RLCF            GRNHALF0
MPASM  5.51                 20200227_P6MM.ASM   2-27-2020  19:46:00         PAGE 21


LOC  OBJECT CODE     LINE SOURCE TEXT
  VALUE

                      00926         
0002FE A0D8           00927         BTFSS   STATUS,C
000300 EF84 F001      00928         GOTO    G0LO
000304 EF87 F001      00929         GOTO    G0HI
                      00930 
                      00931 
000308                00932 G0LO
000308 848A           00933         G0_1
00030A EF88 F001      00934         GOTO    DR4
                      00935 
00030E                00936 G0HI
00030E 948A           00937         G0_0
                      00938 ;-------------------
000310                00939 DR4
                      00940 
000310 3754           00941         RLCF            GRNHALF1
                      00942 
000312 A0D8           00943         BTFSS   STATUS,C
000314 EF8E F001      00944         GOTO    G1LO
000318 EF91 F001      00945         GOTO    G1HI
                      00946 
                      00947 
00031C                00948 G1LO
00031C 868A           00949         G1_1
00031E EF92 F001      00950         GOTO    DR5
000322                00951 G1HI
000322 968A           00952         G1_0
                      00953 ;-------------------
000324                00954 DR5
                      00955         
                      00956 
000324 8A8C           00957         CLK_ON
000326 9A8C           00958         CLK_OFF
                      00959 
000328 2F43           00960         DECFSZ  COUNT1,F
00032A EF6A F001      00961         GOTO    DR1
                      00962 
00032E 98E9           00963         BCF             FSR0L,4
000330 2AE9           00964         INCF    FSR0L
                      00965         
000332 2F42           00966         DECFSZ  COUNT0,F
000334 EF5D F001      00967         GOTO    DR0
Warning[203]: Found opcode in column 1. (RETURN)
000338 0012           00968 RETURN
                      00969 ;============================================================== 
                      00970 
                      00971 
                      00972 
                      00973 ;======================= DUMPING OF DATA ======================
00033A                00974 DUMP
00033A C149 F146      00975                 MOVFF   ROW,BTCOUNT
                      00976 
00033E CFFA F16F      00977                 MOVFF   PCLATH,PCLATH_TEMP
MPASM  5.51                 20200227_P6MM.ASM   2-27-2020  19:46:00         PAGE 22


LOC  OBJECT CODE     LINE SOURCE TEXT
  VALUE

000342 0E00           00978                 MOVLW   0
000344 6F45           00979                 MOVWF   POINTER
                      00980 
000346 0EFF           00981                 MOVLW   0XFF
000348 6F55           00982                 MOVWF   TEMPRAM+00
00034A 6F56           00983                 MOVWF   TEMPRAM+01
00034C 6F57           00984                 MOVWF   TEMPRAM+02
00034E 6F58           00985                 MOVWF   TEMPRAM+03
000350 6F59           00986                 MOVWF   TEMPRAM+04
000352 6F5A           00987                 MOVWF   TEMPRAM+05
000354 6F5B           00988                 MOVWF   TEMPRAM+06
000356 6F5C           00989                 MOVWF   TEMPRAM+07
                      00990 
                      00991 
000358                00992 DMP_FONT02
                      00993 
000358 C146 FFE8      00994                 MOVFF   BTCOUNT,WREG
00035C B4D8           00995                 BTFSC   STATUS,Z
00035E EFB3 F001      00996                 GOTO    DMP_FONT02CONT
                      00997 
                      00998 
000362 2746           00999                 ADDWF   BTCOUNT
000364 2746           01000                 ADDWF   BTCOUNT
000366                01001 DMP_FONT02CONT
                      01002 
000366 0E00           01003                 MOVLW   0
000368 6EFA           01004                 MOVWF   PCLATH
                      01005 
00036A A140           01006                 BTFSS   LINE,0
00036C EFBA F001      01007                 GOTO    DMPL0
000370 EFC6 F001      01008                 GOTO    DMPL1
                      01009 
                      01010 
000374                01011 DMPL0
                      01012 
000374 EC00 F006      01013                 CALL    FONT02H
000378 6F55           01014                 MOVWF   TEMPRAM+00
00037A 2B46           01015                 INCF    BTCOUNT
                      01016 
                      01017 
00037C EC00 F006      01018                 CALL    FONT02H
000380 6F56           01019                 MOVWF   TEMPRAM+01
000382 2B46           01020                 INCF    BTCOUNT
                      01021 
                      01022 
                      01023         ;       CALL    FONT02H
                      01024         ;       MOVWF   TEMPRAM+02
                      01025 
000384 0746           01026                 DECF    BTCOUNT
000386 0746           01027                 DECF    BTCOUNT
000388 EFCE F001      01028                 GOTO    DMP0
                      01029 
                      01030                 
MPASM  5.51                 20200227_P6MM.ASM   2-27-2020  19:46:00         PAGE 23


LOC  OBJECT CODE     LINE SOURCE TEXT
  VALUE

                      01031 
00038C                01032 DMPL1           
00038C EC80 F006      01033                 CALL    FONT02L
000390 6F59           01034                 MOVWF   TEMPRAM+04
000392 2B46           01035                 INCF    BTCOUNT
                      01036 
                      01037 
                      01038 
000394 EC80 F006      01039                 CALL    FONT02L
000398 6F5A           01040                 MOVWF   TEMPRAM+05
00039A 2B46           01041                 INCF    BTCOUNT
                      01042 
                      01043 
                      01044 ;               CALL    FONT02L
                      01045 ;               MOVWF   TEMPRAM+06
                      01046 
                      01047 
                      01048 
00039C                01049 DMP0
00039C C16F FFFA      01050                 MOVFF   PCLATH_TEMP,PCLATH
                      01051                 
                      01052 
                      01053 
                      01054 
                      01055                 
                      01056 
0003A0 C16F FFFA      01057                 MOVFF   PCLATH_TEMP,PCLATH
0003A4 ECD5 F001      01058                 CALL    DATAINRAM
                      01059 
Warning[203]: Found opcode in column 1. (RETURN)
0003A8 0012           01060 RETURN
                      01061 ;==============================================================
                      01062 
                      01063 
                      01064 
                      01065 ;======================== PUT DATA IN RAM =====================
0003AA                01066 DATAINRAM
                      01067                 
0003AA 674C           01068                 TSTFSZ  CURSORX,1
0003AC EFDA F001      01069                 GOTO    DIRC
                      01070 
0003B0 EFEC F001      01071                 GOTO    DIR1   ;DIR2(0)
                      01072 
0003B4                01073 DIRC
0003B4 ECB5 F003      01074                 CALL    CURSORX_TEST
0003B8 6741           01075                 TSTFSZ  LOOP
0003BA EFE1 F001      01076                 GOTO    DIR0
0003BE EFEC F001      01077                 GOTO    DIR1
0003C2                01078 DIR0
0003C2 80D8           01079                 BSF             STATUS,C
0003C4 3355           01080                 RRCF    TEMPRAM+00
0003C6 3356           01081                 RRCF    TEMPRAM+01
0003C8 3357           01082                 RRCF    TEMPRAM+02
MPASM  5.51                 20200227_P6MM.ASM   2-27-2020  19:46:00         PAGE 24


LOC  OBJECT CODE     LINE SOURCE TEXT
  VALUE

                      01083         ;       RRCF    TEMPRAM+03
0003CA 80D8           01084                 BSF             STATUS,C
0003CC 3359           01085                 RRCF    TEMPRAM+04
0003CE 335A           01086                 RRCF    TEMPRAM+05
0003D0 335B           01087                 RRCF    TEMPRAM+06
                      01088         ;       RRCF    TEMPRAM+07
                      01089 
0003D2 2F41           01090                 DECFSZ  LOOP,F
0003D4 EFE1 F001      01091                 GOTO    DIR0
                      01092 
0003D8                01093 DIR1
                      01094 
0003D8 CFFA F16F      01095                 MOVFF   PCLATH,PCLATH_TEMP
0003DC 0E01           01096                 MOVLW   0X01
0003DE 6EEA           01097                 MOVWF   FSR0H
0003E0 0E00           01098                 MOVLW   0X00
0003E2 6EE9           01099                 MOVWF   FSR0L
                      01100 
0003E4 0E01           01101                 MOVLW   0X01
0003E6 6EE2           01102                 MOVWF   FSR1H
0003E8 0E55           01103                 MOVLW   0X55
0003EA 6EE1           01104                 MOVWF   FSR1L
                      01105 
0003EC C15D FFE8      01106                 MOVFF   HUB,WREG
0003F0 26E9           01107                 ADDWF   FSR0L
                      01108 
0003F2 C145 FFE8      01109                 MOVFF   POINTER,WREG
0003F6 26E9           01110                 ADDWF   FSR0L
                      01111                 
0003F8 B347           01112                 BTFSC   COLOR,1
0003FA EF03 F002      01113                 GOTO    DIR2_YELLOW
0003FE EC1B F002      01114                 CALL    DIR_SUB
000402 9163           01115                 BCF             CSRBIT,0        
Warning[203]: Found opcode in column 1. (RETURN)
000404 0012           01116 RETURN
                      01117 
000406                01118 DIR2_YELLOW
000406 0E00           01119                 MOVLW   0
000408 6F47           01120                 MOVWF   COLOR
00040A EC1B F002      01121                 CALL    DIR_SUB
                      01122 
                      01123 
00040E 0E01           01124                 MOVLW   0X01
000410 6EEA           01125                 MOVWF   FSR0H
000412 0E00           01126                 MOVLW   0X00
000414 6EE9           01127                 MOVWF   FSR0L
                      01128 
                      01129 
000416 0E01           01130                 MOVLW   0X01
000418 6EE2           01131                 MOVWF   FSR1H
00041A 0E55           01132                 MOVLW   0X55
00041C 6EE1           01133                 MOVWF   FSR1L
                      01134 
MPASM  5.51                 20200227_P6MM.ASM   2-27-2020  19:46:00         PAGE 25


LOC  OBJECT CODE     LINE SOURCE TEXT
  VALUE

00041E C15D FFE8      01135                 MOVFF   HUB,WREG
000422 26E9           01136                 ADDWF   FSR0L
                      01137 
000424 C145 FFE8      01138                 MOVFF   POINTER,WREG
000428 26E9           01139                 ADDWF   FSR0L
                      01140 
00042A 0E01           01141                 MOVLW   1
00042C 6F47           01142                 MOVWF   COLOR
00042E EC1B F002      01143                 CALL    DIR_SUB
000432 9163           01144                 BCF             CSRBIT,0
Warning[203]: Found opcode in column 1. (RETURN)
000434 0012           01145 RETURN
                      01146 
                      01147 
000436                01148 DIR_SUB
000436 B147           01149                 BTFSC   COLOR,0
000438 88E9           01150                 BSF             FSR0L,4
                      01151 
00043A A163           01152                 BTFSS   CSRBIT,0
00043C EF24 F002      01153                 GOTO    DIR_SUB0
                      01154 
000440 90E9           01155                 BCF             FSR0L,0
000442 92E9           01156                 BCF             FSR0L,1
000444 94E9           01157                 BCF             FSR0L,2
000446 96E9           01158                 BCF             FSR0L,3
000448                01159 DIR_SUB0
000448 ECFD F002      01160                 CALL    HUBTESTH        ;TEMPRAM+00
00044C 2AE1           01161                 INCF    FSR1L
                      01162 
00044E B163           01163                 BTFSC   CSRBIT,0
000450 EF34 F002      01164                 GOTO    DIR2A
                      01165 
                      01166 
000454 0E37           01167                 MOVLW   .55
000456 654C           01168                 CPFSGT  CURSORX,1
000458 EF34 F002      01169                 GOTO    DIR2A
                      01170                 
00045C 90E9           01171                 BCF             FSR0L,0
00045E 92E9           01172                 BCF             FSR0L,1
000460 94E9           01173                 BCF             FSR0L,2
                      01174                 
000462 8AE9           01175                 BSF             FSR0L,5
000464 EF35 F002      01176                 GOTO    DIR3A
                      01177 
000468                01178 DIR2A
000468 2AE9           01179                 INCF    FSR0L
00046A                01180 DIR3A
00046A ECFD F002      01181                 CALL    HUBTESTH        ;TEMPRAM+01
00046E 2AE1           01182                 INCF    FSR1L
                      01183 
000470 B163           01184                 BTFSC   CSRBIT,0
000472 EF53 F002      01185                 GOTO    DIR2BA
                      01186 
MPASM  5.51                 20200227_P6MM.ASM   2-27-2020  19:46:00         PAGE 26


LOC  OBJECT CODE     LINE SOURCE TEXT
  VALUE

                      01187 
000476 0E2F           01188                 MOVLW   .47
000478 654C           01189                 CPFSGT  CURSORX,1
00047A EF49 F002      01190                 GOTO    DIR2B
                      01191 
00047E 0E37           01192                 MOVLW   .55
000480 614C           01193                 CPFSLT  CURSORX,1
000482 EF49 F002      01194                 GOTO    DIR2B
                      01195                 
000486 90E9           01196                 BCF             FSR0L,0
000488 92E9           01197                 BCF             FSR0L,1
00048A 94E9           01198                 BCF             FSR0L,2
                      01199                 
00048C 8AE9           01200                 BSF             FSR0L,5
00048E EF54 F002      01201                 GOTO    DIR3B
                      01202 
000492                01203 DIR2B
000492 0E37           01204                 MOVLW   .55
000494 634C           01205                 CPFSEQ  CURSORX,1
000496 EF53 F002      01206                 GOTO    DIR2BA
00049A 90E9           01207                 BCF             FSR0L,0
00049C 92E9           01208                 BCF             FSR0L,1
00049E 94E9           01209                 BCF             FSR0L,2
                      01210                 
0004A0 8AE9           01211                 BSF             FSR0L,5
0004A2 EF54 F002      01212                 GOTO    DIR3B
                      01213 
0004A6                01214 DIR2BA
0004A6 2AE9           01215                 INCF    FSR0L
0004A8                01216 DIR3B
0004A8 ECFD F002      01217                 CALL    HUBTESTH        ;TEMPRAM+02
0004AC 2AE1           01218                 INCF    FSR1L
                      01219 
0004AE B163           01220                 BTFSC   CSRBIT,0
0004B0 EF76 F002      01221                 GOTO    DIR2CA
                      01222 
0004B4 0E27           01223                 MOVLW   .39
0004B6 654C           01224                 CPFSGT  CURSORX,1
0004B8 EF6C F002      01225                 GOTO    DIR2C
                      01226 
0004BC 0E2F           01227                 MOVLW   .47
0004BE 614C           01228                 CPFSLT  CURSORX,1
0004C0 EF6C F002      01229                 GOTO    DIR2C
                      01230 
0004C4 0E37           01231                 MOVLW   .55
0004C6 614C           01232                 CPFSLT  CURSORX,1
0004C8 EF6C F002      01233                 GOTO    DIR2C
                      01234                 
0004CC 90E9           01235                 BCF             FSR0L,0
0004CE 92E9           01236                 BCF             FSR0L,1
0004D0 94E9           01237                 BCF             FSR0L,2
                      01238                 
0004D2 8AE9           01239                 BSF             FSR0L,5
MPASM  5.51                 20200227_P6MM.ASM   2-27-2020  19:46:00         PAGE 27


LOC  OBJECT CODE     LINE SOURCE TEXT
  VALUE

0004D4 EF77 F002      01240                 GOTO    DIR3C
                      01241 
0004D8                01242 DIR2C
0004D8 0E2F           01243                 MOVLW   .47
0004DA 634C           01244                 CPFSEQ  CURSORX,1
0004DC EF76 F002      01245                 GOTO    DIR2CA
0004E0 90E9           01246                 BCF             FSR0L,0
0004E2 92E9           01247                 BCF             FSR0L,1
0004E4 94E9           01248                 BCF             FSR0L,2
                      01249                 
0004E6 8AE9           01250                 BSF             FSR0L,5
0004E8 EF77 F002      01251                 GOTO    DIR3C
0004EC                01252 DIR2CA
0004EC 2AE9           01253                 INCF    FSR0L
0004EE                01254 DIR3C
0004EE ECFD F002      01255                 CALL    HUBTESTH        ;TEMPRAM+03
0004F2 2AE1           01256                 INCF    FSR1L
                      01257 
0004F4 0E37           01258                 MOVLW   .55
0004F6 654C           01259                 CPFSGT  CURSORX,1
0004F8 EF84 F002      01260                 GOTO    DIR4A
                      01261                 
0004FC 80E9           01262                 BSF             FSR0L,0
0004FE 82E9           01263                 BSF             FSR0L,1
000500 84E9           01264                 BSF             FSR0L,2
                      01265                 
000502 9AE9           01266                 BCF             FSR0L,5
                      01267 
000504 EF9E F002      01268                 GOTO    DIR5
                      01269 
000508                01270 DIR4A
000508 0E2F           01271                 MOVLW   .47
00050A 654C           01272                 CPFSGT  CURSORX,1
00050C EF8F F002      01273                 GOTO    DIR4B
                      01274                 
000510 80E9           01275                 BSF             FSR0L,0
000512 82E9           01276                 BSF             FSR0L,1
000514 84E9           01277                 BSF             FSR0L,2
                      01278                 
000516 9AE9           01279                 BCF             FSR0L,5
000518 06E9           01280                 DECF    FSR0L
00051A EF9E F002      01281                 GOTO    DIR5
                      01282 
00051E                01283 DIR4B
                      01284 
00051E 0E27           01285                 MOVLW   .39
000520 654C           01286                 CPFSGT  CURSORX,1
000522 EF9B F002      01287                 GOTO    DIR4C
                      01288                 
000526 80E9           01289                 BSF             FSR0L,0
000528 82E9           01290                 BSF             FSR0L,1
00052A 84E9           01291                 BSF             FSR0L,2
                      01292                 
MPASM  5.51                 20200227_P6MM.ASM   2-27-2020  19:46:00         PAGE 28


LOC  OBJECT CODE     LINE SOURCE TEXT
  VALUE

00052C 9AE9           01293                 BCF             FSR0L,5
00052E 06E9           01294                 DECF    FSR0L
000530 06E9           01295                 DECF    FSR0L
000532 EF9E F002      01296                 GOTO    DIR5
                      01297 
000536                01298 DIR4C
000536 06E9           01299                 DECF    FSR0L
000538 06E9           01300                 DECF    FSR0L
00053A 06E9           01301                 DECF    FSR0L
                      01302 
                      01303 
00053C                01304 DIR5
00053C 86E9           01305                 BSF             FSR0L,3
                      01306 
00053E BB5D           01307                 BTFSC   HUB,5
000540 8AE9           01308                 BSF             FSR0L,5
                      01309 
000542 A163           01310                 BTFSS   CSRBIT,0
000544 EFA7 F002      01311                 GOTO    DIR_SUB1
                      01312 
000548 90E9           01313                 BCF             FSR0L,0
00054A 92E9           01314                 BCF             FSR0L,1
00054C 94E9           01315                 BCF             FSR0L,2
00054E                01316 DIR_SUB1                
00054E EC59 F003      01317                 CALL    HUBTESTL        ;TEMPRAM+04
000552 2AE1           01318                 INCF    FSR1L
                      01319 
000554 B163           01320                 BTFSC   CSRBIT,0
000556 EFB7 F002      01321                 GOTO    DIR6A
                      01322 
00055A 0E37           01323                 MOVLW   .55
00055C 654C           01324                 CPFSGT  CURSORX,1
00055E EFB7 F002      01325                 GOTO    DIR6A
                      01326                 
000562 90E9           01327                 BCF             FSR0L,0
000564 92E9           01328                 BCF             FSR0L,1
000566 94E9           01329                 BCF             FSR0L,2
000568 8AE9           01330                 BSF             FSR0L,5
00056A EFB8 F002      01331                 GOTO    DIR7A
                      01332 
00056E                01333 DIR6A
                      01334 
00056E 2AE9           01335                 INCF    FSR0L
000570                01336 DIR7A
000570 EC59 F003      01337                 CALL    HUBTESTL        ;TEMPRAM+05
000574 2AE1           01338                 INCF    FSR1L
                      01339 
000576 B163           01340                 BTFSC   CSRBIT,0
000578 EFD6 F002      01341                 GOTO    DIR6BA
                      01342 
00057C 0E2F           01343                 MOVLW   .47
00057E 654C           01344                 CPFSGT  CURSORX,1
000580 EFCC F002      01345                 GOTO    DIR6B
MPASM  5.51                 20200227_P6MM.ASM   2-27-2020  19:46:00         PAGE 29


LOC  OBJECT CODE     LINE SOURCE TEXT
  VALUE

                      01346 
000584 0E37           01347                 MOVLW   .55
000586 614C           01348                 CPFSLT  CURSORX,1
000588 EFCC F002      01349                 GOTO    DIR6B
                      01350                 
00058C 90E9           01351                 BCF             FSR0L,0
00058E 92E9           01352                 BCF             FSR0L,1
000590 94E9           01353                 BCF             FSR0L,2
000592 8AE9           01354                 BSF             FSR0L,5
000594 EFD7 F002      01355                 GOTO    DIR7B
                      01356 
000598                01357 DIR6B
000598 0E37           01358                 MOVLW   .55
00059A 634C           01359                 CPFSEQ  CURSORX,1
00059C EFD6 F002      01360                 GOTO    DIR6BA
0005A0 90E9           01361                 BCF             FSR0L,0
0005A2 92E9           01362                 BCF             FSR0L,1
0005A4 94E9           01363                 BCF             FSR0L,2
                      01364                 
0005A6 8AE9           01365                 BSF             FSR0L,5
0005A8 EFD7 F002      01366                 GOTO    DIR7B
0005AC                01367 DIR6BA
0005AC 2AE9           01368                 INCF    FSR0L
0005AE                01369 DIR7B
0005AE EC59 F003      01370                 CALL    HUBTESTL        ;TEMPRAM+06
0005B2 2AE1           01371                 INCF    FSR1L
                      01372 
0005B4 B163           01373                 BTFSC   CSRBIT,0
0005B6 EFF9 F002      01374                 GOTO    DIR6CA
                      01375 
0005BA 0E27           01376                 MOVLW   .39
0005BC 654C           01377                 CPFSGT  CURSORX,1
0005BE EFEF F002      01378                 GOTO    DIR6C
                      01379 
0005C2 0E2F           01380                 MOVLW   .47
0005C4 614C           01381                 CPFSLT  CURSORX,1
0005C6 EFEF F002      01382                 GOTO    DIR6C
                      01383 
0005CA 0E37           01384                 MOVLW   .55
0005CC 614C           01385                 CPFSLT  CURSORX,1
0005CE EFEF F002      01386                 GOTO    DIR6C
                      01387 
                      01388 
                      01389                 
0005D2 90E9           01390                 BCF             FSR0L,0
0005D4 92E9           01391                 BCF             FSR0L,1
0005D6 94E9           01392                 BCF             FSR0L,2
0005D8 8AE9           01393                 BSF             FSR0L,5
0005DA EFFA F002      01394                 GOTO    DIR7C
                      01395 
0005DE                01396 DIR6C
0005DE 0E2F           01397                 MOVLW   .47
0005E0 634C           01398                 CPFSEQ  CURSORX,1
MPASM  5.51                 20200227_P6MM.ASM   2-27-2020  19:46:00         PAGE 30


LOC  OBJECT CODE     LINE SOURCE TEXT
  VALUE

0005E2 EFF9 F002      01399                 GOTO    DIR6CA
0005E6 90E9           01400                 BCF             FSR0L,0
0005E8 92E9           01401                 BCF             FSR0L,1
0005EA 94E9           01402                 BCF             FSR0L,2
                      01403                 
0005EC 8AE9           01404                 BSF             FSR0L,5
0005EE EFFA F002      01405                 GOTO    DIR7C
                      01406 
0005F2                01407 DIR6CA
0005F2 2AE9           01408                 INCF    FSR0L
0005F4                01409 DIR7C
0005F4 EC59 F003      01410                 CALL    HUBTESTL        ;TEMPRAM+07
                      01411 
Warning[203]: Found opcode in column 1. (RETURN)
0005F8 0012           01412 RETURN
                      01413 
                      01414 
                      01415 
0005FA                01416 HUBTESTH
0005FA AB5D           01417                 BTFSS   HUB,5
0005FC EF26 F003      01418                 GOTO    HUBH_EXIT
                      01419 
000600 0E28           01420                 MOVLW   .40
000602 614C           01421                 CPFSLT  CURSORX,1
000604 EF06 F003      01422                 GOTO    HTH_CXGT40
000608 EF26 F003      01423                 GOTO    HUBH_EXIT
                      01424 
                      01425 
00060C                01426 HTH_CXGT40
00060C 0E30           01427                 MOVLW   .48
00060E 614C           01428                 CPFSLT  CURSORX,1
000610 EF0F F003      01429                 GOTO    HTH_CXGT48
                      01430 
000614 0E57           01431                 MOVLW   57
000616 64E1           01432                 CPFSGT  FSR1L,0
000618 EF26 F003      01433                 GOTO    HUBH_EXIT
00061C 0012           01434                 RETURN
                      01435 
                      01436 
00061E                01437 HTH_CXGT48
00061E 0E37           01438                 MOVLW   .55
000620 614C           01439                 CPFSLT  CURSORX,1
000622 EF18 F003      01440                 GOTO    HTH_CXGT55
                      01441 
000626 0E56           01442                 MOVLW   56
000628 64E1           01443                 CPFSGT  FSR1L,0
00062A EF26 F003      01444                 GOTO    HUBH_EXIT
00062E 0012           01445                 RETURN
                      01446 
                      01447 
000630                01448 HTH_CXGT55
000630 0E37           01449                 MOVLW   .55
000632 634C           01450                 CPFSEQ  CURSORX,1
MPASM  5.51                 20200227_P6MM.ASM   2-27-2020  19:46:00         PAGE 31


LOC  OBJECT CODE     LINE SOURCE TEXT
  VALUE

000634 EF21 F003      01451                 GOTO    HTHPX
                      01452 
000638 0E56           01453                 MOVLW   56
00063A 64E1           01454                 CPFSGT  FSR1L,0
00063C EF26 F003      01455                 GOTO    HUBH_EXIT
000640 0012           01456                 RETURN
                      01457                 
                      01458 
000642                01459 HTHPX
000642 0E55           01460                 MOVLW   55
000644 64E1           01461                 CPFSGT  FSR1L,0
000646 EF26 F003      01462                 GOTO    HUBH_EXIT
00064A 0012           01463                 RETURN
                      01464                 
                      01465 
                      01466 
00064C                01467 HUBH_EXIT
00064C B163           01468                 BTFSC   CSRBIT,0
00064E EF2D F003      01469                 GOTO    HBHX
000652 CFE7 FFE8      01470                 MOVFF   INDF1,WREG
000656 16EF           01471                 ANDWF   INDF0
000658 0012           01472                 RETURN
00065A                01473 HBHX
00065A 0EE8           01474                 MOVLW   .232
00065C 654E           01475                 CPFSGT  CURSORX_TEMP,1
00065E 0012           01476                 RETURN
                      01477                 
                      01478 
000660 0EF0           01479                 MOVLW   .240
000662 614E           01480                 CPFSLT  CURSORX_TEMP,1
000664 EF3F F003      01481                 GOTO    HBHX240
                      01482 
000668 0E57           01483                 MOVLW   57
00066A 64E1           01484                 CPFSGT  FSR1L
00066C 0012           01485                 RETURN
                      01486                 
                      01487 
                      01488                 
00066E 0E03           01489                 MOVLW   3
000670 5EE9           01490                 SUBWF   FSR0L
                      01491 
000672 CFE7 FFE8      01492                 MOVFF   INDF1,WREG
000676 16EF           01493                 ANDWF   INDF0   
                      01494                         
000678 0E03           01495                 MOVLW   3
00067A 26E9           01496                 ADDWF   FSR0L
Warning[203]: Found opcode in column 1. (RETURN)
00067C 0012           01497 RETURN
                      01498 
                      01499 
00067E                01500 HBHX240 
00067E 0EF8           01501                 MOVLW   .248
000680 614E           01502                 CPFSLT  CURSORX_TEMP,1
MPASM  5.51                 20200227_P6MM.ASM   2-27-2020  19:46:00         PAGE 32


LOC  OBJECT CODE     LINE SOURCE TEXT
  VALUE

000682 EF4E F003      01503                 GOTO    HBHX248
                      01504         
000686 0E56           01505                 MOVLW   56
000688 64E1           01506                 CPFSGT  FSR1L
00068A 0012           01507                 RETURN
                      01508                 
                      01509 
                      01510                 
00068C 0E02           01511                 MOVLW   2
00068E 5EE9           01512                 SUBWF   FSR0L
                      01513 
000690 CFE7 FFE8      01514                 MOVFF   INDF1,WREG
000694 16EF           01515                 ANDWF   INDF0   
                      01516                         
000696 0E02           01517                 MOVLW   2
000698 26E9           01518                 ADDWF   FSR0L
Warning[203]: Found opcode in column 1. (RETURN)
00069A 0012           01519 RETURN
                      01520 
00069C                01521 HBHX248
00069C 0E55           01522                 MOVLW   55
00069E 64E1           01523                 CPFSGT  FSR1L
0006A0 0012           01524                 RETURN
                      01525                 
0006A2 0E01           01526                 MOVLW   1
0006A4 5EE9           01527                 SUBWF   FSR0L
                      01528 
0006A6 CFE7 FFE8      01529                 MOVFF   INDF1,WREG
0006AA 16EF           01530                 ANDWF   INDF0   
                      01531                         
0006AC 0E01           01532                 MOVLW   1
0006AE 26E9           01533                 ADDWF   FSR0L
Warning[203]: Found opcode in column 1. (RETURN)
0006B0 0012           01534 RETURN
                      01535 
                      01536 
                      01537 
                      01538 
                      01539 
                      01540 
0006B2                01541 HUBTESTL
0006B2 AB5D           01542                 BTFSS   HUB,5
0006B4 EF82 F003      01543                 GOTO    HUBL_EXIT
                      01544 
0006B8 0E28           01545                 MOVLW   .40
0006BA 614C           01546                 CPFSLT  CURSORX,1
0006BC EF62 F003      01547                 GOTO    HTL_CXGT40
0006C0 EF82 F003      01548                 GOTO    HUBL_EXIT
                      01549 
                      01550 
0006C4                01551 HTL_CXGT40
0006C4 0E30           01552                 MOVLW   .48
0006C6 614C           01553                 CPFSLT  CURSORX,1
MPASM  5.51                 20200227_P6MM.ASM   2-27-2020  19:46:00         PAGE 33


LOC  OBJECT CODE     LINE SOURCE TEXT
  VALUE

0006C8 EF6B F003      01554                 GOTO    HTL_CXGT48
                      01555 
0006CC 0E5B           01556                 MOVLW   5B
0006CE 64E1           01557                 CPFSGT  FSR1L,0
0006D0 EF82 F003      01558                 GOTO    HUBL_EXIT
0006D4 0012           01559                 RETURN
                      01560 
                      01561 
0006D6                01562 HTL_CXGT48
0006D6 0E37           01563                 MOVLW   .55
0006D8 614C           01564                 CPFSLT  CURSORX,1
0006DA EF74 F003      01565                 GOTO    HTL_CXGT55
                      01566 
0006DE 0E5A           01567                 MOVLW   5A
0006E0 64E1           01568                 CPFSGT  FSR1L,0
0006E2 EF82 F003      01569                 GOTO    HUBL_EXIT
0006E6 0012           01570                 RETURN
                      01571 
                      01572 
0006E8                01573 HTL_CXGT55
0006E8 0E37           01574                 MOVLW   .55
0006EA 634C           01575                 CPFSEQ  CURSORX,1
0006EC EF7D F003      01576                 GOTO    HTLPX
                      01577 
0006F0 0E5A           01578                 MOVLW   5A
0006F2 64E1           01579                 CPFSGT  FSR1L,0
0006F4 EF82 F003      01580                 GOTO    HUBL_EXIT
0006F8 0012           01581                 RETURN
                      01582                 
                      01583 
0006FA                01584 HTLPX
0006FA 0E59           01585                 MOVLW   59
0006FC 64E1           01586                 CPFSGT  FSR1L,0
0006FE EF82 F003      01587                 GOTO    HUBL_EXIT
000702 0012           01588                 RETURN
                      01589                 
                      01590 
                      01591 
000704                01592 HUBL_EXIT
000704 B163           01593                 BTFSC   CSRBIT,0
000706 EF89 F003      01594                 GOTO    HBLX
00070A CFE7 FFE8      01595                 MOVFF   INDF1,WREG
00070E 16EF           01596                 ANDWF   INDF0
000710 0012           01597                 RETURN
000712                01598 HBLX
000712 0EE8           01599                 MOVLW   .232
000714 654E           01600                 CPFSGT  CURSORX_TEMP,1
000716 0012           01601                 RETURN
                      01602                 
                      01603 
000718 0EF0           01604                 MOVLW   .240
00071A 614E           01605                 CPFSLT  CURSORX_TEMP,1
00071C EF9B F003      01606                 GOTO    HBLX240
MPASM  5.51                 20200227_P6MM.ASM   2-27-2020  19:46:00         PAGE 34


LOC  OBJECT CODE     LINE SOURCE TEXT
  VALUE

                      01607 
000720 0E5B           01608                 MOVLW   5B
000722 64E1           01609                 CPFSGT  FSR1L
000724 0012           01610                 RETURN
                      01611                 
                      01612 
                      01613                 
000726 0E03           01614                 MOVLW   3
000728 5EE9           01615                 SUBWF   FSR0L
                      01616 
00072A CFE7 FFE8      01617                 MOVFF   INDF1,WREG
00072E 16EF           01618                 ANDWF   INDF0   
                      01619                         
000730 0E03           01620                 MOVLW   3
000732 26E9           01621                 ADDWF   FSR0L
Warning[203]: Found opcode in column 1. (RETURN)
000734 0012           01622 RETURN
                      01623 
                      01624 
000736                01625 HBLX240 
000736 0EF8           01626                 MOVLW   .248
000738 614E           01627                 CPFSLT  CURSORX_TEMP,1
00073A EFAA F003      01628                 GOTO    HBLX248
                      01629         
00073E 0E5A           01630                 MOVLW   5A
000740 64E1           01631                 CPFSGT  FSR1L
000742 0012           01632                 RETURN
                      01633                 
                      01634 
                      01635                 
000744 0E02           01636                 MOVLW   2
000746 5EE9           01637                 SUBWF   FSR0L
                      01638 
000748 CFE7 FFE8      01639                 MOVFF   INDF1,WREG
00074C 16EF           01640                 ANDWF   INDF0   
                      01641                         
00074E 0E02           01642                 MOVLW   2
000750 26E9           01643                 ADDWF   FSR0L
Warning[203]: Found opcode in column 1. (RETURN)
000752 0012           01644 RETURN
                      01645 
000754                01646 HBLX248
000754 0E59           01647                 MOVLW   59
000756 64E1           01648                 CPFSGT  FSR1L
000758 0012           01649                 RETURN
                      01650                 
00075A 0E01           01651                 MOVLW   1
00075C 5EE9           01652                 SUBWF   FSR0L
                      01653 
00075E CFE7 FFE8      01654                 MOVFF   INDF1,WREG
000762 16EF           01655                 ANDWF   INDF0   
                      01656                         
000764 0E01           01657                 MOVLW   1
MPASM  5.51                 20200227_P6MM.ASM   2-27-2020  19:46:00         PAGE 35


LOC  OBJECT CODE     LINE SOURCE TEXT
  VALUE

000766 26E9           01658                 ADDWF   FSR0L
Warning[203]: Found opcode in column 1. (RETURN)
000768 0012           01659 RETURN
                      01660         
                      01661 ;==========================================================     
                      01662 
                      01663 
                      01664 
                      01665 
                      01666 
                      01667 ;==========     CHECK CURSOR X (FOR     SHIFTING DATA) ============
00076A                01668 CURSORX_TEST            
00076A 0E08           01669         MOVLW   8
00076C 614C           01670         CPFSLT  CURSORX,1
00076E EFBE F003      01671         GOTO    CXGE8           ;CURSORX>=DEC8
                      01672 
                      01673 ;CURSORX<DEC8
000772                01674 CX08
000772 C14C F141      01675         MOVFF   CURSORX,LOOP
000776 0E00           01676         MOVLW   0
000778 6F45           01677         MOVWF   POINTER
Warning[203]: Found opcode in column 1. (RETURN)
00077A 0012           01678 RETURN
                      01679 
                      01680 
00077C                01681 CXGE8
00077C 0E10           01682         MOVLW   .16
00077E 614C           01683         CPFSLT  CURSORX,1
000780 EFC9 F003      01684         GOTO    CXGE16          ;CURSORX>=DEC16
                      01685 ;CURSORX<DEC16
000784                01686 CX16
000784 C14C F141      01687         MOVFF   CURSORX,LOOP
000788 0E08           01688         MOVLW   8
00078A 5F41           01689         SUBWF   LOOP,1
00078C 0E01           01690         MOVLW   1
00078E 6F45           01691         MOVWF   POINTER
Warning[203]: Found opcode in column 1. (RETURN)
000790 0012           01692 RETURN
                      01693 
                      01694         
000792                01695 CXGE16
000792 0E18           01696         MOVLW   .24
000794 614C           01697         CPFSLT  CURSORX,1
000796 EFD4 F003      01698         GOTO    CXGE24          ;CURSORX>=DEC24
                      01699 ;CURSORX<DEC24
00079A                01700 CX24
00079A C14C F141      01701         MOVFF   CURSORX,LOOP
00079E 0E10           01702         MOVLW   .16
0007A0 5F41           01703         SUBWF   LOOP,1
0007A2 0E02           01704         MOVLW   2
0007A4 6F45           01705         MOVWF   POINTER
Warning[203]: Found opcode in column 1. (RETURN)
0007A6 0012           01706 RETURN
MPASM  5.51                 20200227_P6MM.ASM   2-27-2020  19:46:00         PAGE 36


LOC  OBJECT CODE     LINE SOURCE TEXT
  VALUE

                      01707 
                      01708 
0007A8                01709 CXGE24
0007A8 0E20           01710         MOVLW   .32
0007AA 614C           01711         CPFSLT  CURSORX,1
0007AC EFDF F003      01712         GOTO    CXGE32          ;CURSORX>=DEC32
                      01713 ;CURSORX<DEC32
0007B0                01714 CX32
0007B0 C14C F141      01715         MOVFF   CURSORX,LOOP
0007B4 0E18           01716         MOVLW   .24
0007B6 5F41           01717         SUBWF   LOOP,1
0007B8 0E03           01718         MOVLW   3
0007BA 6F45           01719         MOVWF   POINTER
Warning[203]: Found opcode in column 1. (RETURN)
0007BC 0012           01720 RETURN
                      01721 
0007BE                01722 CXGE32
0007BE 0E28           01723         MOVLW   .40
0007C0 614C           01724         CPFSLT  CURSORX,1
0007C2 EFEA F003      01725         GOTO    CXGE40          ;CURSORX>=DEC40
                      01726 ;CURSORX<DEC40
0007C6                01727 CX40
0007C6 C14C F141      01728         MOVFF   CURSORX,LOOP
0007CA 0E20           01729         MOVLW   .32
0007CC 5F41           01730         SUBWF   LOOP,1
0007CE 0E04           01731         MOVLW   4
0007D0 6F45           01732         MOVWF   POINTER
Warning[203]: Found opcode in column 1. (RETURN)
0007D2 0012           01733 RETURN
                      01734 
                      01735 
0007D4                01736 CXGE40
0007D4 0E30           01737         MOVLW   .48
0007D6 614C           01738         CPFSLT  CURSORX,1
0007D8 EFF5 F003      01739         GOTO    CXGE48          ;CURSORX>=DEC48
                      01740 ;CURSORX<DEC48
0007DC                01741 CX48
0007DC C14C F141      01742         MOVFF   CURSORX,LOOP
0007E0 0E28           01743         MOVLW   .40
0007E2 5F41           01744         SUBWF   LOOP,1
0007E4 0E05           01745         MOVLW   5
0007E6 6F45           01746         MOVWF   POINTER
Warning[203]: Found opcode in column 1. (RETURN)
0007E8 0012           01747 RETURN
                      01748 
                      01749 
                      01750 
0007EA                01751 CXGE48
0007EA 0E38           01752         MOVLW   .56
0007EC 614C           01753         CPFSLT  CURSORX,1
0007EE EF00 F004      01754         GOTO    CXGE56          ;CURSORX>=DEC56
                      01755 ;CURSORX<DEC56
0007F2                01756 CX56
MPASM  5.51                 20200227_P6MM.ASM   2-27-2020  19:46:00         PAGE 37


LOC  OBJECT CODE     LINE SOURCE TEXT
  VALUE

0007F2 C14C F141      01757         MOVFF   CURSORX,LOOP
0007F6 0E30           01758         MOVLW   .48
0007F8 5F41           01759         SUBWF   LOOP,1
0007FA 0E06           01760         MOVLW   6
0007FC 6F45           01761         MOVWF   POINTER
Warning[203]: Found opcode in column 1. (RETURN)
0007FE 0012           01762 RETURN
                      01763 
                      01764 
000800                01765 CXGE56
000800 0E40           01766         MOVLW   .64
000802 614C           01767         CPFSLT  CURSORX,1
000804 0012           01768         RETURN          ;CURSORX>=DEC64
                      01769 ;CURSORX<DEC64
000806                01770 CX64
000806 C14C F141      01771         MOVFF   CURSORX,LOOP
00080A 0E38           01772         MOVLW   .56
00080C 5F41           01773         SUBWF   LOOP,1
00080E 0E07           01774         MOVLW   7
000810 6F45           01775         MOVWF   POINTER
Warning[203]: Found opcode in column 1. (RETURN)
000812 0012           01776 RETURN
                      01777 
                      01778 
Warning[203]: Found opcode in column 1. (RETURN)
000814 0012           01779 RETURN
                      01780 ;============================================================== 
                      01781 
Warning[205]: Found directive in column 1. (ORG)
000C00                01782 ORG     0X0C00
000C00                01783 FONT02H
                      01784 
000C00 0E00           01785         MOVLW   0
000C02 6EFB           01786         MOVWF   PCLATU,0
000C04 0E0C           01787         MOVLW   0X0C
000C06 6EFA           01788         MOVWF   PCLATH,0
                      01789 
                      01790 
000C08 0E2B           01791         MOVLW   2B
000C0A 6148           01792         CPFSLT  NUMBER,1
000C0C EF00 F007      01793         GOTO    FONT02H_LOWERCASE
                      01794 
                      01795 
000C10 C148 FFE8      01796         MOVFF   NUMBER,WREG
                      01797 
                      01798 
                      01799 
000C14 90D8           01800         BCF             STATUS,C
000C16 34E8           01801         RLCF    WREG,0
000C18 90D8           01802         BCF             STATUS,C
000C1A 34E8           01803         RLCF    WREG,0
                      01804 
000C1C 26F9           01805         ADDWF   PCL,1,0
MPASM  5.51                 20200227_P6MM.ASM   2-27-2020  19:46:00         PAGE 38


LOC  OBJECT CODE     LINE SOURCE TEXT
  VALUE

                      01806 
                      01807         
000C1E EF00 F008      01808         GOTO    FONT02H_CAP_A           ;00
                      01809         
000C22 EF00 F009      01810         GOTO    FONT02H_CAP_B           ;01
                      01811 
000C26 EF00 F00A      01812         GOTO    FONT02H_CAP_C           ;02
                      01813 
000C2A EF00 F00B      01814         GOTO    FONT02H_CAP_D           ;03
                      01815 
000C2E EF00 F00C      01816         GOTO    FONT02H_CAP_E           ;04
                      01817 
000C32 EF00 F00D      01818         GOTO    FONT02H_CAP_F           ;05
                      01819 
000C36 EF00 F00E      01820         GOTO    FONT02H_CAP_G           ;06     
                      01821         
000C3A EF00 F00F      01822         GOTO    FONT02H_CAP_H           ;07
                      01823 
000C3E EF00 F010      01824         GOTO    FONT02H_CAP_I           ;08
                      01825         
000C42 EF00 F011      01826         GOTO    FONT02H_CAP_J           ;09
                      01827 
000C46 EF00 F012      01828         GOTO    FONT02H_CAP_K           ;0A
                      01829 
000C4A EF00 F013      01830         GOTO    FONT02H_CAP_L           ;0B
                      01831 
000C4E EF00 F014      01832         GOTO    FONT02H_CAP_M           ;0C
                      01833         
000C52 EF00 F015      01834         GOTO    FONT02H_CAP_N           ;0D
                      01835         
000C56 EF00 F016      01836         GOTO    FONT02H_CAP_O           ;0E
                      01837 
000C5A EF00 F017      01838         GOTO    FONT02H_CAP_P           ;0F
                      01839 
000C5E EF00 F018      01840         GOTO    FONT02H_CAP_Q           ;10
                      01841 
000C62 EF00 F019      01842         GOTO    FONT02H_CAP_R           ;11
                      01843 
000C66 EF00 F01A      01844         GOTO    FONT02H_CAP_S           ;12
                      01845 
000C6A EF00 F01B      01846         GOTO    FONT02H_CAP_T           ;13
                      01847 
000C6E EF00 F01C      01848         GOTO    FONT02H_CAP_U           ;14
                      01849 
000C72 EF00 F01D      01850         GOTO    FONT02H_CAP_V           ;15
                      01851 
000C76 EF00 F01E      01852         GOTO    FONT02H_CAP_W           ;16
                      01853 
000C7A EF00 F01F      01854         GOTO    FONT02H_CAP_X           ;17
                      01855 
000C7E EF00 F020      01856         GOTO    FONT02H_CAP_Y           ;18
                      01857 
000C82 EF00 F021      01858         GOTO    FONT02H_CAP_Z           ;19
MPASM  5.51                 20200227_P6MM.ASM   2-27-2020  19:46:00         PAGE 39


LOC  OBJECT CODE     LINE SOURCE TEXT
  VALUE

                      01859 
000C86 EF00 F022      01860         GOTO    FONT02H_CAP_ZERO        ;1A
                      01861 
000C8A EF00 F023      01862         GOTO    FONT02H_CAP_ONE         ;1B
                      01863 
000C8E EF00 F024      01864         GOTO    FONT02H_CAP_TWO         ;1C
                      01865 
000C92 EF00 F025      01866         GOTO    FONT02H_CAP_THREE       ;1D
                      01867 
000C96 EF00 F026      01868         GOTO    FONT02H_CAP_FOUR        ;1E
                      01869 
000C9A EF00 F027      01870         GOTO    FONT02H_CAP_FIVE        ;1F
                      01871 
000C9E EF00 F028      01872         GOTO    FONT02H_CAP_SIX         ;20
                      01873 
000CA2 EF00 F029      01874         GOTO    FONT02H_CAP_SEVEN       ;21
                      01875 
000CA6 EF00 F02A      01876         GOTO    FONT02H_CAP_EIGHT       ;22
                      01877 
000CAA EF00 F02B      01878         GOTO    FONT02H_CAP_NINE        ;23
                      01879         
000CAE EF00 F02C      01880         GOTO    FONT02H_CAP_ENYE        ;24
                      01881 
000CB2 EF00 F02D      01882         GOTO    FONT02H_CAP_DASH        ;25
                      01883 
000CB6 EF00 F02E      01884         GOTO    FONT02H_CAP_COLON       ;26
                      01885 
000CBA EF00 F02F      01886         GOTO    FONT02H_CAP_SEMICOLON   ;27
                      01887 
000CBE EF00 F030      01888         GOTO    FONT02H_CAP_COMMA       ;28
                      01889 
000CC2 EF00 F031      01890         GOTO    FONT02H_CAP_DOT         ;29
                      01891 
000CC6 EF00 F032      01892         GOTO    FONT02H_CAP_SPACE       ;2A
                      01893 
                      01894 
000CCA 0012           01895         RETURN                                          ;2B
000CCC 0000           01896         NOP
000CCE 0012           01897         RETURN                                          ;2C
000CD0 0000           01898         NOP
000CD2 0012           01899         RETURN                                          ;2D
000CD4 0000           01900         NOP
000CD6 0012           01901         RETURN                                          ;2E
000CD8 0000           01902         NOP
000CDA 0012           01903         RETURN                                          ;2F
000CDC 0000           01904         NOP
000CDE EF39 F008      01905         GOTO    FONT02H_LOW_A           ;30
                      01906 
                      01907 
                      01908 
                      01909 
Warning[205]: Found directive in column 1. (ORG)
000D00                01910 ORG     0X0D00
MPASM  5.51                 20200227_P6MM.ASM   2-27-2020  19:46:00         PAGE 40


LOC  OBJECT CODE     LINE SOURCE TEXT
  VALUE

000D00                01911 FONT02L
                      01912 
000D00 0E00           01913         MOVLW   0
000D02 6EFB           01914         MOVWF   PCLATU,0
000D04 0E0D           01915         MOVLW   0X0D
000D06 6EFA           01916         MOVWF   PCLATH,0
                      01917 
                      01918 
000D08 0E2B           01919         MOVLW   2B
000D0A 6148           01920         CPFSLT  NUMBER,1
000D0C EF80 F007      01921         GOTO    FONT02L_LOWERCASE
                      01922 
                      01923 
000D10 C148 FFE8      01924         MOVFF   NUMBER,WREG
                      01925 
                      01926 
000D14 90D8           01927         BCF             STATUS,C
000D16 34E8           01928         RLCF    WREG,0
000D18 90D8           01929         BCF             STATUS,C
000D1A 34E8           01930         RLCF    WREG,0
                      01931 
                      01932 
                      01933 
000D1C 26F9           01934         ADDWF   PCL,1,0
                      01935 
                      01936 
                      01937         
000D1E EF00 F008      01938         GOTO    FONT02H_CAP_A
                      01939         
000D22 EF00 F009      01940         GOTO    FONT02H_CAP_B
                      01941 
000D26 EF00 F00A      01942         GOTO    FONT02H_CAP_C
                      01943 
000D2A EF00 F00B      01944         GOTO    FONT02H_CAP_D
                      01945 
000D2E EF00 F00C      01946         GOTO    FONT02H_CAP_E
                      01947 
000D32 EF00 F00D      01948         GOTO    FONT02H_CAP_F
                      01949 
000D36 EF00 F00E      01950         GOTO    FONT02H_CAP_G
                      01951 
000D3A EF00 F00F      01952         GOTO    FONT02H_CAP_H
                      01953 
000D3E EF00 F010      01954         GOTO    FONT02H_CAP_I
                      01955 
000D42 EF00 F011      01956         GOTO    FONT02H_CAP_J
                      01957         
000D46 EF00 F012      01958         GOTO    FONT02H_CAP_K
                      01959 
000D4A EF00 F013      01960         GOTO    FONT02H_CAP_L
                      01961         
000D4E EF00 F014      01962         GOTO    FONT02H_CAP_M
                      01963         
MPASM  5.51                 20200227_P6MM.ASM   2-27-2020  19:46:00         PAGE 41


LOC  OBJECT CODE     LINE SOURCE TEXT
  VALUE

000D52 EF00 F015      01964         GOTO    FONT02H_CAP_N
                      01965 
000D56 EF00 F016      01966         GOTO    FONT02H_CAP_O
                      01967 
000D5A EF00 F017      01968         GOTO    FONT02H_CAP_P
                      01969         
000D5E EF00 F018      01970         GOTO    FONT02H_CAP_Q
                      01971 
000D62 EF00 F019      01972         GOTO    FONT02H_CAP_R
                      01973 
000D66 EF00 F01A      01974         GOTO    FONT02H_CAP_S
                      01975         
000D6A EF00 F01B      01976         GOTO    FONT02H_CAP_T
                      01977 
000D6E EF00 F01C      01978         GOTO    FONT02H_CAP_U
                      01979 
000D72 EF00 F01D      01980         GOTO    FONT02H_CAP_V
                      01981 
000D76 EF00 F01E      01982         GOTO    FONT02H_CAP_W
                      01983 
000D7A EF00 F01F      01984         GOTO    FONT02H_CAP_X
                      01985 
000D7E EF00 F020      01986         GOTO    FONT02H_CAP_Y
                      01987 
000D82 EF00 F021      01988         GOTO    FONT02H_CAP_Z
                      01989 
000D86 EF00 F022      01990         GOTO    FONT02H_CAP_ZERO
                      01991 
000D8A EF00 F023      01992         GOTO    FONT02H_CAP_ONE
                      01993         
000D8E EF00 F024      01994         GOTO    FONT02H_CAP_TWO
                      01995 
000D92 EF00 F025      01996         GOTO    FONT02H_CAP_THREE
                      01997 
000D96 EF00 F026      01998         GOTO    FONT02H_CAP_FOUR
                      01999 
000D9A EF00 F027      02000         GOTO    FONT02H_CAP_FIVE
                      02001 
000D9E EF00 F028      02002         GOTO    FONT02H_CAP_SIX
                      02003 
000DA2 EF00 F029      02004         GOTO    FONT02H_CAP_SEVEN
                      02005 
000DA6 EF00 F02A      02006         GOTO    FONT02H_CAP_EIGHT
                      02007 
000DAA EF00 F02B      02008         GOTO    FONT02H_CAP_NINE
                      02009         
000DAE EF00 F02C      02010         GOTO    FONT02H_CAP_ENYE
                      02011 
000DB2 EF00 F02D      02012         GOTO    FONT02H_CAP_DASH
                      02013 
000DB6 EF00 F02E      02014         GOTO    FONT02H_CAP_COLON
                      02015 
000DBA EF00 F02F      02016         GOTO    FONT02H_CAP_SEMICOLON
MPASM  5.51                 20200227_P6MM.ASM   2-27-2020  19:46:00         PAGE 42


LOC  OBJECT CODE     LINE SOURCE TEXT
  VALUE

                      02017 
000DBE EF00 F030      02018         GOTO    FONT02H_CAP_COMMA
                      02019 
000DC2 EF00 F031      02020         GOTO    FONT02H_CAP_DOT
                      02021 
000DC6 EF00 F032      02022         GOTO    FONT02H_CAP_SPACE
                      02023 
                      02024 
000DCA 0012           02025         RETURN
000DCC 0000           02026         NOP
000DCE 0012           02027         RETURN
000DD0 0000           02028         NOP
000DD2 0012           02029         RETURN
000DD4 0000           02030         NOP
000DD6 0012           02031         RETURN
000DD8 0000           02032         NOP
000DDA 0012           02033         RETURN
000DDC EFB9 F008      02034         GOTO    FONT02L_LOW_A
                      02035 
                      02036 
                      02037 
                      02038 
Warning[205]: Found directive in column 1. (ORG)
000E00                02039 ORG     0X0E00
000E00                02040 FONT02H_LOWERCASE
                      02041 
000E00 0E00           02042         MOVLW   0
000E02 6EFB           02043         MOVWF   PCLATU,0
000E04 0E0E           02044         MOVLW   0X0E
000E06 6EFA           02045         MOVWF   PCLATH,0
                      02046 
                      02047 
000E08 C148 FFE8      02048         MOVFF   NUMBER,WREG
                      02049 
                      02050 
000E0C ACE8           02051         BTFSS   WREG,6
000E0E EF0E F007      02052         GOTO    FONT02H_ISL4
                      02053         
000E12 A8E8           02054         BTFSS   WREG,4
000E14 EF12 F007      02055         GOTO    FONT02H_NUMH_IS4
000E18 EF16 F007      02056         GOTO    FONT02H_NUMH_IS5
                      02057 
                      02058 
000E1C                02059 FONT02H_ISL4
000E1C 98E8           02060         BCF             WREG,4
000E1E 9AE8           02061         BCF             WREG,5
000E20 EF19 F007      02062         GOTO    FONT02H_LOWERCASE0      
                      02063 
000E24                02064 FONT02H_NUMH_IS4
000E24 9CE8           02065         BCF             WREG,6
000E26 88E8           02066         BSF             WREG,4
000E28 EF19 F007      02067         GOTO    FONT02H_LOWERCASE0
                      02068 
MPASM  5.51                 20200227_P6MM.ASM   2-27-2020  19:46:00         PAGE 43


LOC  OBJECT CODE     LINE SOURCE TEXT
  VALUE

000E2C                02069 FONT02H_NUMH_IS5
000E2C 98E8           02070         BCF             WREG,4
000E2E 9CE8           02071         BCF             WREG,6
000E30 8AE8           02072         BSF             WREG,5
                      02073 
000E32                02074 FONT02H_LOWERCASE0
                      02075 
000E32 90D8           02076         BCF             STATUS,C
000E34 34E8           02077         RLCF    WREG,0
000E36 90D8           02078         BCF             STATUS,C
000E38 34E8           02079         RLCF    WREG,0
                      02080 
000E3A 26F9           02081         ADDWF   PCL,1,0
                      02082 
                      02083         
000E3C EF39 F008      02084         GOTO    FONT02H_LOW_A           ;30
                      02085         
000E40 EF39 F009      02086         GOTO    FONT02H_LOW_B           ;31
                      02087 
000E44 EF39 F00A      02088         GOTO    FONT02H_LOW_C           ;32
                      02089 
000E48 EF39 F00B      02090         GOTO    FONT02H_LOW_D           ;33
                      02091 
000E4C EF39 F00C      02092         GOTO    FONT02H_LOW_E           ;34
                      02093 
000E50 EF39 F00D      02094         GOTO    FONT02H_LOW_F           ;35
                      02095 
000E54 EF39 F00E      02096         GOTO    FONT02H_LOW_G           ;36
                      02097 
000E58 EF39 F00F      02098         GOTO    FONT02H_LOW_H           ;37
                      02099 
000E5C EF39 F010      02100         GOTO    FONT02H_LOW_I           ;38
                      02101 
000E60 EF39 F011      02102         GOTO    FONT02H_LOW_J           ;39
                      02103 
000E64 EF39 F012      02104         GOTO    FONT02H_LOW_K           ;3A
                      02105 
000E68 EF39 F013      02106         GOTO    FONT02H_LOW_L           ;3B
                      02107 
000E6C EF39 F014      02108         GOTO    FONT02H_LOW_M           ;3C
                      02109 
000E70 EF39 F015      02110         GOTO    FONT02H_LOW_N           ;3D
                      02111 
000E74 EF39 F016      02112         GOTO    FONT02H_LOW_O           ;3E
                      02113 
000E78 EF39 F017      02114         GOTO    FONT02H_LOW_P           ;3F
                      02115 
000E7C EF39 F018      02116         GOTO    FONT02H_LOW_Q           ;40
                      02117 
000E80 EF39 F019      02118         GOTO    FONT02H_LOW_R           ;41
                      02119 
000E84 EF39 F01A      02120         GOTO    FONT02H_LOW_S           ;42
                      02121 
MPASM  5.51                 20200227_P6MM.ASM   2-27-2020  19:46:00         PAGE 44


LOC  OBJECT CODE     LINE SOURCE TEXT
  VALUE

000E88 EF39 F01B      02122         GOTO    FONT02H_LOW_T           ;43
                      02123 
000E8C EF39 F01C      02124         GOTO    FONT02H_LOW_U           ;44
                      02125 
000E90 EF39 F01D      02126         GOTO    FONT02H_LOW_V           ;45
                      02127 
000E94 EF39 F01E      02128         GOTO    FONT02H_LOW_W           ;46
                      02129 
000E98 EF3C F01F      02130         GOTO    FONT02H_LOW_X           ;47
                      02131 
000E9C EF3C F020      02132         GOTO    FONT02H_LOW_Y           ;48
                      02133 
000EA0 EF39 F021      02134         GOTO    FONT02H_LOW_Z           ;49
                      02135 
000EA4 EF00 F022      02136         GOTO    FONT02H_CAP_ZERO        ;4A
                      02137 
000EA8 EF00 F023      02138         GOTO    FONT02H_CAP_ONE         ;4B
                      02139 
000EAC EF00 F024      02140         GOTO    FONT02H_CAP_TWO         ;4C
                      02141 
000EB0 EF00 F025      02142         GOTO    FONT02H_CAP_THREE       ;4D
                      02143 
000EB4 EF00 F026      02144         GOTO    FONT02H_CAP_FOUR        ;4E
                      02145 
000EB8 EF00 F027      02146         GOTO    FONT02H_CAP_FIVE        ;4F
                      02147 
000EBC EF00 F028      02148         GOTO    FONT02H_CAP_SIX         ;50
                      02149 
000EC0 EF00 F029      02150         GOTO    FONT02H_CAP_SEVEN       ;51
                      02151 
000EC4 EF00 F02A      02152         GOTO    FONT02H_CAP_EIGHT       ;52
                      02153 
000EC8 EF00 F02B      02154         GOTO    FONT02H_CAP_NINE        ;53
                      02155 
000ECC EF39 F02C      02156         GOTO    FONT02H_LOW_ENYE        ;54
                      02157 
000ED0 EF39 F02D      02158         GOTO    FONT02H_LOW_DASH        ;55
                      02159 
000ED4 EF39 F02E      02160         GOTO    FONT02H_LOW_COLON       ;56
                      02161 
000ED8 EF39 F02F      02162         GOTO    FONT02H_LOW_SEMICOLON   ;57
                      02163         
000EDC EF39 F030      02164         GOTO    FONT02H_LOW_COMMA       ;58
                      02165 
000EE0 EF39 F031      02166         GOTO    FONT02H_LOW_DOT         ;59
                      02167 
000EE4 EF00 F032      02168         GOTO    FONT02H_CAP_SPACE       ;5A
                      02169 
                      02170 
Warning[203]: Found opcode in column 1. (RETURN)
000EE8 0012           02171 RETURN
                      02172 
                      02173 
MPASM  5.51                 20200227_P6MM.ASM   2-27-2020  19:46:00         PAGE 45


LOC  OBJECT CODE     LINE SOURCE TEXT
  VALUE

                      02174 
                      02175 
                      02176 
Warning[205]: Found directive in column 1. (ORG)
000F00                02177 ORG     0X0F00
000F00                02178 FONT02L_LOWERCASE
                      02179 
000F00 0E00           02180         MOVLW   0
000F02 6EFB           02181         MOVWF   PCLATU,0
000F04 0E0F           02182         MOVLW   0X0F
000F06 6EFA           02183         MOVWF   PCLATH,0
                      02184 
                      02185 
000F08 C148 FFE8      02186         MOVFF   NUMBER,WREG
                      02187 
000F0C ACE8           02188         BTFSS   WREG,6
000F0E EF8E F007      02189         GOTO    FONT02L_ISL4
                      02190         
000F12 A8E8           02191         BTFSS   WREG,4
000F14 EF92 F007      02192         GOTO    FONT02L_NUMH_IS4
000F18 EF96 F007      02193         GOTO    FONT02L_NUMH_IS5
                      02194 
                      02195 
000F1C                02196 FONT02L_ISL4
000F1C 98E8           02197         BCF             WREG,4
000F1E 9AE8           02198         BCF             WREG,5
000F20 EF99 F007      02199         GOTO    FONT02L_LOWERCASE0      
                      02200 
000F24                02201 FONT02L_NUMH_IS4
000F24 9CE8           02202         BCF             WREG,6
000F26 88E8           02203         BSF             WREG,4
000F28 EF99 F007      02204         GOTO    FONT02L_LOWERCASE0
                      02205 
000F2C                02206 FONT02L_NUMH_IS5
000F2C 98E8           02207         BCF             WREG,4
000F2E 9CE8           02208         BCF             WREG,6
000F30 8AE8           02209         BSF             WREG,5
                      02210 
                      02211 
000F32                02212 FONT02L_LOWERCASE0
                      02213 
000F32 90D8           02214         BCF             STATUS,C
000F34 34E8           02215         RLCF    WREG,0
000F36 90D8           02216         BCF             STATUS,C
000F38 34E8           02217         RLCF    WREG,0
                      02218 
                      02219 
                      02220 
000F3A 26F9           02221         ADDWF   PCL,1,0
                      02222 
                      02223 
                      02224         
000F3C EF39 F008      02225         GOTO    FONT02H_LOW_A
MPASM  5.51                 20200227_P6MM.ASM   2-27-2020  19:46:00         PAGE 46


LOC  OBJECT CODE     LINE SOURCE TEXT
  VALUE

                      02226         
000F40 EF39 F009      02227         GOTO    FONT02H_LOW_B
                      02228 
000F44 EF39 F00A      02229         GOTO    FONT02H_LOW_C
                      02230 
000F48 EF39 F00B      02231         GOTO    FONT02H_LOW_D
                      02232 
000F4C EF39 F00C      02233         GOTO    FONT02H_LOW_E
                      02234 
000F50 EF39 F00D      02235         GOTO    FONT02H_LOW_F
                      02236 
000F54 EF39 F00E      02237         GOTO    FONT02H_LOW_G
                      02238 
000F58 EF39 F00F      02239         GOTO    FONT02H_LOW_H
                      02240 
000F5C EF39 F010      02241         GOTO    FONT02H_LOW_I
                      02242 
000F60 EF39 F011      02243         GOTO    FONT02H_LOW_J
                      02244 
000F64 EF39 F012      02245         GOTO    FONT02H_LOW_K
                      02246 
000F68 EF39 F013      02247         GOTO    FONT02H_LOW_L
                      02248 
000F6C EF39 F014      02249         GOTO    FONT02H_LOW_M
                      02250 
000F70 EF39 F015      02251         GOTO    FONT02H_LOW_N
                      02252 
000F74 EF39 F016      02253         GOTO    FONT02H_LOW_O
                      02254 
000F78 EF39 F017      02255         GOTO    FONT02H_LOW_P
                      02256 
000F7C EF39 F018      02257         GOTO    FONT02H_LOW_Q
                      02258 
000F80 EF39 F019      02259         GOTO    FONT02H_LOW_R
                      02260 
000F84 EF39 F01A      02261         GOTO    FONT02H_LOW_S
                      02262 
000F88 EF39 F01B      02263         GOTO    FONT02H_LOW_T
                      02264 
000F8C EF39 F01C      02265         GOTO    FONT02H_LOW_U
                      02266 
000F90 EF39 F01D      02267         GOTO    FONT02H_LOW_V
                      02268 
000F94 EF39 F01E      02269         GOTO    FONT02H_LOW_W
                      02270 
000F98 EF3C F01F      02271         GOTO    FONT02H_LOW_X
                      02272 
000F9C EF3C F020      02273         GOTO    FONT02H_LOW_Y
                      02274 
000FA0 EF39 F021      02275         GOTO    FONT02H_LOW_Z
                      02276 
000FA4 EF80 F022      02277         GOTO    FONT02L_CAP_ZERO        ;4A
                      02278 
MPASM  5.51                 20200227_P6MM.ASM   2-27-2020  19:46:00         PAGE 47


LOC  OBJECT CODE     LINE SOURCE TEXT
  VALUE

000FA8 EF80 F023      02279         GOTO    FONT02L_CAP_ONE         ;4B
                      02280 
000FAC EF80 F024      02281         GOTO    FONT02L_CAP_TWO         ;4C
                      02282 
000FB0 EF80 F025      02283         GOTO    FONT02L_CAP_THREE       ;4D
                      02284 
000FB4 EF80 F026      02285         GOTO    FONT02L_CAP_FOUR        ;4E
                      02286 
000FB8 EF80 F027      02287         GOTO    FONT02L_CAP_FIVE        ;4F
                      02288 
000FBC EF80 F028      02289         GOTO    FONT02L_CAP_SIX         ;50
                      02290 
000FC0 EF80 F029      02291         GOTO    FONT02L_CAP_SEVEN       ;51
                      02292 
000FC4 EF80 F02A      02293         GOTO    FONT02L_CAP_EIGHT       ;52
                      02294 
000FC8 EF80 F02B      02295         GOTO    FONT02L_CAP_NINE        ;53
                      02296 
000FCC EFB9 F02C      02297         GOTO    FONT02L_LOW_ENYE        ;54
                      02298 
000FD0 EFB9 F02D      02299         GOTO    FONT02L_LOW_DASH        ;55
                      02300 
000FD4 EFB9 F02E      02301         GOTO    FONT02L_LOW_COLON       ;56
                      02302 
000FD8 EFB9 F02F      02303         GOTO    FONT02L_LOW_SEMICOLON   ;57
                      02304 
000FDC EFB9 F030      02305         GOTO    FONT02L_LOW_COMMA       ;58
                      02306 
000FE0 EFB9 F031      02307         GOTO    FONT02L_LOW_DOT         ;59
                      02308 
000FE4 EF80 F032      02309         GOTO    FONT02L_CAP_SPACE       ;5A
                      02310 
                      02311 
Warning[203]: Found opcode in column 1. (RETURN)
000FE8 0012           02312 RETURN
                      02313 
                      02314 
                      02315 
                      02316 
                      02317 
                      02318 
                      02319 
                      02320 
                      02321 
                      02322 
                      02323 ;=========================      CHARACTERS VISUAL MEMORY ================
Warning[205]: Found directive in column 1. (ORG)
001000                02324 ORG 0X1000
001000                02325 FONT02H_CAP_A
                      02326 
001000 0E00           02327         MOVLW   0
001002 6EFB           02328         MOVWF   PCLATU,0
001004 0E10           02329         MOVLW   10
MPASM  5.51                 20200227_P6MM.ASM   2-27-2020  19:46:00         PAGE 48


LOC  OBJECT CODE     LINE SOURCE TEXT
  VALUE

001006 6EFA           02330         MOVWF   PCLATH,0
                      02331 
                      02332 
                      02333 
001008 C146 FFE8      02334                         MOVFF   BTCOUNT,WREG
00100C 90D8           02335                         BCF             STATUS,C
00100E 36E8           02336                         RLCF    WREG
                      02337 
                      02338                 
001010 26F9           02339                         ADDWF   PCL,1,0
001012 0CFF 0CFF 0CFF 02340                         DT      B'11111111',B'11111111',B'11111111'     ;BTC=00
001018 0CF9 0CFF 0CFF 02341                         DT      B'11111001',B'11111111',B'11111111'     ;BTC=01
00101E 0CF0 0CFF 0CFF 02342                         DT      B'11110000',B'11111111',B'11111111'     ;BTC=02
001024 0CE6 0C7F 0CFF 02343                         DT      B'11100110',B'01111111',B'11111111'     ;BTC=03
00102A 0CCF 0C3F 0CFF 02344                         DT      B'11001111',B'00111111',B'11111111'     ;BTC=04
001030 0C9F 0C9F 0CFF 02345                         DT      B'10011111',B'10011111',B'11111111'     ;BTC=05
001036 0C9F 0C9F 0CFF 02346                         DT      B'10011111',B'10011111',B'11111111'     ;BTC=06
00103C 0C80 0C1F 0CFF 02347                         DT      B'10000000',B'00011111',B'11111111'     ;BTC=07
001042 0C80 0C1F 0CFF 02348                         DT      B'10000000',B'00011111',B'11111111'     ;BTC=08
001048 0C9F 0C9F 0CFF 02349                         DT      B'10011111',B'10011111',B'11111111'     ;BTC=09
00104E 0C9F 0C9F 0CFF 02350                         DT      B'10011111',B'10011111',B'11111111'     ;BTC=0A
001054 0C9F 0C9F 0CFF 02351                         DT      B'10011111',B'10011111',B'11111111'     ;BTC=0B
00105A 0C9F 0C9F 0CFF 02352                         DT      B'10011111',B'10011111',B'11111111'     ;BTC=0C
001060 0C9F 0C9F 0CFF 02353                         DT      B'10011111',B'10011111',B'11111111'     ;BTC=0D
001066 0C9F 0C9F 0CFF 02354                         DT      B'10011111',B'10011111',B'11111111'     ;BTC=0E
00106C 0CFF 0CFF 0CFF 02355                         DT      B'11111111',B'11111111',B'11111111'     ;BTC=0F
                      02356 
                      02357 
001072                02358 FONT02H_LOW_A
                      02359 
001072 0E00           02360         MOVLW   0
001074 6EFB           02361         MOVWF   PCLATU,0
001076 0E10           02362         MOVLW   10
001078 6EFA           02363         MOVWF   PCLATH,0
                      02364 
                      02365 
                      02366 
00107A C146 FFE8      02367                         MOVFF   BTCOUNT,WREG
00107E 90D8           02368                         BCF             STATUS,C
001080 36E8           02369                         RLCF    WREG
                      02370 
                      02371                 
001082 26F9           02372                         ADDWF   PCL,1,0
001084 0CFF 0CFF 0CFF 02373                         DT      B'11111111',B'11111111',B'11111111'     ;BTC=00
00108A 0CFF 0CFF 0CFF 02374                         DT      B'11111111',B'11111111',B'11111111'     ;BTC=01
001090 0CFF 0CFF 0CFF 02375                         DT      B'11111111',B'11111111',B'11111111'     ;BTC=02
001096 0CC0 0CFF 0CFF 02376                         DT      B'11000000',B'11111111',B'11111111'     ;BTC=03
00109C 0C80 0C7F 0CFF 02377                         DT      B'10000000',B'01111111',B'11111111'     ;BTC=04
0010A2 0C9C 0C7F 0CFF 02378                         DT      B'10011100',B'01111111',B'11111111'     ;BTC=05
0010A8 0CFE 0C7F 0CFF 02379                         DT      B'11111110',B'01111111',B'11111111'     ;BTC=06
0010AE 0CFC 0C7F 0CFF 02380                         DT      B'11111100',B'01111111',B'11111111'     ;BTC=07
0010B4 0CC0 0C7F 0CFF 02381                         DT      B'11000000',B'01111111',B'11111111'     ;BTC=08
0010BA 0C80 0C7F 0CFF 02382                         DT      B'10000000',B'01111111',B'11111111'     ;BTC=09
MPASM  5.51                 20200227_P6MM.ASM   2-27-2020  19:46:00         PAGE 49


LOC  OBJECT CODE     LINE SOURCE TEXT
  VALUE

0010C0 0C1C 0C7F 0CFF 02383                         DT      B'00011100',B'01111111',B'11111111'     ;BTC=0A
0010C6 0C3E 0C7F 0CFF 02384                         DT      B'00111110',B'01111111',B'11111111'     ;BTC=0B
0010CC 0C1C 0C7F 0CFF 02385                         DT      B'00011100',B'01111111',B'11111111'     ;BTC=0C
0010D2 0C80 0C7F 0CFF 02386                         DT      B'10000000',B'01111111',B'11111111'     ;BTC=0D
0010D8 0CC2 0C7F 0CFF 02387                         DT      B'11000010',B'01111111',B'11111111'     ;BTC=0E
0010DE 0CFF 0CFF 0CFF 02388                         DT      B'11111111',B'11111111',B'11111111'     ;BTC=0F
                      02389 
                      02390 
                      02391 
                      02392 
                      02393 
Warning[205]: Found directive in column 1. (ORG)
001100                02394 ORG 0X1100
001100                02395 FONT02L_CAP_A
                      02396 
001100 0E00           02397         MOVLW   0
001102 6EFB           02398         MOVWF   PCLATU,0
001104 0E11           02399         MOVLW   11
001106 6EFA           02400         MOVWF   PCLATH,0
                      02401 
                      02402 
                      02403 
001108 C146 FFE8      02404                         MOVFF   BTCOUNT,WREG
00110C 90D8           02405                         BCF             STATUS,C
00110E 36E8           02406                         RLCF    WREG
                      02407 
                      02408                 
001110 26F9           02409                         ADDWF   PCL,1,0
001112 0C80 0C00 0C0F 02410                         DT      B'10000000',B'00000000',B'00001111'     ;BTC=10
001118 0C80 0C00 0C0F 02411                         DT      B'10000000',B'00000000',B'00001111'     ;BTC=11
00111E 0C80 0C00 0C0F 02412                         DT      B'10000000',B'00000000',B'00001111'     ;BTC=12
001124 0C80 0C00 0C0F 02413                         DT      B'10000000',B'00000000',B'00001111'     ;BTC=13
00112A 0C87 0CFF 0C0F 02414                         DT      B'10000111',B'11111111',B'00001111'     ;BTC=14
001130 0C87 0CFF 0C0F 02415                         DT      B'10000111',B'11111111',B'00001111'     ;BTC=15
001136 0C87 0CFF 0C0F 02416                         DT      B'10000111',B'11111111',B'00001111'     ;BTC=16
00113C 0C87 0CFF 0C0F 02417                         DT      B'10000111',B'11111111',B'00001111'     ;BTC=17
001142 0C87 0CFF 0C0F 02418                         DT      B'10000111',B'11111111',B'00001111'     ;BTC=18
001148 0C87 0CFF 0C0F 02419                         DT      B'10000111',B'11111111',B'00001111'     ;BTC=19
00114E 0C87 0CFF 0C0F 02420                         DT      B'10000111',B'11111111',B'00001111'     ;BTC=1A
001154 0C87 0CFF 0C0F 02421                         DT      B'10000111',B'11111111',B'00001111'     ;BTC=1B
00115A 0C87 0CFF 0C0F 02422                         DT      B'10000111',B'11111111',B'00001111'     ;BTC=1C
001160 0C87 0CFF 0C0F 02423                         DT      B'10000111',B'11111111',B'00001111'     ;BTC=1D
001166 0C87 0CFF 0C0F 02424                         DT      B'10000111',B'11111111',B'00001111'     ;BTC=1E
00116C 0CFF 0CFF 0CFF 02425                         DT      B'11111111',B'11111111',B'11111111'     ;BTC=1F
                      02426 
001172                02427 FONT02L_LOW_A
                      02428 
001172 0E00           02429         MOVLW   0
001174 6EFB           02430         MOVWF   PCLATU,0
001176 0E11           02431         MOVLW   11
001178 6EFA           02432         MOVWF   PCLATH,0
                      02433 
                      02434 
MPASM  5.51                 20200227_P6MM.ASM   2-27-2020  19:46:00         PAGE 50


LOC  OBJECT CODE     LINE SOURCE TEXT
  VALUE

                      02435 
00117A C146 FFE8      02436                         MOVFF   BTCOUNT,WREG
00117E 90D8           02437                         BCF             STATUS,C
001180 36E8           02438                         RLCF    WREG
                      02439 
                      02440                 
001182 26F9           02441                         ADDWF   PCL,1,0
001184 0CC0 0C00 0C7F 02442                         DT      B'11000000',B'00000000',B'01111111'     ;BTC=10
00118A 0CFF 0CF8 0C7F 02443                         DT      B'11111111',B'11111000',B'01111111'     ;BTC=11
001190 0CFF 0CFC 0C7F 02444                         DT      B'11111111',B'11111100',B'01111111'     ;BTC=12
001196 0CFF 0CFC 0C7F 02445                         DT      B'11111111',B'11111100',B'01111111'     ;BTC=13
00119C 0CFF 0CF8 0C7F 02446                         DT      B'11111111',B'11111000',B'01111111'     ;BTC=14
0011A2 0CE0 0C00 0C7F 02447                         DT      B'11100000',B'00000000',B'01111111'     ;BTC=15
0011A8 0CC0 0C00 0C7F 02448                         DT      B'11000000',B'00000000',B'01111111'     ;BTC=16
0011AE 0C80 0C00 0C7F 02449                         DT      B'10000000',B'00000000',B'01111111'     ;BTC=17
0011B4 0C87 0CF8 0C7F 02450                         DT      B'10000111',B'11111000',B'01111111'     ;BTC=18
0011BA 0C8F 0CFC 0C7F 02451                         DT      B'10001111',B'11111100',B'01111111'     ;BTC=19
0011C0 0C8F 0CFC 0C7F 02452                         DT      B'10001111',B'11111100',B'01111111'     ;BTC=1A
0011C6 0C87 0CF8 0C7F 02453                         DT      B'10000111',B'11111000',B'01111111'     ;BTC=1B
0011CC 0C80 0C00 0C7F 02454                         DT      B'10000000',B'00000000',B'01111111'     ;BTC=1C
0011D2 0CC0 0C00 0C7F 02455                         DT      B'11000000',B'00000000',B'01111111'     ;BTC=1D
0011D8 0CE0 0C04 0C7F 02456                         DT      B'11100000',B'00000100',B'01111111'     ;BTC=1E
0011DE 0CFF 0CFF 0CFF 02457                         DT      B'11111111',B'11111111',B'11111111'     ;BTC=1F
                      02458 
                      02459 
                      02460 
Warning[205]: Found directive in column 1. (ORG)
001200                02461 ORG 0X1200
001200                02462 FONT02H_CAP_B
                      02463 
001200 0E00           02464         MOVLW   0
001202 6EFB           02465         MOVWF   PCLATU,0
001204 0E12           02466         MOVLW   12
001206 6EFA           02467         MOVWF   PCLATH,0
                      02468 
                      02469         
                      02470 
                      02471         
001208 C146 FFE8      02472                         MOVFF   BTCOUNT,WREG
00120C 90D8           02473                         BCF             STATUS,C
00120E 36E8           02474                         RLCF    WREG
                      02475 
                      02476                 
001210 26F9           02477                         ADDWF   PCL,1,0
001212 0CFF 0CFF 0CFF 02478                         DT      B'11111111',B'11111111',B'11111111'     ;BTC=00
001218 0C00 0CFF 0CFF 02479                         DT      B'00000000',B'11111111',B'11111111'     ;BTC=01
00121E 0C00 0C7F 0CFF 02480                         DT      B'00000000',B'01111111',B'11111111'     ;BTC=02
001224 0C3E 0C3F 0CFF 02481                         DT      B'00111110',B'00111111',B'11111111'     ;BTC=03
00122A 0C3F 0C3F 0CFF 02482                         DT      B'00111111',B'00111111',B'11111111'     ;BTC=04
001230 0C3F 0C3F 0CFF 02483                         DT      B'00111111',B'00111111',B'11111111'     ;BTC=05
001236 0C3E 0C3F 0CFF 02484                         DT      B'00111110',B'00111111',B'11111111'     ;BTC=06
00123C 0C00 0C7F 0CFF 02485                         DT      B'00000000',B'01111111',B'11111111'     ;BTC=07
001242 0C00 0C7F 0CFF 02486                         DT      B'00000000',B'01111111',B'11111111'     ;BTC=08
MPASM  5.51                 20200227_P6MM.ASM   2-27-2020  19:46:00         PAGE 51


LOC  OBJECT CODE     LINE SOURCE TEXT
  VALUE

001248 0C3E 0C3F 0CFF 02487                         DT      B'00111110',B'00111111',B'11111111'     ;BTC=09
00124E 0C3F 0C3F 0CFF 02488                         DT      B'00111111',B'00111111',B'11111111'     ;BTC=0A
001254 0C3F 0C3F 0CFF 02489                         DT      B'00111111',B'00111111',B'11111111'     ;BTC=0B
00125A 0C3E 0C3F 0CFF 02490                         DT      B'00111110',B'00111111',B'11111111'     ;BTC=0C
001260 0C00 0C7F 0CFF 02491                         DT      B'00000000',B'01111111',B'11111111'     ;BTC=0D
001266 0C00 0CFF 0CFF 02492                         DT      B'00000000',B'11111111',B'11111111'     ;BTC=0E
00126C 0CFF 0CFF 0CFF 02493                         DT      B'11111111',B'11111111',B'11111111'     ;BTC=0F
                      02494 
001272                02495 FONT02H_LOW_B
                      02496 
001272 0E00           02497         MOVLW   0
001274 6EFB           02498         MOVWF   PCLATU,0
001276 0E12           02499         MOVLW   12
001278 6EFA           02500         MOVWF   PCLATH,0
                      02501 
                      02502         
                      02503 
                      02504         
00127A C146 FFE8      02505                         MOVFF   BTCOUNT,WREG
00127E 90D8           02506                         BCF             STATUS,C
001280 36E8           02507                         RLCF    WREG
                      02508 
                      02509                 
001282 26F9           02510                         ADDWF   PCL,1,0
001284 0CFF 0CFF 0CFF 02511                         DT      B'11111111',B'11111111',B'11111111'     ;BTC=00
00128A 0C3F 0CFF 0CFF 02512                         DT      B'00111111',B'11111111',B'11111111'     ;BTC=01
001290 0C3F 0CFF 0CFF 02513                         DT      B'00111111',B'11111111',B'11111111'     ;BTC=02
001296 0C3F 0CFF 0CFF 02514                         DT      B'00111111',B'11111111',B'11111111'     ;BTC=03
00129C 0C3F 0CFF 0CFF 02515                         DT      B'00111111',B'11111111',B'11111111'     ;BTC=04
0012A2 0C3F 0CFF 0CFF 02516                         DT      B'00111111',B'11111111',B'11111111'     ;BTC=05
0012A8 0C3F 0CFF 0CFF 02517                         DT      B'00111111',B'11111111',B'11111111'     ;BTC=06
0012AE 0C01 0CFF 0CFF 02518                         DT      B'00000001',B'11111111',B'11111111'     ;BTC=07
0012B4 0C00 0CFF 0CFF 02519                         DT      B'00000000',B'11111111',B'11111111'     ;BTC=08
0012BA 0C3C 0C7F 0CFF 02520                         DT      B'00111100',B'01111111',B'11111111'     ;BTC=09
0012C0 0C3E 0C7F 0CFF 02521                         DT      B'00111110',B'01111111',B'11111111'     ;BTC=0A
0012C6 0C3E 0C7F 0CFF 02522                         DT      B'00111110',B'01111111',B'11111111'     ;BTC=0B
0012CC 0C3C 0C7F 0CFF 02523                         DT      B'00111100',B'01111111',B'11111111'     ;BTC=0C
0012D2 0C00 0CFF 0CFF 02524                         DT      B'00000000',B'11111111',B'11111111'     ;BTC=0D
0012D8 0C01 0CFF 0CFF 02525                         DT      B'00000001',B'11111111',B'11111111'     ;BTC=0E
0012DE 0CFF 0CFF 0CFF 02526                         DT      B'11111111',B'11111111',B'11111111'     ;BTC=0F
                      02527 
                      02528 
Warning[205]: Found directive in column 1. (ORG)
001300                02529 ORG 0X1300
001300                02530 FONT02L_CAP_B
                      02531 
001300 0E00           02532         MOVLW   0
001302 6EFB           02533         MOVWF   PCLATU,0
001304 0E13           02534         MOVLW   13
001306 6EFA           02535         MOVWF   PCLATH,0
                      02536 
                      02537 
                      02538 
MPASM  5.51                 20200227_P6MM.ASM   2-27-2020  19:46:00         PAGE 52


LOC  OBJECT CODE     LINE SOURCE TEXT
  VALUE

                      02539 
001308 C146 FFE8      02540                         MOVFF   BTCOUNT,WREG
00130C 90D8           02541                         BCF             STATUS,C
00130E 36E8           02542                         RLCF    WREG
                      02543 
                      02544                 
001310 26F9           02545                         ADDWF   PCL,1,0
001312 0C80 0C00 0C7F 02546                         DT      B'10000000',B'00000000',B'01111111'     ;BTC=10
001318 0C87 0CFC 0C3F 02547                         DT      B'10000111',B'11111100',B'00111111'     ;BTC=11
00131E 0C87 0CFE 0C1F 02548                         DT      B'10000111',B'11111110',B'00011111'     ;BTC=12
001324 0C87 0CFF 0C0F 02549                         DT      B'10000111',B'11111111',B'00001111'     ;BTC=13
00132A 0C87 0CFF 0C0F 02550                         DT      B'10000111',B'11111111',B'00001111'     ;BTC=14
001330 0C87 0CFF 0C0F 02551                         DT      B'10000111',B'11111111',B'00001111'     ;BTC=15
001336 0C87 0CFF 0C0F 02552                         DT      B'10000111',B'11111111',B'00001111'     ;BTC=16
00133C 0C87 0CFF 0C0F 02553                         DT      B'10000111',B'11111111',B'00001111'     ;BTC=17
001342 0C87 0CFF 0C0F 02554                         DT      B'10000111',B'11111111',B'00001111'     ;BTC=18
001348 0C87 0CFF 0C0F 02555                         DT      B'10000111',B'11111111',B'00001111'     ;BTC=19
00134E 0C87 0CFE 0C0F 02556                         DT      B'10000111',B'11111110',B'00001111'     ;BTC=1A
001354 0C87 0CFC 0C1F 02557                         DT      B'10000111',B'11111100',B'00011111'     ;BTC=1B
00135A 0C80 0C00 0C3F 02558                         DT      B'10000000',B'00000000',B'00111111'     ;BTC=1C
001360 0C80 0C00 0C7F 02559                         DT      B'10000000',B'00000000',B'01111111'     ;BTC=1D
001366 0C80 0C00 0CFF 02560                         DT      B'10000000',B'00000000',B'11111111'     ;BTC=1E
00136C 0CFF 0CFF 0CFF 02561                         DT      B'11111111',B'11111111',B'11111111'     ;BTC=1F
                      02562 
001372                02563 FONT02L_LOW_B
                      02564 
001372 0E00           02565         MOVLW   0
001374 6EFB           02566         MOVWF   PCLATU,0
001376 0E13           02567         MOVLW   13
001378 6EFA           02568         MOVWF   PCLATH,0
                      02569 
                      02570 
                      02571 
                      02572 
00137A C146 FFE8      02573                         MOVFF   BTCOUNT,WREG
00137E 90D8           02574                         BCF             STATUS,C
001380 36E8           02575                         RLCF    WREG
                      02576 
                      02577                 
001382 26F9           02578                         ADDWF   PCL,1,0
001384 0C80 0C01 0CFF 02579                         DT      B'10000000',B'00000001',B'11111111'     ;BTC=10
00138A 0C80 0C00 0CFF 02580                         DT      B'10000000',B'00000000',B'11111111'     ;BTC=11
001390 0C80 0C00 0C7F 02581                         DT      B'10000000',B'00000000',B'01111111'     ;BTC=12
001396 0C8F 0CF8 0C7F 02582                         DT      B'10001111',B'11111000',B'01111111'     ;BTC=13
00139C 0C8F 0CFC 0C7F 02583                         DT      B'10001111',B'11111100',B'01111111'     ;BTC=14
0013A2 0C8F 0CFC 0C7F 02584                         DT      B'10001111',B'11111100',B'01111111'     ;BTC=15
0013A8 0C8F 0CFC 0C7F 02585                         DT      B'10001111',B'11111100',B'01111111'     ;BTC=16
0013AE 0C8F 0CFC 0C7F 02586                         DT      B'10001111',B'11111100',B'01111111'     ;BTC=17
0013B4 0C8F 0CFC 0C7F 02587                         DT      B'10001111',B'11111100',B'01111111'     ;BTC=18
0013BA 0C8F 0CFC 0C7F 02588                         DT      B'10001111',B'11111100',B'01111111'     ;BTC=19
0013C0 0C8F 0CFC 0C7F 02589                         DT      B'10001111',B'11111100',B'01111111'     ;BTC=1A
0013C6 0C8F 0CF8 0C7F 02590                         DT      B'10001111',B'11111000',B'01111111'     ;BTC=1B
0013CC 0C80 0C00 0C7F 02591                         DT      B'10000000',B'00000000',B'01111111'     ;BTC=1C
MPASM  5.51                 20200227_P6MM.ASM   2-27-2020  19:46:00         PAGE 53


LOC  OBJECT CODE     LINE SOURCE TEXT
  VALUE

0013D2 0C80 0C00 0CFF 02592                         DT      B'10000000',B'00000000',B'11111111'     ;BTC=1D
0013D8 0C80 0C01 0CFF 02593                         DT      B'10000000',B'00000001',B'11111111'     ;BTC=1E
0013DE 0CFF 0CFF 0CFF 02594                         DT      B'11111111',B'11111111',B'11111111'     ;BTC=1F
                      02595 
                      02596 
                      02597 
                      02598 
Warning[205]: Found directive in column 1. (ORG)
001400                02599 ORG 0X1400
001400                02600 FONT02H_CAP_C
                      02601 
001400 0E00           02602         MOVLW   0
001402 6EFB           02603         MOVWF   PCLATU,0
001404 0E14           02604         MOVLW   14
001406 6EFA           02605         MOVWF   PCLATH,0
                      02606 
                      02607         
                      02608 
                      02609         
001408 C146 FFE8      02610                         MOVFF   BTCOUNT,WREG
00140C 90D8           02611                         BCF             STATUS,C
00140E 36E8           02612                         RLCF    WREG
                      02613 
                      02614                 
001410 26F9           02615                         ADDWF   PCL,1,0
001412 0CFF 0CFF 0CFF 02616                         DT      B'11111111',B'11111111',B'11111111'     ;BTC=00
001418 0CC0 0CFF 0CFF 02617                         DT      B'11000000',B'11111111',B'11111111'     ;BTC=01
00141E 0C80 0C7F 0CFF 02618                         DT      B'10000000',B'01111111',B'11111111'     ;BTC=02
001424 0C1E 0C3F 0CFF 02619                         DT      B'00011110',B'00111111',B'11111111'     ;BTC=03
00142A 0C3F 0C3F 0CFF 02620                         DT      B'00111111',B'00111111',B'11111111'     ;BTC=04
001430 0C3F 0CFF 0CFF 02621                         DT      B'00111111',B'11111111',B'11111111'     ;BTC=05
001436 0C3F 0CFF 0CFF 02622                         DT      B'00111111',B'11111111',B'11111111'     ;BTC=06
00143C 0C3F 0CFF 0CFF 02623                         DT      B'00111111',B'11111111',B'11111111'     ;BTC=07
001442 0C3F 0CFF 0CFF 02624                         DT      B'00111111',B'11111111',B'11111111'     ;BTC=08
001448 0C3F 0CFF 0CFF 02625                         DT      B'00111111',B'11111111',B'11111111'     ;BTC=09
00144E 0C3F 0CFF 0CFF 02626                         DT      B'00111111',B'11111111',B'11111111'     ;BTC=0A
001454 0C3F 0C3F 0CFF 02627                         DT      B'00111111',B'00111111',B'11111111'     ;BTC=0B
00145A 0C1E 0C3F 0CFF 02628                         DT      B'00011110',B'00111111',B'11111111'     ;BTC=0C
001460 0C80 0C7F 0CFF 02629                         DT      B'10000000',B'01111111',B'11111111'     ;BTC=0D
001466 0CC0 0CFF 0CFF 02630                         DT      B'11000000',B'11111111',B'11111111'     ;BTC=0E
00146C 0CFF 0CFF 0CFF 02631                         DT      B'11111111',B'11111111',B'11111111'     ;BTC=0F
                      02632 
                      02633 
                      02634 
001472                02635 FONT02H_LOW_C
                      02636 
001472 0E00           02637         MOVLW   0
001474 6EFB           02638         MOVWF   PCLATU,0
001476 0E14           02639         MOVLW   14
001478 6EFA           02640         MOVWF   PCLATH,0
                      02641 
                      02642         
                      02643 
MPASM  5.51                 20200227_P6MM.ASM   2-27-2020  19:46:00         PAGE 54


LOC  OBJECT CODE     LINE SOURCE TEXT
  VALUE

                      02644         
00147A C146 FFE8      02645                         MOVFF   BTCOUNT,WREG
00147E 90D8           02646                         BCF             STATUS,C
001480 36E8           02647                         RLCF    WREG
                      02648 
                      02649                 
001482 26F9           02650                         ADDWF   PCL,1,0
001484 0CFF 0CFF 0CFF 02651                         DT      B'11111111',B'11111111',B'11111111'     ;BTC=00
00148A 0CFF 0CFF 0CFF 02652                         DT      B'11111111',B'11111111',B'11111111'     ;BTC=01
001490 0CFF 0CFF 0CFF 02653                         DT      B'11111111',B'11111111',B'11111111'     ;BTC=02
001496 0CFF 0CFF 0CFF 02654                         DT      B'11111111',B'11111111',B'11111111'     ;BTC=03
00149C 0CFF 0CFF 0CFF 02655                         DT      B'11111111',B'11111111',B'11111111'     ;BTC=04
0014A2 0CC1 0CFF 0CFF 02656                         DT      B'11000001',B'11111111',B'11111111'     ;BTC=05
0014A8 0C80 0CFF 0CFF 02657                         DT      B'10000000',B'11111111',B'11111111'     ;BTC=06
0014AE 0C1C 0C7F 0CFF 02658                         DT      B'00011100',B'01111111',B'11111111'     ;BTC=07
0014B4 0C3E 0C7F 0CFF 02659                         DT      B'00111110',B'01111111',B'11111111'     ;BTC=08
0014BA 0C3F 0CFF 0CFF 02660                         DT      B'00111111',B'11111111',B'11111111'     ;BTC=09
0014C0 0C3F 0CFF 0CFF 02661                         DT      B'00111111',B'11111111',B'11111111'     ;BTC=0A
0014C6 0C3E 0C7F 0CFF 02662                         DT      B'00111110',B'01111111',B'11111111'     ;BTC=0B
0014CC 0C1C 0C7F 0CFF 02663                         DT      B'00011100',B'01111111',B'11111111'     ;BTC=0C
0014D2 0C80 0CFF 0CFF 02664                         DT      B'10000000',B'11111111',B'11111111'     ;BTC=0D
0014D8 0CC1 0CFF 0CFF 02665                         DT      B'11000001',B'11111111',B'11111111'     ;BTC=0E
0014DE 0CFF 0CFF 0CFF 02666                         DT      B'11111111',B'11111111',B'11111111'     ;BTC=0F
                      02667 
                      02668 
                      02669 
Warning[205]: Found directive in column 1. (ORG)
001500                02670 ORG 0X1500
001500                02671 FONT02L_CAP_C
                      02672 
001500 0E00           02673         MOVLW   0
001502 6EFB           02674         MOVWF   PCLATU,0
001504 0E15           02675         MOVLW   15
001506 6EFA           02676         MOVWF   PCLATH,0
                      02677 
                      02678 
                      02679 
                      02680 
001508 C146 FFE8      02681                         MOVFF   BTCOUNT,WREG
00150C 90D8           02682                         BCF             STATUS,C
00150E 36E8           02683                         RLCF    WREG
                      02684 
                      02685                 
001510 26F9           02686                         ADDWF   PCL,1,0
001512 0C87 0CFF 0CFF 02687                         DT      B'10000111',B'11111111',B'11111111'     ;BTC=10
001518 0C87 0CFF 0CFF 02688                         DT      B'10000111',B'11111111',B'11111111'     ;BTC=11
00151E 0C87 0CFF 0CFF 02689                         DT      B'10000111',B'11111111',B'11111111'     ;BTC=12
001524 0C87 0CFF 0CFF 02690                         DT      B'10000111',B'11111111',B'11111111'     ;BTC=13
00152A 0C87 0CFF 0CFF 02691                         DT      B'10000111',B'11111111',B'11111111'     ;BTC=14
001530 0C87 0CFF 0CFF 02692                         DT      B'10000111',B'11111111',B'11111111'     ;BTC=15
001536 0C87 0CFF 0CFF 02693                         DT      B'10000111',B'11111111',B'11111111'     ;BTC=16
00153C 0C87 0CFF 0CFF 02694                         DT      B'10000111',B'11111111',B'11111111'     ;BTC=17
001542 0C87 0CFF 0CFF 02695                         DT      B'10000111',B'11111111',B'11111111'     ;BTC=18
MPASM  5.51                 20200227_P6MM.ASM   2-27-2020  19:46:00         PAGE 55


LOC  OBJECT CODE     LINE SOURCE TEXT
  VALUE

001548 0C87 0CFF 0C0F 02696                         DT      B'10000111',B'11111111',B'00001111'     ;BTC=19
00154E 0C83 0CFF 0C0F 02697                         DT      B'10000011',B'11111111',B'00001111'     ;BTC=1A
001554 0C81 0CFE 0C0F 02698                         DT      B'10000001',B'11111110',B'00001111'     ;BTC=1B
00155A 0CC0 0C00 0C1F 02699                         DT      B'11000000',B'00000000',B'00011111'     ;BTC=1C
001560 0CE0 0C00 0C3F 02700                         DT      B'11100000',B'00000000',B'00111111'     ;BTC=1D
001566 0CF0 0C00 0C7F 02701                         DT      B'11110000',B'00000000',B'01111111'     ;BTC=1E
00156C 0CFF 0CFF 0CFF 02702                         DT      B'11111111',B'11111111',B'11111111'     ;BTC=1F
                      02703 
001572                02704 FONT02L_LOW_C
                      02705 
001572 0E00           02706         MOVLW   0
001574 6EFB           02707         MOVWF   PCLATU,0
001576 0E15           02708         MOVLW   15
001578 6EFA           02709         MOVWF   PCLATH,0
                      02710 
                      02711 
                      02712 
                      02713 
00157A C146 FFE8      02714                         MOVFF   BTCOUNT,WREG
00157E 90D8           02715                         BCF             STATUS,C
001580 36E8           02716                         RLCF    WREG
                      02717 
                      02718                 
001582 26F9           02719                         ADDWF   PCL,1,0
001584 0C80 0C00 0C7F 02720                         DT      B'10000000',B'00000000',B'01111111'     ;BTC=10
00158A 0C87 0CFC 0C7F 02721                         DT      B'10000111',B'11111100',B'01111111'     ;BTC=11
001590 0C8F 0CFF 0CFF 02722                         DT      B'10001111',B'11111111',B'11111111'     ;BTC=12
001596 0C8F 0CFF 0CFF 02723                         DT      B'10001111',B'11111111',B'11111111'     ;BTC=13
00159C 0C8F 0CFF 0CFF 02724                         DT      B'10001111',B'11111111',B'11111111'     ;BTC=14
0015A2 0C8F 0CFF 0CFF 02725                         DT      B'10001111',B'11111111',B'11111111'     ;BTC=15
0015A8 0C8F 0CFF 0CFF 02726                         DT      B'10001111',B'11111111',B'11111111'     ;BTC=16
0015AE 0C8F 0CFF 0CFF 02727                         DT      B'10001111',B'11111111',B'11111111'     ;BTC=17
0015B4 0C8F 0CFF 0CFF 02728                         DT      B'10001111',B'11111111',B'11111111'     ;BTC=18
0015BA 0C8F 0CFF 0CFF 02729                         DT      B'10001111',B'11111111',B'11111111'     ;BTC=19
0015C0 0C8F 0CFF 0CFF 02730                         DT      B'10001111',B'11111111',B'11111111'     ;BTC=1A
0015C6 0C87 0CFC 0C7F 02731                         DT      B'10000111',B'11111100',B'01111111'     ;BTC=1B
0015CC 0C80 0C00 0C7F 02732                         DT      B'10000000',B'00000000',B'01111111'     ;BTC=1C
0015D2 0CC0 0C00 0CFF 02733                         DT      B'11000000',B'00000000',B'11111111'     ;BTC=1D
0015D8 0CE0 0C01 0CFF 02734                         DT      B'11100000',B'00000001',B'11111111'     ;BTC=1E
0015DE 0CFF 0CFF 0CFF 02735                         DT      B'11111111',B'11111111',B'11111111'     ;BTC=1F
                      02736 
                      02737 
                      02738 
                      02739 
Warning[205]: Found directive in column 1. (ORG)
001600                02740 ORG 0X1600
001600                02741 FONT02H_CAP_D
                      02742 
001600 0E00           02743         MOVLW   0
001602 6EFB           02744         MOVWF   PCLATU,0
001604 0E16           02745         MOVLW   16
001606 6EFA           02746         MOVWF   PCLATH,0
                      02747 
MPASM  5.51                 20200227_P6MM.ASM   2-27-2020  19:46:00         PAGE 56


LOC  OBJECT CODE     LINE SOURCE TEXT
  VALUE

                      02748         
                      02749 
                      02750         
001608 C146 FFE8      02751                         MOVFF   BTCOUNT,WREG
00160C 90D8           02752                         BCF             STATUS,C
00160E 36E8           02753                         RLCF    WREG
                      02754 
                      02755                 
001610 26F9           02756                         ADDWF   PCL,1,0
001612 0CFF 0CFF 0CFF 02757                         DT      B'11111111',B'11111111',B'11111111'     ;BTC=00
001618 0C00 0CFF 0CFF 02758                         DT      B'00000000',B'11111111',B'11111111'     ;BTC=01
00161E 0C00 0C7F 0CFF 02759                         DT      B'00000000',B'01111111',B'11111111'     ;BTC=02
001624 0C3E 0C3F 0CFF 02760                         DT      B'00111110',B'00111111',B'11111111'     ;BTC=03
00162A 0C3F 0C3F 0CFF 02761                         DT      B'00111111',B'00111111',B'11111111'     ;BTC=04
001630 0C3F 0C3F 0CFF 02762                         DT      B'00111111',B'00111111',B'11111111'     ;BTC=05
001636 0C3F 0C3F 0CFF 02763                         DT      B'00111111',B'00111111',B'11111111'     ;BTC=06
00163C 0C3F 0C3F 0CFF 02764                         DT      B'00111111',B'00111111',B'11111111'     ;BTC=07
001642 0C3F 0C3F 0CFF 02765                         DT      B'00111111',B'00111111',B'11111111'     ;BTC=08
001648 0C3F 0C3F 0CFF 02766                         DT      B'00111111',B'00111111',B'11111111'     ;BTC=09
00164E 0C3F 0C3F 0CFF 02767                         DT      B'00111111',B'00111111',B'11111111'     ;BTC=0A
001654 0C3F 0C3F 0CFF 02768                         DT      B'00111111',B'00111111',B'11111111'     ;BTC=0B
00165A 0C3E 0C3F 0CFF 02769                         DT      B'00111110',B'00111111',B'11111111'     ;BTC=0C
001660 0C00 0C7F 0CFF 02770                         DT      B'00000000',B'01111111',B'11111111'     ;BTC=0D
001666 0C00 0CFF 0CFF 02771                         DT      B'00000000',B'11111111',B'11111111'     ;BTC=0E
00166C 0CFF 0CFF 0CFF 02772                         DT      B'11111111',B'11111111',B'11111111'     ;BTC=0F
                      02773 
                      02774 
                      02775 
001672                02776 FONT02H_LOW_D
                      02777 
001672 0E00           02778         MOVLW   0
001674 6EFB           02779         MOVWF   PCLATU,0
001676 0E16           02780         MOVLW   16
001678 6EFA           02781         MOVWF   PCLATH,0
                      02782 
                      02783         
                      02784 
                      02785         
00167A C146 FFE8      02786                         MOVFF   BTCOUNT,WREG
00167E 90D8           02787                         BCF             STATUS,C
001680 36E8           02788                         RLCF    WREG
                      02789 
                      02790                 
001682 26F9           02791                         ADDWF   PCL,1,0
001684 0CFF 0CFF 0CFF 02792                         DT      B'11111111',B'11111111',B'11111111'     ;BTC=00
00168A 0CFE 0C7F 0CFF 02793                         DT      B'11111110',B'01111111',B'11111111'     ;BTC=01
001690 0CFE 0C7F 0CFF 02794                         DT      B'11111110',B'01111111',B'11111111'     ;BTC=02
001696 0CFE 0C7F 0CFF 02795                         DT      B'11111110',B'01111111',B'11111111'     ;BTC=03
00169C 0CFE 0C7F 0CFF 02796                         DT      B'11111110',B'01111111',B'11111111'     ;BTC=04
0016A2 0CFE 0C7F 0CFF 02797                         DT      B'11111110',B'01111111',B'11111111'     ;BTC=05
0016A8 0CFE 0C7F 0CFF 02798                         DT      B'11111110',B'01111111',B'11111111'     ;BTC=06
0016AE 0CC0 0C7F 0CFF 02799                         DT      B'11000000',B'01111111',B'11111111'     ;BTC=07
0016B4 0C80 0C7F 0CFF 02800                         DT      B'10000000',B'01111111',B'11111111'     ;BTC=08
MPASM  5.51                 20200227_P6MM.ASM   2-27-2020  19:46:00         PAGE 57


LOC  OBJECT CODE     LINE SOURCE TEXT
  VALUE

0016BA 0C1E 0C7F 0CFF 02801                         DT      B'00011110',B'01111111',B'11111111'     ;BTC=09
0016C0 0C3E 0C7F 0CFF 02802                         DT      B'00111110',B'01111111',B'11111111'     ;BTC=0A
0016C6 0C3E 0C7F 0CFF 02803                         DT      B'00111110',B'01111111',B'11111111'     ;BTC=0B
0016CC 0C1E 0C7F 0CFF 02804                         DT      B'00011110',B'01111111',B'11111111'     ;BTC=0C
0016D2 0C80 0C7F 0CFF 02805                         DT      B'10000000',B'01111111',B'11111111'     ;BTC=0D
0016D8 0CC0 0C7F 0CFF 02806                         DT      B'11000000',B'01111111',B'11111111'     ;BTC=0E
0016DE 0CFF 0CFF 0CFF 02807                         DT      B'11111111',B'11111111',B'11111111'     ;BTC=0F
                      02808 
                      02809 
Warning[205]: Found directive in column 1. (ORG)
001700                02810 ORG 0X1700
001700                02811 FONT02L_CAP_D
                      02812 
001700 0E00           02813         MOVLW   0
001702 6EFB           02814         MOVWF   PCLATU,0
001704 0E17           02815         MOVLW   17
001706 6EFA           02816         MOVWF   PCLATH,0
                      02817 
                      02818 
                      02819 
                      02820 
001708 C146 FFE8      02821                         MOVFF   BTCOUNT,WREG
00170C 90D8           02822                         BCF             STATUS,C
00170E 36E8           02823                         RLCF    WREG
                      02824 
                      02825                 
001710 26F9           02826                         ADDWF   PCL,1,0
001712 0C87 0CFF 0C0F 02827                         DT      B'10000111',B'11111111',B'00001111'     ;BTC=10
001718 0C87 0CFF 0C0F 02828                         DT      B'10000111',B'11111111',B'00001111'     ;BTC=11
00171E 0C87 0CFF 0C0F 02829                         DT      B'10000111',B'11111111',B'00001111'     ;BTC=12
001724 0C87 0CFF 0C0F 02830                         DT      B'10000111',B'11111111',B'00001111'     ;BTC=13
00172A 0C87 0CFF 0C0F 02831                         DT      B'10000111',B'11111111',B'00001111'     ;BTC=14
001730 0C87 0CFF 0C0F 02832                         DT      B'10000111',B'11111111',B'00001111'     ;BTC=15
001736 0C87 0CFF 0C0F 02833                         DT      B'10000111',B'11111111',B'00001111'     ;BTC=16
00173C 0C87 0CFF 0C0F 02834                         DT      B'10000111',B'11111111',B'00001111'     ;BTC=17
001742 0C87 0CFF 0C0F 02835                         DT      B'10000111',B'11111111',B'00001111'     ;BTC=18
001748 0C87 0CFE 0C0F 02836                         DT      B'10000111',B'11111110',B'00001111'     ;BTC=19
00174E 0C87 0CFC 0C0F 02837                         DT      B'10000111',B'11111100',B'00001111'     ;BTC=1A
001754 0C87 0CF8 0C1F 02838                         DT      B'10000111',B'11111000',B'00011111'     ;BTC=1B
00175A 0C80 0C00 0C3F 02839                         DT      B'10000000',B'00000000',B'00111111'     ;BTC=1C
001760 0C80 0C00 0C7F 02840                         DT      B'10000000',B'00000000',B'01111111'     ;BTC=1D
001766 0C80 0C00 0CFF 02841                         DT      B'10000000',B'00000000',B'11111111'     ;BTC=1E
00176C 0CFF 0CFF 0CFF 02842                         DT      B'11111111',B'11111111',B'11111111'     ;BTC=1F
                      02843 
                      02844 
001772                02845 FONT02L_LOW_D
                      02846 
001772 0E00           02847         MOVLW   0
001774 6EFB           02848         MOVWF   PCLATU,0
001776 0E17           02849         MOVLW   17
001778 6EFA           02850         MOVWF   PCLATH,0
                      02851 
                      02852 
MPASM  5.51                 20200227_P6MM.ASM   2-27-2020  19:46:00         PAGE 58


LOC  OBJECT CODE     LINE SOURCE TEXT
  VALUE

                      02853 
                      02854 
00177A C146 FFE8      02855                         MOVFF   BTCOUNT,WREG
00177E 90D8           02856                         BCF             STATUS,C
001780 36E8           02857                         RLCF    WREG
                      02858 
                      02859                 
001782 26F9           02860                         ADDWF   PCL,1,0
001784 0CF0 0C00 0C7F 02861                         DT      B'11110000',B'00000000',B'01111111'     ;BTC=10
00178A 0CE0 0C00 0C7F 02862                         DT      B'11100000',B'00000000',B'01111111'     ;BTC=11
001790 0CC0 0C00 0C7F 02863                         DT      B'11000000',B'00000000',B'01111111'     ;BTC=12
001796 0C87 0CFC 0C7F 02864                         DT      B'10000111',B'11111100',B'01111111'     ;BTC=13
00179C 0C8F 0CFC 0C7F 02865                         DT      B'10001111',B'11111100',B'01111111'     ;BTC=14
0017A2 0C8F 0CFC 0C7F 02866                         DT      B'10001111',B'11111100',B'01111111'     ;BTC=15
0017A8 0C8F 0CFC 0C7F 02867                         DT      B'10001111',B'11111100',B'01111111'     ;BTC=16
0017AE 0C8F 0CFC 0C7F 02868                         DT      B'10001111',B'11111100',B'01111111'     ;BTC=17
0017B4 0C8F 0CFC 0C7F 02869                         DT      B'10001111',B'11111100',B'01111111'     ;BTC=18
0017BA 0C8F 0CFC 0C7F 02870                         DT      B'10001111',B'11111100',B'01111111'     ;BTC=19
0017C0 0C8F 0CFC 0C7F 02871                         DT      B'10001111',B'11111100',B'01111111'     ;BTC=1A
0017C6 0C87 0CFC 0C7F 02872                         DT      B'10000111',B'11111100',B'01111111'     ;BTC=1B
0017CC 0CC0 0C00 0C7F 02873                         DT      B'11000000',B'00000000',B'01111111'     ;BTC=1C
0017D2 0CE0 0C00 0C7F 02874                         DT      B'11100000',B'00000000',B'01111111'     ;BTC=1D
0017D8 0CF0 0C00 0C7F 02875                         DT      B'11110000',B'00000000',B'01111111'     ;BTC=1E
0017DE 0CFF 0CFF 0CFF 02876                         DT      B'11111111',B'11111111',B'11111111'     ;BTC=1F
                      02877 
                      02878 
                      02879 
Warning[205]: Found directive in column 1. (ORG)
001800                02880 ORG 0X1800
001800                02881 FONT02H_CAP_E
                      02882 
001800 0E00           02883         MOVLW   0
001802 6EFB           02884         MOVWF   PCLATU,0
001804 0E18           02885         MOVLW   18
001806 6EFA           02886         MOVWF   PCLATH,0
                      02887 
                      02888         
                      02889 
                      02890         
001808 C146 FFE8      02891                         MOVFF   BTCOUNT,WREG
00180C 90D8           02892                         BCF             STATUS,C
00180E 36E8           02893                         RLCF    WREG
                      02894 
                      02895                 
001810 26F9           02896                         ADDWF   PCL,1,0
001812 0CFF 0CFF 0CFF 02897                         DT      B'11111111',B'11111111',B'11111111'     ;BTC=00
001818 0C00 0C3F 0CFF 02898                         DT      B'00000000',B'00111111',B'11111111'     ;BTC=01
00181E 0C00 0C3F 0CFF 02899                         DT      B'00000000',B'00111111',B'11111111'     ;BTC=02
001824 0C3F 0C3F 0CFF 02900                         DT      B'00111111',B'00111111',B'11111111'     ;BTC=03
00182A 0C3F 0CFF 0CFF 02901                         DT      B'00111111',B'11111111',B'11111111'     ;BTC=04
001830 0C3F 0CFF 0CFF 02902                         DT      B'00111111',B'11111111',B'11111111'     ;BTC=05
001836 0C3F 0CFF 0CFF 02903                         DT      B'00111111',B'11111111',B'11111111'     ;BTC=06
00183C 0C03 0CFF 0CFF 02904                         DT      B'00000011',B'11111111',B'11111111'     ;BTC=07
MPASM  5.51                 20200227_P6MM.ASM   2-27-2020  19:46:00         PAGE 59


LOC  OBJECT CODE     LINE SOURCE TEXT
  VALUE

001842 0C03 0CFF 0CFF 02905                         DT      B'00000011',B'11111111',B'11111111'     ;BTC=08
001848 0C3F 0CFF 0CFF 02906                         DT      B'00111111',B'11111111',B'11111111'     ;BTC=09
00184E 0C3F 0CFF 0CFF 02907                         DT      B'00111111',B'11111111',B'11111111'     ;BTC=0A
001854 0C3F 0CFF 0CFF 02908                         DT      B'00111111',B'11111111',B'11111111'     ;BTC=0B
00185A 0C3F 0C3F 0CFF 02909                         DT      B'00111111',B'00111111',B'11111111'     ;BTC=0C
001860 0C00 0C3F 0CFF 02910                         DT      B'00000000',B'00111111',B'11111111'     ;BTC=0D
001866 0C00 0C3F 0CFF 02911                         DT      B'00000000',B'00111111',B'11111111'     ;BTC=0E
00186C 0CFF 0CFF 0CFF 02912                         DT      B'11111111',B'11111111',B'11111111'     ;BTC=0F
                      02913 
                      02914 
001872                02915 FONT02H_LOW_E
                      02916 
001872 0E00           02917         MOVLW   0
001874 6EFB           02918         MOVWF   PCLATU,0
001876 0E18           02919         MOVLW   18
001878 6EFA           02920         MOVWF   PCLATH,0
                      02921 
                      02922         
                      02923 
                      02924         
00187A C146 FFE8      02925                         MOVFF   BTCOUNT,WREG
00187E 90D8           02926                         BCF             STATUS,C
001880 36E8           02927                         RLCF    WREG
                      02928 
                      02929                 
001882 26F9           02930                         ADDWF   PCL,1,0
001884 0CFF 0CFF 0CFF 02931                         DT      B'11111111',B'11111111',B'11111111'     ;BTC=00
00188A 0CFF 0CFF 0CFF 02932                         DT      B'11111111',B'11111111',B'11111111'     ;BTC=01
001890 0CFF 0CFF 0CFF 02933                         DT      B'11111111',B'11111111',B'11111111'     ;BTC=02
001896 0CFF 0CFF 0CFF 02934                         DT      B'11111111',B'11111111',B'11111111'     ;BTC=03
00189C 0CFF 0CFF 0CFF 02935                         DT      B'11111111',B'11111111',B'11111111'     ;BTC=04
0018A2 0CC1 0CFF 0CFF 02936                         DT      B'11000001',B'11111111',B'11111111'     ;BTC=05
0018A8 0C80 0CFF 0CFF 02937                         DT      B'10000000',B'11111111',B'11111111'     ;BTC=06
0018AE 0C1C 0C7F 0CFF 02938                         DT      B'00011100',B'01111111',B'11111111'     ;BTC=07
0018B4 0C3E 0C7F 0CFF 02939                         DT      B'00111110',B'01111111',B'11111111'     ;BTC=08
0018BA 0C00 0C7F 0CFF 02940                         DT      B'00000000',B'01111111',B'11111111'     ;BTC=09
0018C0 0C00 0CFF 0C7F 02941                         DT      B'00000000',B'11111111',B'1111111'      ;BTC=0A
0018C6 0C3F 0CFF 0CFF 02942                         DT      B'00111111',B'11111111',B'11111111'     ;BTC=0B
0018CC 0C1E 0C7F 0CFF 02943                         DT      B'00011110',B'01111111',B'11111111'     ;BTC=0C
0018D2 0C80 0C7F 0CFF 02944                         DT      B'10000000',B'01111111',B'11111111'     ;BTC=0D
0018D8 0CC0 0CFF 0CFF 02945                         DT      B'11000000',B'11111111',B'11111111'     ;BTC=0E
0018DE 0CFF 0CFF 0CFF 02946                         DT      B'11111111',B'11111111',B'11111111'     ;BTC=0F
                      02947 
Warning[205]: Found directive in column 1. (ORG)
001900                02948 ORG 0X1900
001900                02949 FONT02L_CAP_E
                      02950 
001900 0E00           02951         MOVLW   0
001902 6EFB           02952         MOVWF   PCLATU,0
001904 0E19           02953         MOVLW   19
001906 6EFA           02954         MOVWF   PCLATH,0
                      02955 
                      02956 
MPASM  5.51                 20200227_P6MM.ASM   2-27-2020  19:46:00         PAGE 60


LOC  OBJECT CODE     LINE SOURCE TEXT
  VALUE

                      02957 
                      02958 
001908 C146 FFE8      02959                         MOVFF   BTCOUNT,WREG
00190C 90D8           02960                         BCF             STATUS,C
00190E 36E8           02961                         RLCF    WREG
                      02962 
                      02963                 
001910 26F9           02964                         ADDWF   PCL,1,0
001912 0C80 0C00 0C7F 02965                         DT      B'10000000',B'00000000',B'01111111'     ;BTC=10
001918 0C80 0C00 0C7F 02966                         DT      B'10000000',B'00000000',B'01111111'     ;BTC=11
00191E 0C87 0CFF 0CFF 02967                         DT      B'10000111',B'11111111',B'11111111'     ;BTC=12
001924 0C87 0CFF 0CFF 02968                         DT      B'10000111',B'11111111',B'11111111'     ;BTC=13
00192A 0C87 0CFF 0CFF 02969                         DT      B'10000111',B'11111111',B'11111111'     ;BTC=14
001930 0C87 0CFF 0CFF 02970                         DT      B'10000111',B'11111111',B'11111111'     ;BTC=15
001936 0C87 0CFF 0CFF 02971                         DT      B'10000111',B'11111111',B'11111111'     ;BTC=16
00193C 0C87 0CFF 0CFF 02972                         DT      B'10000111',B'11111111',B'11111111'     ;BTC=17
001942 0C87 0CFF 0CFF 02973                         DT      B'10000111',B'11111111',B'11111111'     ;BTC=18
001948 0C87 0CFF 0CFF 02974                         DT      B'10000111',B'11111111',B'11111111'     ;BTC=19
00194E 0C87 0CFF 0C0F 02975                         DT      B'10000111',B'11111111',B'00001111'     ;BTC=1A
001954 0C80 0C00 0C0F 02976                         DT      B'10000000',B'00000000',B'00001111'     ;BTC=1B
00195A 0C80 0C00 0C0F 02977                         DT      B'10000000',B'00000000',B'00001111'     ;BTC=1C
001960 0C80 0C00 0C0F 02978                         DT      B'10000000',B'00000000',B'00001111'     ;BTC=1D
001966 0C80 0C00 0C0F 02979                         DT      B'10000000',B'00000000',B'00001111'     ;BTC=1E
00196C 0CFF 0CFF 0CFF 02980                         DT      B'11111111',B'11111111',B'11111111'     ;BTC=1F
                      02981 
                      02982 
                      02983 
001972                02984 FONT02L_LOW_E
                      02985 
001972 0E00           02986         MOVLW   0
001974 6EFB           02987         MOVWF   PCLATU,0
001976 0E19           02988         MOVLW   19
001978 6EFA           02989         MOVWF   PCLATH,0
                      02990 
                      02991 
                      02992 
                      02993 
00197A C146 FFE8      02994                         MOVFF   BTCOUNT,WREG
00197E 90D8           02995                         BCF             STATUS,C
001980 36E8           02996                         RLCF    WREG
                      02997 
                      02998                 
001982 26F9           02999                         ADDWF   PCL,1,0
001984 0C80 0C00 0C7F 03000                         DT      B'10000000',B'00000000',B'01111111'     ;BTC=10
00198A 0C87 0CF8 0C7F 03001                         DT      B'10000111',B'11111000',B'01111111'     ;BTC=11
001990 0C8F 0CFC 0C7F 03002                         DT      B'10001111',B'11111100',B'01111111'     ;BTC=12
001996 0C8F 0CFC 0C7F 03003                         DT      B'10001111',B'11111100',B'01111111'     ;BTC=13
00199C 0C87 0CF8 0C7F 03004                         DT      B'10000111',B'11111000',B'01111111'     ;BTC=14
0019A2 0C80 0C00 0C7F 03005                         DT      B'10000000',B'00000000',B'01111111'     ;BTC=15
0019A8 0C80 0C00 0CFF 03006                         DT      B'10000000',B'00000000',B'11111111'     ;BTC=16
0019AE 0C80 0C01 0CFF 03007                         DT      B'10000000',B'00000001',B'11111111'     ;BTC=17
0019B4 0C87 0CFF 0CFF 03008                         DT      B'10000111',B'11111111',B'11111111'     ;BTC=18
0019BA 0C8F 0CFF 0CFF 03009                         DT      B'10001111',B'11111111',B'11111111'     ;BTC=19
MPASM  5.51                 20200227_P6MM.ASM   2-27-2020  19:46:00         PAGE 61


LOC  OBJECT CODE     LINE SOURCE TEXT
  VALUE

0019C0 0C8F 0CFF 0CFF 03010                         DT      B'10001111',B'11111111',B'11111111'     ;BTC=1A
0019C6 0C87 0CFF 0CFF 03011                         DT      B'10000111',B'11111111',B'11111111'     ;BTC=1B
0019CC 0C80 0C00 0C7F 03012                         DT      B'10000000',B'00000000',B'01111111'     ;BTC=1C
0019D2 0CC0 0C00 0C7F 03013                         DT      B'11000000',B'00000000',B'01111111'     ;BTC=1D
0019D8 0CE0 0C00 0C7F 03014                         DT      B'11100000',B'00000000',B'01111111'     ;BTC=1E
0019DE 0CFF 0CFF 0CFF 03015                         DT      B'11111111',B'11111111',B'11111111'     ;BTC=1F
                      03016 
                      03017 
Warning[205]: Found directive in column 1. (ORG)
001A00                03018 ORG 0X1A00
001A00                03019 FONT02H_CAP_F
                      03020 
001A00 0E00           03021         MOVLW   0
001A02 6EFB           03022         MOVWF   PCLATU,0
001A04 0E1A           03023         MOVLW   1A
001A06 6EFA           03024         MOVWF   PCLATH,0
                      03025 
                      03026         
                      03027 
                      03028         
001A08 C146 FFE8      03029                         MOVFF   BTCOUNT,WREG
001A0C 90D8           03030                         BCF             STATUS,C
001A0E 36E8           03031                         RLCF    WREG
                      03032 
                      03033                 
001A10 26F9           03034                         ADDWF   PCL,1,0
001A12 0CFF 0CFF 0CFF 03035                         DT      B'11111111',B'11111111',B'11111111'     ;BTC=00
001A18 0C80 0C00 0C0F 03036                         DT      B'10000000',B'00000000',B'00001111'     ;BTC=01
001A1E 0C80 0C00 0C0F 03037                         DT      B'10000000',B'00000000',B'00001111'     ;BTC=02
001A24 0C80 0C00 0C0F 03038                         DT      B'10000000',B'00000000',B'00001111'     ;BTC=03
001A2A 0C80 0C00 0C0F 03039                         DT      B'10000000',B'00000000',B'00001111'     ;BTC=04
001A30 0C87 0CFF 0CFF 03040                         DT      B'10000111',B'11111111',B'11111111'     ;BTC=05
001A36 0C87 0CFF 0CFF 03041                         DT      B'10000111',B'11111111',B'11111111'     ;BTC=06
001A3C 0C87 0CFF 0CFF 03042                         DT      B'10000111',B'11111111',B'11111111'     ;BTC=07
001A42 0C87 0CFF 0CFF 03043                         DT      B'10000111',B'11111111',B'11111111'     ;BTC=08
001A48 0C87 0CFF 0CFF 03044                         DT      B'10000111',B'11111111',B'11111111'     ;BTC=09
001A4E 0C87 0CFF 0CFF 03045                         DT      B'10000111',B'11111111',B'11111111'     ;BTC=0A
001A54 0C87 0CFF 0CFF 03046                         DT      B'10000111',B'11111111',B'11111111'     ;BTC=0B
001A5A 0C87 0CFF 0CFF 03047                         DT      B'10000111',B'11111111',B'11111111'     ;BTC=0C
001A60 0C87 0CFF 0CFF 03048                         DT      B'10000111',B'11111111',B'11111111'     ;BTC=0D
001A66 0C80 0C00 0C7F 03049                         DT      B'10000000',B'00000000',B'01111111'     ;BTC=0E
001A6C 0C80 0C00 0C7F 03050                         DT      B'10000000',B'00000000',B'01111111'     ;BTC=0F
                      03051 
                      03052 
001A72                03053 FONT02H_LOW_F
                      03054 
001A72 0E00           03055         MOVLW   0
001A74 6EFB           03056         MOVWF   PCLATU,0
001A76 0E1A           03057         MOVLW   1A
001A78 6EFA           03058         MOVWF   PCLATH,0
                      03059 
                      03060         
                      03061 
MPASM  5.51                 20200227_P6MM.ASM   2-27-2020  19:46:00         PAGE 62


LOC  OBJECT CODE     LINE SOURCE TEXT
  VALUE

                      03062         
001A7A C146 FFE8      03063                         MOVFF   BTCOUNT,WREG
001A7E 90D8           03064                         BCF             STATUS,C
001A80 36E8           03065                         RLCF    WREG
                      03066 
                      03067                 
001A82 26F9           03068                         ADDWF   PCL,1,0
001A84 0CFF 0CFF 0CFF 03069                         DT      B'11111111',B'11111111',B'11111111'     ;BTC=00
001A8A 0CF8 0C0F 0CFF 03070                         DT      B'11111000',B'00001111',B'11111111'     ;BTC=01
001A90 0CF0 0C07 0CFF 03071                         DT      B'11110000',B'00000111',B'11111111'     ;BTC=02
001A96 0CE0 0C03 0CFF 03072                         DT      B'11100000',B'00000011',B'11111111'     ;BTC=03
001A9C 0CE1 0CC3 0CFF 03073                         DT      B'11100001',B'11000011',B'11111111'     ;BTC=04
001AA2 0CE3 0CE3 0CFF 03074                         DT      B'11100011',B'11100011',B'11111111'     ;BTC=05
001AA8 0CE3 0CFF 0CFF 03075                         DT      B'11100011',B'11111111',B'11111111'     ;BTC=06
001AAE 0CE3 0CFF 0CFF 03076                         DT      B'11100011',B'11111111',B'11111111'     ;BTC=07
001AB4 0CE3 0CFF 0CFF 03077                         DT      B'11100011',B'11111111',B'11111111'     ;BTC=08
001ABA 0CE3 0CFF 0CFF 03078                         DT      B'11100011',B'11111111',B'11111111'     ;BTC=09
001AC0 0CE3 0CFF 0CFF 03079                         DT      B'11100011',B'11111111',B'11111111'     ;BTC=0A
001AC6 0CE3 0CFF 0CFF 03080                         DT      B'11100011',B'11111111',B'11111111'     ;BTC=0B
001ACC 0CE3 0CFF 0CFF 03081                         DT      B'11100011',B'11111111',B'11111111'     ;BTC=0C
001AD2 0CE3 0CFF 0CFF 03082                         DT      B'11100011',B'11111111',B'11111111'     ;BTC=0D
001AD8 0C80 0C1F 0CFF 03083                         DT      B'10000000',B'00011111',B'11111111'     ;BTC=0E
001ADE 0C80 0C1F 0CFF 03084                         DT      B'10000000',B'00011111',B'11111111'     ;BTC=0F
                      03085 
                      03086 
Warning[205]: Found directive in column 1. (ORG)
001B00                03087 ORG 0X1B00
001B00                03088 FONT02L_CAP_F
                      03089 
001B00 0E00           03090         MOVLW   0
001B02 6EFB           03091         MOVWF   PCLATU,0
001B04 0E1B           03092         MOVLW   1B
001B06 6EFA           03093         MOVWF   PCLATH,0
                      03094 
                      03095 
                      03096 
                      03097 
001B08 C146 FFE8      03098                         MOVFF   BTCOUNT,WREG
001B0C 90D8           03099                         BCF             STATUS,C
001B0E 36E8           03100                         RLCF    WREG
                      03101 
                      03102                 
001B10 26F9           03103                         ADDWF   PCL,1,0
001B12 0C80 0C00 0C7F 03104                         DT      B'10000000',B'00000000',B'01111111'     ;BTC=10
001B18 0C80 0C00 0C7F 03105                         DT      B'10000000',B'00000000',B'01111111'     ;BTC=11
001B1E 0C87 0CFF 0CFF 03106                         DT      B'10000111',B'11111111',B'11111111'     ;BTC=12
001B24 0C87 0CFF 0CFF 03107                         DT      B'10000111',B'11111111',B'11111111'     ;BTC=13
001B2A 0C87 0CFF 0CFF 03108                         DT      B'10000111',B'11111111',B'11111111'     ;BTC=14
001B30 0C87 0CFF 0CFF 03109                         DT      B'10000111',B'11111111',B'11111111'     ;BTC=15
001B36 0C87 0CFF 0CFF 03110                         DT      B'10000111',B'11111111',B'11111111'     ;BTC=16
001B3C 0C87 0CFF 0CFF 03111                         DT      B'10000111',B'11111111',B'11111111'     ;BTC=17
001B42 0C87 0CFF 0CFF 03112                         DT      B'10000111',B'11111111',B'11111111'     ;BTC=18
001B48 0C87 0CFF 0CFF 03113                         DT      B'10000111',B'11111111',B'11111111'     ;BTC=19
MPASM  5.51                 20200227_P6MM.ASM   2-27-2020  19:46:00         PAGE 63


LOC  OBJECT CODE     LINE SOURCE TEXT
  VALUE

001B4E 0C87 0CFF 0CFF 03114                         DT      B'10000111',B'11111111',B'11111111'     ;BTC=1A
001B54 0C87 0CFF 0CFF 03115                         DT      B'10000111',B'11111111',B'11111111'     ;BTC=1B
001B5A 0C87 0CFF 0CFF 03116                         DT      B'10000111',B'11111111',B'11111111'     ;BTC=1C
001B60 0C87 0CFF 0CFF 03117                         DT      B'10000111',B'11111111',B'11111111'     ;BTC=1D
001B66 0C87 0CFF 0CFF 03118                         DT      B'10000111',B'11111111',B'11111111'     ;BTC=1E
001B6C 0CFF 0CFF 0CFF 03119                         DT      B'11111111',B'11111111',B'11111111'     ;BTC=1F
                      03120 
                      03121 
001B72                03122 FONT02L_LOW_F
                      03123 
001B72 0E00           03124         MOVLW   0
001B74 6EFB           03125         MOVWF   PCLATU,0
001B76 0E1B           03126         MOVLW   1B
001B78 6EFA           03127         MOVWF   PCLATH,0
                      03128 
                      03129 
                      03130 
                      03131 
001B7A C146 FFE8      03132                         MOVFF   BTCOUNT,WREG
001B7E 90D8           03133                         BCF             STATUS,C
001B80 36E8           03134                         RLCF    WREG
                      03135 
                      03136                 
001B82 26F9           03137                         ADDWF   PCL,1,0
001B84 0C80 0C1F 0CFF 03138                         DT      B'10000000',B'00011111',B'11111111'     ;BTC=10
001B8A 0CE3 0CFF 0CFF 03139                         DT      B'11100011',B'11111111',B'11111111'     ;BTC=11
001B90 0CE3 0CFF 0CFF 03140                         DT      B'11100011',B'11111111',B'11111111'     ;BTC=12
001B96 0CE3 0CFF 0CFF 03141                         DT      B'11100011',B'11111111',B'11111111'     ;BTC=13
001B9C 0CE3 0CFF 0CFF 03142                         DT      B'11100011',B'11111111',B'11111111'     ;BTC=14
001BA2 0CE3 0CFF 0CFF 03143                         DT      B'11100011',B'11111111',B'11111111'     ;BTC=15
001BA8 0CE3 0CFF 0CFF 03144                         DT      B'11100011',B'11111111',B'11111111'     ;BTC=16
001BAE 0CE3 0CFF 0CFF 03145                         DT      B'11100011',B'11111111',B'11111111'     ;BTC=17
001BB4 0CE3 0CFF 0CFF 03146                         DT      B'11100011',B'11111111',B'11111111'     ;BTC=18
001BBA 0CE3 0CFF 0CFF 03147                         DT      B'11100011',B'11111111',B'11111111'     ;BTC=19
001BC0 0CE3 0CFF 0CFF 03148                         DT      B'11100011',B'11111111',B'11111111'     ;BTC=1A
001BC6 0CE3 0CFF 0CFF 03149                         DT      B'11100011',B'11111111',B'11111111'     ;BTC=1B
001BCC 0CE3 0CFF 0CFF 03150                         DT      B'11100011',B'11111111',B'11111111'     ;BTC=1C
001BD2 0CE3 0CFF 0CFF 03151                         DT      B'11100011',B'11111111',B'11111111'     ;BTC=1D
001BD8 0CE3 0CFF 0CFF 03152                         DT      B'11100011',B'11111111',B'11111111'     ;BTC=1E
001BDE 0CFF 0CFF 0CFF 03153                         DT      B'11111111',B'11111111',B'11111111'     ;BTC=1F
                      03154 
                      03155 
                      03156 
                      03157 
                      03158 
Warning[205]: Found directive in column 1. (ORG)
001C00                03159 ORG 0X1C00
001C00                03160 FONT02H_CAP_G
                      03161 
001C00 0E00           03162         MOVLW   0
001C02 6EFB           03163         MOVWF   PCLATU,0
001C04 0E1C           03164         MOVLW   1C
001C06 6EFA           03165         MOVWF   PCLATH,0
MPASM  5.51                 20200227_P6MM.ASM   2-27-2020  19:46:00         PAGE 64


LOC  OBJECT CODE     LINE SOURCE TEXT
  VALUE

                      03166 
                      03167         
                      03168 
                      03169         
001C08 C146 FFE8      03170                         MOVFF   BTCOUNT,WREG
001C0C 90D8           03171                         BCF             STATUS,C
001C0E 36E8           03172                         RLCF    WREG
                      03173 
                      03174                 
001C10 26F9           03175                         ADDWF   PCL,1,0
001C12 0CFF 0CFF 0CFF 03176                         DT      B'11111111',B'11111111',B'11111111'     ;BTC=00
001C18 0CF8 0C00 0C7F 03177                         DT      B'11111000',B'00000000',B'01111111'     ;BTC=01
001C1E 0CF0 0C00 0C3F 03178                         DT      B'11110000',B'00000000',B'00111111'     ;BTC=02
001C24 0CE0 0C00 0C1F 03179                         DT      B'11100000',B'00000000',B'00011111'     ;BTC=03
001C2A 0CC0 0C00 0C0F 03180                         DT      B'11000000',B'00000000',B'00001111'     ;BTC=04
001C30 0C81 0CFE 0C0F 03181                         DT      B'10000001',B'11111110',B'00001111'     ;BTC=05
001C36 0C83 0CFF 0C0F 03182                         DT      B'10000011',B'11111111',B'00001111'     ;BTC=06
001C3C 0C87 0CFF 0C0F 03183                         DT      B'10000111',B'11111111',B'00001111'     ;BTC=07
001C42 0C87 0CFF 0CFF 03184                         DT      B'10000111',B'11111111',B'11111111'     ;BTC=08
001C48 0C87 0CFF 0CFF 03185                         DT      B'10000111',B'11111111',B'11111111'     ;BTC=09
001C4E 0C87 0CFF 0CFF 03186                         DT      B'10000111',B'11111111',B'11111111'     ;BTC=0A
001C54 0C87 0CFF 0CFF 03187                         DT      B'10000111',B'11111111',B'11111111'     ;BTC=0B
001C5A 0C87 0CFF 0CFF 03188                         DT      B'10000111',B'11111111',B'11111111'     ;BTC=0C
001C60 0C87 0CFF 0CFF 03189                         DT      B'10000111',B'11111111',B'11111111'     ;BTC=0D
001C66 0C87 0CFF 0CFF 03190                         DT      B'10000111',B'11111111',B'11111111'     ;BTC=0E
001C6C 0C87 0CC0 0C0F 03191                         DT      B'10000111',B'11000000',B'00001111'     ;BTC=0F
                      03192 
001C72                03193 FONT02H_LOW_G
                      03194 
001C72 0E00           03195         MOVLW   0
001C74 6EFB           03196         MOVWF   PCLATU,0
001C76 0E1C           03197         MOVLW   1C
001C78 6EFA           03198         MOVWF   PCLATH,0
                      03199 
                      03200         
                      03201 
                      03202         
001C7A C146 FFE8      03203                         MOVFF   BTCOUNT,WREG
001C7E 90D8           03204                         BCF             STATUS,C
001C80 36E8           03205                         RLCF    WREG
                      03206 
                      03207                 
001C82 26F9           03208                         ADDWF   PCL,1,0
001C84 0CFF 0CFF 0CFF 03209                         DT      B'11111111',B'11111111',B'11111111'     ;BTC=00
001C8A 0CFF 0CFF 0CFF 03210                         DT      B'11111111',B'11111111',B'11111111'     ;BTC=01
001C90 0CFF 0CFF 0CFF 03211                         DT      B'11111111',B'11111111',B'11111111'     ;BTC=02
001C96 0CFF 0CFF 0CFF 03212                         DT      B'11111111',B'11111111',B'11111111'     ;BTC=03
001C9C 0CFF 0CFF 0CFF 03213                         DT      B'11111111',B'11111111',B'11111111'     ;BTC=04
001CA2 0CFF 0CFC 0C7F 03214                         DT      B'11111111',B'11111100',B'01111111'     ;BTC=05
001CA8 0CE0 0C00 0C7F 03215                         DT      B'11100000',B'00000000',B'01111111'     ;BTC=06
001CAE 0CC0 0C00 0C7F 03216                         DT      B'11000000',B'00000000',B'01111111'     ;BTC=07
001CB4 0C80 0C00 0C7F 03217                         DT      B'10000000',B'00000000',B'01111111'     ;BTC=08
001CBA 0C87 0CF8 0C7F 03218                         DT      B'10000111',B'11111000',B'01111111'     ;BTC=09
MPASM  5.51                 20200227_P6MM.ASM   2-27-2020  19:46:00         PAGE 65


LOC  OBJECT CODE     LINE SOURCE TEXT
  VALUE

001CC0 0C8F 0CFC 0C7F 03219                         DT      B'10001111',B'11111100',B'01111111'     ;BTC=0A
001CC6 0C8F 0CFC 0C7F 03220                         DT      B'10001111',B'11111100',B'01111111'     ;BTC=0B
001CCC 0C8F 0CFC 0C7F 03221                         DT      B'10001111',B'11111100',B'01111111'     ;BTC=0C
001CD2 0C8F 0CFC 0C7F 03222                         DT      B'10001111',B'11111100',B'01111111'     ;BTC=0D
001CD8 0C8F 0CFC 0C7F 03223                         DT      B'10001111',B'11111100',B'01111111'     ;BTC=0E
001CDE 0C8F 0CFC 0C7F 03224                         DT      B'10001111',B'11111100',B'01111111'     ;BTC=0F
                      03225 
Warning[205]: Found directive in column 1. (ORG)
001D00                03226 ORG 0X1D00
001D00                03227 FONT02L_CAP_G
                      03228 
001D00 0E00           03229         MOVLW   0
001D02 6EFB           03230         MOVWF   PCLATU,0
001D04 0E1D           03231         MOVLW   1D
001D06 6EFA           03232         MOVWF   PCLATH,0
                      03233 
                      03234 
                      03235 
                      03236 
001D08 C146 FFE8      03237                         MOVFF   BTCOUNT,WREG
001D0C 90D8           03238                         BCF             STATUS,C
001D0E 36E8           03239                         RLCF    WREG
                      03240 
                      03241                 
001D10 26F9           03242                         ADDWF   PCL,1,0
001D12 0C87 0CC0 0C0F 03243                         DT      B'10000111',B'11000000',B'00001111'     ;BTC=10
001D18 0C87 0CC0 0C0F 03244                         DT      B'10000111',B'11000000',B'00001111'     ;BTC=11
001D1E 0C87 0CC0 0C0F 03245                         DT      B'10000111',B'11000000',B'00001111'     ;BTC=12
001D24 0C87 0CFF 0C0F 03246                         DT      B'10000111',B'11111111',B'00001111'     ;BTC=13
001D2A 0C87 0CFF 0C0F 03247                         DT      B'10000111',B'11111111',B'00001111'     ;BTC=14
001D30 0C87 0CFF 0C0F 03248                         DT      B'10000111',B'11111111',B'00001111'     ;BTC=15
001D36 0C87 0CFF 0C0F 03249                         DT      B'10000111',B'11111111',B'00001111'     ;BTC=16
001D3C 0C87 0CFF 0C0F 03250                         DT      B'10000111',B'11111111',B'00001111'     ;BTC=17
001D42 0C87 0CFF 0C0F 03251                         DT      B'10000111',B'11111111',B'00001111'     ;BTC=18
001D48 0C83 0CFE 0C0F 03252                         DT      B'10000011',B'11111110',B'00001111'     ;BTC=19
001D4E 0C81 0CFC 0C0F 03253                         DT      B'10000001',B'11111100',B'00001111'     ;BTC=1A
001D54 0C80 0C00 0C1F 03254                         DT      B'10000000',B'00000000',B'00011111'     ;BTC=1B
001D5A 0CC0 0C00 0C3F 03255                         DT      B'11000000',B'00000000',B'00111111'     ;BTC=1C
001D60 0CE0 0C00 0C7F 03256                         DT      B'11100000',B'00000000',B'01111111'     ;BTC=1D
001D66 0CF0 0C00 0CFF 03257                         DT      B'11110000',B'00000000',B'11111111'     ;BTC=1E
001D6C 0CFF 0CFF 0CFF 03258                         DT      B'11111111',B'11111111',B'11111111'     ;BTC=1F
                      03259 
                      03260 
001D72                03261 FONT02L_LOW_G
                      03262 
001D72 0E00           03263         MOVLW   0
001D74 6EFB           03264         MOVWF   PCLATU,0
001D76 0E1D           03265         MOVLW   1D
001D78 6EFA           03266         MOVWF   PCLATH,0
                      03267 
                      03268 
                      03269 
                      03270 
MPASM  5.51                 20200227_P6MM.ASM   2-27-2020  19:46:00         PAGE 66


LOC  OBJECT CODE     LINE SOURCE TEXT
  VALUE

001D7A C146 FFE8      03271                         MOVFF   BTCOUNT,WREG
001D7E 90D8           03272                         BCF             STATUS,C
001D80 36E8           03273                         RLCF    WREG
                      03274 
                      03275                 
001D82 26F9           03276                         ADDWF   PCL,1,0
001D84 0C8F 0CFC 0C7F 03277                         DT      B'10001111',B'11111100',B'01111111'     ;BTC=10
001D8A 0C87 0CF8 0C7F 03278                         DT      B'10000111',B'11111000',B'01111111'     ;BTC=11
001D90 0C80 0C00 0C7F 03279                         DT      B'10000000',B'00000000',B'01111111'     ;BTC=12
001D96 0CC0 0C00 0C7F 03280                         DT      B'11000000',B'00000000',B'01111111'     ;BTC=13
001D9C 0CE0 0C00 0C7F 03281                         DT      B'11100000',B'00000000',B'01111111'     ;BTC=14
001DA2 0CFF 0CFC 0C7F 03282                         DT      B'11111111',B'11111100',B'01111111'     ;BTC=15
001DA8 0CFF 0CFC 0C7F 03283                         DT      B'11111111',B'11111100',B'01111111'     ;BTC=16
001DAE 0CFF 0CFC 0C7F 03284                         DT      B'11111111',B'11111100',B'01111111'     ;BTC=17
001DB4 0CFF 0CFC 0C7F 03285                         DT      B'11111111',B'11111100',B'01111111'     ;BTC=18
001DBA 0CFF 0CFC 0C7F 03286                         DT      B'11111111',B'11111100',B'01111111'     ;BTC=19
001DC0 0C8F 0CFC 0C7F 03287                         DT      B'10001111',B'11111100',B'01111111'     ;BTC=1A
001DC6 0C8F 0CFC 0C7F 03288                         DT      B'10001111',B'11111100',B'01111111'     ;BTC=1B
001DCC 0C87 0CF8 0C7F 03289                         DT      B'10000111',B'11111000',B'01111111'     ;BTC=1C
001DD2 0C80 0C00 0C7F 03290                         DT      B'10000000',B'00000000',B'01111111'     ;BTC=1D
001DD8 0CC0 0C00 0CFF 03291                         DT      B'11000000',B'00000000',B'11111111'     ;BTC=1E
001DDE 0CE0 0C01 0CFF 03292                         DT      B'11100000',B'00000001',B'11111111'     ;BTC=1F
                      03293 
                      03294 
Warning[205]: Found directive in column 1. (ORG)
001E00                03295 ORG 0X1E00
001E00                03296 FONT02H_CAP_H
                      03297 
001E00 0E00           03298         MOVLW   0
001E02 6EFB           03299         MOVWF   PCLATU,0
001E04 0E1E           03300         MOVLW   1E
001E06 6EFA           03301         MOVWF   PCLATH,0
                      03302 
                      03303         
                      03304 
                      03305         
001E08 C146 FFE8      03306                         MOVFF   BTCOUNT,WREG
001E0C 90D8           03307                         BCF             STATUS,C
001E0E 36E8           03308                         RLCF    WREG
                      03309 
                      03310                 
001E10 26F9           03311                         ADDWF   PCL,1,0
001E12 0CFF 0CFF 0CFF 03312                         DT      B'11111111',B'11111111',B'11111111'     ;BTC=00
001E18 0C87 0CFF 0C0F 03313                         DT      B'10000111',B'11111111',B'00001111'     ;BTC=01
001E1E 0C87 0CFF 0C0F 03314                         DT      B'10000111',B'11111111',B'00001111'     ;BTC=02
001E24 0C87 0CFF 0C0F 03315                         DT      B'10000111',B'11111111',B'00001111'     ;BTC=03
001E2A 0C87 0CFF 0C0F 03316                         DT      B'10000111',B'11111111',B'00001111'     ;BTC=04
001E30 0C87 0CFF 0C0F 03317                         DT      B'10000111',B'11111111',B'00001111'     ;BTC=05
001E36 0C87 0CFF 0C0F 03318                         DT      B'10000111',B'11111111',B'00001111'     ;BTC=06
001E3C 0C87 0CFF 0C0F 03319                         DT      B'10000111',B'11111111',B'00001111'     ;BTC=07
001E42 0C87 0CFF 0C0F 03320                         DT      B'10000111',B'11111111',B'00001111'     ;BTC=08
001E48 0C87 0CFF 0C0F 03321                         DT      B'10000111',B'11111111',B'00001111'     ;BTC=09
001E4E 0C87 0CFF 0C0F 03322                         DT      B'10000111',B'11111111',B'00001111'     ;BTC=0A
MPASM  5.51                 20200227_P6MM.ASM   2-27-2020  19:46:00         PAGE 67


LOC  OBJECT CODE     LINE SOURCE TEXT
  VALUE

001E54 0C87 0CFF 0C0F 03323                         DT      B'10000111',B'11111111',B'00001111'     ;BTC=0B
001E5A 0C87 0CFF 0C0F 03324                         DT      B'10000111',B'11111111',B'00001111'     ;BTC=0C
001E60 0C87 0CFF 0C0F 03325                         DT      B'10000111',B'11111111',B'00001111'     ;BTC=0D
001E66 0C80 0C00 0C0F 03326                         DT      B'10000000',B'00000000',B'00001111'     ;BTC=0E
001E6C 0C80 0C00 0C0F 03327                         DT      B'10000000',B'00000000',B'00001111'     ;BTC=0F
                      03328 
                      03329 
001E72                03330 FONT02H_LOW_H
                      03331 
001E72 0E00           03332         MOVLW   0
001E74 6EFB           03333         MOVWF   PCLATU,0
001E76 0E1E           03334         MOVLW   1E
001E78 6EFA           03335         MOVWF   PCLATH,0
                      03336 
                      03337         
                      03338 
                      03339         
001E7A C146 FFE8      03340                         MOVFF   BTCOUNT,WREG
001E7E 90D8           03341                         BCF             STATUS,C
001E80 36E8           03342                         RLCF    WREG
                      03343 
                      03344                 
001E82 26F9           03345                         ADDWF   PCL,1,0
001E84 0CFF 0CFF 0CFF 03346                         DT      B'11111111',B'11111111',B'11111111'     ;BTC=00
001E8A 0C8F 0CFF 0CFF 03347                         DT      B'10001111',B'11111111',B'11111111'     ;BTC=01
001E90 0C8F 0CFF 0CFF 03348                         DT      B'10001111',B'11111111',B'11111111'     ;BTC=02
001E96 0C8F 0CFF 0CFF 03349                         DT      B'10001111',B'11111111',B'11111111'     ;BTC=03
001E9C 0C8F 0CFF 0CFF 03350                         DT      B'10001111',B'11111111',B'11111111'     ;BTC=04
001EA2 0C8F 0CFF 0CFF 03351                         DT      B'10001111',B'11111111',B'11111111'     ;BTC=05
001EA8 0C8F 0CFF 0CFF 03352                         DT      B'10001111',B'11111111',B'11111111'     ;BTC=06
001EAE 0C8F 0CFF 0CFF 03353                         DT      B'10001111',B'11111111',B'11111111'     ;BTC=07
001EB4 0C8F 0CFF 0CFF 03354                         DT      B'10001111',B'11111111',B'11111111'     ;BTC=08
001EBA 0C8F 0CFF 0CFF 03355                         DT      B'10001111',B'11111111',B'11111111'     ;BTC=09
001EC0 0C8F 0CFF 0CFF 03356                         DT      B'10001111',B'11111111',B'11111111'     ;BTC=0A
001EC6 0C8F 0CFF 0CFF 03357                         DT      B'10001111',B'11111111',B'11111111'     ;BTC=0B
001ECC 0C8F 0CFF 0CFF 03358                         DT      B'10001111',B'11111111',B'11111111'     ;BTC=0C
001ED2 0C8F 0CFF 0CFF 03359                         DT      B'10001111',B'11111111',B'11111111'     ;BTC=0D
001ED8 0C8F 0CFF 0CFF 03360                         DT      B'10001111',B'11111111',B'11111111'     ;BTC=0E
001EDE 0C8F 0CFF 0CFF 03361                         DT      B'10001111',B'11111111',B'11111111'     ;BTC=0F
                      03362 
                      03363 
                      03364 
Warning[205]: Found directive in column 1. (ORG)
001F00                03365 ORG 0X1F00
001F00                03366 FONT02L_CAP_H
                      03367 
001F00 0E00           03368         MOVLW   0
001F02 6EFB           03369         MOVWF   PCLATU,0
001F04 0E1F           03370         MOVLW   1F
001F06 6EFA           03371         MOVWF   PCLATH,0
                      03372 
                      03373 
                      03374 
MPASM  5.51                 20200227_P6MM.ASM   2-27-2020  19:46:00         PAGE 68


LOC  OBJECT CODE     LINE SOURCE TEXT
  VALUE

                      03375 
001F08 C146 FFE8      03376                         MOVFF   BTCOUNT,WREG
001F0C 90D8           03377                         BCF             STATUS,C
001F0E 36E8           03378                         RLCF    WREG
                      03379 
                      03380                 
001F10 26F9           03381                         ADDWF   PCL,1,0
001F12 0C80 0C00 0C0F 03382                         DT      B'10000000',B'00000000',B'00001111'     ;BTC=10
001F18 0C80 0C00 0C0F 03383                         DT      B'10000000',B'00000000',B'00001111'     ;BTC=11
001F1E 0C87 0CFF 0C0F 03384                         DT      B'10000111',B'11111111',B'00001111'     ;BTC=12
001F24 0C87 0CFF 0C0F 03385                         DT      B'10000111',B'11111111',B'00001111'     ;BTC=13
001F2A 0C87 0CFF 0C0F 03386                         DT      B'10000111',B'11111111',B'00001111'     ;BTC=14
001F30 0C87 0CFF 0C0F 03387                         DT      B'10000111',B'11111111',B'00001111'     ;BTC=15
001F36 0C87 0CFF 0C0F 03388                         DT      B'10000111',B'11111111',B'00001111'     ;BTC=16
001F3C 0C87 0CFF 0C0F 03389                         DT      B'10000111',B'11111111',B'00001111'     ;BTC=17
001F42 0C87 0CFF 0C0F 03390                         DT      B'10000111',B'11111111',B'00001111'     ;BTC=18
001F48 0C87 0CFF 0C0F 03391                         DT      B'10000111',B'11111111',B'00001111'     ;BTC=19
001F4E 0C87 0CFF 0C0F 03392                         DT      B'10000111',B'11111111',B'00001111'     ;BTC=1A
001F54 0C87 0CFF 0C0F 03393                         DT      B'10000111',B'11111111',B'00001111'     ;BTC=1B
001F5A 0C87 0CFF 0C0F 03394                         DT      B'10000111',B'11111111',B'00001111'     ;BTC=1C
001F60 0C87 0CFF 0C0F 03395                         DT      B'10000111',B'11111111',B'00001111'     ;BTC=1D
001F66 0C87 0CFF 0C0F 03396                         DT      B'10000111',B'11111111',B'00001111'     ;BTC=1E
001F6C 0CFF 0CFF 0CFF 03397                         DT      B'11111111',B'11111111',B'11111111'     ;BTC=1F
                      03398 
                      03399 
001F72                03400 FONT02L_LOW_H
                      03401 
001F72 0E00           03402         MOVLW   0
001F74 6EFB           03403         MOVWF   PCLATU,0
001F76 0E1F           03404         MOVLW   1F
001F78 6EFA           03405         MOVWF   PCLATH,0
                      03406 
                      03407 
                      03408 
                      03409 
001F7A C146 FFE8      03410                         MOVFF   BTCOUNT,WREG
001F7E 90D8           03411                         BCF             STATUS,C
001F80 36E8           03412                         RLCF    WREG
                      03413 
                      03414                 
001F82 26F9           03415                         ADDWF   PCL,1,0
001F84 0C88 0C03 0CFF 03416                         DT      B'10001000',B'00000011',B'11111111'     ;BTC=10
001F8A 0C80 0C01 0CFF 03417                         DT      B'10000000',B'00000001',B'11111111'     ;BTC=11
001F90 0C80 0C00 0CFF 03418                         DT      B'10000000',B'00000000',B'11111111'     ;BTC=12
001F96 0C87 0CF0 0CFF 03419                         DT      B'10000111',B'11110000',B'11111111'     ;BTC=13
001F9C 0C8F 0CF8 0CFF 03420                         DT      B'10001111',B'11111000',B'11111111'     ;BTC=14
001FA2 0C8F 0CF8 0CFF 03421                         DT      B'10001111',B'11111000',B'11111111'     ;BTC=15
001FA8 0C8F 0CF8 0CFF 03422                         DT      B'10001111',B'11111000',B'11111111'     ;BTC=16
001FAE 0C8F 0CF8 0CFF 03423                         DT      B'10001111',B'11111000',B'11111111'     ;BTC=17
001FB4 0C8F 0CF8 0CFF 03424                         DT      B'10001111',B'11111000',B'11111111'     ;BTC=18
001FBA 0C8F 0CF8 0CFF 03425                         DT      B'10001111',B'11111000',B'11111111'     ;BTC=19
001FC0 0C8F 0CF8 0CFF 03426                         DT      B'10001111',B'11111000',B'11111111'     ;BTC=1A
001FC6 0C8F 0CF8 0CFF 03427                         DT      B'10001111',B'11111000',B'11111111'     ;BTC=1B
MPASM  5.51                 20200227_P6MM.ASM   2-27-2020  19:46:00         PAGE 69


LOC  OBJECT CODE     LINE SOURCE TEXT
  VALUE

001FCC 0C8F 0CF8 0CFF 03428                         DT      B'10001111',B'11111000',B'11111111'     ;BTC=1C
001FD2 0C8F 0CF8 0CFF 03429                         DT      B'10001111',B'11111000',B'11111111'     ;BTC=1D
001FD8 0C8F 0CF8 0CFF 03430                         DT      B'10001111',B'11111000',B'11111111'     ;BTC=1E
001FDE 0CFF 0CFF 0CFF 03431                         DT      B'11111111',B'11111111',B'11111111'     ;BTC=1F
                      03432 
                      03433 
                      03434 
Warning[205]: Found directive in column 1. (ORG)
002000                03435 ORG 0X2000
002000                03436 FONT02H_CAP_I
                      03437 
002000 0E00           03438         MOVLW   0
002002 6EFB           03439         MOVWF   PCLATU,0
002004 0E20           03440         MOVLW   20
002006 6EFA           03441         MOVWF   PCLATH,0
                      03442 
                      03443         
                      03444 
                      03445         
002008 C146 FFE8      03446                         MOVFF   BTCOUNT,WREG
00200C 90D8           03447                         BCF             STATUS,C
00200E 36E8           03448                         RLCF    WREG
                      03449 
                      03450                 
002010 26F9           03451                         ADDWF   PCL,1,0
002012 0CFF 0CFF 0CFF 03452                         DT      B'11111111',B'11111111',B'11111111'     ;BTC=00
002018 0C80 0C00 0C7F 03453                         DT      B'10000000',B'00000000',B'01111111'     ;BTC=01
00201E 0C80 0C00 0C7F 03454                         DT      B'10000000',B'00000000',B'01111111'     ;BTC=02
002024 0C80 0C00 0C7F 03455                         DT      B'10000000',B'00000000',B'01111111'     ;BTC=03
00202A 0C80 0C00 0C7F 03456                         DT      B'10000000',B'00000000',B'01111111'     ;BTC=04
002030 0CFE 0C1F 0CFF 03457                         DT      B'11111110',B'00011111',B'11111111'     ;BTC=05
002036 0CFE 0C1F 0CFF 03458                         DT      B'11111110',B'00011111',B'11111111'     ;BTC=06
00203C 0CFE 0C1F 0CFF 03459                         DT      B'11111110',B'00011111',B'11111111'     ;BTC=07
002042 0CFE 0C1F 0CFF 03460                         DT      B'11111110',B'00011111',B'11111111'     ;BTC=08
002048 0CFE 0C1F 0CFF 03461                         DT      B'11111110',B'00011111',B'11111111'     ;BTC=09
00204E 0CFE 0C1F 0CFF 03462                         DT      B'11111110',B'00011111',B'11111111'     ;BTC=0A
002054 0CFE 0C1F 0CFF 03463                         DT      B'11111110',B'00011111',B'11111111'     ;BTC=0B
00205A 0CFE 0C1F 0CFF 03464                         DT      B'11111110',B'00011111',B'11111111'     ;BTC=0C
002060 0CFE 0C1F 0CFF 03465                         DT      B'11111110',B'00011111',B'11111111'     ;BTC=0D
002066 0CFE 0C1F 0CFF 03466                         DT      B'11111110',B'00011111',B'11111111'     ;BTC=0E
00206C 0CFE 0C1F 0CFF 03467                         DT      B'11111110',B'00011111',B'11111111'     ;BTC=0F
                      03468 
                      03469 
002072                03470 FONT02H_LOW_I
                      03471 
002072 0E00           03472         MOVLW   0
002074 6EFB           03473         MOVWF   PCLATU,0
002076 0E20           03474         MOVLW   20
002078 6EFA           03475         MOVWF   PCLATH,0
                      03476 
                      03477         
                      03478 
                      03479         
MPASM  5.51                 20200227_P6MM.ASM   2-27-2020  19:46:00         PAGE 70


LOC  OBJECT CODE     LINE SOURCE TEXT
  VALUE

00207A C146 FFE8      03480                         MOVFF   BTCOUNT,WREG
00207E 90D8           03481                         BCF             STATUS,C
002080 36E8           03482                         RLCF    WREG
                      03483 
                      03484                 
002082 26F9           03485                         ADDWF   PCL,1,0
002084 0CFF 0CFF 0CFF 03486                         DT      B'11111111',B'11111111',B'11111111'     ;BTC=00
00208A 0CFF 0CFF 0CFF 03487                         DT      B'11111111',B'11111111',B'11111111'     ;BTC=01
002090 0CFF 0CFF 0CFF 03488                         DT      B'11111111',B'11111111',B'11111111'     ;BTC=02
002096 0CFF 0CFF 0CFF 03489                         DT      B'11111111',B'11111111',B'11111111'     ;BTC=03
00209C 0CFF 0CFF 0CFF 03490                         DT      B'11111111',B'11111111',B'11111111'     ;BTC=04
0020A2 0CFF 0CFF 0CFF 03491                         DT      B'11111111',B'11111111',B'11111111'     ;BTC=05
0020A8 0CFF 0CFF 0CFF 03492                         DT      B'11111111',B'11111111',B'11111111'     ;BTC=06
0020AE 0CFF 0CFF 0CFF 03493                         DT      B'11111111',B'11111111',B'11111111'     ;BTC=07
0020B4 0CFF 0CFF 0CFF 03494                         DT      B'11111111',B'11111111',B'11111111'     ;BTC=08
0020BA 0CFF 0CFF 0CFF 03495                         DT      B'11111111',B'11111111',B'11111111'     ;BTC=09
0020C0 0CDF 0CFF 0CFF 03496                         DT      B'11011111',B'11111111',B'11111111'     ;BTC=0A
0020C6 0C8F 0CFF 0CFF 03497                         DT      B'10001111',B'11111111',B'11111111'     ;BTC=0B
0020CC 0C8F 0CFF 0CFF 03498                         DT      B'10001111',B'11111111',B'11111111'     ;BTC=0C
0020D2 0CDF 0CFF 0CFF 03499                         DT      B'11011111',B'11111111',B'11111111'     ;BTC=0D
0020D8 0CFF 0CFF 0CFF 03500                         DT      B'11111111',B'11111111',B'11111111'     ;BTC=0E
0020DE 0CFF 0CFF 0CFF 03501                         DT      B'11111111',B'11111111',B'11111111'     ;BTC=0F
                      03502 
                      03503 
                      03504 
Warning[205]: Found directive in column 1. (ORG)
002100                03505 ORG 0X2100
002100                03506 FONT02L_CAP_I
                      03507 
002100 0E00           03508         MOVLW   0
002102 6EFB           03509         MOVWF   PCLATU,0
002104 0E21           03510         MOVLW   21
002106 6EFA           03511         MOVWF   PCLATH,0
                      03512 
                      03513 
                      03514 
                      03515 
002108 C146 FFE8      03516                         MOVFF   BTCOUNT,WREG
00210C 90D8           03517                         BCF             STATUS,C
00210E 36E8           03518                         RLCF    WREG
                      03519 
                      03520                 
002110 26F9           03521                         ADDWF   PCL,1,0
002112 0CFE 0C1F 0CFF 03522                         DT      B'11111110',B'00011111',B'11111111'     ;BTC=10
002118 0CFE 0C1F 0CFF 03523                         DT      B'11111110',B'00011111',B'11111111'     ;BTC=11
00211E 0CFE 0C1F 0CFF 03524                         DT      B'11111110',B'00011111',B'11111111'     ;BTC=12
002124 0CFE 0C1F 0CFF 03525                         DT      B'11111110',B'00011111',B'11111111'     ;BTC=13
00212A 0CFE 0C1F 0CFF 03526                         DT      B'11111110',B'00011111',B'11111111'     ;BTC=14
002130 0CFE 0C1F 0CFF 03527                         DT      B'11111110',B'00011111',B'11111111'     ;BTC=15
002136 0CFE 0C1F 0CFF 03528                         DT      B'11111110',B'00011111',B'11111111'     ;BTC=16
00213C 0CFE 0C1F 0CFF 03529                         DT      B'11111110',B'00011111',B'11111111'     ;BTC=17
002142 0CFE 0C1F 0CFF 03530                         DT      B'11111110',B'00011111',B'11111111'     ;BTC=18
002148 0CFE 0C1F 0CFF 03531                         DT      B'11111110',B'00011111',B'11111111'     ;BTC=19
MPASM  5.51                 20200227_P6MM.ASM   2-27-2020  19:46:00         PAGE 71


LOC  OBJECT CODE     LINE SOURCE TEXT
  VALUE

00214E 0CFE 0C1F 0CFF 03532                         DT      B'11111110',B'00011111',B'11111111'     ;BTC=1A
002154 0C80 0C00 0CFF 03533                         DT      B'10000000',B'00000000',B'11111111'     ;BTC=1B
00215A 0C80 0C00 0CFF 03534                         DT      B'10000000',B'00000000',B'11111111'     ;BTC=1C
002160 0C80 0C00 0CFF 03535                         DT      B'10000000',B'00000000',B'11111111'     ;BTC=1D
002166 0C80 0C00 0CFF 03536                         DT      B'10000000',B'00000000',B'11111111'     ;BTC=1E
00216C 0CFF 0CFF 0CFF 03537                         DT      B'11111111',B'11111111',B'11111111'     ;BTC=1F
                      03538 
                      03539 
002172                03540 FONT02L_LOW_I
                      03541 
002172 0E00           03542         MOVLW   0
002174 6EFB           03543         MOVWF   PCLATU,0
002176 0E21           03544         MOVLW   21
002178 6EFA           03545         MOVWF   PCLATH,0
                      03546 
                      03547 
                      03548 
                      03549 
00217A C146 FFE8      03550                         MOVFF   BTCOUNT,WREG
00217E 90D8           03551                         BCF             STATUS,C
002180 36E8           03552                         RLCF    WREG
                      03553 
                      03554                 
002182 26F9           03555                         ADDWF   PCL,1,0
002184 0C8F 0CFF 0CFF 03556                         DT      B'10001111',B'11111111',B'11111111'     ;BTC=10
00218A 0C8F 0CFF 0CFF 03557                         DT      B'10001111',B'11111111',B'11111111'     ;BTC=11
002190 0C8F 0CFF 0CFF 03558                         DT      B'10001111',B'11111111',B'11111111'     ;BTC=12
002196 0C8F 0CFF 0CFF 03559                         DT      B'10001111',B'11111111',B'11111111'     ;BTC=13
00219C 0C8F 0CFF 0CFF 03560                         DT      B'10001111',B'11111111',B'11111111'     ;BTC=14
0021A2 0C8F 0CFF 0CFF 03561                         DT      B'10001111',B'11111111',B'11111111'     ;BTC=15
0021A8 0C8F 0CFF 0CFF 03562                         DT      B'10001111',B'11111111',B'11111111'     ;BTC=16
0021AE 0C8F 0CFF 0CFF 03563                         DT      B'10001111',B'11111111',B'11111111'     ;BTC=17
0021B4 0C8F 0CFF 0CFF 03564                         DT      B'10001111',B'11111111',B'11111111'     ;BTC=18
0021BA 0C8F 0CFF 0CFF 03565                         DT      B'10001111',B'11111111',B'11111111'     ;BTC=19
0021C0 0C8F 0CFF 0CFF 03566                         DT      B'10001111',B'11111111',B'11111111'     ;BTC=1A
0021C6 0C8F 0CFF 0CFF 03567                         DT      B'10001111',B'11111111',B'11111111'     ;BTC=1B
0021CC 0C8F 0CFF 0CFF 03568                         DT      B'10001111',B'11111111',B'11111111'     ;BTC=1C
0021D2 0C8F 0CFF 0CFF 03569                         DT      B'10001111',B'11111111',B'11111111'     ;BTC=1D
0021D8 0C8F 0CFF 0CFF 03570                         DT      B'10001111',B'11111111',B'11111111'     ;BTC=1E
0021DE 0CFF 0CFF 0CFF 03571                         DT      B'11111111',B'11111111',B'11111111'     ;BTC=1F
                      03572 
                      03573 
                      03574 
Warning[205]: Found directive in column 1. (ORG)
002200                03575 ORG 0X2200
002200                03576 FONT02H_CAP_J
                      03577 
002200 0E00           03578         MOVLW   0
002202 6EFB           03579         MOVWF   PCLATU,0
002204 0E22           03580         MOVLW   22
002206 6EFA           03581         MOVWF   PCLATH,0
                      03582 
                      03583         
MPASM  5.51                 20200227_P6MM.ASM   2-27-2020  19:46:00         PAGE 72


LOC  OBJECT CODE     LINE SOURCE TEXT
  VALUE

                      03584 
                      03585         
002208 C146 FFE8      03586                         MOVFF   BTCOUNT,WREG
00220C 90D8           03587                         BCF             STATUS,C
00220E 36E8           03588                         RLCF    WREG
                      03589 
                      03590                 
002210 26F9           03591                         ADDWF   PCL,1,0
002212 0CFF 0CFF 0CFF 03592                         DT      B'11111111',B'11111111',B'11111111'     ;BTC=00
002218 0CFF 0CC0 0C0F 03593                         DT      B'11111111',B'11000000',B'00001111'     ;BTC=01
00221E 0CFF 0CC0 0C0F 03594                         DT      B'11111111',B'11000000',B'00001111'     ;BTC=02
002224 0CFF 0CC0 0C0F 03595                         DT      B'11111111',B'11000000',B'00001111'     ;BTC=03
00222A 0CFF 0CFC 0C3F 03596                         DT      B'11111111',B'11111100',B'00111111'     ;BTC=04
002230 0CFF 0CFC 0C3F 03597                         DT      B'11111111',B'11111100',B'00111111'     ;BTC=05
002236 0CFF 0CFC 0C3F 03598                         DT      B'11111111',B'11111100',B'00111111'     ;BTC=06
00223C 0CFF 0CFC 0C3F 03599                         DT      B'11111111',B'11111100',B'00111111'     ;BTC=07
002242 0CFF 0CFC 0C3F 03600                         DT      B'11111111',B'11111100',B'00111111'     ;BTC=08
002248 0CFF 0CFC 0C3F 03601                         DT      B'11111111',B'11111100',B'00111111'     ;BTC=09
00224E 0CFF 0CFC 0C3F 03602                         DT      B'11111111',B'11111100',B'00111111'     ;BTC=0A
002254 0CFF 0CFC 0C3F 03603                         DT      B'11111111',B'11111100',B'00111111'     ;BTC=0B
00225A 0CFF 0CFC 0C3F 03604                         DT      B'11111111',B'11111100',B'00111111'     ;BTC=0C
002260 0CFF 0CFC 0C3F 03605                         DT      B'11111111',B'11111100',B'00111111'     ;BTC=0D
002266 0CFF 0CFC 0C3F 03606                         DT      B'11111111',B'11111100',B'00111111'     ;BTC=0E
00226C 0CFF 0CFC 0C3F 03607                         DT      B'11111111',B'11111100',B'00111111'     ;BTC=0F
                      03608 
                      03609 
002272                03610 FONT02H_LOW_J
                      03611 
002272 0E00           03612         MOVLW   0
002274 6EFB           03613         MOVWF   PCLATU,0
002276 0E22           03614         MOVLW   22
002278 6EFA           03615         MOVWF   PCLATH,0
                      03616 
                      03617         
                      03618 
                      03619         
00227A C146 FFE8      03620                         MOVFF   BTCOUNT,WREG
00227E 90D8           03621                         BCF             STATUS,C
002280 36E8           03622                         RLCF    WREG
                      03623 
                      03624                 
002282 26F9           03625                         ADDWF   PCL,1,0
002284 0CFF 0CFF 0CFF 03626                         DT      B'11111111',B'11111111',B'11111111'     ;BTC=00
00228A 0CFF 0CFF 0CFF 03627                         DT      B'11111111',B'11111111',B'11111111'     ;BTC=01
002290 0CFF 0CFF 0CFF 03628                         DT      B'11111111',B'11111111',B'11111111'     ;BTC=02
002296 0CFF 0CFF 0CFF 03629                         DT      B'11111111',B'11111111',B'11111111'     ;BTC=03
00229C 0CFF 0CFD 0CFF 03630                         DT      B'11111111',B'11111101',B'11111111'     ;BTC=04
0022A2 0CFF 0CF8 0CFF 03631                         DT      B'11111111',B'11111000',B'11111111'     ;BTC=05
0022A8 0CFF 0CF8 0CFF 03632                         DT      B'11111111',B'11111000',B'11111111'     ;BTC=06
0022AE 0CFF 0CFD 0CFF 03633                         DT      B'11111111',B'11111101',B'11111111'     ;BTC=07
0022B4 0CFF 0CFF 0CFF 03634                         DT      B'11111111',B'11111111',B'11111111'     ;BTC=08
0022BA 0CFF 0CFF 0CFF 03635                         DT      B'11111111',B'11111111',B'11111111'     ;BTC=09
0022C0 0CFF 0CF8 0CFF 03636                         DT      B'11111111',B'11111000',B'11111111'     ;BTC=0A
MPASM  5.51                 20200227_P6MM.ASM   2-27-2020  19:46:00         PAGE 73


LOC  OBJECT CODE     LINE SOURCE TEXT
  VALUE

0022C6 0CFF 0CF8 0CFF 03637                         DT      B'11111111',B'11111000',B'11111111'     ;BTC=0B
0022CC 0CFF 0CF8 0CFF 03638                         DT      B'11111111',B'11111000',B'11111111'     ;BTC=0C
0022D2 0CFF 0CF8 0CFF 03639                         DT      B'11111111',B'11111000',B'11111111'     ;BTC=0D
0022D8 0CFF 0CF8 0CFF 03640                         DT      B'11111111',B'11111000',B'11111111'     ;BTC=0E
0022DE 0CFF 0CF8 0CFF 03641                         DT      B'11111111',B'11111000',B'11111111'     ;BTC=0F
                      03642 
                      03643 
Warning[205]: Found directive in column 1. (ORG)
002300                03644 ORG 0X2300
002300                03645 FONT02L_CAP_J
                      03646 
002300 0E00           03647         MOVLW   0
002302 6EFB           03648         MOVWF   PCLATU,0
002304 0E23           03649         MOVLW   23
002306 6EFA           03650         MOVWF   PCLATH,0
                      03651 
                      03652 
                      03653 
                      03654 
002308 C146 FFE8      03655                         MOVFF   BTCOUNT,WREG
00230C 90D8           03656                         BCF             STATUS,C
00230E 36E8           03657                         RLCF    WREG
                      03658 
                      03659                 
002310 26F9           03660                         ADDWF   PCL,1,0
002312 0CFF 0CFC 0C3F 03661                         DT      B'11111111',B'11111100',B'00111111'     ;BTC=10
002318 0CFF 0CFC 0C3F 03662                         DT      B'11111111',B'11111100',B'00111111'     ;BTC=11
00231E 0CFF 0CFC 0C3F 03663                         DT      B'11111111',B'11111100',B'00111111'     ;BTC=12
002324 0CFF 0CFC 0C3F 03664                         DT      B'11111111',B'11111100',B'00111111'     ;BTC=13
00232A 0CFF 0CFC 0C3F 03665                         DT      B'11111111',B'11111100',B'00111111'     ;BTC=14
002330 0CFF 0CFC 0C3F 03666                         DT      B'11111111',B'11111100',B'00111111'     ;BTC=15
002336 0CFF 0CFC 0C3F 03667                         DT      B'11111111',B'11111100',B'00111111'     ;BTC=16
00233C 0C87 0CFC 0C3F 03668                         DT      B'10000111',B'11111100',B'00111111'     ;BTC=17
002342 0C87 0CFC 0C3F 03669                         DT      B'10000111',B'11111100',B'00111111'     ;BTC=18
002348 0C87 0CFC 0C3F 03670                         DT      B'10000111',B'11111100',B'00111111'     ;BTC=19
00234E 0C83 0CF8 0C3F 03671                         DT      B'10000011',B'11111000',B'00111111'     ;BTC=1A
002354 0C81 0CF0 0C7F 03672                         DT      B'10000001',B'11110000',B'01111111'     ;BTC=1B
00235A 0CC0 0C00 0CFF 03673                         DT      B'11000000',B'00000000',B'11111111'     ;BTC=1C
002360 0CE0 0C01 0CFF 03674                         DT      B'11100000',B'00000001',B'11111111'     ;BTC=1D
002366 0CF0 0C03 0CFF 03675                         DT      B'11110000',B'00000011',B'11111111'     ;BTC=1E
00236C 0CFF 0CFF 0CFF 03676                         DT      B'11111111',B'11111111',B'11111111'     ;BTC=1F
                      03677 
                      03678 
002372                03679 FONT02L_LOW_J
                      03680 
002372 0E00           03681         MOVLW   0
002374 6EFB           03682         MOVWF   PCLATU,0
002376 0E23           03683         MOVLW   23
002378 6EFA           03684         MOVWF   PCLATH,0
                      03685 
                      03686 
                      03687 
                      03688 
MPASM  5.51                 20200227_P6MM.ASM   2-27-2020  19:46:00         PAGE 74


LOC  OBJECT CODE     LINE SOURCE TEXT
  VALUE

00237A C146 FFE8      03689                         MOVFF   BTCOUNT,WREG
00237E 90D8           03690                         BCF             STATUS,C
002380 36E8           03691                         RLCF    WREG
                      03692 
                      03693                 
002382 26F9           03694                         ADDWF   PCL,1,0
002384 0CFF 0CF8 0CFF 03695                         DT      B'11111111',B'11111000',B'11111111'     ;BTC=10
00238A 0CFF 0CF8 0CFF 03696                         DT      B'11111111',B'11111000',B'11111111'     ;BTC=11
002390 0CFF 0CF8 0CFF 03697                         DT      B'11111111',B'11111000',B'11111111'     ;BTC=12
002396 0CFF 0CF8 0CFF 03698                         DT      B'11111111',B'11111000',B'11111111'     ;BTC=13
00239C 0CFF 0CF8 0CFF 03699                         DT      B'11111111',B'11111000',B'11111111'     ;BTC=14
0023A2 0CFF 0CF8 0CFF 03700                         DT      B'11111111',B'11111000',B'11111111'     ;BTC=15
0023A8 0CFF 0CF8 0CFF 03701                         DT      B'11111111',B'11111000',B'11111111'     ;BTC=16
0023AE 0CFF 0CF8 0CFF 03702                         DT      B'11111111',B'11111000',B'11111111'     ;BTC=17
0023B4 0CFF 0CF8 0CFF 03703                         DT      B'11111111',B'11111000',B'11111111'     ;BTC=18
0023BA 0CFF 0CF8 0CFF 03704                         DT      B'11111111',B'11111000',B'11111111'     ;BTC=19
0023C0 0C8F 0CF8 0CFF 03705                         DT      B'10001111',B'11111000',B'11111111'     ;BTC=1A
0023C6 0C8F 0CF8 0CFF 03706                         DT      B'10001111',B'11111000',B'11111111'     ;BTC=1B
0023CC 0C87 0CF0 0CFF 03707                         DT      B'10000111',B'11110000',B'11111111'     ;BTC=1C
0023D2 0C80 0C00 0CFF 03708                         DT      B'10000000',B'00000000',B'11111111'     ;BTC=1D
0023D8 0CC0 0C01 0CFF 03709                         DT      B'11000000',B'00000001',B'11111111'     ;BTC=1E
0023DE 0CE0 0C03 0CFF 03710                         DT      B'11100000',B'00000011',B'11111111'     ;BTC=1F
                      03711 
                      03712 
                      03713 
Warning[205]: Found directive in column 1. (ORG)
002400                03714 ORG 0X2400
002400                03715 FONT02H_CAP_K
                      03716 
002400 0E00           03717         MOVLW   0
002402 6EFB           03718         MOVWF   PCLATU,0
002404 0E24           03719         MOVLW   24
002406 6EFA           03720         MOVWF   PCLATH,0
                      03721 
                      03722         
                      03723 
                      03724         
002408 C146 FFE8      03725                         MOVFF   BTCOUNT,WREG
00240C 90D8           03726                         BCF             STATUS,C
00240E 36E8           03727                         RLCF    WREG
                      03728 
                      03729                 
002410 26F9           03730                         ADDWF   PCL,1,0
002412 0CFF 0CFF 0CFF 03731                         DT      B'11111111',B'11111111',B'11111111'     ;BTC=00
002418 0C87 0CFE 0C0F 03732                         DT      B'10000111',B'11111110',B'00001111'     ;BTC=01
00241E 0C87 0CFC 0C1F 03733                         DT      B'10000111',B'11111100',B'00011111'     ;BTC=02
002424 0C87 0CF8 0C3F 03734                         DT      B'10000111',B'11111000',B'00111111'     ;BTC=03
00242A 0C87 0CF0 0C7F 03735                         DT      B'10000111',B'11110000',B'01111111'     ;BTC=04
002430 0C87 0CE0 0CFF 03736                         DT      B'10000111',B'11100000',B'11111111'     ;BTC=05
002436 0C87 0CC1 0CFF 03737                         DT      B'10000111',B'11000001',B'11111111'     ;BTC=06
00243C 0C87 0C83 0CFF 03738                         DT      B'10000111',B'10000011',B'11111111'     ;BTC=07
002442 0C87 0C07 0CFF 03739                         DT      B'10000111',B'00000111',B'11111111'     ;BTC=08
002448 0C86 0C0F 0CFF 03740                         DT      B'10000110',B'00001111',B'11111111'     ;BTC=09
MPASM  5.51                 20200227_P6MM.ASM   2-27-2020  19:46:00         PAGE 75


LOC  OBJECT CODE     LINE SOURCE TEXT
  VALUE

00244E 0C84 0C1F 0CFF 03741                         DT      B'10000100',B'00011111',B'11111111'     ;BTC=0A
002454 0C80 0C3F 0CFF 03742                         DT      B'10000000',B'00111111',B'11111111'     ;BTC=0B
00245A 0C80 0C7F 0CFF 03743                         DT      B'10000000',B'01111111',B'11111111'     ;BTC=0C
002460 0C80 0CFF 0CFF 03744                         DT      B'10000000',B'11111111',B'11111111'     ;BTC=0D
002466 0C81 0CFF 0CFF 03745                         DT      B'10000001',B'11111111',B'11111111'     ;BTC=0E
00246C 0C83 0CFF 0CFF 03746                         DT      B'10000011',B'11111111',B'11111111'     ;BTC=0F
                      03747 
002472                03748 FONT02H_LOW_K
                      03749 
002472 0E00           03750         MOVLW   0
002474 6EFB           03751         MOVWF   PCLATU,0
002476 0E24           03752         MOVLW   24
002478 6EFA           03753         MOVWF   PCLATH,0
                      03754 
                      03755         
                      03756 
                      03757         
00247A C146 FFE8      03758                         MOVFF   BTCOUNT,WREG
00247E 90D8           03759                         BCF             STATUS,C
002480 36E8           03760                         RLCF    WREG
                      03761 
                      03762                 
002482 26F9           03763                         ADDWF   PCL,1,0
002484 0CFF 0CFF 0CFF 03764                         DT      B'11111111',B'11111111',B'11111111'     ;BTC=00
00248A 0C8F 0CFF 0CFF 03765                         DT      B'10001111',B'11111111',B'11111111'     ;BTC=01
002490 0C8F 0CFF 0CFF 03766                         DT      B'10001111',B'11111111',B'11111111'     ;BTC=02
002496 0C8F 0CFF 0CFF 03767                         DT      B'10001111',B'11111111',B'11111111'     ;BTC=03
00249C 0C8F 0CFF 0CFF 03768                         DT      B'10001111',B'11111111',B'11111111'     ;BTC=04
0024A2 0C8F 0CFF 0CFF 03769                         DT      B'10001111',B'11111111',B'11111111'     ;BTC=05
0024A8 0C8F 0CFF 0CFF 03770                         DT      B'10001111',B'11111111',B'11111111'     ;BTC=06
0024AE 0C8F 0CFF 0CFF 03771                         DT      B'10001111',B'11111111',B'11111111'     ;BTC=07
0024B4 0C8F 0C8F 0CFF 03772                         DT      B'10001111',B'10001111',B'11111111'     ;BTC=08
0024BA 0C8F 0C8F 0CFF 03773                         DT      B'10001111',B'10001111',B'11111111'     ;BTC=09
0024C0 0C8F 0C1F 0CFF 03774                         DT      B'10001111',B'00011111',B'11111111'     ;BTC=0A
0024C6 0C8F 0C1F 0CFF 03775                         DT      B'10001111',B'00011111',B'11111111'     ;BTC=0B
0024CC 0C8E 0C3F 0CFF 03776                         DT      B'10001110',B'00111111',B'11111111'     ;BTC=0C
0024D2 0C8E 0C3F 0CFF 03777                         DT      B'10001110',B'00111111',B'11111111'     ;BTC=0D
0024D8 0C8C 0C7F 0CFF 03778                         DT      B'10001100',B'01111111',B'11111111'     ;BTC=0E
0024DE 0C8C 0C7F 0CFF 03779                         DT      B'10001100',B'01111111',B'11111111'     ;BTC=0F
                      03780 
                      03781 
Warning[205]: Found directive in column 1. (ORG)
002500                03782 ORG 0X2500
002500                03783 FONT02L_CAP_K
                      03784 
002500 0E00           03785         MOVLW   0
002502 6EFB           03786         MOVWF   PCLATU,0
002504 0E25           03787         MOVLW   25
002506 6EFA           03788         MOVWF   PCLATH,0
                      03789 
                      03790 
                      03791 
                      03792 
MPASM  5.51                 20200227_P6MM.ASM   2-27-2020  19:46:00         PAGE 76


LOC  OBJECT CODE     LINE SOURCE TEXT
  VALUE

002508 C146 FFE8      03793                         MOVFF   BTCOUNT,WREG
00250C 90D8           03794                         BCF             STATUS,C
00250E 36E8           03795                         RLCF    WREG
                      03796 
                      03797                 
002510 26F9           03798                         ADDWF   PCL,1,0
002512 0C83 0CFF 0CFF 03799                         DT      B'10000011',B'11111111',B'11111111'     ;BTC=10
002518 0C81 0CFF 0CFF 03800                         DT      B'10000001',B'11111111',B'11111111'     ;BTC=11
00251E 0C80 0CFF 0CFF 03801                         DT      B'10000000',B'11111111',B'11111111'     ;BTC=12
002524 0C80 0C7F 0CFF 03802                         DT      B'10000000',B'01111111',B'11111111'     ;BTC=13
00252A 0C80 0C3F 0CFF 03803                         DT      B'10000000',B'00111111',B'11111111'     ;BTC=14
002530 0C84 0C1F 0CFF 03804                         DT      B'10000100',B'00011111',B'11111111'     ;BTC=15
002536 0C86 0C0F 0CFF 03805                         DT      B'10000110',B'00001111',B'11111111'     ;BTC=16
00253C 0C87 0C07 0CFF 03806                         DT      B'10000111',B'00000111',B'11111111'     ;BTC=17
002542 0C87 0C83 0CFF 03807                         DT      B'10000111',B'10000011',B'11111111'     ;BTC=18
002548 0C87 0CC1 0CFF 03808                         DT      B'10000111',B'11000001',B'11111111'     ;BTC=19
00254E 0C87 0CE0 0CFF 03809                         DT      B'10000111',B'11100000',B'11111111'     ;BTC=1A
002554 0C87 0CF0 0C7F 03810                         DT      B'10000111',B'11110000',B'01111111'     ;BTC=1B
00255A 0C87 0CF8 0C3F 03811                         DT      B'10000111',B'11111000',B'00111111'     ;BTC=1C
002560 0C87 0CFC 0C1F 03812                         DT      B'10000111',B'11111100',B'00011111'     ;BTC=1D
002566 0C87 0CFE 0C0F 03813                         DT      B'10000111',B'11111110',B'00001111'     ;BTC=1E
00256C 0CFF 0CFF 0CFF 03814                         DT      B'11111111',B'11111111',B'11111111'     ;BTC=1F
                      03815 
                      03816 
002572                03817 FONT02L_LOW_K
                      03818 
002572 0E00           03819         MOVLW   0
002574 6EFB           03820         MOVWF   PCLATU,0
002576 0E25           03821         MOVLW   25
002578 6EFA           03822         MOVWF   PCLATH,0
                      03823 
                      03824 
                      03825 
                      03826 
00257A C146 FFE8      03827                         MOVFF   BTCOUNT,WREG
00257E 90D8           03828                         BCF             STATUS,C
002580 36E8           03829                         RLCF    WREG
                      03830 
                      03831                 
002582 26F9           03832                         ADDWF   PCL,1,0
002584 0C88 0CFF 0CFF 03833                         DT      B'10001000',B'11111111',B'11111111'     ;BTC=10
00258A 0C88 0CFF 0CFF 03834                         DT      B'10001000',B'11111111',B'11111111'     ;BTC=11
002590 0C81 0CFF 0CFF 03835                         DT      B'10000001',B'11111111',B'11111111'     ;BTC=12
002596 0C81 0CFF 0CFF 03836                         DT      B'10000001',B'11111111',B'11111111'     ;BTC=13
00259C 0C81 0CFF 0CFF 03837                         DT      B'10000001',B'11111111',B'11111111'     ;BTC=14
0025A2 0C88 0CFF 0CFF 03838                         DT      B'10001000',B'11111111',B'11111111'     ;BTC=15
0025A8 0C88 0CFF 0CFF 03839                         DT      B'10001000',B'11111111',B'11111111'     ;BTC=16
0025AE 0C8C 0C7F 0CFF 03840                         DT      B'10001100',B'01111111',B'11111111'     ;BTC=17
0025B4 0C8C 0C7F 0CFF 03841                         DT      B'10001100',B'01111111',B'11111111'     ;BTC=18
0025BA 0C8E 0C3F 0CFF 03842                         DT      B'10001110',B'00111111',B'11111111'     ;BTC=19
0025C0 0C8E 0C3F 0CFF 03843                         DT      B'10001110',B'00111111',B'11111111'     ;BTC=1A
0025C6 0C8F 0C1F 0CFF 03844                         DT      B'10001111',B'00011111',B'11111111'     ;BTC=1B
0025CC 0C8F 0C1F 0CFF 03845                         DT      B'10001111',B'00011111',B'11111111'     ;BTC=1C
MPASM  5.51                 20200227_P6MM.ASM   2-27-2020  19:46:00         PAGE 77


LOC  OBJECT CODE     LINE SOURCE TEXT
  VALUE

0025D2 0C8F 0C8F 0CFF 03846                         DT      B'10001111',B'10001111',B'11111111'     ;BTC=1D
0025D8 0C8F 0C8F 0CFF 03847                         DT      B'10001111',B'10001111',B'11111111'     ;BTC=1E
0025DE 0CFF 0CFF 0CFF 03848                         DT      B'11111111',B'11111111',B'11111111'     ;BTC=1F
                      03849 
                      03850 
Warning[205]: Found directive in column 1. (ORG)
002600                03851 ORG 0X2600
002600                03852 FONT02H_CAP_L
                      03853 
002600 0E00           03854         MOVLW   0
002602 6EFB           03855         MOVWF   PCLATU,0
002604 0E26           03856         MOVLW   26
002606 6EFA           03857         MOVWF   PCLATH,0
                      03858 
                      03859         
                      03860 
                      03861         
002608 C146 FFE8      03862                         MOVFF   BTCOUNT,WREG
00260C 90D8           03863                         BCF             STATUS,C
00260E 36E8           03864                         RLCF    WREG
                      03865 
                      03866                 
002610 26F9           03867                         ADDWF   PCL,1,0
002612 0CFF 0CFF 0CFF 03868                         DT      B'11111111',B'11111111',B'11111111'     ;BTC=00
002618 0C87 0CFF 0CFF 03869                         DT      B'10000111',B'11111111',B'11111111'     ;BTC=01
00261E 0C87 0CFF 0CFF 03870                         DT      B'10000111',B'11111111',B'11111111'     ;BTC=02
002624 0C87 0CFF 0CFF 03871                         DT      B'10000111',B'11111111',B'11111111'     ;BTC=03
00262A 0C87 0CFF 0CFF 03872                         DT      B'10000111',B'11111111',B'11111111'     ;BTC=04
002630 0C87 0CFF 0CFF 03873                         DT      B'10000111',B'11111111',B'11111111'     ;BTC=05
002636 0C87 0CFF 0CFF 03874                         DT      B'10000111',B'11111111',B'11111111'     ;BTC=06
00263C 0C87 0CFF 0CFF 03875                         DT      B'10000111',B'11111111',B'11111111'     ;BTC=07
002642 0C87 0CFF 0CFF 03876                         DT      B'10000111',B'11111111',B'11111111'     ;BTC=08
002648 0C87 0CFF 0CFF 03877                         DT      B'10000111',B'11111111',B'11111111'     ;BTC=09
00264E 0C87 0CFF 0CFF 03878                         DT      B'10000111',B'11111111',B'11111111'     ;BTC=0A
002654 0C87 0CFF 0CFF 03879                         DT      B'10000111',B'11111111',B'11111111'     ;BTC=0B
00265A 0C87 0CFF 0CFF 03880                         DT      B'10000111',B'11111111',B'11111111'     ;BTC=0C
002660 0C87 0CFF 0CFF 03881                         DT      B'10000111',B'11111111',B'11111111'     ;BTC=0D
002666 0C87 0CFF 0CFF 03882                         DT      B'10000111',B'11111111',B'11111111'     ;BTC=0E
00266C 0C87 0CFF 0CFF 03883                         DT      B'10000111',B'11111111',B'11111111'     ;BTC=0F
                      03884 
002672                03885 FONT02H_LOW_L
                      03886 
002672 0E00           03887         MOVLW   0
002674 6EFB           03888         MOVWF   PCLATU,0
002676 0E26           03889         MOVLW   26
002678 6EFA           03890         MOVWF   PCLATH,0
                      03891 
                      03892         
                      03893 
                      03894         
00267A C146 FFE8      03895                         MOVFF   BTCOUNT,WREG
00267E 90D8           03896                         BCF             STATUS,C
002680 36E8           03897                         RLCF    WREG
MPASM  5.51                 20200227_P6MM.ASM   2-27-2020  19:46:00         PAGE 78


LOC  OBJECT CODE     LINE SOURCE TEXT
  VALUE

                      03898 
                      03899                 
002682 26F9           03900                         ADDWF   PCL,1,0
002684 0CFF 0CFF 0CFF 03901                         DT      B'11111111',B'11111111',B'11111111'     ;BTC=00
00268A 0C8F 0CFF 0CFF 03902                         DT      B'10001111',B'11111111',B'11111111'     ;BTC=01
002690 0C8F 0CFF 0CFF 03903                         DT      B'10001111',B'11111111',B'11111111'     ;BTC=02
002696 0C8F 0CFF 0CFF 03904                         DT      B'10001111',B'11111111',B'11111111'     ;BTC=03
00269C 0C8F 0CFF 0CFF 03905                         DT      B'10001111',B'11111111',B'11111111'     ;BTC=04
0026A2 0C8F 0CFF 0CFF 03906                         DT      B'10001111',B'11111111',B'11111111'     ;BTC=05
0026A8 0C8F 0CFF 0CFF 03907                         DT      B'10001111',B'11111111',B'11111111'     ;BTC=06
0026AE 0C8F 0CFF 0CFF 03908                         DT      B'10001111',B'11111111',B'11111111'     ;BTC=07
0026B4 0C8F 0CFF 0CFF 03909                         DT      B'10001111',B'11111111',B'11111111'     ;BTC=08
0026BA 0C8F 0CFF 0CFF 03910                         DT      B'10001111',B'11111111',B'11111111'     ;BTC=09
0026C0 0C8F 0CFF 0CFF 03911                         DT      B'10001111',B'11111111',B'11111111'     ;BTC=0A
0026C6 0C8F 0CFF 0CFF 03912                         DT      B'10001111',B'11111111',B'11111111'     ;BTC=0B
0026CC 0C8F 0CFF 0CFF 03913                         DT      B'10001111',B'11111111',B'11111111'     ;BTC=0C
0026D2 0C8F 0CFF 0CFF 03914                         DT      B'10001111',B'11111111',B'11111111'     ;BTC=0D
0026D8 0C8F 0CFF 0CFF 03915                         DT      B'10001111',B'11111111',B'11111111'     ;BTC=0E
0026DE 0C8F 0CFF 0CFF 03916                         DT      B'10001111',B'11111111',B'11111111'     ;BTC=0F
                      03917 
                      03918 
                      03919 
Warning[205]: Found directive in column 1. (ORG)
002700                03920 ORG 0X2700
002700                03921 FONT02L_CAP_L
                      03922 
002700 0E00           03923         MOVLW   0
002702 6EFB           03924         MOVWF   PCLATU,0
002704 0E27           03925         MOVLW   27
002706 6EFA           03926         MOVWF   PCLATH,0
                      03927 
                      03928 
                      03929 
                      03930 
002708 C146 FFE8      03931                         MOVFF   BTCOUNT,WREG
00270C 90D8           03932                         BCF             STATUS,C
00270E 36E8           03933                         RLCF    WREG
                      03934 
                      03935                 
002710 26F9           03936                         ADDWF   PCL,1,0
002712 0C87 0CFF 0CFF 03937                         DT      B'10000111',B'11111111',B'11111111'     ;BTC=10
002718 0C87 0CFF 0CFF 03938                         DT      B'10000111',B'11111111',B'11111111'     ;BTC=11
00271E 0C87 0CFF 0CFF 03939                         DT      B'10000111',B'11111111',B'11111111'     ;BTC=12
002724 0C87 0CFF 0CFF 03940                         DT      B'10000111',B'11111111',B'11111111'     ;BTC=13
00272A 0C87 0CFF 0CFF 03941                         DT      B'10000111',B'11111111',B'11111111'     ;BTC=14
002730 0C87 0CFF 0CFF 03942                         DT      B'10000111',B'11111111',B'11111111'     ;BTC=15
002736 0C87 0CFF 0CFF 03943                         DT      B'10000111',B'11111111',B'11111111'     ;BTC=16
00273C 0C87 0CFF 0CFF 03944                         DT      B'10000111',B'11111111',B'11111111'     ;BTC=17
002742 0C87 0CFF 0CFF 03945                         DT      B'10000111',B'11111111',B'11111111'     ;BTC=18
002748 0C87 0CFF 0CFF 03946                         DT      B'10000111',B'11111111',B'11111111'     ;BTC=19
00274E 0C87 0CFF 0CFF 03947                         DT      B'10000111',B'11111111',B'11111111'     ;BTC=1A
002754 0C80 0C01 0CFF 03948                         DT      B'10000000',B'00000001',B'11111111'     ;BTC=1B
00275A 0C80 0C01 0CFF 03949                         DT      B'10000000',B'00000001',B'11111111'     ;BTC=1C
MPASM  5.51                 20200227_P6MM.ASM   2-27-2020  19:46:00         PAGE 79


LOC  OBJECT CODE     LINE SOURCE TEXT
  VALUE

002760 0C80 0C01 0CFF 03950                         DT      B'10000000',B'00000001',B'11111111'     ;BTC=1D
002766 0C80 0C01 0CFF 03951                         DT      B'10000000',B'00000001',B'11111111'     ;BTC=1E
00276C 0CFF 0CFF 0CFF 03952                         DT      B'11111111',B'11111111',B'11111111'     ;BTC=1F
                      03953 
002772                03954 FONT02L_LOW_L
                      03955 
002772 0E00           03956         MOVLW   0
002774 6EFB           03957         MOVWF   PCLATU,0
002776 0E27           03958         MOVLW   27
002778 6EFA           03959         MOVWF   PCLATH,0
                      03960 
                      03961 
                      03962 
                      03963 
00277A C146 FFE8      03964                         MOVFF   BTCOUNT,WREG
00277E 90D8           03965                         BCF             STATUS,C
002780 36E8           03966                         RLCF    WREG
                      03967 
                      03968                 
002782 26F9           03969                         ADDWF   PCL,1,0
002784 0C8F 0CFF 0CFF 03970                         DT      B'10001111',B'11111111',B'11111111'     ;BTC=10
00278A 0C8F 0CFF 0CFF 03971                         DT      B'10001111',B'11111111',B'11111111'     ;BTC=11
002790 0C8F 0CFF 0CFF 03972                         DT      B'10001111',B'11111111',B'11111111'     ;BTC=12
002796 0C8F 0CFF 0CFF 03973                         DT      B'10001111',B'11111111',B'11111111'     ;BTC=13
00279C 0C8F 0CFF 0CFF 03974                         DT      B'10001111',B'11111111',B'11111111'     ;BTC=14
0027A2 0C8F 0CFF 0CFF 03975                         DT      B'10001111',B'11111111',B'11111111'     ;BTC=15
0027A8 0C8F 0CFF 0CFF 03976                         DT      B'10001111',B'11111111',B'11111111'     ;BTC=16
0027AE 0C8F 0CFF 0CFF 03977                         DT      B'10001111',B'11111111',B'11111111'     ;BTC=17
0027B4 0C8F 0CFF 0CFF 03978                         DT      B'10001111',B'11111111',B'11111111'     ;BTC=18
0027BA 0C8F 0CFF 0CFF 03979                         DT      B'10001111',B'11111111',B'11111111'     ;BTC=19
0027C0 0C8F 0CFF 0CFF 03980                         DT      B'10001111',B'11111111',B'11111111'     ;BTC=1A
0027C6 0C8F 0CFF 0CFF 03981                         DT      B'10001111',B'11111111',B'11111111'     ;BTC=1B
0027CC 0C8F 0CFF 0CFF 03982                         DT      B'10001111',B'11111111',B'11111111'     ;BTC=1C
0027D2 0C8F 0CFF 0CFF 03983                         DT      B'10001111',B'11111111',B'11111111'     ;BTC=1D
0027D8 0C8F 0CFF 0CFF 03984                         DT      B'10001111',B'11111111',B'11111111'     ;BTC=1E
0027DE 0CFF 0CFF 0CFF 03985                         DT      B'11111111',B'11111111',B'11111111'     ;BTC=1F
                      03986 
                      03987 
                      03988 
                      03989 
Warning[205]: Found directive in column 1. (ORG)
002800                03990 ORG 0X2800
002800                03991 FONT02H_CAP_M
                      03992 
002800 0E00           03993         MOVLW   0
002802 6EFB           03994         MOVWF   PCLATU,0
002804 0E28           03995         MOVLW   28
002806 6EFA           03996         MOVWF   PCLATH,0
                      03997 
                      03998         
                      03999 
                      04000         
002808 C146 FFE8      04001                         MOVFF   BTCOUNT,WREG
MPASM  5.51                 20200227_P6MM.ASM   2-27-2020  19:46:00         PAGE 80


LOC  OBJECT CODE     LINE SOURCE TEXT
  VALUE

00280C 90D8           04002                         BCF             STATUS,C
00280E 36E8           04003                         RLCF    WREG
                      04004 
                      04005                 
002810 26F9           04006                         ADDWF   PCL,1,0
002812 0CFF 0CFF 0CFF 04007                         DT      B'11111111',B'11111111',B'11111111'     ;BTC=00
002818 0C87 0CFF 0C0F 04008                         DT      B'10000111',B'11111111',B'00001111'     ;BTC=01
00281E 0C87 0CFF 0C0F 04009                         DT      B'10000111',B'11111111',B'00001111'     ;BTC=02
002824 0C87 0CFF 0C0F 04010                         DT      B'10000111',B'11111111',B'00001111'     ;BTC=03
00282A 0C83 0CFE 0C0F 04011                         DT      B'10000011',B'11111110',B'00001111'     ;BTC=04
002830 0C81 0CFC 0C0F 04012                         DT      B'10000001',B'11111100',B'00001111'     ;BTC=05
002836 0C80 0CF8 0C0F 04013                         DT      B'10000000',B'11111000',B'00001111'     ;BTC=06
00283C 0C80 0C70 0C0F 04014                         DT      B'10000000',B'01110000',B'00001111'     ;BTC=07
002842 0C84 0C21 0C0F 04015                         DT      B'10000100',B'00100001',B'00001111'     ;BTC=08
002848 0C86 0C03 0C0F 04016                         DT      B'10000110',B'00000011',B'00001111'     ;BTC=09
00284E 0C87 0C07 0C0F 04017                         DT      B'10000111',B'00000111',B'00001111'     ;BTC=0A
002854 0C87 0C8F 0C0F 04018                         DT      B'10000111',B'10001111',B'00001111'     ;BTC=0B
00285A 0C87 0CDF 0C0F 04019                         DT      B'10000111',B'11011111',B'00001111'     ;BTC=0C
002860 0C87 0CFF 0C0F 04020                         DT      B'10000111',B'11111111',B'00001111'     ;BTC=0D
002866 0C87 0CFF 0C0F 04021                         DT      B'10000111',B'11111111',B'00001111'     ;BTC=0E
00286C 0C87 0CFF 0C0F 04022                         DT      B'10000111',B'11111111',B'00001111'     ;BTC=0F
                      04023 
                      04024 
002872                04025 FONT02H_LOW_M
                      04026 
002872 0E00           04027         MOVLW   0
002874 6EFB           04028         MOVWF   PCLATU,0
002876 0E28           04029         MOVLW   28
002878 6EFA           04030         MOVWF   PCLATH,0
                      04031 
                      04032         
                      04033 
                      04034         
00287A C146 FFE8      04035                         MOVFF   BTCOUNT,WREG
00287E 90D8           04036                         BCF             STATUS,C
002880 36E8           04037                         RLCF    WREG
                      04038 
                      04039                 
002882 26F9           04040                         ADDWF   PCL,1,0
002884 0CFF 0CFF 0CFF 04041                         DT      B'11111111',B'11111111',B'11111111'     ;BTC=00
00288A 0CFF 0CFF 0CFF 04042                         DT      B'11111111',B'11111111',B'11111111'     ;BTC=01
002890 0CFF 0CFF 0CFF 04043                         DT      B'11111111',B'11111111',B'11111111'     ;BTC=02
002896 0CFF 0CFF 0CFF 04044                         DT      B'11111111',B'11111111',B'11111111'     ;BTC=03
00289C 0CFF 0CFF 0CFF 04045                         DT      B'11111111',B'11111111',B'11111111'     ;BTC=04
0028A2 0CFF 0CFF 0CFF 04046                         DT      B'11111111',B'11111111',B'11111111'     ;BTC=05
0028A8 0CFF 0CFF 0CFF 04047                         DT      B'11111111',B'11111111',B'11111111'     ;BTC=06
0028AE 0CFF 0CFF 0CFF 04048                         DT      B'11111111',B'11111111',B'11111111'     ;BTC=07
0028B4 0CFF 0CFF 0CFF 04049                         DT      B'11111111',B'11111111',B'11111111'     ;BTC=08
0028BA 0CFF 0CFF 0CFF 04050                         DT      B'11111111',B'11111111',B'11111111'     ;BTC=09
0028C0 0CFF 0CFF 0CFF 04051                         DT      B'11111111',B'11111111',B'11111111'     ;BTC=0A
0028C6 0CFF 0CFF 0CFF 04052                         DT      B'11111111',B'11111111',B'11111111'     ;BTC=0B
0028CC 0CFF 0CFF 0CFF 04053                         DT      B'11111111',B'11111111',B'11111111'     ;BTC=0C
0028D2 0CFF 0CFF 0CFF 04054                         DT      B'11111111',B'11111111',B'11111111'     ;BTC=0D
MPASM  5.51                 20200227_P6MM.ASM   2-27-2020  19:46:00         PAGE 81


LOC  OBJECT CODE     LINE SOURCE TEXT
  VALUE

0028D8 0C88 0CE0 0CFF 04055                         DT      B'10001000',B'11100000',B'11111111'     ;BTC=0E
0028DE 0C80 0C40 0C7F 04056                         DT      B'10000000',B'01000000',B'01111111'     ;BTC=0F
                      04057 
                      04058 
                      04059 
Warning[205]: Found directive in column 1. (ORG)
002900                04060 ORG 0X2900
002900                04061 FONT02L_CAP_M
                      04062 
002900 0E00           04063         MOVLW   0
002902 6EFB           04064         MOVWF   PCLATU,0
002904 0E29           04065         MOVLW   29
002906 6EFA           04066         MOVWF   PCLATH,0
                      04067 
                      04068 
                      04069 
                      04070 
002908 C146 FFE8      04071                         MOVFF   BTCOUNT,WREG
00290C 90D8           04072                         BCF             STATUS,C
00290E 36E8           04073                         RLCF    WREG
                      04074 
                      04075                 
002910 26F9           04076                         ADDWF   PCL,1,0
002912 0C87 0CFF 0C0F 04077                         DT      B'10000111',B'11111111',B'00001111'     ;BTC=10
002918 0C87 0CFF 0C0F 04078                         DT      B'10000111',B'11111111',B'00001111'     ;BTC=11
00291E 0C87 0CFF 0C0F 04079                         DT      B'10000111',B'11111111',B'00001111'     ;BTC=12
002924 0C87 0CFF 0C0F 04080                         DT      B'10000111',B'11111111',B'00001111'     ;BTC=13
00292A 0C87 0CFF 0C0F 04081                         DT      B'10000111',B'11111111',B'00001111'     ;BTC=14
002930 0C87 0CFF 0C0F 04082                         DT      B'10000111',B'11111111',B'00001111'     ;BTC=15
002936 0C87 0CFF 0C0F 04083                         DT      B'10000111',B'11111111',B'00001111'     ;BTC=16
00293C 0C87 0CFF 0C0F 04084                         DT      B'10000111',B'11111111',B'00001111'     ;BTC=17
002942 0C87 0CFF 0C0F 04085                         DT      B'10000111',B'11111111',B'00001111'     ;BTC=18
002948 0C87 0CFF 0C0F 04086                         DT      B'10000111',B'11111111',B'00001111'     ;BTC=19
00294E 0C87 0CFF 0C0F 04087                         DT      B'10000111',B'11111111',B'00001111'     ;BTC=1A
002954 0C87 0CFF 0C0F 04088                         DT      B'10000111',B'11111111',B'00001111'     ;BTC=1B
00295A 0C87 0CFF 0C0F 04089                         DT      B'10000111',B'11111111',B'00001111'     ;BTC=1C
002960 0C87 0CFF 0C0F 04090                         DT      B'10000111',B'11111111',B'00001111'     ;BTC=1D
002966 0C87 0CFF 0C0F 04091                         DT      B'10000111',B'11111111',B'00001111'     ;BTC=1E
00296C 0CFF 0CFF 0CFF 04092                         DT      B'11111111',B'11111111',B'11111111'     ;BTC=1F
                      04093 
                      04094 
002972                04095 FONT02L_LOW_M
                      04096 
002972 0E00           04097         MOVLW   0
002974 6EFB           04098         MOVWF   PCLATU,0
002976 0E29           04099         MOVLW   29
002978 6EFA           04100         MOVWF   PCLATH,0
                      04101 
                      04102 
                      04103 
                      04104 
00297A C146 FFE8      04105                         MOVFF   BTCOUNT,WREG
00297E 90D8           04106                         BCF             STATUS,C
MPASM  5.51                 20200227_P6MM.ASM   2-27-2020  19:46:00         PAGE 82


LOC  OBJECT CODE     LINE SOURCE TEXT
  VALUE

002980 36E8           04107                         RLCF    WREG
                      04108 
                      04109                 
002982 26F9           04110                         ADDWF   PCL,1,0
002984 0C80 0C00 0C3F 04111                         DT      B'10000000',B'00000000',B'00111111'     ;BTC=10
00298A 0C86 0C0C 0C3F 04112                         DT      B'10000110',B'00001100',B'00111111'     ;BTC=11
002990 0C8F 0C1E 0C3F 04113                         DT      B'10001111',B'00011110',B'00111111'     ;BTC=12
002996 0C8F 0C1E 0C3F 04114                         DT      B'10001111',B'00011110',B'00111111'     ;BTC=13
00299C 0C8F 0C1E 0C3F 04115                         DT      B'10001111',B'00011110',B'00111111'     ;BTC=14
0029A2 0C8F 0C1E 0C3F 04116                         DT      B'10001111',B'00011110',B'00111111'     ;BTC=15
0029A8 0C8F 0C1E 0C3F 04117                         DT      B'10001111',B'00011110',B'00111111'     ;BTC=16
0029AE 0C8F 0C1E 0C3F 04118                         DT      B'10001111',B'00011110',B'00111111'     ;BTC=17
0029B4 0C8F 0C1E 0C3F 04119                         DT      B'10001111',B'00011110',B'00111111'     ;BTC=18
0029BA 0C8F 0C1E 0C3F 04120                         DT      B'10001111',B'00011110',B'00111111'     ;BTC=19
0029C0 0C8F 0C1E 0C3F 04121                         DT      B'10001111',B'00011110',B'00111111'     ;BTC=1A
0029C6 0C8F 0C1E 0C3F 04122                         DT      B'10001111',B'00011110',B'00111111'     ;BTC=1B
0029CC 0C8F 0C1E 0C3F 04123                         DT      B'10001111',B'00011110',B'00111111'     ;BTC=1C
0029D2 0C8F 0C1E 0C3F 04124                         DT      B'10001111',B'00011110',B'00111111'     ;BTC=1D
0029D8 0C8F 0C1E 0C3F 04125                         DT      B'10001111',B'00011110',B'00111111'     ;BTC=1E
0029DE 0CFF 0CFF 0CFF 04126                         DT      B'11111111',B'11111111',B'11111111'     ;BTC=1F
                      04127 
                      04128 
                      04129 
                      04130 
                      04131 
                      04132 
Warning[205]: Found directive in column 1. (ORG)
002A00                04133 ORG 0X2A00
002A00                04134 FONT02H_CAP_N
                      04135 
002A00 0E00           04136         MOVLW   0
002A02 6EFB           04137         MOVWF   PCLATU,0
002A04 0E2A           04138         MOVLW   2A
002A06 6EFA           04139         MOVWF   PCLATH,0
                      04140 
                      04141         
                      04142 
                      04143         
002A08 C146 FFE8      04144                         MOVFF   BTCOUNT,WREG
002A0C 90D8           04145                         BCF             STATUS,C
002A0E 36E8           04146                         RLCF    WREG
                      04147 
                      04148                 
002A10 26F9           04149                         ADDWF   PCL,1,0
002A12 0CFF 0CFF 0CFF 04150                         DT      B'11111111',B'11111111',B'11111111'     ;BTC=00
002A18 0C87 0CFF 0C0F 04151                         DT      B'10000111',B'11111111',B'00001111'     ;BTC=01
002A1E 0C87 0CFF 0C0F 04152                         DT      B'10000111',B'11111111',B'00001111'     ;BTC=02
002A24 0C87 0CFF 0C0F 04153                         DT      B'10000111',B'11111111',B'00001111'     ;BTC=03
002A2A 0C83 0CFF 0C0F 04154                         DT      B'10000011',B'11111111',B'00001111'     ;BTC=04
002A30 0C83 0CFF 0C0F 04155                         DT      B'10000011',B'11111111',B'00001111'     ;BTC=05
002A36 0C81 0CFF 0C0F 04156                         DT      B'10000001',B'11111111',B'00001111'     ;BTC=06
002A3C 0C81 0CFF 0C0F 04157                         DT      B'10000001',B'11111111',B'00001111'     ;BTC=07
002A42 0C80 0CFF 0C0F 04158                         DT      B'10000000',B'11111111',B'00001111'     ;BTC=08
MPASM  5.51                 20200227_P6MM.ASM   2-27-2020  19:46:00         PAGE 83


LOC  OBJECT CODE     LINE SOURCE TEXT
  VALUE

002A48 0C80 0CFF 0C0F 04159                         DT      B'10000000',B'11111111',B'00001111'     ;BTC=09
002A4E 0C80 0C7F 0C0F 04160                         DT      B'10000000',B'01111111',B'00001111'     ;BTC=0A
002A54 0C80 0C7F 0C0F 04161                         DT      B'10000000',B'01111111',B'00001111'     ;BTC=0B
002A5A 0C84 0C3F 0C0F 04162                         DT      B'10000100',B'00111111',B'00001111'     ;BTC=0C
002A60 0C84 0C3F 0C0F 04163                         DT      B'10000100',B'00111111',B'00001111'     ;BTC=0D
002A66 0C86 0C1F 0C0F 04164                         DT      B'10000110',B'00011111',B'00001111'     ;BTC=0E
002A6C 0C86 0C1F 0C0F 04165                         DT      B'10000110',B'00011111',B'00001111'     ;BTC=0F
                      04166 
                      04167 
002A72                04168 FONT02H_LOW_N
                      04169 
002A72 0E00           04170         MOVLW   0
002A74 6EFB           04171         MOVWF   PCLATU,0
002A76 0E2A           04172         MOVLW   2A
002A78 6EFA           04173         MOVWF   PCLATH,0
                      04174 
                      04175         
                      04176 
                      04177         
002A7A C146 FFE8      04178                         MOVFF   BTCOUNT,WREG
002A7E 90D8           04179                         BCF             STATUS,C
002A80 36E8           04180                         RLCF    WREG
                      04181 
                      04182                 
002A82 26F9           04183                         ADDWF   PCL,1,0
002A84 0CFF 0CFF 0CFF 04184                         DT      B'11111111',B'11111111',B'11111111'     ;BTC=00
002A8A 0CFF 0CFF 0CFF 04185                         DT      B'11111111',B'11111111',B'11111111'     ;BTC=01
002A90 0CFF 0CFF 0CFF 04186                         DT      B'11111111',B'11111111',B'11111111'     ;BTC=02
002A96 0CFF 0CFF 0CFF 04187                         DT      B'11111111',B'11111111',B'11111111'     ;BTC=03
002A9C 0CFF 0CFF 0CFF 04188                         DT      B'11111111',B'11111111',B'11111111'     ;BTC=04
002AA2 0CFF 0CFF 0CFF 04189                         DT      B'11111111',B'11111111',B'11111111'     ;BTC=05
002AA8 0CFF 0CFF 0CFF 04190                         DT      B'11111111',B'11111111',B'11111111'     ;BTC=06
002AAE 0CFF 0CFF 0CFF 04191                         DT      B'11111111',B'11111111',B'11111111'     ;BTC=07
002AB4 0CFF 0CFF 0CFF 04192                         DT      B'11111111',B'11111111',B'11111111'     ;BTC=08
002ABA 0CFF 0CFF 0CFF 04193                         DT      B'11111111',B'11111111',B'11111111'     ;BTC=09
002AC0 0CFF 0CFF 0CFF 04194                         DT      B'11111111',B'11111111',B'11111111'     ;BTC=0A
002AC6 0CFF 0CFF 0CFF 04195                         DT      B'11111111',B'11111111',B'11111111'     ;BTC=0B
002ACC 0CFF 0CFF 0CFF 04196                         DT      B'11111111',B'11111111',B'11111111'     ;BTC=0C
002AD2 0CFF 0CFF 0CFF 04197                         DT      B'11111111',B'11111111',B'11111111'     ;BTC=0D
002AD8 0C88 0C01 0CFF 04198                         DT      B'10001000',B'00000001',B'11111111'     ;BTC=0E
002ADE 0C80 0C00 0CFF 04199                         DT      B'10000000',B'00000000',B'11111111'     ;BTC=0F
                      04200 
                      04201 
Warning[205]: Found directive in column 1. (ORG)
002B00                04202 ORG 0X2B00
002B00                04203 FONT02L_CAP_N
                      04204 
002B00 0E00           04205         MOVLW   0
002B02 6EFB           04206         MOVWF   PCLATU,0
002B04 0E2B           04207         MOVLW   2B
002B06 6EFA           04208         MOVWF   PCLATH,0
                      04209 
                      04210 
MPASM  5.51                 20200227_P6MM.ASM   2-27-2020  19:46:00         PAGE 84


LOC  OBJECT CODE     LINE SOURCE TEXT
  VALUE

                      04211 
                      04212 
002B08 C146 FFE8      04213                         MOVFF   BTCOUNT,WREG
002B0C 90D8           04214                         BCF             STATUS,C
002B0E 36E8           04215                         RLCF    WREG
                      04216 
                      04217                 
002B10 26F9           04218                         ADDWF   PCL,1,0
002B12 0C87 0C0F 0C0F 04219                         DT      B'10000111',B'00001111',B'00001111'     ;BTC=10
002B18 0C87 0C0F 0C0F 04220                         DT      B'10000111',B'00001111',B'00001111'     ;BTC=11
002B1E 0C87 0C87 0C0F 04221                         DT      B'10000111',B'10000111',B'00001111'     ;BTC=12
002B24 0C87 0C87 0C0F 04222                         DT      B'10000111',B'10000111',B'00001111'     ;BTC=13
002B2A 0C87 0CC3 0C0F 04223                         DT      B'10000111',B'11000011',B'00001111'     ;BTC=14
002B30 0C87 0CC3 0C0F 04224                         DT      B'10000111',B'11000011',B'00001111'     ;BTC=15
002B36 0C87 0CE1 0C0F 04225                         DT      B'10000111',B'11100001',B'00001111'     ;BTC=16
002B3C 0C87 0CE1 0C0F 04226                         DT      B'10000111',B'11100001',B'00001111'     ;BTC=17
002B42 0C87 0CF0 0C0F 04227                         DT      B'10000111',B'11110000',B'00001111'     ;BTC=18
002B48 0C87 0CF0 0C0F 04228                         DT      B'10000111',B'11110000',B'00001111'     ;BTC=19
002B4E 0C87 0CF8 0C0F 04229                         DT      B'10000111',B'11111000',B'00001111'     ;BTC=1A
002B54 0C87 0CFC 0C0F 04230                         DT      B'10000111',B'11111100',B'00001111'     ;BTC=1B
002B5A 0C87 0CFC 0C0F 04231                         DT      B'10000111',B'11111100',B'00001111'     ;BTC=1C
002B60 0C87 0CFE 0C0F 04232                         DT      B'10000111',B'11111110',B'00001111'     ;BTC=1D
002B66 0C87 0CFE 0C0F 04233                         DT      B'10000111',B'11111110',B'00001111'     ;BTC=1E
002B6C 0CFF 0CFF 0CFF 04234                         DT      B'11111111',B'11111111',B'11111111'     ;BTC=1F
                      04235 
002B72                04236 FONT02L_LOW_N
                      04237 
002B72 0E00           04238         MOVLW   0
002B74 6EFB           04239         MOVWF   PCLATU,0
002B76 0E2B           04240         MOVLW   2B
002B78 6EFA           04241         MOVWF   PCLATH,0
                      04242 
                      04243 
                      04244 
                      04245 
002B7A C146 FFE8      04246                         MOVFF   BTCOUNT,WREG
002B7E 90D8           04247                         BCF             STATUS,C
002B80 36E8           04248                         RLCF    WREG
                      04249 
                      04250                 
002B82 26F9           04251                         ADDWF   PCL,1,0
002B84 0C80 0C00 0C7F 04252                         DT      B'10000000',B'00000000',B'01111111'     ;BTC=10
002B8A 0C87 0CF8 0C7F 04253                         DT      B'10000111',B'11111000',B'01111111'     ;BTC=11
002B90 0C8F 0CFC 0C7F 04254                         DT      B'10001111',B'11111100',B'01111111'     ;BTC=12
002B96 0C8F 0CFC 0C7F 04255                         DT      B'10001111',B'11111100',B'01111111'     ;BTC=13
002B9C 0C8F 0CFC 0C7F 04256                         DT      B'10001111',B'11111100',B'01111111'     ;BTC=14
002BA2 0C8F 0CFC 0C7F 04257                         DT      B'10001111',B'11111100',B'01111111'     ;BTC=15
002BA8 0C8F 0CFC 0C7F 04258                         DT      B'10001111',B'11111100',B'01111111'     ;BTC=16
002BAE 0C8F 0CFC 0C7F 04259                         DT      B'10001111',B'11111100',B'01111111'     ;BTC=17
002BB4 0C8F 0CFC 0C7F 04260                         DT      B'10001111',B'11111100',B'01111111'     ;BTC=18
002BBA 0C8F 0CFC 0C7F 04261                         DT      B'10001111',B'11111100',B'01111111'     ;BTC=19
002BC0 0C8F 0CFC 0C7F 04262                         DT      B'10001111',B'11111100',B'01111111'     ;BTC=1A
002BC6 0C8F 0CFC 0C7F 04263                         DT      B'10001111',B'11111100',B'01111111'     ;BTC=1B
MPASM  5.51                 20200227_P6MM.ASM   2-27-2020  19:46:00         PAGE 85


LOC  OBJECT CODE     LINE SOURCE TEXT
  VALUE

002BCC 0C8F 0CFC 0C7F 04264                         DT      B'10001111',B'11111100',B'01111111'     ;BTC=1C
002BD2 0C8F 0CFC 0C7F 04265                         DT      B'10001111',B'11111100',B'01111111'     ;BTC=1D
002BD8 0C8F 0CFC 0C7F 04266                         DT      B'10001111',B'11111100',B'01111111'     ;BTC=1E
002BDE 0CFF 0CFF 0CFF 04267                         DT      B'11111111',B'11111111',B'11111111'     ;BTC=1F
                      04268 
Warning[205]: Found directive in column 1. (ORG)
002C00                04269 ORG 0X2C00
002C00                04270 FONT02H_CAP_O
                      04271 
002C00 0E00           04272         MOVLW   0
002C02 6EFB           04273         MOVWF   PCLATU,0
002C04 0E2C           04274         MOVLW   2C
002C06 6EFA           04275         MOVWF   PCLATH,0
                      04276 
                      04277         
                      04278 
                      04279         
002C08 C146 FFE8      04280                         MOVFF   BTCOUNT,WREG
002C0C 90D8           04281                         BCF             STATUS,C
002C0E 36E8           04282                         RLCF    WREG
                      04283 
                      04284                 
002C10 26F9           04285                         ADDWF   PCL,1,0
002C12 0CFF 0CFF 0CFF 04286                         DT      B'11111111',B'11111111',B'11111111'     ;BTC=00
002C18 0CFC 0C01 0CFF 04287                         DT      B'11111100',B'00000001',B'11111111'     ;BTC=01
002C1E 0CF8 0C00 0CFF 04288                         DT      B'11111000',B'00000000',B'11111111'     ;BTC=02
002C24 0CF0 0C00 0C7F 04289                         DT      B'11110000',B'00000000',B'01111111'     ;BTC=03
002C2A 0CE0 0CF8 0C3F 04290                         DT      B'11100000',B'11111000',B'00111111'     ;BTC=04
002C30 0CC1 0CFC 0C1F 04291                         DT      B'11000001',B'11111100',B'00011111'     ;BTC=05
002C36 0C83 0CFE 0C0F 04292                         DT      B'10000011',B'11111110',B'00001111'     ;BTC=06
002C3C 0C87 0CFF 0C0F 04293                         DT      B'10000111',B'11111111',B'00001111'     ;BTC=07
002C42 0C87 0CFF 0C0F 04294                         DT      B'10000111',B'11111111',B'00001111'     ;BTC=08
002C48 0C87 0CFF 0C0F 04295                         DT      B'10000111',B'11111111',B'00001111'     ;BTC=09
002C4E 0C87 0CFF 0C0F 04296                         DT      B'10000111',B'11111111',B'00001111'     ;BTC=0A
002C54 0C87 0CFF 0C0F 04297                         DT      B'10000111',B'11111111',B'00001111'     ;BTC=0B
002C5A 0C87 0CFF 0C0F 04298                         DT      B'10000111',B'11111111',B'00001111'     ;BTC=0C
002C60 0C87 0CFF 0C0F 04299                         DT      B'10000111',B'11111111',B'00001111'     ;BTC=0D
002C66 0C87 0CFF 0C0F 04300                         DT      B'10000111',B'11111111',B'00001111'     ;BTC=0E
002C6C 0C87 0CFF 0C0F 04301                         DT      B'10000111',B'11111111',B'00001111'     ;BTC=0F
                      04302 
002C72                04303 FONT02H_LOW_O
                      04304 
002C72 0E00           04305         MOVLW   0
002C74 6EFB           04306         MOVWF   PCLATU,0
002C76 0E2C           04307         MOVLW   2C
002C78 6EFA           04308         MOVWF   PCLATH,0
                      04309 
                      04310         
                      04311 
                      04312         
002C7A C146 FFE8      04313                         MOVFF   BTCOUNT,WREG
002C7E 90D8           04314                         BCF             STATUS,C
002C80 36E8           04315                         RLCF    WREG
MPASM  5.51                 20200227_P6MM.ASM   2-27-2020  19:46:00         PAGE 86


LOC  OBJECT CODE     LINE SOURCE TEXT
  VALUE

                      04316 
                      04317                 
002C82 26F9           04318                         ADDWF   PCL,1,0
002C84 0CFF 0CFF 0CFF 04319                         DT      B'11111111',B'11111111',B'11111111'     ;BTC=00
002C8A 0CFF 0CFF 0CFF 04320                         DT      B'11111111',B'11111111',B'11111111'     ;BTC=01
002C90 0CFF 0CFF 0CFF 04321                         DT      B'11111111',B'11111111',B'11111111'     ;BTC=02
002C96 0CFF 0CFF 0CFF 04322                         DT      B'11111111',B'11111111',B'11111111'     ;BTC=03
002C9C 0CFF 0CFF 0CFF 04323                         DT      B'11111111',B'11111111',B'11111111'     ;BTC=04
002CA2 0CFF 0CFF 0CFF 04324                         DT      B'11111111',B'11111111',B'11111111'     ;BTC=05
002CA8 0CFF 0CFF 0CFF 04325                         DT      B'11111111',B'11111111',B'11111111'     ;BTC=06
002CAE 0CFF 0CFF 0CFF 04326                         DT      B'11111111',B'11111111',B'11111111'     ;BTC=07
002CB4 0CFF 0CFF 0CFF 04327                         DT      B'11111111',B'11111111',B'11111111'     ;BTC=08
002CBA 0CFF 0CFF 0CFF 04328                         DT      B'11111111',B'11111111',B'11111111'     ;BTC=09
002CC0 0CFF 0CFF 0CFF 04329                         DT      B'11111111',B'11111111',B'11111111'     ;BTC=0A
002CC6 0CFF 0CFF 0CFF 04330                         DT      B'11111111',B'11111111',B'11111111'     ;BTC=0B
002CCC 0CFF 0CFF 0CFF 04331                         DT      B'11111111',B'11111111',B'11111111'     ;BTC=0C
002CD2 0CFF 0CFF 0CFF 04332                         DT      B'11111111',B'11111111',B'11111111'     ;BTC=0D
002CD8 0CE0 0C01 0CFF 04333                         DT      B'11100000',B'00000001',B'11111111'     ;BTC=0E
002CDE 0CC0 0C00 0CFF 04334                         DT      B'11000000',B'00000000',B'11111111'     ;BTC=0F
                      04335 
                      04336 
Warning[205]: Found directive in column 1. (ORG)
002D00                04337 ORG 0X2D00
002D00                04338 FONT02L_CAP_O
                      04339 
002D00 0E00           04340         MOVLW   0
002D02 6EFB           04341         MOVWF   PCLATU,0
002D04 0E2D           04342         MOVLW   2D
002D06 6EFA           04343         MOVWF   PCLATH,0
                      04344 
                      04345 
                      04346 
                      04347 
002D08 C146 FFE8      04348                         MOVFF   BTCOUNT,WREG
002D0C 90D8           04349                         BCF             STATUS,C
002D0E 36E8           04350                         RLCF    WREG
                      04351 
                      04352                 
002D10 26F9           04353                         ADDWF   PCL,1,0
002D12 0C87 0CFF 0C0F 04354                         DT      B'10000111',B'11111111',B'00001111'     ;BTC=10
002D18 0C87 0CFF 0C0F 04355                         DT      B'10000111',B'11111111',B'00001111'     ;BTC=11
002D1E 0C87 0CFF 0C0F 04356                         DT      B'10000111',B'11111111',B'00001111'     ;BTC=12
002D24 0C87 0CFF 0C0F 04357                         DT      B'10000111',B'11111111',B'00001111'     ;BTC=13
002D2A 0C87 0CFF 0C0F 04358                         DT      B'10000111',B'11111111',B'00001111'     ;BTC=14
002D30 0C87 0CFF 0C0F 04359                         DT      B'10000111',B'11111111',B'00001111'     ;BTC=15
002D36 0C87 0CFF 0C0F 04360                         DT      B'10000111',B'11111111',B'00001111'     ;BTC=16
002D3C 0C87 0CFF 0C0F 04361                         DT      B'10000111',B'11111111',B'00001111'     ;BTC=17
002D42 0C87 0CFF 0C0F 04362                         DT      B'10000111',B'11111111',B'00001111'     ;BTC=18
002D48 0C83 0CFE 0C0F 04363                         DT      B'10000011',B'11111110',B'00001111'     ;BTC=19
002D4E 0CC1 0CFC 0C1F 04364                         DT      B'11000001',B'11111100',B'00011111'     ;BTC=1A
002D54 0CE0 0CF8 0C3F 04365                         DT      B'11100000',B'11111000',B'00111111'     ;BTC=1B
002D5A 0CF0 0C00 0C7F 04366                         DT      B'11110000',B'00000000',B'01111111'     ;BTC=1C
002D60 0CF8 0C00 0CFF 04367                         DT      B'11111000',B'00000000',B'11111111'     ;BTC=1D
MPASM  5.51                 20200227_P6MM.ASM   2-27-2020  19:46:00         PAGE 87


LOC  OBJECT CODE     LINE SOURCE TEXT
  VALUE

002D66 0CFC 0C01 0CFF 04368                         DT      B'11111100',B'00000001',B'11111111'     ;BTC=1E
002D6C 0CFF 0CFF 0CFF 04369                         DT      B'11111111',B'11111111',B'11111111'     ;BTC=1F
                      04370 
                      04371 
002D72                04372 FONT02L_LOW_O
                      04373 
002D72 0E00           04374         MOVLW   0
002D74 6EFB           04375         MOVWF   PCLATU,0
002D76 0E2D           04376         MOVLW   2D
002D78 6EFA           04377         MOVWF   PCLATH,0
                      04378 
                      04379 
                      04380 
                      04381 
002D7A C146 FFE8      04382                         MOVFF   BTCOUNT,WREG
002D7E 90D8           04383                         BCF             STATUS,C
002D80 36E8           04384                         RLCF    WREG
                      04385 
                      04386                 
002D82 26F9           04387                         ADDWF   PCL,1,0
002D84 0C80 0C00 0C7F 04388                         DT      B'10000000',B'00000000',B'01111111'     ;BTC=10
002D8A 0C87 0CF8 0C7F 04389                         DT      B'10000111',B'11111000',B'01111111'     ;BTC=11
002D90 0C8F 0CFC 0C7F 04390                         DT      B'10001111',B'11111100',B'01111111'     ;BTC=12
002D96 0C8F 0CFC 0C7F 04391                         DT      B'10001111',B'11111100',B'01111111'     ;BTC=13
002D9C 0C8F 0CFC 0C7F 04392                         DT      B'10001111',B'11111100',B'01111111'     ;BTC=14
002DA2 0C8F 0CFC 0C7F 04393                         DT      B'10001111',B'11111100',B'01111111'     ;BTC=15
002DA8 0C8F 0CFC 0C7F 04394                         DT      B'10001111',B'11111100',B'01111111'     ;BTC=16
002DAE 0C8F 0CFC 0C7F 04395                         DT      B'10001111',B'11111100',B'01111111'     ;BTC=17
002DB4 0C8F 0CFC 0C7F 04396                         DT      B'10001111',B'11111100',B'01111111'     ;BTC=18
002DBA 0C8F 0CFC 0C7F 04397                         DT      B'10001111',B'11111100',B'01111111'     ;BTC=19
002DC0 0C8F 0CFC 0C7F 04398                         DT      B'10001111',B'11111100',B'01111111'     ;BTC=1A
002DC6 0C87 0CF8 0C7F 04399                         DT      B'10000111',B'11111000',B'01111111'     ;BTC=1B
002DCC 0C80 0C00 0C7F 04400                         DT      B'10000000',B'00000000',B'01111111'     ;BTC=1C
002DD2 0CC0 0C00 0CFF 04401                         DT      B'11000000',B'00000000',B'11111111'     ;BTC=1D
002DD8 0CE0 0C01 0CFF 04402                         DT      B'11100000',B'00000001',B'11111111'     ;BTC=1E
002DDE 0CFF 0CFF 0CFF 04403                         DT      B'11111111',B'11111111',B'11111111'     ;BTC=1F
                      04404 
                      04405 
                      04406 
Warning[205]: Found directive in column 1. (ORG)
002E00                04407 ORG 0X2E00
002E00                04408 FONT02H_CAP_P
                      04409 
002E00 0E00           04410         MOVLW   0
002E02 6EFB           04411         MOVWF   PCLATU,0
002E04 0E2E           04412         MOVLW   2E
002E06 6EFA           04413         MOVWF   PCLATH,0
                      04414 
                      04415         
                      04416 
                      04417         
002E08 C146 FFE8      04418                         MOVFF   BTCOUNT,WREG
002E0C 90D8           04419                         BCF             STATUS,C
MPASM  5.51                 20200227_P6MM.ASM   2-27-2020  19:46:00         PAGE 88


LOC  OBJECT CODE     LINE SOURCE TEXT
  VALUE

002E0E 36E8           04420                         RLCF    WREG
                      04421 
                      04422                 
002E10 26F9           04423                         ADDWF   PCL,1,0
002E12 0CFF 0CFF 0CFF 04424                         DT      B'11111111',B'11111111',B'11111111'     ;BTC=00
002E18 0C80 0C00 0CFF 04425                         DT      B'10000000',B'00000000',B'11111111'     ;BTC=01
002E1E 0C80 0C00 0C7F 04426                         DT      B'10000000',B'00000000',B'01111111'     ;BTC=02
002E24 0C80 0C00 0C3F 04427                         DT      B'10000000',B'00000000',B'00111111'     ;BTC=03
002E2A 0C87 0CFC 0C1F 04428                         DT      B'10000111',B'11111100',B'00011111'     ;BTC=04
002E30 0C87 0CFE 0C0F 04429                         DT      B'10000111',B'11111110',B'00001111'     ;BTC=05
002E36 0C87 0CFF 0C0F 04430                         DT      B'10000111',B'11111111',B'00001111'     ;BTC=06
002E3C 0C87 0CFF 0C0F 04431                         DT      B'10000111',B'11111111',B'00001111'     ;BTC=07
002E42 0C87 0CFF 0C0F 04432                         DT      B'10000111',B'11111111',B'00001111'     ;BTC=08
002E48 0C87 0CFF 0C0F 04433                         DT      B'10000111',B'11111111',B'00001111'     ;BTC=09
002E4E 0C87 0CFF 0C0F 04434                         DT      B'10000111',B'11111111',B'00001111'     ;BTC=0A
002E54 0C87 0CFF 0C0F 04435                         DT      B'10000111',B'11111111',B'00001111'     ;BTC=0B
002E5A 0C87 0CFE 0C0F 04436                         DT      B'10000111',B'11111110',B'00001111'     ;BTC=0C
002E60 0C87 0CFC 0C1F 04437                         DT      B'10000111',B'11111100',B'00011111'     ;BTC=0D
002E66 0C80 0C00 0C3F 04438                         DT      B'10000000',B'00000000',B'00111111'     ;BTC=0E
002E6C 0C80 0C00 0C7F 04439                         DT      B'10000000',B'00000000',B'01111111'     ;BTC=0F
                      04440 
                      04441 
002E72                04442 FONT02H_LOW_P
                      04443 
002E72 0E00           04444         MOVLW   0
002E74 6EFB           04445         MOVWF   PCLATU,0
002E76 0E2E           04446         MOVLW   2E
002E78 6EFA           04447         MOVWF   PCLATH,0
                      04448 
                      04449         
                      04450 
                      04451         
002E7A C146 FFE8      04452                         MOVFF   BTCOUNT,WREG
002E7E 90D8           04453                         BCF             STATUS,C
002E80 36E8           04454                         RLCF    WREG
                      04455 
                      04456                 
002E82 26F9           04457                         ADDWF   PCL,1,0
002E84 0CFF 0CFF 0CFF 04458                         DT      B'11111111',B'11111111',B'11111111'     ;BTC=00
002E8A 0CFF 0CFF 0CFF 04459                         DT      B'11111111',B'11111111',B'11111111'     ;BTC=01
002E90 0CFF 0CFF 0CFF 04460                         DT      B'11111111',B'11111111',B'11111111'     ;BTC=02
002E96 0CFF 0CFF 0CFF 04461                         DT      B'11111111',B'11111111',B'11111111'     ;BTC=03
002E9C 0CFF 0CFF 0CFF 04462                         DT      B'11111111',B'11111111',B'11111111'     ;BTC=04
002EA2 0CFF 0CFF 0CFF 04463                         DT      B'11111111',B'11111111',B'11111111'     ;BTC=05
002EA8 0C80 0C01 0CFF 04464                         DT      B'10000000',B'00000001',B'11111111'     ;BTC=06
002EAE 0C80 0C00 0CFF 04465                         DT      B'10000000',B'00000000',B'11111111'     ;BTC=07
002EB4 0C80 0C00 0C7F 04466                         DT      B'10000000',B'00000000',B'01111111'     ;BTC=08
002EBA 0C8F 0CF8 0C7F 04467                         DT      B'10001111',B'11111000',B'01111111'     ;BTC=09
002EC0 0C8F 0CFC 0C7F 04468                         DT      B'10001111',B'11111100',B'01111111'     ;BTC=0A
002EC6 0C8F 0CFC 0C7F 04469                         DT      B'10001111',B'11111100',B'01111111'     ;BTC=0B
002ECC 0C8F 0CFC 0C7F 04470                         DT      B'10001111',B'11111100',B'01111111'     ;BTC=0C
002ED2 0C8F 0CFC 0C7F 04471                         DT      B'10001111',B'11111100',B'01111111'     ;BTC=0D
002ED8 0C8F 0CFC 0C7F 04472                         DT      B'10001111',B'11111100',B'01111111'     ;BTC=0E
MPASM  5.51                 20200227_P6MM.ASM   2-27-2020  19:46:00         PAGE 89


LOC  OBJECT CODE     LINE SOURCE TEXT
  VALUE

002EDE 0C8F 0CFC 0C7F 04473                         DT      B'10001111',B'11111100',B'01111111'     ;BTC=0F
                      04474 
                      04475 
                      04476 
Warning[205]: Found directive in column 1. (ORG)
002F00                04477 ORG 0X2F00
002F00                04478 FONT02L_CAP_P
                      04479 
002F00 0E00           04480         MOVLW   0
002F02 6EFB           04481         MOVWF   PCLATU,0
002F04 0E2F           04482         MOVLW   2F
002F06 6EFA           04483         MOVWF   PCLATH,0
                      04484 
                      04485 
                      04486 
                      04487 
002F08 C146 FFE8      04488                         MOVFF   BTCOUNT,WREG
002F0C 90D8           04489                         BCF             STATUS,C
002F0E 36E8           04490                         RLCF    WREG
                      04491 
                      04492                 
002F10 26F9           04493                         ADDWF   PCL,1,0
002F12 0C80 0C00 0CFF 04494                         DT      B'10000000',B'00000000',B'11111111'     ;BTC=10
002F18 0C87 0CFF 0CFF 04495                         DT      B'10000111',B'11111111',B'11111111'     ;BTC=11
002F1E 0C87 0CFF 0CFF 04496                         DT      B'10000111',B'11111111',B'11111111'     ;BTC=12
002F24 0C87 0CFF 0CFF 04497                         DT      B'10000111',B'11111111',B'11111111'     ;BTC=13
002F2A 0C87 0CFF 0CFF 04498                         DT      B'10000111',B'11111111',B'11111111'     ;BTC=14
002F30 0C87 0CFF 0CFF 04499                         DT      B'10000111',B'11111111',B'11111111'     ;BTC=15
002F36 0C87 0CFF 0CFF 04500                         DT      B'10000111',B'11111111',B'11111111'     ;BTC=16
002F3C 0C87 0CFF 0CFF 04501                         DT      B'10000111',B'11111111',B'11111111'     ;BTC=17
002F42 0C87 0CFF 0CFF 04502                         DT      B'10000111',B'11111111',B'11111111'     ;BTC=18
002F48 0C87 0CFF 0CFF 04503                         DT      B'10000111',B'11111111',B'11111111'     ;BTC=19
002F4E 0C87 0CFF 0CFF 04504                         DT      B'10000111',B'11111111',B'11111111'     ;BTC=1A
002F54 0C87 0CFF 0CFF 04505                         DT      B'10000111',B'11111111',B'11111111'     ;BTC=1B
002F5A 0C87 0CFF 0CFF 04506                         DT      B'10000111',B'11111111',B'11111111'     ;BTC=1C
002F60 0C87 0CFF 0CFF 04507                         DT      B'10000111',B'11111111',B'11111111'     ;BTC=1D
002F66 0C87 0CFF 0CFF 04508                         DT      B'10000111',B'11111111',B'11111111'     ;BTC=1E
002F6C 0CFF 0CFF 0CFF 04509                         DT      B'11111111',B'11111111',B'11111111'     ;BTC=1F
                      04510 
                      04511 
002F72                04512 FONT02L_LOW_P
                      04513 
002F72 0E00           04514         MOVLW   0
002F74 6EFB           04515         MOVWF   PCLATU,0
002F76 0E2F           04516         MOVLW   2F
002F78 6EFA           04517         MOVWF   PCLATH,0
                      04518 
                      04519 
                      04520 
                      04521 
002F7A C146 FFE8      04522                         MOVFF   BTCOUNT,WREG
002F7E 90D8           04523                         BCF             STATUS,C
002F80 36E8           04524                         RLCF    WREG
MPASM  5.51                 20200227_P6MM.ASM   2-27-2020  19:46:00         PAGE 90


LOC  OBJECT CODE     LINE SOURCE TEXT
  VALUE

                      04525 
                      04526                 
002F82 26F9           04527                         ADDWF   PCL,1,0
002F84 0C8F 0CFC 0C7F 04528                         DT      B'10001111',B'11111100',B'01111111'     ;BTC=10
002F8A 0C8F 0CF8 0C7F 04529                         DT      B'10001111',B'11111000',B'01111111'     ;BTC=11
002F90 0C80 0C00 0C7F 04530                         DT      B'10000000',B'00000000',B'01111111'     ;BTC=12
002F96 0C80 0C00 0CFF 04531                         DT      B'10000000',B'00000000',B'11111111'     ;BTC=13
002F9C 0C80 0C01 0CFF 04532                         DT      B'10000000',B'00000001',B'11111111'     ;BTC=14
002FA2 0C8F 0CFF 0CFF 04533                         DT      B'10001111',B'11111111',B'11111111'     ;BTC=15
002FA8 0C8F 0CFF 0CFF 04534                         DT      B'10001111',B'11111111',B'11111111'     ;BTC=16
002FAE 0C8F 0CFF 0CFF 04535                         DT      B'10001111',B'11111111',B'11111111'     ;BTC=17
002FB4 0C8F 0CFF 0CFF 04536                         DT      B'10001111',B'11111111',B'11111111'     ;BTC=18
002FBA 0C8F 0CFF 0CFF 04537                         DT      B'10001111',B'11111111',B'11111111'     ;BTC=19
002FC0 0C8F 0CFF 0CFF 04538                         DT      B'10001111',B'11111111',B'11111111'     ;BTC=1A
002FC6 0C8F 0CFF 0CFF 04539                         DT      B'10001111',B'11111111',B'11111111'     ;BTC=1B
002FCC 0C8F 0CFF 0CFF 04540                         DT      B'10001111',B'11111111',B'11111111'     ;BTC=1C
002FD2 0C8F 0CFF 0CFF 04541                         DT      B'10001111',B'11111111',B'11111111'     ;BTC=1D
002FD8 0C8F 0CFF 0CFF 04542                         DT      B'10001111',B'11111111',B'11111111'     ;BTC=1E
002FDE 0C8F 0CFF 0CFF 04543                         DT      B'10001111',B'11111111',B'11111111'     ;BTC=1F
                      04544 
                      04545 
                      04546 
Warning[205]: Found directive in column 1. (ORG)
003000                04547 ORG 0X3000
003000                04548 FONT02H_CAP_Q
                      04549 
003000 0E00           04550         MOVLW   0
003002 6EFB           04551         MOVWF   PCLATU,0
003004 0E30           04552         MOVLW   30
003006 6EFA           04553         MOVWF   PCLATH,0
                      04554 
                      04555         
                      04556 
                      04557         
003008 C146 FFE8      04558                         MOVFF   BTCOUNT,WREG
00300C 90D8           04559                         BCF             STATUS,C
00300E 36E8           04560                         RLCF    WREG
                      04561 
                      04562                 
003010 26F9           04563                         ADDWF   PCL,1,0
003012 0CFF 0CFF 0CFF 04564                         DT      B'11111111',B'11111111',B'11111111'     ;BTC=00
003018 0CFC 0C01 0CFF 04565                         DT      B'11111100',B'00000001',B'11111111'     ;BTC=01
00301E 0CF8 0C00 0CFF 04566                         DT      B'11111000',B'00000000',B'11111111'     ;BTC=02
003024 0CF0 0C00 0C7F 04567                         DT      B'11110000',B'00000000',B'01111111'     ;BTC=03
00302A 0CE0 0CF8 0C3F 04568                         DT      B'11100000',B'11111000',B'00111111'     ;BTC=04
003030 0CC1 0CFC 0C1F 04569                         DT      B'11000001',B'11111100',B'00011111'     ;BTC=05
003036 0C83 0CFE 0C0F 04570                         DT      B'10000011',B'11111110',B'00001111'     ;BTC=06
00303C 0C87 0CFF 0C0F 04571                         DT      B'10000111',B'11111111',B'00001111'     ;BTC=07
003042 0C87 0CFF 0C0F 04572                         DT      B'10000111',B'11111111',B'00001111'     ;BTC=08
003048 0C87 0CFF 0C0F 04573                         DT      B'10000111',B'11111111',B'00001111'     ;BTC=09
00304E 0C87 0CFF 0C0F 04574                         DT      B'10000111',B'11111111',B'00001111'     ;BTC=0A
003054 0C87 0CFF 0C0F 04575                         DT      B'10000111',B'11111111',B'00001111'     ;BTC=0B
00305A 0C87 0CFF 0C0F 04576                         DT      B'10000111',B'11111111',B'00001111'     ;BTC=0C
MPASM  5.51                 20200227_P6MM.ASM   2-27-2020  19:46:00         PAGE 91


LOC  OBJECT CODE     LINE SOURCE TEXT
  VALUE

003060 0C87 0CFF 0C0F 04577                         DT      B'10000111',B'11111111',B'00001111'     ;BTC=0D
003066 0C87 0CFF 0C0F 04578                         DT      B'10000111',B'11111111',B'00001111'     ;BTC=0E
00306C 0C87 0CFF 0C0F 04579                         DT      B'10000111',B'11111111',B'00001111'     ;BTC=0F
                      04580 
003072                04581 FONT02H_LOW_Q
                      04582 
003072 0E00           04583         MOVLW   0
003074 6EFB           04584         MOVWF   PCLATU,0
003076 0E30           04585         MOVLW   30
003078 6EFA           04586         MOVWF   PCLATH,0
                      04587 
                      04588         
                      04589 
                      04590         
00307A C146 FFE8      04591                         MOVFF   BTCOUNT,WREG
00307E 90D8           04592                         BCF             STATUS,C
003080 36E8           04593                         RLCF    WREG
                      04594 
                      04595                 
003082 26F9           04596                         ADDWF   PCL,1,0
003084 0CFF 0CFF 0CFF 04597                         DT      B'11111111',B'11111111',B'11111111'     ;BTC=00
00308A 0CFF 0CFF 0CFF 04598                         DT      B'11111111',B'11111111',B'11111111'     ;BTC=01
003090 0CFF 0CFF 0CFF 04599                         DT      B'11111111',B'11111111',B'11111111'     ;BTC=02
003096 0CFF 0CFF 0CFF 04600                         DT      B'11111111',B'11111111',B'11111111'     ;BTC=03
00309C 0CFF 0CFF 0CFF 04601                         DT      B'11111111',B'11111111',B'11111111'     ;BTC=04
0030A2 0CFF 0CFF 0CFF 04602                         DT      B'11111111',B'11111111',B'11111111'     ;BTC=05
0030A8 0CE0 0C00 0C7F 04603                         DT      B'11100000',B'00000000',B'01111111'     ;BTC=06
0030AE 0CC0 0C00 0C7F 04604                         DT      B'11000000',B'00000000',B'01111111'     ;BTC=07
0030B4 0C80 0C00 0C7F 04605                         DT      B'10000000',B'00000000',B'01111111'     ;BTC=08
0030BA 0C87 0CFC 0C7F 04606                         DT      B'10000111',B'11111100',B'01111111'     ;BTC=09
0030C0 0C8F 0CFC 0C7F 04607                         DT      B'10001111',B'11111100',B'01111111'     ;BTC=0A
0030C6 0C8F 0CFC 0C7F 04608                         DT      B'10001111',B'11111100',B'01111111'     ;BTC=0B
0030CC 0C8F 0CFC 0C7F 04609                         DT      B'10001111',B'11111100',B'01111111'     ;BTC=0C
0030D2 0C8F 0CFC 0C7F 04610                         DT      B'10001111',B'11111100',B'01111111'     ;BTC=0D
0030D8 0C8F 0CFC 0C7F 04611                         DT      B'10001111',B'11111100',B'01111111'     ;BTC=0E
0030DE 0C8F 0CFC 0C7F 04612                         DT      B'10001111',B'11111100',B'01111111'     ;BTC=0F
                      04613 
                      04614 
                      04615 
Warning[205]: Found directive in column 1. (ORG)
003100                04616 ORG 0X3100
003100                04617 FONT02L_CAP_Q
                      04618 
003100 0E00           04619         MOVLW   0
003102 6EFB           04620         MOVWF   PCLATU,0
003104 0E31           04621         MOVLW   31
003106 6EFA           04622         MOVWF   PCLATH,0
                      04623 
                      04624 
                      04625 
                      04626 
003108 C146 FFE8      04627                         MOVFF   BTCOUNT,WREG
00310C 90D8           04628                         BCF             STATUS,C
MPASM  5.51                 20200227_P6MM.ASM   2-27-2020  19:46:00         PAGE 92


LOC  OBJECT CODE     LINE SOURCE TEXT
  VALUE

00310E 36E8           04629                         RLCF    WREG
                      04630 
                      04631                 
003110 26F9           04632                         ADDWF   PCL,1,0
003112 0C87 0CFF 0C0F 04633                         DT      B'10000111',B'11111111',B'00001111'     ;BTC=10
003118 0C87 0CFF 0C0F 04634                         DT      B'10000111',B'11111111',B'00001111'     ;BTC=11
00311E 0C87 0CFF 0C0F 04635                         DT      B'10000111',B'11111111',B'00001111'     ;BTC=12
003124 0C87 0CFF 0C0F 04636                         DT      B'10000111',B'11111111',B'00001111'     ;BTC=13
00312A 0C87 0CFF 0C0F 04637                         DT      B'10000111',B'11111111',B'00001111'     ;BTC=14
003130 0C87 0CFF 0C0F 04638                         DT      B'10000111',B'11111111',B'00001111'     ;BTC=15
003136 0C87 0CFF 0C0F 04639                         DT      B'10000111',B'11111111',B'00001111'     ;BTC=16
00313C 0C87 0CFF 0C0F 04640                         DT      B'10000111',B'11111111',B'00001111'     ;BTC=17
003142 0C87 0CF9 0C0F 04641                         DT      B'10000111',B'11111001',B'00001111'     ;BTC=18
003148 0C83 0CF0 0C0F 04642                         DT      B'10000011',B'11110000',B'00001111'     ;BTC=19
00314E 0CC1 0CF0 0C1F 04643                         DT      B'11000001',B'11110000',B'00011111'     ;BTC=1A
003154 0CE0 0CF8 0C3F 04644                         DT      B'11100000',B'11111000',B'00111111'     ;BTC=1B
00315A 0CF0 0C00 0C1F 04645                         DT      B'11110000',B'00000000',B'00011111'     ;BTC=1C
003160 0CF8 0C00 0C1F 04646                         DT      B'11111000',B'00000000',B'00011111'     ;BTC=1D
003166 0CFC 0C01 0C3F 04647                         DT      B'11111100',B'00000001',B'00111111'     ;BTC=1E
00316C 0CFF 0CFF 0CFF 04648                         DT      B'11111111',B'11111111',B'11111111'     ;BTC=1F
                      04649 
003172                04650 FONT02L_LOW_Q
                      04651 
003172 0E00           04652         MOVLW   0
003174 6EFB           04653         MOVWF   PCLATU,0
003176 0E31           04654         MOVLW   31
003178 6EFA           04655         MOVWF   PCLATH,0
                      04656 
                      04657 
                      04658 
                      04659 
00317A C146 FFE8      04660                         MOVFF   BTCOUNT,WREG
00317E 90D8           04661                         BCF             STATUS,C
003180 36E8           04662                         RLCF    WREG
                      04663 
                      04664                 
003182 26F9           04665                         ADDWF   PCL,1,0
003184 0C8F 0CFC 0C7F 04666                         DT      B'10001111',B'11111100',B'01111111'     ;BTC=10
00318A 0C87 0CFC 0C7F 04667                         DT      B'10000111',B'11111100',B'01111111'     ;BTC=11
003190 0C80 0C00 0C7F 04668                         DT      B'10000000',B'00000000',B'01111111'     ;BTC=12
003196 0CC0 0C00 0C7F 04669                         DT      B'11000000',B'00000000',B'01111111'     ;BTC=13
00319C 0CE0 0C00 0C7F 04670                         DT      B'11100000',B'00000000',B'01111111'     ;BTC=14
0031A2 0CFF 0CFC 0C7F 04671                         DT      B'11111111',B'11111100',B'01111111'     ;BTC=15
0031A8 0CFF 0CFC 0C7F 04672                         DT      B'11111111',B'11111100',B'01111111'     ;BTC=16
0031AE 0CFF 0CFC 0C7F 04673                         DT      B'11111111',B'11111100',B'01111111'     ;BTC=17
0031B4 0CFF 0CFC 0C7F 04674                         DT      B'11111111',B'11111100',B'01111111'     ;BTC=18
0031BA 0CFF 0CFC 0C7F 04675                         DT      B'11111111',B'11111100',B'01111111'     ;BTC=19
0031C0 0CFF 0CFC 0C7F 04676                         DT      B'11111111',B'11111100',B'01111111'     ;BTC=1A
0031C6 0CFF 0CFC 0C7F 04677                         DT      B'11111111',B'11111100',B'01111111'     ;BTC=1B
0031CC 0CFF 0CFC 0C7F 04678                         DT      B'11111111',B'11111100',B'01111111'     ;BTC=1C
0031D2 0CFF 0CFC 0C3F 04679                         DT      B'11111111',B'11111100',B'00111111'     ;BTC=1D
0031D8 0CFF 0CFC 0C3F 04680                         DT      B'11111111',B'11111100',B'00111111'     ;BTC=1E
0031DE 0CFF 0CFC 0C3F 04681                         DT      B'11111111',B'11111100',B'00111111'     ;BTC=1F
MPASM  5.51                 20200227_P6MM.ASM   2-27-2020  19:46:00         PAGE 93


LOC  OBJECT CODE     LINE SOURCE TEXT
  VALUE

                      04682 
                      04683 
                      04684 
Warning[205]: Found directive in column 1. (ORG)
003200                04685 ORG 0X3200
003200                04686 FONT02H_CAP_R
                      04687 
003200 0E00           04688         MOVLW   0
003202 6EFB           04689         MOVWF   PCLATU,0
003204 0E32           04690         MOVLW   32
003206 6EFA           04691         MOVWF   PCLATH,0
                      04692 
                      04693         
                      04694 
                      04695         
003208 C146 FFE8      04696                         MOVFF   BTCOUNT,WREG
00320C 90D8           04697                         BCF             STATUS,C
00320E 36E8           04698                         RLCF    WREG
                      04699 
                      04700                 
003210 26F9           04701                         ADDWF   PCL,1,0
003212 0CFF 0CFF 0CFF 04702                         DT      B'11111111',B'11111111',B'11111111'     ;BTC=00
003218 0C80 0C00 0CFF 04703                         DT      B'10000000',B'00000000',B'11111111'     ;BTC=01
00321E 0C80 0C00 0C7F 04704                         DT      B'10000000',B'00000000',B'01111111'     ;BTC=02
003224 0C80 0C00 0C3F 04705                         DT      B'10000000',B'00000000',B'00111111'     ;BTC=03
00322A 0C87 0CFC 0C1F 04706                         DT      B'10000111',B'11111100',B'00011111'     ;BTC=04
003230 0C87 0CFE 0C0F 04707                         DT      B'10000111',B'11111110',B'00001111'     ;BTC=05
003236 0C87 0CFF 0C0F 04708                         DT      B'10000111',B'11111111',B'00001111'     ;BTC=06
00323C 0C87 0CFF 0C0F 04709                         DT      B'10000111',B'11111111',B'00001111'     ;BTC=07
003242 0C87 0CFF 0C0F 04710                         DT      B'10000111',B'11111111',B'00001111'     ;BTC=08
003248 0C87 0CFF 0C0F 04711                         DT      B'10000111',B'11111111',B'00001111'     ;BTC=09
00324E 0C87 0CFF 0C0F 04712                         DT      B'10000111',B'11111111',B'00001111'     ;BTC=0A
003254 0C87 0CFF 0C0F 04713                         DT      B'10000111',B'11111111',B'00001111'     ;BTC=0B
00325A 0C87 0CFE 0C0F 04714                         DT      B'10000111',B'11111110',B'00001111'     ;BTC=0C
003260 0C87 0CFC 0C1F 04715                         DT      B'10000111',B'11111100',B'00011111'     ;BTC=0D
003266 0C80 0C00 0C3F 04716                         DT      B'10000000',B'00000000',B'00111111'     ;BTC=0E
00326C 0C80 0C00 0C7F 04717                         DT      B'10000000',B'00000000',B'01111111'     ;BTC=0F
                      04718 
003272                04719 FONT02H_LOW_R
                      04720 
003272 0E00           04721         MOVLW   0
003274 6EFB           04722         MOVWF   PCLATU,0
003276 0E32           04723         MOVLW   32
003278 6EFA           04724         MOVWF   PCLATH,0
                      04725 
                      04726         
                      04727 
                      04728         
00327A C146 FFE8      04729                         MOVFF   BTCOUNT,WREG
00327E 90D8           04730                         BCF             STATUS,C
003280 36E8           04731                         RLCF    WREG
                      04732 
                      04733                 
MPASM  5.51                 20200227_P6MM.ASM   2-27-2020  19:46:00         PAGE 94


LOC  OBJECT CODE     LINE SOURCE TEXT
  VALUE

003282 26F9           04734                         ADDWF   PCL,1,0
003284 0CFF 0CFF 0CFF 04735                         DT      B'11111111',B'11111111',B'11111111'     ;BTC=00
00328A 0CFF 0CFF 0CFF 04736                         DT      B'11111111',B'11111111',B'11111111'     ;BTC=01
003290 0CFF 0CFF 0CFF 04737                         DT      B'11111111',B'11111111',B'11111111'     ;BTC=02
003296 0CFF 0CFF 0CFF 04738                         DT      B'11111111',B'11111111',B'11111111'     ;BTC=03
00329C 0CFF 0CFF 0CFF 04739                         DT      B'11111111',B'11111111',B'11111111'     ;BTC=04
0032A2 0CFF 0CFF 0CFF 04740                         DT      B'11111111',B'11111111',B'11111111'     ;BTC=05
0032A8 0CFF 0CFF 0CFF 04741                         DT      B'11111111',B'11111111',B'11111111'     ;BTC=06
0032AE 0CFF 0CFF 0CFF 04742                         DT      B'11111111',B'11111111',B'11111111'     ;BTC=07
0032B4 0CFF 0CFF 0CFF 04743                         DT      B'11111111',B'11111111',B'11111111'     ;BTC=08
0032BA 0CFF 0CFF 0CFF 04744                         DT      B'11111111',B'11111111',B'11111111'     ;BTC=09
0032C0 0CFF 0CFF 0CFF 04745                         DT      B'11111111',B'11111111',B'11111111'     ;BTC=0A
0032C6 0CFF 0CFF 0CFF 04746                         DT      B'11111111',B'11111111',B'11111111'     ;BTC=0B
0032CC 0CFF 0CFF 0CFF 04747                         DT      B'11111111',B'11111111',B'11111111'     ;BTC=0C
0032D2 0CFF 0CFF 0CFF 04748                         DT      B'11111111',B'11111111',B'11111111'     ;BTC=0D
0032D8 0C88 0C1F 0CFF 04749                         DT      B'10001000',B'00011111',B'11111111'     ;BTC=0E
0032DE 0C80 0C0F 0CFF 04750                         DT      B'10000000',B'00001111',B'11111111'     ;BTC=0F
                      04751 
                      04752 
Warning[205]: Found directive in column 1. (ORG)
003300                04753 ORG 0X3300
003300                04754 FONT02L_CAP_R
                      04755 
003300 0E00           04756         MOVLW   0
003302 6EFB           04757         MOVWF   PCLATU,0
003304 0E33           04758         MOVLW   33
003306 6EFA           04759         MOVWF   PCLATH,0
                      04760 
                      04761 
                      04762 
                      04763 
003308 C146 FFE8      04764                         MOVFF   BTCOUNT,WREG
00330C 90D8           04765                         BCF             STATUS,C
00330E 36E8           04766                         RLCF    WREG
                      04767 
                      04768                 
003310 26F9           04769                         ADDWF   PCL,1,0
003312 0C80 0C00 0CFF 04770                         DT      B'10000000',B'00000000',B'11111111'     ;BTC=10
003318 0C87 0CC3 0CFF 04771                         DT      B'10000111',B'11000011',B'11111111'     ;BTC=11
00331E 0C87 0CC3 0CFF 04772                         DT      B'10000111',B'11000011',B'11111111'     ;BTC=12
003324 0C87 0CE1 0CFF 04773                         DT      B'10000111',B'11100001',B'11111111'     ;BTC=13
00332A 0C87 0CE1 0CFF 04774                         DT      B'10000111',B'11100001',B'11111111'     ;BTC=14
003330 0C87 0CF0 0CFF 04775                         DT      B'10000111',B'11110000',B'11111111'     ;BTC=15
003336 0C87 0CF0 0CFF 04776                         DT      B'10000111',B'11110000',B'11111111'     ;BTC=16
00333C 0C87 0CF8 0C7F 04777                         DT      B'10000111',B'11111000',B'01111111'     ;BTC=17
003342 0C87 0CF8 0C7F 04778                         DT      B'10000111',B'11111000',B'01111111'     ;BTC=18
003348 0C87 0CFC 0C3F 04779                         DT      B'10000111',B'11111100',B'00111111'     ;BTC=19
00334E 0C87 0CFC 0C3F 04780                         DT      B'10000111',B'11111100',B'00111111'     ;BTC=1A
003354 0C87 0CFE 0C1F 04781                         DT      B'10000111',B'11111110',B'00011111'     ;BTC=1B
00335A 0C87 0CFE 0C1F 04782                         DT      B'10000111',B'11111110',B'00011111'     ;BTC=1C
003360 0C87 0CFF 0C0F 04783                         DT      B'10000111',B'11111111',B'00001111'     ;BTC=1D
003366 0C87 0CFF 0C0F 04784                         DT      B'10000111',B'11111111',B'00001111'     ;BTC=1E
00336C 0CFF 0CFF 0CFF 04785                         DT      B'11111111',B'11111111',B'11111111'     ;BTC=1F
MPASM  5.51                 20200227_P6MM.ASM   2-27-2020  19:46:00         PAGE 95


LOC  OBJECT CODE     LINE SOURCE TEXT
  VALUE

                      04786 
003372                04787 FONT02L_LOW_R
                      04788 
003372 0E00           04789         MOVLW   0
003374 6EFB           04790         MOVWF   PCLATU,0
003376 0E33           04791         MOVLW   33
003378 6EFA           04792         MOVWF   PCLATH,0
                      04793 
                      04794 
                      04795 
                      04796 
00337A C146 FFE8      04797                         MOVFF   BTCOUNT,WREG
00337E 90D8           04798                         BCF             STATUS,C
003380 36E8           04799                         RLCF    WREG
                      04800 
                      04801                 
003382 26F9           04802                         ADDWF   PCL,1,0
003384 0C80 0C07 0CFF 04803                         DT      B'10000000',B'00000111',B'11111111'     ;BTC=10
00338A 0C87 0CC7 0CFF 04804                         DT      B'10000111',B'11000111',B'11111111'     ;BTC=11
003390 0C8F 0CFF 0CFF 04805                         DT      B'10001111',B'11111111',B'11111111'     ;BTC=12
003396 0C8F 0CFF 0CFF 04806                         DT      B'10001111',B'11111111',B'11111111'     ;BTC=13
00339C 0C8F 0CFF 0CFF 04807                         DT      B'10001111',B'11111111',B'11111111'     ;BTC=14
0033A2 0C8F 0CFF 0CFF 04808                         DT      B'10001111',B'11111111',B'11111111'     ;BTC=15
0033A8 0C8F 0CFF 0CFF 04809                         DT      B'10001111',B'11111111',B'11111111'     ;BTC=16
0033AE 0C8F 0CFF 0CFF 04810                         DT      B'10001111',B'11111111',B'11111111'     ;BTC=17
0033B4 0C8F 0CFF 0CFF 04811                         DT      B'10001111',B'11111111',B'11111111'     ;BTC=18
0033BA 0C8F 0CFF 0CFF 04812                         DT      B'10001111',B'11111111',B'11111111'     ;BTC=19
0033C0 0C8F 0CFF 0CFF 04813                         DT      B'10001111',B'11111111',B'11111111'     ;BTC=1A
0033C6 0C8F 0CFF 0CFF 04814                         DT      B'10001111',B'11111111',B'11111111'     ;BTC=1B
0033CC 0C8F 0CFF 0CFF 04815                         DT      B'10001111',B'11111111',B'11111111'     ;BTC=1C
0033D2 0C8F 0CFF 0CFF 04816                         DT      B'10001111',B'11111111',B'11111111'     ;BTC=1D
0033D8 0C8F 0CFF 0CFF 04817                         DT      B'10001111',B'11111111',B'11111111'     ;BTC=1E
0033DE 0CFF 0CFF 0CFF 04818                         DT      B'11111111',B'11111111',B'11111111'     ;BTC=1F
                      04819 
                      04820 
Warning[205]: Found directive in column 1. (ORG)
003400                04821 ORG 0X3400
003400                04822 FONT02H_CAP_S
                      04823 
003400 0E00           04824         MOVLW   0
003402 6EFB           04825         MOVWF   PCLATU,0
003404 0E34           04826         MOVLW   34
003406 6EFA           04827         MOVWF   PCLATH,0
                      04828 
                      04829         
                      04830 
                      04831         
003408 C146 FFE8      04832                         MOVFF   BTCOUNT,WREG
00340C 90D8           04833                         BCF             STATUS,C
00340E 36E8           04834                         RLCF    WREG
                      04835 
                      04836                 
003410 26F9           04837                         ADDWF   PCL,1,0
MPASM  5.51                 20200227_P6MM.ASM   2-27-2020  19:46:00         PAGE 96


LOC  OBJECT CODE     LINE SOURCE TEXT
  VALUE

003412 0CFF 0CFF 0CFF 04838                         DT      B'11111111',B'11111111',B'11111111'     ;BTC=00
003418 0CF8 0C00 0C0F 04839                         DT      B'11111000',B'00000000',B'00001111'     ;BTC=01
00341E 0CF0 0C00 0C0F 04840                         DT      B'11110000',B'00000000',B'00001111'     ;BTC=02
003424 0CE0 0C00 0C0F 04841                         DT      B'11100000',B'00000000',B'00001111'     ;BTC=03
00342A 0CC0 0C00 0C0F 04842                         DT      B'11000000',B'00000000',B'00001111'     ;BTC=04
003430 0C81 0CFF 0CFF 04843                         DT      B'10000001',B'11111111',B'11111111'     ;BTC=05
003436 0C83 0CFF 0CFF 04844                         DT      B'10000011',B'11111111',B'11111111'     ;BTC=06
00343C 0C87 0CFF 0CFF 04845                         DT      B'10000111',B'11111111',B'11111111'     ;BTC=07
003442 0C87 0CFF 0CFF 04846                         DT      B'10000111',B'11111111',B'11111111'     ;BTC=08
003448 0C87 0CFF 0CFF 04847                         DT      B'10000111',B'11111111',B'11111111'     ;BTC=09
00344E 0C87 0CFF 0CFF 04848                         DT      B'10000111',B'11111111',B'11111111'     ;BTC=0A
003454 0C87 0CFF 0CFF 04849                         DT      B'10000111',B'11111111',B'11111111'     ;BTC=0B
00345A 0C83 0CFF 0CFF 04850                         DT      B'10000011',B'11111111',B'11111111'     ;BTC=0C
003460 0C81 0CFF 0CFF 04851                         DT      B'10000001',B'11111111',B'11111111'     ;BTC=0D
003466 0CC0 0C00 0CFF 04852                         DT      B'11000000',B'00000000',B'11111111'     ;BTC=0E
00346C 0CE0 0C00 0C7F 04853                         DT      B'11100000',B'00000000',B'01111111'     ;BTC=0F
                      04854 
                      04855 
003472                04856 FONT02H_LOW_S
                      04857 
003472 0E00           04858         MOVLW   0
003474 6EFB           04859         MOVWF   PCLATU,0
003476 0E34           04860         MOVLW   34
003478 6EFA           04861         MOVWF   PCLATH,0
                      04862 
                      04863         
                      04864 
                      04865         
00347A C146 FFE8      04866                         MOVFF   BTCOUNT,WREG
00347E 90D8           04867                         BCF             STATUS,C
003480 36E8           04868                         RLCF    WREG
                      04869 
                      04870                 
003482 26F9           04871                         ADDWF   PCL,1,0
003484 0CFF 0CFF 0CFF 04872                         DT      B'11111111',B'11111111',B'11111111'     ;BTC=00
00348A 0CFF 0CFF 0CFF 04873                         DT      B'11111111',B'11111111',B'11111111'     ;BTC=01
003490 0CFF 0CFF 0CFF 04874                         DT      B'11111111',B'11111111',B'11111111'     ;BTC=02
003496 0CFF 0CFF 0CFF 04875                         DT      B'11111111',B'11111111',B'11111111'     ;BTC=03
00349C 0CFF 0CFF 0CFF 04876                         DT      B'11111111',B'11111111',B'11111111'     ;BTC=04
0034A2 0CFF 0CFF 0CFF 04877                         DT      B'11111111',B'11111111',B'11111111'     ;BTC=05
0034A8 0CFF 0CFF 0CFF 04878                         DT      B'11111111',B'11111111',B'11111111'     ;BTC=06
0034AE 0CFF 0CFF 0CFF 04879                         DT      B'11111111',B'11111111',B'11111111'     ;BTC=07
0034B4 0CFF 0CFF 0CFF 04880                         DT      B'11111111',B'11111111',B'11111111'     ;BTC=08
0034BA 0CFF 0CFF 0CFF 04881                         DT      B'11111111',B'11111111',B'11111111'     ;BTC=09
0034C0 0CFF 0CFF 0CFF 04882                         DT      B'11111111',B'11111111',B'11111111'     ;BTC=0A
0034C6 0CFF 0CFF 0CFF 04883                         DT      B'11111111',B'11111111',B'11111111'     ;BTC=0B
0034CC 0CFF 0CFF 0CFF 04884                         DT      B'11111111',B'11111111',B'11111111'     ;BTC=0C
0034D2 0CFF 0CFF 0CFF 04885                         DT      B'11111111',B'11111111',B'11111111'     ;BTC=0D
0034D8 0CF0 0C1F 0CFF 04886                         DT      B'11110000',B'00011111',B'11111111'     ;BTC=0E
0034DE 0CE0 0C0F 0CFF 04887                         DT      B'11100000',B'00001111',B'11111111'     ;BTC=0F
                      04888 
                      04889 
Warning[205]: Found directive in column 1. (ORG)
MPASM  5.51                 20200227_P6MM.ASM   2-27-2020  19:46:00         PAGE 97


LOC  OBJECT CODE     LINE SOURCE TEXT
  VALUE

003500                04890 ORG 0X3500
003500                04891 FONT02L_LOW_S
                      04892 
003500 0E00           04893         MOVLW   0
003502 6EFB           04894         MOVWF   PCLATU,0
003504 0E35           04895         MOVLW   35
003506 6EFA           04896         MOVWF   PCLATH,0
                      04897 
                      04898 
                      04899 
                      04900 
003508 C146 FFE8      04901                         MOVFF   BTCOUNT,WREG
00350C 90D8           04902                         BCF             STATUS,C
00350E 36E8           04903                         RLCF    WREG
                      04904 
                      04905                 
003510 26F9           04906                         ADDWF   PCL,1,0
003512 0CC0 0C07 0CFF 04907                         DT      B'11000000',B'00000111',B'11111111'     ;BTC=10
003518 0C87 0CC7 0CFF 04908                         DT      B'10000111',B'11000111',B'11111111'     ;BTC=11
00351E 0C8F 0CFF 0CFF 04909                         DT      B'10001111',B'11111111',B'11111111'     ;BTC=12
003524 0C8F 0CFF 0CFF 04910                         DT      B'10001111',B'11111111',B'11111111'     ;BTC=13
00352A 0C87 0CFF 0CFF 04911                         DT      B'10000111',B'11111111',B'11111111'     ;BTC=14
003530 0C80 0C1F 0CFF 04912                         DT      B'10000000',B'00011111',B'11111111'     ;BTC=15
003536 0CC0 0C0F 0CFF 04913                         DT      B'11000000',B'00001111',B'11111111'     ;BTC=16
00353C 0CE0 0C07 0CFF 04914                         DT      B'11100000',B'00000111',B'11111111'     ;BTC=17
003542 0CFF 0C87 0CFF 04915                         DT      B'11111111',B'10000111',B'11111111'     ;BTC=18
003548 0CFF 0CC7 0CFF 04916                         DT      B'11111111',B'11000111',B'11111111'     ;BTC=19
00354E 0CFF 0CC7 0CFF 04917                         DT      B'11111111',B'11000111',B'11111111'     ;BTC=1A
003554 0C8F 0C87 0CFF 04918                         DT      B'10001111',B'10000111',B'11111111'     ;BTC=1B
00355A 0C80 0C0F 0CFF 04919                         DT      B'10000000',B'00001111',B'11111111'     ;BTC=1C
003560 0CC0 0C1F 0CFF 04920                         DT      B'11000000',B'00011111',B'11111111'     ;BTC=1D
003566 0CE0 0C3F 0CFF 04921                         DT      B'11100000',B'00111111',B'11111111'     ;BTC=1E
00356C 0CFF 0CFF 0CFF 04922                         DT      B'11111111',B'11111111',B'11111111'     ;BTC=1F
                      04923 
003572                04924 FONT02L_CAP_S
                      04925 
003572 0E00           04926         MOVLW   0
003574 6EFB           04927         MOVWF   PCLATU,0
003576 0E35           04928         MOVLW   35
003578 6EFA           04929         MOVWF   PCLATH,0
                      04930 
                      04931 
                      04932 
                      04933 
00357A C146 FFE8      04934                         MOVFF   BTCOUNT,WREG
00357E 90D8           04935                         BCF             STATUS,C
003580 36E8           04936                         RLCF    WREG
                      04937 
                      04938                 
003582 26F9           04939                         ADDWF   PCL,1,0
003584 0CF0 0C00 0C3F 04940                         DT      B'11110000',B'00000000',B'00111111'     ;BTC=10
00358A 0CF8 0C00 0C1F 04941                         DT      B'11111000',B'00000000',B'00011111'     ;BTC=11
003590 0CFF 0CFC 0C0F 04942                         DT      B'11111111',B'11111100',B'00001111'     ;BTC=12
MPASM  5.51                 20200227_P6MM.ASM   2-27-2020  19:46:00         PAGE 98


LOC  OBJECT CODE     LINE SOURCE TEXT
  VALUE

003596 0CFF 0CFE 0C0F 04943                         DT      B'11111111',B'11111110',B'00001111'     ;BTC=13
00359C 0CFF 0CFF 0C0F 04944                         DT      B'11111111',B'11111111',B'00001111'     ;BTC=14
0035A2 0CFF 0CFF 0C0F 04945                         DT      B'11111111',B'11111111',B'00001111'     ;BTC=15
0035A8 0CFF 0CFF 0C0F 04946                         DT      B'11111111',B'11111111',B'00001111'     ;BTC=16
0035AE 0CFF 0CFF 0C0F 04947                         DT      B'11111111',B'11111111',B'00001111'     ;BTC=17
0035B4 0CFF 0CFF 0C0F 04948                         DT      B'11111111',B'11111111',B'00001111'     ;BTC=18
0035BA 0CFF 0CFE 0C0F 04949                         DT      B'11111111',B'11111110',B'00001111'     ;BTC=19
0035C0 0CFF 0CFC 0C0F 04950                         DT      B'11111111',B'11111100',B'00001111'     ;BTC=1A
0035C6 0C80 0C00 0C1F 04951                         DT      B'10000000',B'00000000',B'00011111'     ;BTC=1B
0035CC 0C80 0C00 0C3F 04952                         DT      B'10000000',B'00000000',B'00111111'     ;BTC=1C
0035D2 0C80 0C00 0C7F 04953                         DT      B'10000000',B'00000000',B'01111111'     ;BTC=1D
0035D8 0C80 0C00 0CFF 04954                         DT      B'10000000',B'00000000',B'11111111'     ;BTC=1E
0035DE 0CFF 0CFF 0CFF 04955                         DT      B'11111111',B'11111111',B'11111111'     ;BTC=1F
                      04956 
                      04957 
                      04958 
                      04959 
Warning[205]: Found directive in column 1. (ORG)
003600                04960 ORG 0X3600
003600                04961 FONT02H_CAP_T
                      04962 
003600 0E00           04963         MOVLW   0
003602 6EFB           04964         MOVWF   PCLATU,0
003604 0E36           04965         MOVLW   36
003606 6EFA           04966         MOVWF   PCLATH,0
                      04967 
                      04968         
                      04969 
                      04970         
003608 C146 FFE8      04971                         MOVFF   BTCOUNT,WREG
00360C 90D8           04972                         BCF             STATUS,C
00360E 36E8           04973                         RLCF    WREG
                      04974 
                      04975                 
003610 26F9           04976                         ADDWF   PCL,1,0
003612 0CFF 0CFF 0CFF 04977                         DT      B'11111111',B'11111111',B'11111111'     ;BTC=00
003618 0C80 0C00 0C1F 04978                         DT      B'10000000',B'00000000',B'00011111'     ;BTC=01
00361E 0C80 0C00 0C1F 04979                         DT      B'10000000',B'00000000',B'00011111'     ;BTC=02
003624 0C80 0C00 0C1F 04980                         DT      B'10000000',B'00000000',B'00011111'     ;BTC=03
00362A 0C80 0C00 0C1F 04981                         DT      B'10000000',B'00000000',B'00011111'     ;BTC=04
003630 0CFF 0C0F 0CFF 04982                         DT      B'11111111',B'00001111',B'11111111'     ;BTC=05
003636 0CFF 0C0F 0CFF 04983                         DT      B'11111111',B'00001111',B'11111111'     ;BTC=06
00363C 0CFF 0C0F 0CFF 04984                         DT      B'11111111',B'00001111',B'11111111'     ;BTC=07
003642 0CFF 0C0F 0CFF 04985                         DT      B'11111111',B'00001111',B'11111111'     ;BTC=08
003648 0CFF 0C0F 0CFF 04986                         DT      B'11111111',B'00001111',B'11111111'     ;BTC=09
00364E 0CFF 0C0F 0CFF 04987                         DT      B'11111111',B'00001111',B'11111111'     ;BTC=0A
003654 0CFF 0C0F 0CFF 04988                         DT      B'11111111',B'00001111',B'11111111'     ;BTC=0B
00365A 0CFF 0C0F 0CFF 04989                         DT      B'11111111',B'00001111',B'11111111'     ;BTC=0C
003660 0CFF 0C0F 0CFF 04990                         DT      B'11111111',B'00001111',B'11111111'     ;BTC=0D
003666 0CFF 0C0F 0CFF 04991                         DT      B'11111111',B'00001111',B'11111111'     ;BTC=0E
00366C 0CFF 0C0F 0CFF 04992                         DT      B'11111111',B'00001111',B'11111111'     ;BTC=0F
                      04993 
003672                04994 FONT02H_LOW_T
MPASM  5.51                 20200227_P6MM.ASM   2-27-2020  19:46:00         PAGE 99


LOC  OBJECT CODE     LINE SOURCE TEXT
  VALUE

                      04995 
003672 0E00           04996         MOVLW   0
003674 6EFB           04997         MOVWF   PCLATU,0
003676 0E36           04998         MOVLW   36
003678 6EFA           04999         MOVWF   PCLATH,0
                      05000 
                      05001         
                      05002 
                      05003         
00367A C146 FFE8      05004                         MOVFF   BTCOUNT,WREG
00367E 90D8           05005                         BCF             STATUS,C
003680 36E8           05006                         RLCF    WREG
                      05007 
                      05008                 
003682 26F9           05009                         ADDWF   PCL,1,0
003684 0CFF 0CFF 0CFF 05010                         DT      B'11111111',B'11111111',B'11111111'     ;BTC=00
00368A 0CF8 0CFF 0CFF 05011                         DT      B'11111000',B'11111111',B'11111111'     ;BTC=01
003690 0CF8 0CFF 0CFF 05012                         DT      B'11111000',B'11111111',B'11111111'     ;BTC=02
003696 0CF8 0CFF 0CFF 05013                         DT      B'11111000',B'11111111',B'11111111'     ;BTC=03
00369C 0CF8 0CFF 0CFF 05014                         DT      B'11111000',B'11111111',B'11111111'     ;BTC=04
0036A2 0CF8 0CFF 0CFF 05015                         DT      B'11111000',B'11111111',B'11111111'     ;BTC=05
0036A8 0CF8 0CFF 0CFF 05016                         DT      B'11111000',B'11111111',B'11111111'     ;BTC=06
0036AE 0CF8 0CFF 0CFF 05017                         DT      B'11111000',B'11111111',B'11111111'     ;BTC=07
0036B4 0CF8 0CFF 0CFF 05018                         DT      B'11111000',B'11111111',B'11111111'     ;BTC=08
0036BA 0CF8 0CFF 0CFF 05019                         DT      B'11111000',B'11111111',B'11111111'     ;BTC=09
0036C0 0CF8 0CFF 0CFF 05020                         DT      B'11111000',B'11111111',B'11111111'     ;BTC=0A
0036C6 0CF8 0CFF 0CFF 05021                         DT      B'11111000',B'11111111',B'11111111'     ;BTC=0B
0036CC 0CF8 0CFF 0CFF 05022                         DT      B'11111000',B'11111111',B'11111111'     ;BTC=0C
0036D2 0CF8 0CFF 0CFF 05023                         DT      B'11111000',B'11111111',B'11111111'     ;BTC=0D
0036D8 0C80 0C0F 0CFF 05024                         DT      B'10000000',B'00001111',B'11111111'     ;BTC=0E
0036DE 0C80 0C0F 0CFF 05025                         DT      B'10000000',B'00001111',B'11111111'     ;BTC=0F
                      05026 
                      05027 
Warning[205]: Found directive in column 1. (ORG)
003700                05028 ORG 0X3700
003700                05029 FONT02L_CAP_T
                      05030 
003700 0E00           05031         MOVLW   0
003702 6EFB           05032         MOVWF   PCLATU,0
003704 0E37           05033         MOVLW   37
003706 6EFA           05034         MOVWF   PCLATH,0
                      05035 
                      05036 
                      05037 
                      05038 
003708 C146 FFE8      05039                         MOVFF   BTCOUNT,WREG
00370C 90D8           05040                         BCF             STATUS,C
00370E 36E8           05041                         RLCF    WREG
                      05042 
                      05043                 
003710 26F9           05044                         ADDWF   PCL,1,0
003712 0CFF 0C0F 0CFF 05045                         DT      B'11111111',B'00001111',B'11111111'     ;BTC=10
003718 0CFF 0C0F 0CFF 05046                         DT      B'11111111',B'00001111',B'11111111'     ;BTC=11
MPASM  5.51                 20200227_P6MM.ASM   2-27-2020  19:46:00         PAGE 100


LOC  OBJECT CODE     LINE SOURCE TEXT
  VALUE

00371E 0CFF 0C0F 0CFF 05047                         DT      B'11111111',B'00001111',B'11111111'     ;BTC=12
003724 0CFF 0C0F 0CFF 05048                         DT      B'11111111',B'00001111',B'11111111'     ;BTC=13
00372A 0CFF 0C0F 0CFF 05049                         DT      B'11111111',B'00001111',B'11111111'     ;BTC=14
003730 0CFF 0C0F 0CFF 05050                         DT      B'11111111',B'00001111',B'11111111'     ;BTC=15
003736 0CFF 0C0F 0CFF 05051                         DT      B'11111111',B'00001111',B'11111111'     ;BTC=16
00373C 0CFF 0C0F 0CFF 05052                         DT      B'11111111',B'00001111',B'11111111'     ;BTC=17
003742 0CFF 0C0F 0CFF 05053                         DT      B'11111111',B'00001111',B'11111111'     ;BTC=18
003748 0CFF 0C0F 0CFF 05054                         DT      B'11111111',B'00001111',B'11111111'     ;BTC=19
00374E 0CFF 0C0F 0CFF 05055                         DT      B'11111111',B'00001111',B'11111111'     ;BTC=1A
003754 0CFF 0C0F 0CFF 05056                         DT      B'11111111',B'00001111',B'11111111'     ;BTC=1B
00375A 0CFF 0C0F 0CFF 05057                         DT      B'11111111',B'00001111',B'11111111'     ;BTC=1C
003760 0CFF 0C0F 0CFF 05058                         DT      B'11111111',B'00001111',B'11111111'     ;BTC=1D
003766 0CFF 0C0F 0CFF 05059                         DT      B'11111111',B'00001111',B'11111111'     ;BTC=1E
00376C 0CFF 0CFF 0CFF 05060                         DT      B'11111111',B'11111111',B'11111111'     ;BTC=1F
                      05061 
                      05062 
003772                05063 FONT02L_LOW_T
                      05064 
003772 0E00           05065         MOVLW   0
003774 6EFB           05066         MOVWF   PCLATU,0
003776 0E37           05067         MOVLW   37
003778 6EFA           05068         MOVWF   PCLATH,0
                      05069 
                      05070 
                      05071 
                      05072 
00377A C146 FFE8      05073                         MOVFF   BTCOUNT,WREG
00377E 90D8           05074                         BCF             STATUS,C
003780 36E8           05075                         RLCF    WREG
                      05076 
                      05077                 
003782 26F9           05078                         ADDWF   PCL,1,0
003784 0C80 0C0F 0CFF 05079                         DT      B'10000000',B'00001111',B'11111111'     ;BTC=10
00378A 0CF8 0CFF 0CFF 05080                         DT      B'11111000',B'11111111',B'11111111'     ;BTC=11
003790 0CF8 0CFF 0CFF 05081                         DT      B'11111000',B'11111111',B'11111111'     ;BTC=12
003796 0CF8 0CFF 0CFF 05082                         DT      B'11111000',B'11111111',B'11111111'     ;BTC=13
00379C 0CF8 0CFF 0CFF 05083                         DT      B'11111000',B'11111111',B'11111111'     ;BTC=14
0037A2 0CF8 0CFF 0CFF 05084                         DT      B'11111000',B'11111111',B'11111111'     ;BTC=15
0037A8 0CF8 0CFF 0CFF 05085                         DT      B'11111000',B'11111111',B'11111111'     ;BTC=16
0037AE 0CF8 0CFF 0CFF 05086                         DT      B'11111000',B'11111111',B'11111111'     ;BTC=17
0037B4 0CF8 0CFF 0CFF 05087                         DT      B'11111000',B'11111111',B'11111111'     ;BTC=18
0037BA 0CF8 0CFF 0CFF 05088                         DT      B'11111000',B'11111111',B'11111111'     ;BTC=19
0037C0 0CF8 0CE3 0CFF 05089                         DT      B'11111000',B'11100011',B'11111111'     ;BTC=1A
0037C6 0CF8 0C63 0CFF 05090                         DT      B'11111000',B'01100011',B'11111111'     ;BTC=1B
0037CC 0CF8 0C03 0CFF 05091                         DT      B'11111000',B'00000011',B'11111111'     ;BTC=1C
0037D2 0CFC 0C07 0CFF 05092                         DT      B'11111100',B'00000111',B'11111111'     ;BTC=1D
0037D8 0CFE 0C0F 0CFF 05093                         DT      B'11111110',B'00001111',B'11111111'     ;BTC=1E
0037DE 0CFF 0CFF 0CFF 05094                         DT      B'11111111',B'11111111',B'11111111'     ;BTC=1F
                      05095 
Warning[205]: Found directive in column 1. (ORG)
003800                05096 ORG 0X3800
003800                05097 FONT02H_CAP_U
                      05098 
MPASM  5.51                 20200227_P6MM.ASM   2-27-2020  19:46:00         PAGE 101


LOC  OBJECT CODE     LINE SOURCE TEXT
  VALUE

003800 0E00           05099         MOVLW   0
003802 6EFB           05100         MOVWF   PCLATU,0
003804 0E38           05101         MOVLW   38
003806 6EFA           05102         MOVWF   PCLATH,0
                      05103 
                      05104         
                      05105 
                      05106         
003808 C146 FFE8      05107                         MOVFF   BTCOUNT,WREG
00380C 90D8           05108                         BCF             STATUS,C
00380E 36E8           05109                         RLCF    WREG
                      05110 
                      05111                 
003810 26F9           05112                         ADDWF   PCL,1,0
003812 0CFF 0CFF 0CFF 05113                         DT      B'11111111',B'11111111',B'11111111'     ;BTC=00
003818 0C87 0CFF 0C0F 05114                         DT      B'10000111',B'11111111',B'00001111'     ;BTC=01
00381E 0C87 0CFF 0C0F 05115                         DT      B'10000111',B'11111111',B'00001111'     ;BTC=02
003824 0C87 0CFF 0C0F 05116                         DT      B'10000111',B'11111111',B'00001111'     ;BTC=03
00382A 0C87 0CFF 0C0F 05117                         DT      B'10000111',B'11111111',B'00001111'     ;BTC=04
003830 0C87 0CFF 0C0F 05118                         DT      B'10000111',B'11111111',B'00001111'     ;BTC=05
003836 0C87 0CFF 0C0F 05119                         DT      B'10000111',B'11111111',B'00001111'     ;BTC=06
00383C 0C87 0CFF 0C0F 05120                         DT      B'10000111',B'11111111',B'00001111'     ;BTC=07
003842 0C87 0CFF 0C0F 05121                         DT      B'10000111',B'11111111',B'00001111'     ;BTC=08
003848 0C87 0CFF 0C0F 05122                         DT      B'10000111',B'11111111',B'00001111'     ;BTC=09
00384E 0C87 0CFF 0C0F 05123                         DT      B'10000111',B'11111111',B'00001111'     ;BTC=0A
003854 0C87 0CFF 0C0F 05124                         DT      B'10000111',B'11111111',B'00001111'     ;BTC=0B
00385A 0C87 0CFF 0C0F 05125                         DT      B'10000111',B'11111111',B'00001111'     ;BTC=0C
003860 0C87 0CFF 0C0F 05126                         DT      B'10000111',B'11111111',B'00001111'     ;BTC=0D
003866 0C87 0CFF 0C0F 05127                         DT      B'10000111',B'11111111',B'00001111'     ;BTC=0E
00386C 0C87 0CFF 0C0F 05128                         DT      B'10000111',B'11111111',B'00001111'     ;BTC=0F
                      05129 
003872                05130 FONT02H_LOW_U
                      05131 
003872 0E00           05132         MOVLW   0
003874 6EFB           05133         MOVWF   PCLATU,0
003876 0E38           05134         MOVLW   38
003878 6EFA           05135         MOVWF   PCLATH,0
                      05136 
                      05137         
                      05138 
                      05139         
00387A C146 FFE8      05140                         MOVFF   BTCOUNT,WREG
00387E 90D8           05141                         BCF             STATUS,C
003880 36E8           05142                         RLCF    WREG
                      05143 
                      05144                 
003882 26F9           05145                         ADDWF   PCL,1,0
003884 0CFF 0CFF 0CFF 05146                         DT      B'11111111',B'11111111',B'11111111'     ;BTC=00
00388A 0CFF 0CFF 0CFF 05147                         DT      B'11111111',B'11111111',B'11111111'     ;BTC=01
003890 0CFF 0CFF 0CFF 05148                         DT      B'11111111',B'11111111',B'11111111'     ;BTC=02
003896 0CFF 0CFF 0CFF 05149                         DT      B'11111111',B'11111111',B'11111111'     ;BTC=03
00389C 0CFF 0CFF 0CFF 05150                         DT      B'11111111',B'11111111',B'11111111'     ;BTC=04
0038A2 0CFF 0CFF 0CFF 05151                         DT      B'11111111',B'11111111',B'11111111'     ;BTC=05
MPASM  5.51                 20200227_P6MM.ASM   2-27-2020  19:46:00         PAGE 102


LOC  OBJECT CODE     LINE SOURCE TEXT
  VALUE

0038A8 0CFF 0CFF 0CFF 05152                         DT      B'11111111',B'11111111',B'11111111'     ;BTC=06
0038AE 0CFF 0CFF 0CFF 05153                         DT      B'11111111',B'11111111',B'11111111'     ;BTC=07
0038B4 0CFF 0CFF 0CFF 05154                         DT      B'11111111',B'11111111',B'11111111'     ;BTC=08
0038BA 0CFF 0CFF 0CFF 05155                         DT      B'11111111',B'11111111',B'11111111'     ;BTC=09
0038C0 0CFF 0CFF 0CFF 05156                         DT      B'11111111',B'11111111',B'11111111'     ;BTC=0A
0038C6 0CFF 0CFF 0CFF 05157                         DT      B'11111111',B'11111111',B'11111111'     ;BTC=0B
0038CC 0CFF 0CFF 0CFF 05158                         DT      B'11111111',B'11111111',B'11111111'     ;BTC=0C
0038D2 0CFF 0CFF 0CFF 05159                         DT      B'11111111',B'11111111',B'11111111'     ;BTC=0D
0038D8 0C8F 0CFC 0C7F 05160                         DT      B'10001111',B'11111100',B'01111111'     ;BTC=0E
0038DE 0C8F 0CFC 0C7F 05161                         DT      B'10001111',B'11111100',B'01111111'     ;BTC=0F
                      05162 
Warning[205]: Found directive in column 1. (ORG)
003900                05163 ORG 0X3900
003900                05164 FONT02L_CAP_U
                      05165 
003900 0E00           05166         MOVLW   0
003902 6EFB           05167         MOVWF   PCLATU,0
003904 0E39           05168         MOVLW   39
003906 6EFA           05169         MOVWF   PCLATH,0
                      05170 
                      05171 
                      05172 
                      05173 
003908 C146 FFE8      05174                         MOVFF   BTCOUNT,WREG
00390C 90D8           05175                         BCF             STATUS,C
00390E 36E8           05176                         RLCF    WREG
                      05177 
                      05178                 
003910 26F9           05179                         ADDWF   PCL,1,0
003912 0C87 0CFF 0C0F 05180                         DT      B'10000111',B'11111111',B'00001111'     ;BTC=10
003918 0C87 0CFF 0C0F 05181                         DT      B'10000111',B'11111111',B'00001111'     ;BTC=11
00391E 0C87 0CFF 0C0F 05182                         DT      B'10000111',B'11111111',B'00001111'     ;BTC=12
003924 0C87 0CFF 0C0F 05183                         DT      B'10000111',B'11111111',B'00001111'     ;BTC=13
00392A 0C87 0CFF 0C0F 05184                         DT      B'10000111',B'11111111',B'00001111'     ;BTC=14
003930 0C87 0CFF 0C0F 05185                         DT      B'10000111',B'11111111',B'00001111'     ;BTC=15
003936 0C87 0CFF 0C0F 05186                         DT      B'10000111',B'11111111',B'00001111'     ;BTC=16
00393C 0C87 0CFF 0C0F 05187                         DT      B'10000111',B'11111111',B'00001111'     ;BTC=17
003942 0C87 0CFF 0C0F 05188                         DT      B'10000111',B'11111111',B'00001111'     ;BTC=18
003948 0C87 0CFF 0C0F 05189                         DT      B'10000111',B'11111111',B'00001111'     ;BTC=19
00394E 0C83 0CFE 0C0F 05190                         DT      B'10000011',B'11111110',B'00001111'     ;BTC=1A
003954 0C81 0CFC 0C0F 05191                         DT      B'10000001',B'11111100',B'00001111'     ;BTC=1B
00395A 0CC0 0C00 0C1F 05192                         DT      B'11000000',B'00000000',B'00011111'     ;BTC=1C
003960 0CE0 0C00 0C3F 05193                         DT      B'11100000',B'00000000',B'00111111'     ;BTC=1D
003966 0CF0 0C00 0C7F 05194                         DT      B'11110000',B'00000000',B'01111111'     ;BTC=1E
00396C 0CFF 0CFF 0CFF 05195                         DT      B'11111111',B'11111111',B'11111111'     ;BTC=1F
                      05196 
003972                05197 FONT02L_LOW_U
                      05198 
003972 0E00           05199         MOVLW   0
003974 6EFB           05200         MOVWF   PCLATU,0
003976 0E39           05201         MOVLW   39
003978 6EFA           05202         MOVWF   PCLATH,0
                      05203 
MPASM  5.51                 20200227_P6MM.ASM   2-27-2020  19:46:00         PAGE 103


LOC  OBJECT CODE     LINE SOURCE TEXT
  VALUE

                      05204 
                      05205 
                      05206 
00397A C146 FFE8      05207                         MOVFF   BTCOUNT,WREG
00397E 90D8           05208                         BCF             STATUS,C
003980 36E8           05209                         RLCF    WREG
                      05210 
                      05211                 
003982 26F9           05212                         ADDWF   PCL,1,0
003984 0C8F 0CFC 0C7F 05213                         DT      B'10001111',B'11111100',B'01111111'     ;BTC=10
00398A 0C8F 0CFC 0C7F 05214                         DT      B'10001111',B'11111100',B'01111111'     ;BTC=11
003990 0C8F 0CFC 0C7F 05215                         DT      B'10001111',B'11111100',B'01111111'     ;BTC=12
003996 0C8F 0CFC 0C7F 05216                         DT      B'10001111',B'11111100',B'01111111'     ;BTC=13
00399C 0C8F 0CFC 0C7F 05217                         DT      B'10001111',B'11111100',B'01111111'     ;BTC=14
0039A2 0C8F 0CFC 0C7F 05218                         DT      B'10001111',B'11111100',B'01111111'     ;BTC=15
0039A8 0C8F 0CFC 0C7F 05219                         DT      B'10001111',B'11111100',B'01111111'     ;BTC=16
0039AE 0C8F 0CFC 0C7F 05220                         DT      B'10001111',B'11111100',B'01111111'     ;BTC=17
0039B4 0C8F 0CFC 0C7F 05221                         DT      B'10001111',B'11111100',B'01111111'     ;BTC=18
0039BA 0C8F 0CFC 0C7F 05222                         DT      B'10001111',B'11111100',B'01111111'     ;BTC=19
0039C0 0C8F 0CFC 0C7F 05223                         DT      B'10001111',B'11111100',B'01111111'     ;BTC=1A
0039C6 0C87 0CF8 0C7F 05224                         DT      B'10000111',B'11111000',B'01111111'     ;BTC=1B
0039CC 0C80 0C00 0C7F 05225                         DT      B'10000000',B'00000000',B'01111111'     ;BTC=1C
0039D2 0CC0 0C00 0C7F 05226                         DT      B'11000000',B'00000000',B'01111111'     ;BTC=1D
0039D8 0CE0 0C04 0C7F 05227                         DT      B'11100000',B'00000100',B'01111111'     ;BTC=1E
0039DE 0CFF 0CFF 0CFF 05228                         DT      B'11111111',B'11111111',B'11111111'     ;BTC=1F
                      05229 
                      05230 
                      05231 
                      05232 
Warning[205]: Found directive in column 1. (ORG)
003A00                05233 ORG 0X3A00
003A00                05234 FONT02H_CAP_V
                      05235 
003A00 0E00           05236         MOVLW   0
003A02 6EFB           05237         MOVWF   PCLATU,0
003A04 0E3A           05238         MOVLW   3A
003A06 6EFA           05239         MOVWF   PCLATH,0
                      05240 
                      05241         
                      05242 
                      05243         
003A08 C146 FFE8      05244                         MOVFF   BTCOUNT,WREG
003A0C 90D8           05245                         BCF             STATUS,C
003A0E 36E8           05246                         RLCF    WREG
                      05247 
                      05248                 
003A10 26F9           05249                         ADDWF   PCL,1,0
003A12 0CFF 0CFF 0CFF 05250                         DT      B'11111111',B'11111111',B'11111111'     ;BTC=00
003A18 0C87 0CFF 0C0F 05251                         DT      B'10000111',B'11111111',B'00001111'     ;BTC=01
003A1E 0C87 0CFF 0C0F 05252                         DT      B'10000111',B'11111111',B'00001111'     ;BTC=02
003A24 0C87 0CFF 0C0F 05253                         DT      B'10000111',B'11111111',B'00001111'     ;BTC=03
003A2A 0C87 0CFF 0C0F 05254                         DT      B'10000111',B'11111111',B'00001111'     ;BTC=04
003A30 0C87 0CFF 0C0F 05255                         DT      B'10000111',B'11111111',B'00001111'     ;BTC=05
MPASM  5.51                 20200227_P6MM.ASM   2-27-2020  19:46:00         PAGE 104


LOC  OBJECT CODE     LINE SOURCE TEXT
  VALUE

003A36 0C87 0CFF 0C0F 05256                         DT      B'10000111',B'11111111',B'00001111'     ;BTC=06
003A3C 0C87 0CFF 0C0F 05257                         DT      B'10000111',B'11111111',B'00001111'     ;BTC=07
003A42 0C87 0CFF 0C0F 05258                         DT      B'10000111',B'11111111',B'00001111'     ;BTC=08
003A48 0C87 0CFF 0C0F 05259                         DT      B'10000111',B'11111111',B'00001111'     ;BTC=09
003A4E 0C87 0CFF 0C0F 05260                         DT      B'10000111',B'11111111',B'00001111'     ;BTC=0A
003A54 0C87 0CFF 0C0F 05261                         DT      B'10000111',B'11111111',B'00001111'     ;BTC=0B
003A5A 0C87 0CFF 0C0F 05262                         DT      B'10000111',B'11111111',B'00001111'     ;BTC=0C
003A60 0C87 0CFF 0C0F 05263                         DT      B'10000111',B'11111111',B'00001111'     ;BTC=0D
003A66 0C87 0CFF 0C0F 05264                         DT      B'10000111',B'11111111',B'00001111'     ;BTC=0E
003A6C 0C87 0CFF 0C0F 05265                         DT      B'10000111',B'11111111',B'00001111'     ;BTC=0F
                      05266 
                      05267 
003A72                05268 FONT02H_LOW_V
                      05269 
003A72 0E00           05270         MOVLW   0
003A74 6EFB           05271         MOVWF   PCLATU,0
003A76 0E3A           05272         MOVLW   3A
003A78 6EFA           05273         MOVWF   PCLATH,0
                      05274 
                      05275         
                      05276 
                      05277         
003A7A C146 FFE8      05278                         MOVFF   BTCOUNT,WREG
003A7E 90D8           05279                         BCF             STATUS,C
003A80 36E8           05280                         RLCF    WREG
                      05281 
                      05282                 
003A82 26F9           05283                         ADDWF   PCL,1,0
003A84 0CFF 0CFF 0CFF 05284                         DT      B'11111111',B'11111111',B'11111111'     ;BTC=00
003A8A 0CFF 0CFF 0CFF 05285                         DT      B'11111111',B'11111111',B'11111111'     ;BTC=01
003A90 0CFF 0CFF 0CFF 05286                         DT      B'11111111',B'11111111',B'11111111'     ;BTC=02
003A96 0CFF 0CFF 0CFF 05287                         DT      B'11111111',B'11111111',B'11111111'     ;BTC=03
003A9C 0CFF 0CFF 0CFF 05288                         DT      B'11111111',B'11111111',B'11111111'     ;BTC=04
003AA2 0CFF 0CFF 0CFF 05289                         DT      B'11111111',B'11111111',B'11111111'     ;BTC=05
003AA8 0CFF 0CFF 0CFF 05290                         DT      B'11111111',B'11111111',B'11111111'     ;BTC=06
003AAE 0CFF 0CFF 0CFF 05291                         DT      B'11111111',B'11111111',B'11111111'     ;BTC=07
003AB4 0CFF 0CFF 0CFF 05292                         DT      B'11111111',B'11111111',B'11111111'     ;BTC=08
003ABA 0CFF 0CFF 0CFF 05293                         DT      B'11111111',B'11111111',B'11111111'     ;BTC=09
003AC0 0CFF 0CFF 0CFF 05294                         DT      B'11111111',B'11111111',B'11111111'     ;BTC=0A
003AC6 0CFF 0CFF 0CFF 05295                         DT      B'11111111',B'11111111',B'11111111'     ;BTC=0B
003ACC 0CFF 0CFF 0CFF 05296                         DT      B'11111111',B'11111111',B'11111111'     ;BTC=0C
003AD2 0CFF 0CFF 0CFF 05297                         DT      B'11111111',B'11111111',B'11111111'     ;BTC=0D
003AD8 0C8F 0CFC 0C7F 05298                         DT      B'10001111',B'11111100',B'01111111'     ;BTC=0E
003ADE 0C8F 0CFC 0C7F 05299                         DT      B'10001111',B'11111100',B'01111111'     ;BTC=0F
                      05300 
                      05301 
Warning[205]: Found directive in column 1. (ORG)
003B00                05302 ORG 0X3B00
003B00                05303 FONT02L_CAP_V
                      05304 
003B00 0E00           05305         MOVLW   0
003B02 6EFB           05306         MOVWF   PCLATU,0
003B04 0E3B           05307         MOVLW   3B
MPASM  5.51                 20200227_P6MM.ASM   2-27-2020  19:46:00         PAGE 105


LOC  OBJECT CODE     LINE SOURCE TEXT
  VALUE

003B06 6EFA           05308         MOVWF   PCLATH,0
                      05309 
                      05310 
                      05311 
                      05312 
003B08 C146 FFE8      05313                         MOVFF   BTCOUNT,WREG
003B0C 90D8           05314                         BCF             STATUS,C
003B0E 36E8           05315                         RLCF    WREG
                      05316 
                      05317                 
003B10 26F9           05318                         ADDWF   PCL,1,0
003B12 0C87 0CFF 0C0F 05319                         DT      B'10000111',B'11111111',B'00001111'     ;BTC=10
003B18 0C87 0CFF 0C0F 05320                         DT      B'10000111',B'11111111',B'00001111'     ;BTC=11
003B1E 0C87 0CFF 0C0F 05321                         DT      B'10000111',B'11111111',B'00001111'     ;BTC=12
003B24 0C87 0CFF 0C0F 05322                         DT      B'10000111',B'11111111',B'00001111'     ;BTC=13
003B2A 0C87 0CFF 0C0F 05323                         DT      B'10000111',B'11111111',B'00001111'     ;BTC=14
003B30 0C87 0CFF 0C0F 05324                         DT      B'10000111',B'11111111',B'00001111'     ;BTC=15
003B36 0C87 0CFF 0C0F 05325                         DT      B'10000111',B'11111111',B'00001111'     ;BTC=16
003B3C 0C87 0CFF 0C0F 05326                         DT      B'10000111',B'11111111',B'00001111'     ;BTC=17
003B42 0CC3 0CFE 0C1F 05327                         DT      B'11000011',B'11111110',B'00011111'     ;BTC=18
003B48 0CE1 0CFC 0C3F 05328                         DT      B'11100001',B'11111100',B'00111111'     ;BTC=19
003B4E 0CF0 0CF8 0C7F 05329                         DT      B'11110000',B'11111000',B'01111111'     ;BTC=1A
003B54 0CF8 0C70 0CFF 05330                         DT      B'11111000',B'01110000',B'11111111'     ;BTC=1B
003B5A 0CFC 0C01 0CFF 05331                         DT      B'11111100',B'00000001',B'11111111'     ;BTC=1C
003B60 0CFE 0C03 0CFF 05332                         DT      B'11111110',B'00000011',B'11111111'     ;BTC=1D
003B66 0CFF 0C07 0CFF 05333                         DT      B'11111111',B'00000111',B'11111111'     ;BTC=1E
003B6C 0CFF 0CFF 0CFF 05334                         DT      B'11111111',B'11111111',B'11111111'     ;BTC=1F
                      05335 
                      05336 
003B72                05337 FONT02L_LOW_V
                      05338 
003B72 0E00           05339         MOVLW   0
003B74 6EFB           05340         MOVWF   PCLATU,0
003B76 0E3B           05341         MOVLW   3B
003B78 6EFA           05342         MOVWF   PCLATH,0
                      05343 
                      05344 
                      05345 
                      05346 
003B7A C146 FFE8      05347                         MOVFF   BTCOUNT,WREG
003B7E 90D8           05348                         BCF             STATUS,C
003B80 36E8           05349                         RLCF    WREG
                      05350 
                      05351                 
003B82 26F9           05352                         ADDWF   PCL,1,0
003B84 0C8F 0CFC 0C7F 05353                         DT      B'10001111',B'11111100',B'01111111'     ;BTC=10
003B8A 0C8F 0CFC 0C7F 05354                         DT      B'10001111',B'11111100',B'01111111'     ;BTC=11
003B90 0C8F 0CFC 0C7F 05355                         DT      B'10001111',B'11111100',B'01111111'     ;BTC=12
003B96 0C8F 0CFC 0C7F 05356                         DT      B'10001111',B'11111100',B'01111111'     ;BTC=13
003B9C 0C8F 0CFC 0C7F 05357                         DT      B'10001111',B'11111100',B'01111111'     ;BTC=14
003BA2 0C8F 0CFC 0C7F 05358                         DT      B'10001111',B'11111100',B'01111111'     ;BTC=15
003BA8 0C8F 0CFC 0C7F 05359                         DT      B'10001111',B'11111100',B'01111111'     ;BTC=16
003BAE 0C8F 0CFC 0C7F 05360                         DT      B'10001111',B'11111100',B'01111111'     ;BTC=17
MPASM  5.51                 20200227_P6MM.ASM   2-27-2020  19:46:00         PAGE 106


LOC  OBJECT CODE     LINE SOURCE TEXT
  VALUE

003BB4 0C8F 0CFC 0C7F 05361                         DT      B'10001111',B'11111100',B'01111111'     ;BTC=18
003BBA 0CC7 0CF8 0CFF 05362                         DT      B'11000111',B'11111000',B'11111111'     ;BTC=19
003BC0 0CE3 0CF1 0CFF 05363                         DT      B'11100011',B'11110001',B'11111111'     ;BTC=1A
003BC6 0CF1 0CE3 0CFF 05364                         DT      B'11110001',B'11100011',B'11111111'     ;BTC=1B
003BCC 0CF8 0CC7 0CFF 05365                         DT      B'11111000',B'11000111',B'11111111'     ;BTC=1C
003BD2 0CFC 0C0F 0CFF 05366                         DT      B'11111100',B'00001111',B'11111111'     ;BTC=1D
003BD8 0CFE 0C1F 0CFF 05367                         DT      B'11111110',B'00011111',B'11111111'     ;BTC=1E
003BDE 0CFF 0CFF 0CFF 05368                         DT      B'11111111',B'11111111',B'11111111'     ;BTC=1F
                      05369 
                      05370 
                      05371 
Warning[205]: Found directive in column 1. (ORG)
003C00                05372 ORG 0X3C00
003C00                05373 FONT02H_CAP_W
                      05374 
003C00 0E00           05375         MOVLW   0
003C02 6EFB           05376         MOVWF   PCLATU,0
003C04 0E3C           05377         MOVLW   3C
003C06 6EFA           05378         MOVWF   PCLATH,0
                      05379 
                      05380         
                      05381 
                      05382         
003C08 C146 FFE8      05383                         MOVFF   BTCOUNT,WREG
003C0C 90D8           05384                         BCF             STATUS,C
003C0E 36E8           05385                         RLCF    WREG
                      05386 
                      05387                 
003C10 26F9           05388                         ADDWF   PCL,1,0
003C12 0CFF 0CFF 0CFF 05389                         DT      B'11111111',B'11111111',B'11111111'     ;BTC=00
003C18 0C87 0CFF 0C0F 05390                         DT      B'10000111',B'11111111',B'00001111'     ;BTC=01
003C1E 0C87 0CFF 0C0F 05391                         DT      B'10000111',B'11111111',B'00001111'     ;BTC=02
003C24 0C87 0CFF 0C0F 05392                         DT      B'10000111',B'11111111',B'00001111'     ;BTC=03
003C2A 0C87 0CFF 0C0F 05393                         DT      B'10000111',B'11111111',B'00001111'     ;BTC=04
003C30 0C87 0CFF 0C0F 05394                         DT      B'10000111',B'11111111',B'00001111'     ;BTC=05
003C36 0C87 0CFF 0C0F 05395                         DT      B'10000111',B'11111111',B'00001111'     ;BTC=06
003C3C 0C87 0CFF 0C0F 05396                         DT      B'10000111',B'11111111',B'00001111'     ;BTC=07
003C42 0C87 0CFF 0C0F 05397                         DT      B'10000111',B'11111111',B'00001111'     ;BTC=08
003C48 0C87 0CFF 0C0F 05398                         DT      B'10000111',B'11111111',B'00001111'     ;BTC=09
003C4E 0C87 0C8F 0C0F 05399                         DT      B'10000111',B'10001111',B'00001111'     ;BTC=0A
003C54 0C87 0C8F 0C0F 05400                         DT      B'10000111',B'10001111',B'00001111'     ;BTC=0B
003C5A 0C87 0C8F 0C0F 05401                         DT      B'10000111',B'10001111',B'00001111'     ;BTC=0C
003C60 0C87 0C8F 0C0F 05402                         DT      B'10000111',B'10001111',B'00001111'     ;BTC=0D
003C66 0C87 0C8F 0C0F 05403                         DT      B'10000111',B'10001111',B'00001111'     ;BTC=0E
003C6C 0C87 0C8F 0C0F 05404                         DT      B'10000111',B'10001111',B'00001111'     ;BTC=0F
                      05405 
                      05406 
003C72                05407 FONT02H_LOW_W
                      05408 
003C72 0E00           05409         MOVLW   0
003C74 6EFB           05410         MOVWF   PCLATU,0
003C76 0E3C           05411         MOVLW   3C
003C78 6EFA           05412         MOVWF   PCLATH,0
MPASM  5.51                 20200227_P6MM.ASM   2-27-2020  19:46:00         PAGE 107


LOC  OBJECT CODE     LINE SOURCE TEXT
  VALUE

                      05413 
                      05414         
                      05415 
                      05416         
003C7A C146 FFE8      05417                         MOVFF   BTCOUNT,WREG
003C7E 90D8           05418                         BCF             STATUS,C
003C80 36E8           05419                         RLCF    WREG
                      05420 
                      05421                 
003C82 26F9           05422                         ADDWF   PCL,1,0
003C84 0CFF 0CFF 0CFF 05423                         DT      B'11111111',B'11111111',B'11111111'     ;BTC=00
003C8A 0CFF 0CFF 0CFF 05424                         DT      B'11111111',B'11111111',B'11111111'     ;BTC=01
003C90 0CFF 0CFF 0CFF 05425                         DT      B'11111111',B'11111111',B'11111111'     ;BTC=02
003C96 0CFF 0CFF 0CFF 05426                         DT      B'11111111',B'11111111',B'11111111'     ;BTC=03
003C9C 0CFF 0CFF 0CFF 05427                         DT      B'11111111',B'11111111',B'11111111'     ;BTC=04
003CA2 0CFF 0CFF 0CFF 05428                         DT      B'11111111',B'11111111',B'11111111'     ;BTC=05
003CA8 0CFF 0CFF 0CFF 05429                         DT      B'11111111',B'11111111',B'11111111'     ;BTC=06
003CAE 0CFF 0CFF 0CFF 05430                         DT      B'11111111',B'11111111',B'11111111'     ;BTC=07
003CB4 0CFF 0CFF 0CFF 05431                         DT      B'11111111',B'11111111',B'11111111'     ;BTC=08
003CBA 0CFF 0CFF 0CFF 05432                         DT      B'11111111',B'11111111',B'11111111'     ;BTC=09
003CC0 0CFF 0CFF 0CFF 05433                         DT      B'11111111',B'11111111',B'11111111'     ;BTC=0A
003CC6 0CFF 0CFF 0CFF 05434                         DT      B'11111111',B'11111111',B'11111111'     ;BTC=0B
003CCC 0CFF 0CFF 0CFF 05435                         DT      B'11111111',B'11111111',B'11111111'     ;BTC=0C
003CD2 0CFF 0CFF 0CFF 05436                         DT      B'11111111',B'11111111',B'11111111'     ;BTC=0D
003CD8 0C8F 0C1E 0C3F 05437                         DT      B'10001111',B'00011110',B'00111111'     ;BTC=0E
003CDE 0C8F 0C1E 0C3F 05438                         DT      B'10001111',B'00011110',B'00111111'     ;BTC=0F
                      05439 
Warning[205]: Found directive in column 1. (ORG)
003D00                05440 ORG 0X3D00
003D00                05441 FONT02L_CAP_W
                      05442 
003D00 0E00           05443         MOVLW   0
003D02 6EFB           05444         MOVWF   PCLATU,0
003D04 0E3D           05445         MOVLW   3D
003D06 6EFA           05446         MOVWF   PCLATH,0
                      05447 
                      05448 
                      05449 
                      05450 
003D08 C146 FFE8      05451                         MOVFF   BTCOUNT,WREG
003D0C 90D8           05452                         BCF             STATUS,C
003D0E 36E8           05453                         RLCF    WREG
                      05454 
                      05455                 
003D10 26F9           05456                         ADDWF   PCL,1,0
003D12 0C87 0C8F 0C0F 05457                         DT      B'10000111',B'10001111',B'00001111'     ;BTC=10
003D18 0C87 0C8F 0C0F 05458                         DT      B'10000111',B'10001111',B'00001111'     ;BTC=11
003D1E 0C87 0C8F 0C0F 05459                         DT      B'10000111',B'10001111',B'00001111'     ;BTC=12
003D24 0C87 0C8F 0C0F 05460                         DT      B'10000111',B'10001111',B'00001111'     ;BTC=13
003D2A 0C87 0C8F 0C0F 05461                         DT      B'10000111',B'10001111',B'00001111'     ;BTC=14
003D30 0C87 0C8F 0C0F 05462                         DT      B'10000111',B'10001111',B'00001111'     ;BTC=15
003D36 0C87 0C8F 0C0F 05463                         DT      B'10000111',B'10001111',B'00001111'     ;BTC=16
003D3C 0C87 0C8F 0C0F 05464                         DT      B'10000111',B'10001111',B'00001111'     ;BTC=17
MPASM  5.51                 20200227_P6MM.ASM   2-27-2020  19:46:00         PAGE 108


LOC  OBJECT CODE     LINE SOURCE TEXT
  VALUE

003D42 0C87 0C8F 0C0F 05465                         DT      B'10000111',B'10001111',B'00001111'     ;BTC=18
003D48 0C87 0C8F 0C0F 05466                         DT      B'10000111',B'10001111',B'00001111'     ;BTC=19
003D4E 0C87 0C8F 0C0F 05467                         DT      B'10000111',B'10001111',B'00001111'     ;BTC=1A
003D54 0C83 0C06 0C0F 05468                         DT      B'10000011',B'00000110',B'00001111'     ;BTC=1B
003D5A 0CC0 0C00 0C1F 05469                         DT      B'11000000',B'00000000',B'00011111'     ;BTC=1C
003D60 0CE0 0C20 0C3F 05470                         DT      B'11100000',B'00100000',B'00111111'     ;BTC=1D
003D66 0CF0 0C70 0C7F 05471                         DT      B'11110000',B'01110000',B'01111111'     ;BTC=1E
003D6C 0CFF 0CFF 0CFF 05472                         DT      B'11111111',B'11111111',B'11111111'     ;BTC=1F
                      05473 
                      05474 
003D72                05475 FONT02L_LOW_W
                      05476 
003D72 0E00           05477         MOVLW   0
003D74 6EFB           05478         MOVWF   PCLATU,0
003D76 0E3D           05479         MOVLW   3D
003D78 6EFA           05480         MOVWF   PCLATH,0
                      05481 
                      05482 
                      05483 
                      05484 
003D7A C146 FFE8      05485                         MOVFF   BTCOUNT,WREG
003D7E 90D8           05486                         BCF             STATUS,C
003D80 36E8           05487                         RLCF    WREG
                      05488 
                      05489                 
003D82 26F9           05490                         ADDWF   PCL,1,0
003D84 0C8F 0C1E 0C3F 05491                         DT      B'10001111',B'00011110',B'00111111'     ;BTC=10
003D8A 0C8F 0C1E 0C3F 05492                         DT      B'10001111',B'00011110',B'00111111'     ;BTC=11
003D90 0C8F 0C1E 0C3F 05493                         DT      B'10001111',B'00011110',B'00111111'     ;BTC=12
003D96 0C8F 0C1E 0C3F 05494                         DT      B'10001111',B'00011110',B'00111111'     ;BTC=13
003D9C 0C8F 0C1E 0C3F 05495                         DT      B'10001111',B'00011110',B'00111111'     ;BTC=14
003DA2 0C8F 0C1E 0C3F 05496                         DT      B'10001111',B'00011110',B'00111111'     ;BTC=15
003DA8 0C8F 0C1E 0C3F 05497                         DT      B'10001111',B'00011110',B'00111111'     ;BTC=16
003DAE 0C8F 0C1E 0C3F 05498                         DT      B'10001111',B'00011110',B'00111111'     ;BTC=17
003DB4 0C8F 0C1E 0C3F 05499                         DT      B'10001111',B'00011110',B'00111111'     ;BTC=18
003DBA 0C8F 0C1E 0C3F 05500                         DT      B'10001111',B'00011110',B'00111111'     ;BTC=19
003DC0 0C8F 0C1E 0C3F 05501                         DT      B'10001111',B'00011110',B'00111111'     ;BTC=1A
003DC6 0C86 0C0C 0C3F 05502                         DT      B'10000110',B'00001100',B'00111111'     ;BTC=1B
003DCC 0C80 0C00 0C3F 05503                         DT      B'10000000',B'00000000',B'00111111'     ;BTC=1C
003DD2 0CC0 0C40 0C3F 05504                         DT      B'11000000',B'01000000',B'00111111'     ;BTC=1D
003DD8 0CE0 0CE2 0C3F 05505                         DT      B'11100000',B'11100010',B'00111111'     ;BTC=1E
003DDE 0CFF 0CFF 0CFF 05506                         DT      B'11111111',B'11111111',B'11111111'     ;BTC=1F
                      05507 
                      05508 
                      05509 
                      05510 
Warning[205]: Found directive in column 1. (ORG)
003E00                05511 ORG 0X3E00
003E00                05512 FONT02H_CAP_X
                      05513 
003E00 0E00           05514         MOVLW   0
003E02 6EFB           05515         MOVWF   PCLATU,0
003E04 0E3E           05516         MOVLW   3E
MPASM  5.51                 20200227_P6MM.ASM   2-27-2020  19:46:00         PAGE 109


LOC  OBJECT CODE     LINE SOURCE TEXT
  VALUE

003E06 6EFA           05517         MOVWF   PCLATH,0
                      05518 
                      05519         
                      05520 
                      05521         
003E08 C146 FFE8      05522                         MOVFF   BTCOUNT,WREG
003E0C 90D8           05523                         BCF             STATUS,C
003E0E 36E8           05524                         RLCF    WREG
                      05525 
                      05526                 
003E10 26F9           05527                         ADDWF   PCL,1,0
003E12 0CFF 0CFF 0CFF 05528                         DT      B'11111111',B'11111111',B'11111111'     ;BTC=00
003E18 0C87 0CFF 0C0F 05529                         DT      B'10000111',B'11111111',B'00001111'     ;BTC=01
003E1E 0C87 0CFF 0C0F 05530                         DT      B'10000111',B'11111111',B'00001111'     ;BTC=02
003E24 0C87 0CFF 0C0F 05531                         DT      B'10000111',B'11111111',B'00001111'     ;BTC=03
003E2A 0C87 0CFF 0C0F 05532                         DT      B'10000111',B'11111111',B'00001111'     ;BTC=04
003E30 0C87 0CFF 0C0F 05533                         DT      B'10000111',B'11111111',B'00001111'     ;BTC=05
003E36 0C87 0CFF 0C0F 05534                         DT      B'10000111',B'11111111',B'00001111'     ;BTC=06
003E3C 0C87 0CFF 0C0F 05535                         DT      B'10000111',B'11111111',B'00001111'     ;BTC=07
003E42 0C87 0CFE 0C1F 05536                         DT      B'10000111',B'11111110',B'00011111'     ;BTC=08
003E48 0CC3 0CFC 0C3F 05537                         DT      B'11000011',B'11111100',B'00111111'     ;BTC=09
003E4E 0CE1 0CF8 0C7F 05538                         DT      B'11100001',B'11111000',B'01111111'     ;BTC=0A
003E54 0CF0 0CF0 0CFF 05539                         DT      B'11110000',B'11110000',B'11111111'     ;BTC=0B
003E5A 0CF8 0C61 0CFF 05540                         DT      B'11111000',B'01100001',B'11111111'     ;BTC=0C
003E60 0CFC 0C03 0CFF 05541                         DT      B'11111100',B'00000011',B'11111111'     ;BTC=0D
003E66 0CFE 0C07 0CFF 05542                         DT      B'11111110',B'00000111',B'11111111'     ;BTC=0E
003E6C 0CFF 0C0F 0CFF 05543                         DT      B'11111111',B'00001111',B'11111111'     ;BTC=0F
003E72 0CFF 0C0F 0CFF 05544                         DT      B'11111111',B'00001111',B'11111111'     ;BTC=10
                      05545 
                      05546 
003E78                05547 FONT02H_LOW_X
                      05548 
003E78 0E00           05549         MOVLW   0
003E7A 6EFB           05550         MOVWF   PCLATU,0
003E7C 0E3E           05551         MOVLW   3E
003E7E 6EFA           05552         MOVWF   PCLATH,0
                      05553 
                      05554         
                      05555 
                      05556         
003E80 C146 FFE8      05557                         MOVFF   BTCOUNT,WREG
003E84 90D8           05558                         BCF             STATUS,C
003E86 36E8           05559                         RLCF    WREG
                      05560 
                      05561                 
003E88 26F9           05562                         ADDWF   PCL,1,0
003E8A 0CFF 0CFF 0CFF 05563                         DT      B'11111111',B'11111111',B'11111111'     ;BTC=00
003E90 0CFF 0CFF 0CFF 05564                         DT      B'11111111',B'11111111',B'11111111'     ;BTC=01
003E96 0CFF 0CFF 0CFF 05565                         DT      B'11111111',B'11111111',B'11111111'     ;BTC=02
003E9C 0CFF 0CFF 0CFF 05566                         DT      B'11111111',B'11111111',B'11111111'     ;BTC=03
003EA2 0CFF 0CFF 0CFF 05567                         DT      B'11111111',B'11111111',B'11111111'     ;BTC=04
003EA8 0CFF 0CFF 0CFF 05568                         DT      B'11111111',B'11111111',B'11111111'     ;BTC=05
003EAE 0CFF 0CFF 0CFF 05569                         DT      B'11111111',B'11111111',B'11111111'     ;BTC=06
MPASM  5.51                 20200227_P6MM.ASM   2-27-2020  19:46:00         PAGE 110


LOC  OBJECT CODE     LINE SOURCE TEXT
  VALUE

003EB4 0CFF 0CFF 0CFF 05570                         DT      B'11111111',B'11111111',B'11111111'     ;BTC=07
003EBA 0CFF 0CFF 0CFF 05571                         DT      B'11111111',B'11111111',B'11111111'     ;BTC=08
003EC0 0CFF 0CFF 0CFF 05572                         DT      B'11111111',B'11111111',B'11111111'     ;BTC=09
003EC6 0CFF 0CFF 0CFF 05573                         DT      B'11111111',B'11111111',B'11111111'     ;BTC=0A
003ECC 0CFF 0CFF 0CFF 05574                         DT      B'11111111',B'11111111',B'11111111'     ;BTC=0B
003ED2 0CFF 0CFF 0CFF 05575                         DT      B'11111111',B'11111111',B'11111111'     ;BTC=0C
003ED8 0CFF 0CFF 0CFF 05576                         DT      B'11111111',B'11111111',B'11111111'     ;BTC=0D
003EDE 0C8F 0CFC 0C7F 05577                         DT      B'10001111',B'11111100',B'01111111'     ;BTC=0E
003EE4 0C8F 0CFC 0C7F 05578                         DT      B'10001111',B'11111100',B'01111111'     ;BTC=0F
                      05579 
                      05580 
Warning[205]: Found directive in column 1. (ORG)
003F00                05581 ORG 0X3F00
003F00                05582 FONT02L_CAP_X
                      05583 
003F00 0E00           05584         MOVLW   0
003F02 6EFB           05585         MOVWF   PCLATU,0
003F04 0E3F           05586         MOVLW   3F
003F06 6EFA           05587         MOVWF   PCLATH,0
                      05588 
                      05589 
                      05590 
                      05591 
003F08 C146 FFE8      05592                         MOVFF   BTCOUNT,WREG
003F0C 90D8           05593                         BCF             STATUS,C
003F0E 36E8           05594                         RLCF    WREG
                      05595 
                      05596                 
003F10 26F9           05597                         ADDWF   PCL,1,0
003F12 0CFF 0C0F 0CFF 05598                         DT      B'11111111',B'00001111',B'11111111'     ;BTC=10
003F18 0CFE 0C07 0CFF 05599                         DT      B'11111110',B'00000111',B'11111111'     ;BTC=11
003F1E 0CFC 0C03 0CFF 05600                         DT      B'11111100',B'00000011',B'11111111'     ;BTC=12
003F24 0CF8 0C61 0CFF 05601                         DT      B'11111000',B'01100001',B'11111111'     ;BTC=13
003F2A 0CF0 0CF0 0CFF 05602                         DT      B'11110000',B'11110000',B'11111111'     ;BTC=14
003F30 0CE1 0CF8 0C7F 05603                         DT      B'11100001',B'11111000',B'01111111'     ;BTC=15
003F36 0CC3 0CFC 0C3F 05604                         DT      B'11000011',B'11111100',B'00111111'     ;BTC=16
003F3C 0C87 0CFE 0C1F 05605                         DT      B'10000111',B'11111110',B'00011111'     ;BTC=17
003F42 0C87 0CFF 0C0F 05606                         DT      B'10000111',B'11111111',B'00001111'     ;BTC=18
003F48 0C87 0CFF 0C0F 05607                         DT      B'10000111',B'11111111',B'00001111'     ;BTC=19
003F4E 0C87 0CFF 0C0F 05608                         DT      B'10000111',B'11111111',B'00001111'     ;BTC=1A
003F54 0C87 0CFF 0C0F 05609                         DT      B'10000111',B'11111111',B'00001111'     ;BTC=1B
003F5A 0C87 0CFF 0C0F 05610                         DT      B'10000111',B'11111111',B'00001111'     ;BTC=1C
003F60 0C87 0CFF 0C0F 05611                         DT      B'10000111',B'11111111',B'00001111'     ;BTC=1D
003F66 0C87 0CFF 0C0F 05612                         DT      B'10000111',B'11111111',B'00001111'     ;BTC=1E
003F6C 0CFF 0CFF 0CFF 05613                         DT      B'11111111',B'11111111',B'11111111'     ;BTC=1F
                      05614 
                      05615 
003F72                05616 FONT02L_LOW_X
                      05617 
003F72 0E00           05618         MOVLW   0
003F74 6EFB           05619         MOVWF   PCLATU,0
003F76 0E3F           05620         MOVLW   3F
003F78 6EFA           05621         MOVWF   PCLATH,0
MPASM  5.51                 20200227_P6MM.ASM   2-27-2020  19:46:00         PAGE 111


LOC  OBJECT CODE     LINE SOURCE TEXT
  VALUE

                      05622 
                      05623 
                      05624 
                      05625 
003F7A C146 FFE8      05626                         MOVFF   BTCOUNT,WREG
003F7E 90D8           05627                         BCF             STATUS,C
003F80 36E8           05628                         RLCF    WREG
                      05629 
                      05630                 
003F82 26F9           05631                         ADDWF   PCL,1,0
003F84 0CC7 0CFC 0C7F 05632                         DT      B'11000111',B'11111100',B'01111111'     ;BTC=10
003F8A 0CE3 0CF8 0CFF 05633                         DT      B'11100011',B'11111000',B'11111111'     ;BTC=11
003F90 0CF1 0CF1 0CFF 05634                         DT      B'11110001',B'11110001',B'11111111'     ;BTC=12
003F96 0CF8 0CE3 0CFF 05635                         DT      B'11111000',B'11100011',B'11111111'     ;BTC=13
003F9C 0CFC 0C47 0CFF 05636                         DT      B'11111100',B'01000111',B'11111111'     ;BTC=14
003FA2 0CFE 0C0F 0CFF 05637                         DT      B'11111110',B'00001111',B'11111111'     ;BTC=15
003FA8 0CFE 0C1F 0CFF 05638                         DT      B'11111110',B'00011111',B'11111111'     ;BTC=16
003FAE 0CFC 0C0F 0CFF 05639                         DT      B'11111100',B'00001111',B'11111111'     ;BTC=17
003FB4 0CF8 0CC7 0CFF 05640                         DT      B'11111000',B'11000111',B'11111111'     ;BTC=18
003FBA 0CF1 0CE3 0CFF 05641                         DT      B'11110001',B'11100011',B'11111111'     ;BTC=19
003FC0 0CE3 0CF1 0CFF 05642                         DT      B'11100011',B'11110001',B'11111111'     ;BTC=1A
003FC6 0CC7 0CF8 0CFF 05643                         DT      B'11000111',B'11111000',B'11111111'     ;BTC=1B
003FCC 0C8F 0CFC 0C7F 05644                         DT      B'10001111',B'11111100',B'01111111'     ;BTC=1C
003FD2 0C8F 0CFC 0C7F 05645                         DT      B'10001111',B'11111100',B'01111111'     ;BTC=1D
003FD8 0C8F 0CFC 0C7F 05646                         DT      B'10001111',B'11111100',B'01111111'     ;BTC=1E
003FDE 0CFF 0CFF 0CFF 05647                         DT      B'11111111',B'11111111',B'11111111'     ;BTC=1F
                      05648 
                      05649 
                      05650 
                      05651 
                      05652 
Warning[205]: Found directive in column 1. (ORG)
004000                05653 ORG 0X4000
004000                05654 FONT02H_CAP_Y
                      05655 
004000 0E00           05656         MOVLW   0
004002 6EFB           05657         MOVWF   PCLATU,0
004004 0E40           05658         MOVLW   40
004006 6EFA           05659         MOVWF   PCLATH,0
                      05660 
                      05661         
                      05662 
                      05663         
004008 C146 FFE8      05664                         MOVFF   BTCOUNT,WREG
00400C 90D8           05665                         BCF             STATUS,C
00400E 36E8           05666                         RLCF    WREG
                      05667 
                      05668                 
004010 26F9           05669                         ADDWF   PCL,1,0
004012 0CFF 0CFF 0CFF 05670                         DT      B'11111111',B'11111111',B'11111111'     ;BTC=00
004018 0C87 0CFF 0C0F 05671                         DT      B'10000111',B'11111111',B'00001111'     ;BTC=01
00401E 0C87 0CFF 0C0F 05672                         DT      B'10000111',B'11111111',B'00001111'     ;BTC=02
004024 0C87 0CFF 0C0F 05673                         DT      B'10000111',B'11111111',B'00001111'     ;BTC=03
MPASM  5.51                 20200227_P6MM.ASM   2-27-2020  19:46:00         PAGE 112


LOC  OBJECT CODE     LINE SOURCE TEXT
  VALUE

00402A 0C87 0CFF 0C0F 05674                         DT      B'10000111',B'11111111',B'00001111'     ;BTC=04
004030 0C87 0CFF 0C0F 05675                         DT      B'10000111',B'11111111',B'00001111'     ;BTC=05
004036 0C87 0CFF 0C0F 05676                         DT      B'10000111',B'11111111',B'00001111'     ;BTC=06
00403C 0C87 0CFF 0C0F 05677                         DT      B'10000111',B'11111111',B'00001111'     ;BTC=07
004042 0C87 0CFE 0C1F 05678                         DT      B'10000111',B'11111110',B'00011111'     ;BTC=08
004048 0CC3 0CFC 0C3F 05679                         DT      B'11000011',B'11111100',B'00111111'     ;BTC=09
00404E 0CE1 0CF8 0C7F 05680                         DT      B'11100001',B'11111000',B'01111111'     ;BTC=0A
004054 0CF0 0CF0 0CFF 05681                         DT      B'11110000',B'11110000',B'11111111'     ;BTC=0B
00405A 0CF8 0C61 0CFF 05682                         DT      B'11111000',B'01100001',B'11111111'     ;BTC=0C
004060 0CFC 0C03 0CFF 05683                         DT      B'11111100',B'00000011',B'11111111'     ;BTC=0D
004066 0CFE 0C07 0CFF 05684                         DT      B'11111110',B'00000111',B'11111111'     ;BTC=0E
00406C 0CFF 0C0F 0CFF 05685                         DT      B'11111111',B'00001111',B'11111111'     ;BTC=0F
004072 0CFF 0C0F 0CFF 05686                         DT      B'11111111',B'00001111',B'11111111'     ;BTC=10
                      05687 
                      05688 
004078                05689 FONT02H_LOW_Y
                      05690 
004078 0E00           05691         MOVLW   0
00407A 6EFB           05692         MOVWF   PCLATU,0
00407C 0E40           05693         MOVLW   40
00407E 6EFA           05694         MOVWF   PCLATH,0
                      05695 
                      05696         
                      05697 
                      05698         
004080 C146 FFE8      05699                         MOVFF   BTCOUNT,WREG
004084 90D8           05700                         BCF             STATUS,C
004086 36E8           05701                         RLCF    WREG
                      05702 
                      05703                 
004088 26F9           05704                         ADDWF   PCL,1,0
00408A 0CFF 0CFF 0CFF 05705                         DT      B'11111111',B'11111111',B'11111111'     ;BTC=00
004090 0CFF 0CFF 0CFF 05706                         DT      B'11111111',B'11111111',B'11111111'     ;BTC=01
004096 0CFF 0CFF 0CFF 05707                         DT      B'11111111',B'11111111',B'11111111'     ;BTC=02
00409C 0CFF 0CFF 0CFF 05708                         DT      B'11111111',B'11111111',B'11111111'     ;BTC=03
0040A2 0CFF 0CFF 0CFF 05709                         DT      B'11111111',B'11111111',B'11111111'     ;BTC=04
0040A8 0CFF 0CFF 0CFF 05710                         DT      B'11111111',B'11111111',B'11111111'     ;BTC=05
0040AE 0CFF 0CFF 0CFF 05711                         DT      B'11111111',B'11111111',B'11111111'     ;BTC=06
0040B4 0CFF 0CFF 0CFF 05712                         DT      B'11111111',B'11111111',B'11111111'     ;BTC=07
0040BA 0CFF 0CFF 0CFF 05713                         DT      B'11111111',B'11111111',B'11111111'     ;BTC=08
0040C0 0CFF 0CFF 0CFF 05714                         DT      B'11111111',B'11111111',B'11111111'     ;BTC=09
0040C6 0CFF 0CFF 0CFF 05715                         DT      B'11111111',B'11111111',B'11111111'     ;BTC=0A
0040CC 0CFF 0CFF 0CFF 05716                         DT      B'11111111',B'11111111',B'11111111'     ;BTC=0B
0040D2 0CFF 0CFF 0CFF 05717                         DT      B'11111111',B'11111111',B'11111111'     ;BTC=0C
0040D8 0CFF 0CFF 0CFF 05718                         DT      B'11111111',B'11111111',B'11111111'     ;BTC=0D
0040DE 0C8F 0CFC 0C7F 05719                         DT      B'10001111',B'11111100',B'01111111'     ;BTC=0E
0040E4 0C8F 0CFC 0C7F 05720                         DT      B'10001111',B'11111100',B'01111111'     ;BTC=0F
                      05721 
Warning[205]: Found directive in column 1. (ORG)
004100                05722 ORG 0X4100
004100                05723 FONT02L_CAP_Y
                      05724 
004100 0E00           05725         MOVLW   0
MPASM  5.51                 20200227_P6MM.ASM   2-27-2020  19:46:00         PAGE 113


LOC  OBJECT CODE     LINE SOURCE TEXT
  VALUE

004102 6EFB           05726         MOVWF   PCLATU,0
004104 0E41           05727         MOVLW   41
004106 6EFA           05728         MOVWF   PCLATH,0
                      05729 
                      05730 
                      05731 
                      05732 
004108 C146 FFE8      05733                         MOVFF   BTCOUNT,WREG
00410C 90D8           05734                         BCF             STATUS,C
00410E 36E8           05735                         RLCF    WREG
                      05736 
                      05737                 
004110 26F9           05738                         ADDWF   PCL,1,0
004112 0CFF 0C0F 0CFF 05739                         DT      B'11111111',B'00001111',B'11111111'     ;BTC=10
004118 0CFF 0C0F 0CFF 05740                         DT      B'11111111',B'00001111',B'11111111'     ;BTC=11
00411E 0CFF 0C0F 0CFF 05741                         DT      B'11111111',B'00001111',B'11111111'     ;BTC=12
004124 0CFF 0C0F 0CFF 05742                         DT      B'11111111',B'00001111',B'11111111'     ;BTC=13
00412A 0CFF 0C0F 0CFF 05743                         DT      B'11111111',B'00001111',B'11111111'     ;BTC=14
004130 0CFF 0C0F 0CFF 05744                         DT      B'11111111',B'00001111',B'11111111'     ;BTC=15
004136 0CFF 0C0F 0CFF 05745                         DT      B'11111111',B'00001111',B'11111111'     ;BTC=16
00413C 0CFF 0C0F 0CFF 05746                         DT      B'11111111',B'00001111',B'11111111'     ;BTC=17
004142 0CFF 0C0F 0CFF 05747                         DT      B'11111111',B'00001111',B'11111111'     ;BTC=18
004148 0CFF 0C0F 0CFF 05748                         DT      B'11111111',B'00001111',B'11111111'     ;BTC=19
00414E 0CFF 0C0F 0CFF 05749                         DT      B'11111111',B'00001111',B'11111111'     ;BTC=1A
004154 0CFF 0C0F 0CFF 05750                         DT      B'11111111',B'00001111',B'11111111'     ;BTC=1B
00415A 0CFF 0C0F 0CFF 05751                         DT      B'11111111',B'00001111',B'11111111'     ;BTC=1C
004160 0CFF 0C0F 0CFF 05752                         DT      B'11111111',B'00001111',B'11111111'     ;BTC=1D
004166 0CFF 0C0F 0CFF 05753                         DT      B'11111111',B'00001111',B'11111111'     ;BTC=1E
00416C 0CFF 0CFF 0CFF 05754                         DT      B'11111111',B'11111111',B'11111111'     ;BTC=1F
                      05755 
                      05756 
004172                05757 FONT02L_LOW_Y
                      05758 
004172 0E00           05759         MOVLW   0
004174 6EFB           05760         MOVWF   PCLATU,0
004176 0E41           05761         MOVLW   41
004178 6EFA           05762         MOVWF   PCLATH,0
                      05763 
                      05764 
                      05765 
                      05766 
00417A C146 FFE8      05767                         MOVFF   BTCOUNT,WREG
00417E 90D8           05768                         BCF             STATUS,C
004180 36E8           05769                         RLCF    WREG
                      05770 
                      05771                 
004182 26F9           05772                         ADDWF   PCL,1,0
004184 0C8F 0CFC 0C7F 05773                         DT      B'10001111',B'11111100',B'01111111'     ;BTC=10
00418A 0CC7 0CF8 0CFF 05774                         DT      B'11000111',B'11111000',B'11111111'     ;BTC=11
004190 0CE3 0CF1 0CFF 05775                         DT      B'11100011',B'11110001',B'11111111'     ;BTC=12
004196 0CF1 0CE3 0CFF 05776                         DT      B'11110001',B'11100011',B'11111111'     ;BTC=13
00419C 0CF8 0CC7 0CFF 05777                         DT      B'11111000',B'11000111',B'11111111'     ;BTC=14
0041A2 0CFC 0C0F 0CFF 05778                         DT      B'11111100',B'00001111',B'11111111'     ;BTC=15
MPASM  5.51                 20200227_P6MM.ASM   2-27-2020  19:46:00         PAGE 114


LOC  OBJECT CODE     LINE SOURCE TEXT
  VALUE

0041A8 0CFE 0C1F 0CFF 05779                         DT      B'11111110',B'00011111',B'11111111'     ;BTC=16
0041AE 0CFE 0C3F 0CFF 05780                         DT      B'11111110',B'00111111',B'11111111'     ;BTC=17
0041B4 0CFC 0C7F 0CFF 05781                         DT      B'11111100',B'01111111',B'11111111'     ;BTC=18
0041BA 0CF8 0CFF 0CFF 05782                         DT      B'11111000',B'11111111',B'11111111'     ;BTC=19
0041C0 0CF1 0CFF 0CFF 05783                         DT      B'11110001',B'11111111',B'11111111'     ;BTC=1A
0041C6 0CE3 0CFF 0CFF 05784                         DT      B'11100011',B'11111111',B'11111111'     ;BTC=1B
0041CC 0CC7 0CFF 0CFF 05785                         DT      B'11000111',B'11111111',B'11111111'     ;BTC=1C
0041D2 0C8F 0CFF 0CFF 05786                         DT      B'10001111',B'11111111',B'11111111'     ;BTC=1D
0041D8 0C8F 0CFF 0CFF 05787                         DT      B'10001111',B'11111111',B'11111111'     ;BTC=1E
0041DE 0C8F 0CFF 0CFF 05788                         DT      B'10001111',B'11111111',B'11111111'     ;BTC=1F
                      05789 
                      05790 
Warning[205]: Found directive in column 1. (ORG)
004200                05791 ORG 0X4200
004200                05792 FONT02H_CAP_Z
                      05793 
004200 0E00           05794         MOVLW   0
004202 6EFB           05795         MOVWF   PCLATU,0
004204 0E42           05796         MOVLW   42
004206 6EFA           05797         MOVWF   PCLATH,0
                      05798 
                      05799         
                      05800 
                      05801         
004208 C146 FFE8      05802                         MOVFF   BTCOUNT,WREG
00420C 90D8           05803                         BCF             STATUS,C
00420E 36E8           05804                         RLCF    WREG
                      05805 
                      05806                 
004210 26F9           05807                         ADDWF   PCL,1,0
004212 0CFF 0CFF 0CFF 05808                         DT      B'11111111',B'11111111',B'11111111'     ;BTC=00
004218 0C80 0C00 0C0F 05809                         DT      B'10000000',B'00000000',B'00001111'     ;BTC=01
00421E 0C80 0C00 0C0F 05810                         DT      B'10000000',B'00000000',B'00001111'     ;BTC=02
004224 0C80 0C00 0C0F 05811                         DT      B'10000000',B'00000000',B'00001111'     ;BTC=03
00422A 0C80 0C00 0C0F 05812                         DT      B'10000000',B'00000000',B'00001111'     ;BTC=04
004230 0CFF 0CFF 0C0F 05813                         DT      B'11111111',B'11111111',B'00001111'     ;BTC=05
004236 0CFF 0CFF 0C0F 05814                         DT      B'11111111',B'11111111',B'00001111'     ;BTC=06
00423C 0CFF 0CFF 0C0F 05815                         DT      B'11111111',B'11111111',B'00001111'     ;BTC=07
004242 0CFF 0CFE 0C1F 05816                         DT      B'11111111',B'11111110',B'00011111'     ;BTC=08
004248 0CFF 0CFC 0C3F 05817                         DT      B'11111111',B'11111100',B'00111111'     ;BTC=09
00424E 0CFF 0CF8 0C7F 05818                         DT      B'11111111',B'11111000',B'01111111'     ;BTC=0A
004254 0CFF 0CF0 0CFF 05819                         DT      B'11111111',B'11110000',B'11111111'     ;BTC=0B
00425A 0CFF 0CE1 0CFF 05820                         DT      B'11111111',B'11100001',B'11111111'     ;BTC=0C
004260 0CFF 0CC3 0CFF 05821                         DT      B'11111111',B'11000011',B'11111111'     ;BTC=0D
004266 0CFF 0C87 0CFF 05822                         DT      B'11111111',B'10000111',B'11111111'     ;BTC=0E 
00426C 0CFF 0C0F 0CFF 05823                         DT      B'11111111',B'00001111',B'11111111'     ;BTC=0F
                      05824 
                      05825 
004272                05826 FONT02H_LOW_Z
                      05827 
004272 0E00           05828         MOVLW   0
004274 6EFB           05829         MOVWF   PCLATU,0
004276 0E42           05830         MOVLW   42
MPASM  5.51                 20200227_P6MM.ASM   2-27-2020  19:46:00         PAGE 115


LOC  OBJECT CODE     LINE SOURCE TEXT
  VALUE

004278 6EFA           05831         MOVWF   PCLATH,0
                      05832 
                      05833         
                      05834 
                      05835         
00427A C146 FFE8      05836                         MOVFF   BTCOUNT,WREG
00427E 90D8           05837                         BCF             STATUS,C
004280 36E8           05838                         RLCF    WREG
                      05839 
                      05840                 
004282 26F9           05841                         ADDWF   PCL,1,0
004284 0CFF 0CFF 0CFF 05842                         DT      B'11111111',B'11111111',B'11111111'     ;BTC=00
00428A 0CFF 0CFF 0CFF 05843                         DT      B'11111111',B'11111111',B'11111111'     ;BTC=01
004290 0CFF 0CFF 0CFF 05844                         DT      B'11111111',B'11111111',B'11111111'     ;BTC=02
004296 0CFF 0CFF 0CFF 05845                         DT      B'11111111',B'11111111',B'11111111'     ;BTC=03
00429C 0CFF 0CFF 0CFF 05846                         DT      B'11111111',B'11111111',B'11111111'     ;BTC=04
0042A2 0CFF 0CFF 0CFF 05847                         DT      B'11111111',B'11111111',B'11111111'     ;BTC=05
0042A8 0CFF 0CFF 0CFF 05848                         DT      B'11111111',B'11111111',B'11111111'     ;BTC=06
0042AE 0CFF 0CFF 0CFF 05849                         DT      B'11111111',B'11111111',B'11111111'     ;BTC=07
0042B4 0CFF 0CFF 0CFF 05850                         DT      B'11111111',B'11111111',B'11111111'     ;BTC=08
0042BA 0CFF 0CFF 0CFF 05851                         DT      B'11111111',B'11111111',B'11111111'     ;BTC=09
0042C0 0CFF 0CFF 0CFF 05852                         DT      B'11111111',B'11111111',B'11111111'     ;BTC=0A
0042C6 0CFF 0CFF 0CFF 05853                         DT      B'11111111',B'11111111',B'11111111'     ;BTC=0B
0042CC 0CFF 0CFF 0CFF 05854                         DT      B'11111111',B'11111111',B'11111111'     ;BTC=0C
0042D2 0CFF 0CFF 0CFF 05855                         DT      B'11111111',B'11111111',B'11111111'     ;BTC=0D
0042D8 0C80 0C00 0C7F 05856                         DT      B'10000000',B'00000000',B'01111111'     ;BTC=0E
0042DE 0C80 0C00 0C7F 05857                         DT      B'10000000',B'00000000',B'01111111'     ;BTC=0F
                      05858 
                      05859 
Warning[205]: Found directive in column 1. (ORG)
004300                05860 ORG 0X4300
004300                05861 FONT02L_CAP_Z
                      05862 
004300 0E00           05863         MOVLW   0
004302 6EFB           05864         MOVWF   PCLATU,0
004304 0E43           05865         MOVLW   43
004306 6EFA           05866         MOVWF   PCLATH,0
                      05867 
                      05868 
                      05869 
                      05870 
004308 C146 FFE8      05871                         MOVFF   BTCOUNT,WREG
00430C 90D8           05872                         BCF             STATUS,C
00430E 36E8           05873                         RLCF    WREG
                      05874 
                      05875                 
004310 26F9           05876                         ADDWF   PCL,1,0
004312 0CFE 0C1F 0CFF 05877                         DT      B'11111110',B'00011111',B'11111111'     ;BTC=10
004318 0CFC 0C3F 0CFF 05878                         DT      B'11111100',B'00111111',B'11111111'     ;BTC=11
00431E 0CF8 0C7F 0CFF 05879                         DT      B'11111000',B'01111111',B'11111111'     ;BTC=12
004324 0CF0 0CFF 0CFF 05880                         DT      B'11110000',B'11111111',B'11111111'     ;BTC=13
00432A 0CE1 0CFF 0CFF 05881                         DT      B'11100001',B'11111111',B'11111111'     ;BTC=14
004330 0CC3 0CFF 0CFF 05882                         DT      B'11000011',B'11111111',B'11111111'     ;BTC=15
MPASM  5.51                 20200227_P6MM.ASM   2-27-2020  19:46:00         PAGE 116


LOC  OBJECT CODE     LINE SOURCE TEXT
  VALUE

004336 0C87 0CFF 0CFF 05883                         DT      B'10000111',B'11111111',B'11111111'     ;BTC=16
00433C 0C87 0CFF 0CFF 05884                         DT      B'10000111',B'11111111',B'11111111'     ;BTC=17
004342 0C87 0CFF 0CFF 05885                         DT      B'10000111',B'11111111',B'11111111'     ;BTC=18
004348 0C87 0CFF 0CFF 05886                         DT      B'10000111',B'11111111',B'11111111'     ;BTC=19
00434E 0C87 0CFF 0CFF 05887                         DT      B'10000111',B'11111111',B'11111111'     ;BTC=1A
004354 0C80 0C00 0C0F 05888                         DT      B'10000000',B'00000000',B'00001111'     ;BTC=1B
00435A 0C80 0C00 0C0F 05889                         DT      B'10000000',B'00000000',B'00001111'     ;BTC=1C
004360 0C80 0C00 0C0F 05890                         DT      B'10000000',B'00000000',B'00001111'     ;BTC=1D
004366 0C80 0C00 0C0F 05891                         DT      B'10000000',B'00000000',B'00001111'     ;BTC=1E
00436C 0CFF 0CFF 0CFF 05892                         DT      B'11111111',B'11111111',B'11111111'     ;BTC=1F
                      05893 
                      05894 
004372                05895 FONT02L_LOW_Z
                      05896 
004372 0E00           05897         MOVLW   0
004374 6EFB           05898         MOVWF   PCLATU,0
004376 0E43           05899         MOVLW   43
004378 6EFA           05900         MOVWF   PCLATH,0
                      05901 
                      05902 
                      05903 
                      05904 
00437A C146 FFE8      05905                         MOVFF   BTCOUNT,WREG
00437E 90D8           05906                         BCF             STATUS,C
004380 36E8           05907                         RLCF    WREG
                      05908 
                      05909                 
004382 26F9           05910                         ADDWF   PCL,1,0
004384 0C80 0C00 0CFF 05911                         DT      B'10000000',B'00000000',B'11111111'     ;BTC=10
00438A 0CFF 0CF1 0CFF 05912                         DT      B'11111111',B'11110001',B'11111111'     ;BTC=11
004390 0CFF 0CE3 0CFF 05913                         DT      B'11111111',B'11100011',B'11111111'     ;BTC=12
004396 0CFF 0CC7 0CFF 05914                         DT      B'11111111',B'11000111',B'11111111'     ;BTC=13
00439C 0CFF 0C8F 0CFF 05915                         DT      B'11111111',B'10001111',B'11111111'     ;BTC=14
0043A2 0CFF 0C1F 0CFF 05916                         DT      B'11111111',B'00011111',B'11111111'     ;BTC=15
0043A8 0CFE 0C3F 0CFF 05917                         DT      B'11111110',B'00111111',B'11111111'     ;BTC=16
0043AE 0CFC 0C7F 0CFF 05918                         DT      B'11111100',B'01111111',B'11111111'     ;BTC=17
0043B4 0CF8 0CFF 0CFF 05919                         DT      B'11111000',B'11111111',B'11111111'     ;BTC=18
0043BA 0CF1 0CFF 0CFF 05920                         DT      B'11110001',B'11111111',B'11111111'     ;BTC=19
0043C0 0CE3 0CFF 0CFF 05921                         DT      B'11100011',B'11111111',B'11111111'     ;BTC=1A
0043C6 0CC7 0CFF 0CFF 05922                         DT      B'11000111',B'11111111',B'11111111'     ;BTC=1B
0043CC 0C80 0C00 0C7F 05923                         DT      B'10000000',B'00000000',B'01111111'     ;BTC=1C
0043D2 0C80 0C00 0C7F 05924                         DT      B'10000000',B'00000000',B'01111111'     ;BTC=1D
0043D8 0C80 0C00 0C7F 05925                         DT      B'10000000',B'00000000',B'01111111'     ;BTC=1E
0043DE 0CFF 0CFF 0CFF 05926                         DT      B'11111111',B'11111111',B'11111111'     ;BTC=1F
                      05927 
                      05928 
                      05929 
                      05930 
                      05931 
                      05932 
                      05933 
                      05934 
                      05935 
MPASM  5.51                 20200227_P6MM.ASM   2-27-2020  19:46:00         PAGE 117


LOC  OBJECT CODE     LINE SOURCE TEXT
  VALUE

                      05936 
                      05937 
Warning[205]: Found directive in column 1. (ORG)
004400                05938 ORG 0X4400
004400                05939 FONT02H_CAP_ZERO
                      05940 
004400 0E00           05941         MOVLW   0
004402 6EFB           05942         MOVWF   PCLATU,0
004404 0E44           05943         MOVLW   44
004406 6EFA           05944         MOVWF   PCLATH,0
                      05945 
                      05946         
                      05947 
                      05948         
004408 C146 FFE8      05949                         MOVFF   BTCOUNT,WREG
00440C 90D8           05950                         BCF             STATUS,C
00440E 36E8           05951                         RLCF    WREG
                      05952 
                      05953                 
004410 26F9           05954                         ADDWF   PCL,1,0
004412 0CFF 0CFF 0CFF 05955                         DT      B'11111111',B'11111111',B'11111111'     ;BTC=00
004418 0CFC 0C01 0CFF 05956                         DT      B'11111100',B'00000001',B'11111111'     ;BTC=01
00441E 0CF8 0C00 0CFF 05957                         DT      B'11111000',B'00000000',B'11111111'     ;BTC=02
004424 0CF0 0C00 0C7F 05958                         DT      B'11110000',B'00000000',B'01111111'     ;BTC=03
00442A 0CE0 0CF8 0C3F 05959                         DT      B'11100000',B'11111000',B'00111111'     ;BTC=04
004430 0CC1 0CFC 0C1F 05960                         DT      B'11000001',B'11111100',B'00011111'     ;BTC=05
004436 0C81 0CFE 0C0F 05961                         DT      B'10000001',B'11111110',B'00001111'     ;BTC=06
00443C 0C80 0CFF 0C0F 05962                         DT      B'10000000',B'11111111',B'00001111'     ;BTC=07
004442 0C80 0C7F 0C0F 05963                         DT      B'10000000',B'01111111',B'00001111'     ;BTC=08
004448 0C80 0C7F 0C0F 05964                         DT      B'10000000',B'01111111',B'00001111'     ;BTC=09
00444E 0C84 0C3F 0C0F 05965                         DT      B'10000100',B'00111111',B'00001111'     ;BTC=0A
004454 0C84 0C3F 0C0F 05966                         DT      B'10000100',B'00111111',B'00001111'     ;BTC=0B
00445A 0C86 0C1F 0C0F 05967                         DT      B'10000110',B'00011111',B'00001111'     ;BTC=0C
004460 0C86 0C1F 0C0F 05968                         DT      B'10000110',B'00011111',B'00001111'     ;BTC=0D
004466 0C87 0C0F 0C0F 05969                         DT      B'10000111',B'00001111',B'00001111'     ;BTC=0E
00446C 0C87 0C0F 0C0F 05970                         DT      B'10000111',B'00001111',B'00001111'     ;BTC=0F
                      05971 
                      05972 
Warning[205]: Found directive in column 1. (ORG)
004500                05973 ORG 0X4500
004500                05974 FONT02L_CAP_ZERO
                      05975 
004500 0E00           05976         MOVLW   0
004502 6EFB           05977         MOVWF   PCLATU,0
004504 0E45           05978         MOVLW   45
004506 6EFA           05979         MOVWF   PCLATH,0
                      05980 
                      05981 
                      05982 
                      05983 
004508 C146 FFE8      05984                         MOVFF   BTCOUNT,WREG
00450C 90D8           05985                         BCF             STATUS,C
00450E 36E8           05986                         RLCF    WREG
MPASM  5.51                 20200227_P6MM.ASM   2-27-2020  19:46:00         PAGE 118


LOC  OBJECT CODE     LINE SOURCE TEXT
  VALUE

                      05987 
                      05988                 
004510 26F9           05989                         ADDWF   PCL,1,0
004512 0C87 0C87 0C0F 05990                         DT      B'10000111',B'10000111',B'00001111'     ;BTC=10
004518 0C87 0C87 0C0F 05991                         DT      B'10000111',B'10000111',B'00001111'     ;BTC=11
00451E 0C87 0CC3 0C0F 05992                         DT      B'10000111',B'11000011',B'00001111'     ;BTC=12
004524 0C87 0CC3 0C0F 05993                         DT      B'10000111',B'11000011',B'00001111'     ;BTC=13
00452A 0C87 0CE1 0C0F 05994                         DT      B'10000111',B'11100001',B'00001111'     ;BTC=14
004530 0C87 0CE1 0C0F 05995                         DT      B'10000111',B'11100001',B'00001111'     ;BTC=15
004536 0C87 0CF0 0C0F 05996                         DT      B'10000111',B'11110000',B'00001111'     ;BTC=16
00453C 0C87 0CF0 0C0F 05997                         DT      B'10000111',B'11110000',B'00001111'     ;BTC=17
004542 0C87 0CF8 0C0F 05998                         DT      B'10000111',B'11111000',B'00001111'     ;BTC=18
004548 0C83 0CFC 0C0F 05999                         DT      B'10000011',B'11111100',B'00001111'     ;BTC=19
00454E 0CC1 0CFC 0C1F 06000                         DT      B'11000001',B'11111100',B'00011111'     ;BTC=1A
004554 0CE0 0CF8 0C3F 06001                         DT      B'11100000',B'11111000',B'00111111'     ;BTC=1B
00455A 0CF0 0C00 0C7F 06002                         DT      B'11110000',B'00000000',B'01111111'     ;BTC=1C
004560 0CF8 0C00 0CFF 06003                         DT      B'11111000',B'00000000',B'11111111'     ;BTC=1D
004566 0CFC 0C01 0CFF 06004                         DT      B'11111100',B'00000001',B'11111111'     ;BTC=1E
00456C 0CFF 0CFF 0CFF 06005                         DT      B'11111111',B'11111111',B'11111111'     ;BTC=1F
                      06006 
                      06007 
Warning[205]: Found directive in column 1. (ORG)
004600                06008 ORG 0X4600
004600                06009 FONT02H_CAP_ONE
                      06010 
004600 0E00           06011         MOVLW   0
004602 6EFB           06012         MOVWF   PCLATU,0
004604 0E46           06013         MOVLW   46
004606 6EFA           06014         MOVWF   PCLATH,0
                      06015 
                      06016         
                      06017 
                      06018         
004608 C146 FFE8      06019                         MOVFF   BTCOUNT,WREG
00460C 90D8           06020                         BCF             STATUS,C
00460E 36E8           06021                         RLCF    WREG
                      06022 
                      06023                 
004610 26F9           06024                         ADDWF   PCL,1,0
004612 0CFF 0CFF 0CFF 06025                         DT      B'11111111',B'11111111',B'11111111'     ;BTC=00
004618 0CFE 0C3F 0CFF 06026                         DT      B'11111110',B'00111111',B'11111111'     ;BTC=01
00461E 0CFC 0C3F 0CFF 06027                         DT      B'11111100',B'00111111',B'11111111'     ;BTC=02
004624 0CF8 0C3F 0CFF 06028                         DT      B'11111000',B'00111111',B'11111111'     ;BTC=03
00462A 0CF0 0C3F 0CFF 06029                         DT      B'11110000',B'00111111',B'11111111'     ;BTC=04
004630 0CE0 0C3F 0CFF 06030                         DT      B'11100000',B'00111111',B'11111111'     ;BTC=05
004636 0CC0 0C3F 0CFF 06031                         DT      B'11000000',B'00111111',B'11111111'     ;BTC=06
00463C 0C84 0C3F 0CFF 06032                         DT      B'10000100',B'00111111',B'11111111'     ;BTC=07
004642 0CFC 0C3F 0CFF 06033                         DT      B'11111100',B'00111111',B'11111111'     ;BTC=08
004648 0CFC 0C3F 0CFF 06034                         DT      B'11111100',B'00111111',B'11111111'     ;BTC=09
00464E 0CFC 0C3F 0CFF 06035                         DT      B'11111100',B'00111111',B'11111111'     ;BTC=0A
004654 0CFC 0C3F 0CFF 06036                         DT      B'11111100',B'00111111',B'11111111'     ;BTC=0B
00465A 0CFC 0C3F 0CFF 06037                         DT      B'11111100',B'00111111',B'11111111'     ;BTC=0C
004660 0CFC 0C3F 0CFF 06038                         DT      B'11111100',B'00111111',B'11111111'     ;BTC=0D
MPASM  5.51                 20200227_P6MM.ASM   2-27-2020  19:46:00         PAGE 119


LOC  OBJECT CODE     LINE SOURCE TEXT
  VALUE

004666 0CFC 0C3F 0CFF 06039                         DT      B'11111100',B'00111111',B'11111111'     ;BTC=0E
00466C 0CFC 0C3F 0CFF 06040                         DT      B'11111100',B'00111111',B'11111111'     ;BTC=0F
                      06041 
                      06042 
Warning[205]: Found directive in column 1. (ORG)
004700                06043 ORG 0X4700
004700                06044 FONT02L_CAP_ONE
                      06045 
004700 0E00           06046         MOVLW   0
004702 6EFB           06047         MOVWF   PCLATU,0
004704 0E47           06048         MOVLW   47
004706 6EFA           06049         MOVWF   PCLATH,0
                      06050 
                      06051 
                      06052 
                      06053 
004708 C146 FFE8      06054                         MOVFF   BTCOUNT,WREG
00470C 90D8           06055                         BCF             STATUS,C
00470E 36E8           06056                         RLCF    WREG
                      06057 
                      06058                 
004710 26F9           06059                         ADDWF   PCL,1,0
                      06060 
004712 0CFC 0C3F 0CFF 06061                         DT      B'11111100',B'00111111',B'11111111'     ;BTC=10
004718 0CFC 0C3F 0CFF 06062                         DT      B'11111100',B'00111111',B'11111111'     ;BTC=11
00471E 0CFC 0C3F 0CFF 06063                         DT      B'11111100',B'00111111',B'11111111'     ;BTC=12
004724 0CFC 0C3F 0CFF 06064                         DT      B'11111100',B'00111111',B'11111111'     ;BTC=13
00472A 0CFC 0C3F 0CFF 06065                         DT      B'11111100',B'00111111',B'11111111'     ;BTC=14
004730 0CFC 0C3F 0CFF 06066                         DT      B'11111100',B'00111111',B'11111111'     ;BTC=15
004736 0CFC 0C3F 0CFF 06067                         DT      B'11111100',B'00111111',B'11111111'     ;BTC=16
00473C 0CFC 0C3F 0CFF 06068                         DT      B'11111100',B'00111111',B'11111111'     ;BTC=17
004742 0CFC 0C3F 0CFF 06069                         DT      B'11111100',B'00111111',B'11111111'     ;BTC=18
004748 0CFC 0C3F 0CFF 06070                         DT      B'11111100',B'00111111',B'11111111'     ;BTC=19
00474E 0CFC 0C3F 0CFF 06071                         DT      B'11111100',B'00111111',B'11111111'     ;BTC=1A
004754 0C80 0C00 0CFF 06072                         DT      B'10000000',B'00000000',B'11111111'     ;BTC=1B
00475A 0C80 0C00 0CFF 06073                         DT      B'10000000',B'00000000',B'11111111'     ;BTC=1C
004760 0C80 0C00 0CFF 06074                         DT      B'10000000',B'00000000',B'11111111'     ;BTC=1D
004766 0C80 0C00 0CFF 06075                         DT      B'10000000',B'00000000',B'11111111'     ;BTC=1E
00476C 0CFF 0CFF 0CFF 06076                         DT      B'11111111',B'11111111',B'11111111'     ;BTC=1F
                      06077 
                      06078 
Warning[205]: Found directive in column 1. (ORG)
004800                06079 ORG 0X4800
004800                06080 FONT02H_CAP_TWO
                      06081 
004800 0E00           06082         MOVLW   0
004802 6EFB           06083         MOVWF   PCLATU,0
004804 0E48           06084         MOVLW   48
004806 6EFA           06085         MOVWF   PCLATH,0
                      06086 
                      06087         
                      06088 
                      06089         
MPASM  5.51                 20200227_P6MM.ASM   2-27-2020  19:46:00         PAGE 120


LOC  OBJECT CODE     LINE SOURCE TEXT
  VALUE

004808 C146 FFE8      06090                         MOVFF   BTCOUNT,WREG
00480C 90D8           06091                         BCF             STATUS,C
00480E 36E8           06092                         RLCF    WREG
                      06093 
                      06094                 
004810 26F9           06095                         ADDWF   PCL,1,0
004812 0CFF 0CFF 0CFF 06096                         DT      B'11111111',B'11111111',B'11111111'     ;BTC=00
004818 0CE0 0C00 0CFF 06097                         DT      B'11100000',B'00000000',B'11111111'     ;BTC=01
00481E 0CC0 0C00 0C7F 06098                         DT      B'11000000',B'00000000',B'01111111'     ;BTC=02
004824 0C80 0C00 0C3F 06099                         DT      B'10000000',B'00000000',B'00111111'     ;BTC=03
00482A 0CFF 0CFC 0C1F 06100                         DT      B'11111111',B'11111100',B'00011111'     ;BTC=04
004830 0CFF 0CFE 0C0F 06101                         DT      B'11111111',B'11111110',B'00001111'     ;BTC=05
004836 0CFF 0CFF 0C0F 06102                         DT      B'11111111',B'11111111',B'00001111'     ;BTC=06
00483C 0CFF 0CFF 0C0F 06103                         DT      B'11111111',B'11111111',B'00001111'     ;BTC=07
004842 0CFF 0CFF 0C0F 06104                         DT      B'11111111',B'11111111',B'00001111'     ;BTC=08
004848 0CFF 0CFF 0C0F 06105                         DT      B'11111111',B'11111111',B'00001111'     ;BTC=09
00484E 0CFF 0CFF 0C0F 06106                         DT      B'11111111',B'11111111',B'00001111'     ;BTC=0A
004854 0CFF 0CFF 0C0F 06107                         DT      B'11111111',B'11111111',B'00001111'     ;BTC=0B
00485A 0CFF 0CFE 0C0F 06108                         DT      B'11111111',B'11111110',B'00001111'     ;BTC=0C
004860 0CFF 0CFC 0C1F 06109                         DT      B'11111111',B'11111100',B'00011111'     ;BTC=0D
004866 0CF8 0C00 0C3F 06110                         DT      B'11111000',B'00000000',B'00111111'     ;BTC=0E
00486C 0CF0 0C00 0C7F 06111                         DT      B'11110000',B'00000000',B'01111111'     ;BTC=0F
                      06112 
                      06113 
Warning[205]: Found directive in column 1. (ORG)
004900                06114 ORG 0X4900
004900                06115 FONT02L_CAP_TWO
                      06116 
004900 0E00           06117         MOVLW   0
004902 6EFB           06118         MOVWF   PCLATU,0
004904 0E49           06119         MOVLW   49
004906 6EFA           06120         MOVWF   PCLATH,0
                      06121 
                      06122 
                      06123 
                      06124 
004908 C146 FFE8      06125                         MOVFF   BTCOUNT,WREG
00490C 90D8           06126                         BCF             STATUS,C
00490E 36E8           06127                         RLCF    WREG
                      06128 
                      06129                 
004910 26F9           06130                         ADDWF   PCL,1,0
                      06131 
004912 0CE0 0C00 0CFF 06132                         DT      B'11100000',B'00000000',B'11111111'     ;BTC=10
004918 0CC1 0CFF 0CFF 06133                         DT      B'11000001',B'11111111',B'11111111'     ;BTC=11
00491E 0C83 0CFF 0CFF 06134                         DT      B'10000011',B'11111111',B'11111111'     ;BTC=12
004924 0C87 0CFF 0CFF 06135                         DT      B'10000111',B'11111111',B'11111111'     ;BTC=13
00492A 0C87 0CFF 0CFF 06136                         DT      B'10000111',B'11111111',B'11111111'     ;BTC=14
004930 0C87 0CFF 0CFF 06137                         DT      B'10000111',B'11111111',B'11111111'     ;BTC=15
004936 0C87 0CFF 0CFF 06138                         DT      B'10000111',B'11111111',B'11111111'     ;BTC=16
00493C 0C87 0CFF 0CFF 06139                         DT      B'10000111',B'11111111',B'11111111'     ;BTC=17
004942 0C87 0CFF 0CFF 06140                         DT      B'10000111',B'11111111',B'11111111'     ;BTC=18
004948 0C87 0CFF 0C0F 06141                         DT      B'10000111',B'11111111',B'00001111'     ;BTC=19
MPASM  5.51                 20200227_P6MM.ASM   2-27-2020  19:46:00         PAGE 121


LOC  OBJECT CODE     LINE SOURCE TEXT
  VALUE

00494E 0C87 0CFF 0C0F 06142                         DT      B'10000111',B'11111111',B'00001111'     ;BTC=1A
004954 0C80 0C00 0C0F 06143                         DT      B'10000000',B'00000000',B'00001111'     ;BTC=1B
00495A 0C80 0C00 0C0F 06144                         DT      B'10000000',B'00000000',B'00001111'     ;BTC=1C
004960 0C80 0C00 0C0F 06145                         DT      B'10000000',B'00000000',B'00001111'     ;BTC=1D
004966 0C80 0C00 0C0F 06146                         DT      B'10000000',B'00000000',B'00001111'     ;BTC=1E
00496C 0CFF 0CFF 0CFF 06147                         DT      B'11111111',B'11111111',B'11111111'     ;BTC=1F
                      06148 
                      06149 
                      06150 
Warning[205]: Found directive in column 1. (ORG)
004A00                06151 ORG 0X4A00
004A00                06152 FONT02H_CAP_THREE
                      06153 
004A00 0E00           06154         MOVLW   0
004A02 6EFB           06155         MOVWF   PCLATU,0
004A04 0E4A           06156         MOVLW   4A
004A06 6EFA           06157         MOVWF   PCLATH,0
                      06158 
                      06159         
                      06160 
                      06161         
004A08 C146 FFE8      06162                         MOVFF   BTCOUNT,WREG
004A0C 90D8           06163                         BCF             STATUS,C
004A0E 36E8           06164                         RLCF    WREG
                      06165 
                      06166                 
004A10 26F9           06167                         ADDWF   PCL,1,0
004A12 0CFF 0CFF 0CFF 06168                         DT      B'11111111',B'11111111',B'11111111'     ;BTC=00
004A18 0CF0 0C00 0CFF 06169                         DT      B'11110000',B'00000000',B'11111111'     ;BTC=01
004A1E 0CE0 0C00 0C7F 06170                         DT      B'11100000',B'00000000',B'01111111'     ;BTC=02
004A24 0CC0 0C00 0C3F 06171                         DT      B'11000000',B'00000000',B'00111111'     ;BTC=03
004A2A 0C80 0C00 0C1F 06172                         DT      B'10000000',B'00000000',B'00011111'     ;BTC=04
004A30 0CFF 0CFC 0C0F 06173                         DT      B'11111111',B'11111100',B'00001111'     ;BTC=05
004A36 0CFF 0CFE 0C0F 06174                         DT      B'11111111',B'11111110',B'00001111'     ;BTC=06
004A3C 0CFF 0CFF 0C0F 06175                         DT      B'11111111',B'11111111',B'00001111'     ;BTC=07
004A42 0CFF 0CFF 0C0F 06176                         DT      B'11111111',B'11111111',B'00001111'     ;BTC=08
004A48 0CFF 0CFF 0C0F 06177                         DT      B'11111111',B'11111111',B'00001111'     ;BTC=09
004A4E 0CFF 0CFF 0C0F 06178                         DT      B'11111111',B'11111111',B'00001111'     ;BTC=0A
004A54 0CFF 0CFF 0C0F 06179                         DT      B'11111111',B'11111111',B'00001111'     ;BTC=0B
004A5A 0CFF 0CFE 0C0F 06180                         DT      B'11111111',B'11111110',B'00001111'     ;BTC=0C
004A60 0CFF 0CFC 0C1F 06181                         DT      B'11111111',B'11111100',B'00011111'     ;BTC=0D
004A66 0CF8 0C00 0C3F 06182                         DT      B'11111000',B'00000000',B'00111111'     ;BTC=0E
004A6C 0CF8 0C00 0C7F 06183                         DT      B'11111000',B'00000000',B'01111111'     ;BTC=0F
                      06184 
                      06185 
Warning[205]: Found directive in column 1. (ORG)
004B00                06186 ORG 0X4B00
004B00                06187 FONT02L_CAP_THREE
                      06188 
004B00 0E00           06189         MOVLW   0
004B02 6EFB           06190         MOVWF   PCLATU,0
004B04 0E4B           06191         MOVLW   4B
004B06 6EFA           06192         MOVWF   PCLATH,0
MPASM  5.51                 20200227_P6MM.ASM   2-27-2020  19:46:00         PAGE 122


LOC  OBJECT CODE     LINE SOURCE TEXT
  VALUE

                      06193 
                      06194 
                      06195 
                      06196 
004B08 C146 FFE8      06197                         MOVFF   BTCOUNT,WREG
004B0C 90D8           06198                         BCF             STATUS,C
004B0E 36E8           06199                         RLCF    WREG
                      06200 
                      06201                 
004B10 26F9           06202                         ADDWF   PCL,1,0
                      06203 
004B12 0CF8 0C00 0C7F 06204                         DT      B'11111000',B'00000000',B'01111111'     ;BTC=10
004B18 0CF8 0C00 0C3F 06205                         DT      B'11111000',B'00000000',B'00111111'     ;BTC=11
004B1E 0CFF 0CFC 0C1F 06206                         DT      B'11111111',B'11111100',B'00011111'     ;BTC=12
004B24 0CFF 0CFE 0C0F 06207                         DT      B'11111111',B'11111110',B'00001111'     ;BTC=13
004B2A 0CFF 0CFF 0C0F 06208                         DT      B'11111111',B'11111111',B'00001111'     ;BTC=14
004B30 0CFF 0CFF 0C0F 06209                         DT      B'11111111',B'11111111',B'00001111'     ;BTC=15
004B36 0CFF 0CFF 0C0F 06210                         DT      B'11111111',B'11111111',B'00001111'     ;BTC=16
004B3C 0CFF 0CFF 0C0F 06211                         DT      B'11111111',B'11111111',B'00001111'     ;BTC=17
004B42 0CFF 0CFF 0C0F 06212                         DT      B'11111111',B'11111111',B'00001111'     ;BTC=18
004B48 0CFF 0CFE 0C0F 06213                         DT      B'11111111',B'11111110',B'00001111'     ;BTC=19
004B4E 0CFF 0CFC 0C0F 06214                         DT      B'11111111',B'11111100',B'00001111'     ;BTC=1A
004B54 0C80 0C00 0C1F 06215                         DT      B'10000000',B'00000000',B'00011111'     ;BTC=1B
004B5A 0CC0 0C00 0C3F 06216                         DT      B'11000000',B'00000000',B'00111111'     ;BTC=1C
004B60 0CE0 0C00 0C7F 06217                         DT      B'11100000',B'00000000',B'01111111'     ;BTC=1D
004B66 0CF0 0C00 0CFF 06218                         DT      B'11110000',B'00000000',B'11111111'     ;BTC=1E
004B6C 0CFF 0CFF 0CFF 06219                         DT      B'11111111',B'11111111',B'11111111'     ;BTC=1F
                      06220 
                      06221 
Warning[205]: Found directive in column 1. (ORG)
004C00                06222 ORG 0X4C00
004C00                06223 FONT02H_CAP_FOUR
                      06224 
004C00 0E00           06225         MOVLW   0
004C02 6EFB           06226         MOVWF   PCLATU,0
004C04 0E4C           06227         MOVLW   4C
004C06 6EFA           06228         MOVWF   PCLATH,0
                      06229 
                      06230         
                      06231 
                      06232         
004C08 C146 FFE8      06233                         MOVFF   BTCOUNT,WREG
004C0C 90D8           06234                         BCF             STATUS,C
004C0E 36E8           06235                         RLCF    WREG
                      06236 
                      06237                 
004C10 26F9           06238                         ADDWF   PCL,1,0
004C12 0CFF 0CFF 0CFF 06239                         DT      B'11111111',B'11111111',B'11111111'     ;BTC=00
004C18 0CFF 0CFF 0C3F 06240                         DT      B'11111111',B'11111111',B'00111111'     ;BTC=01
004C1E 0CFF 0CFE 0C3F 06241                         DT      B'11111111',B'11111110',B'00111111'     ;BTC=02
004C24 0CFF 0CFC 0C3F 06242                         DT      B'11111111',B'11111100',B'00111111'     ;BTC=03
004C2A 0CFF 0CF8 0C3F 06243                         DT      B'11111111',B'11111000',B'00111111'     ;BTC=04
004C30 0CFF 0CF0 0C3F 06244                         DT      B'11111111',B'11110000',B'00111111'     ;BTC=05
MPASM  5.51                 20200227_P6MM.ASM   2-27-2020  19:46:00         PAGE 123


LOC  OBJECT CODE     LINE SOURCE TEXT
  VALUE

004C36 0CFF 0CE0 0C3F 06245                         DT      B'11111111',B'11100000',B'00111111'     ;BTC=06
004C3C 0CFF 0CC0 0C3F 06246                         DT      B'11111111',B'11000000',B'00111111'     ;BTC=07
004C42 0CFF 0C84 0C3F 06247                         DT      B'11111111',B'10000100',B'00111111'     ;BTC=08
004C48 0CFF 0C0C 0C3F 06248                         DT      B'11111111',B'00001100',B'00111111'     ;BTC=09
004C4E 0CFE 0C1C 0C3F 06249                         DT      B'11111110',B'00011100',B'00111111'     ;BTC=0A
004C54 0CFC 0C3C 0C3F 06250                         DT      B'11111100',B'00111100',B'00111111'     ;BTC=0B
004C5A 0CF8 0C7C 0C3F 06251                         DT      B'11111000',B'01111100',B'00111111'     ;BTC=0C
004C60 0CF0 0CFC 0C3F 06252                         DT      B'11110000',B'11111100',B'00111111'     ;BTC=0D
004C66 0CE1 0CFC 0C3F 06253                         DT      B'11100001',B'11111100',B'00111111'     ;BTC=0E
004C6C 0CC3 0CFC 0C3F 06254                         DT      B'11000011',B'11111100',B'00111111'     ;BTC=0F
                      06255 
Warning[205]: Found directive in column 1. (ORG)
004D00                06256 ORG 0X4D00
004D00                06257 FONT02L_CAP_FOUR
                      06258 
004D00 0E00           06259         MOVLW   0
004D02 6EFB           06260         MOVWF   PCLATU,0
004D04 0E4D           06261         MOVLW   4D
004D06 6EFA           06262         MOVWF   PCLATH,0
                      06263 
                      06264 
                      06265 
                      06266 
004D08 C146 FFE8      06267                         MOVFF   BTCOUNT,WREG
004D0C 90D8           06268                         BCF             STATUS,C
004D0E 36E8           06269                         RLCF    WREG
                      06270 
                      06271                 
004D10 26F9           06272                         ADDWF   PCL,1,0
004D12 0C80 0C00 0C0F 06273                         DT      B'10000000',B'00000000',B'00001111'     ;BTC=10
004D18 0C80 0C00 0C0F 06274                         DT      B'10000000',B'00000000',B'00001111'     ;BTC=11
004D1E 0C80 0C00 0C0F 06275                         DT      B'10000000',B'00000000',B'00001111'     ;BTC=12
004D24 0C80 0C00 0C0F 06276                         DT      B'10000000',B'00000000',B'00001111'     ;BTC=13
004D2A 0CFF 0CFC 0C3F 06277                         DT      B'11111111',B'11111100',B'00111111'     ;BTC=14
004D30 0CFF 0CFC 0C3F 06278                         DT      B'11111111',B'11111100',B'00111111'     ;BTC=15
004D36 0CFF 0CFC 0C3F 06279                         DT      B'11111111',B'11111100',B'00111111'     ;BTC=16
004D3C 0CFF 0CFC 0C3F 06280                         DT      B'11111111',B'11111100',B'00111111'     ;BTC=17
004D42 0CFF 0CFC 0C3F 06281                         DT      B'11111111',B'11111100',B'00111111'     ;BTC=18
004D48 0CFF 0CFC 0C3F 06282                         DT      B'11111111',B'11111100',B'00111111'     ;BTC=19
004D4E 0CFF 0CFC 0C3F 06283                         DT      B'11111111',B'11111100',B'00111111'     ;BTC=1A
004D54 0CFF 0CFC 0C3F 06284                         DT      B'11111111',B'11111100',B'00111111'     ;BTC=1B
004D5A 0CFF 0CFC 0C3F 06285                         DT      B'11111111',B'11111100',B'00111111'     ;BTC=1C
004D60 0CFF 0CFC 0C3F 06286                         DT      B'11111111',B'11111100',B'00111111'     ;BTC=1D
004D66 0CFF 0CFC 0C3F 06287                         DT      B'11111111',B'11111100',B'00111111'     ;BTC=1E
004D6C 0CFF 0CFF 0CFF 06288                         DT      B'11111111',B'11111111',B'11111111'     ;BTC=1F
                      06289 
                      06290 
                      06291 
Warning[205]: Found directive in column 1. (ORG)
004E00                06292 ORG 0X4E00
004E00                06293 FONT02H_CAP_FIVE
                      06294 
004E00 0E00           06295         MOVLW   0
MPASM  5.51                 20200227_P6MM.ASM   2-27-2020  19:46:00         PAGE 124


LOC  OBJECT CODE     LINE SOURCE TEXT
  VALUE

004E02 6EFB           06296         MOVWF   PCLATU,0
004E04 0E4E           06297         MOVLW   4E
004E06 6EFA           06298         MOVWF   PCLATH,0
                      06299 
                      06300         
                      06301 
                      06302         
004E08 C146 FFE8      06303                         MOVFF   BTCOUNT,WREG
004E0C 90D8           06304                         BCF             STATUS,C
004E0E 36E8           06305                         RLCF    WREG
                      06306 
                      06307                 
004E10 26F9           06308                         ADDWF   PCL,1,0
004E12 0CFF 0CFF 0CFF 06309                         DT      B'11111111',B'11111111',B'11111111'     ;BTC=00
004E18 0C80 0C00 0C0F 06310                         DT      B'10000000',B'00000000',B'00001111'     ;BTC=01
004E1E 0C80 0C00 0C0F 06311                         DT      B'10000000',B'00000000',B'00001111'     ;BTC=02
004E24 0C80 0C00 0C0F 06312                         DT      B'10000000',B'00000000',B'00001111'     ;BTC=03
004E2A 0C80 0C00 0C0F 06313                         DT      B'10000000',B'00000000',B'00001111'     ;BTC=04
004E30 0C87 0CFF 0CFF 06314                         DT      B'10000111',B'11111111',B'11111111'     ;BTC=05
004E36 0C87 0CFF 0CFF 06315                         DT      B'10000111',B'11111111',B'11111111'     ;BTC=06
004E3C 0C87 0CFF 0CFF 06316                         DT      B'10000111',B'11111111',B'11111111'     ;BTC=07
004E42 0C87 0CFF 0CFF 06317                         DT      B'10000111',B'11111111',B'11111111'     ;BTC=08
004E48 0C87 0CFF 0CFF 06318                         DT      B'10000111',B'11111111',B'11111111'     ;BTC=09
004E4E 0C87 0CFF 0CFF 06319                         DT      B'10000111',B'11111111',B'11111111'     ;BTC=0A
004E54 0C87 0CFF 0CFF 06320                         DT      B'10000111',B'11111111',B'11111111'     ;BTC=0B
004E5A 0C80 0C00 0CFF 06321                         DT      B'10000000',B'00000000',B'11111111'     ;BTC=0C
004E60 0C80 0C00 0C7F 06322                         DT      B'10000000',B'00000000',B'01111111'     ;BTC=0D
004E66 0C80 0C00 0C3F 06323                         DT      B'10000000',B'00000000',B'00111111'     ;BTC=0E
004E6C 0C80 0C00 0C1F 06324                         DT      B'10000000',B'00000000',B'00011111'     ;BTC=0F
Warning[205]: Found directive in column 1. (ORG)
004F00                06325 ORG 0X4F00
004F00                06326 FONT02L_CAP_FIVE
                      06327 
004F00 0E00           06328         MOVLW   0
004F02 6EFB           06329         MOVWF   PCLATU,0
004F04 0E4F           06330         MOVLW   4F
004F06 6EFA           06331         MOVWF   PCLATH,0
                      06332 
                      06333 
                      06334 
                      06335 
004F08 C146 FFE8      06336                         MOVFF   BTCOUNT,WREG
004F0C 90D8           06337                         BCF             STATUS,C
004F0E 36E8           06338                         RLCF    WREG
                      06339 
                      06340                 
004F10 26F9           06341                         ADDWF   PCL,1,0
004F12 0CFF 0CFC 0C0F 06342                         DT      B'11111111',B'11111100',B'00001111'     ;BTC=10
004F18 0CFF 0CFE 0C0F 06343                         DT      B'11111111',B'11111110',B'00001111'     ;BTC=11
004F1E 0CFF 0CFF 0C0F 06344                         DT      B'11111111',B'11111111',B'00001111'     ;BTC=12
004F24 0CFF 0CFF 0C0F 06345                         DT      B'11111111',B'11111111',B'00001111'     ;BTC=13
004F2A 0CFF 0CFF 0C0F 06346                         DT      B'11111111',B'11111111',B'00001111'     ;BTC=14
004F30 0CFF 0CFF 0C0F 06347                         DT      B'11111111',B'11111111',B'00001111'     ;BTC=15
MPASM  5.51                 20200227_P6MM.ASM   2-27-2020  19:46:00         PAGE 125


LOC  OBJECT CODE     LINE SOURCE TEXT
  VALUE

004F36 0CFF 0CFF 0C0F 06348                         DT      B'11111111',B'11111111',B'00001111'     ;BTC=16
004F3C 0CFF 0CFF 0C0F 06349                         DT      B'11111111',B'11111111',B'00001111'     ;BTC=17
004F42 0CFF 0CFF 0C0F 06350                         DT      B'11111111',B'11111111',B'00001111'     ;BTC=18
004F48 0CFF 0CFE 0C0F 06351                         DT      B'11111111',B'11111110',B'00001111'     ;BTC=19
004F4E 0CFF 0CFC 0C0F 06352                         DT      B'11111111',B'11111100',B'00001111'     ;BTC=1A
004F54 0C80 0C00 0C1F 06353                         DT      B'10000000',B'00000000',B'00011111'     ;BTC=1B
004F5A 0CC0 0C00 0C3F 06354                         DT      B'11000000',B'00000000',B'00111111'     ;BTC=1C
004F60 0CE0 0C00 0C7F 06355                         DT      B'11100000',B'00000000',B'01111111'     ;BTC=1D
004F66 0CF0 0C00 0CFF 06356                         DT      B'11110000',B'00000000',B'11111111'     ;BTC=1E
004F6C 0CFF 0CFF 0CFF 06357                         DT      B'11111111',B'11111111',B'11111111'     ;BTC=1F
                      06358 
                      06359 
Warning[205]: Found directive in column 1. (ORG)
005000                06360 ORG 0X5000
005000                06361 FONT02H_CAP_SIX
                      06362 
005000 0E00           06363         MOVLW   0
005002 6EFB           06364         MOVWF   PCLATU,0
005004 0E50           06365         MOVLW   50
005006 6EFA           06366         MOVWF   PCLATH,0
                      06367 
                      06368         
                      06369 
                      06370         
005008 C146 FFE8      06371                         MOVFF   BTCOUNT,WREG
00500C 90D8           06372                         BCF             STATUS,C
00500E 36E8           06373                         RLCF    WREG
                      06374 
                      06375                 
005010 26F9           06376                         ADDWF   PCL,1,0
005012 0CFF 0CFF 0CFF 06377                         DT      B'11111111',B'11111111',B'11111111'     ;BTC=00
005018 0CF8 0C00 0C7F 06378                         DT      B'11111000',B'00000000',B'01111111'     ;BTC=01
00501E 0CF0 0C00 0C3F 06379                         DT      B'11110000',B'00000000',B'00111111'     ;BTC=02
005024 0CE0 0C00 0C1F 06380                         DT      B'11100000',B'00000000',B'00011111'     ;BTC=03
00502A 0CC0 0C00 0C0F 06381                         DT      B'11000000',B'00000000',B'00001111'     ;BTC=04
005030 0C81 0CFE 0C0F 06382                         DT      B'10000001',B'11111110',B'00001111'     ;BTC=05
005036 0C83 0CFF 0C0F 06383                         DT      B'10000011',B'11111111',B'00001111'     ;BTC=06
00503C 0C87 0CFF 0CFF 06384                         DT      B'10000111',B'11111111',B'11111111'     ;BTC=07
005042 0C87 0CFF 0CFF 06385                         DT      B'10000111',B'11111111',B'11111111'     ;BTC=08
005048 0C87 0CFF 0CFF 06386                         DT      B'10000111',B'11111111',B'11111111'     ;BTC=07
00504E 0C87 0CFF 0CFF 06387                         DT      B'10000111',B'11111111',B'11111111'     ;BTC=0A
005054 0C87 0CFF 0CFF 06388                         DT      B'10000111',B'11111111',B'11111111'     ;BTC=0B
00505A 0C87 0CFF 0CFF 06389                         DT      B'10000111',B'11111111',B'11111111'     ;BTC=0C
005060 0C87 0CFF 0CFF 06390                         DT      B'10000111',B'11111111',B'11111111'     ;BTC=0D
005066 0C86 0C00 0CFF 06391                         DT      B'10000110',B'00000000',B'11111111'     ;BTC=0E
00506C 0C84 0C00 0C7F 06392                         DT      B'10000100',B'00000000',B'01111111'     ;BTC=0F
                      06393         
Warning[205]: Found directive in column 1. (ORG)
005100                06394 ORG 0X5100
005100                06395 FONT02L_CAP_SIX
                      06396 
005100 0E00           06397         MOVLW   0
005102 6EFB           06398         MOVWF   PCLATU,0
MPASM  5.51                 20200227_P6MM.ASM   2-27-2020  19:46:00         PAGE 126


LOC  OBJECT CODE     LINE SOURCE TEXT
  VALUE

005104 0E51           06399         MOVLW   51
005106 6EFA           06400         MOVWF   PCLATH,0
                      06401 
                      06402 
                      06403 
                      06404 
005108 C146 FFE8      06405                         MOVFF   BTCOUNT,WREG
00510C 90D8           06406                         BCF             STATUS,C
00510E 36E8           06407                         RLCF    WREG
                      06408 
                      06409                 
005110 26F9           06410                         ADDWF   PCL,1,0
005112 0C80 0C00 0C3F 06411                         DT      B'10000000',B'00000000',B'00111111'     ;BTC=10
005118 0C80 0C00 0C1F 06412                         DT      B'10000000',B'00000000',B'00011111'     ;BTC=11
00511E 0C81 0CFC 0C0F 06413                         DT      B'10000001',B'11111100',B'00001111'     ;BTC=12
005124 0C83 0CFE 0C0F 06414                         DT      B'10000011',B'11111110',B'00001111'     ;BTC=13
00512A 0C87 0CFF 0C0F 06415                         DT      B'10000111',B'11111111',B'00001111'     ;BTC=14
005130 0C87 0CFF 0C0F 06416                         DT      B'10000111',B'11111111',B'00001111'     ;BTC=15
005136 0C87 0CFF 0C0F 06417                         DT      B'10000111',B'11111111',B'00001111'     ;BTC=16
00513C 0C87 0CFF 0C0F 06418                         DT      B'10000111',B'11111111',B'00001111'     ;BTC=17
005142 0C87 0CFF 0C0F 06419                         DT      B'10000111',B'11111111',B'00001111'     ;BTC=18
005148 0C83 0CFE 0C0F 06420                         DT      B'10000011',B'11111110',B'00001111'     ;BTC=19
00514E 0C81 0CFC 0C0F 06421                         DT      B'10000001',B'11111100',B'00001111'     ;BTC=1A
005154 0CC0 0C00 0C1F 06422                         DT      B'11000000',B'00000000',B'00011111'     ;BTC=1B
00515A 0CE0 0C00 0C3F 06423                         DT      B'11100000',B'00000000',B'00111111'     ;BTC=1C
005160 0CF0 0C00 0C7F 06424                         DT      B'11110000',B'00000000',B'01111111'     ;BTC=1D
005166 0CF8 0C00 0CFF 06425                         DT      B'11111000',B'00000000',B'11111111'     ;BTC=1E
00516C 0CFF 0CFF 0CFF 06426                         DT      B'11111111',B'11111111',B'11111111'     ;BTC=1F
                      06427 
                      06428 
                      06429 
Warning[205]: Found directive in column 1. (ORG)
005200                06430 ORG 0X5200
005200                06431 FONT02H_CAP_SEVEN
                      06432 
005200 0E00           06433         MOVLW   0
005202 6EFB           06434         MOVWF   PCLATU,0
005204 0E52           06435         MOVLW   52
005206 6EFA           06436         MOVWF   PCLATH,0
                      06437 
                      06438         
                      06439 
                      06440         
005208 C146 FFE8      06441                         MOVFF   BTCOUNT,WREG
00520C 90D8           06442                         BCF             STATUS,C
00520E 36E8           06443                         RLCF    WREG
                      06444 
                      06445                 
005210 26F9           06446                         ADDWF   PCL,1,0
005212 0CFF 0CFF 0CFF 06447                         DT      B'11111111',B'11111111',B'11111111'     ;BTC=00
005218 0C80 0C00 0C0F 06448                         DT      B'10000000',B'00000000',B'00001111'     ;BTC=01
00521E 0C80 0C00 0C0F 06449                         DT      B'10000000',B'00000000',B'00001111'     ;BTC=02
005224 0C80 0C00 0C0F 06450                         DT      B'10000000',B'00000000',B'00001111'     ;BTC=03
MPASM  5.51                 20200227_P6MM.ASM   2-27-2020  19:46:00         PAGE 127


LOC  OBJECT CODE     LINE SOURCE TEXT
  VALUE

00522A 0C80 0C00 0C0F 06451                         DT      B'10000000',B'00000000',B'00001111'     ;BTC=04
005230 0CFF 0CFF 0C0F 06452                         DT      B'11111111',B'11111111',B'00001111'     ;BTC=05
005236 0CFF 0CFF 0C0F 06453                         DT      B'11111111',B'11111111',B'00001111'     ;BTC=06
00523C 0CFF 0CFF 0C0F 06454                         DT      B'11111111',B'11111111',B'00001111'     ;BTC=07
005242 0CFF 0CFF 0C0F 06455                         DT      B'11111111',B'11111111',B'00001111'     ;BTC=08
005248 0CFF 0CFF 0C0F 06456                         DT      B'11111111',B'11111111',B'00001111'     ;BTC=09
00524E 0CFF 0CFE 0C1F 06457                         DT      B'11111111',B'11111110',B'00011111'     ;BTC=0A
005254 0CFF 0CFC 0C3F 06458                         DT      B'11111111',B'11111100',B'00111111'     ;BTC=0B
00525A 0CFF 0CF8 0C7F 06459                         DT      B'11111111',B'11111000',B'01111111'     ;BTC=0C
005260 0CFF 0CF0 0CFF 06460                         DT      B'11111111',B'11110000',B'11111111'     ;BTC=0D
005266 0CFF 0CE1 0CFF 06461                         DT      B'11111111',B'11100001',B'11111111'     ;BTC=0E
00526C 0CFF 0CC3 0CFF 06462                         DT      B'11111111',B'11000011',B'11111111'     ;BTC=0F
                      06463         
Warning[205]: Found directive in column 1. (ORG)
005300                06464 ORG 0X5300
005300                06465 FONT02L_CAP_SEVEN
                      06466 
005300 0E00           06467         MOVLW   0
005302 6EFB           06468         MOVWF   PCLATU,0
005304 0E53           06469         MOVLW   53
005306 6EFA           06470         MOVWF   PCLATH,0
                      06471 
                      06472 
                      06473 
                      06474 
005308 C146 FFE8      06475                         MOVFF   BTCOUNT,WREG
00530C 90D8           06476                         BCF             STATUS,C
00530E 36E8           06477                         RLCF    WREG
                      06478 
                      06479                 
005310 26F9           06480                         ADDWF   PCL,1,0
005312 0CFF 0C87 0CFF 06481                         DT      B'11111111',B'10000111',B'11111111'     ;BTC=10
005318 0CFF 0C87 0CFF 06482                         DT      B'11111111',B'10000111',B'11111111'     ;BTC=11
00531E 0CFF 0C87 0CFF 06483                         DT      B'11111111',B'10000111',B'11111111'     ;BTC=12
005324 0CFF 0C87 0CFF 06484                         DT      B'11111111',B'10000111',B'11111111'     ;BTC=13
00532A 0CFF 0C87 0CFF 06485                         DT      B'11111111',B'10000111',B'11111111'     ;BTC=14
005330 0CFF 0C87 0CFF 06486                         DT      B'11111111',B'10000111',B'11111111'     ;BTC=15
005336 0CFF 0C87 0CFF 06487                         DT      B'11111111',B'10000111',B'11111111'     ;BTC=16
00533C 0CFF 0C87 0CFF 06488                         DT      B'11111111',B'10000111',B'11111111'     ;BTC=17
005342 0CFF 0C87 0CFF 06489                         DT      B'11111111',B'10000111',B'11111111'     ;BTC=18
005348 0CFF 0C87 0CFF 06490                         DT      B'11111111',B'10000111',B'11111111'     ;BTC=19
00534E 0CFF 0C87 0CFF 06491                         DT      B'11111111',B'10000111',B'11111111'     ;BTC=1A
005354 0CFF 0C87 0CFF 06492                         DT      B'11111111',B'10000111',B'11111111'     ;BTC=1B
00535A 0CFF 0C87 0CFF 06493                         DT      B'11111111',B'10000111',B'11111111'     ;BTC=1C
005360 0CFF 0C87 0CFF 06494                         DT      B'11111111',B'10000111',B'11111111'     ;BTC=1D
005366 0CFF 0C87 0CFF 06495                         DT      B'11111111',B'10000111',B'11111111'     ;BTC=1E
00536C 0CFF 0CFF 0CFF 06496                         DT      B'11111111',B'11111111',B'11111111'     ;BTC=1F
                      06497 
                      06498 
                      06499 
Warning[205]: Found directive in column 1. (ORG)
005400                06500 ORG 0X5400
005400                06501 FONT02H_CAP_EIGHT
MPASM  5.51                 20200227_P6MM.ASM   2-27-2020  19:46:00         PAGE 128


LOC  OBJECT CODE     LINE SOURCE TEXT
  VALUE

005400 0E00           06502         MOVLW   0
005402 6EFB           06503         MOVWF   PCLATU,0
005404 0E54           06504         MOVLW   54
005406 6EFA           06505         MOVWF   PCLATH,0
                      06506 
                      06507         
                      06508 
                      06509         
005408 C146 FFE8      06510                         MOVFF   BTCOUNT,WREG
00540C 90D8           06511                         BCF             STATUS,C
00540E 36E8           06512                         RLCF    WREG
                      06513 
                      06514                 
005410 26F9           06515                         ADDWF   PCL,1,0
005412 0CFF 0CFF 0CFF 06516                         DT      B'11111111',B'11111111',B'11111111'     ;BTC=00
005418 0CF8 0C00 0CFF 06517                         DT      B'11111000',B'00000000',B'11111111'     ;BTC=01
00541E 0CF0 0C00 0C7F 06518                         DT      B'11110000',B'00000000',B'01111111'     ;BTC=02
005424 0CE0 0C00 0C3F 06519                         DT      B'11100000',B'00000000',B'00111111'     ;BTC=03
00542A 0CC1 0CFC 0C1F 06520                         DT      B'11000001',B'11111100',B'00011111'     ;BTC=04
005430 0C83 0CFE 0C0F 06521                         DT      B'10000011',B'11111110',B'00001111'     ;BTC=05
005436 0C87 0CFF 0C0F 06522                         DT      B'10000111',B'11111111',B'00001111'     ;BTC=06
00543C 0C87 0CFF 0C0F 06523                         DT      B'10000111',B'11111111',B'00001111'     ;BTC=07
005442 0C87 0CFF 0C0F 06524                         DT      B'10000111',B'11111111',B'00001111'     ;BTC=08
005448 0C87 0CFF 0C0F 06525                         DT      B'10000111',B'11111111',B'00001111'     ;BTC=09
00544E 0C87 0CFF 0C0F 06526                         DT      B'10000111',B'11111111',B'00001111'     ;BTC=0A
005454 0C87 0CFF 0C0F 06527                         DT      B'10000111',B'11111111',B'00001111'     ;BTC=0B
00545A 0C83 0CFE 0C0F 06528                         DT      B'10000011',B'11111110',B'00001111'     ;BTC=0C
005460 0CC1 0CFC 0C1F 06529                         DT      B'11000001',B'11111100',B'00011111'     ;BTC=0D
005466 0CE0 0C00 0C3F 06530                         DT      B'11100000',B'00000000',B'00111111'     ;BTC=0E
00546C 0CF0 0C00 0C7F 06531                         DT      B'11110000',B'00000000',B'01111111'     ;BTC=0F
                      06532         
Warning[205]: Found directive in column 1. (ORG)
005500                06533 ORG 0X5500
005500                06534 FONT02L_CAP_EIGHT
                      06535 
005500 0E00           06536         MOVLW   0
005502 6EFB           06537         MOVWF   PCLATU,0
005504 0E55           06538         MOVLW   55
005506 6EFA           06539         MOVWF   PCLATH,0
                      06540 
                      06541 
                      06542 
                      06543 
005508 C146 FFE8      06544                         MOVFF   BTCOUNT,WREG
00550C 90D8           06545                         BCF             STATUS,C
00550E 36E8           06546                         RLCF    WREG
                      06547 
                      06548                 
005510 26F9           06549                         ADDWF   PCL,1,0
005512 0CF0 0C00 0C7F 06550                         DT      B'11110000',B'00000000',B'01111111'     ;BTC=10
005518 0CE1 0CFC 0C3F 06551                         DT      B'11100001',B'11111100',B'00111111'     ;BTC=11
00551E 0CC3 0CFE 0C1F 06552                         DT      B'11000011',B'11111110',B'00011111'     ;BTC=12
005524 0C87 0CFF 0C0F 06553                         DT      B'10000111',B'11111111',B'00001111'     ;BTC=13
MPASM  5.51                 20200227_P6MM.ASM   2-27-2020  19:46:00         PAGE 129


LOC  OBJECT CODE     LINE SOURCE TEXT
  VALUE

00552A 0C87 0CFF 0C0F 06554                         DT      B'10000111',B'11111111',B'00001111'     ;BTC=14
005530 0C87 0CFF 0C0F 06555                         DT      B'10000111',B'11111111',B'00001111'     ;BTC=15
005536 0C87 0CFF 0C0F 06556                         DT      B'10000111',B'11111111',B'00001111'     ;BTC=16
00553C 0C87 0CFF 0C0F 06557                         DT      B'10000111',B'11111111',B'00001111'     ;BTC=17
005542 0C87 0CFF 0C0F 06558                         DT      B'10000111',B'11111111',B'00001111'     ;BTC=18
005548 0C87 0CFF 0C0F 06559                         DT      B'10000111',B'11111111',B'00001111'     ;BTC=19
00554E 0C83 0CFE 0C0F 06560                         DT      B'10000011',B'11111110',B'00001111'     ;BTC=1A
005554 0CC1 0CFC 0C1F 06561                         DT      B'11000001',B'11111100',B'00011111'     ;BTC=1B
00555A 0CE0 0C00 0C3F 06562                         DT      B'11100000',B'00000000',B'00111111'     ;BTC=1C
005560 0CF0 0C00 0C7F 06563                         DT      B'11110000',B'00000000',B'01111111'     ;BTC=1D
005566 0CF8 0C00 0CFF 06564                         DT      B'11111000',B'00000000',B'11111111'     ;BTC=1E
00556C 0CFF 0CFF 0CFF 06565                         DT      B'11111111',B'11111111',B'11111111'     ;BTC=1F
                      06566 
                      06567 
Warning[205]: Found directive in column 1. (ORG)
005600                06568 ORG 0X5600
005600                06569 FONT02H_CAP_NINE
005600 0E00           06570         MOVLW   0
005602 6EFB           06571         MOVWF   PCLATU,0
005604 0E56           06572         MOVLW   56
005606 6EFA           06573         MOVWF   PCLATH,0
                      06574 
                      06575         
                      06576 
                      06577         
005608 C146 FFE8      06578                         MOVFF   BTCOUNT,WREG
00560C 90D8           06579                         BCF             STATUS,C
00560E 36E8           06580                         RLCF    WREG
                      06581 
                      06582                 
005610 26F9           06583                         ADDWF   PCL,1,0
005612 0CFF 0CFF 0CFF 06584                         DT      B'11111111',B'11111111',B'11111111'     ;BTC=00
005618 0CF8 0C00 0CFF 06585                         DT      B'11111000',B'00000000',B'11111111'     ;BTC=01
00561E 0CF0 0C00 0C7F 06586                         DT      B'11110000',B'00000000',B'01111111'     ;BTC=02
005624 0CE0 0C00 0C3F 06587                         DT      B'11100000',B'00000000',B'00111111'     ;BTC=03
00562A 0CC0 0C00 0C1F 06588                         DT      B'11000000',B'00000000',B'00011111'     ;BTC=04
005630 0C81 0CFC 0C0F 06589                         DT      B'10000001',B'11111100',B'00001111'     ;BTC=05
005636 0C83 0CFE 0C0F 06590                         DT      B'10000011',B'11111110',B'00001111'     ;BTC=06
00563C 0C87 0CFF 0C0F 06591                         DT      B'10000111',B'11111111',B'00001111'     ;BTC=07
005642 0C87 0CFF 0C0F 06592                         DT      B'10000111',B'11111111',B'00001111'     ;BTC=08
005648 0C87 0CFF 0C0F 06593                         DT      B'10000111',B'11111111',B'00001111'     ;BTC=09
00564E 0C87 0CFF 0C0F 06594                         DT      B'10000111',B'11111111',B'00001111'     ;BTC=0A
005654 0C87 0CFF 0C0F 06595                         DT      B'10000111',B'11111111',B'00001111'     ;BTC=0B
00565A 0C83 0CFE 0C0F 06596                         DT      B'10000011',B'11111110',B'00001111'     ;BTC=0C
005660 0C81 0CFC 0C0F 06597                         DT      B'10000001',B'11111100',B'00001111'     ;BTC=0D
005666 0CC0 0C00 0C0F 06598                         DT      B'11000000',B'00000000',B'00001111'     ;BTC=0E
00566C 0CE0 0C00 0C0F 06599                         DT      B'11100000',B'00000000',B'00001111'     ;BTC=0F
                      06600         
Warning[205]: Found directive in column 1. (ORG)
005700                06601 ORG 0X5700
005700                06602 FONT02L_CAP_NINE
005700 0E00           06603         MOVLW   0
005702 6EFB           06604         MOVWF   PCLATU,0
MPASM  5.51                 20200227_P6MM.ASM   2-27-2020  19:46:00         PAGE 130


LOC  OBJECT CODE     LINE SOURCE TEXT
  VALUE

005704 0E57           06605         MOVLW   57
005706 6EFA           06606         MOVWF   PCLATH,0
                      06607 
                      06608 
                      06609 
                      06610 
005708 C146 FFE8      06611                         MOVFF   BTCOUNT,WREG
00570C 90D8           06612                         BCF             STATUS,C
00570E 36E8           06613                         RLCF    WREG
                      06614 
                      06615                 
005710 26F9           06616                         ADDWF   PCL,1,0
005712 0CF0 0C01 0C0F 06617                         DT      B'11110000',B'00000001',B'00001111'     ;BTC=10
005718 0CF8 0C03 0C0F 06618                         DT      B'11111000',B'00000011',B'00001111'     ;BTC=11
00571E 0CFF 0CFF 0C0F 06619                         DT      B'11111111',B'11111111',B'00001111'     ;BTC=12
005724 0CFF 0CFF 0C0F 06620                         DT      B'11111111',B'11111111',B'00001111'     ;BTC=13
00572A 0CFF 0CFF 0C0F 06621                         DT      B'11111111',B'11111111',B'00001111'     ;BTC=14
005730 0CFF 0CFF 0C0F 06622                         DT      B'11111111',B'11111111',B'00001111'     ;BTC=15
005736 0CFF 0CFF 0C0F 06623                         DT      B'11111111',B'11111111',B'00001111'     ;BTC=16
00573C 0CFF 0CFF 0C0F 06624                         DT      B'11111111',B'11111111',B'00001111'     ;BTC=17
005742 0CFF 0CFF 0C0F 06625                         DT      B'11111111',B'11111111',B'00001111'     ;BTC=18
005748 0C87 0CFE 0C0F 06626                         DT      B'10000111',B'11111110',B'00001111'     ;BTC=19
00574E 0C83 0CFC 0C0F 06627                         DT      B'10000011',B'11111100',B'00001111'     ;BTC=1A
005754 0C80 0C00 0C1F 06628                         DT      B'10000000',B'00000000',B'00011111'     ;BTC=1B
00575A 0CC0 0C00 0C3F 06629                         DT      B'11000000',B'00000000',B'00111111'     ;BTC=1C
005760 0CE0 0C00 0C7F 06630                         DT      B'11100000',B'00000000',B'01111111'     ;BTC=1D
005766 0CF0 0C00 0CFF 06631                         DT      B'11110000',B'00000000',B'11111111'     ;BTC=1E
00576C 0CFF 0CFF 0CFF 06632                         DT      B'11111111',B'11111111',B'11111111'     ;BTC=1F
                      06633 
                      06634 
Warning[205]: Found directive in column 1. (ORG)
005800                06635 ORG 0X5800
005800                06636 FONT02H_CAP_ENYE
005800 0E00           06637         MOVLW   0
005802 6EFB           06638         MOVWF   PCLATU,0
005804 0E58           06639         MOVLW   58
005806 6EFA           06640         MOVWF   PCLATH,0
                      06641 
                      06642         
                      06643 
                      06644         
005808 C146 FFE8      06645                         MOVFF   BTCOUNT,WREG
00580C 90D8           06646                         BCF             STATUS,C
00580E 36E8           06647                         RLCF    WREG
                      06648 
                      06649                 
005810 26F9           06650                         ADDWF   PCL,1,0
005812 0CFF 0CFF 0CFF 06651                         DT      B'11111111',B'11111111',B'11111111'     ;BTC=00
005818 0CE0 0C3F 0CBF 06652                         DT      B'11100000',B'00111111',B'10111111'     ;BTC=01
00581E 0CDF 0CC0 0C7F 06653                         DT      B'11011111',B'11000000',B'01111111'     ;BTC=02
005824 0CFF 0CFF 0CFF 06654                         DT      B'11111111',B'11111111',B'11111111'     ;BTC=03
00582A 0C83 0CFF 0C0F 06655                         DT      B'10000011',B'11111111',B'00001111'     ;BTC=04
005830 0C83 0CFF 0C0F 06656                         DT      B'10000011',B'11111111',B'00001111'     ;BTC=05
MPASM  5.51                 20200227_P6MM.ASM   2-27-2020  19:46:00         PAGE 131


LOC  OBJECT CODE     LINE SOURCE TEXT
  VALUE

005836 0C81 0CFF 0C0F 06657                         DT      B'10000001',B'11111111',B'00001111'     ;BTC=06
00583C 0C81 0CFF 0C0F 06658                         DT      B'10000001',B'11111111',B'00001111'     ;BTC=07
005842 0C80 0CFF 0C0F 06659                         DT      B'10000000',B'11111111',B'00001111'     ;BTC=08
005848 0C80 0CFF 0C0F 06660                         DT      B'10000000',B'11111111',B'00001111'     ;BTC=09
00584E 0C80 0C7F 0C0F 06661                         DT      B'10000000',B'01111111',B'00001111'     ;BTC=0A
005854 0C80 0C7F 0C0F 06662                         DT      B'10000000',B'01111111',B'00001111'     ;BTC=0B
00585A 0C84 0C3F 0C0F 06663                         DT      B'10000100',B'00111111',B'00001111'     ;BTC=0C
005860 0C84 0C3F 0C0F 06664                         DT      B'10000100',B'00111111',B'00001111'     ;BTC=0D
005866 0C86 0C1F 0C0F 06665                         DT      B'10000110',B'00011111',B'00001111'     ;BTC=0E
00586C 0C86 0C1F 0C0F 06666                         DT      B'10000110',B'00011111',B'00001111'     ;BTC=0F
                      06667 
                      06668 
005872                06669 FONT02H_LOW_ENYE
005872 0E00           06670         MOVLW   0
005874 6EFB           06671         MOVWF   PCLATU,0
005876 0E58           06672         MOVLW   58
005878 6EFA           06673         MOVWF   PCLATH,0
                      06674 
                      06675         
                      06676 
                      06677         
00587A C146 FFE8      06678                         MOVFF   BTCOUNT,WREG
00587E 90D8           06679                         BCF             STATUS,C
005880 36E8           06680                         RLCF    WREG
                      06681 
                      06682                 
005882 26F9           06683                         ADDWF   PCL,1,0
005884 0CFF 0CFF 0CFF 06684                         DT      B'11111111',B'11111111',B'11111111'     ;BTC=00
00588A 0CFF 0CFF 0CFF 06685                         DT      B'11111111',B'11111111',B'11111111'     ;BTC=01
005890 0CFF 0CFF 0CFF 06686                         DT      B'11111111',B'11111111',B'11111111'     ;BTC=02
005896 0CFF 0CFF 0CFF 06687                         DT      B'11111111',B'11111111',B'11111111'     ;BTC=03
00589C 0CFF 0CFF 0CFF 06688                         DT      B'11111111',B'11111111',B'11111111'     ;BTC=04
0058A2 0CFF 0CFF 0CFF 06689                         DT      B'11111111',B'11111111',B'11111111'     ;BTC=05
0058A8 0CFF 0CFF 0CFF 06690                         DT      B'11111111',B'11111111',B'11111111'     ;BTC=06
0058AE 0CFF 0CFF 0CFF 06691                         DT      B'11111111',B'11111111',B'11111111'     ;BTC=07
0058B4 0CFF 0CFF 0CFF 06692                         DT      B'11111111',B'11111111',B'11111111'     ;BTC=08
0058BA 0CFF 0CFF 0CFF 06693                         DT      B'11111111',B'11111111',B'11111111'     ;BTC=09
0058C0 0CFF 0CFF 0CFF 06694                         DT      B'11111111',B'11111111',B'11111111'     ;BTC=0A
0058C6 0CE0 0C7E 0CFF 06695                         DT      B'11100000',B'01111110',B'11111111'     ;BTC=0B
0058CC 0CDF 0C81 0CFF 06696                         DT      B'11011111',B'10000001',B'11111111'     ;BTC=0C
0058D2 0CFF 0CFF 0CFF 06697                         DT      B'11111111',B'11111111',B'11111111'     ;BTC=0D
0058D8 0C88 0C01 0CFF 06698                         DT      B'10001000',B'00000001',B'11111111'     ;BTC=0E
0058DE 0C80 0C00 0CFF 06699                         DT      B'10000000',B'00000000',B'11111111'     ;BTC=0F
                      06700         
Warning[205]: Found directive in column 1. (ORG)
005900                06701 ORG 0X5900
005900                06702 FONT02L_CAP_ENYE
005900 0E00           06703         MOVLW   0
005902 6EFB           06704         MOVWF   PCLATU,0
005904 0E59           06705         MOVLW   59
005906 6EFA           06706         MOVWF   PCLATH,0
                      06707 
                      06708 
MPASM  5.51                 20200227_P6MM.ASM   2-27-2020  19:46:00         PAGE 132


LOC  OBJECT CODE     LINE SOURCE TEXT
  VALUE

                      06709 
                      06710 
005908 C146 FFE8      06711                         MOVFF   BTCOUNT,WREG
00590C 90D8           06712                         BCF             STATUS,C
00590E 36E8           06713                         RLCF    WREG
                      06714 
                      06715                 
005910 26F9           06716                         ADDWF   PCL,1,0
005912 0C87 0C0F 0C0F 06717                         DT      B'10000111',B'00001111',B'00001111'     ;BTC=10
005918 0C87 0C0F 0C0F 06718                         DT      B'10000111',B'00001111',B'00001111'     ;BTC=11
00591E 0C87 0C87 0C0F 06719                         DT      B'10000111',B'10000111',B'00001111'     ;BTC=12
005924 0C87 0C87 0C0F 06720                         DT      B'10000111',B'10000111',B'00001111'     ;BTC=13
00592A 0C87 0CC3 0C0F 06721                         DT      B'10000111',B'11000011',B'00001111'     ;BTC=14
005930 0C87 0CC3 0C0F 06722                         DT      B'10000111',B'11000011',B'00001111'     ;BTC=15
005936 0C87 0CE1 0C0F 06723                         DT      B'10000111',B'11100001',B'00001111'     ;BTC=16
00593C 0C87 0CE1 0C0F 06724                         DT      B'10000111',B'11100001',B'00001111'     ;BTC=17
005942 0C87 0CF0 0C0F 06725                         DT      B'10000111',B'11110000',B'00001111'     ;BTC=18
005948 0C87 0CF0 0C0F 06726                         DT      B'10000111',B'11110000',B'00001111'     ;BTC=19
00594E 0C87 0CF8 0C0F 06727                         DT      B'10000111',B'11111000',B'00001111'     ;BTC=1A
005954 0C87 0CFC 0C0F 06728                         DT      B'10000111',B'11111100',B'00001111'     ;BTC=1B
00595A 0C87 0CFC 0C0F 06729                         DT      B'10000111',B'11111100',B'00001111'     ;BTC=1C
005960 0C87 0CFE 0C0F 06730                         DT      B'10000111',B'11111110',B'00001111'     ;BTC=1D
005966 0C87 0CFE 0C0F 06731                         DT      B'10000111',B'11111110',B'00001111'     ;BTC=1E
00596C 0CFF 0CFF 0CFF 06732                         DT      B'11111111',B'11111111',B'11111111'     ;BTC=1F
                      06733 
                      06734 
005972                06735 FONT02L_LOW_ENYE
005972 0E00           06736         MOVLW   0
005974 6EFB           06737         MOVWF   PCLATU,0
005976 0E59           06738         MOVLW   59
005978 6EFA           06739         MOVWF   PCLATH,0
                      06740 
                      06741 
                      06742 
                      06743 
00597A C146 FFE8      06744                         MOVFF   BTCOUNT,WREG
00597E 90D8           06745                         BCF             STATUS,C
005980 36E8           06746                         RLCF    WREG
                      06747 
                      06748                 
005982 26F9           06749                         ADDWF   PCL,1,0
005984 0C80 0C00 0C7F 06750                         DT      B'10000000',B'00000000',B'01111111'     ;BTC=10
00598A 0C87 0CF8 0C7F 06751                         DT      B'10000111',B'11111000',B'01111111'     ;BTC=11
005990 0C8F 0CFC 0C7F 06752                         DT      B'10001111',B'11111100',B'01111111'     ;BTC=12
005996 0C8F 0CFC 0C7F 06753                         DT      B'10001111',B'11111100',B'01111111'     ;BTC=13
00599C 0C8F 0CFC 0C7F 06754                         DT      B'10001111',B'11111100',B'01111111'     ;BTC=14
0059A2 0C8F 0CFC 0C7F 06755                         DT      B'10001111',B'11111100',B'01111111'     ;BTC=15
0059A8 0C8F 0CFC 0C7F 06756                         DT      B'10001111',B'11111100',B'01111111'     ;BTC=16
0059AE 0C8F 0CFC 0C7F 06757                         DT      B'10001111',B'11111100',B'01111111'     ;BTC=17
0059B4 0C8F 0CFC 0C7F 06758                         DT      B'10001111',B'11111100',B'01111111'     ;BTC=18
0059BA 0C8F 0CFC 0C7F 06759                         DT      B'10001111',B'11111100',B'01111111'     ;BTC=19
0059C0 0C8F 0CFC 0C7F 06760                         DT      B'10001111',B'11111100',B'01111111'     ;BTC=1A
0059C6 0C8F 0CFC 0C7F 06761                         DT      B'10001111',B'11111100',B'01111111'     ;BTC=1B
MPASM  5.51                 20200227_P6MM.ASM   2-27-2020  19:46:00         PAGE 133


LOC  OBJECT CODE     LINE SOURCE TEXT
  VALUE

0059CC 0C8F 0CFC 0C7F 06762                         DT      B'10001111',B'11111100',B'01111111'     ;BTC=1C
0059D2 0C8F 0CFC 0C7F 06763                         DT      B'10001111',B'11111100',B'01111111'     ;BTC=1D
0059D8 0C8F 0CFC 0C7F 06764                         DT      B'10001111',B'11111100',B'01111111'     ;BTC=1E
0059DE 0CFF 0CFF 0CFF 06765                         DT      B'11111111',B'11111111',B'11111111'     ;BTC=1F
                      06766 
                      06767 
                      06768 
                      06769 
Warning[205]: Found directive in column 1. (ORG)
005A00                06770 ORG 0X5A00
005A00                06771 FONT02H_CAP_DASH
005A00 0E00           06772         MOVLW   0
005A02 6EFB           06773         MOVWF   PCLATU,0
005A04 0E5A           06774         MOVLW   5A
005A06 6EFA           06775         MOVWF   PCLATH,0
                      06776 
                      06777         
                      06778 
                      06779         
005A08 C146 FFE8      06780                         MOVFF   BTCOUNT,WREG
005A0C 90D8           06781                         BCF             STATUS,C
005A0E 36E8           06782                         RLCF    WREG
                      06783 
                      06784                 
005A10 26F9           06785                         ADDWF   PCL,1,0
005A12 0CFF 0CFF 0CFF 06786                         DT      B'11111111',B'11111111',B'11111111'     ;BTC=00
005A18 0CFF 0CFF 0CFF 06787                         DT      B'11111111',B'11111111',B'11111111'     ;BTC=01
005A1E 0CFF 0CFF 0CFF 06788                         DT      B'11111111',B'11111111',B'11111111'     ;BTC=02
005A24 0CFF 0CFF 0CFF 06789                         DT      B'11111111',B'11111111',B'11111111'     ;BTC=03
005A2A 0CFF 0CFF 0CFF 06790                         DT      B'11111111',B'11111111',B'11111111'     ;BTC=04
005A30 0CFF 0CFF 0CFF 06791                         DT      B'11111111',B'11111111',B'11111111'     ;BTC=05
005A36 0CFF 0CFF 0CFF 06792                         DT      B'11111111',B'11111111',B'11111111'     ;BTC=06
005A3C 0CFF 0CFF 0CFF 06793                         DT      B'11111111',B'11111111',B'11111111'     ;BTC=07
005A42 0CFF 0CFF 0CFF 06794                         DT      B'11111111',B'11111111',B'11111111'     ;BTC=08
005A48 0CFF 0CFF 0CFF 06795                         DT      B'11111111',B'11111111',B'11111111'     ;BTC=09
005A4E 0CFF 0CFF 0CFF 06796                         DT      B'11111111',B'11111111',B'11111111'     ;BTC=0A
005A54 0CFF 0CFF 0CFF 06797                         DT      B'11111111',B'11111111',B'11111111'     ;BTC=0B
005A5A 0CFF 0CFF 0CFF 06798                         DT      B'11111111',B'11111111',B'11111111'     ;BTC=0C
005A60 0C80 0C0F 0CFF 06799                         DT      B'10000000',B'00001111',B'11111111'     ;BTC=0D
005A66 0C80 0C0F 0CFF 06800                         DT      B'10000000',B'00001111',B'11111111'     ;BTC=0E
005A6C 0C80 0C0F 0CFF 06801                         DT      B'10000000',B'00001111',B'11111111'     ;BTC=0F
                      06802 
                      06803 
005A72                06804 FONT02H_LOW_DASH
005A72 0E00           06805         MOVLW   0
005A74 6EFB           06806         MOVWF   PCLATU,0
005A76 0E5A           06807         MOVLW   5A
005A78 6EFA           06808         MOVWF   PCLATH,0
                      06809 
                      06810         
                      06811 
                      06812         
005A7A C146 FFE8      06813                         MOVFF   BTCOUNT,WREG
MPASM  5.51                 20200227_P6MM.ASM   2-27-2020  19:46:00         PAGE 134


LOC  OBJECT CODE     LINE SOURCE TEXT
  VALUE

005A7E 90D8           06814                         BCF             STATUS,C
005A80 36E8           06815                         RLCF    WREG
                      06816 
                      06817                 
005A82 26F9           06818                         ADDWF   PCL,1,0
005A84 0CFF 0CFF 0CFF 06819                         DT      B'11111111',B'11111111',B'11111111'     ;BTC=00
005A8A 0CFF 0CFF 0CFF 06820                         DT      B'11111111',B'11111111',B'11111111'     ;BTC=01
005A90 0CFF 0CFF 0CFF 06821                         DT      B'11111111',B'11111111',B'11111111'     ;BTC=02
005A96 0CFF 0CFF 0CFF 06822                         DT      B'11111111',B'11111111',B'11111111'     ;BTC=03
005A9C 0CFF 0CFF 0CFF 06823                         DT      B'11111111',B'11111111',B'11111111'     ;BTC=04
005AA2 0CFF 0CFF 0CFF 06824                         DT      B'11111111',B'11111111',B'11111111'     ;BTC=05
005AA8 0CFF 0CFF 0CFF 06825                         DT      B'11111111',B'11111111',B'11111111'     ;BTC=06
005AAE 0CFF 0CFF 0CFF 06826                         DT      B'11111111',B'11111111',B'11111111'     ;BTC=07
005AB4 0CFF 0CFF 0CFF 06827                         DT      B'11111111',B'11111111',B'11111111'     ;BTC=08
005ABA 0CFF 0CFF 0CFF 06828                         DT      B'11111111',B'11111111',B'11111111'     ;BTC=09
005AC0 0CFF 0CFF 0CFF 06829                         DT      B'11111111',B'11111111',B'11111111'     ;BTC=0A
005AC6 0CFF 0CFF 0CFF 06830                         DT      B'11111111',B'11111111',B'11111111'     ;BTC=0B
005ACC 0CFF 0CFF 0CFF 06831                         DT      B'11111111',B'11111111',B'11111111'     ;BTC=0C
005AD2 0CFF 0CFF 0CFF 06832                         DT      B'11111111',B'11111111',B'11111111'     ;BTC=0D
005AD8 0CFF 0CFF 0CFF 06833                         DT      B'11111111',B'11111111',B'11111111'     ;BTC=0E
005ADE 0C80 0CFF 0CFF 06834                         DT      B'10000000',B'11111111',B'11111111'     ;BTC=0F
                      06835         
Warning[205]: Found directive in column 1. (ORG)
005B00                06836 ORG 0X5B00
005B00                06837 FONT02L_CAP_DASH
005B00 0E00           06838         MOVLW   0
005B02 6EFB           06839         MOVWF   PCLATU,0
005B04 0E5B           06840         MOVLW   5B
005B06 6EFA           06841         MOVWF   PCLATH,0
                      06842 
                      06843 
                      06844 
                      06845 
005B08 C146 FFE8      06846                         MOVFF   BTCOUNT,WREG
005B0C 90D8           06847                         BCF             STATUS,C
005B0E 36E8           06848                         RLCF    WREG
                      06849 
                      06850                 
005B10 26F9           06851                         ADDWF   PCL,1,0
005B12 0C80 0C0F 0CFF 06852                         DT      B'10000000',B'00001111',B'11111111'     ;BTC=10
005B18 0C80 0C0F 0CFF 06853                         DT      B'10000000',B'00001111',B'11111111'     ;BTC=11
005B1E 0CFF 0CFF 0CFF 06854                         DT      B'11111111',B'11111111',B'11111111'     ;BTC=12
005B24 0CFF 0CFF 0CFF 06855                         DT      B'11111111',B'11111111',B'11111111'     ;BTC=13
005B2A 0CFF 0CFF 0CFF 06856                         DT      B'11111111',B'11111111',B'11111111'     ;BTC=14
005B30 0CFF 0CFF 0CFF 06857                         DT      B'11111111',B'11111111',B'11111111'     ;BTC=15
005B36 0CFF 0CFF 0CFF 06858                         DT      B'11111111',B'11111111',B'11111111'     ;BTC=16
005B3C 0CFF 0CFF 0CFF 06859                         DT      B'11111111',B'11111111',B'11111111'     ;BTC=17
005B42 0CFF 0CFF 0CFF 06860                         DT      B'11111111',B'11111111',B'11111111'     ;BTC=18
005B48 0CFF 0CFF 0CFF 06861                         DT      B'11111111',B'11111111',B'11111111'     ;BTC=19
005B4E 0CFF 0CFF 0CFF 06862                         DT      B'11111111',B'11111111',B'11111111'     ;BTC=1A
005B54 0CFF 0CFF 0CFF 06863                         DT      B'11111111',B'11111111',B'11111111'     ;BTC=1B
005B5A 0CFF 0CFF 0CFF 06864                         DT      B'11111111',B'11111111',B'11111111'     ;BTC=1C
005B60 0CFF 0CFF 0CFF 06865                         DT      B'11111111',B'11111111',B'11111111'     ;BTC=1D
MPASM  5.51                 20200227_P6MM.ASM   2-27-2020  19:46:00         PAGE 135


LOC  OBJECT CODE     LINE SOURCE TEXT
  VALUE

005B66 0CFF 0CFF 0CFF 06866                         DT      B'11111111',B'11111111',B'11111111'     ;BTC=1E
005B6C 0CFF 0CFF 0CFF 06867                         DT      B'11111111',B'11111111',B'11111111'     ;BTC=1F
                      06868 
005B72                06869 FONT02L_LOW_DASH
005B72 0E00           06870         MOVLW   0
005B74 6EFB           06871         MOVWF   PCLATU,0
005B76 0E5B           06872         MOVLW   5B
005B78 6EFA           06873         MOVWF   PCLATH,0
                      06874 
                      06875 
                      06876 
                      06877 
005B7A C146 FFE8      06878                         MOVFF   BTCOUNT,WREG
005B7E 90D8           06879                         BCF             STATUS,C
005B80 36E8           06880                         RLCF    WREG
                      06881 
                      06882                 
005B82 26F9           06883                         ADDWF   PCL,1,0
005B84 0C80 0CFF 0CFF 06884                         DT      B'10000000',B'11111111',B'11111111'     ;BTC=10
005B8A 0C80 0CFF 0CFF 06885                         DT      B'10000000',B'11111111',B'11111111'     ;BTC=11
005B90 0CFF 0CFF 0CFF 06886                         DT      B'11111111',B'11111111',B'11111111'     ;BTC=12
005B96 0CFF 0CFF 0CFF 06887                         DT      B'11111111',B'11111111',B'11111111'     ;BTC=13
005B9C 0CFF 0CFF 0CFF 06888                         DT      B'11111111',B'11111111',B'11111111'     ;BTC=14
005BA2 0CFF 0CFF 0CFF 06889                         DT      B'11111111',B'11111111',B'11111111'     ;BTC=15
005BA8 0CFF 0CFF 0CFF 06890                         DT      B'11111111',B'11111111',B'11111111'     ;BTC=16
005BAE 0CFF 0CFF 0CFF 06891                         DT      B'11111111',B'11111111',B'11111111'     ;BTC=17
005BB4 0CFF 0CFF 0CFF 06892                         DT      B'11111111',B'11111111',B'11111111'     ;BTC=18
005BBA 0CFF 0CFF 0CFF 06893                         DT      B'11111111',B'11111111',B'11111111'     ;BTC=19
005BC0 0CFF 0CFF 0CFF 06894                         DT      B'11111111',B'11111111',B'11111111'     ;BTC=1A
005BC6 0CFF 0CFF 0CFF 06895                         DT      B'11111111',B'11111111',B'11111111'     ;BTC=1B
005BCC 0CFF 0CFF 0CFF 06896                         DT      B'11111111',B'11111111',B'11111111'     ;BTC=1C
005BD2 0CFF 0CFF 0CFF 06897                         DT      B'11111111',B'11111111',B'11111111'     ;BTC=1D
005BD8 0CFF 0CFF 0CFF 06898                         DT      B'11111111',B'11111111',B'11111111'     ;BTC=1E
005BDE 0CFF 0CFF 0CFF 06899                         DT      B'11111111',B'11111111',B'11111111'     ;BTC=1F
                      06900 
                      06901 
                      06902 
                      06903 
Warning[205]: Found directive in column 1. (ORG)
005C00                06904 ORG 0X5C00
005C00                06905 FONT02H_CAP_COLON
005C00 0E00           06906         MOVLW   0
005C02 6EFB           06907         MOVWF   PCLATU,0
005C04 0E5C           06908         MOVLW   5C
005C06 6EFA           06909         MOVWF   PCLATH,0
                      06910 
                      06911         
                      06912 
                      06913         
005C08 C146 FFE8      06914                         MOVFF   BTCOUNT,WREG
005C0C 90D8           06915                         BCF             STATUS,C
005C0E 36E8           06916                         RLCF    WREG
                      06917 
MPASM  5.51                 20200227_P6MM.ASM   2-27-2020  19:46:00         PAGE 136


LOC  OBJECT CODE     LINE SOURCE TEXT
  VALUE

                      06918                 
005C10 26F9           06919                         ADDWF   PCL,1,0
005C12 0CFF 0CFF 0CFF 06920                         DT      B'11111111',B'11111111',B'11111111'     ;BTC=00
005C18 0CFF 0CFF 0CFF 06921                         DT      B'11111111',B'11111111',B'11111111'     ;BTC=01
005C1E 0CFF 0CFF 0CFF 06922                         DT      B'11111111',B'11111111',B'11111111'     ;BTC=02
005C24 0CFF 0CFF 0CFF 06923                         DT      B'11111111',B'11111111',B'11111111'     ;BTC=03
005C2A 0CFF 0CFF 0CFF 06924                         DT      B'11111111',B'11111111',B'11111111'     ;BTC=04
005C30 0CFF 0CFF 0CFF 06925                         DT      B'11111111',B'11111111',B'11111111'     ;BTC=05
005C36 0CE3 0CFF 0CFF 06926                         DT      B'11100011',B'11111111',B'11111111'     ;BTC=06
005C3C 0CC1 0CFF 0CFF 06927                         DT      B'11000001',B'11111111',B'11111111'     ;BTC=07
005C42 0C80 0CFF 0CFF 06928                         DT      B'10000000',B'11111111',B'11111111'     ;BTC=08
005C48 0C80 0CFF 0CFF 06929                         DT      B'10000000',B'11111111',B'11111111'     ;BTC=09
005C4E 0C80 0CFF 0CFF 06930                         DT      B'10000000',B'11111111',B'11111111'     ;BTC=0A
005C54 0CC1 0CFF 0CFF 06931                         DT      B'11000001',B'11111111',B'11111111'     ;BTC=0B
005C5A 0CE3 0CFF 0CFF 06932                         DT      B'11100011',B'11111111',B'11111111'     ;BTC=0C
005C60 0CFF 0CFF 0CFF 06933                         DT      B'11111111',B'11111111',B'11111111'     ;BTC=0D
005C66 0CFF 0CFF 0CFF 06934                         DT      B'11111111',B'11111111',B'11111111'     ;BTC=0E
005C6C 0CFF 0CFF 0CFF 06935                         DT      B'11111111',B'11111111',B'11111111'     ;BTC=0F
                      06936 
005C72                06937 FONT02H_LOW_COLON
005C72 0E00           06938         MOVLW   0
005C74 6EFB           06939         MOVWF   PCLATU,0
005C76 0E5C           06940         MOVLW   5C
005C78 6EFA           06941         MOVWF   PCLATH,0
                      06942 
                      06943         
                      06944 
                      06945         
005C7A C146 FFE8      06946                         MOVFF   BTCOUNT,WREG
005C7E 90D8           06947                         BCF             STATUS,C
005C80 36E8           06948                         RLCF    WREG
                      06949 
                      06950                 
005C82 26F9           06951                         ADDWF   PCL,1,0
005C84 0CFF 0CFF 0CFF 06952                         DT      B'11111111',B'11111111',B'11111111'     ;BTC=00
005C8A 0CFF 0CFF 0CFF 06953                         DT      B'11111111',B'11111111',B'11111111'     ;BTC=01
005C90 0CFF 0CFF 0CFF 06954                         DT      B'11111111',B'11111111',B'11111111'     ;BTC=02
005C96 0CFF 0CFF 0CFF 06955                         DT      B'11111111',B'11111111',B'11111111'     ;BTC=03
005C9C 0CFF 0CFF 0CFF 06956                         DT      B'11111111',B'11111111',B'11111111'     ;BTC=04
005CA2 0CFF 0CFF 0CFF 06957                         DT      B'11111111',B'11111111',B'11111111'     ;BTC=05
005CA8 0CFF 0CFF 0CFF 06958                         DT      B'11111111',B'11111111',B'11111111'     ;BTC=06
005CAE 0CC7 0CFF 0CFF 06959                         DT      B'11000111',B'11111111',B'11111111'     ;BTC=07
005CB4 0C83 0CFF 0CFF 06960                         DT      B'10000011',B'11111111',B'11111111'     ;BTC=08
005CBA 0C83 0CFF 0CFF 06961                         DT      B'10000011',B'11111111',B'11111111'     ;BTC=09
005CC0 0C83 0CFF 0CFF 06962                         DT      B'10000011',B'11111111',B'11111111'     ;BTC=0A
005CC6 0CC7 0CFF 0CFF 06963                         DT      B'11000111',B'11111111',B'11111111'     ;BTC=0B
005CCC 0CFF 0CFF 0CFF 06964                         DT      B'11111111',B'11111111',B'11111111'     ;BTC=0C
005CD2 0CFF 0CFF 0CFF 06965                         DT      B'11111111',B'11111111',B'11111111'     ;BTC=0D
005CD8 0CFF 0CFF 0CFF 06966                         DT      B'11111111',B'11111111',B'11111111'     ;BTC=0E
005CDE 0CFF 0CFF 0CFF 06967                         DT      B'11111111',B'11111111',B'11111111'     ;BTC=0F
                      06968         
Warning[205]: Found directive in column 1. (ORG)
005D00                06969 ORG 0X5D00
MPASM  5.51                 20200227_P6MM.ASM   2-27-2020  19:46:00         PAGE 137


LOC  OBJECT CODE     LINE SOURCE TEXT
  VALUE

005D00                06970 FONT02L_CAP_COLON
005D00 0E00           06971         MOVLW   0
005D02 6EFB           06972         MOVWF   PCLATU,0
005D04 0E5D           06973         MOVLW   5D
005D06 6EFA           06974         MOVWF   PCLATH,0
                      06975 
                      06976 
                      06977 
                      06978 
005D08 C146 FFE8      06979                         MOVFF   BTCOUNT,WREG
005D0C 90D8           06980                         BCF             STATUS,C
005D0E 36E8           06981                         RLCF    WREG
                      06982 
                      06983                 
005D10 26F9           06984                         ADDWF   PCL,1,0
005D12 0CFF 0CFF 0CFF 06985                         DT      B'11111111',B'11111111',B'11111111'     ;BTC=10
005D18 0CFF 0CFF 0CFF 06986                         DT      B'11111111',B'11111111',B'11111111'     ;BTC=11
005D1E 0CFF 0CFF 0CFF 06987                         DT      B'11111111',B'11111111',B'11111111'     ;BTC=12
005D24 0CE3 0CFF 0CFF 06988                         DT      B'11100011',B'11111111',B'11111111'     ;BTC=13
005D2A 0CC1 0CFF 0CFF 06989                         DT      B'11000001',B'11111111',B'11111111'     ;BTC=14
005D30 0C80 0CFF 0CFF 06990                         DT      B'10000000',B'11111111',B'11111111'     ;BTC=15
005D36 0C80 0CFF 0CFF 06991                         DT      B'10000000',B'11111111',B'11111111'     ;BTC=16
005D3C 0C80 0CFF 0CFF 06992                         DT      B'10000000',B'11111111',B'11111111'     ;BTC=17
005D42 0CC1 0CFF 0CFF 06993                         DT      B'11000001',B'11111111',B'11111111'     ;BTC=18
005D48 0CE3 0CFF 0CFF 06994                         DT      B'11100011',B'11111111',B'11111111'     ;BTC=19
005D4E 0CFF 0CFF 0CFF 06995                         DT      B'11111111',B'11111111',B'11111111'     ;BTC=1A
005D54 0CFF 0CFF 0CFF 06996                         DT      B'11111111',B'11111111',B'11111111'     ;BTC=1B
005D5A 0CFF 0CFF 0CFF 06997                         DT      B'11111111',B'11111111',B'11111111'     ;BTC=1C
005D60 0CFF 0CFF 0CFF 06998                         DT      B'11111111',B'11111111',B'11111111'     ;BTC=1D
005D66 0CFF 0CFF 0CFF 06999                         DT      B'11111111',B'11111111',B'11111111'     ;BTC=1E
005D6C 0CFF 0CFF 0CFF 07000                         DT      B'11111111',B'11111111',B'11111111'     ;BTC=1F
                      07001 
                      07002 
005D72                07003 FONT02L_LOW_COLON
005D72 0E00           07004         MOVLW   0
005D74 6EFB           07005         MOVWF   PCLATU,0
005D76 0E5D           07006         MOVLW   5D
005D78 6EFA           07007         MOVWF   PCLATH,0
                      07008 
                      07009 
                      07010 
                      07011 
005D7A C146 FFE8      07012                         MOVFF   BTCOUNT,WREG
005D7E 90D8           07013                         BCF             STATUS,C
005D80 36E8           07014                         RLCF    WREG
                      07015 
                      07016                 
005D82 26F9           07017                         ADDWF   PCL,1,0
005D84 0CFF 0CFF 0CFF 07018                         DT      B'11111111',B'11111111',B'11111111'     ;BTC=10
005D8A 0CFF 0CFF 0CFF 07019                         DT      B'11111111',B'11111111',B'11111111'     ;BTC=11
005D90 0CFF 0CFF 0CFF 07020                         DT      B'11111111',B'11111111',B'11111111'     ;BTC=12
005D96 0CFF 0CFF 0CFF 07021                         DT      B'11111111',B'11111111',B'11111111'     ;BTC=13
005D9C 0CC7 0CFF 0CFF 07022                         DT      B'11000111',B'11111111',B'11111111'     ;BTC=14
MPASM  5.51                 20200227_P6MM.ASM   2-27-2020  19:46:00         PAGE 138


LOC  OBJECT CODE     LINE SOURCE TEXT
  VALUE

005DA2 0C83 0CFF 0CFF 07023                         DT      B'10000011',B'11111111',B'11111111'     ;BTC=15
005DA8 0C83 0CFF 0CFF 07024                         DT      B'10000011',B'11111111',B'11111111'     ;BTC=16
005DAE 0C83 0CFF 0CFF 07025                         DT      B'10000011',B'11111111',B'11111111'     ;BTC=17
005DB4 0CC7 0CFF 0CFF 07026                         DT      B'11000111',B'11111111',B'11111111'     ;BTC=18
005DBA 0CFF 0CFF 0CFF 07027                         DT      B'11111111',B'11111111',B'11111111'     ;BTC=19
005DC0 0CFF 0CFF 0CFF 07028                         DT      B'11111111',B'11111111',B'11111111'     ;BTC=1A
005DC6 0CFF 0CFF 0CFF 07029                         DT      B'11111111',B'11111111',B'11111111'     ;BTC=1B
005DCC 0CFF 0CFF 0CFF 07030                         DT      B'11111111',B'11111111',B'11111111'     ;BTC=1C
005DD2 0CFF 0CFF 0CFF 07031                         DT      B'11111111',B'11111111',B'11111111'     ;BTC=1D
005DD8 0CFF 0CFF 0CFF 07032                         DT      B'11111111',B'11111111',B'11111111'     ;BTC=1E
005DDE 0CFF 0CFF 0CFF 07033                         DT      B'11111111',B'11111111',B'11111111'     ;BTC=1F
                      07034 
                      07035 
Warning[205]: Found directive in column 1. (ORG)
005E00                07036 ORG 0X5E00
005E00                07037 FONT02H_CAP_SEMICOLON
005E00 0E00           07038         MOVLW   0
005E02 6EFB           07039         MOVWF   PCLATU,0
005E04 0E5E           07040         MOVLW   5E
005E06 6EFA           07041         MOVWF   PCLATH,0
                      07042 
                      07043         
                      07044 
                      07045         
005E08 C146 FFE8      07046                         MOVFF   BTCOUNT,WREG
005E0C 90D8           07047                         BCF             STATUS,C
005E0E 36E8           07048                         RLCF    WREG
                      07049 
                      07050                 
005E10 26F9           07051                         ADDWF   PCL,1,0
005E12 0CFF 0CFF 0CFF 07052                         DT      B'11111111',B'11111111',B'11111111'     ;BTC=00
005E18 0CFF 0CFF 0CFF 07053                         DT      B'11111111',B'11111111',B'11111111'     ;BTC=01
005E1E 0CFF 0CFF 0CFF 07054                         DT      B'11111111',B'11111111',B'11111111'     ;BTC=02
005E24 0CFF 0CFF 0CFF 07055                         DT      B'11111111',B'11111111',B'11111111'     ;BTC=03
005E2A 0CFF 0CFF 0CFF 07056                         DT      B'11111111',B'11111111',B'11111111'     ;BTC=04
005E30 0CFF 0CFF 0CFF 07057                         DT      B'11111111',B'11111111',B'11111111'     ;BTC=05
005E36 0CE3 0CFF 0CFF 07058                         DT      B'11100011',B'11111111',B'11111111'     ;BTC=06
005E3C 0CC1 0CFF 0CFF 07059                         DT      B'11000001',B'11111111',B'11111111'     ;BTC=07
005E42 0C80 0CFF 0CFF 07060                         DT      B'10000000',B'11111111',B'11111111'     ;BTC=08
005E48 0C80 0CFF 0CFF 07061                         DT      B'10000000',B'11111111',B'11111111'     ;BTC=09
005E4E 0C80 0CFF 0CFF 07062                         DT      B'10000000',B'11111111',B'11111111'     ;BTC=0A
005E54 0CC1 0CFF 0CFF 07063                         DT      B'11000001',B'11111111',B'11111111'     ;BTC=0B
005E5A 0CE3 0CFF 0CFF 07064                         DT      B'11100011',B'11111111',B'11111111'     ;BTC=0C
005E60 0CFF 0CFF 0CFF 07065                         DT      B'11111111',B'11111111',B'11111111'     ;BTC=0D
005E66 0CFF 0CFF 0CFF 07066                         DT      B'11111111',B'11111111',B'11111111'     ;BTC=0E
005E6C 0CFF 0CFF 0CFF 07067                         DT      B'11111111',B'11111111',B'11111111'     ;BTC=0F
                      07068 
                      07069 
005E72                07070 FONT02H_LOW_SEMICOLON
005E72 0E00           07071         MOVLW   0
005E74 6EFB           07072         MOVWF   PCLATU,0
005E76 0E5E           07073         MOVLW   5E
005E78 6EFA           07074         MOVWF   PCLATH,0
MPASM  5.51                 20200227_P6MM.ASM   2-27-2020  19:46:00         PAGE 139


LOC  OBJECT CODE     LINE SOURCE TEXT
  VALUE

                      07075 
                      07076         
                      07077 
                      07078         
005E7A C146 FFE8      07079                         MOVFF   BTCOUNT,WREG
005E7E 90D8           07080                         BCF             STATUS,C
005E80 36E8           07081                         RLCF    WREG
                      07082 
                      07083                 
005E82 26F9           07084                         ADDWF   PCL,1,0
005E84 0CFF 0CFF 0CFF 07085                         DT      B'11111111',B'11111111',B'11111111'     ;BTC=00
005E8A 0CFF 0CFF 0CFF 07086                         DT      B'11111111',B'11111111',B'11111111'     ;BTC=01
005E90 0CFF 0CFF 0CFF 07087                         DT      B'11111111',B'11111111',B'11111111'     ;BTC=02
005E96 0CFF 0CFF 0CFF 07088                         DT      B'11111111',B'11111111',B'11111111'     ;BTC=03
005E9C 0CFF 0CFF 0CFF 07089                         DT      B'11111111',B'11111111',B'11111111'     ;BTC=04
005EA2 0CFF 0CFF 0CFF 07090                         DT      B'11111111',B'11111111',B'11111111'     ;BTC=05
005EA8 0CFF 0CFF 0CFF 07091                         DT      B'11111111',B'11111111',B'11111111'     ;BTC=06
005EAE 0CC7 0CFF 0CFF 07092                         DT      B'11000111',B'11111111',B'11111111'     ;BTC=07
005EB4 0C83 0CFF 0CFF 07093                         DT      B'10000011',B'11111111',B'11111111'     ;BTC=08
005EBA 0C83 0CFF 0CFF 07094                         DT      B'10000011',B'11111111',B'11111111'     ;BTC=09
005EC0 0C83 0CFF 0CFF 07095                         DT      B'10000011',B'11111111',B'11111111'     ;BTC=0A
005EC6 0CC7 0CFF 0CFF 07096                         DT      B'11000111',B'11111111',B'11111111'     ;BTC=0B
005ECC 0CFF 0CFF 0CFF 07097                         DT      B'11111111',B'11111111',B'11111111'     ;BTC=0C
005ED2 0CFF 0CFF 0CFF 07098                         DT      B'11111111',B'11111111',B'11111111'     ;BTC=0D
005ED8 0CFF 0CFF 0CFF 07099                         DT      B'11111111',B'11111111',B'11111111'     ;BTC=0E
005EDE 0CFF 0CFF 0CFF 07100                         DT      B'11111111',B'11111111',B'11111111'     ;BTC=0F
                      07101 
                      07102         
Warning[205]: Found directive in column 1. (ORG)
005F00                07103 ORG 0X5F00
005F00                07104 FONT02L_CAP_SEMICOLON
005F00 0E00           07105         MOVLW   0
005F02 6EFB           07106         MOVWF   PCLATU,0
005F04 0E5F           07107         MOVLW   5F
005F06 6EFA           07108         MOVWF   PCLATH,0
                      07109 
                      07110 
                      07111 
                      07112 
005F08 C146 FFE8      07113                         MOVFF   BTCOUNT,WREG
005F0C 90D8           07114                         BCF             STATUS,C
005F0E 36E8           07115                         RLCF    WREG
                      07116 
                      07117                 
005F10 26F9           07118                         ADDWF   PCL,1,0
005F12 0CFF 0CFF 0CFF 07119                         DT      B'11111111',B'11111111',B'11111111'     ;BTC=10
005F18 0CFF 0CFF 0CFF 07120                         DT      B'11111111',B'11111111',B'11111111'     ;BTC=11
005F1E 0CFF 0CFF 0CFF 07121                         DT      B'11111111',B'11111111',B'11111111'     ;BTC=12
005F24 0CE3 0CFF 0CFF 07122                         DT      B'11100011',B'11111111',B'11111111'     ;BTC=13
005F2A 0CC1 0CFF 0CFF 07123                         DT      B'11000001',B'11111111',B'11111111'     ;BTC=14
005F30 0C80 0CFF 0CFF 07124                         DT      B'10000000',B'11111111',B'11111111'     ;BTC=15
005F36 0C80 0CFF 0CFF 07125                         DT      B'10000000',B'11111111',B'11111111'     ;BTC=16
005F3C 0C80 0CFF 0CFF 07126                         DT      B'10000000',B'11111111',B'11111111'     ;BTC=17
MPASM  5.51                 20200227_P6MM.ASM   2-27-2020  19:46:00         PAGE 140


LOC  OBJECT CODE     LINE SOURCE TEXT
  VALUE

005F42 0CC0 0CFF 0CFF 07127                         DT      B'11000000',B'11111111',B'11111111'     ;BTC=18
005F48 0CE1 0CFF 0CFF 07128                         DT      B'11100001',B'11111111',B'11111111'     ;BTC=19
005F4E 0CF3 0CFF 0CFF 07129                         DT      B'11110011',B'11111111',B'11111111'     ;BTC=1A
005F54 0CE7 0CFF 0CFF 07130                         DT      B'11100111',B'11111111',B'11111111'     ;BTC=1B
005F5A 0CCF 0CFF 0CFF 07131                         DT      B'11001111',B'11111111',B'11111111'     ;BTC=1C
005F60 0CFF 0CFF 0CFF 07132                         DT      B'11111111',B'11111111',B'11111111'     ;BTC=1D
005F66 0CFF 0CFF 0CFF 07133                         DT      B'11111111',B'11111111',B'11111111'     ;BTC=1E
005F6C 0CFF 0CFF 0CFF 07134                         DT      B'11111111',B'11111111',B'11111111'     ;BTC=1F
                      07135 
                      07136 
005F72                07137 FONT02L_LOW_SEMICOLON
005F72 0E00           07138         MOVLW   0
005F74 6EFB           07139         MOVWF   PCLATU,0
005F76 0E5F           07140         MOVLW   5F
005F78 6EFA           07141         MOVWF   PCLATH,0
                      07142 
                      07143 
                      07144 
                      07145 
005F7A C146 FFE8      07146                         MOVFF   BTCOUNT,WREG
005F7E 90D8           07147                         BCF             STATUS,C
005F80 36E8           07148                         RLCF    WREG
                      07149 
                      07150                 
005F82 26F9           07151                         ADDWF   PCL,1,0
005F84 0CFF 0CFF 0CFF 07152                         DT      B'11111111',B'11111111',B'11111111'     ;BTC=10
005F8A 0CFF 0CFF 0CFF 07153                         DT      B'11111111',B'11111111',B'11111111'     ;BTC=11
005F90 0CFF 0CFF 0CFF 07154                         DT      B'11111111',B'11111111',B'11111111'     ;BTC=12
005F96 0CFF 0CFF 0CFF 07155                         DT      B'11111111',B'11111111',B'11111111'     ;BTC=13
005F9C 0CC7 0CFF 0CFF 07156                         DT      B'11000111',B'11111111',B'11111111'     ;BTC=14
005FA2 0C83 0CFF 0CFF 07157                         DT      B'10000011',B'11111111',B'11111111'     ;BTC=15
005FA8 0C83 0CFF 0CFF 07158                         DT      B'10000011',B'11111111',B'11111111'     ;BTC=16
005FAE 0C83 0CFF 0CFF 07159                         DT      B'10000011',B'11111111',B'11111111'     ;BTC=17
005FB4 0CC7 0CFF 0CFF 07160                         DT      B'11000111',B'11111111',B'11111111'     ;BTC=18
005FBA 0CCF 0CFF 0CFF 07161                         DT      B'11001111',B'11111111',B'11111111'     ;BTC=19
005FC0 0C9F 0CFF 0CFF 07162                         DT      B'10011111',B'11111111',B'11111111'     ;BTC=1A
005FC6 0CFF 0CFF 0CFF 07163                         DT      B'11111111',B'11111111',B'11111111'     ;BTC=1B
005FCC 0CFF 0CFF 0CFF 07164                         DT      B'11111111',B'11111111',B'11111111'     ;BTC=1C
005FD2 0CFF 0CFF 0CFF 07165                         DT      B'11111111',B'11111111',B'11111111'     ;BTC=1D
005FD8 0CFF 0CFF 0CFF 07166                         DT      B'11111111',B'11111111',B'11111111'     ;BTC=1E
005FDE 0CFF 0CFF 0CFF 07167                         DT      B'11111111',B'11111111',B'11111111'     ;BTC=1F
                      07168 
Warning[205]: Found directive in column 1. (ORG)
006000                07169 ORG 0X6000
006000                07170 FONT02H_CAP_COMMA
006000 0E00           07171         MOVLW   0
006002 6EFB           07172         MOVWF   PCLATU,0
006004 0E60           07173         MOVLW   60
006006 6EFA           07174         MOVWF   PCLATH,0
                      07175 
                      07176         
                      07177 
                      07178         
MPASM  5.51                 20200227_P6MM.ASM   2-27-2020  19:46:00         PAGE 141


LOC  OBJECT CODE     LINE SOURCE TEXT
  VALUE

006008 C146 FFE8      07179                         MOVFF   BTCOUNT,WREG
00600C 90D8           07180                         BCF             STATUS,C
00600E 36E8           07181                         RLCF    WREG
                      07182 
                      07183                 
006010 26F9           07184                         ADDWF   PCL,1,0
006012 0CFF 0CFF 0CFF 07185                         DT      B'11111111',B'11111111',B'11111111'     ;BTC=00
006018 0CFF 0CFF 0CFF 07186                         DT      B'11111111',B'11111111',B'11111111'     ;BTC=01
00601E 0CFF 0CFF 0CFF 07187                         DT      B'11111111',B'11111111',B'11111111'     ;BTC=02
006024 0CFF 0CFF 0CFF 07188                         DT      B'11111111',B'11111111',B'11111111'     ;BTC=03
00602A 0CFF 0CFF 0CFF 07189                         DT      B'11111111',B'11111111',B'11111111'     ;BTC=04
006030 0CFF 0CFF 0CFF 07190                         DT      B'11111111',B'11111111',B'11111111'     ;BTC=05
006036 0CFF 0CFF 0CFF 07191                         DT      B'11111111',B'11111111',B'11111111'     ;BTC=06
00603C 0CFF 0CFF 0CFF 07192                         DT      B'11111111',B'11111111',B'11111111'     ;BTC=07
006042 0CFF 0CFF 0CFF 07193                         DT      B'11111111',B'11111111',B'11111111'     ;BTC=08
006048 0CFF 0CFF 0CFF 07194                         DT      B'11111111',B'11111111',B'11111111'     ;BTC=09
00604E 0CFF 0CFF 0CFF 07195                         DT      B'11111111',B'11111111',B'11111111'     ;BTC=0A
006054 0CFF 0CFF 0CFF 07196                         DT      B'11111111',B'11111111',B'11111111'     ;BTC=0B
00605A 0CFF 0CFF 0CFF 07197                         DT      B'11111111',B'11111111',B'11111111'     ;BTC=0C
006060 0CFF 0CFF 0CFF 07198                         DT      B'11111111',B'11111111',B'11111111'     ;BTC=0D
006066 0CFF 0CFF 0CFF 07199                         DT      B'11111111',B'11111111',B'11111111'     ;BTC=0E
00606C 0CFF 0CFF 0CFF 07200                         DT      B'11111111',B'11111111',B'11111111'     ;BTC=0F
                      07201 
006072                07202 FONT02H_LOW_COMMA
006072 0E00           07203         MOVLW   0
006074 6EFB           07204         MOVWF   PCLATU,0
006076 0E60           07205         MOVLW   60
006078 6EFA           07206         MOVWF   PCLATH,0
                      07207 
                      07208         
                      07209 
                      07210         
00607A C146 FFE8      07211                         MOVFF   BTCOUNT,WREG
00607E 90D8           07212                         BCF             STATUS,C
006080 36E8           07213                         RLCF    WREG
                      07214 
                      07215                 
006082 26F9           07216                         ADDWF   PCL,1,0
006084 0CFF 0CFF 0CFF 07217                         DT      B'11111111',B'11111111',B'11111111'     ;BTC=00
00608A 0CFF 0CFF 0CFF 07218                         DT      B'11111111',B'11111111',B'11111111'     ;BTC=01
006090 0CFF 0CFF 0CFF 07219                         DT      B'11111111',B'11111111',B'11111111'     ;BTC=02
006096 0CFF 0CFF 0CFF 07220                         DT      B'11111111',B'11111111',B'11111111'     ;BTC=03
00609C 0CFF 0CFF 0CFF 07221                         DT      B'11111111',B'11111111',B'11111111'     ;BTC=04
0060A2 0CFF 0CFF 0CFF 07222                         DT      B'11111111',B'11111111',B'11111111'     ;BTC=05
0060A8 0CFF 0CFF 0CFF 07223                         DT      B'11111111',B'11111111',B'11111111'     ;BTC=06
0060AE 0CFF 0CFF 0CFF 07224                         DT      B'11111111',B'11111111',B'11111111'     ;BTC=07
0060B4 0CFF 0CFF 0CFF 07225                         DT      B'11111111',B'11111111',B'11111111'     ;BTC=08
0060BA 0CFF 0CFF 0CFF 07226                         DT      B'11111111',B'11111111',B'11111111'     ;BTC=09
0060C0 0CFF 0CFF 0CFF 07227                         DT      B'11111111',B'11111111',B'11111111'     ;BTC=0A
0060C6 0CFF 0CFF 0CFF 07228                         DT      B'11111111',B'11111111',B'11111111'     ;BTC=0B
0060CC 0CFF 0CFF 0CFF 07229                         DT      B'11111111',B'11111111',B'11111111'     ;BTC=0C
0060D2 0CFF 0CFF 0CFF 07230                         DT      B'11111111',B'11111111',B'11111111'     ;BTC=0D
0060D8 0CFF 0CFF 0CFF 07231                         DT      B'11111111',B'11111111',B'11111111'     ;BTC=0E
MPASM  5.51                 20200227_P6MM.ASM   2-27-2020  19:46:00         PAGE 142


LOC  OBJECT CODE     LINE SOURCE TEXT
  VALUE

0060DE 0CFF 0CFF 0CFF 07232                         DT      B'11111111',B'11111111',B'11111111'     ;BTC=0F
                      07233 
                      07234 
                      07235 
                      07236         
Warning[205]: Found directive in column 1. (ORG)
006100                07237 ORG 0X6100
006100                07238 FONT02L_CAP_COMMA
006100 0E00           07239         MOVLW   0
006102 6EFB           07240         MOVWF   PCLATU,0
006104 0E61           07241         MOVLW   61
006106 6EFA           07242         MOVWF   PCLATH,0
                      07243 
                      07244 
                      07245 
                      07246 
006108 C146 FFE8      07247                         MOVFF   BTCOUNT,WREG
00610C 90D8           07248                         BCF             STATUS,C
00610E 36E8           07249                         RLCF    WREG
                      07250 
                      07251                 
006110 26F9           07252                         ADDWF   PCL,1,0
006112 0CFF 0CFF 0CFF 07253                         DT      B'11111111',B'11111111',B'11111111'     ;BTC=10
006118 0CFF 0CFF 0CFF 07254                         DT      B'11111111',B'11111111',B'11111111'     ;BTC=11
00611E 0CFF 0CFF 0CFF 07255                         DT      B'11111111',B'11111111',B'11111111'     ;BTC=12
006124 0CFF 0CFF 0CFF 07256                         DT      B'11111111',B'11111111',B'11111111'     ;BTC=13
00612A 0CFF 0CFF 0CFF 07257                         DT      B'11111111',B'11111111',B'11111111'     ;BTC=14
006130 0CE3 0CFF 0CFF 07258                         DT      B'11100011',B'11111111',B'11111111'     ;BTC=15
006136 0CC1 0CFF 0CFF 07259                         DT      B'11000001',B'11111111',B'11111111'     ;BTC=16
00613C 0C80 0CFF 0CFF 07260                         DT      B'10000000',B'11111111',B'11111111'     ;BTC=17
006142 0C80 0CFF 0CFF 07261                         DT      B'10000000',B'11111111',B'11111111'     ;BTC=18
006148 0C80 0CFF 0CFF 07262                         DT      B'10000000',B'11111111',B'11111111'     ;BTC=19
00614E 0CC0 0CFF 0CFF 07263                         DT      B'11000000',B'11111111',B'11111111'     ;BTC=1A
006154 0CE1 0CFF 0CFF 07264                         DT      B'11100001',B'11111111',B'11111111'     ;BTC=1B
00615A 0CF3 0CFF 0CFF 07265                         DT      B'11110011',B'11111111',B'11111111'     ;BTC=1C
006160 0CE7 0CFF 0CFF 07266                         DT      B'11100111',B'11111111',B'11111111'     ;BTC=1D
006166 0CCF 0CFF 0CFF 07267                         DT      B'11001111',B'11111111',B'11111111'     ;BTC=1E
00616C 0CFF 0CFF 0CFF 07268                         DT      B'11111111',B'11111111',B'11111111'     ;BTC=1F
                      07269 
006172                07270 FONT02L_LOW_COMMA
006172 0E00           07271         MOVLW   0
006174 6EFB           07272         MOVWF   PCLATU,0
006176 0E61           07273         MOVLW   61
006178 6EFA           07274         MOVWF   PCLATH,0
                      07275 
                      07276 
                      07277 
                      07278 
00617A C146 FFE8      07279                         MOVFF   BTCOUNT,WREG
00617E 90D8           07280                         BCF             STATUS,C
006180 36E8           07281                         RLCF    WREG
                      07282 
                      07283                 
MPASM  5.51                 20200227_P6MM.ASM   2-27-2020  19:46:00         PAGE 143


LOC  OBJECT CODE     LINE SOURCE TEXT
  VALUE

006182 26F9           07284                         ADDWF   PCL,1,0
006184 0CFF 0CFF 0CFF 07285                         DT      B'11111111',B'11111111',B'11111111'     ;BTC=10
00618A 0CFF 0CFF 0CFF 07286                         DT      B'11111111',B'11111111',B'11111111'     ;BTC=11
006190 0CFF 0CFF 0CFF 07287                         DT      B'11111111',B'11111111',B'11111111'     ;BTC=12
006196 0CFF 0CFF 0CFF 07288                         DT      B'11111111',B'11111111',B'11111111'     ;BTC=13
00619C 0CFF 0CFF 0CFF 07289                         DT      B'11111111',B'11111111',B'11111111'     ;BTC=14
0061A2 0CFF 0CFF 0CFF 07290                         DT      B'11111111',B'11111111',B'11111111'     ;BTC=15
0061A8 0CFF 0CFF 0CFF 07291                         DT      B'11111111',B'11111111',B'11111111'     ;BTC=16
0061AE 0CFF 0CFF 0CFF 07292                         DT      B'11111111',B'11111111',B'11111111'     ;BTC=17
0061B4 0CFF 0CFF 0CFF 07293                         DT      B'11111111',B'11111111',B'11111111'     ;BTC=18
0061BA 0CC7 0CFF 0CFF 07294                         DT      B'11000111',B'11111111',B'11111111'     ;BTC=19
0061C0 0C83 0CFF 0CFF 07295                         DT      B'10000011',B'11111111',B'11111111'     ;BTC=1A
0061C6 0C83 0CFF 0CFF 07296                         DT      B'10000011',B'11111111',B'11111111'     ;BTC=1B
0061CC 0C83 0CFF 0CFF 07297                         DT      B'10000011',B'11111111',B'11111111'     ;BTC=1C
0061D2 0CC7 0CFF 0CFF 07298                         DT      B'11000111',B'11111111',B'11111111'     ;BTC=1D
0061D8 0CCF 0CFF 0CFF 07299                         DT      B'11001111',B'11111111',B'11111111'     ;BTC=1E
0061DE 0C9F 0CFF 0CFF 07300                         DT      B'10011111',B'11111111',B'11111111'     ;BTC=1F
                      07301 
                      07302 
Warning[205]: Found directive in column 1. (ORG)
006200                07303 ORG 0X6200
006200                07304 FONT02H_CAP_DOT
006200 0E00           07305         MOVLW   0
006202 6EFB           07306         MOVWF   PCLATU,0
006204 0E62           07307         MOVLW   62
006206 6EFA           07308         MOVWF   PCLATH,0
                      07309 
                      07310         
                      07311 
                      07312         
006208 C146 FFE8      07313                         MOVFF   BTCOUNT,WREG
00620C 90D8           07314                         BCF             STATUS,C
00620E 36E8           07315                         RLCF    WREG
                      07316 
                      07317                 
006210 26F9           07318                         ADDWF   PCL,1,0
006212 0CFF 0CFF 0CFF 07319                         DT      B'11111111',B'11111111',B'11111111'     ;BTC=00
006218 0CFF 0CFF 0CFF 07320                         DT      B'11111111',B'11111111',B'11111111'     ;BTC=01
00621E 0CFF 0CFF 0CFF 07321                         DT      B'11111111',B'11111111',B'11111111'     ;BTC=02
006224 0CFF 0CFF 0CFF 07322                         DT      B'11111111',B'11111111',B'11111111'     ;BTC=03
00622A 0CFF 0CFF 0CFF 07323                         DT      B'11111111',B'11111111',B'11111111'     ;BTC=04
006230 0CFF 0CFF 0CFF 07324                         DT      B'11111111',B'11111111',B'11111111'     ;BTC=05
006236 0CFF 0CFF 0CFF 07325                         DT      B'11111111',B'11111111',B'11111111'     ;BTC=06
00623C 0CFF 0CFF 0CFF 07326                         DT      B'11111111',B'11111111',B'11111111'     ;BTC=07
006242 0CFF 0CFF 0CFF 07327                         DT      B'11111111',B'11111111',B'11111111'     ;BTC=08
006248 0CFF 0CFF 0CFF 07328                         DT      B'11111111',B'11111111',B'11111111'     ;BTC=09
00624E 0CFF 0CFF 0CFF 07329                         DT      B'11111111',B'11111111',B'11111111'     ;BTC=0A
006254 0CFF 0CFF 0CFF 07330                         DT      B'11111111',B'11111111',B'11111111'     ;BTC=0B
00625A 0CFF 0CFF 0CFF 07331                         DT      B'11111111',B'11111111',B'11111111'     ;BTC=0C
006260 0CFF 0CFF 0CFF 07332                         DT      B'11111111',B'11111111',B'11111111'     ;BTC=0D
006266 0CFF 0CFF 0CFF 07333                         DT      B'11111111',B'11111111',B'11111111'     ;BTC=0E
00626C 0CFF 0CFF 0CFF 07334                         DT      B'11111111',B'11111111',B'11111111'     ;BTC=0F
                      07335 
MPASM  5.51                 20200227_P6MM.ASM   2-27-2020  19:46:00         PAGE 144


LOC  OBJECT CODE     LINE SOURCE TEXT
  VALUE

006272                07336 FONT02H_LOW_DOT
006272 0E00           07337         MOVLW   0
006274 6EFB           07338         MOVWF   PCLATU,0
006276 0E62           07339         MOVLW   62
006278 6EFA           07340         MOVWF   PCLATH,0
                      07341 
                      07342         
                      07343 
                      07344         
00627A C146 FFE8      07345                         MOVFF   BTCOUNT,WREG
00627E 90D8           07346                         BCF             STATUS,C
006280 36E8           07347                         RLCF    WREG
                      07348 
                      07349                 
006282 26F9           07350                         ADDWF   PCL,1,0
006284 0CFF 0CFF 0CFF 07351                         DT      B'11111111',B'11111111',B'11111111'     ;BTC=00
00628A 0CFF 0CFF 0CFF 07352                         DT      B'11111111',B'11111111',B'11111111'     ;BTC=01
006290 0CFF 0CFF 0CFF 07353                         DT      B'11111111',B'11111111',B'11111111'     ;BTC=02
006296 0CFF 0CFF 0CFF 07354                         DT      B'11111111',B'11111111',B'11111111'     ;BTC=03
00629C 0CFF 0CFF 0CFF 07355                         DT      B'11111111',B'11111111',B'11111111'     ;BTC=04
0062A2 0CFF 0CFF 0CFF 07356                         DT      B'11111111',B'11111111',B'11111111'     ;BTC=05
0062A8 0CFF 0CFF 0CFF 07357                         DT      B'11111111',B'11111111',B'11111111'     ;BTC=06
0062AE 0CFF 0CFF 0CFF 07358                         DT      B'11111111',B'11111111',B'11111111'     ;BTC=07
0062B4 0CFF 0CFF 0CFF 07359                         DT      B'11111111',B'11111111',B'11111111'     ;BTC=08
0062BA 0CFF 0CFF 0CFF 07360                         DT      B'11111111',B'11111111',B'11111111'     ;BTC=09
0062C0 0CFF 0CFF 0CFF 07361                         DT      B'11111111',B'11111111',B'11111111'     ;BTC=0A
0062C6 0CFF 0CFF 0CFF 07362                         DT      B'11111111',B'11111111',B'11111111'     ;BTC=0B
0062CC 0CFF 0CFF 0CFF 07363                         DT      B'11111111',B'11111111',B'11111111'     ;BTC=0C
0062D2 0CFF 0CFF 0CFF 07364                         DT      B'11111111',B'11111111',B'11111111'     ;BTC=0D
0062D8 0CFF 0CFF 0CFF 07365                         DT      B'11111111',B'11111111',B'11111111'     ;BTC=0E
0062DE 0CFF 0CFF 0CFF 07366                         DT      B'11111111',B'11111111',B'11111111'     ;BTC=0F
                      07367 
                      07368 
                      07369 
                      07370         
Warning[205]: Found directive in column 1. (ORG)
006300                07371 ORG 0X6300
006300                07372 FONT02L_CAP_DOT
006300 0E00           07373         MOVLW   0
006302 6EFB           07374         MOVWF   PCLATU,0
006304 0E63           07375         MOVLW   63
006306 6EFA           07376         MOVWF   PCLATH,0
                      07377 
                      07378 
                      07379 
                      07380 
006308 C146 FFE8      07381                         MOVFF   BTCOUNT,WREG
00630C 90D8           07382                         BCF             STATUS,C
00630E 36E8           07383                         RLCF    WREG
                      07384 
                      07385                 
006310 26F9           07386                         ADDWF   PCL,1,0
006312 0CFF 0CFF 0CFF 07387                         DT      B'11111111',B'11111111',B'11111111'     ;BTC=10
MPASM  5.51                 20200227_P6MM.ASM   2-27-2020  19:46:00         PAGE 145


LOC  OBJECT CODE     LINE SOURCE TEXT
  VALUE

006318 0CFF 0CFF 0CFF 07388                         DT      B'11111111',B'11111111',B'11111111'     ;BTC=11
00631E 0CFF 0CFF 0CFF 07389                         DT      B'11111111',B'11111111',B'11111111'     ;BTC=12
006324 0CFF 0CFF 0CFF 07390                         DT      B'11111111',B'11111111',B'11111111'     ;BTC=13
00632A 0CFF 0CFF 0CFF 07391                         DT      B'11111111',B'11111111',B'11111111'     ;BTC=14
006330 0CFF 0CFF 0CFF 07392                         DT      B'11111111',B'11111111',B'11111111'     ;BTC=15
006336 0CFF 0CFF 0CFF 07393                         DT      B'11111111',B'11111111',B'11111111'     ;BTC=16
00633C 0CFF 0CFF 0CFF 07394                         DT      B'11111111',B'11111111',B'11111111'     ;BTC=17
006342 0CE3 0CFF 0CFF 07395                         DT      B'11100011',B'11111111',B'11111111'     ;BTC=18
006348 0CC1 0CFF 0CFF 07396                         DT      B'11000001',B'11111111',B'11111111'     ;BTC=19
00634E 0C80 0CFF 0CFF 07397                         DT      B'10000000',B'11111111',B'11111111'     ;BTC=1A
006354 0C80 0CFF 0CFF 07398                         DT      B'10000000',B'11111111',B'11111111'     ;BTC=1B
00635A 0C80 0CFF 0CFF 07399                         DT      B'10000000',B'11111111',B'11111111'     ;BTC=1C
006360 0CC1 0CFF 0CFF 07400                         DT      B'11000001',B'11111111',B'11111111'     ;BTC=1D
006366 0CE3 0CFF 0CFF 07401                         DT      B'11100011',B'11111111',B'11111111'     ;BTC=1E
00636C 0CFF 0CFF 0CFF 07402                         DT      B'11111111',B'11111111',B'11111111'     ;BTC=1F
                      07403 
006372                07404 FONT02L_LOW_DOT
006372 0E00           07405         MOVLW   0
006374 6EFB           07406         MOVWF   PCLATU,0
006376 0E63           07407         MOVLW   63
006378 6EFA           07408         MOVWF   PCLATH,0
                      07409 
                      07410 
                      07411 
                      07412 
00637A C146 FFE8      07413                         MOVFF   BTCOUNT,WREG
00637E 90D8           07414                         BCF             STATUS,C
006380 36E8           07415                         RLCF    WREG
                      07416 
                      07417                 
006382 26F9           07418                         ADDWF   PCL,1,0
006384 0CFF 0CFF 0CFF 07419                         DT      B'11111111',B'11111111',B'11111111'     ;BTC=10
00638A 0CFF 0CFF 0CFF 07420                         DT      B'11111111',B'11111111',B'11111111'     ;BTC=11
006390 0CFF 0CFF 0CFF 07421                         DT      B'11111111',B'11111111',B'11111111'     ;BTC=12
006396 0CFF 0CFF 0CFF 07422                         DT      B'11111111',B'11111111',B'11111111'     ;BTC=13
00639C 0CFF 0CFF 0CFF 07423                         DT      B'11111111',B'11111111',B'11111111'     ;BTC=14
0063A2 0CFF 0CFF 0CFF 07424                         DT      B'11111111',B'11111111',B'11111111'     ;BTC=15
0063A8 0CFF 0CFF 0CFF 07425                         DT      B'11111111',B'11111111',B'11111111'     ;BTC=16
0063AE 0CFF 0CFF 0CFF 07426                         DT      B'11111111',B'11111111',B'11111111'     ;BTC=17
0063B4 0CFF 0CFF 0CFF 07427                         DT      B'11111111',B'11111111',B'11111111'     ;BTC=18
0063BA 0CFF 0CFF 0CFF 07428                         DT      B'11111111',B'11111111',B'11111111'     ;BTC=19
0063C0 0CC7 0CFF 0CFF 07429                         DT      B'11000111',B'11111111',B'11111111'     ;BTC=1A
0063C6 0C83 0CFF 0CFF 07430                         DT      B'10000011',B'11111111',B'11111111'     ;BTC=1B
0063CC 0C83 0CFF 0CFF 07431                         DT      B'10000011',B'11111111',B'11111111'     ;BTC=1C
0063D2 0C83 0CFF 0CFF 07432                         DT      B'10000011',B'11111111',B'11111111'     ;BTC=1D
0063D8 0CC7 0CFF 0CFF 07433                         DT      B'11000111',B'11111111',B'11111111'     ;BTC=1E
0063DE 0CFF 0CFF 0CFF 07434                         DT      B'11111111',B'11111111',B'11111111'     ;BTC=1F
                      07435 
                      07436 
Warning[205]: Found directive in column 1. (ORG)
006400                07437 ORG 0X6400
006400                07438 FONT02H_CAP_SPACE
006400 0E00           07439         MOVLW   0
MPASM  5.51                 20200227_P6MM.ASM   2-27-2020  19:46:00         PAGE 146


LOC  OBJECT CODE     LINE SOURCE TEXT
  VALUE

006402 6EFB           07440         MOVWF   PCLATU,0
006404 0E64           07441         MOVLW   64
006406 6EFA           07442         MOVWF   PCLATH,0
                      07443 
                      07444         
                      07445 
                      07446         
006408 C146 FFE8      07447                         MOVFF   BTCOUNT,WREG
00640C 90D8           07448                         BCF             STATUS,C
00640E 36E8           07449                         RLCF    WREG
                      07450 
                      07451                 
006410 26F9           07452                         ADDWF   PCL,1,0
006412 0CFF 0CFF 0CFF 07453                         DT      B'11111111',B'11111111',B'11111111'     ;BTC=00
006418 0CFF 0CFF 0CFF 07454                         DT      B'11111111',B'11111111',B'11111111'     ;BTC=01
00641E 0CFF 0CFF 0CFF 07455                         DT      B'11111111',B'11111111',B'11111111'     ;BTC=02
006424 0CFF 0CFF 0CFF 07456                         DT      B'11111111',B'11111111',B'11111111'     ;BTC=03
00642A 0CFF 0CFF 0CFF 07457                         DT      B'11111111',B'11111111',B'11111111'     ;BTC=04
006430 0CFF 0CFF 0CFF 07458                         DT      B'11111111',B'11111111',B'11111111'     ;BTC=05
006436 0CFF 0CFF 0CFF 07459                         DT      B'11111111',B'11111111',B'11111111'     ;BTC=06
00643C 0CFF 0CFF 0CFF 07460                         DT      B'11111111',B'11111111',B'11111111'     ;BTC=07
006442 0CFF 0CFF 0CFF 07461                         DT      B'11111111',B'11111111',B'11111111'     ;BTC=08
006448 0CFF 0CFF 0CFF 07462                         DT      B'11111111',B'11111111',B'11111111'     ;BTC=09
00644E 0CFF 0CFF 0CFF 07463                         DT      B'11111111',B'11111111',B'11111111'     ;BTC=0A
006454 0CFF 0CFF 0CFF 07464                         DT      B'11111111',B'11111111',B'11111111'     ;BTC=0B
00645A 0CFF 0CFF 0CFF 07465                         DT      B'11111111',B'11111111',B'11111111'     ;BTC=0C
006460 0CFF 0CFF 0CFF 07466                         DT      B'11111111',B'11111111',B'11111111'     ;BTC=0D
006466 0CFF 0CFF 0CFF 07467                         DT      B'11111111',B'11111111',B'11111111'     ;BTC=0E
00646C 0CFF 0CFF 0CFF 07468                         DT      B'11111111',B'11111111',B'11111111'     ;BTC=0F
                      07469 
                      07470 
                      07471         
Warning[205]: Found directive in column 1. (ORG)
006500                07472 ORG 0X6500
006500                07473 FONT02L_CAP_SPACE
006500 0E00           07474         MOVLW   0
006502 6EFB           07475         MOVWF   PCLATU,0
006504 0E65           07476         MOVLW   65
006506 6EFA           07477         MOVWF   PCLATH,0
                      07478 
                      07479 
                      07480 
                      07481 
006508 C146 FFE8      07482                         MOVFF   BTCOUNT,WREG
00650C 90D8           07483                         BCF             STATUS,C
00650E 36E8           07484                         RLCF    WREG
                      07485 
                      07486                 
006510 26F9           07487                         ADDWF   PCL,1,0
006512 0CFF 0CFF 0CFF 07488                         DT      B'11111111',B'11111111',B'11111111'     ;BTC=10
006518 0CFF 0CFF 0CFF 07489                         DT      B'11111111',B'11111111',B'11111111'     ;BTC=11
00651E 0CFF 0CFF 0CFF 07490                         DT      B'11111111',B'11111111',B'11111111'     ;BTC=12
006524 0CFF 0CFF 0CFF 07491                         DT      B'11111111',B'11111111',B'11111111'     ;BTC=13
MPASM  5.51                 20200227_P6MM.ASM   2-27-2020  19:46:00         PAGE 147


LOC  OBJECT CODE     LINE SOURCE TEXT
  VALUE

00652A 0CFF 0CFF 0CFF 07492                         DT      B'11111111',B'11111111',B'11111111'     ;BTC=14
006530 0CFF 0CFF 0CFF 07493                         DT      B'11111111',B'11111111',B'11111111'     ;BTC=15
006536 0CFF 0CFF 0CFF 07494                         DT      B'11111111',B'11111111',B'11111111'     ;BTC=16
00653C 0CFF 0CFF 0CFF 07495                         DT      B'11111111',B'11111111',B'11111111'     ;BTC=17
006542 0CFF 0CFF 0CFF 07496                         DT      B'11111111',B'11111111',B'11111111'     ;BTC=18
006548 0CFF 0CFF 0CFF 07497                         DT      B'11111111',B'11111111',B'11111111'     ;BTC=19
00654E 0CFF 0CFF 0CFF 07498                         DT      B'11111111',B'11111111',B'11111111'     ;BTC=1A
006554 0CFF 0CFF 0CFF 07499                         DT      B'11111111',B'11111111',B'11111111'     ;BTC=1B
00655A 0CFF 0CFF 0CFF 07500                         DT      B'11111111',B'11111111',B'11111111'     ;BTC=1C
006560 0CFF 0CFF 0CFF 07501                         DT      B'11111111',B'11111111',B'11111111'     ;BTC=1D
006566 0CFF 0CFF 0CFF 07502                         DT      B'11111111',B'11111111',B'11111111'     ;BTC=1E
00656C 0CFF 0CFF 0CFF 07503                         DT      B'11111111',B'11111111',B'11111111'     ;BTC=1F
                      07504 
                      07505 
                      07506 
                      07507 
                      07508 
Warning[205]: Found directive in column 1. (ORG)
007000                07509 ORG     0X7000
007000                07510 WIDTH_CHECK
                      07511 
007000 0E00           07512         MOVLW   0
007002 6EFB           07513         MOVWF   PCLATU,0
007004 0E70           07514         MOVLW   70
007006 6EFA           07515         MOVWF   PCLATH,0
                      07516 
                      07517 
                      07518 
                      07519 
007008 CFEF FFE8      07520                         MOVFF   INDF0,WREG
00700C 90D8           07521                         BCF             STATUS,C
00700E 36E8           07522                         RLCF    WREG
                      07523 
                      07524                 
007010 26F9           07525                         ADDWF   PCL,1,0
                      07526 
                      07527 
                      07528 ;=================== UPPERCASE CHARACTERS =====================
007012 0C15           07529                 DT      15      ;CODE   =       00              CHAR    =       A
007014 0C15           07530                 DT      15      ;CODE   =       01              CHAR    =       B
007016 0C15           07531                 DT      15      ;CODE   =       02              CHAR    =       C
007018 0C15           07532                 DT      15      ;CODE   =       03              CHAR    =       D
00701A 0C15           07533                 DT      15      ;CODE   =       04              CHAR    =       E
00701C 0C15           07534                 DT      15      ;CODE   =       05              CHAR    =       F
00701E 0C15           07535                 DT      15      ;CODE   =       06              CHAR    =       G
007020 0C15           07536                 DT      15      ;CODE   =       07              CHAR    =       H
007022 0C11           07537                 DT      11      ;CODE   =       08              CHAR    =       I
007024 0C15           07538                 DT      15      ;CODE   =       09              CHAR    =       J
007026 0C15           07539                 DT      15      ;CODE   =       0A              CHAR    =       K
007028 0C10           07540                 DT      10      ;CODE   =       0B              CHAR    =       L
00702A 0C15           07541                 DT      15      ;CODE   =       0C              CHAR    =       M
00702C 0C15           07542                 DT      15      ;CODE   =       0D              CHAR    =       N
00702E 0C15           07543                 DT      15      ;CODE   =       0E              CHAR    =       O
MPASM  5.51                 20200227_P6MM.ASM   2-27-2020  19:46:00         PAGE 148


LOC  OBJECT CODE     LINE SOURCE TEXT
  VALUE

007030 0C15           07544                 DT      15      ;CODE   =       0F              CHAR    =       P
007032 0C15           07545                 DT      15      ;CODE   =       10              CHAR    =       Q
007034 0C15           07546                 DT      15      ;CODE   =       11              CHAR    =       R
007036 0C15           07547                 DT      15      ;CODE   =       12              CHAR    =       S
007038 0C14           07548                 DT      14      ;CODE   =       13              CHAR    =       T
00703A 0C15           07549                 DT      15      ;CODE   =       14              CHAR    =       U
00703C 0C15           07550                 DT      15      ;CODE   =       15              CHAR    =       V
00703E 0C15           07551                 DT      15      ;CODE   =       16              CHAR    =       W
007040 0C15           07552                 DT      15      ;CODE   =       17              CHAR    =       X
007042 0C15           07553                 DT      15      ;CODE   =       18              CHAR    =       Y
007044 0C15           07554                 DT      15      ;CODE   =       19              CHAR    =       Z
007046 0C15           07555                 DT      15      ;CODE   =       1A              CHAR    =       0
007048 0C11           07556                 DT      11      ;CODE   =       1B              CHAR    =       1
00704A 0C15           07557                 DT      15      ;CODE   =       1C              CHAR    =       2
00704C 0C15           07558                 DT      15      ;CODE   =       1D              CHAR    =       3
00704E 0C15           07559                 DT      15      ;CODE   =       1E              CHAR    =       4
007050 0C15           07560                 DT      15      ;CODE   =       1F              CHAR    =       5
007052 0C15           07561                 DT      15      ;CODE   =       20              CHAR    =       6
007054 0C15           07562                 DT      15      ;CODE   =       21              CHAR    =       7
007056 0C15           07563                 DT      15      ;CODE   =       22              CHAR    =       8
007058 0C15           07564                 DT      15      ;CODE   =       23              CHAR    =       9
00705A 0C15           07565                 DT      15      ;CODE   =       24              CHAR    =       ENYE
00705C 0C0D           07566                 DT      0D      ;CODE   =       25              CHAR    =       DASH
00705E 0C09           07567                 DT      09      ;CODE   =       26              CHAR    =       COLON
007060 0C09           07568                 DT      09      ;CODE   =       27              CHAR    =       SEMICOLON
007062 0C09           07569                 DT      09      ;CODE   =       28              CHAR    =       COMMA
007064 0C09           07570                 DT      09      ;CODE   =       29              CHAR    =       DOT     
007066 0C13           07571                 DT      13      ;CODE   =       2A              CHAR    =       SPACE
                      07572 ;==============================================================
007068 0C15           07573                 DT      15      ;CODE   =       2B              CHAR    =       EMPTY
00706A 0C15           07574                 DT      15      ;CODE   =       2C              CHAR    =       EMPTY
00706C 0C15           07575                 DT      15      ;CODE   =       2D              CHAR    =       EMPTY
00706E 0C15           07576                 DT      15      ;CODE   =       2E              CHAR    =       EMPTY
007070 0C15           07577                 DT      15      ;CODE   =       2F              CHAR    =       EMPTY
                      07578 
                      07579 ;=================== LOWERCASE CHARACTERS =====================
007072 0C12           07580                 DT      12      ;CODE   =       30              CHAR    =       A
007074 0C12           07581                 DT      12      ;CODE   =       31              CHAR    =       B
007076 0C12           07582                 DT      12      ;CODE   =       32              CHAR    =       C
007078 0C12           07583                 DT      12      ;CODE   =       33              CHAR    =       D
00707A 0C12           07584                 DT      12      ;CODE   =       34              CHAR    =       E
00707C 0C0F           07585                 DT      0F      ;CODE   =       35              CHAR    =       F
00707E 0C12           07586                 DT      12      ;CODE   =       36              CHAR    =       G
007080 0C11           07587                 DT      11      ;CODE   =       37              CHAR    =       H
007082 0C05           07588                 DT      05      ;CODE   =       38              CHAR    =       I
007084 0C11           07589                 DT      11      ;CODE   =       39              CHAR    =       J
007086 0C0D           07590                 DT      0D      ;CODE   =       3A              CHAR    =       K
007088 0C05           07591                 DT      05      ;CODE   =       3B              CHAR    =       L
00708A 0C13           07592                 DT      13      ;CODE   =       3C              CHAR    =       M
00708C 0C12           07593                 DT      12      ;CODE   =       3D              CHAR    =       N
00708E 0C12           07594                 DT      12      ;CODE   =       3E              CHAR    =       O
007090 0C12           07595                 DT      12      ;CODE   =       3F              CHAR    =       P
007092 0C13           07596                 DT      13      ;CODE   =       40              CHAR    =       Q
MPASM  5.51                 20200227_P6MM.ASM   2-27-2020  19:46:00         PAGE 149


LOC  OBJECT CODE     LINE SOURCE TEXT
  VALUE

007094 0C0E           07597                 DT      0E      ;CODE   =       41              CHAR    =       R
007096 0C0E           07598                 DT      0E      ;CODE   =       42              CHAR    =       S
007098 0C0F           07599                 DT      0F      ;CODE   =       43              CHAR    =       T
00709A 0C12           07600                 DT      12      ;CODE   =       44              CHAR    =       U
00709C 0C12           07601                 DT      12      ;CODE   =       45              CHAR    =       V
00709E 0C13           07602                 DT      13      ;CODE   =       46              CHAR    =       W
0070A0 0C12           07603                 DT      12      ;CODE   =       47              CHAR    =       X
0070A2 0C12           07604                 DT      12      ;CODE   =       48              CHAR    =       Y
0070A4 0C12           07605                 DT      12      ;CODE   =       49              CHAR    =       Z
0070A6 0C15           07606                 DT      15      ;CODE   =       4A              CHAR    =       0
0070A8 0C11           07607                 DT      11      ;CODE   =       4B              CHAR    =       1
0070AA 0C15           07608                 DT      15      ;CODE   =       4C              CHAR    =       2
0070AC 0C15           07609                 DT      15      ;CODE   =       4D              CHAR    =       3
0070AE 0C15           07610                 DT      15      ;CODE   =       4E              CHAR    =       4
0070B0 0C15           07611                 DT      15      ;CODE   =       4F              CHAR    =       5
0070B2 0C15           07612                 DT      15      ;CODE   =       50              CHAR    =       6
0070B4 0C15           07613                 DT      15      ;CODE   =       51              CHAR    =       7
0070B6 0C15           07614                 DT      15      ;CODE   =       52              CHAR    =       8
0070B8 0C15           07615                 DT      15      ;CODE   =       53              CHAR    =       9
0070BA 0C12           07616                 DT      12      ;CODE   =       54              CHAR    =       ENYE
0070BC 0C09           07617                 DT      09      ;CODE   =       55              CHAR    =       DASH
0070BE 0C07           07618                 DT      07      ;CODE   =       56              CHAR    =       COLON
0070C0 0C07           07619                 DT      07      ;CODE   =       57              CHAR    =       SEMICOLON
0070C2 0C07           07620                 DT      07      ;CODE   =       58              CHAR    =       COMMA
0070C4 0C07           07621                 DT      07      ;CODE   =       59              CHAR    =       DOT     
0070C6 0C10           07622                 DT      10      ;CODE   =       5A              CHAR    =       SPACE
                      07623 ;==============================================================
0070C8 0C12           07624                 DT      12      ;CODE   =       5B              CHAR    =       EMPTY
0070CA 0C12           07625                 DT      12      ;CODE   =       5C              CHAR    =       EMPTY
0070CC 0C12           07626                 DT      12      ;CODE   =       5D              CHAR    =       EMPTY
0070CE 0C12           07627                 DT      12      ;CODE   =       5E              CHAR    =       EMPTY
0070D0 0C12           07628                 DT      12      ;CODE   =       5F              CHAR    =       EMPTY
                      07629 
                      07630 
                      07631 
                      07632 
                      07633 
                      07634 
                      07635 
                      07636 
                      07637 
                      07638 
                      07639 
Warning[205]: Found directive in column 1. (ORG)
008000                07640 ORG     0X8000
                      07641 ;=========================      READING COMMAND MEMORY ==================
008000                07642 READ_CMD_MEMORY
008000 0E03           07643                 MOVLW   0X03
008002 6EEA           07644                 MOVWF   FSR0H   ;COMMAND MEMORY
008004 0E00           07645                 MOVLW   0X00
008006 6EE9           07646                 MOVWF   FSR0L   ;COMMAND MEMORY
                      07647 
008008 0E01           07648                 MOVLW   0X01
MPASM  5.51                 20200227_P6MM.ASM   2-27-2020  19:46:00         PAGE 150


LOC  OBJECT CODE     LINE SOURCE TEXT
  VALUE

00800A 6EE2           07649                 MOVWF   FSR1H   ;CHARACTER RAM
                      07650 
00800C 0E70           07651                 MOVLW   0X70
00800E 6EE1           07652                 MOVWF   FSR1L   ;CHARACTER RAM
                      07653 
008010 0E02           07654                 MOVLW   0X02
008012 6EDA           07655                 MOVWF   FSR2H   ;COLOR MEMORY
                      07656 
008014 0E00           07657                 MOVLW   0X00
008016 6ED9           07658                 MOVWF   FSR2L   ;COLOR MEMORY
                      07659 
                      07660 
008018                07661 RCM0
008018 CFEF F16C      07662                 MOVFF   INDF0,W_TEMP
                      07663 
00801C 0EFE           07664                 MOVLW   0XFE
00801E 636C           07665                 CPFSEQ  W_TEMP
008020 EF13 F040      07666                 GOTO    RCM1
008024 0012           07667                 RETURN
008026                07668 RCM1
008026 0EA0           07669                 MOVLW   0XA0
008028 636C           07670                 CPFSEQ  W_TEMP
00802A EF1B F040      07671                 GOTO    RCM2
00802E EC3F F040      07672                 CALL    CMD_CSRX        ;CURSOR COMMAND
008032 EF36 F040      07673                 GOTO    RCM_EXIT
                      07674 
008036                07675 RCM2
008036 0EA1           07676                 MOVLW   0XA1
008038 636C           07677                 CPFSEQ  W_TEMP
00803A EF23 F040      07678                 GOTO    RCM3
00803E EC47 F040      07679                 CALL    CMD_COLOR       ;COLOR  COMMAND
008042 EF36 F040      07680                 GOTO    RCM_EXIT
                      07681 
008046                07682 RCM3
008046 0EA2           07683                 MOVLW   0XA2
008048 636C           07684                 CPFSEQ  W_TEMP
00804A EF2B F040      07685                 GOTO    RCM4
00804E EC4D F040      07686                 CALL    CMD_CHAR        ;CHARACTER COMMAND
008052 EF36 F040      07687                 GOTO    RCM_EXIT
                      07688 
008056                07689 RCM4
008056 0EA3           07690                 MOVLW   0XA3
008058 636C           07691                 CPFSEQ  W_TEMP
00805A EF33 F040      07692                 GOTO    RCM5
00805E EC3A F040      07693                 CALL    CMD_SCROLL      ;SCROLL COMMAND
008062 EF36 F040      07694                 GOTO    RCM_EXIT
                      07695 
008066                07696 RCM5
008066 0000           07697                 NOP
008068 0000           07698                 NOP
00806A 0012           07699                 RETURN          
                      07700 
00806C                07701 RCM_EXIT
MPASM  5.51                 20200227_P6MM.ASM   2-27-2020  19:46:00         PAGE 151


LOC  OBJECT CODE     LINE SOURCE TEXT
  VALUE

00806C 0000           07702                 NOP
00806E EF0C F040      07703                 GOTO    RCM0
Warning[203]: Found opcode in column 1. (RETURN)
008072 0012           07704 RETURN
                      07705 
                      07706 
008074                07707 CMD_SCROLL
008074 2AE9           07708                 INCF    FSR0L
008076 CFEF F150      07709                 MOVFF   INDF0,SCROLL_BIT
00807A 2AE9           07710                 INCF    FSR0L
Warning[203]: Found opcode in column 1. (RETURN)
00807C 0012           07711 RETURN
                      07712 
00807E                07713 CMD_CSRX
00807E 2AE9           07714                 INCF    FSR0L
008080 CFEF F1A0      07715                 MOVFF   INDF0,MOVX+00
008084 2AE9           07716                 INCF    FSR0L
008086 CFEF F1A1      07717                 MOVFF   INDF0,MOVX+01
00808A 2AE9           07718                 INCF    FSR0L
Warning[203]: Found opcode in column 1. (RETURN)
00808C 0012           07719 RETURN
                      07720 
00808E                07721 CMD_COLOR
00808E 2AE9           07722                 INCF    FSR0L
008090 CFEF FFDF      07723                 MOVFF   INDF0,INDF2
008094 2AE9           07724                 INCF    FSR0L
008096 2AD9           07725                 INCF    FSR2L
Warning[203]: Found opcode in column 1. (RETURN)
008098 0012           07726 RETURN
                      07727 
00809A                07728 CMD_CHAR
00809A 2AE9           07729                 INCF    FSR0L
00809C CFEF FFE7      07730                 MOVFF   INDF0,INDF1
0080A0 2AE9           07731                 INCF    FSR0L
0080A2 2AE1           07732                 INCF    FSR1L
Warning[203]: Found opcode in column 1. (RETURN)
0080A4 0012           07733 RETURN
                      07734 
                      07735 ;======================================================================
                      07736 
                      07737 ;=========================      CLEAR COMMAND MEMORY ======================
0080A6                07738 CLR_CMD_MEMORY
0080A6 0E03           07739                 MOVLW   0X03
0080A8 6EEA           07740                 MOVWF   FSR0H
0080AA 0E00           07741                 MOVLW   0X00
0080AC 6EE9           07742                 MOVWF   FSR0L
                      07743 
0080AE 0EFF           07744                 MOVLW   0XFF
0080B0 6F41           07745                 MOVWF   LOOP
0080B2 0EFF           07746                 MOVLW   0XFF
0080B4                07747 CLRCM0
0080B4 6EEF           07748                 MOVWF   INDF0
0080B6 2AE9           07749                 INCF    FSR0L
MPASM  5.51                 20200227_P6MM.ASM   2-27-2020  19:46:00         PAGE 152


LOC  OBJECT CODE     LINE SOURCE TEXT
  VALUE

0080B8 2F41           07750                 DECFSZ  LOOP
0080BA EF5A F040      07751                 GOTO    CLRCM0
0080BE 6EEF           07752                 MOVWF   INDF0
Warning[203]: Found opcode in column 1. (RETURN)
0080C0 0012           07753 RETURN
                      07754 ;======================================================================
                      07755 
                      07756 
                      07757 ;=================== EEPROM DATA TO COMMAND MEMORY ====================
                      07758 ;EEPROM DATA READ MOVE TO COMMAND MEMORY
0080C2                07759 DATATRANS_EEPROM_TO_CMD
0080C2 0E00           07760                 MOVLW 0
0080C4 6EAA           07761                 MOVWF EEADRH            ; UPPER BITS OF DATA MEMORY ADDRESS TO WRITE
0080C6 0E00           07762                 MOVLW 0
0080C8 6EA9           07763                 MOVWF EEADR             ; LOWER BITS OF DATA MEMORY ADDRESS TO WRITE
                      07764 
0080CA 0E03           07765                 MOVLW   0X03
0080CC 6EEA           07766                 MOVWF   FSR0H   ;COMMAND MEMORY
0080CE 0E00           07767                 MOVLW   0X00
0080D0 6EE9           07768                 MOVWF   FSR0L   ;COMMAND MEMORY
                      07769 
0080D2                07770 DTR_EECMD0
0080D2 9EA6           07771                 BCF     EECON1, EEPGD ; POINT TO DATA MEMORY
0080D4 9CA6           07772                 BCF     EECON1, CFGS ; ACCESS EEPROM
0080D6 80A6           07773                 BSF             EECON1, RD ; EEPROM READ
0080D8 CFA8 F16C      07774                 MOVFF   EEDATA,W_TEMP
                      07775 
0080DC 0EFE           07776                 MOVLW   0XFE
0080DE 636C           07777                 CPFSEQ  W_TEMP
0080E0 EF74 F040      07778                 GOTO    DTR_EECMD1
0080E4 EF7B F040      07779                 GOTO    DTR_EECMD_EXIT
                      07780 
0080E8                07781 DTR_EECMD1
0080E8 CFA8 FFEF      07782                 MOVFF   EEDATA,INDF0
0080EC 2AE9           07783                 INCF    FSR0L
0080EE 2AA9           07784                 INCF    EEADR
0080F0 EF69 F040      07785                 GOTO    DTR_EECMD0
0080F4 0000           07786                 NOP
0080F6                07787 DTR_EECMD_EXIT
0080F6 CFA8 FFEF      07788                 MOVFF   EEDATA,INDF0
                      07789 
Warning[203]: Found opcode in column 1. (RETURN)
0080FA 0012           07790 RETURN
                      07791 ;====================================================================
                      07792 
                      07793 
                      07794 
                      07795 ;======================= EEPROM READ DATA ==========================
0080FC                07796 EEPROM_DATAREAD
Warning[203]: Found opcode in column 1. (RETURN)
0080FC 0012           07797 RETURN
                      07798 ;====================================================================
                      07799 
MPASM  5.51                 20200227_P6MM.ASM   2-27-2020  19:46:00         PAGE 153


LOC  OBJECT CODE     LINE SOURCE TEXT
  VALUE

                      07800 
                      07801 
                      07802 
                      07803 ;=================== COMMAND MEMORY TO EEPROM DATA ====================
                      07804 ;COMMAND DATA MOVE TO EEPROM DATA
0080FE                07805 DATATRANS_CMD_TO_EEPROM
0080FE 0E00           07806                 MOVLW 0
008100 6EAA           07807                 MOVWF EEADRH            ; UPPER BITS OF DATA MEMORY ADDRESS TO WRITE
008102 0E00           07808                 MOVLW 0
008104 6EA9           07809                 MOVWF EEADR             ; LOWER BITS OF DATA MEMORY ADDRESS TO WRITE
                      07810 
008106 0E03           07811                 MOVLW   0X03
008108 6EEA           07812                 MOVWF   FSR0H   ;COMMAND MEMORY
00810A 0E00           07813                 MOVLW   0X00
00810C 6EE9           07814                 MOVWF   FSR0L   ;COMMAND MEMORY
                      07815 
00810E                07816 DTR_CMDEE0
00810E CFEF F16C      07817                 MOVFF   INDF0,W_TEMP
                      07818 
                      07819 
008112 0EFF           07820                 MOVLW   .255
008114 636C           07821                 CPFSEQ  W_TEMP
008116 EF8E F040      07822                 GOTO    DTR_CMDEE1
00811A 0012           07823                 RETURN
                      07824 
00811C                07825 DTR_CMDEE1
00811C CFEF FFA8      07826                 MOVFF   INDF0,EEDATA            ;CMD MEMORY
                      07827                                                                         ;ADDR= FSR0H,FSR0L
                      07828                                                                         ;MOVE TO EEPROM DATA
                      07829                                                                         ;ADDR= EEADRH,EEADR
008120 EC97 F040      07830                 CALL    EEPROM_DATAWRITE
008124 2AE9           07831                 INCF    FSR0L
008126 2AA9           07832                 INCF    EEADR
008128 EF87 F040      07833                 GOTO    DTR_CMDEE0
                      07834 
Warning[203]: Found opcode in column 1. (RETURN)
00812C 0012           07835 RETURN
                      07836 ;======================================================================
                      07837 
                      07838 ;======================= EEPROM WRITE DATA ============================
00812E                07839 EEPROM_DATAWRITE
                      07840 
00812E 9EA6           07841                 BCF     EECON1, 7               ;EPGD   ; POINT TO DATA MEMORY
008130 9CA6           07842                 BCF     EECON1, 6               ;CFGS   ; ACCESS EEPROM
008132 84A6           07843                 BSF     EECON1, 2               ;WREN   ; ENABLE WRITES
                      07844 
008134 9EF2           07845                 BCF     INTCON, GIE     ; DISABLE INTERRUPTS
008136 0E55           07846                 MOVLW   55H ;
008138 6EA7           07847                 MOVWF   EECON2                  ; WRITE 55H
00813A 0EAA           07848                 MOVLW   0AAH
00813C 6EA7           07849                 MOVWF   EECON2                  ; WRITE 0AAH
                      07850 
00813E 82A6           07851                 BSF     EECON1, 1;WR    ; SET WR BIT TO BEGIN WRITE
MPASM  5.51                 20200227_P6MM.ASM   2-27-2020  19:46:00         PAGE 154


LOC  OBJECT CODE     LINE SOURCE TEXT
  VALUE

008140 8EF2           07852                 BSF     INTCON, GIE     ; ENABLE INTERRUPTS
                      07853                                                                 ; USER CODE EXECUTION
008142 94A6           07854                 BCF     EECON1, 2;WREN  ; DISABLE WRITES ON WRITE COMPLETE (EEIF SET)
                      07855 
008144                07856 EEDWR0
008144 B2A6           07857                 BTFSC   EECON1, 1
008146 EFA2 F040      07858                 GOTO    EEDWR0  
00814A 0000           07859                 NOP
                      07860 
Warning[203]: Found opcode in column 1. (RETURN)
00814C 0012           07861 RETURN
                      07862 ;====================================================================
                      07863 
                      07864 
Warning[205]: Found directive in column 1. (END)
                      07865 END
MPASM  5.51                 20200227_P6MM.ASM   2-27-2020  19:46:00         PAGE 155


SYMBOL TABLE
  LABEL                             VALUE 

A                                 00000000
ABDEN                             00000000
ABDOVF                            00000007
ACCESS                            00000000
ACKDT                             00000005
ACKEN                             00000004
ACKSTAT                           00000006
ACQT0                             00000003
ACQT1                             00000004
ACQT2                             00000005
ADCON0                            00000FC2
ADCON1                            00000FC1
ADCON2                            00000FC0
ADCS0                             00000000
ADCS1                             00000001
ADCS2                             00000002
ADDEN                             00000003
ADEN                              00000003
ADFM                              00000007
ADIE                              00000006
ADIF                              00000006
ADIP                              00000006
ADON                              00000000
ADRES                             00000FC3
ADRESH                            00000FC4
ADRESL                            00000FC3
AN10                              00000001
AN11                              00000004
AN12                              00000000
AN4                               00000005
AN5                               00000000
AN6                               00000001
AN7                               00000002
AN8                               00000002
AN9                               00000003
BANKED                            00000001
BAUDCON                           00000FB8
BAUDCTL                           00000FB8
BCLIE                             00000003
BCLIF                             00000003
BCLIP                             00000003
BF                                00000000
BGST                              00000005
BOR                               00000000
BRG16                             00000003
BRGH                              00000002
BSR                               00000FE0
BSR_TEMP                          0000016E
BTCOUNT                           00000146
C                                 00000000
C1INV                             00000004
C1OUT                             00000006
C2INV                             00000005
MPASM  5.51                 20200227_P6MM.ASM   2-27-2020  19:46:00         PAGE 156


SYMBOL TABLE
  LABEL                             VALUE 

C2OUT                             00000007
CCOUNT                            00000161
CCP1                              00000002
CCP1CON                           00000FBD
CCP1IE                            00000002
CCP1IF                            00000002
CCP1IP                            00000002
CCP1M0                            00000000
CCP1M1                            00000001
CCP1M2                            00000002
CCP1M3                            00000003
CCP1X                             00000005
CCP1Y                             00000004
CCP2CON                           00000FBA
CCP2IE                            00000000
CCP2IF                            00000000
CCP2IP                            00000000
CCP2M0                            00000000
CCP2M1                            00000001
CCP2M2                            00000002
CCP2M3                            00000003
CCP2X                             00000005
CCP2Y                             00000004
CCP2_PORTB                        00000003
CCP2_PORTC                        00000001
CCPR1                             00000FBE
CCPR1H                            00000FBF
CCPR1L                            00000FBE
CCPR2                             00000FBB
CCPR2H                            00000FBC
CCPR2L                            00000FBB
CFGS                              00000006
CFSR0                             000001AA
CFSR1                             000001B8
CFSR1C0                           000001DE
CFSR2                             000001EE
CFSRLOOP                          00000164
CHAR                              00000170
CHARFSRH                          00000168
CHARFSRL                          00000169
CHS0                              00000002
CHS1                              00000003
CHS2                              00000004
CHS3                              00000005
CIS                               00000003
CK                                00000006
CKE                               00000006
CKP                               00000004
CLK_OFF                           BCF     LATD,5,0
CLK_ON                            BSF     LATD,5,0
CLR0                              0000028A
CLRCHAR0                          00000230
CLRCLM0                           0000024A
MPASM  5.51                 20200227_P6MM.ASM   2-27-2020  19:46:00         PAGE 157


SYMBOL TABLE
  LABEL                             VALUE 

CLRCM0                            000080B4
CLRFSR0                           00000266
CLR_CHAR                          00000222
CLR_CMD_MEMORY                    000080A6
CLR_COLORM                        0000023E
CLR_CSR                           00000258
CLR_RAM                           0000027A
CM0                               00000000
CM1                               00000001
CM2                               00000002
CMCON                             00000FB4
CMD_CHAR                          0000809A
CMD_COLOR                         0000808E
CMD_CSRX                          0000807E
CMD_MEMORY                        00000300
CMD_SCROLL                        00008074
CMIE                              00000006
CMIF                              00000006
CMIP                              00000006
COLOR                             00000147
COLORA                            0000015E
COLORM                            00000200
COLOR_FSRH                        0000015F
COLOR_FSRL                        00000160
COMMAND                           000001F8
COUNT0                            00000142
COUNT1                            00000143
COUNT2                            00000144
CREN                              00000004
CS                                00000002
CSRBIT                            00000163
CSRC                              00000007
CSRHBYTE                          00000165
CURSORFSR                         00000188
CURSORX                           0000014C
CURSORX_TEMP                      0000014E
CURSORX_TEST                      0000076A
CURSORY                           0000014D
CVR0                              00000000
CVR1                              00000001
CVR2                              00000002
CVR3                              00000003
CVRCON                            00000FB5
CVREN                             00000007
CVROE                             00000006
CVRR                              00000005
CVRSS                             00000004
CX08                              00000772
CX16                              00000784
CX24                              0000079A
CX32                              000007B0
CX40                              000007C6
CX48                              000007DC
MPASM  5.51                 20200227_P6MM.ASM   2-27-2020  19:46:00         PAGE 158


SYMBOL TABLE
  LABEL                             VALUE 

CX56                              000007F2
CX64                              00000806
CXGE16                            00000792
CXGE24                            000007A8
CXGE32                            000007BE
CXGE40                            000007D4
CXGE48                            000007EA
CXGE56                            00000800
CXGE8                             0000077C
D                                 00000005
DATAINRAM                         000003AA
DATAREG                           000002A8
DATAREGSUB                        000002B6
DATATRANS_CMD_TO_EEPROM           000080FE
DATATRANS_EEPROM_TO_CMD           000080C2
DC                                00000001
DC1B0                             00000004
DC1B1                             00000005
DC2B0                             00000004
DC2B1                             00000005
DDISP                             00000152
DDRA                              TRISA
DDRB                              TRISB
DDRC                              TRISC
DDRD                              TRISD
DDRE                              TRISE
DIR0                              000003C2
DIR1                              000003D8
DIR2A                             00000468
DIR2B                             00000492
DIR2BA                            000004A6
DIR2C                             000004D8
DIR2CA                            000004EC
DIR2_YELLOW                       00000406
DIR3A                             0000046A
DIR3B                             000004A8
DIR3C                             000004EE
DIR4A                             00000508
DIR4B                             0000051E
DIR4C                             00000536
DIR5                              0000053C
DIR6A                             0000056E
DIR6B                             00000598
DIR6BA                            000005AC
DIR6C                             000005DE
DIR6CA                            000005F2
DIR7A                             00000570
DIR7B                             000005AE
DIR7C                             000005F4
DIRC                              000003B4
DIR_SUB                           00000436
DIR_SUB0                          00000448
DIR_SUB1                          0000054E
MPASM  5.51                 20200227_P6MM.ASM   2-27-2020  19:46:00         PAGE 159


SYMBOL TABLE
  LABEL                             VALUE 

DISP                              0000014E
DISP0                             00000166
DISPLAY                           0000015E
DMP0                              0000039C
DMPL0                             00000374
DMPL1                             0000038C
DMP_FONT02                        00000358
DMP_FONT02CONT                    00000366
DONE                              00000001
DR0                               000002BA
DR1                               000002D4
DR2                               000002E8
DR3                               000002FC
DR4                               00000310
DR5                               00000324
DRAM                              00000100
DTR_CMDEE0                        0000810E
DTR_CMDEE1                        0000811C
DTR_EECMD0                        000080D2
DTR_EECMD1                        000080E8
DTR_EECMD_EXIT                    000080F6
DUMP                              0000033A
D_A                               00000005
D_NOT_A                           00000005
ECCP1AS                           00000FB6
ECCPAS0                           00000004
ECCPAS1                           00000005
ECCPAS2                           00000006
ECCPASE                           00000007
EEADR                             00000FA9
EEADRH                            00000FAA
EECON1                            00000FA6
EECON2                            00000FA7
EEDATA                            00000FA8
EEDWR0                            00008144
EEIE                              00000004
EEIF                              00000004
EEIP                              00000004
EEPGD                             00000007
EEPROM_DATAREAD                   000080FC
EEPROM_DATAWRITE                  0000812E
ENDPOINT0                         0000016A
ENDPOINT1                         0000016B
EXAMPLE                           00000000
FAST                              00000001
FERR                              00000002
FONT                              0000014A
FONT02H                           00000C00
FONT02H_CAP_A                     00001000
FONT02H_CAP_B                     00001200
FONT02H_CAP_C                     00001400
FONT02H_CAP_COLON                 00005C00
FONT02H_CAP_COMMA                 00006000
MPASM  5.51                 20200227_P6MM.ASM   2-27-2020  19:46:00         PAGE 160


SYMBOL TABLE
  LABEL                             VALUE 

FONT02H_CAP_D                     00001600
FONT02H_CAP_DASH                  00005A00
FONT02H_CAP_DOT                   00006200
FONT02H_CAP_E                     00001800
FONT02H_CAP_EIGHT                 00005400
FONT02H_CAP_ENYE                  00005800
FONT02H_CAP_F                     00001A00
FONT02H_CAP_FIVE                  00004E00
FONT02H_CAP_FOUR                  00004C00
FONT02H_CAP_G                     00001C00
FONT02H_CAP_H                     00001E00
FONT02H_CAP_I                     00002000
FONT02H_CAP_J                     00002200
FONT02H_CAP_K                     00002400
FONT02H_CAP_L                     00002600
FONT02H_CAP_M                     00002800
FONT02H_CAP_N                     00002A00
FONT02H_CAP_NINE                  00005600
FONT02H_CAP_O                     00002C00
FONT02H_CAP_ONE                   00004600
FONT02H_CAP_P                     00002E00
FONT02H_CAP_Q                     00003000
FONT02H_CAP_R                     00003200
FONT02H_CAP_S                     00003400
FONT02H_CAP_SEMICOLON             00005E00
FONT02H_CAP_SEVEN                 00005200
FONT02H_CAP_SIX                   00005000
FONT02H_CAP_SPACE                 00006400
FONT02H_CAP_T                     00003600
FONT02H_CAP_THREE                 00004A00
FONT02H_CAP_TWO                   00004800
FONT02H_CAP_U                     00003800
FONT02H_CAP_V                     00003A00
FONT02H_CAP_W                     00003C00
FONT02H_CAP_X                     00003E00
FONT02H_CAP_Y                     00004000
FONT02H_CAP_Z                     00004200
FONT02H_CAP_ZERO                  00004400
FONT02H_ISL4                      00000E1C
FONT02H_LOWERCASE                 00000E00
FONT02H_LOWERCASE0                00000E32
FONT02H_LOW_A                     00001072
FONT02H_LOW_B                     00001272
FONT02H_LOW_C                     00001472
FONT02H_LOW_COLON                 00005C72
FONT02H_LOW_COMMA                 00006072
FONT02H_LOW_D                     00001672
FONT02H_LOW_DASH                  00005A72
FONT02H_LOW_DOT                   00006272
FONT02H_LOW_E                     00001872
FONT02H_LOW_ENYE                  00005872
FONT02H_LOW_F                     00001A72
FONT02H_LOW_G                     00001C72
MPASM  5.51                 20200227_P6MM.ASM   2-27-2020  19:46:00         PAGE 161


SYMBOL TABLE
  LABEL                             VALUE 

FONT02H_LOW_H                     00001E72
FONT02H_LOW_I                     00002072
FONT02H_LOW_J                     00002272
FONT02H_LOW_K                     00002472
FONT02H_LOW_L                     00002672
FONT02H_LOW_M                     00002872
FONT02H_LOW_N                     00002A72
FONT02H_LOW_O                     00002C72
FONT02H_LOW_P                     00002E72
FONT02H_LOW_Q                     00003072
FONT02H_LOW_R                     00003272
FONT02H_LOW_S                     00003472
FONT02H_LOW_SEMICOLON             00005E72
FONT02H_LOW_T                     00003672
FONT02H_LOW_U                     00003872
FONT02H_LOW_V                     00003A72
FONT02H_LOW_W                     00003C72
FONT02H_LOW_X                     00003E78
FONT02H_LOW_Y                     00004078
FONT02H_LOW_Z                     00004272
FONT02H_NUMH_IS4                  00000E24
FONT02H_NUMH_IS5                  00000E2C
FONT02L                           00000D00
FONT02L_CAP_A                     00001100
FONT02L_CAP_B                     00001300
FONT02L_CAP_C                     00001500
FONT02L_CAP_COLON                 00005D00
FONT02L_CAP_COMMA                 00006100
FONT02L_CAP_D                     00001700
FONT02L_CAP_DASH                  00005B00
FONT02L_CAP_DOT                   00006300
FONT02L_CAP_E                     00001900
FONT02L_CAP_EIGHT                 00005500
FONT02L_CAP_ENYE                  00005900
FONT02L_CAP_F                     00001B00
FONT02L_CAP_FIVE                  00004F00
FONT02L_CAP_FOUR                  00004D00
FONT02L_CAP_G                     00001D00
FONT02L_CAP_H                     00001F00
FONT02L_CAP_I                     00002100
FONT02L_CAP_J                     00002300
FONT02L_CAP_K                     00002500
FONT02L_CAP_L                     00002700
FONT02L_CAP_M                     00002900
FONT02L_CAP_N                     00002B00
FONT02L_CAP_NINE                  00005700
FONT02L_CAP_O                     00002D00
FONT02L_CAP_ONE                   00004700
FONT02L_CAP_P                     00002F00
FONT02L_CAP_Q                     00003100
FONT02L_CAP_R                     00003300
FONT02L_CAP_S                     00003572
FONT02L_CAP_SEMICOLON             00005F00
MPASM  5.51                 20200227_P6MM.ASM   2-27-2020  19:46:00         PAGE 162


SYMBOL TABLE
  LABEL                             VALUE 

FONT02L_CAP_SEVEN                 00005300
FONT02L_CAP_SIX                   00005100
FONT02L_CAP_SPACE                 00006500
FONT02L_CAP_T                     00003700
FONT02L_CAP_THREE                 00004B00
FONT02L_CAP_TWO                   00004900
FONT02L_CAP_U                     00003900
FONT02L_CAP_V                     00003B00
FONT02L_CAP_W                     00003D00
FONT02L_CAP_X                     00003F00
FONT02L_CAP_Y                     00004100
FONT02L_CAP_Z                     00004300
FONT02L_CAP_ZERO                  00004500
FONT02L_ISL4                      00000F1C
FONT02L_LOWERCASE                 00000F00
FONT02L_LOWERCASE0                00000F32
FONT02L_LOW_A                     00001172
FONT02L_LOW_B                     00001372
FONT02L_LOW_C                     00001572
FONT02L_LOW_COLON                 00005D72
FONT02L_LOW_COMMA                 00006172
FONT02L_LOW_D                     00001772
FONT02L_LOW_DASH                  00005B72
FONT02L_LOW_DOT                   00006372
FONT02L_LOW_E                     00001972
FONT02L_LOW_ENYE                  00005972
FONT02L_LOW_F                     00001B72
FONT02L_LOW_G                     00001D72
FONT02L_LOW_H                     00001F72
FONT02L_LOW_I                     00002172
FONT02L_LOW_J                     00002372
FONT02L_LOW_K                     00002572
FONT02L_LOW_L                     00002772
FONT02L_LOW_M                     00002972
FONT02L_LOW_N                     00002B72
FONT02L_LOW_O                     00002D72
FONT02L_LOW_P                     00002F72
FONT02L_LOW_Q                     00003172
FONT02L_LOW_R                     00003372
FONT02L_LOW_S                     00003500
FONT02L_LOW_SEMICOLON             00005F72
FONT02L_LOW_T                     00003772
FONT02L_LOW_U                     00003972
FONT02L_LOW_V                     00003B72
FONT02L_LOW_W                     00003D72
FONT02L_LOW_X                     00003F72
FONT02L_LOW_Y                     00004172
FONT02L_LOW_Z                     00004372
FONT02L_NUMH_IS4                  00000F24
FONT02L_NUMH_IS5                  00000F2C
FREE                              00000004
FSR0                              00000000
FSR0H                             00000FEA
MPASM  5.51                 20200227_P6MM.ASM   2-27-2020  19:46:00         PAGE 163


SYMBOL TABLE
  LABEL                             VALUE 

FSR0L                             00000FE9
FSR1                              00000001
FSR1H                             00000FE2
FSR1L                             00000FE1
FSR2                              00000002
FSR2H                             00000FDA
FSR2L                             00000FD9
G0HI                              0000030E
G0LO                              00000308
G0_0                              BCF     LATB,2,0
G0_1                              BSF     LATB,2,0
G1HI                              00000322
G1LO                              0000031C
G1_0                              BCF     LATB,3,0
G1_1                              BSF     LATB,3,0
GCEN                              00000007
GIE                               00000007
GIEH                              00000007
GIEL                              00000006
GIE_GIEH                          00000007
GO                                00000001
GO_DONE                           00000001
GO_NOT_DONE                       00000001
GRNHALF0                          00000153
GRNHALF1                          00000154
HBHX                              0000065A
HBHX240                           0000067E
HBHX248                           0000069C
HBLX                              00000712
HBLX240                           00000736
HBLX248                           00000754
HIGHINT                           00000032
HLVDCON                           00000FD2
HLVDEN                            00000004
HLVDIE                            00000002
HLVDIF                            00000002
HLVDIN                            00000005
HLVDIP                            00000002
HLVDL0                            00000000
HLVDL1                            00000001
HLVDL2                            00000002
HLVDL3                            00000003
HTHPX                             00000642
HTH_CXGT40                        0000060C
HTH_CXGT48                        0000061E
HTH_CXGT55                        00000630
HTLPX                             000006FA
HTL_CXGT40                        000006C4
HTL_CXGT48                        000006D6
HTL_CXGT55                        000006E8
HUB                               0000015D
HUBH_EXIT                         0000064C
HUBL_EXIT                         00000704
MPASM  5.51                 20200227_P6MM.ASM   2-27-2020  19:46:00         PAGE 164


SYMBOL TABLE
  LABEL                             VALUE 

HUBTESTH                          000005FA
HUBTESTL                          000006B2
IBF                               00000007
IBOV                              00000005
IDLEN                             00000007
INDF0                             00000FEF
INDF1                             00000FE7
INDF2                             00000FDF
INIT                              00000034
INT0                              00000000
INT0E                             00000004
INT0F                             00000001
INT0IE                            00000004
INT0IF                            00000001
INT1                              00000001
INT1E                             00000003
INT1F                             00000000
INT1IE                            00000003
INT1IF                            00000000
INT1IP                            00000006
INT1P                             00000006
INT2                              00000002
INT2E                             00000004
INT2F                             00000001
INT2IE                            00000004
INT2IF                            00000001
INT2IP                            00000007
INT2P                             00000007
INTCON                            00000FF2
INTCON2                           00000FF1
INTCON3                           00000FF0
INTEDG0                           00000006
INTEDG1                           00000005
INTEDG2                           00000004
INTSRC                            00000007
IOFS                              00000002
IPEN                              00000007
IPR1                              00000F9F
IPR2                              00000FA2
IRCF0                             00000004
IRCF1                             00000005
IRCF2                             00000006
IRVST                             00000005
IVRST                             00000005
KBI0                              00000004
KBI1                              00000005
KBI2                              00000006
KBI3                              00000007
LATA                              00000F89
LATA0                             00000000
LATA1                             00000001
LATA2                             00000002
LATA3                             00000003
MPASM  5.51                 20200227_P6MM.ASM   2-27-2020  19:46:00         PAGE 165


SYMBOL TABLE
  LABEL                             VALUE 

LATA4                             00000004
LATA5                             00000005
LATA6                             00000006
LATA7                             00000007
LATB                              00000F8A
LATB0                             00000000
LATB1                             00000001
LATB2                             00000002
LATB3                             00000003
LATB4                             00000004
LATB5                             00000005
LATB6                             00000006
LATB7                             00000007
LATC                              00000F8B
LATC0                             00000000
LATC1                             00000001
LATC2                             00000002
LATC3                             00000003
LATC4                             00000004
LATC5                             00000005
LATC6                             00000006
LATC7                             00000007
LATD                              00000F8C
LATD0                             00000000
LATD1                             00000001
LATD2                             00000002
LATD3                             00000003
LATD4                             00000004
LATD5                             00000005
LATD6                             00000006
LATD7                             00000007
LATE                              00000F8D
LATE0                             00000000
LATE1                             00000001
LATE2                             00000002
LAT_OFF                           BCF     LATD,6,0
LAT_ON                            BSF     LATD,6,0
LINE                              00000140
LOOP                              00000141
LVDCON                            00000FD2
LVDEN                             00000004
LVDIE                             00000002
LVDIF                             00000002
LVDIN                             00000005
LVDIP                             00000002
LVDL0                             00000000
LVDL1                             00000001
LVDL2                             00000002
LVDL3                             00000003
LVV0                              00000000
LVV1                              00000001
LVV2                              00000002
LVV3                              00000003
MPASM  5.51                 20200227_P6MM.ASM   2-27-2020  19:46:00         PAGE 166


SYMBOL TABLE
  LABEL                             VALUE 

MAIN                              00000104
MCLR                              00000003
MNSUB                             00000120
MOVX                              000001A0
MOVX_TEMPH                        00000166
MOVX_TEMPL                        00000167
N                                 00000004
NOT_A                             00000005
NOT_ADDRESS                       00000005
NOT_BOR                           00000000
NOT_CS                            00000002
NOT_DONE                          00000001
NOT_MCLR                          00000003
NOT_PD                            00000002
NOT_POR                           00000001
NOT_RBPU                          00000007
NOT_RD                            00000000
NOT_RI                            00000004
NOT_SS                            00000005
NOT_T1SYNC                        00000002
NOT_T3SYNC                        00000002
NOT_TO                            00000003
NOT_W                             00000002
NOT_WR                            00000001
NOT_WRITE                         00000002
NUMBER                            00000148
OBF                               00000006
OERR                              00000001
OE_OFF                            BSF     LATD,7,0
OE_ON                             BCF     LATD,7,0
OSCCON                            00000FD3
OSCFIE                            00000007
OSCFIF                            00000007
OSCFIP                            00000007
OSCTUNE                           00000F9B
OSTS                              00000003
OV                                00000003
P                                 00000004
P1B                               00000005
P1C                               00000006
P1D                               00000007
P1M0                              00000006
P1M1                              00000007
PC                                00000FF9
PCFG0                             00000000
PCFG1                             00000001
PCFG2                             00000002
PCFG3                             00000003
PCL                               00000FF9
PCLATH                            00000FFA
PCLATH_TEMP                       0000016F
PCLATU                            00000FFB
PD                                00000002
MPASM  5.51                 20200227_P6MM.ASM   2-27-2020  19:46:00         PAGE 167


SYMBOL TABLE
  LABEL                             VALUE 

PDC0                              00000000
PDC1                              00000001
PDC2                              00000002
PDC3                              00000003
PDC4                              00000004
PDC5                              00000005
PDC6                              00000006
PEIE                              00000006
PEIE_GIEL                         00000006
PEN                               00000002
PGC                               00000006
PGD                               00000007
PGM                               00000005
PIE1                              00000F9D
PIE2                              00000FA0
PIR1                              00000F9E
PIR2                              00000FA1
PLLEN                             00000006
PLUSW0                            00000FEB
PLUSW1                            00000FE3
PLUSW2                            00000FDB
POINTER                           00000145
POR                               00000001
PORTA                             00000F80
PORTB                             00000F81
PORTC                             00000F82
PORTD                             00000F83
PORTE                             00000F84
POSTDEC0                          00000FED
POSTDEC1                          00000FE5
POSTDEC2                          00000FDD
POSTINC0                          00000FEE
POSTINC1                          00000FE6
POSTINC2                          00000FDE
PR2                               00000FCB
PREINC0                           00000FEC
PREINC1                           00000FE4
PREINC2                           00000FDC
PROD                              00000FF3
PRODH                             00000FF4
PRODL                             00000FF3
PRSEN                             00000007
PSA                               00000003
PSP0                              00000000
PSP1                              00000001
PSP2                              00000002
PSP3                              00000003
PSP4                              00000004
PSP5                              00000005
PSP6                              00000006
PSP7                              00000007
PSPIE                             00000007
PSPIF                             00000007
MPASM  5.51                 20200227_P6MM.ASM   2-27-2020  19:46:00         PAGE 168


SYMBOL TABLE
  LABEL                             VALUE 

PSPIP                             00000007
PSPMODE                           00000004
PSSAC0                            00000002
PSSAC1                            00000003
PSSBD0                            00000000
PSSBD1                            00000001
PWM1CON                           00000FB7
R                                 00000002
R0HI                              000002E6
R0LO                              000002E0
R0_0                              BCF     LATB,0,0
R0_1                              BSF     LATB,0,0
R1HI                              000002FA
R1LO                              000002F4
R1_0                              BCF     LATB,1,0
R1_1                              BSF     LATB,1,0
RA0                               00000000
RA1                               00000001
RA2                               00000002
RA3                               00000003
RA4                               00000004
RA5                               00000005
RA6                               00000006
RA7                               00000007
RB0                               00000000
RB1                               00000001
RB2                               00000002
RB3                               00000003
RB4                               00000004
RB5                               00000005
RB6                               00000006
RB7                               00000007
RBIE                              00000003
RBIF                              00000000
RBIP                              00000000
RBPU                              00000007
RC0                               00000000
RC1                               00000001
RC2                               00000002
RC3                               00000003
RC4                               00000004
RC5                               00000005
RC6                               00000006
RC7                               00000007
RCEN                              00000003
RCIDL                             00000006
RCIE                              00000005
RCIF                              00000005
RCIP                              00000005
RCM0                              00008018
RCM1                              00008026
RCM2                              00008036
RCM3                              00008046
MPASM  5.51                 20200227_P6MM.ASM   2-27-2020  19:46:00         PAGE 169


SYMBOL TABLE
  LABEL                             VALUE 

RCM4                              00008056
RCM5                              00008066
RCMT                              00000006
RCM_EXIT                          0000806C
RCON                              00000FD0
RCREG                             00000FAE
RCSTA                             00000FAB
RD                                00000000
RD0                               00000000
RD1                               00000001
RD16                              00000007
RD2                               00000002
RD3                               00000003
RD4                               00000004
RD5                               00000005
RD6                               00000006
RD7                               00000007
RE0                               00000000
RE1                               00000001
RE2                               00000002
RE3                               00000003
READ_CMD_MEMORY                   00008000
REDHALF0                          00000151
REDHALF1                          00000152
RI                                00000004
ROW                               00000149
RSEN                              00000001
RX                                00000007
RX9                               00000006
RX9D                              00000000
RXCKP                             00000005
RXDTP                             00000005
R_NOT_W                           00000002
R_W                               00000002
S                                 00000003
SBOREN                            00000006
SCK                               00000003
SCKP                              00000004
SCL                               00000003
SCRLLOOP                          00000162
SCROLL_BIT                        00000150
SCS0                              00000000
SCS1                              00000001
SDA                               00000004
SDI                               00000004
SDO                               00000005
SEN                               00000000
SENDB                             00000003
SMP                               00000007
SP0                               00000000
SP1                               00000001
SP2                               00000002
SP3                               00000003
MPASM  5.51                 20200227_P6MM.ASM   2-27-2020  19:46:00         PAGE 170


SYMBOL TABLE
  LABEL                             VALUE 

SP4                               00000004
SPBRG                             00000FAF
SPBRGH                            00000FB0
SPEN                              00000007
SREN                              00000005
SS                                00000005
SSPADD                            00000FC8
SSPBUF                            00000FC9
SSPCON1                           00000FC6
SSPCON2                           00000FC5
SSPEN                             00000005
SSPIE                             00000003
SSPIF                             00000003
SSPIP                             00000003
SSPM0                             00000000
SSPM1                             00000001
SSPM2                             00000002
SSPM3                             00000003
SSPOV                             00000006
SSPSTAT                           00000FC7
STATUS                            00000FD8
STATUS_TEMP                       0000016D
STKFUL                            00000007
STKOVF                            00000007
STKPTR                            00000FFC
STKPTR0                           00000000
STKPTR1                           00000001
STKPTR2                           00000002
STKPTR3                           00000003
STKPTR4                           00000004
STKUNF                            00000006
STPT                              0000014B
SWDTE                             00000000
SWDTEN                            00000000
SYNC                              00000004
T016BIT                           00000006
T08BIT                            00000006
T0CKI                             00000004
T0CON                             00000FD5
T0CS                              00000005
T0IE                              00000005
T0IF                              00000002
T0PS0                             00000000
T0PS1                             00000001
T0PS2                             00000002
T0SE                              00000004
T13CKI                            00000000
T1CKI                             00000000
T1CKPS0                           00000004
T1CKPS1                           00000005
T1CON                             00000FCD
T1OSCEN                           00000003
T1OSI                             00000001
MPASM  5.51                 20200227_P6MM.ASM   2-27-2020  19:46:00         PAGE 171


SYMBOL TABLE
  LABEL                             VALUE 

T1OSO                             00000000
T1RUN                             00000006
T1SYNC                            00000002
T2CKPS0                           00000000
T2CKPS1                           00000001
T2CON                             00000FCA
T2OUTPS0                          00000003
T2OUTPS1                          00000004
T2OUTPS2                          00000005
T2OUTPS3                          00000006
T3CCP1                            00000003
T3CCP2                            00000006
T3CKPS0                           00000004
T3CKPS1                           00000005
T3CON                             00000FB1
T3SYNC                            00000002
TABLAT                            00000FF5
TBLPTR                            00000FF6
TBLPTRH                           00000FF7
TBLPTRL                           00000FF6
TBLPTRU                           00000FF8
TEMPRAM                           00000155
TMR0                              00000FD6
TMR0H                             00000FD7
TMR0IE                            00000005
TMR0IF                            00000002
TMR0IP                            00000002
TMR0L                             00000FD6
TMR0ON                            00000007
TMR1                              00000FCE
TMR1CS                            00000001
TMR1H                             00000FCF
TMR1IE                            00000000
TMR1IF                            00000000
TMR1IP                            00000000
TMR1L                             00000FCE
TMR1ON                            00000000
TMR2                              00000FCC
TMR2IE                            00000001
TMR2IF                            00000001
TMR2IP                            00000001
TMR2ON                            00000002
TMR3                              00000FB2
TMR3CS                            00000001
TMR3H                             00000FB3
TMR3IE                            00000001
TMR3IF                            00000001
TMR3IP                            00000001
TMR3L                             00000FB2
TMR3ON                            00000000
TO                                00000003
TOS                               00000FFD
TOSH                              00000FFE
MPASM  5.51                 20200227_P6MM.ASM   2-27-2020  19:46:00         PAGE 172


SYMBOL TABLE
  LABEL                             VALUE 

TOSL                              00000FFD
TOSU                              00000FFF
TRISA                             00000F92
TRISA0                            00000000
TRISA1                            00000001
TRISA2                            00000002
TRISA3                            00000003
TRISA4                            00000004
TRISA5                            00000005
TRISA6                            00000006
TRISA7                            00000007
TRISB                             00000F93
TRISB0                            00000000
TRISB1                            00000001
TRISB2                            00000002
TRISB3                            00000003
TRISB4                            00000004
TRISB5                            00000005
TRISB6                            00000006
TRISB7                            00000007
TRISC                             00000F94
TRISC0                            00000000
TRISC1                            00000001
TRISC2                            00000002
TRISC3                            00000003
TRISC4                            00000004
TRISC5                            00000005
TRISC6                            00000006
TRISC7                            00000007
TRISD                             00000F95
TRISD0                            00000000
TRISD1                            00000001
TRISD2                            00000002
TRISD3                            00000003
TRISD4                            00000004
TRISD5                            00000005
TRISD6                            00000006
TRISD7                            00000007
TRISE                             00000F96
TRISE0                            00000000
TRISE1                            00000001
TRISE2                            00000002
TRMT                              00000001
TUN0                              00000000
TUN1                              00000001
TUN2                              00000002
TUN3                              00000003
TUN4                              00000004
TX                                00000006
TX9                               00000006
TX9D                              00000000
TXCKP                             00000004
TXEN                              00000005
MPASM  5.51                 20200227_P6MM.ASM   2-27-2020  19:46:00         PAGE 173


SYMBOL TABLE
  LABEL                             VALUE 

TXIE                              00000004
TXIF                              00000004
TXIP                              00000004
TXREG                             00000FAD
TXSTA                             00000FAC
UA                                00000001
VCFG0                             00000004
VCFG1                             00000005
VDIRMAG                           00000007
VPP                               00000003
W                                 00000000
WCOL                              00000007
WDTCON                            00000FD1
WIDTH                             0000014F
WIDTH_CHECK                       00007000
WR                                00000001
WREG                              00000FE8
WREN                              00000002
WRERR                             00000003
WUE                               00000001
W_TEMP                            0000016C
Z                                 00000002
_BOREN_NOSLP_2L                   000000FD
_BOREN_OFF_2L                     000000F9
_BOREN_ON_2L                      000000FB
_BOREN_SBORDIS_2L                 000000FF
_BORV_0_2L                        000000E7
_BORV_1_2L                        000000EF
_BORV_2_2L                        000000F7
_BORV_3_2L                        000000FF
_CCP2MX_PORTBE_3H                 000000FE
_CCP2MX_PORTC_3H                  000000FF
_CONFIG1H                         00300001
_CONFIG2H                         00300003
_CONFIG2L                         00300002
_CONFIG3H                         00300005
_CONFIG4L                         00300006
_CONFIG5H                         00300009
_CONFIG5L                         00300008
_CONFIG6H                         0030000B
_CONFIG6L                         0030000A
_CONFIG7H                         0030000D
_CONFIG7L                         0030000C
_CP0_OFF_5L                       000000FF
_CP0_ON_5L                        000000FE
_CP1_OFF_5L                       000000FF
_CP1_ON_5L                        000000FD
_CP2_OFF_5L                       000000FF
_CP2_ON_5L                        000000FB
_CP3_OFF_5L                       000000FF
_CP3_ON_5L                        000000F7
_CPB_OFF_5H                       000000FF
_CPB_ON_5H                        000000BF
MPASM  5.51                 20200227_P6MM.ASM   2-27-2020  19:46:00         PAGE 174


SYMBOL TABLE
  LABEL                             VALUE 

_CPD_OFF_5H                       000000FF
_CPD_ON_5H                        0000007F
_DEBUG_OFF_4L                     000000FF
_DEBUG_ON_4L                      0000007F
_DEVID1                           003FFFFE
_DEVID2                           003FFFFF
_EBTR0_OFF_7L                     000000FF
_EBTR0_ON_7L                      000000FE
_EBTR1_OFF_7L                     000000FF
_EBTR1_ON_7L                      000000FD
_EBTR2_OFF_7L                     000000FF
_EBTR2_ON_7L                      000000FB
_EBTR3_OFF_7L                     000000FF
_EBTR3_ON_7L                      000000F7
_EBTRB_OFF_7H                     000000FF
_EBTRB_ON_7H                      000000BF
_FCMEN_OFF_1H                     000000BF
_FCMEN_ON_1H                      000000FF
_IDLOC0                           00200000
_IDLOC1                           00200001
_IDLOC2                           00200002
_IDLOC3                           00200003
_IDLOC4                           00200004
_IDLOC5                           00200005
_IDLOC6                           00200006
_IDLOC7                           00200007
_IESO_OFF_1H                      0000007F
_IESO_ON_1H                       000000FF
_LPT1OSC_OFF_3H                   000000FB
_LPT1OSC_ON_3H                    000000FF
_LVP_OFF_4L                       000000FB
_LVP_ON_4L                        000000FF
_MCLRE_OFF_3H                     0000007F
_MCLRE_ON_3H                      000000FF
_OSC_ECIO6_1H                     000000F5
_OSC_EC_1H                        000000F4
_OSC_HSPLL_1H                     000000F6
_OSC_HS_1H                        000000F2
_OSC_INTIO67_1H                   000000F8
_OSC_INTIO7_1H                    000000F9
_OSC_LP_1H                        000000F0
_OSC_RCIO6_1H                     000000F7
_OSC_RC_1H                        000000F3
_OSC_XT_1H                        000000F1
_PBADEN_OFF_3H                    000000FD
_PBADEN_ON_3H                     000000FF
_PWRT_OFF_2L                      000000FF
_PWRT_ON_2L                       000000FE
_STVREN_OFF_4L                    000000FE
_STVREN_ON_4L                     000000FF
_WDTPS_1024_2H                    000000F5
_WDTPS_128_2H                     000000EF
_WDTPS_16384_2H                   000000FD
MPASM  5.51                 20200227_P6MM.ASM   2-27-2020  19:46:00         PAGE 175


SYMBOL TABLE
  LABEL                             VALUE 

_WDTPS_16_2H                      000000E9
_WDTPS_1_2H                       000000E1
_WDTPS_2048_2H                    000000F7
_WDTPS_256_2H                     000000F1
_WDTPS_2_2H                       000000E3
_WDTPS_32768_2H                   000000FF
_WDTPS_32_2H                      000000EB
_WDTPS_4096_2H                    000000F9
_WDTPS_4_2H                       000000E5
_WDTPS_512_2H                     000000F3
_WDTPS_64_2H                      000000ED
_WDTPS_8192_2H                    000000FB
_WDTPS_8_2H                       000000E7
_WDT_OFF_2H                       000000FE
_WDT_ON_2H                        000000FF
_WRT0_OFF_6L                      000000FF
_WRT0_ON_6L                       000000FE
_WRT1_OFF_6L                      000000FF
_WRT1_ON_6L                       000000FD
_WRT2_OFF_6L                      000000FF
_WRT2_ON_6L                       000000FB
_WRT3_OFF_6L                      000000FF
_WRT3_ON_6L                       000000F7
_WRTB_OFF_6H                      000000FF
_WRTB_ON_6H                       000000BF
_WRTC_OFF_6H                      000000FF
_WRTC_ON_6H                       000000DF
_WRTD_OFF_6H                      000000FF
_WRTD_ON_6H                       0000007F
_XINST_OFF_4L                     000000BF
_XINST_ON_4L                      000000FF
__18F4620                         00000001
__DEBUG                           1


MEMORY USAGE MAP ('X' = Used,  '-' = Unused)

0000 : XXXX----XX------ --------XXXXXXXX XXXXXXXXXXXXXXXX XXXXXXXXXXXXXXXX
0040 : XXXXXXXXXXXXXXXX XXXXXXXXXXXXXXXX XXXXXXXXXXXXXXXX XXXXXXXXXXXXXXXX
0080 : XXXXXXXXXXXXXXXX XXXXXXXXXXXXXXXX XXXXXXXXXXXXXXXX XXXXXXXXXXXXXXXX
00C0 : XXXXXXXXXXXXXXXX XXXXXXXXXXXXXXXX XXXXXXXXXXXXXXXX XXXXXXXXXXXXXXXX
0100 : XXXXXXXXXXXXXXXX XXXXXXXXXXXXXXXX XXXXXXXXXXXXXXXX XXXXXXXXXXXXXXXX
0140 : XXXXXXXXXXXXXXXX XXXXXXXXXXXXXXXX XXXXXXXXXXXXXXXX XXXXXXXXXXXXXXXX
0180 : XXXXXXXXXXXXXXXX XXXXXXXXXXXXXXXX XXXXXXXXXXXXXXXX XXXXXXXXXXXXXXXX
01C0 : XXXXXXXXXXXXXXXX XXXXXXXXXXXXXXXX XXXXXXXXXXXXXXXX XXXXXXXXXXXXXXXX
0200 : XXXXXXXXXXXXXXXX XXXXXXXXXXXXXXXX XXXXXXXXXXXXXXXX XXXXXXXXXXXXXXXX
MPASM  5.51                 20200227_P6MM.ASM   2-27-2020  19:46:00         PAGE 176


MEMORY USAGE MAP ('X' = Used,  '-' = Unused)


0240 : XXXXXXXXXXXXXXXX XXXXXXXXXXXXXXXX XXXXXXXXXXXXXXXX XXXXXXXXXXXXXXXX
0280 : XXXXXXXXXXXXXXXX XXXXXXXXXXXXXXXX XXXXXXXXXXXXXXXX XXXXXXXXXXXXXXXX
02C0 : XXXXXXXXXXXXXXXX XXXXXXXXXXXXXXXX XXXXXXXXXXXXXXXX XXXXXXXXXXXXXXXX
0300 : XXXXXXXXXXXXXXXX XXXXXXXXXXXXXXXX XXXXXXXXXXXXXXXX XXXXXXXXXXXXXXXX
0340 : XXXXXXXXXXXXXXXX XXXXXXXXXXXXXXXX XXXXXXXXXXXXXXXX XXXXXXXXXXXXXXXX
0380 : XXXXXXXXXXXXXXXX XXXXXXXXXXXXXXXX XXXXXXXXXXXXXXXX XXXXXXXXXXXXXXXX
03C0 : XXXXXXXXXXXXXXXX XXXXXXXXXXXXXXXX XXXXXXXXXXXXXXXX XXXXXXXXXXXXXXXX
0400 : XXXXXXXXXXXXXXXX XXXXXXXXXXXXXXXX XXXXXXXXXXXXXXXX XXXXXXXXXXXXXXXX
0440 : XXXXXXXXXXXXXXXX XXXXXXXXXXXXXXXX XXXXXXXXXXXXXXXX XXXXXXXXXXXXXXXX
0480 : XXXXXXXXXXXXXXXX XXXXXXXXXXXXXXXX XXXXXXXXXXXXXXXX XXXXXXXXXXXXXXXX
04C0 : XXXXXXXXXXXXXXXX XXXXXXXXXXXXXXXX XXXXXXXXXXXXXXXX XXXXXXXXXXXXXXXX
0500 : XXXXXXXXXXXXXXXX XXXXXXXXXXXXXXXX XXXXXXXXXXXXXXXX XXXXXXXXXXXXXXXX
0540 : XXXXXXXXXXXXXXXX XXXXXXXXXXXXXXXX XXXXXXXXXXXXXXXX XXXXXXXXXXXXXXXX
0580 : XXXXXXXXXXXXXXXX XXXXXXXXXXXXXXXX XXXXXXXXXXXXXXXX XXXXXXXXXXXXXXXX
05C0 : XXXXXXXXXXXXXXXX XXXXXXXXXXXXXXXX XXXXXXXXXXXXXXXX XXXXXXXXXXXXXXXX
0600 : XXXXXXXXXXXXXXXX XXXXXXXXXXXXXXXX XXXXXXXXXXXXXXXX XXXXXXXXXXXXXXXX
0640 : XXXXXXXXXXXXXXXX XXXXXXXXXXXXXXXX XXXXXXXXXXXXXXXX XXXXXXXXXXXXXXXX
0680 : XXXXXXXXXXXXXXXX XXXXXXXXXXXXXXXX XXXXXXXXXXXXXXXX XXXXXXXXXXXXXXXX
06C0 : XXXXXXXXXXXXXXXX XXXXXXXXXXXXXXXX XXXXXXXXXXXXXXXX XXXXXXXXXXXXXXXX
0700 : XXXXXXXXXXXXXXXX XXXXXXXXXXXXXXXX XXXXXXXXXXXXXXXX XXXXXXXXXXXXXXXX
0740 : XXXXXXXXXXXXXXXX XXXXXXXXXXXXXXXX XXXXXXXXXXXXXXXX XXXXXXXXXXXXXXXX
0780 : XXXXXXXXXXXXXXXX XXXXXXXXXXXXXXXX XXXXXXXXXXXXXXXX XXXXXXXXXXXXXXXX
07C0 : XXXXXXXXXXXXXXXX XXXXXXXXXXXXXXXX XXXXXXXXXXXXXXXX XXXXXXXXXXXXXXXX
0800 : XXXXXXXXXXXXXXXX XXXXXX---------- ---------------- ----------------
0C00 : XXXXXXXXXXXXXXXX XXXXXXXXXXXXXXXX XXXXXXXXXXXXXXXX XXXXXXXXXXXXXXXX
0C40 : XXXXXXXXXXXXXXXX XXXXXXXXXXXXXXXX XXXXXXXXXXXXXXXX XXXXXXXXXXXXXXXX
0C80 : XXXXXXXXXXXXXXXX XXXXXXXXXXXXXXXX XXXXXXXXXXXXXXXX XXXXXXXXXXXXXXXX
0CC0 : XXXXXXXXXXXXXXXX XXXXXXXXXXXXXXXX XX-------------- ----------------
0D00 : XXXXXXXXXXXXXXXX XXXXXXXXXXXXXXXX XXXXXXXXXXXXXXXX XXXXXXXXXXXXXXXX
0D40 : XXXXXXXXXXXXXXXX XXXXXXXXXXXXXXXX XXXXXXXXXXXXXXXX XXXXXXXXXXXXXXXX
0D80 : XXXXXXXXXXXXXXXX XXXXXXXXXXXXXXXX XXXXXXXXXXXXXXXX XXXXXXXXXXXXXXXX
0DC0 : XXXXXXXXXXXXXXXX XXXXXXXXXXXXXXXX ---------------- ----------------
0E00 : XXXXXXXXXXXXXXXX XXXXXXXXXXXXXXXX XXXXXXXXXXXXXXXX XXXXXXXXXXXXXXXX
0E40 : XXXXXXXXXXXXXXXX XXXXXXXXXXXXXXXX XXXXXXXXXXXXXXXX XXXXXXXXXXXXXXXX
0E80 : XXXXXXXXXXXXXXXX XXXXXXXXXXXXXXXX XXXXXXXXXXXXXXXX XXXXXXXXXXXXXXXX
0EC0 : XXXXXXXXXXXXXXXX XXXXXXXXXXXXXXXX XXXXXXXXXX------ ----------------
0F00 : XXXXXXXXXXXXXXXX XXXXXXXXXXXXXXXX XXXXXXXXXXXXXXXX XXXXXXXXXXXXXXXX
0F40 : XXXXXXXXXXXXXXXX XXXXXXXXXXXXXXXX XXXXXXXXXXXXXXXX XXXXXXXXXXXXXXXX
0F80 : XXXXXXXXXXXXXXXX XXXXXXXXXXXXXXXX XXXXXXXXXXXXXXXX XXXXXXXXXXXXXXXX
0FC0 : XXXXXXXXXXXXXXXX XXXXXXXXXXXXXXXX XXXXXXXXXX------ ----------------
1000 : XXXXXXXXXXXXXXXX XXXXXXXXXXXXXXXX XXXXXXXXXXXXXXXX XXXXXXXXXXXXXXXX
1040 : XXXXXXXXXXXXXXXX XXXXXXXXXXXXXXXX XXXXXXXXXXXXXXXX XXXXXXXXXXXXXXXX
1080 : XXXXXXXXXXXXXXXX XXXXXXXXXXXXXXXX XXXXXXXXXXXXXXXX XXXXXXXXXXXXXXXX
10C0 : XXXXXXXXXXXXXXXX XXXXXXXXXXXXXXXX XXXX------------ ----------------
1100 : XXXXXXXXXXXXXXXX XXXXXXXXXXXXXXXX XXXXXXXXXXXXXXXX XXXXXXXXXXXXXXXX
1140 : XXXXXXXXXXXXXXXX XXXXXXXXXXXXXXXX XXXXXXXXXXXXXXXX XXXXXXXXXXXXXXXX
MPASM  5.51                 20200227_P6MM.ASM   2-27-2020  19:46:00         PAGE 177


MEMORY USAGE MAP ('X' = Used,  '-' = Unused)


1180 : XXXXXXXXXXXXXXXX XXXXXXXXXXXXXXXX XXXXXXXXXXXXXXXX XXXXXXXXXXXXXXXX
11C0 : XXXXXXXXXXXXXXXX XXXXXXXXXXXXXXXX XXXX------------ ----------------
1200 : XXXXXXXXXXXXXXXX XXXXXXXXXXXXXXXX XXXXXXXXXXXXXXXX XXXXXXXXXXXXXXXX
1240 : XXXXXXXXXXXXXXXX XXXXXXXXXXXXXXXX XXXXXXXXXXXXXXXX XXXXXXXXXXXXXXXX
1280 : XXXXXXXXXXXXXXXX XXXXXXXXXXXXXXXX XXXXXXXXXXXXXXXX XXXXXXXXXXXXXXXX
12C0 : XXXXXXXXXXXXXXXX XXXXXXXXXXXXXXXX XXXX------------ ----------------
1300 : XXXXXXXXXXXXXXXX XXXXXXXXXXXXXXXX XXXXXXXXXXXXXXXX XXXXXXXXXXXXXXXX
1340 : XXXXXXXXXXXXXXXX XXXXXXXXXXXXXXXX XXXXXXXXXXXXXXXX XXXXXXXXXXXXXXXX
1380 : XXXXXXXXXXXXXXXX XXXXXXXXXXXXXXXX XXXXXXXXXXXXXXXX XXXXXXXXXXXXXXXX
13C0 : XXXXXXXXXXXXXXXX XXXXXXXXXXXXXXXX XXXX------------ ----------------
1400 : XXXXXXXXXXXXXXXX XXXXXXXXXXXXXXXX XXXXXXXXXXXXXXXX XXXXXXXXXXXXXXXX
1440 : XXXXXXXXXXXXXXXX XXXXXXXXXXXXXXXX XXXXXXXXXXXXXXXX XXXXXXXXXXXXXXXX
1480 : XXXXXXXXXXXXXXXX XXXXXXXXXXXXXXXX XXXXXXXXXXXXXXXX XXXXXXXXXXXXXXXX
14C0 : XXXXXXXXXXXXXXXX XXXXXXXXXXXXXXXX XXXX------------ ----------------
1500 : XXXXXXXXXXXXXXXX XXXXXXXXXXXXXXXX XXXXXXXXXXXXXXXX XXXXXXXXXXXXXXXX
1540 : XXXXXXXXXXXXXXXX XXXXXXXXXXXXXXXX XXXXXXXXXXXXXXXX XXXXXXXXXXXXXXXX
1580 : XXXXXXXXXXXXXXXX XXXXXXXXXXXXXXXX XXXXXXXXXXXXXXXX XXXXXXXXXXXXXXXX
15C0 : XXXXXXXXXXXXXXXX XXXXXXXXXXXXXXXX XXXX------------ ----------------
1600 : XXXXXXXXXXXXXXXX XXXXXXXXXXXXXXXX XXXXXXXXXXXXXXXX XXXXXXXXXXXXXXXX
1640 : XXXXXXXXXXXXXXXX XXXXXXXXXXXXXXXX XXXXXXXXXXXXXXXX XXXXXXXXXXXXXXXX
1680 : XXXXXXXXXXXXXXXX XXXXXXXXXXXXXXXX XXXXXXXXXXXXXXXX XXXXXXXXXXXXXXXX
16C0 : XXXXXXXXXXXXXXXX XXXXXXXXXXXXXXXX XXXX------------ ----------------
1700 : XXXXXXXXXXXXXXXX XXXXXXXXXXXXXXXX XXXXXXXXXXXXXXXX XXXXXXXXXXXXXXXX
1740 : XXXXXXXXXXXXXXXX XXXXXXXXXXXXXXXX XXXXXXXXXXXXXXXX XXXXXXXXXXXXXXXX
1780 : XXXXXXXXXXXXXXXX XXXXXXXXXXXXXXXX XXXXXXXXXXXXXXXX XXXXXXXXXXXXXXXX
17C0 : XXXXXXXXXXXXXXXX XXXXXXXXXXXXXXXX XXXX------------ ----------------
1800 : XXXXXXXXXXXXXXXX XXXXXXXXXXXXXXXX XXXXXXXXXXXXXXXX XXXXXXXXXXXXXXXX
1840 : XXXXXXXXXXXXXXXX XXXXXXXXXXXXXXXX XXXXXXXXXXXXXXXX XXXXXXXXXXXXXXXX
1880 : XXXXXXXXXXXXXXXX XXXXXXXXXXXXXXXX XXXXXXXXXXXXXXXX XXXXXXXXXXXXXXXX
18C0 : XXXXXXXXXXXXXXXX XXXXXXXXXXXXXXXX XXXX------------ ----------------
1900 : XXXXXXXXXXXXXXXX XXXXXXXXXXXXXXXX XXXXXXXXXXXXXXXX XXXXXXXXXXXXXXXX
1940 : XXXXXXXXXXXXXXXX XXXXXXXXXXXXXXXX XXXXXXXXXXXXXXXX XXXXXXXXXXXXXXXX
1980 : XXXXXXXXXXXXXXXX XXXXXXXXXXXXXXXX XXXXXXXXXXXXXXXX XXXXXXXXXXXXXXXX
19C0 : XXXXXXXXXXXXXXXX XXXXXXXXXXXXXXXX XXXX------------ ----------------
1A00 : XXXXXXXXXXXXXXXX XXXXXXXXXXXXXXXX XXXXXXXXXXXXXXXX XXXXXXXXXXXXXXXX
1A40 : XXXXXXXXXXXXXXXX XXXXXXXXXXXXXXXX XXXXXXXXXXXXXXXX XXXXXXXXXXXXXXXX
1A80 : XXXXXXXXXXXXXXXX XXXXXXXXXXXXXXXX XXXXXXXXXXXXXXXX XXXXXXXXXXXXXXXX
1AC0 : XXXXXXXXXXXXXXXX XXXXXXXXXXXXXXXX XXXX------------ ----------------
1B00 : XXXXXXXXXXXXXXXX XXXXXXXXXXXXXXXX XXXXXXXXXXXXXXXX XXXXXXXXXXXXXXXX
1B40 : XXXXXXXXXXXXXXXX XXXXXXXXXXXXXXXX XXXXXXXXXXXXXXXX XXXXXXXXXXXXXXXX
1B80 : XXXXXXXXXXXXXXXX XXXXXXXXXXXXXXXX XXXXXXXXXXXXXXXX XXXXXXXXXXXXXXXX
1BC0 : XXXXXXXXXXXXXXXX XXXXXXXXXXXXXXXX XXXX------------ ----------------
1C00 : XXXXXXXXXXXXXXXX XXXXXXXXXXXXXXXX XXXXXXXXXXXXXXXX XXXXXXXXXXXXXXXX
1C40 : XXXXXXXXXXXXXXXX XXXXXXXXXXXXXXXX XXXXXXXXXXXXXXXX XXXXXXXXXXXXXXXX
1C80 : XXXXXXXXXXXXXXXX XXXXXXXXXXXXXXXX XXXXXXXXXXXXXXXX XXXXXXXXXXXXXXXX
1CC0 : XXXXXXXXXXXXXXXX XXXXXXXXXXXXXXXX XXXX------------ ----------------
MPASM  5.51                 20200227_P6MM.ASM   2-27-2020  19:46:00         PAGE 178


MEMORY USAGE MAP ('X' = Used,  '-' = Unused)


1D00 : XXXXXXXXXXXXXXXX XXXXXXXXXXXXXXXX XXXXXXXXXXXXXXXX XXXXXXXXXXXXXXXX
1D40 : XXXXXXXXXXXXXXXX XXXXXXXXXXXXXXXX XXXXXXXXXXXXXXXX XXXXXXXXXXXXXXXX
1D80 : XXXXXXXXXXXXXXXX XXXXXXXXXXXXXXXX XXXXXXXXXXXXXXXX XXXXXXXXXXXXXXXX
1DC0 : XXXXXXXXXXXXXXXX XXXXXXXXXXXXXXXX XXXX------------ ----------------
1E00 : XXXXXXXXXXXXXXXX XXXXXXXXXXXXXXXX XXXXXXXXXXXXXXXX XXXXXXXXXXXXXXXX
1E40 : XXXXXXXXXXXXXXXX XXXXXXXXXXXXXXXX XXXXXXXXXXXXXXXX XXXXXXXXXXXXXXXX
1E80 : XXXXXXXXXXXXXXXX XXXXXXXXXXXXXXXX XXXXXXXXXXXXXXXX XXXXXXXXXXXXXXXX
1EC0 : XXXXXXXXXXXXXXXX XXXXXXXXXXXXXXXX XXXX------------ ----------------
1F00 : XXXXXXXXXXXXXXXX XXXXXXXXXXXXXXXX XXXXXXXXXXXXXXXX XXXXXXXXXXXXXXXX
1F40 : XXXXXXXXXXXXXXXX XXXXXXXXXXXXXXXX XXXXXXXXXXXXXXXX XXXXXXXXXXXXXXXX
1F80 : XXXXXXXXXXXXXXXX XXXXXXXXXXXXXXXX XXXXXXXXXXXXXXXX XXXXXXXXXXXXXXXX
1FC0 : XXXXXXXXXXXXXXXX XXXXXXXXXXXXXXXX XXXX------------ ----------------
2000 : XXXXXXXXXXXXXXXX XXXXXXXXXXXXXXXX XXXXXXXXXXXXXXXX XXXXXXXXXXXXXXXX
2040 : XXXXXXXXXXXXXXXX XXXXXXXXXXXXXXXX XXXXXXXXXXXXXXXX XXXXXXXXXXXXXXXX
2080 : XXXXXXXXXXXXXXXX XXXXXXXXXXXXXXXX XXXXXXXXXXXXXXXX XXXXXXXXXXXXXXXX
20C0 : XXXXXXXXXXXXXXXX XXXXXXXXXXXXXXXX XXXX------------ ----------------
2100 : XXXXXXXXXXXXXXXX XXXXXXXXXXXXXXXX XXXXXXXXXXXXXXXX XXXXXXXXXXXXXXXX
2140 : XXXXXXXXXXXXXXXX XXXXXXXXXXXXXXXX XXXXXXXXXXXXXXXX XXXXXXXXXXXXXXXX
2180 : XXXXXXXXXXXXXXXX XXXXXXXXXXXXXXXX XXXXXXXXXXXXXXXX XXXXXXXXXXXXXXXX
21C0 : XXXXXXXXXXXXXXXX XXXXXXXXXXXXXXXX XXXX------------ ----------------
2200 : XXXXXXXXXXXXXXXX XXXXXXXXXXXXXXXX XXXXXXXXXXXXXXXX XXXXXXXXXXXXXXXX
2240 : XXXXXXXXXXXXXXXX XXXXXXXXXXXXXXXX XXXXXXXXXXXXXXXX XXXXXXXXXXXXXXXX
2280 : XXXXXXXXXXXXXXXX XXXXXXXXXXXXXXXX XXXXXXXXXXXXXXXX XXXXXXXXXXXXXXXX
22C0 : XXXXXXXXXXXXXXXX XXXXXXXXXXXXXXXX XXXX------------ ----------------
2300 : XXXXXXXXXXXXXXXX XXXXXXXXXXXXXXXX XXXXXXXXXXXXXXXX XXXXXXXXXXXXXXXX
2340 : XXXXXXXXXXXXXXXX XXXXXXXXXXXXXXXX XXXXXXXXXXXXXXXX XXXXXXXXXXXXXXXX
2380 : XXXXXXXXXXXXXXXX XXXXXXXXXXXXXXXX XXXXXXXXXXXXXXXX XXXXXXXXXXXXXXXX
23C0 : XXXXXXXXXXXXXXXX XXXXXXXXXXXXXXXX XXXX------------ ----------------
2400 : XXXXXXXXXXXXXXXX XXXXXXXXXXXXXXXX XXXXXXXXXXXXXXXX XXXXXXXXXXXXXXXX
2440 : XXXXXXXXXXXXXXXX XXXXXXXXXXXXXXXX XXXXXXXXXXXXXXXX XXXXXXXXXXXXXXXX
2480 : XXXXXXXXXXXXXXXX XXXXXXXXXXXXXXXX XXXXXXXXXXXXXXXX XXXXXXXXXXXXXXXX
24C0 : XXXXXXXXXXXXXXXX XXXXXXXXXXXXXXXX XXXX------------ ----------------
2500 : XXXXXXXXXXXXXXXX XXXXXXXXXXXXXXXX XXXXXXXXXXXXXXXX XXXXXXXXXXXXXXXX
2540 : XXXXXXXXXXXXXXXX XXXXXXXXXXXXXXXX XXXXXXXXXXXXXXXX XXXXXXXXXXXXXXXX
2580 : XXXXXXXXXXXXXXXX XXXXXXXXXXXXXXXX XXXXXXXXXXXXXXXX XXXXXXXXXXXXXXXX
25C0 : XXXXXXXXXXXXXXXX XXXXXXXXXXXXXXXX XXXX------------ ----------------
2600 : XXXXXXXXXXXXXXXX XXXXXXXXXXXXXXXX XXXXXXXXXXXXXXXX XXXXXXXXXXXXXXXX
2640 : XXXXXXXXXXXXXXXX XXXXXXXXXXXXXXXX XXXXXXXXXXXXXXXX XXXXXXXXXXXXXXXX
2680 : XXXXXXXXXXXXXXXX XXXXXXXXXXXXXXXX XXXXXXXXXXXXXXXX XXXXXXXXXXXXXXXX
26C0 : XXXXXXXXXXXXXXXX XXXXXXXXXXXXXXXX XXXX------------ ----------------
2700 : XXXXXXXXXXXXXXXX XXXXXXXXXXXXXXXX XXXXXXXXXXXXXXXX XXXXXXXXXXXXXXXX
2740 : XXXXXXXXXXXXXXXX XXXXXXXXXXXXXXXX XXXXXXXXXXXXXXXX XXXXXXXXXXXXXXXX
2780 : XXXXXXXXXXXXXXXX XXXXXXXXXXXXXXXX XXXXXXXXXXXXXXXX XXXXXXXXXXXXXXXX
27C0 : XXXXXXXXXXXXXXXX XXXXXXXXXXXXXXXX XXXX------------ ----------------
2800 : XXXXXXXXXXXXXXXX XXXXXXXXXXXXXXXX XXXXXXXXXXXXXXXX XXXXXXXXXXXXXXXX
2840 : XXXXXXXXXXXXXXXX XXXXXXXXXXXXXXXX XXXXXXXXXXXXXXXX XXXXXXXXXXXXXXXX
MPASM  5.51                 20200227_P6MM.ASM   2-27-2020  19:46:00         PAGE 179


MEMORY USAGE MAP ('X' = Used,  '-' = Unused)


2880 : XXXXXXXXXXXXXXXX XXXXXXXXXXXXXXXX XXXXXXXXXXXXXXXX XXXXXXXXXXXXXXXX
28C0 : XXXXXXXXXXXXXXXX XXXXXXXXXXXXXXXX XXXX------------ ----------------
2900 : XXXXXXXXXXXXXXXX XXXXXXXXXXXXXXXX XXXXXXXXXXXXXXXX XXXXXXXXXXXXXXXX
2940 : XXXXXXXXXXXXXXXX XXXXXXXXXXXXXXXX XXXXXXXXXXXXXXXX XXXXXXXXXXXXXXXX
2980 : XXXXXXXXXXXXXXXX XXXXXXXXXXXXXXXX XXXXXXXXXXXXXXXX XXXXXXXXXXXXXXXX
29C0 : XXXXXXXXXXXXXXXX XXXXXXXXXXXXXXXX XXXX------------ ----------------
2A00 : XXXXXXXXXXXXXXXX XXXXXXXXXXXXXXXX XXXXXXXXXXXXXXXX XXXXXXXXXXXXXXXX
2A40 : XXXXXXXXXXXXXXXX XXXXXXXXXXXXXXXX XXXXXXXXXXXXXXXX XXXXXXXXXXXXXXXX
2A80 : XXXXXXXXXXXXXXXX XXXXXXXXXXXXXXXX XXXXXXXXXXXXXXXX XXXXXXXXXXXXXXXX
2AC0 : XXXXXXXXXXXXXXXX XXXXXXXXXXXXXXXX XXXX------------ ----------------
2B00 : XXXXXXXXXXXXXXXX XXXXXXXXXXXXXXXX XXXXXXXXXXXXXXXX XXXXXXXXXXXXXXXX
2B40 : XXXXXXXXXXXXXXXX XXXXXXXXXXXXXXXX XXXXXXXXXXXXXXXX XXXXXXXXXXXXXXXX
2B80 : XXXXXXXXXXXXXXXX XXXXXXXXXXXXXXXX XXXXXXXXXXXXXXXX XXXXXXXXXXXXXXXX
2BC0 : XXXXXXXXXXXXXXXX XXXXXXXXXXXXXXXX XXXX------------ ----------------
2C00 : XXXXXXXXXXXXXXXX XXXXXXXXXXXXXXXX XXXXXXXXXXXXXXXX XXXXXXXXXXXXXXXX
2C40 : XXXXXXXXXXXXXXXX XXXXXXXXXXXXXXXX XXXXXXXXXXXXXXXX XXXXXXXXXXXXXXXX
2C80 : XXXXXXXXXXXXXXXX XXXXXXXXXXXXXXXX XXXXXXXXXXXXXXXX XXXXXXXXXXXXXXXX
2CC0 : XXXXXXXXXXXXXXXX XXXXXXXXXXXXXXXX XXXX------------ ----------------
2D00 : XXXXXXXXXXXXXXXX XXXXXXXXXXXXXXXX XXXXXXXXXXXXXXXX XXXXXXXXXXXXXXXX
2D40 : XXXXXXXXXXXXXXXX XXXXXXXXXXXXXXXX XXXXXXXXXXXXXXXX XXXXXXXXXXXXXXXX
2D80 : XXXXXXXXXXXXXXXX XXXXXXXXXXXXXXXX XXXXXXXXXXXXXXXX XXXXXXXXXXXXXXXX
2DC0 : XXXXXXXXXXXXXXXX XXXXXXXXXXXXXXXX XXXX------------ ----------------
2E00 : XXXXXXXXXXXXXXXX XXXXXXXXXXXXXXXX XXXXXXXXXXXXXXXX XXXXXXXXXXXXXXXX
2E40 : XXXXXXXXXXXXXXXX XXXXXXXXXXXXXXXX XXXXXXXXXXXXXXXX XXXXXXXXXXXXXXXX
2E80 : XXXXXXXXXXXXXXXX XXXXXXXXXXXXXXXX XXXXXXXXXXXXXXXX XXXXXXXXXXXXXXXX
2EC0 : XXXXXXXXXXXXXXXX XXXXXXXXXXXXXXXX XXXX------------ ----------------
2F00 : XXXXXXXXXXXXXXXX XXXXXXXXXXXXXXXX XXXXXXXXXXXXXXXX XXXXXXXXXXXXXXXX
2F40 : XXXXXXXXXXXXXXXX XXXXXXXXXXXXXXXX XXXXXXXXXXXXXXXX XXXXXXXXXXXXXXXX
2F80 : XXXXXXXXXXXXXXXX XXXXXXXXXXXXXXXX XXXXXXXXXXXXXXXX XXXXXXXXXXXXXXXX
2FC0 : XXXXXXXXXXXXXXXX XXXXXXXXXXXXXXXX XXXX------------ ----------------
3000 : XXXXXXXXXXXXXXXX XXXXXXXXXXXXXXXX XXXXXXXXXXXXXXXX XXXXXXXXXXXXXXXX
3040 : XXXXXXXXXXXXXXXX XXXXXXXXXXXXXXXX XXXXXXXXXXXXXXXX XXXXXXXXXXXXXXXX
3080 : XXXXXXXXXXXXXXXX XXXXXXXXXXXXXXXX XXXXXXXXXXXXXXXX XXXXXXXXXXXXXXXX
30C0 : XXXXXXXXXXXXXXXX XXXXXXXXXXXXXXXX XXXX------------ ----------------
3100 : XXXXXXXXXXXXXXXX XXXXXXXXXXXXXXXX XXXXXXXXXXXXXXXX XXXXXXXXXXXXXXXX
3140 : XXXXXXXXXXXXXXXX XXXXXXXXXXXXXXXX XXXXXXXXXXXXXXXX XXXXXXXXXXXXXXXX
3180 : XXXXXXXXXXXXXXXX XXXXXXXXXXXXXXXX XXXXXXXXXXXXXXXX XXXXXXXXXXXXXXXX
31C0 : XXXXXXXXXXXXXXXX XXXXXXXXXXXXXXXX XXXX------------ ----------------
3200 : XXXXXXXXXXXXXXXX XXXXXXXXXXXXXXXX XXXXXXXXXXXXXXXX XXXXXXXXXXXXXXXX
3240 : XXXXXXXXXXXXXXXX XXXXXXXXXXXXXXXX XXXXXXXXXXXXXXXX XXXXXXXXXXXXXXXX
3280 : XXXXXXXXXXXXXXXX XXXXXXXXXXXXXXXX XXXXXXXXXXXXXXXX XXXXXXXXXXXXXXXX
32C0 : XXXXXXXXXXXXXXXX XXXXXXXXXXXXXXXX XXXX------------ ----------------
3300 : XXXXXXXXXXXXXXXX XXXXXXXXXXXXXXXX XXXXXXXXXXXXXXXX XXXXXXXXXXXXXXXX
3340 : XXXXXXXXXXXXXXXX XXXXXXXXXXXXXXXX XXXXXXXXXXXXXXXX XXXXXXXXXXXXXXXX
3380 : XXXXXXXXXXXXXXXX XXXXXXXXXXXXXXXX XXXXXXXXXXXXXXXX XXXXXXXXXXXXXXXX
33C0 : XXXXXXXXXXXXXXXX XXXXXXXXXXXXXXXX XXXX------------ ----------------
MPASM  5.51                 20200227_P6MM.ASM   2-27-2020  19:46:00         PAGE 180


MEMORY USAGE MAP ('X' = Used,  '-' = Unused)


3400 : XXXXXXXXXXXXXXXX XXXXXXXXXXXXXXXX XXXXXXXXXXXXXXXX XXXXXXXXXXXXXXXX
3440 : XXXXXXXXXXXXXXXX XXXXXXXXXXXXXXXX XXXXXXXXXXXXXXXX XXXXXXXXXXXXXXXX
3480 : XXXXXXXXXXXXXXXX XXXXXXXXXXXXXXXX XXXXXXXXXXXXXXXX XXXXXXXXXXXXXXXX
34C0 : XXXXXXXXXXXXXXXX XXXXXXXXXXXXXXXX XXXX------------ ----------------
3500 : XXXXXXXXXXXXXXXX XXXXXXXXXXXXXXXX XXXXXXXXXXXXXXXX XXXXXXXXXXXXXXXX
3540 : XXXXXXXXXXXXXXXX XXXXXXXXXXXXXXXX XXXXXXXXXXXXXXXX XXXXXXXXXXXXXXXX
3580 : XXXXXXXXXXXXXXXX XXXXXXXXXXXXXXXX XXXXXXXXXXXXXXXX XXXXXXXXXXXXXXXX
35C0 : XXXXXXXXXXXXXXXX XXXXXXXXXXXXXXXX XXXX------------ ----------------
3600 : XXXXXXXXXXXXXXXX XXXXXXXXXXXXXXXX XXXXXXXXXXXXXXXX XXXXXXXXXXXXXXXX
3640 : XXXXXXXXXXXXXXXX XXXXXXXXXXXXXXXX XXXXXXXXXXXXXXXX XXXXXXXXXXXXXXXX
3680 : XXXXXXXXXXXXXXXX XXXXXXXXXXXXXXXX XXXXXXXXXXXXXXXX XXXXXXXXXXXXXXXX
36C0 : XXXXXXXXXXXXXXXX XXXXXXXXXXXXXXXX XXXX------------ ----------------
3700 : XXXXXXXXXXXXXXXX XXXXXXXXXXXXXXXX XXXXXXXXXXXXXXXX XXXXXXXXXXXXXXXX
3740 : XXXXXXXXXXXXXXXX XXXXXXXXXXXXXXXX XXXXXXXXXXXXXXXX XXXXXXXXXXXXXXXX
3780 : XXXXXXXXXXXXXXXX XXXXXXXXXXXXXXXX XXXXXXXXXXXXXXXX XXXXXXXXXXXXXXXX
37C0 : XXXXXXXXXXXXXXXX XXXXXXXXXXXXXXXX XXXX------------ ----------------
3800 : XXXXXXXXXXXXXXXX XXXXXXXXXXXXXXXX XXXXXXXXXXXXXXXX XXXXXXXXXXXXXXXX
3840 : XXXXXXXXXXXXXXXX XXXXXXXXXXXXXXXX XXXXXXXXXXXXXXXX XXXXXXXXXXXXXXXX
3880 : XXXXXXXXXXXXXXXX XXXXXXXXXXXXXXXX XXXXXXXXXXXXXXXX XXXXXXXXXXXXXXXX
38C0 : XXXXXXXXXXXXXXXX XXXXXXXXXXXXXXXX XXXX------------ ----------------
3900 : XXXXXXXXXXXXXXXX XXXXXXXXXXXXXXXX XXXXXXXXXXXXXXXX XXXXXXXXXXXXXXXX
3940 : XXXXXXXXXXXXXXXX XXXXXXXXXXXXXXXX XXXXXXXXXXXXXXXX XXXXXXXXXXXXXXXX
3980 : XXXXXXXXXXXXXXXX XXXXXXXXXXXXXXXX XXXXXXXXXXXXXXXX XXXXXXXXXXXXXXXX
39C0 : XXXXXXXXXXXXXXXX XXXXXXXXXXXXXXXX XXXX------------ ----------------
3A00 : XXXXXXXXXXXXXXXX XXXXXXXXXXXXXXXX XXXXXXXXXXXXXXXX XXXXXXXXXXXXXXXX
3A40 : XXXXXXXXXXXXXXXX XXXXXXXXXXXXXXXX XXXXXXXXXXXXXXXX XXXXXXXXXXXXXXXX
3A80 : XXXXXXXXXXXXXXXX XXXXXXXXXXXXXXXX XXXXXXXXXXXXXXXX XXXXXXXXXXXXXXXX
3AC0 : XXXXXXXXXXXXXXXX XXXXXXXXXXXXXXXX XXXX------------ ----------------
3B00 : XXXXXXXXXXXXXXXX XXXXXXXXXXXXXXXX XXXXXXXXXXXXXXXX XXXXXXXXXXXXXXXX
3B40 : XXXXXXXXXXXXXXXX XXXXXXXXXXXXXXXX XXXXXXXXXXXXXXXX XXXXXXXXXXXXXXXX
3B80 : XXXXXXXXXXXXXXXX XXXXXXXXXXXXXXXX XXXXXXXXXXXXXXXX XXXXXXXXXXXXXXXX
3BC0 : XXXXXXXXXXXXXXXX XXXXXXXXXXXXXXXX XXXX------------ ----------------
3C00 : XXXXXXXXXXXXXXXX XXXXXXXXXXXXXXXX XXXXXXXXXXXXXXXX XXXXXXXXXXXXXXXX
3C40 : XXXXXXXXXXXXXXXX XXXXXXXXXXXXXXXX XXXXXXXXXXXXXXXX XXXXXXXXXXXXXXXX
3C80 : XXXXXXXXXXXXXXXX XXXXXXXXXXXXXXXX XXXXXXXXXXXXXXXX XXXXXXXXXXXXXXXX
3CC0 : XXXXXXXXXXXXXXXX XXXXXXXXXXXXXXXX XXXX------------ ----------------
3D00 : XXXXXXXXXXXXXXXX XXXXXXXXXXXXXXXX XXXXXXXXXXXXXXXX XXXXXXXXXXXXXXXX
3D40 : XXXXXXXXXXXXXXXX XXXXXXXXXXXXXXXX XXXXXXXXXXXXXXXX XXXXXXXXXXXXXXXX
3D80 : XXXXXXXXXXXXXXXX XXXXXXXXXXXXXXXX XXXXXXXXXXXXXXXX XXXXXXXXXXXXXXXX
3DC0 : XXXXXXXXXXXXXXXX XXXXXXXXXXXXXXXX XXXX------------ ----------------
3E00 : XXXXXXXXXXXXXXXX XXXXXXXXXXXXXXXX XXXXXXXXXXXXXXXX XXXXXXXXXXXXXXXX
3E40 : XXXXXXXXXXXXXXXX XXXXXXXXXXXXXXXX XXXXXXXXXXXXXXXX XXXXXXXXXXXXXXXX
3E80 : XXXXXXXXXXXXXXXX XXXXXXXXXXXXXXXX XXXXXXXXXXXXXXXX XXXXXXXXXXXXXXXX
3EC0 : XXXXXXXXXXXXXXXX XXXXXXXXXXXXXXXX XXXXXXXXXX------ ----------------
3F00 : XXXXXXXXXXXXXXXX XXXXXXXXXXXXXXXX XXXXXXXXXXXXXXXX XXXXXXXXXXXXXXXX
3F40 : XXXXXXXXXXXXXXXX XXXXXXXXXXXXXXXX XXXXXXXXXXXXXXXX XXXXXXXXXXXXXXXX
MPASM  5.51                 20200227_P6MM.ASM   2-27-2020  19:46:00         PAGE 181


MEMORY USAGE MAP ('X' = Used,  '-' = Unused)


3F80 : XXXXXXXXXXXXXXXX XXXXXXXXXXXXXXXX XXXXXXXXXXXXXXXX XXXXXXXXXXXXXXXX
3FC0 : XXXXXXXXXXXXXXXX XXXXXXXXXXXXXXXX XXXX------------ ----------------
4000 : XXXXXXXXXXXXXXXX XXXXXXXXXXXXXXXX XXXXXXXXXXXXXXXX XXXXXXXXXXXXXXXX
4040 : XXXXXXXXXXXXXXXX XXXXXXXXXXXXXXXX XXXXXXXXXXXXXXXX XXXXXXXXXXXXXXXX
4080 : XXXXXXXXXXXXXXXX XXXXXXXXXXXXXXXX XXXXXXXXXXXXXXXX XXXXXXXXXXXXXXXX
40C0 : XXXXXXXXXXXXXXXX XXXXXXXXXXXXXXXX XXXXXXXXXX------ ----------------
4100 : XXXXXXXXXXXXXXXX XXXXXXXXXXXXXXXX XXXXXXXXXXXXXXXX XXXXXXXXXXXXXXXX
4140 : XXXXXXXXXXXXXXXX XXXXXXXXXXXXXXXX XXXXXXXXXXXXXXXX XXXXXXXXXXXXXXXX
4180 : XXXXXXXXXXXXXXXX XXXXXXXXXXXXXXXX XXXXXXXXXXXXXXXX XXXXXXXXXXXXXXXX
41C0 : XXXXXXXXXXXXXXXX XXXXXXXXXXXXXXXX XXXX------------ ----------------
4200 : XXXXXXXXXXXXXXXX XXXXXXXXXXXXXXXX XXXXXXXXXXXXXXXX XXXXXXXXXXXXXXXX
4240 : XXXXXXXXXXXXXXXX XXXXXXXXXXXXXXXX XXXXXXXXXXXXXXXX XXXXXXXXXXXXXXXX
4280 : XXXXXXXXXXXXXXXX XXXXXXXXXXXXXXXX XXXXXXXXXXXXXXXX XXXXXXXXXXXXXXXX
42C0 : XXXXXXXXXXXXXXXX XXXXXXXXXXXXXXXX XXXX------------ ----------------
4300 : XXXXXXXXXXXXXXXX XXXXXXXXXXXXXXXX XXXXXXXXXXXXXXXX XXXXXXXXXXXXXXXX
4340 : XXXXXXXXXXXXXXXX XXXXXXXXXXXXXXXX XXXXXXXXXXXXXXXX XXXXXXXXXXXXXXXX
4380 : XXXXXXXXXXXXXXXX XXXXXXXXXXXXXXXX XXXXXXXXXXXXXXXX XXXXXXXXXXXXXXXX
43C0 : XXXXXXXXXXXXXXXX XXXXXXXXXXXXXXXX XXXX------------ ----------------
4400 : XXXXXXXXXXXXXXXX XXXXXXXXXXXXXXXX XXXXXXXXXXXXXXXX XXXXXXXXXXXXXXXX
4440 : XXXXXXXXXXXXXXXX XXXXXXXXXXXXXXXX XXXXXXXXXXXXXXXX XX--------------
4500 : XXXXXXXXXXXXXXXX XXXXXXXXXXXXXXXX XXXXXXXXXXXXXXXX XXXXXXXXXXXXXXXX
4540 : XXXXXXXXXXXXXXXX XXXXXXXXXXXXXXXX XXXXXXXXXXXXXXXX XX--------------
4600 : XXXXXXXXXXXXXXXX XXXXXXXXXXXXXXXX XXXXXXXXXXXXXXXX XXXXXXXXXXXXXXXX
4640 : XXXXXXXXXXXXXXXX XXXXXXXXXXXXXXXX XXXXXXXXXXXXXXXX XX--------------
4700 : XXXXXXXXXXXXXXXX XXXXXXXXXXXXXXXX XXXXXXXXXXXXXXXX XXXXXXXXXXXXXXXX
4740 : XXXXXXXXXXXXXXXX XXXXXXXXXXXXXXXX XXXXXXXXXXXXXXXX XX--------------
4800 : XXXXXXXXXXXXXXXX XXXXXXXXXXXXXXXX XXXXXXXXXXXXXXXX XXXXXXXXXXXXXXXX
4840 : XXXXXXXXXXXXXXXX XXXXXXXXXXXXXXXX XXXXXXXXXXXXXXXX XX--------------
4900 : XXXXXXXXXXXXXXXX XXXXXXXXXXXXXXXX XXXXXXXXXXXXXXXX XXXXXXXXXXXXXXXX
4940 : XXXXXXXXXXXXXXXX XXXXXXXXXXXXXXXX XXXXXXXXXXXXXXXX XX--------------
4A00 : XXXXXXXXXXXXXXXX XXXXXXXXXXXXXXXX XXXXXXXXXXXXXXXX XXXXXXXXXXXXXXXX
4A40 : XXXXXXXXXXXXXXXX XXXXXXXXXXXXXXXX XXXXXXXXXXXXXXXX XX--------------
4B00 : XXXXXXXXXXXXXXXX XXXXXXXXXXXXXXXX XXXXXXXXXXXXXXXX XXXXXXXXXXXXXXXX
4B40 : XXXXXXXXXXXXXXXX XXXXXXXXXXXXXXXX XXXXXXXXXXXXXXXX XX--------------
4C00 : XXXXXXXXXXXXXXXX XXXXXXXXXXXXXXXX XXXXXXXXXXXXXXXX XXXXXXXXXXXXXXXX
4C40 : XXXXXXXXXXXXXXXX XXXXXXXXXXXXXXXX XXXXXXXXXXXXXXXX XX--------------
4D00 : XXXXXXXXXXXXXXXX XXXXXXXXXXXXXXXX XXXXXXXXXXXXXXXX XXXXXXXXXXXXXXXX
4D40 : XXXXXXXXXXXXXXXX XXXXXXXXXXXXXXXX XXXXXXXXXXXXXXXX XX--------------
4E00 : XXXXXXXXXXXXXXXX XXXXXXXXXXXXXXXX XXXXXXXXXXXXXXXX XXXXXXXXXXXXXXXX
4E40 : XXXXXXXXXXXXXXXX XXXXXXXXXXXXXXXX XXXXXXXXXXXXXXXX XX--------------
4F00 : XXXXXXXXXXXXXXXX XXXXXXXXXXXXXXXX XXXXXXXXXXXXXXXX XXXXXXXXXXXXXXXX
4F40 : XXXXXXXXXXXXXXXX XXXXXXXXXXXXXXXX XXXXXXXXXXXXXXXX XX--------------
5000 : XXXXXXXXXXXXXXXX XXXXXXXXXXXXXXXX XXXXXXXXXXXXXXXX XXXXXXXXXXXXXXXX
5040 : XXXXXXXXXXXXXXXX XXXXXXXXXXXXXXXX XXXXXXXXXXXXXXXX XX--------------
5100 : XXXXXXXXXXXXXXXX XXXXXXXXXXXXXXXX XXXXXXXXXXXXXXXX XXXXXXXXXXXXXXXX
5140 : XXXXXXXXXXXXXXXX XXXXXXXXXXXXXXXX XXXXXXXXXXXXXXXX XX--------------
MPASM  5.51                 20200227_P6MM.ASM   2-27-2020  19:46:00         PAGE 182


MEMORY USAGE MAP ('X' = Used,  '-' = Unused)


5200 : XXXXXXXXXXXXXXXX XXXXXXXXXXXXXXXX XXXXXXXXXXXXXXXX XXXXXXXXXXXXXXXX
5240 : XXXXXXXXXXXXXXXX XXXXXXXXXXXXXXXX XXXXXXXXXXXXXXXX XX--------------
5300 : XXXXXXXXXXXXXXXX XXXXXXXXXXXXXXXX XXXXXXXXXXXXXXXX XXXXXXXXXXXXXXXX
5340 : XXXXXXXXXXXXXXXX XXXXXXXXXXXXXXXX XXXXXXXXXXXXXXXX XX--------------
5400 : XXXXXXXXXXXXXXXX XXXXXXXXXXXXXXXX XXXXXXXXXXXXXXXX XXXXXXXXXXXXXXXX
5440 : XXXXXXXXXXXXXXXX XXXXXXXXXXXXXXXX XXXXXXXXXXXXXXXX XX--------------
5500 : XXXXXXXXXXXXXXXX XXXXXXXXXXXXXXXX XXXXXXXXXXXXXXXX XXXXXXXXXXXXXXXX
5540 : XXXXXXXXXXXXXXXX XXXXXXXXXXXXXXXX XXXXXXXXXXXXXXXX XX--------------
5600 : XXXXXXXXXXXXXXXX XXXXXXXXXXXXXXXX XXXXXXXXXXXXXXXX XXXXXXXXXXXXXXXX
5640 : XXXXXXXXXXXXXXXX XXXXXXXXXXXXXXXX XXXXXXXXXXXXXXXX XX--------------
5700 : XXXXXXXXXXXXXXXX XXXXXXXXXXXXXXXX XXXXXXXXXXXXXXXX XXXXXXXXXXXXXXXX
5740 : XXXXXXXXXXXXXXXX XXXXXXXXXXXXXXXX XXXXXXXXXXXXXXXX XX--------------
5800 : XXXXXXXXXXXXXXXX XXXXXXXXXXXXXXXX XXXXXXXXXXXXXXXX XXXXXXXXXXXXXXXX
5840 : XXXXXXXXXXXXXXXX XXXXXXXXXXXXXXXX XXXXXXXXXXXXXXXX XXXXXXXXXXXXXXXX
5880 : XXXXXXXXXXXXXXXX XXXXXXXXXXXXXXXX XXXXXXXXXXXXXXXX XXXXXXXXXXXXXXXX
58C0 : XXXXXXXXXXXXXXXX XXXXXXXXXXXXXXXX XXXX------------ ----------------
5900 : XXXXXXXXXXXXXXXX XXXXXXXXXXXXXXXX XXXXXXXXXXXXXXXX XXXXXXXXXXXXXXXX
5940 : XXXXXXXXXXXXXXXX XXXXXXXXXXXXXXXX XXXXXXXXXXXXXXXX XXXXXXXXXXXXXXXX
5980 : XXXXXXXXXXXXXXXX XXXXXXXXXXXXXXXX XXXXXXXXXXXXXXXX XXXXXXXXXXXXXXXX
59C0 : XXXXXXXXXXXXXXXX XXXXXXXXXXXXXXXX XXXX------------ ----------------
5A00 : XXXXXXXXXXXXXXXX XXXXXXXXXXXXXXXX XXXXXXXXXXXXXXXX XXXXXXXXXXXXXXXX
5A40 : XXXXXXXXXXXXXXXX XXXXXXXXXXXXXXXX XXXXXXXXXXXXXXXX XXXXXXXXXXXXXXXX
5A80 : XXXXXXXXXXXXXXXX XXXXXXXXXXXXXXXX XXXXXXXXXXXXXXXX XXXXXXXXXXXXXXXX
5AC0 : XXXXXXXXXXXXXXXX XXXXXXXXXXXXXXXX XXXX------------ ----------------
5B00 : XXXXXXXXXXXXXXXX XXXXXXXXXXXXXXXX XXXXXXXXXXXXXXXX XXXXXXXXXXXXXXXX
5B40 : XXXXXXXXXXXXXXXX XXXXXXXXXXXXXXXX XXXXXXXXXXXXXXXX XXXXXXXXXXXXXXXX
5B80 : XXXXXXXXXXXXXXXX XXXXXXXXXXXXXXXX XXXXXXXXXXXXXXXX XXXXXXXXXXXXXXXX
5BC0 : XXXXXXXXXXXXXXXX XXXXXXXXXXXXXXXX XXXX------------ ----------------
5C00 : XXXXXXXXXXXXXXXX XXXXXXXXXXXXXXXX XXXXXXXXXXXXXXXX XXXXXXXXXXXXXXXX
5C40 : XXXXXXXXXXXXXXXX XXXXXXXXXXXXXXXX XXXXXXXXXXXXXXXX XXXXXXXXXXXXXXXX
5C80 : XXXXXXXXXXXXXXXX XXXXXXXXXXXXXXXX XXXXXXXXXXXXXXXX XXXXXXXXXXXXXXXX
5CC0 : XXXXXXXXXXXXXXXX XXXXXXXXXXXXXXXX XXXX------------ ----------------
5D00 : XXXXXXXXXXXXXXXX XXXXXXXXXXXXXXXX XXXXXXXXXXXXXXXX XXXXXXXXXXXXXXXX
5D40 : XXXXXXXXXXXXXXXX XXXXXXXXXXXXXXXX XXXXXXXXXXXXXXXX XXXXXXXXXXXXXXXX
5D80 : XXXXXXXXXXXXXXXX XXXXXXXXXXXXXXXX XXXXXXXXXXXXXXXX XXXXXXXXXXXXXXXX
5DC0 : XXXXXXXXXXXXXXXX XXXXXXXXXXXXXXXX XXXX------------ ----------------
5E00 : XXXXXXXXXXXXXXXX XXXXXXXXXXXXXXXX XXXXXXXXXXXXXXXX XXXXXXXXXXXXXXXX
5E40 : XXXXXXXXXXXXXXXX XXXXXXXXXXXXXXXX XXXXXXXXXXXXXXXX XXXXXXXXXXXXXXXX
5E80 : XXXXXXXXXXXXXXXX XXXXXXXXXXXXXXXX XXXXXXXXXXXXXXXX XXXXXXXXXXXXXXXX
5EC0 : XXXXXXXXXXXXXXXX XXXXXXXXXXXXXXXX XXXX------------ ----------------
5F00 : XXXXXXXXXXXXXXXX XXXXXXXXXXXXXXXX XXXXXXXXXXXXXXXX XXXXXXXXXXXXXXXX
5F40 : XXXXXXXXXXXXXXXX XXXXXXXXXXXXXXXX XXXXXXXXXXXXXXXX XXXXXXXXXXXXXXXX
5F80 : XXXXXXXXXXXXXXXX XXXXXXXXXXXXXXXX XXXXXXXXXXXXXXXX XXXXXXXXXXXXXXXX
5FC0 : XXXXXXXXXXXXXXXX XXXXXXXXXXXXXXXX XXXX------------ ----------------
6000 : XXXXXXXXXXXXXXXX XXXXXXXXXXXXXXXX XXXXXXXXXXXXXXXX XXXXXXXXXXXXXXXX
6040 : XXXXXXXXXXXXXXXX XXXXXXXXXXXXXXXX XXXXXXXXXXXXXXXX XXXXXXXXXXXXXXXX
MPASM  5.51                 20200227_P6MM.ASM   2-27-2020  19:46:00         PAGE 183


MEMORY USAGE MAP ('X' = Used,  '-' = Unused)


6080 : XXXXXXXXXXXXXXXX XXXXXXXXXXXXXXXX XXXXXXXXXXXXXXXX XXXXXXXXXXXXXXXX
60C0 : XXXXXXXXXXXXXXXX XXXXXXXXXXXXXXXX XXXX------------ ----------------
6100 : XXXXXXXXXXXXXXXX XXXXXXXXXXXXXXXX XXXXXXXXXXXXXXXX XXXXXXXXXXXXXXXX
6140 : XXXXXXXXXXXXXXXX XXXXXXXXXXXXXXXX XXXXXXXXXXXXXXXX XXXXXXXXXXXXXXXX
6180 : XXXXXXXXXXXXXXXX XXXXXXXXXXXXXXXX XXXXXXXXXXXXXXXX XXXXXXXXXXXXXXXX
61C0 : XXXXXXXXXXXXXXXX XXXXXXXXXXXXXXXX XXXX------------ ----------------
6200 : XXXXXXXXXXXXXXXX XXXXXXXXXXXXXXXX XXXXXXXXXXXXXXXX XXXXXXXXXXXXXXXX
6240 : XXXXXXXXXXXXXXXX XXXXXXXXXXXXXXXX XXXXXXXXXXXXXXXX XXXXXXXXXXXXXXXX
6280 : XXXXXXXXXXXXXXXX XXXXXXXXXXXXXXXX XXXXXXXXXXXXXXXX XXXXXXXXXXXXXXXX
62C0 : XXXXXXXXXXXXXXXX XXXXXXXXXXXXXXXX XXXX------------ ----------------
6300 : XXXXXXXXXXXXXXXX XXXXXXXXXXXXXXXX XXXXXXXXXXXXXXXX XXXXXXXXXXXXXXXX
6340 : XXXXXXXXXXXXXXXX XXXXXXXXXXXXXXXX XXXXXXXXXXXXXXXX XXXXXXXXXXXXXXXX
6380 : XXXXXXXXXXXXXXXX XXXXXXXXXXXXXXXX XXXXXXXXXXXXXXXX XXXXXXXXXXXXXXXX
63C0 : XXXXXXXXXXXXXXXX XXXXXXXXXXXXXXXX XXXX------------ ----------------
6400 : XXXXXXXXXXXXXXXX XXXXXXXXXXXXXXXX XXXXXXXXXXXXXXXX XXXXXXXXXXXXXXXX
6440 : XXXXXXXXXXXXXXXX XXXXXXXXXXXXXXXX XXXXXXXXXXXXXXXX XX--------------
6500 : XXXXXXXXXXXXXXXX XXXXXXXXXXXXXXXX XXXXXXXXXXXXXXXX XXXXXXXXXXXXXXXX
6540 : XXXXXXXXXXXXXXXX XXXXXXXXXXXXXXXX XXXXXXXXXXXXXXXX XX--------------
7000 : XXXXXXXXXXXXXXXX XXXXXXXXXXXXXXXX XXXXXXXXXXXXXXXX XXXXXXXXXXXXXXXX
7040 : XXXXXXXXXXXXXXXX XXXXXXXXXXXXXXXX XXXXXXXXXXXXXXXX XXXXXXXXXXXXXXXX
7080 : XXXXXXXXXXXXXXXX XXXXXXXXXXXXXXXX XXXXXXXXXXXXXXXX XXXXXXXXXXXXXXXX
70C0 : XXXXXXXXXXXXXXXX XX-------------- ---------------- ----------------
8000 : XXXXXXXXXXXXXXXX XXXXXXXXXXXXXXXX XXXXXXXXXXXXXXXX XXXXXXXXXXXXXXXX
8040 : XXXXXXXXXXXXXXXX XXXXXXXXXXXXXXXX XXXXXXXXXXXXXXXX XXXXXXXXXXXXXXXX
8080 : XXXXXXXXXXXXXXXX XXXXXXXXXXXXXXXX XXXXXXXXXXXXXXXX XXXXXXXXXXXXXXXX
80C0 : XXXXXXXXXXXXXXXX XXXXXXXXXXXXXXXX XXXXXXXXXXXXXXXX XXXXXXXXXXXXXXXX
8100 : XXXXXXXXXXXXXXXX XXXXXXXXXXXXXXXX XXXXXXXXXXXXXXXX XXXXXXXXXXXXXXXX
8140 : XXXXXXXXXXXXXX-- ---------------- ---------------- ----------------
0000 : -XXX-XX-XXXXXX-- ---------------- ---------------- ----------------

All other memory blocks unused.

Program Memory Bytes Used: 20637
Program Memory Bytes Free: 44899


Errors   :     0
Warnings :   249 reported,     0 suppressed
Messages :     0 reported,     0 suppressed

