;/////////////////////////////////////////////////////////////////////////////////
;// Code Generator: BoostC Compiler - http://www.sourceboost.com
;// Version       : 7.03
;// License Type  : Pro License
;// Limitations   : PIC12,PIC16 max code size:Unlimited, max RAM banks:Unlimited
;/////////////////////////////////////////////////////////////////////////////////

	ORG 0x00000000
0000  2E81  	GOTO	_startup
	ORG 0x00000004
0004  00FF  	MOVWF Int1Context
0005  0E03  	SWAPF STATUS, W
0006  1283  	BCF STATUS, RP0
0007  1303  	BCF STATUS, RP1
0008  00DC  	MOVWF Int1BContext
0009  0E0A  	SWAPF PCLATH, W
000A  00DD  	MOVWF Int1BContext+D'1'
000B  0E04  	SWAPF FSR, W
000C  00DE  	MOVWF Int1BContext+D'2'
000D  118A  	BCF PCLATH,3
000E  120A  	BCF PCLATH,4
000F  2EB3  	GOTO	interrupt
	ORG 0x00000010
0010        delay_ms_00000
0010        ; { delay_ms ; function begin
0010  08F9  	MOVF delay_ms_00000_arg_del, F
0011  1D03  	BTFSS STATUS,Z
0012  2814  	GOTO	label1
0013  0008  	RETURN
0014        label1
0014  30F9  	MOVLW 0xF9
0015        label2
0015  0000  	NOP
0016  0000  	NOP
0017  0000  	NOP
0018  0000  	NOP
0019  0000  	NOP
001A  0000  	NOP
001B  0000  	NOP
001C  0000  	NOP
001D  0000  	NOP
001E  0000  	NOP
001F  0000  	NOP
0020  0000  	NOP
0021  0000  	NOP
0022  0000  	NOP
0023  0000  	NOP
0024  0000  	NOP
0025  3EFF  	ADDLW 0xFF
0026  1D03  	BTFSS STATUS,Z
0027  2815  	GOTO	label2
0028  0000  	NOP
0029  0000  	NOP
002A  0000  	NOP
002B  0000  	NOP
002C  0000  	NOP
002D  0000  	NOP
002E  0000  	NOP
002F  0000  	NOP
0030  0000  	NOP
0031  0000  	NOP
0032  0000  	NOP
0033  0000  	NOP
0034  0000  	NOP
0035  0000  	NOP
0036  0000  	NOP
0037  0000  	NOP
0038  0000  	NOP
0039  0BF9  	DECFSZ delay_ms_00000_arg_del, F
003A  2814  	GOTO	label1
003B  0008  	RETURN
003C        ; } delay_ms function end

	ORG 0x0000003C
003C        delay_10us_00000
003C        ; { delay_10us ; function begin
003C  08B1  	MOVF delay_10us_00000_arg_del, F
003D  1D03  	BTFSS STATUS,Z
003E  2840  	GOTO	label3
003F  0008  	RETURN
0040        label3
0040  3009  	MOVLW 0x09
0041        label4
0041  0000  	NOP
0042  3EFF  	ADDLW 0xFF
0043  1D03  	BTFSS STATUS,Z
0044  2841  	GOTO	label4
0045  0000  	NOP
0046  0000  	NOP
0047  0BB1  	DECFSZ delay_10us_00000_arg_del, F
0048  2840  	GOTO	label3
0049  0008  	RETURN
004A        ; } delay_10us function end

	ORG 0x0000004A
004A        delay_us_00000
004A        ; { delay_us ; function begin
004A        label5
004A  0000  	NOP
004B  0000  	NOP
004C  0BF7  	DECFSZ delay_us_00000_arg_del, F
004D  284A  	GOTO	label5
004E  0008  	RETURN
004F        ; } delay_us function end

	ORG 0x0000004F
004F        delay_s_00000
004F        ; { delay_s ; function begin
004F        label6
004F  30FA  	MOVLW 0xFA
0050  00F9  	MOVWF delay_ms_00000_arg_del
0051  2010  	CALL delay_ms_00000
0052  30FA  	MOVLW 0xFA
0053  00F9  	MOVWF delay_ms_00000_arg_del
0054  2010  	CALL delay_ms_00000
0055  30FA  	MOVLW 0xFA
0056  00F9  	MOVWF delay_ms_00000_arg_del
0057  2010  	CALL delay_ms_00000
0058  30FA  	MOVLW 0xFA
0059  00F9  	MOVWF delay_ms_00000_arg_del
005A  2010  	CALL delay_ms_00000
005B  0BF2  	DECFSZ delay_s_00000_arg_del, F
005C  284F  	GOTO	label6
005D  0008  	RETURN
005E        ; } delay_s function end

	ORG 0x0000005E
005E        __div_16_1_00003
005E        ; { __div_16_16 ; function begin
005E  01A2  	CLRF __div_16_1_00003_1_r
005F  01A3  	CLRF __div_16_1_00003_1_r+D'1'
0060  01A5  	CLRF CompTempVarRet214
0061  01A6  	CLRF CompTempVarRet214+D'1'
0062  01A4  	CLRF __div_16_1_00003_1_i
0063        label7
0063  1A24  	BTFSC __div_16_1_00003_1_i,4
0064  0008  	RETURN
0065  1003  	BCF STATUS,C
0066  0DA5  	RLF CompTempVarRet214, F
0067  0DA6  	RLF CompTempVarRet214+D'1', F
0068  1283  	BCF STATUS, RP0
0069  0DFC  	RLF __div_16_1_00003_arg_a, F
006A  0DFD  	RLF __div_16_1_00003_arg_a+D'1', F
006B  1683  	BSF STATUS, RP0
006C  0DA2  	RLF __div_16_1_00003_1_r, F
006D  0DA3  	RLF __div_16_1_00003_1_r+D'1', F
006E  0821  	MOVF __div_16_1_00003_arg_b+D'1', W
006F  0223  	SUBWF __div_16_1_00003_1_r+D'1', W
0070  1D03  	BTFSS STATUS,Z
0071  2874  	GOTO	label8
0072  0820  	MOVF __div_16_1_00003_arg_b, W
0073  0222  	SUBWF __div_16_1_00003_1_r, W
0074        label8
0074  1C03  	BTFSS STATUS,C
0075  287D  	GOTO	label9
0076  0820  	MOVF __div_16_1_00003_arg_b, W
0077  02A2  	SUBWF __div_16_1_00003_1_r, F
0078  0821  	MOVF __div_16_1_00003_arg_b+D'1', W
0079  1C03  	BTFSS STATUS,C
007A  03A3  	DECF __div_16_1_00003_1_r+D'1', F
007B  02A3  	SUBWF __div_16_1_00003_1_r+D'1', F
007C  1425  	BSF CompTempVarRet214,0
007D        label9
007D  0AA4  	INCF __div_16_1_00003_1_i, F
007E  2863  	GOTO	label7
007F        ; } __div_16_16 function end

	ORG 0x0000007F
007F        Wdt_Delay__0003E
007F        ; { Wdt_Delay_Ms ; function begin
007F  01F8  	CLRF Wdt_Delay__0003E_1_i
0080        label10
0080  0877  	MOVF Wdt_Delay__0003E_arg_delay, W
0081  0278  	SUBWF Wdt_Delay__0003E_1_i, W
0082  1803  	BTFSC STATUS,C
0083  0008  	RETURN
0084  0064  	CLRWDT
0085  3001  	MOVLW 0x01
0086  00F9  	MOVWF delay_ms_00000_arg_del
0087  2010  	CALL delay_ms_00000
0088  0AF8  	INCF Wdt_Delay__0003E_1_i, F
0089  2880  	GOTO	label10
008A        ; } Wdt_Delay_Ms function end

	ORG 0x0000008A
008A        FC_CAL_PWM_00070
008A        ; { FC_CAL_PWM_Set_Duty_8Bit_1 ; function begin
008A  0873  	MOVF FC_CAL_PWM_00070_arg_duty, W
008B  009B  	MOVWF gbl_ccpr2l
008C  0008  	RETURN
008D        ; } FC_CAL_PWM_Set_Duty_8Bit_1 function end

	ORG 0x0000008D
008D        FCD_LCDDis_00056
008D        ; { FCD_LCDDisplay0_RawSend ; function begin
008D  1283  	BCF STATUS, RP0
008E  1106  	BCF gbl_portb,2
008F  1186  	BCF gbl_portb,3
0090  1206  	BCF gbl_portb,4
0091  1286  	BCF gbl_portb,5
0092  1006  	BCF gbl_portb,0
0093  1086  	BCF gbl_portb,1
0094  1683  	BSF STATUS, RP0
0095  0E2E  	SWAPF FCD_LCDDis_00056_arg_in, W
0096  390F  	ANDLW 0x0F
0097  00B0  	MOVWF FCD_LCDDis_00056_1_pt
0098  300F  	MOVLW 0x0F
0099  05B0  	ANDWF FCD_LCDDis_00056_1_pt, F
009A  1C30  	BTFSS FCD_LCDDis_00056_1_pt,0
009B  289E  	GOTO	label11
009C  1283  	BCF STATUS, RP0
009D  1506  	BSF gbl_portb,2
009E        label11
009E  1683  	BSF STATUS, RP0
009F  1CB0  	BTFSS FCD_LCDDis_00056_1_pt,1
00A0  28A3  	GOTO	label12
00A1  1283  	BCF STATUS, RP0
00A2  1586  	BSF gbl_portb,3
00A3        label12
00A3  1683  	BSF STATUS, RP0
00A4  1D30  	BTFSS FCD_LCDDis_00056_1_pt,2
00A5  28A8  	GOTO	label13
00A6  1283  	BCF STATUS, RP0
00A7  1606  	BSF gbl_portb,4
00A8        label13
00A8  1683  	BSF STATUS, RP0
00A9  1DB0  	BTFSS FCD_LCDDis_00056_1_pt,3
00AA  28AD  	GOTO	label14
00AB  1283  	BCF STATUS, RP0
00AC  1686  	BSF gbl_portb,5
00AD        label14
00AD  1683  	BSF STATUS, RP0
00AE  08AF  	MOVF FCD_LCDDis_00056_arg_mask, F
00AF  1903  	BTFSC STATUS,Z
00B0  28B3  	GOTO	label15
00B1  1283  	BCF STATUS, RP0
00B2  1406  	BSF gbl_portb,0
00B3        label15
00B3  300A  	MOVLW 0x0A
00B4  1683  	BSF STATUS, RP0
00B5  00B1  	MOVWF delay_10us_00000_arg_del
00B6  203C  	CALL delay_10us_00000
00B7  1283  	BCF STATUS, RP0
00B8  1486  	BSF gbl_portb,1
00B9  300A  	MOVLW 0x0A
00BA  1683  	BSF STATUS, RP0
00BB  00B1  	MOVWF delay_10us_00000_arg_del
00BC  203C  	CALL delay_10us_00000
00BD  1283  	BCF STATUS, RP0
00BE  1086  	BCF gbl_portb,1
00BF  300F  	MOVLW 0x0F
00C0  1683  	BSF STATUS, RP0
00C1  052E  	ANDWF FCD_LCDDis_00056_arg_in, W
00C2  00B0  	MOVWF FCD_LCDDis_00056_1_pt
00C3  300A  	MOVLW 0x0A
00C4  00B1  	MOVWF delay_10us_00000_arg_del
00C5  203C  	CALL delay_10us_00000
00C6  1283  	BCF STATUS, RP0
00C7  1106  	BCF gbl_portb,2
00C8  1186  	BCF gbl_portb,3
00C9  1206  	BCF gbl_portb,4
00CA  1286  	BCF gbl_portb,5
00CB  1006  	BCF gbl_portb,0
00CC  1086  	BCF gbl_portb,1
00CD  1683  	BSF STATUS, RP0
00CE  1C30  	BTFSS FCD_LCDDis_00056_1_pt,0
00CF  28D2  	GOTO	label16
00D0  1283  	BCF STATUS, RP0
00D1  1506  	BSF gbl_portb,2
00D2        label16
00D2  1683  	BSF STATUS, RP0
00D3  1CB0  	BTFSS FCD_LCDDis_00056_1_pt,1
00D4  28D7  	GOTO	label17
00D5  1283  	BCF STATUS, RP0
00D6  1586  	BSF gbl_portb,3
00D7        label17
00D7  1683  	BSF STATUS, RP0
00D8  1D30  	BTFSS FCD_LCDDis_00056_1_pt,2
00D9  28DC  	GOTO	label18
00DA  1283  	BCF STATUS, RP0
00DB  1606  	BSF gbl_portb,4
00DC        label18
00DC  1683  	BSF STATUS, RP0
00DD  1DB0  	BTFSS FCD_LCDDis_00056_1_pt,3
00DE  28E1  	GOTO	label19
00DF  1283  	BCF STATUS, RP0
00E0  1686  	BSF gbl_portb,5
00E1        label19
00E1  1683  	BSF STATUS, RP0
00E2  08AF  	MOVF FCD_LCDDis_00056_arg_mask, F
00E3  1903  	BTFSC STATUS,Z
00E4  28E7  	GOTO	label20
00E5  1283  	BCF STATUS, RP0
00E6  1406  	BSF gbl_portb,0
00E7        label20
00E7  300A  	MOVLW 0x0A
00E8  1683  	BSF STATUS, RP0
00E9  00B1  	MOVWF delay_10us_00000_arg_del
00EA  203C  	CALL delay_10us_00000
00EB  1283  	BCF STATUS, RP0
00EC  1486  	BSF gbl_portb,1
00ED  300A  	MOVLW 0x0A
00EE  1683  	BSF STATUS, RP0
00EF  00B1  	MOVWF delay_10us_00000_arg_del
00F0  203C  	CALL delay_10us_00000
00F1  1283  	BCF STATUS, RP0
00F2  1086  	BCF gbl_portb,1
00F3  300A  	MOVLW 0x0A
00F4  1683  	BSF STATUS, RP0
00F5  00B1  	MOVWF delay_10us_00000_arg_del
00F6  203C  	CALL delay_10us_00000
00F7  0008  	RETURN
00F8        ; } FCD_LCDDisplay0_RawSend function end

	ORG 0x000000F8
00F8        __mul_16u__0000C
00F8        ; { __mul_16u_16u__16 ; function begin
00F8  01A3  	CLRF __mul_16u__0000C_1_i
00F9  01A6  	CLRF CompTempVarRet455
00FA  01A7  	CLRF CompTempVarRet455+D'1'
00FB  1283  	BCF STATUS, RP0
00FC  087C  	MOVF __mul_16u__0000C_arg_a, W
00FD  1683  	BSF STATUS, RP0
00FE  00A4  	MOVWF __mul_16u__0000C_1_t
00FF  1283  	BCF STATUS, RP0
0100  087D  	MOVF __mul_16u__0000C_arg_a+D'1', W
0101  1683  	BSF STATUS, RP0
0102  00A5  	MOVWF __mul_16u__0000C_1_t+D'1'
0103        label21
0103  1A23  	BTFSC __mul_16u__0000C_1_i,4
0104  0008  	RETURN
0105  1C20  	BTFSS __mul_16u__0000C_arg_b,0
0106  290D  	GOTO	label22
0107  0824  	MOVF __mul_16u__0000C_1_t, W
0108  07A6  	ADDWF CompTempVarRet455, F
0109  0825  	MOVF __mul_16u__0000C_1_t+D'1', W
010A  1803  	BTFSC gbl_status,0
010B  0F25  	INCFSZ __mul_16u__0000C_1_t+D'1', W
010C  07A7  	ADDWF CompTempVarRet455+D'1', F
010D        label22
010D  1003  	BCF gbl_status,0
010E  0CA1  	RRF __mul_16u__0000C_arg_b+D'1', F
010F  0CA0  	RRF __mul_16u__0000C_arg_b, F
0110  1003  	BCF gbl_status,0
0111  0DA4  	RLF __mul_16u__0000C_1_t, F
0112  0DA5  	RLF __mul_16u__0000C_1_t+D'1', F
0113  0AA3  	INCF __mul_16u__0000C_1_i, F
0114  2903  	GOTO	label21
0115        ; } __mul_16u_16u__16 function end

	ORG 0x00000115
0115        FC_CAL_UAR_00079
0115        ; { FC_CAL_UART_Send_1 ; function begin
0115        label23
0115  1E0C  	BTFSS gbl_pir1,4
0116  2915  	GOTO	label23
0117  0879  	MOVF FC_CAL_UAR_00079_arg_nChar, W
0118  0099  	MOVWF gbl_txreg
0119  0008  	RETURN
011A        ; } FC_CAL_UART_Send_1 function end

	ORG 0x0000011A
011A        FC_CAL_Sam_00060
011A        ; { FC_CAL_Sample_ADC ; function begin
011A  3004  	MOVLW 0x04
011B  041F  	IORWF gbl_adcon0, W
011C  009F  	MOVWF gbl_adcon0
011D        label24
011D  191F  	BTFSC gbl_adcon0,2
011E  291D  	GOTO	label24
011F  08F3  	MOVF FC_CAL_Sam_00060_arg_Sample_Mode, F
0120  1903  	BTFSC STATUS,Z
0121  2936  	GOTO	label25
0122  081E  	MOVF gbl_adresh, W
0123  00F4  	MOVWF FC_CAL_Sam_00060_1_iRetVal
0124  01F5  	CLRF FC_CAL_Sam_00060_1_iRetVal+D'1'
0125  0DF4  	RLF FC_CAL_Sam_00060_1_iRetVal, F
0126  0DF5  	RLF FC_CAL_Sam_00060_1_iRetVal+D'1', F
0127  0DF4  	RLF FC_CAL_Sam_00060_1_iRetVal, F
0128  0DF5  	RLF FC_CAL_Sam_00060_1_iRetVal+D'1', F
0129  30FC  	MOVLW 0xFC
012A  05F4  	ANDWF FC_CAL_Sam_00060_1_iRetVal, F
012B  1683  	BSF STATUS, RP0
012C  0C1E  	RRF gbl_adresl, W
012D  1283  	BCF STATUS, RP0
012E  00F6  	MOVWF CompTempVar2241
012F  0CF6  	RRF CompTempVar2241, F
0130  0EF6  	SWAPF CompTempVar2241, F
0131  3003  	MOVLW 0x03
0132  0576  	ANDWF CompTempVar2241, W
0133  04F4  	IORWF FC_CAL_Sam_00060_1_iRetVal, F
0134  08F5  	MOVF FC_CAL_Sam_00060_1_iRetVal+D'1', F
0135  2939  	GOTO	label26
0136        label25
0136  081E  	MOVF gbl_adresh, W
0137  00F4  	MOVWF FC_CAL_Sam_00060_1_iRetVal
0138  01F5  	CLRF FC_CAL_Sam_00060_1_iRetVal+D'1'
0139        label26
0139  0874  	MOVF FC_CAL_Sam_00060_1_iRetVal, W
013A  00F6  	MOVWF CompTempVarRet2238
013B  0875  	MOVF FC_CAL_Sam_00060_1_iRetVal+D'1', W
013C  00F7  	MOVWF CompTempVarRet2238+D'1'
013D  0008  	RETURN
013E        ; } FC_CAL_Sample_ADC function end

	ORG 0x0000013E
013E        FC_CAL_PWM_00071
013E        ; { FC_CAL_PWM_Change_Period_1 ; function begin
013E  0872  	MOVF FC_CAL_PWM_00071_arg_period, W
013F  1683  	BSF STATUS, RP0
0140  0092  	MOVWF gbl_pr2
0141  3001  	MOVLW 0x01
0142  1283  	BCF STATUS, RP0
0143  0673  	XORWF FC_CAL_PWM_00071_arg_prescaler, W
0144  1903  	BTFSC STATUS,Z
0145  0874  	MOVF FC_CAL_PWM_00071_arg_prescaler+D'1', W
0146  1903  	BTFSC STATUS,Z
0147  2955  	GOTO	label27
0148  3004  	MOVLW 0x04
0149  0673  	XORWF FC_CAL_PWM_00071_arg_prescaler, W
014A  1903  	BTFSC STATUS,Z
014B  0874  	MOVF FC_CAL_PWM_00071_arg_prescaler+D'1', W
014C  1903  	BTFSC STATUS,Z
014D  2958  	GOTO	label28
014E  3010  	MOVLW 0x10
014F  0673  	XORWF FC_CAL_PWM_00071_arg_prescaler, W
0150  1903  	BTFSC STATUS,Z
0151  0874  	MOVF FC_CAL_PWM_00071_arg_prescaler+D'1', W
0152  1903  	BTFSC STATUS,Z
0153  295B  	GOTO	label29
0154  0008  	RETURN
0155        label27
0155  3004  	MOVLW 0x04
0156  0092  	MOVWF gbl_t2con
0157  0008  	RETURN
0158        label28
0158  3005  	MOVLW 0x05
0159  0092  	MOVWF gbl_t2con
015A  0008  	RETURN
015B        label29
015B  3006  	MOVLW 0x06
015C  0092  	MOVWF gbl_t2con
015D  0008  	RETURN
015E        ; } FC_CAL_PWM_Change_Period_1 function end

	ORG 0x0000015E
015E        FC_CAL_PWM_0006E
015E        ; { FC_CAL_PWM_Enable_Channel_1 ; function begin
015E  1683  	BSF STATUS, RP0
015F  1303  	BCF STATUS, RP1
0160  1087  	BCF gbl_trisc,1
0161  1283  	BCF STATUS, RP0
0162  1087  	BCF gbl_portc,1
0163  300C  	MOVLW 0x0C
0164  009D  	MOVWF gbl_ccp2con
0165  0008  	RETURN
0166        ; } FC_CAL_PWM_Enable_Channel_1 function end

	ORG 0x00000166
0166        FC_CAL_Ena_0005F
0166        ; { FC_CAL_Enable_ADC ; function begin
0166  0873  	MOVF FC_CAL_Ena_0005F_arg_Channel, W
0167  3A00  	XORLW 0x00
0168  1D03  	BTFSS STATUS,Z
0169  297A  	GOTO	label31
016A  3001  	MOVLW 0x01
016B  00F1  	MOVWF gbl_tris_mask
016C  3000  	MOVLW HIGH(gbl_trisa+D'0')
016D  00E2  	MOVWF gbl_tris_reg+D'1'
016E  3085  	MOVLW LOW(gbl_trisa+D'0')
016F  00E1  	MOVWF gbl_tris_reg
0170  08F5  	MOVF FC_CAL_Ena_0005F_arg_Vref, F
0171  1D03  	BTFSS STATUS,Z
0172  2977  	GOTO	label30
0173  300E  	MOVLW 0x0E
0174  1683  	BSF STATUS, RP0
0175  009F  	MOVWF gbl_adcon1
0176  297A  	GOTO	label31
0177        label30
0177  3005  	MOVLW 0x05
0178  1683  	BSF STATUS, RP0
0179  009F  	MOVWF gbl_adcon1
017A        label31
017A  1283  	BCF STATUS, RP0
017B  0874  	MOVF FC_CAL_Ena_0005F_arg_Conv_Speed, W
017C  3C03  	SUBLW 0x03
017D  1803  	BTFSC STATUS,C
017E  2981  	GOTO	label32
017F  1683  	BSF STATUS, RP0
0180  171F  	BSF gbl_adcon1,6
0181        label32
0181  1383  	BCF STATUS,IRP
0182  1283  	BCF STATUS, RP0
0183  1862  	BTFSC gbl_tris_reg+D'1',0
0184  1783  	BSF STATUS,IRP
0185  0861  	MOVF gbl_tris_reg, W
0186  0084  	MOVWF FSR
0187  0800  	MOVF INDF, W
0188  00F0  	MOVWF gbl_old_tris
0189  0871  	MOVF gbl_tris_mask, W
018A  0470  	IORWF gbl_old_tris, W
018B  00F7  	MOVWF CompTempVar2232
018C  0080  	MOVWF INDF
018D  0874  	MOVF FC_CAL_Ena_0005F_arg_Conv_Speed, W
018E  00F7  	MOVWF CompTempVar2233
018F  01F8  	CLRF CompTempVar2234
0190  0DF7  	RLF CompTempVar2233, F
0191  0DF8  	RLF CompTempVar2234, F
0192  0DF7  	RLF CompTempVar2233, F
0193  0DF8  	RLF CompTempVar2234, F
0194  0DF7  	RLF CompTempVar2233, F
0195  0DF8  	RLF CompTempVar2234, F
0196  0DF7  	RLF CompTempVar2233, F
0197  0DF8  	RLF CompTempVar2234, F
0198  0DF7  	RLF CompTempVar2233, F
0199  0DF8  	RLF CompTempVar2234, F
019A  0DF7  	RLF CompTempVar2233, F
019B  0DF8  	RLF CompTempVar2234, F
019C  30C0  	MOVLW 0xC0
019D  0577  	ANDWF CompTempVar2233, W
019E  3801  	IORLW 0x01
019F  00FA  	MOVWF CompTempVar2237
01A0  0873  	MOVF FC_CAL_Ena_0005F_arg_Channel, W
01A1  00F9  	MOVWF CompTempVar2236
01A2  0DF9  	RLF CompTempVar2236, F
01A3  0DF9  	RLF CompTempVar2236, F
01A4  0DF9  	RLF CompTempVar2236, F
01A5  30F8  	MOVLW 0xF8
01A6  0579  	ANDWF CompTempVar2236, W
01A7  047A  	IORWF CompTempVar2237, W
01A8  009F  	MOVWF gbl_adcon0
01A9  0876  	MOVF FC_CAL_Ena_0005F_arg_T_Charge, W
01AA  00F7  	MOVWF delay_us_00000_arg_del
01AB  204A  	CALL delay_us_00000
01AC  0008  	RETURN
01AD        ; } FC_CAL_Enable_ADC function end

	ORG 0x000001AD
01AD        FC_CAL_Dis_00061
01AD        ; { FC_CAL_Disable_ADC ; function begin
01AD  1383  	BCF STATUS,IRP
01AE  1283  	BCF STATUS, RP0
01AF  1303  	BCF STATUS, RP1
01B0  1862  	BTFSC gbl_tris_reg+D'1',0
01B1  1783  	BSF STATUS,IRP
01B2  0861  	MOVF gbl_tris_reg, W
01B3  0084  	MOVWF FSR
01B4  0870  	MOVF gbl_old_tris, W
01B5  0080  	MOVWF INDF
01B6  3007  	MOVLW 0x07
01B7  1683  	BSF STATUS, RP0
01B8  009F  	MOVWF gbl_adcon1
01B9  1283  	BCF STATUS, RP0
01BA  019F  	CLRF gbl_adcon0
01BB  0008  	RETURN
01BC        ; } FC_CAL_Disable_ADC function end

	ORG 0x000001BC
01BC        FCD_PWM0_S_00055
01BC        ; { FCD_PWM0_SetDutyCycle ; function begin
01BC  0872  	MOVF FCD_PWM0_S_00055_arg_nDuty, W
01BD  00F3  	MOVWF FC_CAL_PWM_00070_arg_duty
01BE  208A  	CALL FC_CAL_PWM_00070
01BF  0008  	RETURN
01C0        ; } FCD_PWM0_SetDutyCycle function end

	ORG 0x000001C0
01C0        FCD_LCDDis_00054
01C0        ; { FCD_LCDDisplay0_PrintNumber ; function begin
01C0  1FF5  	BTFSS FCD_LCDDis_00054_arg_Number+D'1',7
01C1  29D1  	GOTO	label33
01C2  302D  	MOVLW 0x2D
01C3  1683  	BSF STATUS, RP0
01C4  00AE  	MOVWF FCD_LCDDis_00056_arg_in
01C5  3010  	MOVLW 0x10
01C6  00AF  	MOVWF FCD_LCDDis_00056_arg_mask
01C7  208D  	CALL FCD_LCDDis_00056
01C8  1283  	BCF STATUS, RP0
01C9  0874  	MOVF FCD_LCDDis_00054_arg_Number, W
01CA  3C00  	SUBLW 0x00
01CB  00F9  	MOVWF CompTempVar2206
01CC  09F5  	COMF FCD_LCDDis_00054_arg_Number+D'1', F
01CD  1803  	BTFSC STATUS,C
01CE  0AF5  	INCF FCD_LCDDis_00054_arg_Number+D'1', F
01CF  0879  	MOVF CompTempVar2206, W
01D0  00F4  	MOVWF FCD_LCDDis_00054_arg_Number
01D1        label33
01D1  0874  	MOVF FCD_LCDDis_00054_arg_Number, W
01D2  00F6  	MOVWF FCD_LCDDis_00054_1_tmp_int
01D3  0875  	MOVF FCD_LCDDis_00054_arg_Number+D'1', W
01D4  00F7  	MOVWF FCD_LCDDis_00054_1_tmp_int+D'1'
01D5  3027  	MOVLW 0x27
01D6  0275  	SUBWF FCD_LCDDis_00054_arg_Number+D'1', W
01D7  1D03  	BTFSS STATUS,Z
01D8  29DB  	GOTO	label34
01D9  3010  	MOVLW 0x10
01DA  0274  	SUBWF FCD_LCDDis_00054_arg_Number, W
01DB        label34
01DB  1C03  	BTFSS STATUS,C
01DC  2A0D  	GOTO	label38
01DD  1BF5  	BTFSC FCD_LCDDis_00054_arg_Number+D'1',7
01DE  2A0D  	GOTO	label38
01DF  01FE  	CLRF CompTempVar2209
01E0  0876  	MOVF FCD_LCDDis_00054_1_tmp_int, W
01E1  00FC  	MOVWF __div_16_1_00003_arg_a
01E2  0877  	MOVF FCD_LCDDis_00054_1_tmp_int+D'1', W
01E3  00FD  	MOVWF __div_16_1_00003_arg_a+D'1'
01E4  1FF7  	BTFSS FCD_LCDDis_00054_1_tmp_int+D'1',7
01E5  29EC  	GOTO	label35
01E6  09FC  	COMF __div_16_1_00003_arg_a, F
01E7  09FD  	COMF __div_16_1_00003_arg_a+D'1', F
01E8  0AFC  	INCF __div_16_1_00003_arg_a, F
01E9  1903  	BTFSC STATUS,Z
01EA  0AFD  	INCF __div_16_1_00003_arg_a+D'1', F
01EB  0AFE  	INCF CompTempVar2209, F
01EC        label35
01EC  3010  	MOVLW 0x10
01ED  1683  	BSF STATUS, RP0
01EE  00A0  	MOVWF __div_16_1_00003_arg_b
01EF  3027  	MOVLW 0x27
01F0  00A1  	MOVWF __div_16_1_00003_arg_b+D'1'
01F1  205E  	CALL __div_16_1_00003
01F2  0825  	MOVF CompTempVarRet214, W
01F3  1283  	BCF STATUS, RP0
01F4  00F8  	MOVWF FCD_LCDDis_00054_1_tmp_byte
01F5  1C7E  	BTFSS CompTempVar2209,0
01F6  29F9  	GOTO	label36
01F7  09F8  	COMF FCD_LCDDis_00054_1_tmp_byte, F
01F8  0AF8  	INCF FCD_LCDDis_00054_1_tmp_byte, F
01F9        label36
01F9  0878  	MOVF FCD_LCDDis_00054_1_tmp_byte, W
01FA  3E30  	ADDLW 0x30
01FB  1683  	BSF STATUS, RP0
01FC  00AE  	MOVWF FCD_LCDDis_00056_arg_in
01FD  3010  	MOVLW 0x10
01FE  00AF  	MOVWF FCD_LCDDis_00056_arg_mask
01FF  208D  	CALL FCD_LCDDis_00056
0200        label37
0200  1283  	BCF STATUS, RP0
0201  0878  	MOVF FCD_LCDDis_00054_1_tmp_byte, W
0202  3C00  	SUBLW 0x00
0203  1803  	BTFSC STATUS,C
0204  2A0D  	GOTO	label38
0205  3010  	MOVLW 0x10
0206  02F6  	SUBWF FCD_LCDDis_00054_1_tmp_int, F
0207  3027  	MOVLW 0x27
0208  1C03  	BTFSS STATUS,C
0209  3028  	MOVLW 0x28
020A  02F7  	SUBWF FCD_LCDDis_00054_1_tmp_int+D'1', F
020B  03F8  	DECF FCD_LCDDis_00054_1_tmp_byte, F
020C  2A00  	GOTO	label37
020D        label38
020D  3003  	MOVLW 0x03
020E  0275  	SUBWF FCD_LCDDis_00054_arg_Number+D'1', W
020F  1D03  	BTFSS STATUS,Z
0210  2A13  	GOTO	label39
0211  30E8  	MOVLW 0xE8
0212  0274  	SUBWF FCD_LCDDis_00054_arg_Number, W
0213        label39
0213  1C03  	BTFSS STATUS,C
0214  2A47  	GOTO	label43
0215  1BF5  	BTFSC FCD_LCDDis_00054_arg_Number+D'1',7
0216  2A47  	GOTO	label43
0217  01F9  	CLRF CompTempVar2213
0218  0876  	MOVF FCD_LCDDis_00054_1_tmp_int, W
0219  00FC  	MOVWF __div_16_1_00003_arg_a
021A  0877  	MOVF FCD_LCDDis_00054_1_tmp_int+D'1', W
021B  00FD  	MOVWF __div_16_1_00003_arg_a+D'1'
021C  1FF7  	BTFSS FCD_LCDDis_00054_1_tmp_int+D'1',7
021D  2A24  	GOTO	label40
021E  09FC  	COMF __div_16_1_00003_arg_a, F
021F  09FD  	COMF __div_16_1_00003_arg_a+D'1', F
0220  0AFC  	INCF __div_16_1_00003_arg_a, F
0221  1903  	BTFSC STATUS,Z
0222  0AFD  	INCF __div_16_1_00003_arg_a+D'1', F
0223  0AF9  	INCF CompTempVar2213, F
0224        label40
0224  30E8  	MOVLW 0xE8
0225  1683  	BSF STATUS, RP0
0226  00A0  	MOVWF __div_16_1_00003_arg_b
0227  3003  	MOVLW 0x03
0228  00A1  	MOVWF __div_16_1_00003_arg_b+D'1'
0229  205E  	CALL __div_16_1_00003
022A  0825  	MOVF CompTempVarRet214, W
022B  1283  	BCF STATUS, RP0
022C  00FE  	MOVWF CompTempVar2212
022D  1C79  	BTFSS CompTempVar2213,0
022E  2A31  	GOTO	label41
022F  09FE  	COMF CompTempVar2212, F
0230  0AFE  	INCF CompTempVar2212, F
0231        label41
0231  087E  	MOVF CompTempVar2212, W
0232  00F8  	MOVWF FCD_LCDDis_00054_1_tmp_byte
0233  0878  	MOVF FCD_LCDDis_00054_1_tmp_byte, W
0234  3E30  	ADDLW 0x30
0235  1683  	BSF STATUS, RP0
0236  00AE  	MOVWF FCD_LCDDis_00056_arg_in
0237  3010  	MOVLW 0x10
0238  00AF  	MOVWF FCD_LCDDis_00056_arg_mask
0239  208D  	CALL FCD_LCDDis_00056
023A        label42
023A  1283  	BCF STATUS, RP0
023B  0878  	MOVF FCD_LCDDis_00054_1_tmp_byte, W
023C  3C00  	SUBLW 0x00
023D  1803  	BTFSC STATUS,C
023E  2A47  	GOTO	label43
023F  30E8  	MOVLW 0xE8
0240  02F6  	SUBWF FCD_LCDDis_00054_1_tmp_int, F
0241  3003  	MOVLW 0x03
0242  1C03  	BTFSS STATUS,C
0243  3004  	MOVLW 0x04
0244  02F7  	SUBWF FCD_LCDDis_00054_1_tmp_int+D'1', F
0245  03F8  	DECF FCD_LCDDis_00054_1_tmp_byte, F
0246  2A3A  	GOTO	label42
0247        label43
0247  0875  	MOVF FCD_LCDDis_00054_arg_Number+D'1', W
0248  3A80  	XORLW 0x80
0249  00F9  	MOVWF CompTempVar2216
024A  3080  	MOVLW 0x80
024B  0279  	SUBWF CompTempVar2216, W
024C  1D03  	BTFSS STATUS,Z
024D  2A50  	GOTO	label44
024E  3064  	MOVLW 0x64
024F  0274  	SUBWF FCD_LCDDis_00054_arg_Number, W
0250        label44
0250  1C03  	BTFSS STATUS,C
0251  2A80  	GOTO	label48
0252  01F9  	CLRF CompTempVar2218
0253  0876  	MOVF FCD_LCDDis_00054_1_tmp_int, W
0254  00FC  	MOVWF __div_16_1_00003_arg_a
0255  0877  	MOVF FCD_LCDDis_00054_1_tmp_int+D'1', W
0256  00FD  	MOVWF __div_16_1_00003_arg_a+D'1'
0257  1FF7  	BTFSS FCD_LCDDis_00054_1_tmp_int+D'1',7
0258  2A5F  	GOTO	label45
0259  09FC  	COMF __div_16_1_00003_arg_a, F
025A  09FD  	COMF __div_16_1_00003_arg_a+D'1', F
025B  0AFC  	INCF __div_16_1_00003_arg_a, F
025C  1903  	BTFSC STATUS,Z
025D  0AFD  	INCF __div_16_1_00003_arg_a+D'1', F
025E  0AF9  	INCF CompTempVar2218, F
025F        label45
025F  3064  	MOVLW 0x64
0260  1683  	BSF STATUS, RP0
0261  00A0  	MOVWF __div_16_1_00003_arg_b
0262  01A1  	CLRF __div_16_1_00003_arg_b+D'1'
0263  205E  	CALL __div_16_1_00003
0264  0825  	MOVF CompTempVarRet214, W
0265  1283  	BCF STATUS, RP0
0266  00FE  	MOVWF CompTempVar2217
0267  1C79  	BTFSS CompTempVar2218,0
0268  2A6B  	GOTO	label46
0269  09FE  	COMF CompTempVar2217, F
026A  0AFE  	INCF CompTempVar2217, F
026B        label46
026B  087E  	MOVF CompTempVar2217, W
026C  00F8  	MOVWF FCD_LCDDis_00054_1_tmp_byte
026D  0878  	MOVF FCD_LCDDis_00054_1_tmp_byte, W
026E  3E30  	ADDLW 0x30
026F  1683  	BSF STATUS, RP0
0270  00AE  	MOVWF FCD_LCDDis_00056_arg_in
0271  3010  	MOVLW 0x10
0272  00AF  	MOVWF FCD_LCDDis_00056_arg_mask
0273  208D  	CALL FCD_LCDDis_00056
0274        label47
0274  1283  	BCF STATUS, RP0
0275  0878  	MOVF FCD_LCDDis_00054_1_tmp_byte, W
0276  3C00  	SUBLW 0x00
0277  1803  	BTFSC STATUS,C
0278  2A80  	GOTO	label48
0279  3064  	MOVLW 0x64
027A  02F6  	SUBWF FCD_LCDDis_00054_1_tmp_int, F
027B  08F7  	MOVF FCD_LCDDis_00054_1_tmp_int+D'1', F
027C  1C03  	BTFSS STATUS,C
027D  03F7  	DECF FCD_LCDDis_00054_1_tmp_int+D'1', F
027E  03F8  	DECF FCD_LCDDis_00054_1_tmp_byte, F
027F  2A74  	GOTO	label47
0280        label48
0280  0875  	MOVF FCD_LCDDis_00054_arg_Number+D'1', W
0281  3A80  	XORLW 0x80
0282  00F9  	MOVWF CompTempVar2221
0283  3080  	MOVLW 0x80
0284  0279  	SUBWF CompTempVar2221, W
0285  1D03  	BTFSS STATUS,Z
0286  2A89  	GOTO	label49
0287  300A  	MOVLW 0x0A
0288  0274  	SUBWF FCD_LCDDis_00054_arg_Number, W
0289        label49
0289  1C03  	BTFSS STATUS,C
028A  2AB9  	GOTO	label53
028B  01F9  	CLRF CompTempVar2223
028C  0876  	MOVF FCD_LCDDis_00054_1_tmp_int, W
028D  00FC  	MOVWF __div_16_1_00003_arg_a
028E  0877  	MOVF FCD_LCDDis_00054_1_tmp_int+D'1', W
028F  00FD  	MOVWF __div_16_1_00003_arg_a+D'1'
0290  1FF7  	BTFSS FCD_LCDDis_00054_1_tmp_int+D'1',7
0291  2A98  	GOTO	label50
0292  09FC  	COMF __div_16_1_00003_arg_a, F
0293  09FD  	COMF __div_16_1_00003_arg_a+D'1', F
0294  0AFC  	INCF __div_16_1_00003_arg_a, F
0295  1903  	BTFSC STATUS,Z
0296  0AFD  	INCF __div_16_1_00003_arg_a+D'1', F
0297  0AF9  	INCF CompTempVar2223, F
0298        label50
0298  300A  	MOVLW 0x0A
0299  1683  	BSF STATUS, RP0
029A  00A0  	MOVWF __div_16_1_00003_arg_b
029B  01A1  	CLRF __div_16_1_00003_arg_b+D'1'
029C  205E  	CALL __div_16_1_00003
029D  0825  	MOVF CompTempVarRet214, W
029E  1283  	BCF STATUS, RP0
029F  00FE  	MOVWF CompTempVar2222
02A0  1C79  	BTFSS CompTempVar2223,0
02A1  2AA4  	GOTO	label51
02A2  09FE  	COMF CompTempVar2222, F
02A3  0AFE  	INCF CompTempVar2222, F
02A4        label51
02A4  087E  	MOVF CompTempVar2222, W
02A5  00F8  	MOVWF FCD_LCDDis_00054_1_tmp_byte
02A6  0878  	MOVF FCD_LCDDis_00054_1_tmp_byte, W
02A7  3E30  	ADDLW 0x30
02A8  1683  	BSF STATUS, RP0
02A9  00AE  	MOVWF FCD_LCDDis_00056_arg_in
02AA  3010  	MOVLW 0x10
02AB  00AF  	MOVWF FCD_LCDDis_00056_arg_mask
02AC  208D  	CALL FCD_LCDDis_00056
02AD        label52
02AD  1283  	BCF STATUS, RP0
02AE  0878  	MOVF FCD_LCDDis_00054_1_tmp_byte, W
02AF  3C00  	SUBLW 0x00
02B0  1803  	BTFSC STATUS,C
02B1  2AB9  	GOTO	label53
02B2  300A  	MOVLW 0x0A
02B3  02F6  	SUBWF FCD_LCDDis_00054_1_tmp_int, F
02B4  08F7  	MOVF FCD_LCDDis_00054_1_tmp_int+D'1', F
02B5  1C03  	BTFSS STATUS,C
02B6  03F7  	DECF FCD_LCDDis_00054_1_tmp_int+D'1', F
02B7  03F8  	DECF FCD_LCDDis_00054_1_tmp_byte, F
02B8  2AAD  	GOTO	label52
02B9        label53
02B9  0876  	MOVF FCD_LCDDis_00054_1_tmp_int, W
02BA  3E30  	ADDLW 0x30
02BB  1683  	BSF STATUS, RP0
02BC  00AE  	MOVWF FCD_LCDDis_00056_arg_in
02BD  3010  	MOVLW 0x10
02BE  00AF  	MOVWF FCD_LCDDis_00056_arg_mask
02BF  208D  	CALL FCD_LCDDis_00056
02C0  0008  	RETURN
02C1        ; } FCD_LCDDisplay0_PrintNumber function end

	ORG 0x000002C1
02C1        FCD_LCDDis_00053
02C1        ; { FCD_LCDDisplay0_PrintString ; function begin
02C1  1683  	BSF STATUS, RP0
02C2  01AD  	CLRF FCD_LCDDis_00053_1_idx
02C3  01AD  	CLRF FCD_LCDDis_00053_1_idx
02C4        label54
02C4  1283  	BCF STATUS, RP0
02C5  087E  	MOVF FCD_LCDDis_00053_arg_MSZ_String, W
02C6  1683  	BSF STATUS, RP0
02C7  022D  	SUBWF FCD_LCDDis_00053_1_idx, W
02C8  1803  	BTFSC STATUS,C
02C9  0008  	RETURN
02CA  1383  	BCF STATUS,IRP
02CB  1283  	BCF STATUS, RP0
02CC  1875  	BTFSC FCD_LCDDis_00053_arg_String+D'1',0
02CD  1783  	BSF STATUS,IRP
02CE  0874  	MOVF FCD_LCDDis_00053_arg_String, W
02CF  1683  	BSF STATUS, RP0
02D0  072D  	ADDWF FCD_LCDDis_00053_1_idx, W
02D1  0084  	MOVWF FSR
02D2  0880  	MOVF INDF, F
02D3  1903  	BTFSC STATUS,Z
02D4  0008  	RETURN
02D5  1383  	BCF STATUS,IRP
02D6  1283  	BCF STATUS, RP0
02D7  1875  	BTFSC FCD_LCDDis_00053_arg_String+D'1',0
02D8  1783  	BSF STATUS,IRP
02D9  0874  	MOVF FCD_LCDDis_00053_arg_String, W
02DA  1683  	BSF STATUS, RP0
02DB  072D  	ADDWF FCD_LCDDis_00053_1_idx, W
02DC  0084  	MOVWF FSR
02DD  0800  	MOVF INDF, W
02DE  00AE  	MOVWF FCD_LCDDis_00056_arg_in
02DF  3010  	MOVLW 0x10
02E0  00AF  	MOVWF FCD_LCDDis_00056_arg_mask
02E1  208D  	CALL FCD_LCDDis_00056
02E2  0AAD  	INCF FCD_LCDDis_00053_1_idx, F
02E3  2AC4  	GOTO	label54
02E4        ; } FCD_LCDDisplay0_PrintString function end

	ORG 0x000002E4
02E4        FCD_LCDDis_00052
02E4        ; { FCD_LCDDisplay0_Cursor ; function begin
02E4  08F6  	MOVF FCD_LCDDis_00052_arg_y, F
02E5  1D03  	BTFSS STATUS,Z
02E6  2AEA  	GOTO	label55
02E7  3080  	MOVLW 0x80
02E8  00F6  	MOVWF FCD_LCDDis_00052_arg_y
02E9  2AF9  	GOTO	label58
02EA        label55
02EA  0376  	DECF FCD_LCDDis_00052_arg_y, W
02EB  1D03  	BTFSS STATUS,Z
02EC  2AF0  	GOTO	label56
02ED  30C0  	MOVLW 0xC0
02EE  00F6  	MOVWF FCD_LCDDis_00052_arg_y
02EF  2AF9  	GOTO	label58
02F0        label56
02F0  0876  	MOVF FCD_LCDDis_00052_arg_y, W
02F1  3A02  	XORLW 0x02
02F2  1D03  	BTFSS STATUS,Z
02F3  2AF7  	GOTO	label57
02F4  3090  	MOVLW 0x90
02F5  00F6  	MOVWF FCD_LCDDis_00052_arg_y
02F6  2AF9  	GOTO	label58
02F7        label57
02F7  30D0  	MOVLW 0xD0
02F8  00F6  	MOVWF FCD_LCDDis_00052_arg_y
02F9        label58
02F9  0875  	MOVF FCD_LCDDis_00052_arg_x, W
02FA  0776  	ADDWF FCD_LCDDis_00052_arg_y, W
02FB  1683  	BSF STATUS, RP0
02FC  00AE  	MOVWF FCD_LCDDis_00056_arg_in
02FD  01AF  	CLRF FCD_LCDDis_00056_arg_mask
02FE  208D  	CALL FCD_LCDDis_00056
02FF  3002  	MOVLW 0x02
0300  1283  	BCF STATUS, RP0
0301  00F7  	MOVWF Wdt_Delay__0003E_arg_delay
0302  207F  	CALL Wdt_Delay__0003E
0303  0008  	RETURN
0304        ; } FCD_LCDDisplay0_Cursor function end

	ORG 0x00000304
0304        __mul_8u_8_00006
0304        ; { __mul_8u_8u ; function begin
0304  01F4  	CLRF __mul_8u_8_00006_1_i
0305  01F7  	CLRF CompTempVarRet452
0306  01F8  	CLRF CompTempVarRet452+D'1'
0307  0872  	MOVF __mul_8u_8_00006_arg_a, W
0308  00F5  	MOVWF __mul_8u_8_00006_1_t
0309  01F6  	CLRF __mul_8u_8_00006_1_t+D'1'
030A        label59
030A  19F4  	BTFSC __mul_8u_8_00006_1_i,3
030B  0008  	RETURN
030C  1C73  	BTFSS __mul_8u_8_00006_arg_b,0
030D  2B14  	GOTO	label60
030E  0875  	MOVF __mul_8u_8_00006_1_t, W
030F  07F7  	ADDWF CompTempVarRet452, F
0310  1803  	BTFSC gbl_status,0
0311  0AF8  	INCF CompTempVarRet452+D'1', F
0312  0876  	MOVF __mul_8u_8_00006_1_t+D'1', W
0313  07F8  	ADDWF CompTempVarRet452+D'1', F
0314        label60
0314  0CF3  	RRF __mul_8u_8_00006_arg_b, F
0315  1003  	BCF gbl_status,0
0316  0DF5  	RLF __mul_8u_8_00006_1_t, F
0317  0DF6  	RLF __mul_8u_8_00006_1_t+D'1', F
0318  0AF4  	INCF __mul_8u_8_00006_1_i, F
0319  2B0A  	GOTO	label59
031A        ; } __mul_8u_8u function end

	ORG 0x0000031A
031A        FC_CAL_UAR_00078
031A        ; { FC_CAL_UART_Init_1 ; function begin
031A  1683  	BSF STATUS, RP0
031B  1303  	BCF STATUS, RP1
031C  1518  	BSF gbl_txsta,2
031D  3081  	MOVLW 0x81
031E  0099  	MOVWF gbl_spbrg
031F  1283  	BCF STATUS, RP0
0320  0198  	CLRF gbl_rcsta
0321  1798  	BSF gbl_rcsta,7
0322  1683  	BSF STATUS, RP0
0323  1698  	BSF gbl_txsta,5
0324  1283  	BCF STATUS, RP0
0325  1618  	BSF gbl_rcsta,4
0326  1683  	BSF STATUS, RP0
0327  128C  	BCF gbl_pie1,5
0328  0008  	RETURN
0329        ; } FC_CAL_UART_Init_1 function end

	ORG 0x00000329
0329        FCM_displa_00051
0329        ; { FCM_display ; function begin
0329  3002  	MOVLW 0x02
032A  1283  	BCF STATUS, RP0
032B  1303  	BCF STATUS, RP1
032C  00F5  	MOVWF FCD_LCDDis_00052_arg_x
032D  01F6  	CLRF FCD_LCDDis_00052_arg_y
032E  22E4  	CALL FCD_LCDDis_00052
032F  3020  	MOVLW 0x20
0330  1683  	BSF STATUS, RP0
0331  00A5  	MOVWF CompTempVar2188+D'5'
0332  3021  	MOVLW 0x21
0333  00AB  	MOVWF CompTempVar2188+D'11'
0334  3044  	MOVLW 0x44
0335  00AA  	MOVWF CompTempVar2188+D'10'
0336  3045  	MOVLW 0x45
0337  00A1  	MOVWF CompTempVar2188+D'1'
0338  3048  	MOVLW 0x48
0339  00A0  	MOVWF CompTempVar2188
033A  304C  	MOVLW 0x4C
033B  00A2  	MOVWF CompTempVar2188+D'2'
033C  00A3  	MOVWF CompTempVar2188+D'3'
033D  00A9  	MOVWF CompTempVar2188+D'9'
033E  304F  	MOVLW 0x4F
033F  00A4  	MOVWF CompTempVar2188+D'4'
0340  00A7  	MOVWF CompTempVar2188+D'7'
0341  3052  	MOVLW 0x52
0342  00A8  	MOVWF CompTempVar2188+D'8'
0343  3057  	MOVLW 0x57
0344  00A6  	MOVWF CompTempVar2188+D'6'
0345  01AC  	CLRF CompTempVar2188+D'12'
0346  3000  	MOVLW HIGH(CompTempVar2188+D'0')
0347  1283  	BCF STATUS, RP0
0348  00F5  	MOVWF FCD_LCDDis_00053_arg_String+D'1'
0349  30A0  	MOVLW LOW(CompTempVar2188+D'0')
034A  00F4  	MOVWF FCD_LCDDis_00053_arg_String
034B  300C  	MOVLW 0x0C
034C  00FE  	MOVWF FCD_LCDDis_00053_arg_MSZ_String
034D  22C1  	CALL FCD_LCDDis_00053
034E  1283  	BCF STATUS, RP0
034F  01F5  	CLRF FCD_LCDDis_00052_arg_x
0350  3001  	MOVLW 0x01
0351  00F6  	MOVWF FCD_LCDDis_00052_arg_y
0352  22E4  	CALL FCD_LCDDis_00052
0353  01F5  	CLRF FCD_LCDDis_00054_arg_Number+D'1'
0354  01F4  	CLRF FCD_LCDDis_00054_arg_Number
0355  18ED  	BTFSC gbl_FCV_B_SW0,1
0356  0AF4  	INCF FCD_LCDDis_00054_arg_Number, F
0357  21C0  	CALL FCD_LCDDis_00054
0358  1283  	BCF STATUS, RP0
0359  01F5  	CLRF FCD_LCDDis_00052_arg_x
035A  3002  	MOVLW 0x02
035B  00F6  	MOVWF FCD_LCDDis_00052_arg_y
035C  22E4  	CALL FCD_LCDDis_00052
035D  01F5  	CLRF FCD_LCDDis_00054_arg_Number+D'1'
035E  01F4  	CLRF FCD_LCDDis_00054_arg_Number
035F  196D  	BTFSC gbl_FCV_B_SW1,2
0360  0AF4  	INCF FCD_LCDDis_00054_arg_Number, F
0361  21C0  	CALL FCD_LCDDis_00054
0362  1283  	BCF STATUS, RP0
0363  01F5  	CLRF FCD_LCDDis_00052_arg_x
0364  3003  	MOVLW 0x03
0365  00F6  	MOVWF FCD_LCDDis_00052_arg_y
0366  22E4  	CALL FCD_LCDDis_00052
0367  086C  	MOVF gbl_FCV_B_SW2, W
0368  00F4  	MOVWF FCD_LCDDis_00054_arg_Number
0369  01F5  	CLRF FCD_LCDDis_00054_arg_Number+D'1'
036A  21C0  	CALL FCD_LCDDis_00054
036B  3003  	MOVLW 0x03
036C  1283  	BCF STATUS, RP0
036D  00F5  	MOVWF FCD_LCDDis_00052_arg_x
036E  3001  	MOVLW 0x01
036F  00F6  	MOVWF FCD_LCDDis_00052_arg_y
0370  22E4  	CALL FCD_LCDDis_00052
0371  1C6D  	BTFSS gbl_FCV_FLAG0,0
0372  2B9B  	GOTO	label61
0373  304F  	MOVLW 0x4F
0374  00F6  	MOVWF CompTempVar2190
0375  304E  	MOVLW 0x4E
0376  00F7  	MOVWF CompTempVar2190+D'1'
0377  01F8  	CLRF CompTempVar2190+D'2'
0378  3000  	MOVLW HIGH(CompTempVar2190+D'0')
0379  00F5  	MOVWF FCD_LCDDis_00053_arg_String+D'1'
037A  3076  	MOVLW LOW(CompTempVar2190+D'0')
037B  00F4  	MOVWF FCD_LCDDis_00053_arg_String
037C  3002  	MOVLW 0x02
037D  00FE  	MOVWF FCD_LCDDis_00053_arg_MSZ_String
037E  22C1  	CALL FCD_LCDDis_00053
037F  1283  	BCF STATUS, RP0
0380  086E  	MOVF gbl_FCV_ANALOG0, W
0381  00F2  	MOVWF FCD_PWM0_S_00055_arg_nDuty
0382  21BC  	CALL FCD_PWM0_S_00055
0383  3003  	MOVLW 0x03
0384  00F5  	MOVWF FCD_LCDDis_00052_arg_x
0385  3002  	MOVLW 0x02
0386  00F6  	MOVWF FCD_LCDDis_00052_arg_y
0387  22E4  	CALL FCD_LCDDis_00052
0388  086F  	MOVF gbl_FCV_BRIGHTNESS, W
0389  00F4  	MOVWF FCD_LCDDis_00054_arg_Number
038A  01F5  	CLRF FCD_LCDDis_00054_arg_Number+D'1'
038B  21C0  	CALL FCD_LCDDis_00054
038C  3025  	MOVLW 0x25
038D  1283  	BCF STATUS, RP0
038E  00F6  	MOVWF CompTempVar2192
038F  3020  	MOVLW 0x20
0390  00F7  	MOVWF CompTempVar2192+D'1'
0391  00F8  	MOVWF CompTempVar2192+D'2'
0392  01F9  	CLRF CompTempVar2192+D'3'
0393  3000  	MOVLW HIGH(CompTempVar2192+D'0')
0394  00F5  	MOVWF FCD_LCDDis_00053_arg_String+D'1'
0395  3076  	MOVLW LOW(CompTempVar2192+D'0')
0396  00F4  	MOVWF FCD_LCDDis_00053_arg_String
0397  3003  	MOVLW 0x03
0398  00FE  	MOVWF FCD_LCDDis_00053_arg_MSZ_String
0399  22C1  	CALL FCD_LCDDis_00053
039A  2BAB  	GOTO	label62
039B        label61
039B  304F  	MOVLW 0x4F
039C  00F6  	MOVWF CompTempVar2194
039D  3046  	MOVLW 0x46
039E  00F7  	MOVWF CompTempVar2194+D'1'
039F  00F8  	MOVWF CompTempVar2194+D'2'
03A0  01F9  	CLRF CompTempVar2194+D'3'
03A1  3000  	MOVLW HIGH(CompTempVar2194+D'0')
03A2  00F5  	MOVWF FCD_LCDDis_00053_arg_String+D'1'
03A3  3076  	MOVLW LOW(CompTempVar2194+D'0')
03A4  00F4  	MOVWF FCD_LCDDis_00053_arg_String
03A5  3003  	MOVLW 0x03
03A6  00FE  	MOVWF FCD_LCDDis_00053_arg_MSZ_String
03A7  22C1  	CALL FCD_LCDDis_00053
03A8  1283  	BCF STATUS, RP0
03A9  01F2  	CLRF FCD_PWM0_S_00055_arg_nDuty
03AA  21BC  	CALL FCD_PWM0_S_00055
03AB        label62
03AB  300A  	MOVLW 0x0A
03AC  1283  	BCF STATUS, RP0
03AD  026E  	SUBWF gbl_FCV_ANALOG0, W
03AE  1803  	BTFSC STATUS,C
03AF  2BC6  	GOTO	label63
03B0  300D  	MOVLW 0x0D
03B1  00F5  	MOVWF FCD_LCDDis_00052_arg_x
03B2  3003  	MOVLW 0x03
03B3  00F6  	MOVWF FCD_LCDDis_00052_arg_y
03B4  22E4  	CALL FCD_LCDDis_00052
03B5  3020  	MOVLW 0x20
03B6  00F6  	MOVWF CompTempVar2196
03B7  00F7  	MOVWF CompTempVar2196+D'1'
03B8  01F8  	CLRF CompTempVar2196+D'2'
03B9  3000  	MOVLW HIGH(CompTempVar2196+D'0')
03BA  00F5  	MOVWF FCD_LCDDis_00053_arg_String+D'1'
03BB  3076  	MOVLW LOW(CompTempVar2196+D'0')
03BC  00F4  	MOVWF FCD_LCDDis_00053_arg_String
03BD  3002  	MOVLW 0x02
03BE  00FE  	MOVWF FCD_LCDDis_00053_arg_MSZ_String
03BF  22C1  	CALL FCD_LCDDis_00053
03C0  1283  	BCF STATUS, RP0
03C1  086E  	MOVF gbl_FCV_ANALOG0, W
03C2  00F4  	MOVWF FCD_LCDDis_00054_arg_Number
03C3  01F5  	CLRF FCD_LCDDis_00054_arg_Number+D'1'
03C4  21C0  	CALL FCD_LCDDis_00054
03C5  0008  	RETURN
03C6        label63
03C6  01F3  	CLRF CompTempVar2199
03C7  3064  	MOVLW 0x64
03C8  026E  	SUBWF gbl_FCV_ANALOG0, W
03C9  1C03  	BTFSS STATUS,C
03CA  0AF3  	INCF CompTempVar2199, F
03CB  01F2  	CLRF CompTempVar2198
03CC  086E  	MOVF gbl_FCV_ANALOG0, W
03CD  3C09  	SUBLW 0x09
03CE  1C03  	BTFSS STATUS,C
03CF  0AF2  	INCF CompTempVar2198, F
03D0  0872  	MOVF CompTempVar2198, W
03D1  0573  	ANDWF CompTempVar2199, W
03D2  1903  	BTFSC STATUS,Z
03D3  2BE9  	GOTO	label64
03D4  300D  	MOVLW 0x0D
03D5  00F5  	MOVWF FCD_LCDDis_00052_arg_x
03D6  3003  	MOVLW 0x03
03D7  00F6  	MOVWF FCD_LCDDis_00052_arg_y
03D8  22E4  	CALL FCD_LCDDis_00052
03D9  3020  	MOVLW 0x20
03DA  00F6  	MOVWF CompTempVar2200
03DB  01F7  	CLRF CompTempVar2200+D'1'
03DC  3000  	MOVLW HIGH(CompTempVar2200+D'0')
03DD  00F5  	MOVWF FCD_LCDDis_00053_arg_String+D'1'
03DE  3076  	MOVLW LOW(CompTempVar2200+D'0')
03DF  00F4  	MOVWF FCD_LCDDis_00053_arg_String
03E0  3001  	MOVLW 0x01
03E1  00FE  	MOVWF FCD_LCDDis_00053_arg_MSZ_String
03E2  22C1  	CALL FCD_LCDDis_00053
03E3  1283  	BCF STATUS, RP0
03E4  086E  	MOVF gbl_FCV_ANALOG0, W
03E5  00F4  	MOVWF FCD_LCDDis_00054_arg_Number
03E6  01F5  	CLRF FCD_LCDDis_00054_arg_Number+D'1'
03E7  21C0  	CALL FCD_LCDDis_00054
03E8  0008  	RETURN
03E9        label64
03E9  300D  	MOVLW 0x0D
03EA  00F5  	MOVWF FCD_LCDDis_00052_arg_x
03EB  3003  	MOVLW 0x03
03EC  00F6  	MOVWF FCD_LCDDis_00052_arg_y
03ED  22E4  	CALL FCD_LCDDis_00052
03EE  086E  	MOVF gbl_FCV_ANALOG0, W
03EF  00F4  	MOVWF FCD_LCDDis_00054_arg_Number
03F0  01F5  	CLRF FCD_LCDDis_00054_arg_Number+D'1'
03F1  21C0  	CALL FCD_LCDDis_00054
03F2  0008  	RETURN
03F3        ; } FCM_display function end

	ORG 0x000003F3
03F3        FCI_TOSTRI_00049
03F3        ; { FCI_TOSTRING ; function begin
03F3  08F6  	MOVF FCI_TOSTRI_00049_arg_iDst_len, F
03F4  1D03  	BTFSS STATUS,Z
03F5  2BF8  	GOTO	label65
03F6  01FB  	CLRF CompTempVarRet2009
03F7  0008  	RETURN
03F8        label65
03F8  3010  	MOVLW 0x10
03F9  00F8  	MOVWF FCI_TOSTRI_00049_1_top
03FA  3027  	MOVLW 0x27
03FB  00F9  	MOVWF FCI_TOSTRI_00049_1_top+D'1'
03FC  01FA  	CLRF FCI_TOSTRI_00049_1_idx
03FD  1FF3  	BTFSS FCI_TOSTRI_00049_arg_iSrc1+D'1',7
03FE  2C0F  	GOTO	label66
03FF  1383  	BCF STATUS,IRP
0400  1875  	BTFSC FCI_TOSTRI_00049_arg_sDst+D'1',0
0401  1783  	BSF STATUS,IRP
0402  0874  	MOVF FCI_TOSTRI_00049_arg_sDst, W
0403  0084  	MOVWF FSR
0404  01FC  	CLRF CompTempVar2011
0405  087C  	MOVF CompTempVar2011, W
0406  0784  	ADDWF FSR, F
0407  302D  	MOVLW 0x2D
0408  0080  	MOVWF INDF
0409  0AFA  	INCF FCI_TOSTRI_00049_1_idx, F
040A  09F2  	COMF FCI_TOSTRI_00049_arg_iSrc1, F
040B  09F3  	COMF FCI_TOSTRI_00049_arg_iSrc1+D'1', F
040C  0AF2  	INCF FCI_TOSTRI_00049_arg_iSrc1, F
040D  1903  	BTFSC STATUS,Z
040E  0AF3  	INCF FCI_TOSTRI_00049_arg_iSrc1+D'1', F
040F        label66
040F  01F7  	CLRF FCI_TOSTRI_00049_1_tmp1
0410  08F2  	MOVF FCI_TOSTRI_00049_arg_iSrc1, F
0411  1D03  	BTFSS STATUS,Z
0412  2C1A  	GOTO	label67
0413  08F3  	MOVF FCI_TOSTRI_00049_arg_iSrc1+D'1', F
0414  1D03  	BTFSS STATUS,Z
0415  2C1A  	GOTO	label67
0416  3001  	MOVLW 0x01
0417  00F7  	MOVWF FCI_TOSTRI_00049_1_tmp1
0418  00F8  	MOVWF FCI_TOSTRI_00049_1_top
0419  01F9  	CLRF FCI_TOSTRI_00049_1_top+D'1'
041A        label67
041A  0876  	MOVF FCI_TOSTRI_00049_arg_iDst_len, W
041B  027A  	SUBWF FCI_TOSTRI_00049_1_idx, W
041C  1803  	BTFSC STATUS,C
041D  2C79  	GOTO	label72
041E  0878  	MOVF FCI_TOSTRI_00049_1_top, W
041F  3C00  	SUBLW 0x00
0420  1803  	BTFSC STATUS,C
0421  0879  	MOVF FCI_TOSTRI_00049_1_top+D'1', W
0422  1903  	BTFSC STATUS,Z
0423  2C79  	GOTO	label72
0424  0879  	MOVF FCI_TOSTRI_00049_1_top+D'1', W
0425  0273  	SUBWF FCI_TOSTRI_00049_arg_iSrc1+D'1', W
0426  1D03  	BTFSS STATUS,Z
0427  2C2A  	GOTO	label68
0428  0878  	MOVF FCI_TOSTRI_00049_1_top, W
0429  0272  	SUBWF FCI_TOSTRI_00049_arg_iSrc1, W
042A        label68
042A  1803  	BTFSC STATUS,C
042B  2C2F  	GOTO	label69
042C  08F7  	MOVF FCI_TOSTRI_00049_1_tmp1, F
042D  1903  	BTFSC STATUS,Z
042E  2C68  	GOTO	label71
042F        label69
042F  0872  	MOVF FCI_TOSTRI_00049_arg_iSrc1, W
0430  00FC  	MOVWF __div_16_1_00003_arg_a
0431  0873  	MOVF FCI_TOSTRI_00049_arg_iSrc1+D'1', W
0432  00FD  	MOVWF __div_16_1_00003_arg_a+D'1'
0433  0878  	MOVF FCI_TOSTRI_00049_1_top, W
0434  1683  	BSF STATUS, RP0
0435  00A0  	MOVWF __div_16_1_00003_arg_b
0436  1283  	BCF STATUS, RP0
0437  0879  	MOVF FCI_TOSTRI_00049_1_top+D'1', W
0438  1683  	BSF STATUS, RP0
0439  00A1  	MOVWF __div_16_1_00003_arg_b+D'1'
043A  205E  	CALL __div_16_1_00003
043B  0825  	MOVF CompTempVarRet214, W
043C  1283  	BCF STATUS, RP0
043D  00F7  	MOVWF FCI_TOSTRI_00049_1_tmp1
043E  0877  	MOVF FCI_TOSTRI_00049_1_tmp1, W
043F  3E30  	ADDLW 0x30
0440  00FC  	MOVWF CompTempVar2015
0441  1383  	BCF STATUS,IRP
0442  1875  	BTFSC FCI_TOSTRI_00049_arg_sDst+D'1',0
0443  1783  	BSF STATUS,IRP
0444  0874  	MOVF FCI_TOSTRI_00049_arg_sDst, W
0445  077A  	ADDWF FCI_TOSTRI_00049_1_idx, W
0446  0084  	MOVWF FSR
0447  087C  	MOVF CompTempVar2015, W
0448  0080  	MOVWF INDF
0449  0AFA  	INCF FCI_TOSTRI_00049_1_idx, F
044A  0877  	MOVF FCI_TOSTRI_00049_1_tmp1, W
044B  00FC  	MOVWF __mul_16u__0000C_arg_a
044C  01FD  	CLRF __mul_16u__0000C_arg_a+D'1'
044D  0878  	MOVF FCI_TOSTRI_00049_1_top, W
044E  1683  	BSF STATUS, RP0
044F  00A0  	MOVWF __mul_16u__0000C_arg_b
0450  1283  	BCF STATUS, RP0
0451  0879  	MOVF FCI_TOSTRI_00049_1_top+D'1', W
0452  1683  	BSF STATUS, RP0
0453  00A1  	MOVWF __mul_16u__0000C_arg_b+D'1'
0454  20F8  	CALL __mul_16u__0000C
0455  0826  	MOVF CompTempVarRet455, W
0456  1283  	BCF STATUS, RP0
0457  00FE  	MOVWF CompTempVar2016
0458  1683  	BSF STATUS, RP0
0459  0827  	MOVF CompTempVarRet455+D'1', W
045A  00A2  	MOVWF CompTempVar2017
045B  1283  	BCF STATUS, RP0
045C  087E  	MOVF CompTempVar2016, W
045D  02F2  	SUBWF FCI_TOSTRI_00049_arg_iSrc1, F
045E  1683  	BSF STATUS, RP0
045F  0822  	MOVF CompTempVar2017, W
0460  1803  	BTFSC STATUS,C
0461  2C64  	GOTO	label70
0462  1283  	BCF STATUS, RP0
0463  03F3  	DECF FCI_TOSTRI_00049_arg_iSrc1+D'1', F
0464        label70
0464  1283  	BCF STATUS, RP0
0465  02F3  	SUBWF FCI_TOSTRI_00049_arg_iSrc1+D'1', F
0466  3001  	MOVLW 0x01
0467  00F7  	MOVWF FCI_TOSTRI_00049_1_tmp1
0468        label71
0468  0878  	MOVF FCI_TOSTRI_00049_1_top, W
0469  00FC  	MOVWF __div_16_1_00003_arg_a
046A  0879  	MOVF FCI_TOSTRI_00049_1_top+D'1', W
046B  00FD  	MOVWF __div_16_1_00003_arg_a+D'1'
046C  300A  	MOVLW 0x0A
046D  1683  	BSF STATUS, RP0
046E  00A0  	MOVWF __div_16_1_00003_arg_b
046F  01A1  	CLRF __div_16_1_00003_arg_b+D'1'
0470  205E  	CALL __div_16_1_00003
0471  0825  	MOVF CompTempVarRet214, W
0472  1283  	BCF STATUS, RP0
0473  00F8  	MOVWF FCI_TOSTRI_00049_1_top
0474  1683  	BSF STATUS, RP0
0475  0826  	MOVF CompTempVarRet214+D'1', W
0476  1283  	BCF STATUS, RP0
0477  00F9  	MOVWF FCI_TOSTRI_00049_1_top+D'1'
0478  2C1A  	GOTO	label67
0479        label72
0479  0876  	MOVF FCI_TOSTRI_00049_arg_iDst_len, W
047A  027A  	SUBWF FCI_TOSTRI_00049_1_idx, W
047B  1803  	BTFSC STATUS,C
047C  2C85  	GOTO	label73
047D  1383  	BCF STATUS,IRP
047E  1875  	BTFSC FCI_TOSTRI_00049_arg_sDst+D'1',0
047F  1783  	BSF STATUS,IRP
0480  0874  	MOVF FCI_TOSTRI_00049_arg_sDst, W
0481  077A  	ADDWF FCI_TOSTRI_00049_1_idx, W
0482  0084  	MOVWF FSR
0483  3000  	MOVLW 0x00
0484  0080  	MOVWF INDF
0485        label73
0485  087A  	MOVF FCI_TOSTRI_00049_1_idx, W
0486  00FB  	MOVWF CompTempVarRet2009
0487  0008  	RETURN
0488        ; } FCI_TOSTRING function end

	ORG 0x00000488
0488        FCD_RS2320_0007E
0488        ; { FCD_RS2320_SendRS232String ; function begin
0488  01F8  	CLRF FCD_RS2320_0007E_1_idx
0489        label74
0489  0877  	MOVF FCD_RS2320_0007E_arg_MSZ_String, W
048A  0278  	SUBWF FCD_RS2320_0007E_1_idx, W
048B  1803  	BTFSC STATUS,C
048C  0008  	RETURN
048D  1383  	BCF STATUS,IRP
048E  1873  	BTFSC FCD_RS2320_0007E_arg_String+D'1',0
048F  1783  	BSF STATUS,IRP
0490  0872  	MOVF FCD_RS2320_0007E_arg_String, W
0491  0778  	ADDWF FCD_RS2320_0007E_1_idx, W
0492  0084  	MOVWF FSR
0493  0880  	MOVF INDF, F
0494  1903  	BTFSC STATUS,Z
0495  0008  	RETURN
0496  1383  	BCF STATUS,IRP
0497  1873  	BTFSC FCD_RS2320_0007E_arg_String+D'1',0
0498  1783  	BSF STATUS,IRP
0499  0872  	MOVF FCD_RS2320_0007E_arg_String, W
049A  0778  	ADDWF FCD_RS2320_0007E_1_idx, W
049B  0084  	MOVWF FSR
049C  0800  	MOVF INDF, W
049D  00F9  	MOVWF FC_CAL_UAR_00079_arg_nChar
049E  01FA  	CLRF FC_CAL_UAR_00079_arg_nChar+D'1'
049F  2115  	CALL FC_CAL_UAR_00079
04A0  0AF8  	INCF FCD_RS2320_0007E_1_idx, F
04A1  2C89  	GOTO	label74
04A2        ; } FCD_RS2320_SendRS232String function end

	ORG 0x000004A2
04A2        FCD_PWM0_E_00073
04A2        ; { FCD_PWM0_Enable ; function begin
04A2  30FF  	MOVLW 0xFF
04A3  1283  	BCF STATUS, RP0
04A4  1303  	BCF STATUS, RP1
04A5  00F2  	MOVWF FC_CAL_PWM_00071_arg_period
04A6  3001  	MOVLW 0x01
04A7  00F3  	MOVWF FC_CAL_PWM_00071_arg_prescaler
04A8  01F4  	CLRF FC_CAL_PWM_00071_arg_prescaler+D'1'
04A9  213E  	CALL FC_CAL_PWM_00071
04AA  215E  	CALL FC_CAL_PWM_0006E
04AB  0008  	RETURN
04AC        ; } FCD_PWM0_Enable function end

	ORG 0x000004AC
04AC        FCD_LCDDis_0005D
04AC        ; { FCD_LCDDisplay0_ClearLine ; function begin
04AC  3010  	MOVLW 0x10
04AD  00F4  	MOVWF FCD_LCDDis_0005D_1_rowcount
04AE  01F5  	CLRF FCD_LCDDis_00052_arg_x
04AF  0872  	MOVF FCD_LCDDis_0005D_arg_Line, W
04B0  00F6  	MOVWF FCD_LCDDis_00052_arg_y
04B1  22E4  	CALL FCD_LCDDis_00052
04B2  01F3  	CLRF FCD_LCDDis_0005D_1_count
04B3        label75
04B3  0874  	MOVF FCD_LCDDis_0005D_1_rowcount, W
04B4  0273  	SUBWF FCD_LCDDis_0005D_1_count, W
04B5  1803  	BTFSC STATUS,C
04B6  2CC0  	GOTO	label76
04B7  3020  	MOVLW 0x20
04B8  1683  	BSF STATUS, RP0
04B9  00AE  	MOVWF FCD_LCDDis_00056_arg_in
04BA  3010  	MOVLW 0x10
04BB  00AF  	MOVWF FCD_LCDDis_00056_arg_mask
04BC  208D  	CALL FCD_LCDDis_00056
04BD  1283  	BCF STATUS, RP0
04BE  0AF3  	INCF FCD_LCDDis_0005D_1_count, F
04BF  2CB3  	GOTO	label75
04C0        label76
04C0  01F5  	CLRF FCD_LCDDis_00052_arg_x
04C1  0872  	MOVF FCD_LCDDis_0005D_arg_Line, W
04C2  00F6  	MOVWF FCD_LCDDis_00052_arg_y
04C3  22E4  	CALL FCD_LCDDis_00052
04C4  0008  	RETURN
04C5        ; } FCD_LCDDisplay0_ClearLine function end

	ORG 0x000004C5
04C5        FCD_LCDDis_00058
04C5        ; { FCD_LCDDisplay0_Clear ; function begin
04C5  3001  	MOVLW 0x01
04C6  1683  	BSF STATUS, RP0
04C7  1303  	BCF STATUS, RP1
04C8  00AE  	MOVWF FCD_LCDDis_00056_arg_in
04C9  01AF  	CLRF FCD_LCDDis_00056_arg_mask
04CA  208D  	CALL FCD_LCDDis_00056
04CB  3002  	MOVLW 0x02
04CC  1283  	BCF STATUS, RP0
04CD  00F7  	MOVWF Wdt_Delay__0003E_arg_delay
04CE  207F  	CALL Wdt_Delay__0003E
04CF  3002  	MOVLW 0x02
04D0  1683  	BSF STATUS, RP0
04D1  00AE  	MOVWF FCD_LCDDis_00056_arg_in
04D2  01AF  	CLRF FCD_LCDDis_00056_arg_mask
04D3  208D  	CALL FCD_LCDDis_00056
04D4  3002  	MOVLW 0x02
04D5  1283  	BCF STATUS, RP0
04D6  00F7  	MOVWF Wdt_Delay__0003E_arg_delay
04D7  207F  	CALL Wdt_Delay__0003E
04D8  0008  	RETURN
04D9        ; } FCD_LCDDisplay0_Clear function end

	ORG 0x000004D9
04D9        FCD_LCDDis_00057
04D9        ; { FCD_LCDDisplay0_Start ; function begin
04D9  1683  	BSF STATUS, RP0
04DA  1303  	BCF STATUS, RP1
04DB  1106  	BCF gbl_trisb,2
04DC  1283  	BCF STATUS, RP0
04DD  1106  	BCF gbl_portb,2
04DE  1683  	BSF STATUS, RP0
04DF  1186  	BCF gbl_trisb,3
04E0  1283  	BCF STATUS, RP0
04E1  1186  	BCF gbl_portb,3
04E2  1683  	BSF STATUS, RP0
04E3  1206  	BCF gbl_trisb,4
04E4  1283  	BCF STATUS, RP0
04E5  1206  	BCF gbl_portb,4
04E6  1683  	BSF STATUS, RP0
04E7  1286  	BCF gbl_trisb,5
04E8  1283  	BCF STATUS, RP0
04E9  1286  	BCF gbl_portb,5
04EA  1683  	BSF STATUS, RP0
04EB  1006  	BCF gbl_trisb,0
04EC  1283  	BCF STATUS, RP0
04ED  1006  	BCF gbl_portb,0
04EE  1683  	BSF STATUS, RP0
04EF  1086  	BCF gbl_trisb,1
04F0  1283  	BCF STATUS, RP0
04F1  1086  	BCF gbl_portb,1
04F2  300C  	MOVLW 0x0C
04F3  00F7  	MOVWF Wdt_Delay__0003E_arg_delay
04F4  207F  	CALL Wdt_Delay__0003E
04F5  3033  	MOVLW 0x33
04F6  1683  	BSF STATUS, RP0
04F7  00AE  	MOVWF FCD_LCDDis_00056_arg_in
04F8  01AF  	CLRF FCD_LCDDis_00056_arg_mask
04F9  208D  	CALL FCD_LCDDis_00056
04FA  3002  	MOVLW 0x02
04FB  1283  	BCF STATUS, RP0
04FC  00F7  	MOVWF Wdt_Delay__0003E_arg_delay
04FD  207F  	CALL Wdt_Delay__0003E
04FE  3033  	MOVLW 0x33
04FF  1683  	BSF STATUS, RP0
0500  00AE  	MOVWF FCD_LCDDis_00056_arg_in
0501  01AF  	CLRF FCD_LCDDis_00056_arg_mask
0502  208D  	CALL FCD_LCDDis_00056
0503  3002  	MOVLW 0x02
0504  1283  	BCF STATUS, RP0
0505  00F7  	MOVWF Wdt_Delay__0003E_arg_delay
0506  207F  	CALL Wdt_Delay__0003E
0507  3032  	MOVLW 0x32
0508  1683  	BSF STATUS, RP0
0509  00AE  	MOVWF FCD_LCDDis_00056_arg_in
050A  01AF  	CLRF FCD_LCDDis_00056_arg_mask
050B  208D  	CALL FCD_LCDDis_00056
050C  3002  	MOVLW 0x02
050D  1283  	BCF STATUS, RP0
050E  00F7  	MOVWF Wdt_Delay__0003E_arg_delay
050F  207F  	CALL Wdt_Delay__0003E
0510  302C  	MOVLW 0x2C
0511  1683  	BSF STATUS, RP0
0512  00AE  	MOVWF FCD_LCDDis_00056_arg_in
0513  01AF  	CLRF FCD_LCDDis_00056_arg_mask
0514  208D  	CALL FCD_LCDDis_00056
0515  3002  	MOVLW 0x02
0516  1283  	BCF STATUS, RP0
0517  00F7  	MOVWF Wdt_Delay__0003E_arg_delay
0518  207F  	CALL Wdt_Delay__0003E
0519  3006  	MOVLW 0x06
051A  1683  	BSF STATUS, RP0
051B  00AE  	MOVWF FCD_LCDDis_00056_arg_in
051C  01AF  	CLRF FCD_LCDDis_00056_arg_mask
051D  208D  	CALL FCD_LCDDis_00056
051E  3002  	MOVLW 0x02
051F  1283  	BCF STATUS, RP0
0520  00F7  	MOVWF Wdt_Delay__0003E_arg_delay
0521  207F  	CALL Wdt_Delay__0003E
0522  300C  	MOVLW 0x0C
0523  1683  	BSF STATUS, RP0
0524  00AE  	MOVWF FCD_LCDDis_00056_arg_in
0525  01AF  	CLRF FCD_LCDDis_00056_arg_mask
0526  208D  	CALL FCD_LCDDis_00056
0527  3002  	MOVLW 0x02
0528  1283  	BCF STATUS, RP0
0529  00F7  	MOVWF Wdt_Delay__0003E_arg_delay
052A  207F  	CALL Wdt_Delay__0003E
052B  3001  	MOVLW 0x01
052C  1683  	BSF STATUS, RP0
052D  00AE  	MOVWF FCD_LCDDis_00056_arg_in
052E  01AF  	CLRF FCD_LCDDis_00056_arg_mask
052F  208D  	CALL FCD_LCDDis_00056
0530  3002  	MOVLW 0x02
0531  1283  	BCF STATUS, RP0
0532  00F7  	MOVWF Wdt_Delay__0003E_arg_delay
0533  207F  	CALL Wdt_Delay__0003E
0534  3002  	MOVLW 0x02
0535  1683  	BSF STATUS, RP0
0536  00AE  	MOVWF FCD_LCDDis_00056_arg_in
0537  01AF  	CLRF FCD_LCDDis_00056_arg_mask
0538  208D  	CALL FCD_LCDDis_00056
0539  3002  	MOVLW 0x02
053A  1283  	BCF STATUS, RP0
053B  00F7  	MOVWF Wdt_Delay__0003E_arg_delay
053C  207F  	CALL Wdt_Delay__0003E
053D  0008  	RETURN
053E        ; } FCD_LCDDisplay0_Start function end

	ORG 0x0000053E
053E        FCD_ADC0_R_00063
053E        ; { FCD_ADC0_ReadAsByte ; function begin
053E  1283  	BCF STATUS, RP0
053F  1303  	BCF STATUS, RP1
0540  01F3  	CLRF FC_CAL_Ena_0005F_arg_Channel
0541  3003  	MOVLW 0x03
0542  00F4  	MOVWF FC_CAL_Ena_0005F_arg_Conv_Speed
0543  01F5  	CLRF FC_CAL_Ena_0005F_arg_Vref
0544  3028  	MOVLW 0x28
0545  00F6  	MOVWF FC_CAL_Ena_0005F_arg_T_Charge
0546  2166  	CALL FC_CAL_Ena_0005F
0547  01F3  	CLRF FC_CAL_Sam_00060_arg_Sample_Mode
0548  211A  	CALL FC_CAL_Sam_00060
0549  0876  	MOVF CompTempVarRet2238, W
054A  00F2  	MOVWF FCD_ADC0_R_00063_1_retVal
054B  21AD  	CALL FC_CAL_Dis_00061
054C  0872  	MOVF FCD_ADC0_R_00063_1_retVal, W
054D  00F3  	MOVWF CompTempVarRet2244
054E  0008  	RETURN
054F        ; } FCD_ADC0_ReadAsByte function end

	ORG 0x0000054F
054F        main
054F        ; { main ; function begin
054F  3007  	MOVLW 0x07
0550  1683  	BSF STATUS, RP0
0551  1303  	BCF STATUS, RP1
0552  009F  	MOVWF gbl_adcon1
0553  231A  	CALL FC_CAL_UAR_00078
0554  30C0  	MOVLW 0xC0
0555  0081  	MOVWF gbl_option_reg
0556  24D9  	CALL FCD_LCDDis_00057
0557  24C5  	CALL FCD_LCDDis_00058
0558  3003  	MOVLW 0x03
0559  00F5  	MOVWF FCD_LCDDis_00052_arg_x
055A  01F6  	CLRF FCD_LCDDis_00052_arg_y
055B  22E4  	CALL FCD_LCDDis_00052
055C  3042  	MOVLW 0x42
055D  00F6  	MOVWF CompTempVar2291
055E  304F  	MOVLW 0x4F
055F  00F7  	MOVWF CompTempVar2291+D'1'
0560  00F8  	MOVWF CompTempVar2291+D'2'
0561  3054  	MOVLW 0x54
0562  00F9  	MOVWF CompTempVar2291+D'3'
0563  3049  	MOVLW 0x49
0564  00FA  	MOVWF CompTempVar2291+D'4'
0565  304E  	MOVLW 0x4E
0566  00FB  	MOVWF CompTempVar2291+D'5'
0567  3047  	MOVLW 0x47
0568  00FC  	MOVWF CompTempVar2291+D'6'
0569  01FD  	CLRF CompTempVar2291+D'7'
056A  3000  	MOVLW HIGH(CompTempVar2291+D'0')
056B  00F5  	MOVWF FCD_LCDDis_00053_arg_String+D'1'
056C  3076  	MOVLW LOW(CompTempVar2291+D'0')
056D  00F4  	MOVWF FCD_LCDDis_00053_arg_String
056E  3007  	MOVLW 0x07
056F  00FE  	MOVWF FCD_LCDDis_00053_arg_MSZ_String
0570  22C1  	CALL FCD_LCDDis_00053
0571  3001  	MOVLW 0x01
0572  1283  	BCF STATUS, RP0
0573  00F2  	MOVWF delay_s_00000_arg_del
0574  204F  	CALL delay_s_00000
0575  302E  	MOVLW 0x2E
0576  00F6  	MOVWF CompTempVar2293
0577  01F7  	CLRF CompTempVar2293+D'1'
0578  3000  	MOVLW HIGH(CompTempVar2293+D'0')
0579  00F5  	MOVWF FCD_LCDDis_00053_arg_String+D'1'
057A  3076  	MOVLW LOW(CompTempVar2293+D'0')
057B  00F4  	MOVWF FCD_LCDDis_00053_arg_String
057C  3001  	MOVLW 0x01
057D  00FE  	MOVWF FCD_LCDDis_00053_arg_MSZ_String
057E  22C1  	CALL FCD_LCDDis_00053
057F  3001  	MOVLW 0x01
0580  1283  	BCF STATUS, RP0
0581  00F2  	MOVWF delay_s_00000_arg_del
0582  204F  	CALL delay_s_00000
0583  302E  	MOVLW 0x2E
0584  00F6  	MOVWF CompTempVar2295
0585  01F7  	CLRF CompTempVar2295+D'1'
0586  3000  	MOVLW HIGH(CompTempVar2295+D'0')
0587  00F5  	MOVWF FCD_LCDDis_00053_arg_String+D'1'
0588  3076  	MOVLW LOW(CompTempVar2295+D'0')
0589  00F4  	MOVWF FCD_LCDDis_00053_arg_String
058A  3001  	MOVLW 0x01
058B  00FE  	MOVWF FCD_LCDDis_00053_arg_MSZ_String
058C  22C1  	CALL FCD_LCDDis_00053
058D  3001  	MOVLW 0x01
058E  1283  	BCF STATUS, RP0
058F  00F2  	MOVWF delay_s_00000_arg_del
0590  204F  	CALL delay_s_00000
0591  302E  	MOVLW 0x2E
0592  00F6  	MOVWF CompTempVar2297
0593  01F7  	CLRF CompTempVar2297+D'1'
0594  3000  	MOVLW HIGH(CompTempVar2297+D'0')
0595  00F5  	MOVWF FCD_LCDDis_00053_arg_String+D'1'
0596  3076  	MOVLW LOW(CompTempVar2297+D'0')
0597  00F4  	MOVWF FCD_LCDDis_00053_arg_String
0598  3001  	MOVLW 0x01
0599  00FE  	MOVWF FCD_LCDDis_00053_arg_MSZ_String
059A  22C1  	CALL FCD_LCDDis_00053
059B  3001  	MOVLW 0x01
059C  1283  	BCF STATUS, RP0
059D  00F2  	MOVWF delay_s_00000_arg_del
059E  204F  	CALL delay_s_00000
059F  24C5  	CALL FCD_LCDDis_00058
05A0  24A2  	CALL FCD_PWM0_E_00073
05A1        label77
05A1  2329  	CALL FCM_displa_00051
05A2  3004  	MOVLW 0x04
05A3  0405  	IORWF gbl_trisa, W
05A4  0085  	MOVWF gbl_trisa
05A5  3004  	MOVLW 0x04
05A6  1283  	BCF STATUS, RP0
05A7  0505  	ANDWF gbl_porta, W
05A8  00F2  	MOVWF CompTempVar2299
05A9  01EC  	CLRF gbl_FCV_B_SW2
05AA  3004  	MOVLW 0x04
05AB  0272  	SUBWF CompTempVar2299, W
05AC  1903  	BTFSC STATUS,Z
05AD  0AEC  	INCF gbl_FCV_B_SW2, F
05AE  3008  	MOVLW 0x08
05AF  1683  	BSF STATUS, RP0
05B0  0405  	IORWF gbl_trisa, W
05B1  0085  	MOVWF gbl_trisa
05B2  3008  	MOVLW 0x08
05B3  1283  	BCF STATUS, RP0
05B4  0505  	ANDWF gbl_porta, W
05B5  00F2  	MOVWF CompTempVar2301
05B6  01F3  	CLRF CompTempVar2302
05B7  3008  	MOVLW 0x08
05B8  0272  	SUBWF CompTempVar2301, W
05B9  1903  	BTFSC STATUS,Z
05BA  0AF3  	INCF CompTempVar2302, F
05BB  116D  	BCF gbl_FCV_B_SW1,2
05BC  0873  	MOVF CompTempVar2302, W
05BD  1D03  	BTFSS STATUS,Z
05BE  156D  	BSF gbl_FCV_B_SW1,2
05BF  3010  	MOVLW 0x10
05C0  1683  	BSF STATUS, RP0
05C1  0405  	IORWF gbl_trisa, W
05C2  0085  	MOVWF gbl_trisa
05C3  3010  	MOVLW 0x10
05C4  1283  	BCF STATUS, RP0
05C5  0505  	ANDWF gbl_porta, W
05C6  00F2  	MOVWF CompTempVar2303
05C7  01F3  	CLRF CompTempVar2304
05C8  3010  	MOVLW 0x10
05C9  0272  	SUBWF CompTempVar2303, W
05CA  1903  	BTFSC STATUS,Z
05CB  0AF3  	INCF CompTempVar2304, F
05CC  10ED  	BCF gbl_FCV_B_SW0,1
05CD  0873  	MOVF CompTempVar2304, W
05CE  1D03  	BTFSS STATUS,Z
05CF  14ED  	BSF gbl_FCV_B_SW0,1
05D0  253E  	CALL FCD_ADC0_R_00063
05D1  0873  	MOVF CompTempVarRet2244, W
05D2  00EE  	MOVWF gbl_FCV_ANALOG0
05D3  08EC  	MOVF gbl_FCV_B_SW2, F
05D4  1D03  	BTFSS STATUS,Z
05D5  2DF4  	GOTO	label82
05D6        label78
05D6  08EC  	MOVF gbl_FCV_B_SW2, F
05D7  1D03  	BTFSS STATUS,Z
05D8  2DE9  	GOTO	label79
05D9  3004  	MOVLW 0x04
05DA  1683  	BSF STATUS, RP0
05DB  0405  	IORWF gbl_trisa, W
05DC  0085  	MOVWF gbl_trisa
05DD  3004  	MOVLW 0x04
05DE  1283  	BCF STATUS, RP0
05DF  0505  	ANDWF gbl_porta, W
05E0  00F2  	MOVWF CompTempVar2305
05E1  01F3  	CLRF CompTempVar2306
05E2  3004  	MOVLW 0x04
05E3  0272  	SUBWF CompTempVar2305, W
05E4  1903  	BTFSC STATUS,Z
05E5  0AF3  	INCF CompTempVar2306, F
05E6  0873  	MOVF CompTempVar2306, W
05E7  00EC  	MOVWF gbl_FCV_B_SW2
05E8  2DD6  	GOTO	label78
05E9        label79
05E9  1C6D  	BTFSS gbl_FCV_FLAG0,0
05EA  2DED  	GOTO	label80
05EB  106D  	BCF gbl_FCV_FLAG0,0
05EC  2DEE  	GOTO	label81
05ED        label80
05ED  146D  	BSF gbl_FCV_FLAG0,0
05EE        label81
05EE  3001  	MOVLW 0x01
05EF  00F2  	MOVWF FCD_LCDDis_0005D_arg_Line
05F0  24AC  	CALL FCD_LCDDis_0005D
05F1  3002  	MOVLW 0x02
05F2  00F2  	MOVWF FCD_LCDDis_0005D_arg_Line
05F3  24AC  	CALL FCD_LCDDis_0005D
05F4        label82
05F4  196D  	BTFSC gbl_FCV_B_SW1,2
05F5  2E15  	GOTO	label87
05F6        label83
05F6  196D  	BTFSC gbl_FCV_B_SW1,2
05F7  2E0A  	GOTO	label84
05F8  3008  	MOVLW 0x08
05F9  1683  	BSF STATUS, RP0
05FA  0405  	IORWF gbl_trisa, W
05FB  0085  	MOVWF gbl_trisa
05FC  3008  	MOVLW 0x08
05FD  1283  	BCF STATUS, RP0
05FE  0505  	ANDWF gbl_porta, W
05FF  00F2  	MOVWF CompTempVar2307
0600  01F3  	CLRF CompTempVar2308
0601  3008  	MOVLW 0x08
0602  0272  	SUBWF CompTempVar2307, W
0603  1903  	BTFSC STATUS,Z
0604  0AF3  	INCF CompTempVar2308, F
0605  116D  	BCF gbl_FCV_B_SW1,2
0606  0873  	MOVF CompTempVar2308, W
0607  1D03  	BTFSS STATUS,Z
0608  156D  	BSF gbl_FCV_B_SW1,2
0609  2DF6  	GOTO	label83
060A        label84
060A  1C6D  	BTFSS gbl_FCV_FLAG0,0
060B  2E0E  	GOTO	label85
060C  106D  	BCF gbl_FCV_FLAG0,0
060D  2E0F  	GOTO	label86
060E        label85
060E  146D  	BSF gbl_FCV_FLAG0,0
060F        label86
060F  3001  	MOVLW 0x01
0610  00F2  	MOVWF FCD_LCDDis_0005D_arg_Line
0611  24AC  	CALL FCD_LCDDis_0005D
0612  3002  	MOVLW 0x02
0613  00F2  	MOVWF FCD_LCDDis_0005D_arg_Line
0614  24AC  	CALL FCD_LCDDis_0005D
0615        label87
0615  18ED  	BTFSC gbl_FCV_B_SW0,1
0616  2E36  	GOTO	label92
0617        label88
0617  18ED  	BTFSC gbl_FCV_B_SW0,1
0618  2E2B  	GOTO	label89
0619  3010  	MOVLW 0x10
061A  1683  	BSF STATUS, RP0
061B  0405  	IORWF gbl_trisa, W
061C  0085  	MOVWF gbl_trisa
061D  3010  	MOVLW 0x10
061E  1283  	BCF STATUS, RP0
061F  0505  	ANDWF gbl_porta, W
0620  00F2  	MOVWF CompTempVar2309
0621  01F3  	CLRF CompTempVar2310
0622  3010  	MOVLW 0x10
0623  0272  	SUBWF CompTempVar2309, W
0624  1903  	BTFSC STATUS,Z
0625  0AF3  	INCF CompTempVar2310, F
0626  10ED  	BCF gbl_FCV_B_SW0,1
0627  0873  	MOVF CompTempVar2310, W
0628  1D03  	BTFSS STATUS,Z
0629  14ED  	BSF gbl_FCV_B_SW0,1
062A  2E17  	GOTO	label88
062B        label89
062B  1C6D  	BTFSS gbl_FCV_FLAG0,0
062C  2E2F  	GOTO	label90
062D  106D  	BCF gbl_FCV_FLAG0,0
062E  2E30  	GOTO	label91
062F        label90
062F  146D  	BSF gbl_FCV_FLAG0,0
0630        label91
0630  3001  	MOVLW 0x01
0631  00F2  	MOVWF FCD_LCDDis_0005D_arg_Line
0632  24AC  	CALL FCD_LCDDis_0005D
0633  3002  	MOVLW 0x02
0634  00F2  	MOVWF FCD_LCDDis_0005D_arg_Line
0635  24AC  	CALL FCD_LCDDis_0005D
0636        label92
0636  086E  	MOVF gbl_FCV_ANALOG0, W
0637  00F2  	MOVWF __mul_8u_8_00006_arg_a
0638  3064  	MOVLW 0x64
0639  00F3  	MOVWF __mul_8u_8_00006_arg_b
063A  2304  	CALL __mul_8u_8_00006
063B  0877  	MOVF CompTempVarRet452, W
063C  00FC  	MOVWF __div_16_1_00003_arg_a
063D  0878  	MOVF CompTempVarRet452+D'1', W
063E  00FD  	MOVWF __div_16_1_00003_arg_a+D'1'
063F  30FF  	MOVLW 0xFF
0640  1683  	BSF STATUS, RP0
0641  00A0  	MOVWF __div_16_1_00003_arg_b
0642  01A1  	CLRF __div_16_1_00003_arg_b+D'1'
0643  205E  	CALL __div_16_1_00003
0644  0825  	MOVF CompTempVarRet214, W
0645  1283  	BCF STATUS, RP0
0646  00EF  	MOVWF gbl_FCV_BRIGHTNESS
0647  086F  	MOVF gbl_FCV_BRIGHTNESS, W
0648  00F2  	MOVWF FCI_TOSTRI_00049_arg_iSrc1
0649  01F3  	CLRF FCI_TOSTRI_00049_arg_iSrc1+D'1'
064A  3000  	MOVLW HIGH(gbl_FCV_STRING_BRIGHTNESS+D'0')
064B  00F5  	MOVWF FCI_TOSTRI_00049_arg_sDst+D'1'
064C  3020  	MOVLW LOW(gbl_FCV_STRING_BRIGHTNESS+D'0')
064D  00F4  	MOVWF FCI_TOSTRI_00049_arg_sDst
064E  3014  	MOVLW 0x14
064F  00F6  	MOVWF FCI_TOSTRI_00049_arg_iDst_len
0650  23F3  	CALL FCI_TOSTRI_00049
0651  01F3  	CLRF FCI_TOSTRI_00049_arg_iSrc1+D'1'
0652  01F2  	CLRF FCI_TOSTRI_00049_arg_iSrc1
0653  186D  	BTFSC gbl_FCV_FLAG0,0
0654  0AF2  	INCF FCI_TOSTRI_00049_arg_iSrc1, F
0655  3000  	MOVLW HIGH(gbl_FCV_STRING_FLAG0+D'0')
0656  00F5  	MOVWF FCI_TOSTRI_00049_arg_sDst+D'1'
0657  3034  	MOVLW LOW(gbl_FCV_STRING_FLAG0+D'0')
0658  00F4  	MOVWF FCI_TOSTRI_00049_arg_sDst
0659  3014  	MOVLW 0x14
065A  00F6  	MOVWF FCI_TOSTRI_00049_arg_iDst_len
065B  23F3  	CALL FCI_TOSTRI_00049
065C  3041  	MOVLW 0x41
065D  00F4  	MOVWF CompTempVar2313
065E  00F5  	MOVWF CompTempVar2313+D'1'
065F  01F6  	CLRF CompTempVar2313+D'2'
0660  3000  	MOVLW HIGH(CompTempVar2313+D'0')
0661  00F3  	MOVWF FCD_RS2320_0007E_arg_String+D'1'
0662  3074  	MOVLW LOW(CompTempVar2313+D'0')
0663  00F2  	MOVWF FCD_RS2320_0007E_arg_String
0664  3002  	MOVLW 0x02
0665  00F7  	MOVWF FCD_RS2320_0007E_arg_MSZ_String
0666  2488  	CALL FCD_RS2320_0007E
0667  3000  	MOVLW HIGH(gbl_FCV_STRING_BRIGHTNESS+D'0')
0668  00F3  	MOVWF FCD_RS2320_0007E_arg_String+D'1'
0669  3020  	MOVLW LOW(gbl_FCV_STRING_BRIGHTNESS+D'0')
066A  00F2  	MOVWF FCD_RS2320_0007E_arg_String
066B  3014  	MOVLW 0x14
066C  00F7  	MOVWF FCD_RS2320_0007E_arg_MSZ_String
066D  2488  	CALL FCD_RS2320_0007E
066E  3000  	MOVLW HIGH(gbl_FCV_STRING_FLAG0+D'0')
066F  00F3  	MOVWF FCD_RS2320_0007E_arg_String+D'1'
0670  3034  	MOVLW LOW(gbl_FCV_STRING_FLAG0+D'0')
0671  00F2  	MOVWF FCD_RS2320_0007E_arg_String
0672  3014  	MOVLW 0x14
0673  00F7  	MOVWF FCD_RS2320_0007E_arg_MSZ_String
0674  2488  	CALL FCD_RS2320_0007E
0675  3042  	MOVLW 0x42
0676  00F4  	MOVWF CompTempVar2317
0677  00F5  	MOVWF CompTempVar2317+D'1'
0678  01F6  	CLRF CompTempVar2317+D'2'
0679  3000  	MOVLW HIGH(CompTempVar2317+D'0')
067A  00F3  	MOVWF FCD_RS2320_0007E_arg_String+D'1'
067B  3074  	MOVLW LOW(CompTempVar2317+D'0')
067C  00F2  	MOVWF FCD_RS2320_0007E_arg_String
067D  3002  	MOVLW 0x02
067E  00F7  	MOVWF FCD_RS2320_0007E_arg_MSZ_String
067F  2488  	CALL FCD_RS2320_0007E
0680  2DA1  	GOTO	label77
0681        ; } main function end

	ORG 0x00000681
0681        _startup
0681  30D5  	MOVLW 0xD5
0682  1283  	BCF STATUS, RP0
0683  1303  	BCF STATUS, RP1
0684  00C8  	MOVWF gbl_14_LSR
0685  30C4  	MOVLW 0xC4
0686  00C9  	MOVWF gbl_14_LSR+D'1'
0687  30BB  	MOVLW 0xBB
0688  00CA  	MOVWF gbl_14_LSR+D'2'
0689  30DC  	MOVLW 0xDC
068A  00CB  	MOVWF gbl_14_LSR+D'3'
068B  01CC  	CLRF gbl_15_gbl_aSig
068C  01CD  	CLRF gbl_15_gbl_aSig+D'1'
068D  01CE  	CLRF gbl_15_gbl_aSig+D'2'
068E  01CF  	CLRF gbl_15_gbl_aSig+D'3'
068F  01D0  	CLRF gbl_15_gbl_bSig
0690  01D1  	CLRF gbl_15_gbl_bSig+D'1'
0691  01D2  	CLRF gbl_15_gbl_bSig+D'2'
0692  01D3  	CLRF gbl_15_gbl_bSig+D'3'
0693  01D4  	CLRF gbl_15_gbl_zSig
0694  01D5  	CLRF gbl_15_gbl_zSig+D'1'
0695  01D6  	CLRF gbl_15_gbl_zSig+D'2'
0696  01D7  	CLRF gbl_15_gbl_zSig+D'3'
0697  01E6  	CLRF gbl_15_gbl_aExp
0698  01E7  	CLRF gbl_15_gbl_bExp
0699  01DF  	CLRF gbl_15_gbl_zExp
069A  01E0  	CLRF gbl_15_gbl_zExp+D'1'
069B  01E8  	CLRF gbl_15_gbl_aSign
069C  01E9  	CLRF gbl_15_gbl_bSign
069D  01EA  	CLRF gbl_15_gbl_zSign
069E  01EB  	CLRF gbl_15_gbl_zSigZero
069F  01D8  	CLRF gbl_15_gbl_ret
06A0  01D9  	CLRF gbl_15_gbl_ret+D'1'
06A1  01DA  	CLRF gbl_15_gbl_ret+D'2'
06A2  01DB  	CLRF gbl_15_gbl_ret+D'3'
06A3  01E4  	CLRF gbl_float_rounding_mode
06A4  01E5  	CLRF gbl_float_exception_flags
06A5  01E3  	CLRF gbl_float_detect_tininess
06A6  3001  	MOVLW 0x01
06A7  00EC  	MOVWF gbl_FCV_B_SW2
06A8  106D  	BCF gbl_FCV_FLAG0,0
06A9  01A0  	CLRF gbl_FCV_STRING_BRIGHTNESS
06AA  01B4  	CLRF gbl_FCV_STRING_FLAG0
06AB  30FF  	MOVLW 0xFF
06AC  00EE  	MOVWF gbl_FCV_ANALOG0
06AD  01EF  	CLRF gbl_FCV_BRIGHTNESS
06AE  14ED  	BSF gbl_FCV_B_SW0,1
06AF  156D  	BSF gbl_FCV_B_SW1,2
06B0  118A  	BCF PCLATH,3
06B1  120A  	BCF PCLATH,4
06B2  2D4F  	GOTO	main
	ORG 0x000006B3
06B3        interrupt
06B3        ; { interrupt ; function begin
06B3  1283  	BCF STATUS, RP0
06B4  1303  	BCF STATUS, RP1
06B5  0E5E  	SWAPF Int1BContext+D'2', W
06B6  0084  	MOVWF FSR
06B7  0E5D  	SWAPF Int1BContext+D'1', W
06B8  008A  	MOVWF PCLATH
06B9  0E5C  	SWAPF Int1BContext, W
06BA  0083  	MOVWF STATUS
06BB  0EFF  	SWAPF Int1Context, F
06BC  0E7F  	SWAPF Int1Context, W
06BD  0009  	RETFIE
06BE        ; } interrupt function end

	ORG 0x00002007
2007  3F32  	DW 0x3F32
