;/////////////////////////////////////////////////////////////////////////////////
;// Code Generator: BoostC Compiler - http://www.sourceboost.com
;// Version       : 7.03
;// License Type  : Pro License
;// Limitations   : PIC12,PIC16 max code size:Unlimited, max RAM banks:Unlimited
;/////////////////////////////////////////////////////////////////////////////////

	ORG 0x00000000
0000  2CF9  	GOTO	_startup
	ORG 0x00000004
0004  00FF  	MOVWF Int1Context
0005  0E03  	SWAPF STATUS, W
0006  1283  	BCF STATUS, RP0
0007  1303  	BCF STATUS, RP1
0008  00B4  	MOVWF Int1BContext
0009  0E0A  	SWAPF PCLATH, W
000A  00B5  	MOVWF Int1BContext+D'1'
000B  0E04  	SWAPF FSR, W
000C  00B6  	MOVWF Int1BContext+D'2'
000D  118A  	BCF PCLATH,3
000E  120A  	BCF PCLATH,4
000F  2D29  	GOTO	interrupt
	ORG 0x00000010
0010        delay_ms_00000
0010        ; { delay_ms ; function begin
0010  08D1  	MOVF delay_ms_00000_arg_del, F
0011  1D03  	BTFSS STATUS,Z
0012  2814  	GOTO	label1
0013  0008  	RETURN
0014        label1
0014  30F9  	MOVLW 0xF9
0015        label2
0015  0000  	NOP
0016  0000  	NOP
0017  0000  	NOP
0018  0000  	NOP
0019  0000  	NOP
001A  0000  	NOP
001B  0000  	NOP
001C  0000  	NOP
001D  0000  	NOP
001E  0000  	NOP
001F  0000  	NOP
0020  0000  	NOP
0021  0000  	NOP
0022  0000  	NOP
0023  0000  	NOP
0024  0000  	NOP
0025  3EFF  	ADDLW 0xFF
0026  1D03  	BTFSS STATUS,Z
0027  2815  	GOTO	label2
0028  0000  	NOP
0029  0000  	NOP
002A  0000  	NOP
002B  0000  	NOP
002C  0000  	NOP
002D  0000  	NOP
002E  0000  	NOP
002F  0000  	NOP
0030  0000  	NOP
0031  0000  	NOP
0032  0000  	NOP
0033  0000  	NOP
0034  0000  	NOP
0035  0000  	NOP
0036  0000  	NOP
0037  0000  	NOP
0038  0000  	NOP
0039  0BD1  	DECFSZ delay_ms_00000_arg_del, F
003A  2814  	GOTO	label1
003B  0008  	RETURN
003C        ; } delay_ms function end

	ORG 0x0000003C
003C        delay_10us_00000
003C        ; { delay_10us ; function begin
003C  08E0  	MOVF delay_10us_00000_arg_del, F
003D  1D03  	BTFSS STATUS,Z
003E  2840  	GOTO	label3
003F  0008  	RETURN
0040        label3
0040  3009  	MOVLW 0x09
0041        label4
0041  0000  	NOP
0042  3EFF  	ADDLW 0xFF
0043  1D03  	BTFSS STATUS,Z
0044  2841  	GOTO	label4
0045  0000  	NOP
0046  0000  	NOP
0047  0BE0  	DECFSZ delay_10us_00000_arg_del, F
0048  2840  	GOTO	label3
0049  0008  	RETURN
004A        ; } delay_10us function end

	ORG 0x0000004A
004A        delay_us_00000
004A        ; { delay_us ; function begin
004A        label5
004A  0000  	NOP
004B  0000  	NOP
004C  0BCF  	DECFSZ delay_us_00000_arg_del, F
004D  284A  	GOTO	label5
004E  0008  	RETURN
004F        ; } delay_us function end

	ORG 0x0000004F
004F        delay_s_00000
004F        ; { delay_s ; function begin
004F        label6
004F  30FA  	MOVLW 0xFA
0050  00D1  	MOVWF delay_ms_00000_arg_del
0051  2010  	CALL delay_ms_00000
0052  30FA  	MOVLW 0xFA
0053  00D1  	MOVWF delay_ms_00000_arg_del
0054  2010  	CALL delay_ms_00000
0055  30FA  	MOVLW 0xFA
0056  00D1  	MOVWF delay_ms_00000_arg_del
0057  2010  	CALL delay_ms_00000
0058  30FA  	MOVLW 0xFA
0059  00D1  	MOVWF delay_ms_00000_arg_del
005A  2010  	CALL delay_ms_00000
005B  0BCA  	DECFSZ delay_s_00000_arg_del, F
005C  284F  	GOTO	label6
005D  0008  	RETURN
005E        ; } delay_s function end

	ORG 0x0000005E
005E        __div_16_1_00003
005E        ; { __div_16_16 ; function begin
005E  01D7  	CLRF __div_16_1_00003_1_r
005F  01D8  	CLRF __div_16_1_00003_1_r+D'1'
0060  01DA  	CLRF CompTempVarRet214
0061  01DB  	CLRF CompTempVarRet214+D'1'
0062  01D9  	CLRF __div_16_1_00003_1_i
0063        label7
0063  1A59  	BTFSC __div_16_1_00003_1_i,4
0064  0008  	RETURN
0065  1003  	BCF STATUS,C
0066  0DDA  	RLF CompTempVarRet214, F
0067  0DDB  	RLF CompTempVarRet214+D'1', F
0068  0DD1  	RLF __div_16_1_00003_arg_a, F
0069  0DD2  	RLF __div_16_1_00003_arg_a+D'1', F
006A  0DD7  	RLF __div_16_1_00003_1_r, F
006B  0DD8  	RLF __div_16_1_00003_1_r+D'1', F
006C  0854  	MOVF __div_16_1_00003_arg_b+D'1', W
006D  0258  	SUBWF __div_16_1_00003_1_r+D'1', W
006E  1D03  	BTFSS STATUS,Z
006F  2872  	GOTO	label8
0070  0853  	MOVF __div_16_1_00003_arg_b, W
0071  0257  	SUBWF __div_16_1_00003_1_r, W
0072        label8
0072  1C03  	BTFSS STATUS,C
0073  287B  	GOTO	label9
0074  0853  	MOVF __div_16_1_00003_arg_b, W
0075  02D7  	SUBWF __div_16_1_00003_1_r, F
0076  0854  	MOVF __div_16_1_00003_arg_b+D'1', W
0077  1C03  	BTFSS STATUS,C
0078  03D8  	DECF __div_16_1_00003_1_r+D'1', F
0079  02D8  	SUBWF __div_16_1_00003_1_r+D'1', F
007A  145A  	BSF CompTempVarRet214,0
007B        label9
007B  0AD9  	INCF __div_16_1_00003_1_i, F
007C  2863  	GOTO	label7
007D        ; } __div_16_16 function end

	ORG 0x0000007D
007D        Wdt_Delay__0003E
007D        ; { Wdt_Delay_Ms ; function begin
007D  01D0  	CLRF Wdt_Delay__0003E_1_i
007E        label10
007E  084F  	MOVF Wdt_Delay__0003E_arg_delay, W
007F  0250  	SUBWF Wdt_Delay__0003E_1_i, W
0080  1803  	BTFSC STATUS,C
0081  0008  	RETURN
0082  0064  	CLRWDT
0083  3001  	MOVLW 0x01
0084  00D1  	MOVWF delay_ms_00000_arg_del
0085  2010  	CALL delay_ms_00000
0086  0AD0  	INCF Wdt_Delay__0003E_1_i, F
0087  287E  	GOTO	label10
0088        ; } Wdt_Delay_Ms function end

	ORG 0x00000088
0088        FC_CAL_PWM_00070
0088        ; { FC_CAL_PWM_Set_Duty_8Bit_1 ; function begin
0088  084B  	MOVF FC_CAL_PWM_00070_arg_duty, W
0089  009B  	MOVWF gbl_ccpr2l
008A  0008  	RETURN
008B        ; } FC_CAL_PWM_Set_Duty_8Bit_1 function end

	ORG 0x0000008B
008B        FCD_LCDDis_00056
008B        ; { FCD_LCDDisplay0_RawSend ; function begin
008B  1106  	BCF gbl_portb,2
008C  1186  	BCF gbl_portb,3
008D  1206  	BCF gbl_portb,4
008E  1286  	BCF gbl_portb,5
008F  1006  	BCF gbl_portb,0
0090  1086  	BCF gbl_portb,1
0091  0E5D  	SWAPF FCD_LCDDis_00056_arg_in, W
0092  390F  	ANDLW 0x0F
0093  00DF  	MOVWF FCD_LCDDis_00056_1_pt
0094  300F  	MOVLW 0x0F
0095  05DF  	ANDWF FCD_LCDDis_00056_1_pt, F
0096  185F  	BTFSC FCD_LCDDis_00056_1_pt,0
0097  1506  	BSF gbl_portb,2
0098  18DF  	BTFSC FCD_LCDDis_00056_1_pt,1
0099  1586  	BSF gbl_portb,3
009A  195F  	BTFSC FCD_LCDDis_00056_1_pt,2
009B  1606  	BSF gbl_portb,4
009C  19DF  	BTFSC FCD_LCDDis_00056_1_pt,3
009D  1686  	BSF gbl_portb,5
009E  08DE  	MOVF FCD_LCDDis_00056_arg_mask, F
009F  1D03  	BTFSS STATUS,Z
00A0  1406  	BSF gbl_portb,0
00A1  300A  	MOVLW 0x0A
00A2  00E0  	MOVWF delay_10us_00000_arg_del
00A3  203C  	CALL delay_10us_00000
00A4  1486  	BSF gbl_portb,1
00A5  300A  	MOVLW 0x0A
00A6  00E0  	MOVWF delay_10us_00000_arg_del
00A7  203C  	CALL delay_10us_00000
00A8  1086  	BCF gbl_portb,1
00A9  300F  	MOVLW 0x0F
00AA  055D  	ANDWF FCD_LCDDis_00056_arg_in, W
00AB  00DF  	MOVWF FCD_LCDDis_00056_1_pt
00AC  300A  	MOVLW 0x0A
00AD  00E0  	MOVWF delay_10us_00000_arg_del
00AE  203C  	CALL delay_10us_00000
00AF  1106  	BCF gbl_portb,2
00B0  1186  	BCF gbl_portb,3
00B1  1206  	BCF gbl_portb,4
00B2  1286  	BCF gbl_portb,5
00B3  1006  	BCF gbl_portb,0
00B4  1086  	BCF gbl_portb,1
00B5  185F  	BTFSC FCD_LCDDis_00056_1_pt,0
00B6  1506  	BSF gbl_portb,2
00B7  18DF  	BTFSC FCD_LCDDis_00056_1_pt,1
00B8  1586  	BSF gbl_portb,3
00B9  195F  	BTFSC FCD_LCDDis_00056_1_pt,2
00BA  1606  	BSF gbl_portb,4
00BB  19DF  	BTFSC FCD_LCDDis_00056_1_pt,3
00BC  1686  	BSF gbl_portb,5
00BD  08DE  	MOVF FCD_LCDDis_00056_arg_mask, F
00BE  1D03  	BTFSS STATUS,Z
00BF  1406  	BSF gbl_portb,0
00C0  300A  	MOVLW 0x0A
00C1  00E0  	MOVWF delay_10us_00000_arg_del
00C2  203C  	CALL delay_10us_00000
00C3  1486  	BSF gbl_portb,1
00C4  300A  	MOVLW 0x0A
00C5  00E0  	MOVWF delay_10us_00000_arg_del
00C6  203C  	CALL delay_10us_00000
00C7  1086  	BCF gbl_portb,1
00C8  300A  	MOVLW 0x0A
00C9  00E0  	MOVWF delay_10us_00000_arg_del
00CA  203C  	CALL delay_10us_00000
00CB  0008  	RETURN
00CC        ; } FCD_LCDDisplay0_RawSend function end

	ORG 0x000000CC
00CC        FC_CAL_Sam_00060
00CC        ; { FC_CAL_Sample_ADC ; function begin
00CC  3004  	MOVLW 0x04
00CD  041F  	IORWF gbl_adcon0, W
00CE  009F  	MOVWF gbl_adcon0
00CF        label11
00CF  191F  	BTFSC gbl_adcon0,2
00D0  28CF  	GOTO	label11
00D1  08CB  	MOVF FC_CAL_Sam_00060_arg_Sample_Mode, F
00D2  1903  	BTFSC STATUS,Z
00D3  28E8  	GOTO	label12
00D4  081E  	MOVF gbl_adresh, W
00D5  00CC  	MOVWF FC_CAL_Sam_00060_1_iRetVal
00D6  01CD  	CLRF FC_CAL_Sam_00060_1_iRetVal+D'1'
00D7  0DCC  	RLF FC_CAL_Sam_00060_1_iRetVal, F
00D8  0DCD  	RLF FC_CAL_Sam_00060_1_iRetVal+D'1', F
00D9  0DCC  	RLF FC_CAL_Sam_00060_1_iRetVal, F
00DA  0DCD  	RLF FC_CAL_Sam_00060_1_iRetVal+D'1', F
00DB  30FC  	MOVLW 0xFC
00DC  05CC  	ANDWF FC_CAL_Sam_00060_1_iRetVal, F
00DD  1683  	BSF STATUS, RP0
00DE  0C1E  	RRF gbl_adresl, W
00DF  1283  	BCF STATUS, RP0
00E0  00CE  	MOVWF CompTempVar2241
00E1  0CCE  	RRF CompTempVar2241, F
00E2  0ECE  	SWAPF CompTempVar2241, F
00E3  3003  	MOVLW 0x03
00E4  054E  	ANDWF CompTempVar2241, W
00E5  04CC  	IORWF FC_CAL_Sam_00060_1_iRetVal, F
00E6  08CD  	MOVF FC_CAL_Sam_00060_1_iRetVal+D'1', F
00E7  28EB  	GOTO	label13
00E8        label12
00E8  081E  	MOVF gbl_adresh, W
00E9  00CC  	MOVWF FC_CAL_Sam_00060_1_iRetVal
00EA  01CD  	CLRF FC_CAL_Sam_00060_1_iRetVal+D'1'
00EB        label13
00EB  084C  	MOVF FC_CAL_Sam_00060_1_iRetVal, W
00EC  00CE  	MOVWF CompTempVarRet2238
00ED  084D  	MOVF FC_CAL_Sam_00060_1_iRetVal+D'1', W
00EE  00CF  	MOVWF CompTempVarRet2238+D'1'
00EF  0008  	RETURN
00F0        ; } FC_CAL_Sample_ADC function end

	ORG 0x000000F0
00F0        FC_CAL_PWM_00071
00F0        ; { FC_CAL_PWM_Change_Period_1 ; function begin
00F0  084A  	MOVF FC_CAL_PWM_00071_arg_period, W
00F1  1683  	BSF STATUS, RP0
00F2  0092  	MOVWF gbl_pr2
00F3  3001  	MOVLW 0x01
00F4  1283  	BCF STATUS, RP0
00F5  064B  	XORWF FC_CAL_PWM_00071_arg_prescaler, W
00F6  1903  	BTFSC STATUS,Z
00F7  084C  	MOVF FC_CAL_PWM_00071_arg_prescaler+D'1', W
00F8  1903  	BTFSC STATUS,Z
00F9  2907  	GOTO	label14
00FA  3004  	MOVLW 0x04
00FB  064B  	XORWF FC_CAL_PWM_00071_arg_prescaler, W
00FC  1903  	BTFSC STATUS,Z
00FD  084C  	MOVF FC_CAL_PWM_00071_arg_prescaler+D'1', W
00FE  1903  	BTFSC STATUS,Z
00FF  290A  	GOTO	label15
0100  3010  	MOVLW 0x10
0101  064B  	XORWF FC_CAL_PWM_00071_arg_prescaler, W
0102  1903  	BTFSC STATUS,Z
0103  084C  	MOVF FC_CAL_PWM_00071_arg_prescaler+D'1', W
0104  1903  	BTFSC STATUS,Z
0105  290D  	GOTO	label16
0106  0008  	RETURN
0107        label14
0107  3004  	MOVLW 0x04
0108  0092  	MOVWF gbl_t2con
0109  0008  	RETURN
010A        label15
010A  3005  	MOVLW 0x05
010B  0092  	MOVWF gbl_t2con
010C  0008  	RETURN
010D        label16
010D  3006  	MOVLW 0x06
010E  0092  	MOVWF gbl_t2con
010F  0008  	RETURN
0110        ; } FC_CAL_PWM_Change_Period_1 function end

	ORG 0x00000110
0110        FC_CAL_PWM_0006E
0110        ; { FC_CAL_PWM_Enable_Channel_1 ; function begin
0110  1683  	BSF STATUS, RP0
0111  1303  	BCF STATUS, RP1
0112  1087  	BCF gbl_trisc,1
0113  1283  	BCF STATUS, RP0
0114  1087  	BCF gbl_portc,1
0115  300C  	MOVLW 0x0C
0116  009D  	MOVWF gbl_ccp2con
0117  0008  	RETURN
0118        ; } FC_CAL_PWM_Enable_Channel_1 function end

	ORG 0x00000118
0118        FC_CAL_Ena_0005F
0118        ; { FC_CAL_Enable_ADC ; function begin
0118  084B  	MOVF FC_CAL_Ena_0005F_arg_Channel, W
0119  3A00  	XORLW 0x00
011A  1D03  	BTFSS STATUS,Z
011B  292C  	GOTO	label18
011C  3001  	MOVLW 0x01
011D  00C9  	MOVWF gbl_tris_mask
011E  3000  	MOVLW HIGH(gbl_trisa+D'0')
011F  00BA  	MOVWF gbl_tris_reg+D'1'
0120  3085  	MOVLW LOW(gbl_trisa+D'0')
0121  00B9  	MOVWF gbl_tris_reg
0122  08CD  	MOVF FC_CAL_Ena_0005F_arg_Vref, F
0123  1D03  	BTFSS STATUS,Z
0124  2929  	GOTO	label17
0125  300E  	MOVLW 0x0E
0126  1683  	BSF STATUS, RP0
0127  009F  	MOVWF gbl_adcon1
0128  292C  	GOTO	label18
0129        label17
0129  3005  	MOVLW 0x05
012A  1683  	BSF STATUS, RP0
012B  009F  	MOVWF gbl_adcon1
012C        label18
012C  1283  	BCF STATUS, RP0
012D  084C  	MOVF FC_CAL_Ena_0005F_arg_Conv_Speed, W
012E  3C03  	SUBLW 0x03
012F  1803  	BTFSC STATUS,C
0130  2933  	GOTO	label19
0131  1683  	BSF STATUS, RP0
0132  171F  	BSF gbl_adcon1,6
0133        label19
0133  1383  	BCF STATUS,IRP
0134  1283  	BCF STATUS, RP0
0135  183A  	BTFSC gbl_tris_reg+D'1',0
0136  1783  	BSF STATUS,IRP
0137  0839  	MOVF gbl_tris_reg, W
0138  0084  	MOVWF FSR
0139  0800  	MOVF INDF, W
013A  00C8  	MOVWF gbl_old_tris
013B  0849  	MOVF gbl_tris_mask, W
013C  0448  	IORWF gbl_old_tris, W
013D  00CF  	MOVWF CompTempVar2232
013E  0080  	MOVWF INDF
013F  084C  	MOVF FC_CAL_Ena_0005F_arg_Conv_Speed, W
0140  00CF  	MOVWF CompTempVar2233
0141  01D0  	CLRF CompTempVar2234
0142  0DCF  	RLF CompTempVar2233, F
0143  0DD0  	RLF CompTempVar2234, F
0144  0DCF  	RLF CompTempVar2233, F
0145  0DD0  	RLF CompTempVar2234, F
0146  0DCF  	RLF CompTempVar2233, F
0147  0DD0  	RLF CompTempVar2234, F
0148  0DCF  	RLF CompTempVar2233, F
0149  0DD0  	RLF CompTempVar2234, F
014A  0DCF  	RLF CompTempVar2233, F
014B  0DD0  	RLF CompTempVar2234, F
014C  0DCF  	RLF CompTempVar2233, F
014D  0DD0  	RLF CompTempVar2234, F
014E  30C0  	MOVLW 0xC0
014F  054F  	ANDWF CompTempVar2233, W
0150  3801  	IORLW 0x01
0151  00D2  	MOVWF CompTempVar2237
0152  084B  	MOVF FC_CAL_Ena_0005F_arg_Channel, W
0153  00D1  	MOVWF CompTempVar2236
0154  0DD1  	RLF CompTempVar2236, F
0155  0DD1  	RLF CompTempVar2236, F
0156  0DD1  	RLF CompTempVar2236, F
0157  30F8  	MOVLW 0xF8
0158  0551  	ANDWF CompTempVar2236, W
0159  0452  	IORWF CompTempVar2237, W
015A  009F  	MOVWF gbl_adcon0
015B  084E  	MOVF FC_CAL_Ena_0005F_arg_T_Charge, W
015C  00CF  	MOVWF delay_us_00000_arg_del
015D  204A  	CALL delay_us_00000
015E  0008  	RETURN
015F        ; } FC_CAL_Enable_ADC function end

	ORG 0x0000015F
015F        FC_CAL_Dis_00061
015F        ; { FC_CAL_Disable_ADC ; function begin
015F  1383  	BCF STATUS,IRP
0160  1283  	BCF STATUS, RP0
0161  1303  	BCF STATUS, RP1
0162  183A  	BTFSC gbl_tris_reg+D'1',0
0163  1783  	BSF STATUS,IRP
0164  0839  	MOVF gbl_tris_reg, W
0165  0084  	MOVWF FSR
0166  0848  	MOVF gbl_old_tris, W
0167  0080  	MOVWF INDF
0168  3007  	MOVLW 0x07
0169  1683  	BSF STATUS, RP0
016A  009F  	MOVWF gbl_adcon1
016B  1283  	BCF STATUS, RP0
016C  019F  	CLRF gbl_adcon0
016D  0008  	RETURN
016E        ; } FC_CAL_Disable_ADC function end

	ORG 0x0000016E
016E        FCD_PWM0_S_00055
016E        ; { FCD_PWM0_SetDutyCycle ; function begin
016E  084A  	MOVF FCD_PWM0_S_00055_arg_nDuty, W
016F  00CB  	MOVWF FC_CAL_PWM_00070_arg_duty
0170  2088  	CALL FC_CAL_PWM_00070
0171  0008  	RETURN
0172        ; } FCD_PWM0_SetDutyCycle function end

	ORG 0x00000172
0172        FCD_LCDDis_00054
0172        ; { FCD_LCDDisplay0_PrintNumber ; function begin
0172  1FCD  	BTFSS FCD_LCDDis_00054_arg_Number+D'1',7
0173  2981  	GOTO	label20
0174  302D  	MOVLW 0x2D
0175  00DD  	MOVWF FCD_LCDDis_00056_arg_in
0176  3010  	MOVLW 0x10
0177  00DE  	MOVWF FCD_LCDDis_00056_arg_mask
0178  208B  	CALL FCD_LCDDis_00056
0179  084C  	MOVF FCD_LCDDis_00054_arg_Number, W
017A  3C00  	SUBLW 0x00
017B  00D1  	MOVWF CompTempVar2206
017C  09CD  	COMF FCD_LCDDis_00054_arg_Number+D'1', F
017D  1803  	BTFSC STATUS,C
017E  0ACD  	INCF FCD_LCDDis_00054_arg_Number+D'1', F
017F  0851  	MOVF CompTempVar2206, W
0180  00CC  	MOVWF FCD_LCDDis_00054_arg_Number
0181        label20
0181  084C  	MOVF FCD_LCDDis_00054_arg_Number, W
0182  00CE  	MOVWF FCD_LCDDis_00054_1_tmp_int
0183  084D  	MOVF FCD_LCDDis_00054_arg_Number+D'1', W
0184  00CF  	MOVWF FCD_LCDDis_00054_1_tmp_int+D'1'
0185  3027  	MOVLW 0x27
0186  024D  	SUBWF FCD_LCDDis_00054_arg_Number+D'1', W
0187  1D03  	BTFSS STATUS,Z
0188  298B  	GOTO	label21
0189  3010  	MOVLW 0x10
018A  024C  	SUBWF FCD_LCDDis_00054_arg_Number, W
018B        label21
018B  1C03  	BTFSS STATUS,C
018C  29B9  	GOTO	label25
018D  1BCD  	BTFSC FCD_LCDDis_00054_arg_Number+D'1',7
018E  29B9  	GOTO	label25
018F  01D5  	CLRF CompTempVar2209
0190  084E  	MOVF FCD_LCDDis_00054_1_tmp_int, W
0191  00D1  	MOVWF __div_16_1_00003_arg_a
0192  084F  	MOVF FCD_LCDDis_00054_1_tmp_int+D'1', W
0193  00D2  	MOVWF __div_16_1_00003_arg_a+D'1'
0194  1FCF  	BTFSS FCD_LCDDis_00054_1_tmp_int+D'1',7
0195  299C  	GOTO	label22
0196  09D1  	COMF __div_16_1_00003_arg_a, F
0197  09D2  	COMF __div_16_1_00003_arg_a+D'1', F
0198  0AD1  	INCF __div_16_1_00003_arg_a, F
0199  1903  	BTFSC STATUS,Z
019A  0AD2  	INCF __div_16_1_00003_arg_a+D'1', F
019B  0AD5  	INCF CompTempVar2209, F
019C        label22
019C  3010  	MOVLW 0x10
019D  00D3  	MOVWF __div_16_1_00003_arg_b
019E  3027  	MOVLW 0x27
019F  00D4  	MOVWF __div_16_1_00003_arg_b+D'1'
01A0  205E  	CALL __div_16_1_00003
01A1  085A  	MOVF CompTempVarRet214, W
01A2  00D0  	MOVWF FCD_LCDDis_00054_1_tmp_byte
01A3  1C55  	BTFSS CompTempVar2209,0
01A4  29A7  	GOTO	label23
01A5  09D0  	COMF FCD_LCDDis_00054_1_tmp_byte, F
01A6  0AD0  	INCF FCD_LCDDis_00054_1_tmp_byte, F
01A7        label23
01A7  0850  	MOVF FCD_LCDDis_00054_1_tmp_byte, W
01A8  3E30  	ADDLW 0x30
01A9  00DD  	MOVWF FCD_LCDDis_00056_arg_in
01AA  3010  	MOVLW 0x10
01AB  00DE  	MOVWF FCD_LCDDis_00056_arg_mask
01AC  208B  	CALL FCD_LCDDis_00056
01AD        label24
01AD  0850  	MOVF FCD_LCDDis_00054_1_tmp_byte, W
01AE  3C00  	SUBLW 0x00
01AF  1803  	BTFSC STATUS,C
01B0  29B9  	GOTO	label25
01B1  3010  	MOVLW 0x10
01B2  02CE  	SUBWF FCD_LCDDis_00054_1_tmp_int, F
01B3  3027  	MOVLW 0x27
01B4  1C03  	BTFSS STATUS,C
01B5  3028  	MOVLW 0x28
01B6  02CF  	SUBWF FCD_LCDDis_00054_1_tmp_int+D'1', F
01B7  03D0  	DECF FCD_LCDDis_00054_1_tmp_byte, F
01B8  29AD  	GOTO	label24
01B9        label25
01B9  3003  	MOVLW 0x03
01BA  024D  	SUBWF FCD_LCDDis_00054_arg_Number+D'1', W
01BB  1D03  	BTFSS STATUS,Z
01BC  29BF  	GOTO	label26
01BD  30E8  	MOVLW 0xE8
01BE  024C  	SUBWF FCD_LCDDis_00054_arg_Number, W
01BF        label26
01BF  1C03  	BTFSS STATUS,C
01C0  29EF  	GOTO	label30
01C1  1BCD  	BTFSC FCD_LCDDis_00054_arg_Number+D'1',7
01C2  29EF  	GOTO	label30
01C3  01D6  	CLRF CompTempVar2213
01C4  084E  	MOVF FCD_LCDDis_00054_1_tmp_int, W
01C5  00D1  	MOVWF __div_16_1_00003_arg_a
01C6  084F  	MOVF FCD_LCDDis_00054_1_tmp_int+D'1', W
01C7  00D2  	MOVWF __div_16_1_00003_arg_a+D'1'
01C8  1FCF  	BTFSS FCD_LCDDis_00054_1_tmp_int+D'1',7
01C9  29D0  	GOTO	label27
01CA  09D1  	COMF __div_16_1_00003_arg_a, F
01CB  09D2  	COMF __div_16_1_00003_arg_a+D'1', F
01CC  0AD1  	INCF __div_16_1_00003_arg_a, F
01CD  1903  	BTFSC STATUS,Z
01CE  0AD2  	INCF __div_16_1_00003_arg_a+D'1', F
01CF  0AD6  	INCF CompTempVar2213, F
01D0        label27
01D0  30E8  	MOVLW 0xE8
01D1  00D3  	MOVWF __div_16_1_00003_arg_b
01D2  3003  	MOVLW 0x03
01D3  00D4  	MOVWF __div_16_1_00003_arg_b+D'1'
01D4  205E  	CALL __div_16_1_00003
01D5  085A  	MOVF CompTempVarRet214, W
01D6  00D5  	MOVWF CompTempVar2212
01D7  1C56  	BTFSS CompTempVar2213,0
01D8  29DB  	GOTO	label28
01D9  09D5  	COMF CompTempVar2212, F
01DA  0AD5  	INCF CompTempVar2212, F
01DB        label28
01DB  0855  	MOVF CompTempVar2212, W
01DC  00D0  	MOVWF FCD_LCDDis_00054_1_tmp_byte
01DD  0850  	MOVF FCD_LCDDis_00054_1_tmp_byte, W
01DE  3E30  	ADDLW 0x30
01DF  00DD  	MOVWF FCD_LCDDis_00056_arg_in
01E0  3010  	MOVLW 0x10
01E1  00DE  	MOVWF FCD_LCDDis_00056_arg_mask
01E2  208B  	CALL FCD_LCDDis_00056
01E3        label29
01E3  0850  	MOVF FCD_LCDDis_00054_1_tmp_byte, W
01E4  3C00  	SUBLW 0x00
01E5  1803  	BTFSC STATUS,C
01E6  29EF  	GOTO	label30
01E7  30E8  	MOVLW 0xE8
01E8  02CE  	SUBWF FCD_LCDDis_00054_1_tmp_int, F
01E9  3003  	MOVLW 0x03
01EA  1C03  	BTFSS STATUS,C
01EB  3004  	MOVLW 0x04
01EC  02CF  	SUBWF FCD_LCDDis_00054_1_tmp_int+D'1', F
01ED  03D0  	DECF FCD_LCDDis_00054_1_tmp_byte, F
01EE  29E3  	GOTO	label29
01EF        label30
01EF  084D  	MOVF FCD_LCDDis_00054_arg_Number+D'1', W
01F0  3A80  	XORLW 0x80
01F1  00D1  	MOVWF CompTempVar2216
01F2  3080  	MOVLW 0x80
01F3  0251  	SUBWF CompTempVar2216, W
01F4  1D03  	BTFSS STATUS,Z
01F5  29F8  	GOTO	label31
01F6  3064  	MOVLW 0x64
01F7  024C  	SUBWF FCD_LCDDis_00054_arg_Number, W
01F8        label31
01F8  1C03  	BTFSS STATUS,C
01F9  2A24  	GOTO	label35
01FA  01D6  	CLRF CompTempVar2218
01FB  084E  	MOVF FCD_LCDDis_00054_1_tmp_int, W
01FC  00D1  	MOVWF __div_16_1_00003_arg_a
01FD  084F  	MOVF FCD_LCDDis_00054_1_tmp_int+D'1', W
01FE  00D2  	MOVWF __div_16_1_00003_arg_a+D'1'
01FF  1FCF  	BTFSS FCD_LCDDis_00054_1_tmp_int+D'1',7
0200  2A07  	GOTO	label32
0201  09D1  	COMF __div_16_1_00003_arg_a, F
0202  09D2  	COMF __div_16_1_00003_arg_a+D'1', F
0203  0AD1  	INCF __div_16_1_00003_arg_a, F
0204  1903  	BTFSC STATUS,Z
0205  0AD2  	INCF __div_16_1_00003_arg_a+D'1', F
0206  0AD6  	INCF CompTempVar2218, F
0207        label32
0207  3064  	MOVLW 0x64
0208  00D3  	MOVWF __div_16_1_00003_arg_b
0209  01D4  	CLRF __div_16_1_00003_arg_b+D'1'
020A  205E  	CALL __div_16_1_00003
020B  085A  	MOVF CompTempVarRet214, W
020C  00D5  	MOVWF CompTempVar2217
020D  1C56  	BTFSS CompTempVar2218,0
020E  2A11  	GOTO	label33
020F  09D5  	COMF CompTempVar2217, F
0210  0AD5  	INCF CompTempVar2217, F
0211        label33
0211  0855  	MOVF CompTempVar2217, W
0212  00D0  	MOVWF FCD_LCDDis_00054_1_tmp_byte
0213  0850  	MOVF FCD_LCDDis_00054_1_tmp_byte, W
0214  3E30  	ADDLW 0x30
0215  00DD  	MOVWF FCD_LCDDis_00056_arg_in
0216  3010  	MOVLW 0x10
0217  00DE  	MOVWF FCD_LCDDis_00056_arg_mask
0218  208B  	CALL FCD_LCDDis_00056
0219        label34
0219  0850  	MOVF FCD_LCDDis_00054_1_tmp_byte, W
021A  3C00  	SUBLW 0x00
021B  1803  	BTFSC STATUS,C
021C  2A24  	GOTO	label35
021D  3064  	MOVLW 0x64
021E  02CE  	SUBWF FCD_LCDDis_00054_1_tmp_int, F
021F  08CF  	MOVF FCD_LCDDis_00054_1_tmp_int+D'1', F
0220  1C03  	BTFSS STATUS,C
0221  03CF  	DECF FCD_LCDDis_00054_1_tmp_int+D'1', F
0222  03D0  	DECF FCD_LCDDis_00054_1_tmp_byte, F
0223  2A19  	GOTO	label34
0224        label35
0224  084D  	MOVF FCD_LCDDis_00054_arg_Number+D'1', W
0225  3A80  	XORLW 0x80
0226  00D1  	MOVWF CompTempVar2221
0227  3080  	MOVLW 0x80
0228  0251  	SUBWF CompTempVar2221, W
0229  1D03  	BTFSS STATUS,Z
022A  2A2D  	GOTO	label36
022B  300A  	MOVLW 0x0A
022C  024C  	SUBWF FCD_LCDDis_00054_arg_Number, W
022D        label36
022D  1C03  	BTFSS STATUS,C
022E  2A59  	GOTO	label40
022F  01D6  	CLRF CompTempVar2223
0230  084E  	MOVF FCD_LCDDis_00054_1_tmp_int, W
0231  00D1  	MOVWF __div_16_1_00003_arg_a
0232  084F  	MOVF FCD_LCDDis_00054_1_tmp_int+D'1', W
0233  00D2  	MOVWF __div_16_1_00003_arg_a+D'1'
0234  1FCF  	BTFSS FCD_LCDDis_00054_1_tmp_int+D'1',7
0235  2A3C  	GOTO	label37
0236  09D1  	COMF __div_16_1_00003_arg_a, F
0237  09D2  	COMF __div_16_1_00003_arg_a+D'1', F
0238  0AD1  	INCF __div_16_1_00003_arg_a, F
0239  1903  	BTFSC STATUS,Z
023A  0AD2  	INCF __div_16_1_00003_arg_a+D'1', F
023B  0AD6  	INCF CompTempVar2223, F
023C        label37
023C  300A  	MOVLW 0x0A
023D  00D3  	MOVWF __div_16_1_00003_arg_b
023E  01D4  	CLRF __div_16_1_00003_arg_b+D'1'
023F  205E  	CALL __div_16_1_00003
0240  085A  	MOVF CompTempVarRet214, W
0241  00D5  	MOVWF CompTempVar2222
0242  1C56  	BTFSS CompTempVar2223,0
0243  2A46  	GOTO	label38
0244  09D5  	COMF CompTempVar2222, F
0245  0AD5  	INCF CompTempVar2222, F
0246        label38
0246  0855  	MOVF CompTempVar2222, W
0247  00D0  	MOVWF FCD_LCDDis_00054_1_tmp_byte
0248  0850  	MOVF FCD_LCDDis_00054_1_tmp_byte, W
0249  3E30  	ADDLW 0x30
024A  00DD  	MOVWF FCD_LCDDis_00056_arg_in
024B  3010  	MOVLW 0x10
024C  00DE  	MOVWF FCD_LCDDis_00056_arg_mask
024D  208B  	CALL FCD_LCDDis_00056
024E        label39
024E  0850  	MOVF FCD_LCDDis_00054_1_tmp_byte, W
024F  3C00  	SUBLW 0x00
0250  1803  	BTFSC STATUS,C
0251  2A59  	GOTO	label40
0252  300A  	MOVLW 0x0A
0253  02CE  	SUBWF FCD_LCDDis_00054_1_tmp_int, F
0254  08CF  	MOVF FCD_LCDDis_00054_1_tmp_int+D'1', F
0255  1C03  	BTFSS STATUS,C
0256  03CF  	DECF FCD_LCDDis_00054_1_tmp_int+D'1', F
0257  03D0  	DECF FCD_LCDDis_00054_1_tmp_byte, F
0258  2A4E  	GOTO	label39
0259        label40
0259  084E  	MOVF FCD_LCDDis_00054_1_tmp_int, W
025A  3E30  	ADDLW 0x30
025B  00DD  	MOVWF FCD_LCDDis_00056_arg_in
025C  3010  	MOVLW 0x10
025D  00DE  	MOVWF FCD_LCDDis_00056_arg_mask
025E  208B  	CALL FCD_LCDDis_00056
025F  0008  	RETURN
0260        ; } FCD_LCDDisplay0_PrintNumber function end

	ORG 0x00000260
0260        FCD_LCDDis_00053
0260        ; { FCD_LCDDisplay0_PrintString ; function begin
0260  01DC  	CLRF FCD_LCDDis_00053_1_idx
0261  01DC  	CLRF FCD_LCDDis_00053_1_idx
0262        label41
0262  085B  	MOVF FCD_LCDDis_00053_arg_MSZ_String, W
0263  025C  	SUBWF FCD_LCDDis_00053_1_idx, W
0264  1803  	BTFSC STATUS,C
0265  0008  	RETURN
0266  1383  	BCF STATUS,IRP
0267  184D  	BTFSC FCD_LCDDis_00053_arg_String+D'1',0
0268  1783  	BSF STATUS,IRP
0269  084C  	MOVF FCD_LCDDis_00053_arg_String, W
026A  075C  	ADDWF FCD_LCDDis_00053_1_idx, W
026B  0084  	MOVWF FSR
026C  0880  	MOVF INDF, F
026D  1903  	BTFSC STATUS,Z
026E  0008  	RETURN
026F  1383  	BCF STATUS,IRP
0270  184D  	BTFSC FCD_LCDDis_00053_arg_String+D'1',0
0271  1783  	BSF STATUS,IRP
0272  084C  	MOVF FCD_LCDDis_00053_arg_String, W
0273  075C  	ADDWF FCD_LCDDis_00053_1_idx, W
0274  0084  	MOVWF FSR
0275  0800  	MOVF INDF, W
0276  00DD  	MOVWF FCD_LCDDis_00056_arg_in
0277  3010  	MOVLW 0x10
0278  00DE  	MOVWF FCD_LCDDis_00056_arg_mask
0279  208B  	CALL FCD_LCDDis_00056
027A  0ADC  	INCF FCD_LCDDis_00053_1_idx, F
027B  2A62  	GOTO	label41
027C        ; } FCD_LCDDisplay0_PrintString function end

	ORG 0x0000027C
027C        FCD_LCDDis_00052
027C        ; { FCD_LCDDisplay0_Cursor ; function begin
027C  08CE  	MOVF FCD_LCDDis_00052_arg_y, F
027D  1D03  	BTFSS STATUS,Z
027E  2A82  	GOTO	label42
027F  3080  	MOVLW 0x80
0280  00CE  	MOVWF FCD_LCDDis_00052_arg_y
0281  2A91  	GOTO	label45
0282        label42
0282  034E  	DECF FCD_LCDDis_00052_arg_y, W
0283  1D03  	BTFSS STATUS,Z
0284  2A88  	GOTO	label43
0285  30C0  	MOVLW 0xC0
0286  00CE  	MOVWF FCD_LCDDis_00052_arg_y
0287  2A91  	GOTO	label45
0288        label43
0288  084E  	MOVF FCD_LCDDis_00052_arg_y, W
0289  3A02  	XORLW 0x02
028A  1D03  	BTFSS STATUS,Z
028B  2A8F  	GOTO	label44
028C  3090  	MOVLW 0x90
028D  00CE  	MOVWF FCD_LCDDis_00052_arg_y
028E  2A91  	GOTO	label45
028F        label44
028F  30D0  	MOVLW 0xD0
0290  00CE  	MOVWF FCD_LCDDis_00052_arg_y
0291        label45
0291  084D  	MOVF FCD_LCDDis_00052_arg_x, W
0292  074E  	ADDWF FCD_LCDDis_00052_arg_y, W
0293  00DD  	MOVWF FCD_LCDDis_00056_arg_in
0294  01DE  	CLRF FCD_LCDDis_00056_arg_mask
0295  208B  	CALL FCD_LCDDis_00056
0296  3002  	MOVLW 0x02
0297  00CF  	MOVWF Wdt_Delay__0003E_arg_delay
0298  207D  	CALL Wdt_Delay__0003E
0299  0008  	RETURN
029A        ; } FCD_LCDDisplay0_Cursor function end

	ORG 0x0000029A
029A        __mul_8u_8_00006
029A        ; { __mul_8u_8u ; function begin
029A  01CC  	CLRF __mul_8u_8_00006_1_i
029B  01CF  	CLRF CompTempVarRet452
029C  01D0  	CLRF CompTempVarRet452+D'1'
029D  084A  	MOVF __mul_8u_8_00006_arg_a, W
029E  00CD  	MOVWF __mul_8u_8_00006_1_t
029F  01CE  	CLRF __mul_8u_8_00006_1_t+D'1'
02A0        label46
02A0  19CC  	BTFSC __mul_8u_8_00006_1_i,3
02A1  0008  	RETURN
02A2  1C4B  	BTFSS __mul_8u_8_00006_arg_b,0
02A3  2AAA  	GOTO	label47
02A4  084D  	MOVF __mul_8u_8_00006_1_t, W
02A5  07CF  	ADDWF CompTempVarRet452, F
02A6  1803  	BTFSC gbl_status,0
02A7  0AD0  	INCF CompTempVarRet452+D'1', F
02A8  084E  	MOVF __mul_8u_8_00006_1_t+D'1', W
02A9  07D0  	ADDWF CompTempVarRet452+D'1', F
02AA        label47
02AA  0CCB  	RRF __mul_8u_8_00006_arg_b, F
02AB  1003  	BCF gbl_status,0
02AC  0DCD  	RLF __mul_8u_8_00006_1_t, F
02AD  0DCE  	RLF __mul_8u_8_00006_1_t+D'1', F
02AE  0ACC  	INCF __mul_8u_8_00006_1_i, F
02AF  2AA0  	GOTO	label46
02B0        ; } __mul_8u_8u function end

	ORG 0x000002B0
02B0        FCM_displa_00051
02B0        ; { FCM_display ; function begin
02B0  3002  	MOVLW 0x02
02B1  1283  	BCF STATUS, RP0
02B2  1303  	BCF STATUS, RP1
02B3  00CD  	MOVWF FCD_LCDDis_00052_arg_x
02B4  01CE  	CLRF FCD_LCDDis_00052_arg_y
02B5  227C  	CALL FCD_LCDDis_00052
02B6  3020  	MOVLW 0x20
02B7  00D3  	MOVWF CompTempVar2188+D'5'
02B8  3021  	MOVLW 0x21
02B9  00D9  	MOVWF CompTempVar2188+D'11'
02BA  3044  	MOVLW 0x44
02BB  00D8  	MOVWF CompTempVar2188+D'10'
02BC  3045  	MOVLW 0x45
02BD  00CF  	MOVWF CompTempVar2188+D'1'
02BE  3048  	MOVLW 0x48
02BF  00CE  	MOVWF CompTempVar2188
02C0  304C  	MOVLW 0x4C
02C1  00D0  	MOVWF CompTempVar2188+D'2'
02C2  00D1  	MOVWF CompTempVar2188+D'3'
02C3  00D7  	MOVWF CompTempVar2188+D'9'
02C4  304F  	MOVLW 0x4F
02C5  00D2  	MOVWF CompTempVar2188+D'4'
02C6  00D5  	MOVWF CompTempVar2188+D'7'
02C7  3052  	MOVLW 0x52
02C8  00D6  	MOVWF CompTempVar2188+D'8'
02C9  3057  	MOVLW 0x57
02CA  00D4  	MOVWF CompTempVar2188+D'6'
02CB  01DA  	CLRF CompTempVar2188+D'12'
02CC  3000  	MOVLW HIGH(CompTempVar2188+D'0')
02CD  00CD  	MOVWF FCD_LCDDis_00053_arg_String+D'1'
02CE  304E  	MOVLW LOW(CompTempVar2188+D'0')
02CF  00CC  	MOVWF FCD_LCDDis_00053_arg_String
02D0  300C  	MOVLW 0x0C
02D1  00DB  	MOVWF FCD_LCDDis_00053_arg_MSZ_String
02D2  2260  	CALL FCD_LCDDis_00053
02D3  01CD  	CLRF FCD_LCDDis_00052_arg_x
02D4  3001  	MOVLW 0x01
02D5  00CE  	MOVWF FCD_LCDDis_00052_arg_y
02D6  227C  	CALL FCD_LCDDis_00052
02D7  01CD  	CLRF FCD_LCDDis_00054_arg_Number+D'1'
02D8  01CC  	CLRF FCD_LCDDis_00054_arg_Number
02D9  18C5  	BTFSC gbl_FCV_B_SW0,1
02DA  0ACC  	INCF FCD_LCDDis_00054_arg_Number, F
02DB  2172  	CALL FCD_LCDDis_00054
02DC  01CD  	CLRF FCD_LCDDis_00052_arg_x
02DD  3002  	MOVLW 0x02
02DE  00CE  	MOVWF FCD_LCDDis_00052_arg_y
02DF  227C  	CALL FCD_LCDDis_00052
02E0  01CD  	CLRF FCD_LCDDis_00054_arg_Number+D'1'
02E1  01CC  	CLRF FCD_LCDDis_00054_arg_Number
02E2  1945  	BTFSC gbl_FCV_B_SW1,2
02E3  0ACC  	INCF FCD_LCDDis_00054_arg_Number, F
02E4  2172  	CALL FCD_LCDDis_00054
02E5  01CD  	CLRF FCD_LCDDis_00052_arg_x
02E6  3003  	MOVLW 0x03
02E7  00CE  	MOVWF FCD_LCDDis_00052_arg_y
02E8  227C  	CALL FCD_LCDDis_00052
02E9  0844  	MOVF gbl_FCV_B_SW2, W
02EA  00CC  	MOVWF FCD_LCDDis_00054_arg_Number
02EB  01CD  	CLRF FCD_LCDDis_00054_arg_Number+D'1'
02EC  2172  	CALL FCD_LCDDis_00054
02ED  3003  	MOVLW 0x03
02EE  00CD  	MOVWF FCD_LCDDis_00052_arg_x
02EF  3001  	MOVLW 0x01
02F0  00CE  	MOVWF FCD_LCDDis_00052_arg_y
02F1  227C  	CALL FCD_LCDDis_00052
02F2  1C45  	BTFSS gbl_FCV_FLAG0,0
02F3  2B1A  	GOTO	label48
02F4  304F  	MOVLW 0x4F
02F5  00CE  	MOVWF CompTempVar2190
02F6  304E  	MOVLW 0x4E
02F7  00CF  	MOVWF CompTempVar2190+D'1'
02F8  01D0  	CLRF CompTempVar2190+D'2'
02F9  3000  	MOVLW HIGH(CompTempVar2190+D'0')
02FA  00CD  	MOVWF FCD_LCDDis_00053_arg_String+D'1'
02FB  304E  	MOVLW LOW(CompTempVar2190+D'0')
02FC  00CC  	MOVWF FCD_LCDDis_00053_arg_String
02FD  3002  	MOVLW 0x02
02FE  00DB  	MOVWF FCD_LCDDis_00053_arg_MSZ_String
02FF  2260  	CALL FCD_LCDDis_00053
0300  0846  	MOVF gbl_FCV_ANALOG0, W
0301  00CA  	MOVWF FCD_PWM0_S_00055_arg_nDuty
0302  216E  	CALL FCD_PWM0_S_00055
0303  3003  	MOVLW 0x03
0304  00CD  	MOVWF FCD_LCDDis_00052_arg_x
0305  3002  	MOVLW 0x02
0306  00CE  	MOVWF FCD_LCDDis_00052_arg_y
0307  227C  	CALL FCD_LCDDis_00052
0308  0847  	MOVF gbl_FCV_BRIGHTNESS, W
0309  00CC  	MOVWF FCD_LCDDis_00054_arg_Number
030A  01CD  	CLRF FCD_LCDDis_00054_arg_Number+D'1'
030B  2172  	CALL FCD_LCDDis_00054
030C  3025  	MOVLW 0x25
030D  00CE  	MOVWF CompTempVar2192
030E  3020  	MOVLW 0x20
030F  00CF  	MOVWF CompTempVar2192+D'1'
0310  00D0  	MOVWF CompTempVar2192+D'2'
0311  01D1  	CLRF CompTempVar2192+D'3'
0312  3000  	MOVLW HIGH(CompTempVar2192+D'0')
0313  00CD  	MOVWF FCD_LCDDis_00053_arg_String+D'1'
0314  304E  	MOVLW LOW(CompTempVar2192+D'0')
0315  00CC  	MOVWF FCD_LCDDis_00053_arg_String
0316  3003  	MOVLW 0x03
0317  00DB  	MOVWF FCD_LCDDis_00053_arg_MSZ_String
0318  2260  	CALL FCD_LCDDis_00053
0319  2B29  	GOTO	label49
031A        label48
031A  304F  	MOVLW 0x4F
031B  00CE  	MOVWF CompTempVar2194
031C  3046  	MOVLW 0x46
031D  00CF  	MOVWF CompTempVar2194+D'1'
031E  00D0  	MOVWF CompTempVar2194+D'2'
031F  01D1  	CLRF CompTempVar2194+D'3'
0320  3000  	MOVLW HIGH(CompTempVar2194+D'0')
0321  00CD  	MOVWF FCD_LCDDis_00053_arg_String+D'1'
0322  304E  	MOVLW LOW(CompTempVar2194+D'0')
0323  00CC  	MOVWF FCD_LCDDis_00053_arg_String
0324  3003  	MOVLW 0x03
0325  00DB  	MOVWF FCD_LCDDis_00053_arg_MSZ_String
0326  2260  	CALL FCD_LCDDis_00053
0327  01CA  	CLRF FCD_PWM0_S_00055_arg_nDuty
0328  216E  	CALL FCD_PWM0_S_00055
0329        label49
0329  300A  	MOVLW 0x0A
032A  0246  	SUBWF gbl_FCV_ANALOG0, W
032B  1803  	BTFSC STATUS,C
032C  2B42  	GOTO	label50
032D  300D  	MOVLW 0x0D
032E  00CD  	MOVWF FCD_LCDDis_00052_arg_x
032F  3003  	MOVLW 0x03
0330  00CE  	MOVWF FCD_LCDDis_00052_arg_y
0331  227C  	CALL FCD_LCDDis_00052
0332  3020  	MOVLW 0x20
0333  00CE  	MOVWF CompTempVar2196
0334  00CF  	MOVWF CompTempVar2196+D'1'
0335  01D0  	CLRF CompTempVar2196+D'2'
0336  3000  	MOVLW HIGH(CompTempVar2196+D'0')
0337  00CD  	MOVWF FCD_LCDDis_00053_arg_String+D'1'
0338  304E  	MOVLW LOW(CompTempVar2196+D'0')
0339  00CC  	MOVWF FCD_LCDDis_00053_arg_String
033A  3002  	MOVLW 0x02
033B  00DB  	MOVWF FCD_LCDDis_00053_arg_MSZ_String
033C  2260  	CALL FCD_LCDDis_00053
033D  0846  	MOVF gbl_FCV_ANALOG0, W
033E  00CC  	MOVWF FCD_LCDDis_00054_arg_Number
033F  01CD  	CLRF FCD_LCDDis_00054_arg_Number+D'1'
0340  2172  	CALL FCD_LCDDis_00054
0341  0008  	RETURN
0342        label50
0342  01CB  	CLRF CompTempVar2199
0343  3064  	MOVLW 0x64
0344  0246  	SUBWF gbl_FCV_ANALOG0, W
0345  1C03  	BTFSS STATUS,C
0346  0ACB  	INCF CompTempVar2199, F
0347  01CA  	CLRF CompTempVar2198
0348  0846  	MOVF gbl_FCV_ANALOG0, W
0349  3C09  	SUBLW 0x09
034A  1C03  	BTFSS STATUS,C
034B  0ACA  	INCF CompTempVar2198, F
034C  084A  	MOVF CompTempVar2198, W
034D  054B  	ANDWF CompTempVar2199, W
034E  1903  	BTFSC STATUS,Z
034F  2B64  	GOTO	label51
0350  300D  	MOVLW 0x0D
0351  00CD  	MOVWF FCD_LCDDis_00052_arg_x
0352  3003  	MOVLW 0x03
0353  00CE  	MOVWF FCD_LCDDis_00052_arg_y
0354  227C  	CALL FCD_LCDDis_00052
0355  3020  	MOVLW 0x20
0356  00CE  	MOVWF CompTempVar2200
0357  01CF  	CLRF CompTempVar2200+D'1'
0358  3000  	MOVLW HIGH(CompTempVar2200+D'0')
0359  00CD  	MOVWF FCD_LCDDis_00053_arg_String+D'1'
035A  304E  	MOVLW LOW(CompTempVar2200+D'0')
035B  00CC  	MOVWF FCD_LCDDis_00053_arg_String
035C  3001  	MOVLW 0x01
035D  00DB  	MOVWF FCD_LCDDis_00053_arg_MSZ_String
035E  2260  	CALL FCD_LCDDis_00053
035F  0846  	MOVF gbl_FCV_ANALOG0, W
0360  00CC  	MOVWF FCD_LCDDis_00054_arg_Number
0361  01CD  	CLRF FCD_LCDDis_00054_arg_Number+D'1'
0362  2172  	CALL FCD_LCDDis_00054
0363  0008  	RETURN
0364        label51
0364  300D  	MOVLW 0x0D
0365  00CD  	MOVWF FCD_LCDDis_00052_arg_x
0366  3003  	MOVLW 0x03
0367  00CE  	MOVWF FCD_LCDDis_00052_arg_y
0368  227C  	CALL FCD_LCDDis_00052
0369  0846  	MOVF gbl_FCV_ANALOG0, W
036A  00CC  	MOVWF FCD_LCDDis_00054_arg_Number
036B  01CD  	CLRF FCD_LCDDis_00054_arg_Number+D'1'
036C  2172  	CALL FCD_LCDDis_00054
036D  0008  	RETURN
036E        ; } FCM_display function end

	ORG 0x0000036E
036E        FCD_PWM0_E_00073
036E        ; { FCD_PWM0_Enable ; function begin
036E  30FF  	MOVLW 0xFF
036F  1283  	BCF STATUS, RP0
0370  1303  	BCF STATUS, RP1
0371  00CA  	MOVWF FC_CAL_PWM_00071_arg_period
0372  3001  	MOVLW 0x01
0373  00CB  	MOVWF FC_CAL_PWM_00071_arg_prescaler
0374  01CC  	CLRF FC_CAL_PWM_00071_arg_prescaler+D'1'
0375  20F0  	CALL FC_CAL_PWM_00071
0376  2110  	CALL FC_CAL_PWM_0006E
0377  0008  	RETURN
0378        ; } FCD_PWM0_Enable function end

	ORG 0x00000378
0378        FCD_LCDDis_0005D
0378        ; { FCD_LCDDisplay0_ClearLine ; function begin
0378  3010  	MOVLW 0x10
0379  00CC  	MOVWF FCD_LCDDis_0005D_1_rowcount
037A  01CD  	CLRF FCD_LCDDis_00052_arg_x
037B  084A  	MOVF FCD_LCDDis_0005D_arg_Line, W
037C  00CE  	MOVWF FCD_LCDDis_00052_arg_y
037D  227C  	CALL FCD_LCDDis_00052
037E  01CB  	CLRF FCD_LCDDis_0005D_1_count
037F        label52
037F  084C  	MOVF FCD_LCDDis_0005D_1_rowcount, W
0380  024B  	SUBWF FCD_LCDDis_0005D_1_count, W
0381  1803  	BTFSC STATUS,C
0382  2B8A  	GOTO	label53
0383  3020  	MOVLW 0x20
0384  00DD  	MOVWF FCD_LCDDis_00056_arg_in
0385  3010  	MOVLW 0x10
0386  00DE  	MOVWF FCD_LCDDis_00056_arg_mask
0387  208B  	CALL FCD_LCDDis_00056
0388  0ACB  	INCF FCD_LCDDis_0005D_1_count, F
0389  2B7F  	GOTO	label52
038A        label53
038A  01CD  	CLRF FCD_LCDDis_00052_arg_x
038B  084A  	MOVF FCD_LCDDis_0005D_arg_Line, W
038C  00CE  	MOVWF FCD_LCDDis_00052_arg_y
038D  227C  	CALL FCD_LCDDis_00052
038E  0008  	RETURN
038F        ; } FCD_LCDDisplay0_ClearLine function end

	ORG 0x0000038F
038F        FCD_LCDDis_00058
038F        ; { FCD_LCDDisplay0_Clear ; function begin
038F  3001  	MOVLW 0x01
0390  1283  	BCF STATUS, RP0
0391  1303  	BCF STATUS, RP1
0392  00DD  	MOVWF FCD_LCDDis_00056_arg_in
0393  01DE  	CLRF FCD_LCDDis_00056_arg_mask
0394  208B  	CALL FCD_LCDDis_00056
0395  3002  	MOVLW 0x02
0396  00CF  	MOVWF Wdt_Delay__0003E_arg_delay
0397  207D  	CALL Wdt_Delay__0003E
0398  3002  	MOVLW 0x02
0399  00DD  	MOVWF FCD_LCDDis_00056_arg_in
039A  01DE  	CLRF FCD_LCDDis_00056_arg_mask
039B  208B  	CALL FCD_LCDDis_00056
039C  3002  	MOVLW 0x02
039D  00CF  	MOVWF Wdt_Delay__0003E_arg_delay
039E  207D  	CALL Wdt_Delay__0003E
039F  0008  	RETURN
03A0        ; } FCD_LCDDisplay0_Clear function end

	ORG 0x000003A0
03A0        FCD_LCDDis_00057
03A0        ; { FCD_LCDDisplay0_Start ; function begin
03A0  1683  	BSF STATUS, RP0
03A1  1303  	BCF STATUS, RP1
03A2  1106  	BCF gbl_trisb,2
03A3  1283  	BCF STATUS, RP0
03A4  1106  	BCF gbl_portb,2
03A5  1683  	BSF STATUS, RP0
03A6  1186  	BCF gbl_trisb,3
03A7  1283  	BCF STATUS, RP0
03A8  1186  	BCF gbl_portb,3
03A9  1683  	BSF STATUS, RP0
03AA  1206  	BCF gbl_trisb,4
03AB  1283  	BCF STATUS, RP0
03AC  1206  	BCF gbl_portb,4
03AD  1683  	BSF STATUS, RP0
03AE  1286  	BCF gbl_trisb,5
03AF  1283  	BCF STATUS, RP0
03B0  1286  	BCF gbl_portb,5
03B1  1683  	BSF STATUS, RP0
03B2  1006  	BCF gbl_trisb,0
03B3  1283  	BCF STATUS, RP0
03B4  1006  	BCF gbl_portb,0
03B5  1683  	BSF STATUS, RP0
03B6  1086  	BCF gbl_trisb,1
03B7  1283  	BCF STATUS, RP0
03B8  1086  	BCF gbl_portb,1
03B9  300C  	MOVLW 0x0C
03BA  00CF  	MOVWF Wdt_Delay__0003E_arg_delay
03BB  207D  	CALL Wdt_Delay__0003E
03BC  3033  	MOVLW 0x33
03BD  00DD  	MOVWF FCD_LCDDis_00056_arg_in
03BE  01DE  	CLRF FCD_LCDDis_00056_arg_mask
03BF  208B  	CALL FCD_LCDDis_00056
03C0  3002  	MOVLW 0x02
03C1  00CF  	MOVWF Wdt_Delay__0003E_arg_delay
03C2  207D  	CALL Wdt_Delay__0003E
03C3  3033  	MOVLW 0x33
03C4  00DD  	MOVWF FCD_LCDDis_00056_arg_in
03C5  01DE  	CLRF FCD_LCDDis_00056_arg_mask
03C6  208B  	CALL FCD_LCDDis_00056
03C7  3002  	MOVLW 0x02
03C8  00CF  	MOVWF Wdt_Delay__0003E_arg_delay
03C9  207D  	CALL Wdt_Delay__0003E
03CA  3032  	MOVLW 0x32
03CB  00DD  	MOVWF FCD_LCDDis_00056_arg_in
03CC  01DE  	CLRF FCD_LCDDis_00056_arg_mask
03CD  208B  	CALL FCD_LCDDis_00056
03CE  3002  	MOVLW 0x02
03CF  00CF  	MOVWF Wdt_Delay__0003E_arg_delay
03D0  207D  	CALL Wdt_Delay__0003E
03D1  302C  	MOVLW 0x2C
03D2  00DD  	MOVWF FCD_LCDDis_00056_arg_in
03D3  01DE  	CLRF FCD_LCDDis_00056_arg_mask
03D4  208B  	CALL FCD_LCDDis_00056
03D5  3002  	MOVLW 0x02
03D6  00CF  	MOVWF Wdt_Delay__0003E_arg_delay
03D7  207D  	CALL Wdt_Delay__0003E
03D8  3006  	MOVLW 0x06
03D9  00DD  	MOVWF FCD_LCDDis_00056_arg_in
03DA  01DE  	CLRF FCD_LCDDis_00056_arg_mask
03DB  208B  	CALL FCD_LCDDis_00056
03DC  3002  	MOVLW 0x02
03DD  00CF  	MOVWF Wdt_Delay__0003E_arg_delay
03DE  207D  	CALL Wdt_Delay__0003E
03DF  300C  	MOVLW 0x0C
03E0  00DD  	MOVWF FCD_LCDDis_00056_arg_in
03E1  01DE  	CLRF FCD_LCDDis_00056_arg_mask
03E2  208B  	CALL FCD_LCDDis_00056
03E3  3002  	MOVLW 0x02
03E4  00CF  	MOVWF Wdt_Delay__0003E_arg_delay
03E5  207D  	CALL Wdt_Delay__0003E
03E6  3001  	MOVLW 0x01
03E7  00DD  	MOVWF FCD_LCDDis_00056_arg_in
03E8  01DE  	CLRF FCD_LCDDis_00056_arg_mask
03E9  208B  	CALL FCD_LCDDis_00056
03EA  3002  	MOVLW 0x02
03EB  00CF  	MOVWF Wdt_Delay__0003E_arg_delay
03EC  207D  	CALL Wdt_Delay__0003E
03ED  3002  	MOVLW 0x02
03EE  00DD  	MOVWF FCD_LCDDis_00056_arg_in
03EF  01DE  	CLRF FCD_LCDDis_00056_arg_mask
03F0  208B  	CALL FCD_LCDDis_00056
03F1  3002  	MOVLW 0x02
03F2  00CF  	MOVWF Wdt_Delay__0003E_arg_delay
03F3  207D  	CALL Wdt_Delay__0003E
03F4  0008  	RETURN
03F5        ; } FCD_LCDDisplay0_Start function end

	ORG 0x000003F5
03F5        FCD_ADC0_R_00063
03F5        ; { FCD_ADC0_ReadAsByte ; function begin
03F5  1283  	BCF STATUS, RP0
03F6  1303  	BCF STATUS, RP1
03F7  01CB  	CLRF FC_CAL_Ena_0005F_arg_Channel
03F8  3003  	MOVLW 0x03
03F9  00CC  	MOVWF FC_CAL_Ena_0005F_arg_Conv_Speed
03FA  01CD  	CLRF FC_CAL_Ena_0005F_arg_Vref
03FB  3028  	MOVLW 0x28
03FC  00CE  	MOVWF FC_CAL_Ena_0005F_arg_T_Charge
03FD  2118  	CALL FC_CAL_Ena_0005F
03FE  01CB  	CLRF FC_CAL_Sam_00060_arg_Sample_Mode
03FF  20CC  	CALL FC_CAL_Sam_00060
0400  084E  	MOVF CompTempVarRet2238, W
0401  00CA  	MOVWF FCD_ADC0_R_00063_1_retVal
0402  215F  	CALL FC_CAL_Dis_00061
0403  084A  	MOVF FCD_ADC0_R_00063_1_retVal, W
0404  00CB  	MOVWF CompTempVarRet2244
0405  0008  	RETURN
0406        ; } FCD_ADC0_ReadAsByte function end

	ORG 0x00000406
0406        main
0406        ; { main ; function begin
0406  3007  	MOVLW 0x07
0407  1683  	BSF STATUS, RP0
0408  1303  	BCF STATUS, RP1
0409  009F  	MOVWF gbl_adcon1
040A  30C0  	MOVLW 0xC0
040B  0081  	MOVWF gbl_option_reg
040C  23A0  	CALL FCD_LCDDis_00057
040D  238F  	CALL FCD_LCDDis_00058
040E  3003  	MOVLW 0x03
040F  00CD  	MOVWF FCD_LCDDis_00052_arg_x
0410  01CE  	CLRF FCD_LCDDis_00052_arg_y
0411  227C  	CALL FCD_LCDDis_00052
0412  3042  	MOVLW 0x42
0413  00CE  	MOVWF CompTempVar2281
0414  304F  	MOVLW 0x4F
0415  00CF  	MOVWF CompTempVar2281+D'1'
0416  00D0  	MOVWF CompTempVar2281+D'2'
0417  3054  	MOVLW 0x54
0418  00D1  	MOVWF CompTempVar2281+D'3'
0419  3049  	MOVLW 0x49
041A  00D2  	MOVWF CompTempVar2281+D'4'
041B  304E  	MOVLW 0x4E
041C  00D3  	MOVWF CompTempVar2281+D'5'
041D  3047  	MOVLW 0x47
041E  00D4  	MOVWF CompTempVar2281+D'6'
041F  01D5  	CLRF CompTempVar2281+D'7'
0420  3000  	MOVLW HIGH(CompTempVar2281+D'0')
0421  00CD  	MOVWF FCD_LCDDis_00053_arg_String+D'1'
0422  304E  	MOVLW LOW(CompTempVar2281+D'0')
0423  00CC  	MOVWF FCD_LCDDis_00053_arg_String
0424  3007  	MOVLW 0x07
0425  00DB  	MOVWF FCD_LCDDis_00053_arg_MSZ_String
0426  2260  	CALL FCD_LCDDis_00053
0427  3001  	MOVLW 0x01
0428  00CA  	MOVWF delay_s_00000_arg_del
0429  204F  	CALL delay_s_00000
042A  302E  	MOVLW 0x2E
042B  00CE  	MOVWF CompTempVar2283
042C  01CF  	CLRF CompTempVar2283+D'1'
042D  3000  	MOVLW HIGH(CompTempVar2283+D'0')
042E  00CD  	MOVWF FCD_LCDDis_00053_arg_String+D'1'
042F  304E  	MOVLW LOW(CompTempVar2283+D'0')
0430  00CC  	MOVWF FCD_LCDDis_00053_arg_String
0431  3001  	MOVLW 0x01
0432  00DB  	MOVWF FCD_LCDDis_00053_arg_MSZ_String
0433  2260  	CALL FCD_LCDDis_00053
0434  3001  	MOVLW 0x01
0435  00CA  	MOVWF delay_s_00000_arg_del
0436  204F  	CALL delay_s_00000
0437  302E  	MOVLW 0x2E
0438  00CE  	MOVWF CompTempVar2285
0439  01CF  	CLRF CompTempVar2285+D'1'
043A  3000  	MOVLW HIGH(CompTempVar2285+D'0')
043B  00CD  	MOVWF FCD_LCDDis_00053_arg_String+D'1'
043C  304E  	MOVLW LOW(CompTempVar2285+D'0')
043D  00CC  	MOVWF FCD_LCDDis_00053_arg_String
043E  3001  	MOVLW 0x01
043F  00DB  	MOVWF FCD_LCDDis_00053_arg_MSZ_String
0440  2260  	CALL FCD_LCDDis_00053
0441  3001  	MOVLW 0x01
0442  00CA  	MOVWF delay_s_00000_arg_del
0443  204F  	CALL delay_s_00000
0444  302E  	MOVLW 0x2E
0445  00CE  	MOVWF CompTempVar2287
0446  01CF  	CLRF CompTempVar2287+D'1'
0447  3000  	MOVLW HIGH(CompTempVar2287+D'0')
0448  00CD  	MOVWF FCD_LCDDis_00053_arg_String+D'1'
0449  304E  	MOVLW LOW(CompTempVar2287+D'0')
044A  00CC  	MOVWF FCD_LCDDis_00053_arg_String
044B  3001  	MOVLW 0x01
044C  00DB  	MOVWF FCD_LCDDis_00053_arg_MSZ_String
044D  2260  	CALL FCD_LCDDis_00053
044E  3001  	MOVLW 0x01
044F  00CA  	MOVWF delay_s_00000_arg_del
0450  204F  	CALL delay_s_00000
0451  238F  	CALL FCD_LCDDis_00058
0452  236E  	CALL FCD_PWM0_E_00073
0453        label54
0453  22B0  	CALL FCM_displa_00051
0454  3004  	MOVLW 0x04
0455  1683  	BSF STATUS, RP0
0456  0405  	IORWF gbl_trisa, W
0457  0085  	MOVWF gbl_trisa
0458  3004  	MOVLW 0x04
0459  1283  	BCF STATUS, RP0
045A  0505  	ANDWF gbl_porta, W
045B  00CA  	MOVWF CompTempVar2289
045C  01C4  	CLRF gbl_FCV_B_SW2
045D  3004  	MOVLW 0x04
045E  024A  	SUBWF CompTempVar2289, W
045F  1903  	BTFSC STATUS,Z
0460  0AC4  	INCF gbl_FCV_B_SW2, F
0461  3008  	MOVLW 0x08
0462  1683  	BSF STATUS, RP0
0463  0405  	IORWF gbl_trisa, W
0464  0085  	MOVWF gbl_trisa
0465  3008  	MOVLW 0x08
0466  1283  	BCF STATUS, RP0
0467  0505  	ANDWF gbl_porta, W
0468  00CA  	MOVWF CompTempVar2291
0469  01CB  	CLRF CompTempVar2292
046A  3008  	MOVLW 0x08
046B  024A  	SUBWF CompTempVar2291, W
046C  1903  	BTFSC STATUS,Z
046D  0ACB  	INCF CompTempVar2292, F
046E  1145  	BCF gbl_FCV_B_SW1,2
046F  084B  	MOVF CompTempVar2292, W
0470  1D03  	BTFSS STATUS,Z
0471  1545  	BSF gbl_FCV_B_SW1,2
0472  3010  	MOVLW 0x10
0473  1683  	BSF STATUS, RP0
0474  0405  	IORWF gbl_trisa, W
0475  0085  	MOVWF gbl_trisa
0476  3010  	MOVLW 0x10
0477  1283  	BCF STATUS, RP0
0478  0505  	ANDWF gbl_porta, W
0479  00CA  	MOVWF CompTempVar2293
047A  01CB  	CLRF CompTempVar2294
047B  3010  	MOVLW 0x10
047C  024A  	SUBWF CompTempVar2293, W
047D  1903  	BTFSC STATUS,Z
047E  0ACB  	INCF CompTempVar2294, F
047F  10C5  	BCF gbl_FCV_B_SW0,1
0480  084B  	MOVF CompTempVar2294, W
0481  1D03  	BTFSS STATUS,Z
0482  14C5  	BSF gbl_FCV_B_SW0,1
0483  23F5  	CALL FCD_ADC0_R_00063
0484  084B  	MOVF CompTempVarRet2244, W
0485  00C6  	MOVWF gbl_FCV_ANALOG0
0486  08C4  	MOVF gbl_FCV_B_SW2, F
0487  1D03  	BTFSS STATUS,Z
0488  2CA7  	GOTO	label59
0489        label55
0489  08C4  	MOVF gbl_FCV_B_SW2, F
048A  1D03  	BTFSS STATUS,Z
048B  2C9C  	GOTO	label56
048C  3004  	MOVLW 0x04
048D  1683  	BSF STATUS, RP0
048E  0405  	IORWF gbl_trisa, W
048F  0085  	MOVWF gbl_trisa
0490  3004  	MOVLW 0x04
0491  1283  	BCF STATUS, RP0
0492  0505  	ANDWF gbl_porta, W
0493  00CA  	MOVWF CompTempVar2295
0494  01CB  	CLRF CompTempVar2296
0495  3004  	MOVLW 0x04
0496  024A  	SUBWF CompTempVar2295, W
0497  1903  	BTFSC STATUS,Z
0498  0ACB  	INCF CompTempVar2296, F
0499  084B  	MOVF CompTempVar2296, W
049A  00C4  	MOVWF gbl_FCV_B_SW2
049B  2C89  	GOTO	label55
049C        label56
049C  1C45  	BTFSS gbl_FCV_FLAG0,0
049D  2CA0  	GOTO	label57
049E  1045  	BCF gbl_FCV_FLAG0,0
049F  2CA1  	GOTO	label58
04A0        label57
04A0  1445  	BSF gbl_FCV_FLAG0,0
04A1        label58
04A1  3001  	MOVLW 0x01
04A2  00CA  	MOVWF FCD_LCDDis_0005D_arg_Line
04A3  2378  	CALL FCD_LCDDis_0005D
04A4  3002  	MOVLW 0x02
04A5  00CA  	MOVWF FCD_LCDDis_0005D_arg_Line
04A6  2378  	CALL FCD_LCDDis_0005D
04A7        label59
04A7  1945  	BTFSC gbl_FCV_B_SW1,2
04A8  2CC8  	GOTO	label64
04A9        label60
04A9  1945  	BTFSC gbl_FCV_B_SW1,2
04AA  2CBD  	GOTO	label61
04AB  3008  	MOVLW 0x08
04AC  1683  	BSF STATUS, RP0
04AD  0405  	IORWF gbl_trisa, W
04AE  0085  	MOVWF gbl_trisa
04AF  3008  	MOVLW 0x08
04B0  1283  	BCF STATUS, RP0
04B1  0505  	ANDWF gbl_porta, W
04B2  00CA  	MOVWF CompTempVar2297
04B3  01CB  	CLRF CompTempVar2298
04B4  3008  	MOVLW 0x08
04B5  024A  	SUBWF CompTempVar2297, W
04B6  1903  	BTFSC STATUS,Z
04B7  0ACB  	INCF CompTempVar2298, F
04B8  1145  	BCF gbl_FCV_B_SW1,2
04B9  084B  	MOVF CompTempVar2298, W
04BA  1D03  	BTFSS STATUS,Z
04BB  1545  	BSF gbl_FCV_B_SW1,2
04BC  2CA9  	GOTO	label60
04BD        label61
04BD  1C45  	BTFSS gbl_FCV_FLAG0,0
04BE  2CC1  	GOTO	label62
04BF  1045  	BCF gbl_FCV_FLAG0,0
04C0  2CC2  	GOTO	label63
04C1        label62
04C1  1445  	BSF gbl_FCV_FLAG0,0
04C2        label63
04C2  3001  	MOVLW 0x01
04C3  00CA  	MOVWF FCD_LCDDis_0005D_arg_Line
04C4  2378  	CALL FCD_LCDDis_0005D
04C5  3002  	MOVLW 0x02
04C6  00CA  	MOVWF FCD_LCDDis_0005D_arg_Line
04C7  2378  	CALL FCD_LCDDis_0005D
04C8        label64
04C8  18C5  	BTFSC gbl_FCV_B_SW0,1
04C9  2CE9  	GOTO	label69
04CA        label65
04CA  18C5  	BTFSC gbl_FCV_B_SW0,1
04CB  2CDE  	GOTO	label66
04CC  3010  	MOVLW 0x10
04CD  1683  	BSF STATUS, RP0
04CE  0405  	IORWF gbl_trisa, W
04CF  0085  	MOVWF gbl_trisa
04D0  3010  	MOVLW 0x10
04D1  1283  	BCF STATUS, RP0
04D2  0505  	ANDWF gbl_porta, W
04D3  00CA  	MOVWF CompTempVar2299
04D4  01CB  	CLRF CompTempVar2300
04D5  3010  	MOVLW 0x10
04D6  024A  	SUBWF CompTempVar2299, W
04D7  1903  	BTFSC STATUS,Z
04D8  0ACB  	INCF CompTempVar2300, F
04D9  10C5  	BCF gbl_FCV_B_SW0,1
04DA  084B  	MOVF CompTempVar2300, W
04DB  1D03  	BTFSS STATUS,Z
04DC  14C5  	BSF gbl_FCV_B_SW0,1
04DD  2CCA  	GOTO	label65
04DE        label66
04DE  1C45  	BTFSS gbl_FCV_FLAG0,0
04DF  2CE2  	GOTO	label67
04E0  1045  	BCF gbl_FCV_FLAG0,0
04E1  2CE3  	GOTO	label68
04E2        label67
04E2  1445  	BSF gbl_FCV_FLAG0,0
04E3        label68
04E3  3001  	MOVLW 0x01
04E4  00CA  	MOVWF FCD_LCDDis_0005D_arg_Line
04E5  2378  	CALL FCD_LCDDis_0005D
04E6  3002  	MOVLW 0x02
04E7  00CA  	MOVWF FCD_LCDDis_0005D_arg_Line
04E8  2378  	CALL FCD_LCDDis_0005D
04E9        label69
04E9  0846  	MOVF gbl_FCV_ANALOG0, W
04EA  00CA  	MOVWF __mul_8u_8_00006_arg_a
04EB  3064  	MOVLW 0x64
04EC  00CB  	MOVWF __mul_8u_8_00006_arg_b
04ED  229A  	CALL __mul_8u_8_00006
04EE  084F  	MOVF CompTempVarRet452, W
04EF  00D1  	MOVWF __div_16_1_00003_arg_a
04F0  0850  	MOVF CompTempVarRet452+D'1', W
04F1  00D2  	MOVWF __div_16_1_00003_arg_a+D'1'
04F2  30FF  	MOVLW 0xFF
04F3  00D3  	MOVWF __div_16_1_00003_arg_b
04F4  01D4  	CLRF __div_16_1_00003_arg_b+D'1'
04F5  205E  	CALL __div_16_1_00003
04F6  085A  	MOVF CompTempVarRet214, W
04F7  00C7  	MOVWF gbl_FCV_BRIGHTNESS
04F8  2C53  	GOTO	label54
04F9        ; } main function end

	ORG 0x000004F9
04F9        _startup
04F9  30D5  	MOVLW 0xD5
04FA  1283  	BCF STATUS, RP0
04FB  1303  	BCF STATUS, RP1
04FC  00A0  	MOVWF gbl_14_LSR
04FD  30C4  	MOVLW 0xC4
04FE  00A1  	MOVWF gbl_14_LSR+D'1'
04FF  30BB  	MOVLW 0xBB
0500  00A2  	MOVWF gbl_14_LSR+D'2'
0501  30DC  	MOVLW 0xDC
0502  00A3  	MOVWF gbl_14_LSR+D'3'
0503  01A4  	CLRF gbl_15_gbl_aSig
0504  01A5  	CLRF gbl_15_gbl_aSig+D'1'
0505  01A6  	CLRF gbl_15_gbl_aSig+D'2'
0506  01A7  	CLRF gbl_15_gbl_aSig+D'3'
0507  01A8  	CLRF gbl_15_gbl_bSig
0508  01A9  	CLRF gbl_15_gbl_bSig+D'1'
0509  01AA  	CLRF gbl_15_gbl_bSig+D'2'
050A  01AB  	CLRF gbl_15_gbl_bSig+D'3'
050B  01AC  	CLRF gbl_15_gbl_zSig
050C  01AD  	CLRF gbl_15_gbl_zSig+D'1'
050D  01AE  	CLRF gbl_15_gbl_zSig+D'2'
050E  01AF  	CLRF gbl_15_gbl_zSig+D'3'
050F  01BE  	CLRF gbl_15_gbl_aExp
0510  01BF  	CLRF gbl_15_gbl_bExp
0511  01B7  	CLRF gbl_15_gbl_zExp
0512  01B8  	CLRF gbl_15_gbl_zExp+D'1'
0513  01C0  	CLRF gbl_15_gbl_aSign
0514  01C1  	CLRF gbl_15_gbl_bSign
0515  01C2  	CLRF gbl_15_gbl_zSign
0516  01C3  	CLRF gbl_15_gbl_zSigZero
0517  01B0  	CLRF gbl_15_gbl_ret
0518  01B1  	CLRF gbl_15_gbl_ret+D'1'
0519  01B2  	CLRF gbl_15_gbl_ret+D'2'
051A  01B3  	CLRF gbl_15_gbl_ret+D'3'
051B  01BC  	CLRF gbl_float_rounding_mode
051C  01BD  	CLRF gbl_float_exception_flags
051D  01BB  	CLRF gbl_float_detect_tininess
051E  3001  	MOVLW 0x01
051F  00C4  	MOVWF gbl_FCV_B_SW2
0520  1045  	BCF gbl_FCV_FLAG0,0
0521  30FF  	MOVLW 0xFF
0522  00C6  	MOVWF gbl_FCV_ANALOG0
0523  01C7  	CLRF gbl_FCV_BRIGHTNESS
0524  14C5  	BSF gbl_FCV_B_SW0,1
0525  1545  	BSF gbl_FCV_B_SW1,2
0526  118A  	BCF PCLATH,3
0527  120A  	BCF PCLATH,4
0528  2C06  	GOTO	main
	ORG 0x00000529
0529        interrupt
0529        ; { interrupt ; function begin
0529  1283  	BCF STATUS, RP0
052A  1303  	BCF STATUS, RP1
052B  0E36  	SWAPF Int1BContext+D'2', W
052C  0084  	MOVWF FSR
052D  0E35  	SWAPF Int1BContext+D'1', W
052E  008A  	MOVWF PCLATH
052F  0E34  	SWAPF Int1BContext, W
0530  0083  	MOVWF STATUS
0531  0EFF  	SWAPF Int1Context, F
0532  0E7F  	SWAPF Int1Context, W
0533  0009  	RETFIE
0534        ; } interrupt function end

	ORG 0x00002007
2007  3F32  	DW 0x3F32
