MPLINK 4.49, Linker
Linker Map File - Created Wed Oct 14 16:19:32 2020

                                 Section Info
                  Section       Type    Address   Location Size(Bytes)
                ---------  ---------  ---------  ---------  ---------
                   .org_0       code   0x000000    program   0x000000
                   .org_1       code   0x000000    program   0x000002
                   .org_2       code   0x000004    program   0x0002f6
                   .org_3       code   0x000ea0    program   0x000010
                   .org_4       code   0x000ed0    program   0x00021a
.config_2007_NRF_GYRO_REICIEVERV0.O       code   0x002007    program   0x000002
                   .org_5       code   0x002100    program   0x000008



                              Program Memory Usage 
                               Start         End      
                           ---------   ---------      
                            0x000000    0x000000      
                            0x000004    0x00017e      
                            0x000ea0    0x000ea7      
                            0x000ed0    0x000fdc      
                            0x002007    0x002007      
                            0x002100    0x002103      
            662 out of 4359 program addresses used, program memory utilization is 15%



                              Symbols - Sorted by Name
                     Name    Address   Location    Storage File                     
                ---------  ---------  ---------  --------- ---------                
              CMD_REGREAD   0x000f9c    program     static C:\Users\gerpe\OneDrive\GER-PER 2016\Documents\KennyNeutron\2020\NRF24l01_gyro_scoreboard\nrf_gyro_reciever\nrf_gyro_reciever_20201014\nrf_gyro_reicieverv0.asm
             CMD_REGWRITE   0x000f92    program     static C:\Users\gerpe\OneDrive\GER-PER 2016\Documents\KennyNeutron\2020\NRF24l01_gyro_scoreboard\nrf_gyro_reciever\nrf_gyro_reciever_20201014\nrf_gyro_reicieverv0.asm
                     INIT   0x000011    program     static C:\Users\gerpe\OneDrive\GER-PER 2016\Documents\KennyNeutron\2020\NRF24l01_gyro_scoreboard\nrf_gyro_reciever\nrf_gyro_reciever_20201014\nrf_gyro_reicieverv0.asm
                INTERRUPT   0x00017d    program     static C:\Users\gerpe\OneDrive\GER-PER 2016\Documents\KennyNeutron\2020\NRF24l01_gyro_scoreboard\nrf_gyro_reciever\nrf_gyro_reciever_20201014\nrf_gyro_reicieverv0.asm
             KEYPAD_RESET   0x000179    program     static C:\Users\gerpe\OneDrive\GER-PER 2016\Documents\KennyNeutron\2020\NRF24l01_gyro_scoreboard\nrf_gyro_reciever\nrf_gyro_reciever_20201014\nrf_gyro_reicieverv0.asm
               LONG_SHIFT   0x000168    program     static C:\Users\gerpe\OneDrive\GER-PER 2016\Documents\KennyNeutron\2020\NRF24l01_gyro_scoreboard\nrf_gyro_reciever\nrf_gyro_reciever_20201014\nrf_gyro_reicieverv0.asm
                     MAIN   0x000042    program     static C:\Users\gerpe\OneDrive\GER-PER 2016\Documents\KennyNeutron\2020\NRF24l01_gyro_scoreboard\nrf_gyro_reciever\nrf_gyro_reciever_20201014\nrf_gyro_reicieverv0.asm
             NRF_DELAY_MS   0x000fd8    program     static C:\Users\gerpe\OneDrive\GER-PER 2016\Documents\KennyNeutron\2020\NRF24l01_gyro_scoreboard\nrf_gyro_reciever\nrf_gyro_reciever_20201014\nrf_gyro_reicieverv0.asm
          NRF_DELAY_ONEMS   0x000fd1    program     static C:\Users\gerpe\OneDrive\GER-PER 2016\Documents\KennyNeutron\2020\NRF24l01_gyro_scoreboard\nrf_gyro_reciever\nrf_gyro_reciever_20201014\nrf_gyro_reicieverv0.asm
             NRF_DELAY_US   0x000fc9    program     static C:\Users\gerpe\OneDrive\GER-PER 2016\Documents\KennyNeutron\2020\NRF24l01_gyro_scoreboard\nrf_gyro_reciever\nrf_gyro_reciever_20201014\nrf_gyro_reicieverv0.asm
          NRF_GET_PAYLOAD   0x000ea2    program     static C:\Users\gerpe\OneDrive\GER-PER 2016\Documents\KennyNeutron\2020\NRF24l01_gyro_scoreboard\nrf_gyro_reciever\nrf_gyro_reciever_20201014\nrf_gyro_reicieverv0.asm
                 NRF_MSEC   0x000fd3    program     static C:\Users\gerpe\OneDrive\GER-PER 2016\Documents\KennyNeutron\2020\NRF24l01_gyro_scoreboard\nrf_gyro_reciever\nrf_gyro_reciever_20201014\nrf_gyro_reicieverv0.asm
                NRF_MSEC0   0x000fd9    program     static C:\Users\gerpe\OneDrive\GER-PER 2016\Documents\KennyNeutron\2020\NRF24l01_gyro_scoreboard\nrf_gyro_reciever\nrf_gyro_reciever_20201014\nrf_gyro_reicieverv0.asm
         NRF_SEND_PAYLOAD   0x000ea0    program     static C:\Users\gerpe\OneDrive\GER-PER 2016\Documents\KennyNeutron\2020\NRF24l01_gyro_scoreboard\nrf_gyro_reciever\nrf_gyro_reciever_20201014\nrf_gyro_reicieverv0.asm
                 NRF_USEC   0x000fca    program     static C:\Users\gerpe\OneDrive\GER-PER 2016\Documents\KennyNeutron\2020\NRF24l01_gyro_scoreboard\nrf_gyro_reciever\nrf_gyro_reciever_20201014\nrf_gyro_reicieverv0.asm
                     PBZ0   0x00009d    program     static C:\Users\gerpe\OneDrive\GER-PER 2016\Documents\KennyNeutron\2020\NRF24l01_gyro_scoreboard\nrf_gyro_reciever\nrf_gyro_reciever_20201014\nrf_gyro_reicieverv0.asm
                     PGF0   0x0000be    program     static C:\Users\gerpe\OneDrive\GER-PER 2016\Documents\KennyNeutron\2020\NRF24l01_gyro_scoreboard\nrf_gyro_reciever\nrf_gyro_reciever_20201014\nrf_gyro_reicieverv0.asm
                     PGS0   0x0000d4    program     static C:\Users\gerpe\OneDrive\GER-PER 2016\Documents\KennyNeutron\2020\NRF24l01_gyro_scoreboard\nrf_gyro_reciever\nrf_gyro_reciever_20201014\nrf_gyro_reicieverv0.asm
                     PHF0   0x0000b3    program     static C:\Users\gerpe\OneDrive\GER-PER 2016\Documents\KennyNeutron\2020\NRF24l01_gyro_scoreboard\nrf_gyro_reciever\nrf_gyro_reciever_20201014\nrf_gyro_reicieverv0.asm
                     PHS0   0x0000c9    program     static C:\Users\gerpe\OneDrive\GER-PER 2016\Documents\KennyNeutron\2020\NRF24l01_gyro_scoreboard\nrf_gyro_reciever\nrf_gyro_reciever_20201014\nrf_gyro_reicieverv0.asm
             PRESS_BUZZER   0x00009b    program     static C:\Users\gerpe\OneDrive\GER-PER 2016\Documents\KennyNeutron\2020\NRF24l01_gyro_scoreboard\nrf_gyro_reciever\nrf_gyro_reciever_20201014\nrf_gyro_reicieverv0.asm
          PRESS_GUESTFOUL   0x0000bc    program     static C:\Users\gerpe\OneDrive\GER-PER 2016\Documents\KennyNeutron\2020\NRF24l01_gyro_scoreboard\nrf_gyro_reciever\nrf_gyro_reciever_20201014\nrf_gyro_reicieverv0.asm
         PRESS_GUESTSCORE   0x0000d2    program     static C:\Users\gerpe\OneDrive\GER-PER 2016\Documents\KennyNeutron\2020\NRF24l01_gyro_scoreboard\nrf_gyro_reciever\nrf_gyro_reciever_20201014\nrf_gyro_reicieverv0.asm
           PRESS_HOMEFOUL   0x0000b1    program     static C:\Users\gerpe\OneDrive\GER-PER 2016\Documents\KennyNeutron\2020\NRF24l01_gyro_scoreboard\nrf_gyro_reciever\nrf_gyro_reciever_20201014\nrf_gyro_reicieverv0.asm
          PRESS_HOMESCORE   0x0000c7    program     static C:\Users\gerpe\OneDrive\GER-PER 2016\Documents\KennyNeutron\2020\NRF24l01_gyro_scoreboard\nrf_gyro_reciever\nrf_gyro_reciever_20201014\nrf_gyro_reicieverv0.asm
              PRESS_SHIFT   0x000161    program     static C:\Users\gerpe\OneDrive\GER-PER 2016\Documents\KennyNeutron\2020\NRF24l01_gyro_scoreboard\nrf_gyro_reciever\nrf_gyro_reciever_20201014\nrf_gyro_reicieverv0.asm
          PRESS_SHOTCLOCK   0x0000dd    program     static C:\Users\gerpe\OneDrive\GER-PER 2016\Documents\KennyNeutron\2020\NRF24l01_gyro_scoreboard\nrf_gyro_reciever\nrf_gyro_reciever_20201014\nrf_gyro_reicieverv0.asm
          PRESS_STARTSTOP   0x0000a6    program     static C:\Users\gerpe\OneDrive\GER-PER 2016\Documents\KennyNeutron\2020\NRF24l01_gyro_scoreboard\nrf_gyro_reciever\nrf_gyro_reciever_20201014\nrf_gyro_reicieverv0.asm
                     PSC0   0x0000df    program     static C:\Users\gerpe\OneDrive\GER-PER 2016\Documents\KennyNeutron\2020\NRF24l01_gyro_scoreboard\nrf_gyro_reciever\nrf_gyro_reciever_20201014\nrf_gyro_reicieverv0.asm
                     PST0   0x0000a8    program     static C:\Users\gerpe\OneDrive\GER-PER 2016\Documents\KennyNeutron\2020\NRF24l01_gyro_scoreboard\nrf_gyro_reciever\nrf_gyro_reciever_20201014\nrf_gyro_reicieverv0.asm
                 P_BUZZER   0x000087    program     static C:\Users\gerpe\OneDrive\GER-PER 2016\Documents\KennyNeutron\2020\NRF24l01_gyro_scoreboard\nrf_gyro_reciever\nrf_gyro_reciever_20201014\nrf_gyro_reicieverv0.asm
              P_GUESTFOUL   0x000085    program     static C:\Users\gerpe\OneDrive\GER-PER 2016\Documents\KennyNeutron\2020\NRF24l01_gyro_scoreboard\nrf_gyro_reciever\nrf_gyro_reciever_20201014\nrf_gyro_reicieverv0.asm
             P_GUESTSCORE   0x000083    program     static C:\Users\gerpe\OneDrive\GER-PER 2016\Documents\KennyNeutron\2020\NRF24l01_gyro_scoreboard\nrf_gyro_reciever\nrf_gyro_reciever_20201014\nrf_gyro_reicieverv0.asm
               P_HOMEFOUL   0x00007b    program     static C:\Users\gerpe\OneDrive\GER-PER 2016\Documents\KennyNeutron\2020\NRF24l01_gyro_scoreboard\nrf_gyro_reciever\nrf_gyro_reciever_20201014\nrf_gyro_reicieverv0.asm
              P_HOMESCORE   0x00007d    program     static C:\Users\gerpe\OneDrive\GER-PER 2016\Documents\KennyNeutron\2020\NRF24l01_gyro_scoreboard\nrf_gyro_reciever\nrf_gyro_reciever_20201014\nrf_gyro_reicieverv0.asm
                  P_PRESS   0x00005b    program     static C:\Users\gerpe\OneDrive\GER-PER 2016\Documents\KennyNeutron\2020\NRF24l01_gyro_scoreboard\nrf_gyro_reciever\nrf_gyro_reciever_20201014\nrf_gyro_reicieverv0.asm
                  P_SHIFT   0x00005e    program     static C:\Users\gerpe\OneDrive\GER-PER 2016\Documents\KennyNeutron\2020\NRF24l01_gyro_scoreboard\nrf_gyro_reciever\nrf_gyro_reciever_20201014\nrf_gyro_reicieverv0.asm
              P_SHOTCLOCK   0x00007f    program     static C:\Users\gerpe\OneDrive\GER-PER 2016\Documents\KennyNeutron\2020\NRF24l01_gyro_scoreboard\nrf_gyro_reciever\nrf_gyro_reciever_20201014\nrf_gyro_reicieverv0.asm
              P_STARTSTOP   0x000081    program     static C:\Users\gerpe\OneDrive\GER-PER 2016\Documents\KennyNeutron\2020\NRF24l01_gyro_scoreboard\nrf_gyro_reciever\nrf_gyro_reciever_20201014\nrf_gyro_reicieverv0.asm
              RADIO_BEGIN   0x000f2d    program     static C:\Users\gerpe\OneDrive\GER-PER 2016\Documents\KennyNeutron\2020\NRF24l01_gyro_scoreboard\nrf_gyro_reciever\nrf_gyro_reciever_20201014\nrf_gyro_reicieverv0.asm
          RADIO_CHECKFIFO   0x000efd    program     static C:\Users\gerpe\OneDrive\GER-PER 2016\Documents\KennyNeutron\2020\NRF24l01_gyro_scoreboard\nrf_gyro_reciever\nrf_gyro_reciever_20201014\nrf_gyro_reicieverv0.asm
        RADIO_CHECKSTATUS   0x000f18    program     static C:\Users\gerpe\OneDrive\GER-PER 2016\Documents\KennyNeutron\2020\NRF24l01_gyro_scoreboard\nrf_gyro_reciever\nrf_gyro_reciever_20201014\nrf_gyro_reicieverv0.asm
          RADIO_CLRSTATUS   0x000f12    program     static C:\Users\gerpe\OneDrive\GER-PER 2016\Documents\KennyNeutron\2020\NRF24l01_gyro_scoreboard\nrf_gyro_reciever\nrf_gyro_reciever_20201014\nrf_gyro_reicieverv0.asm
          RADIO_FLUSHFIFO   0x000f1e    program     static C:\Users\gerpe\OneDrive\GER-PER 2016\Documents\KennyNeutron\2020\NRF24l01_gyro_scoreboard\nrf_gyro_reciever\nrf_gyro_reciever_20201014\nrf_gyro_reicieverv0.asm
        RADIO_READ_RXFIFO   0x000f03    program     static C:\Users\gerpe\OneDrive\GER-PER 2016\Documents\KennyNeutron\2020\NRF24l01_gyro_scoreboard\nrf_gyro_reciever\nrf_gyro_reciever_20201014\nrf_gyro_reicieverv0.asm
          RADIO_RECV_DATA   0x000ef0    program     static C:\Users\gerpe\OneDrive\GER-PER 2016\Documents\KennyNeutron\2020\NRF24l01_gyro_scoreboard\nrf_gyro_reciever\nrf_gyro_reciever_20201014\nrf_gyro_reicieverv0.asm
          RADIO_SEND_DATA   0x000ed0    program     static C:\Users\gerpe\OneDrive\GER-PER 2016\Documents\KennyNeutron\2020\NRF24l01_gyro_scoreboard\nrf_gyro_reciever\nrf_gyro_reciever_20201014\nrf_gyro_reicieverv0.asm
                     RFF0   0x000f0b    program     static C:\Users\gerpe\OneDrive\GER-PER 2016\Documents\KennyNeutron\2020\NRF24l01_gyro_scoreboard\nrf_gyro_reciever\nrf_gyro_reciever_20201014\nrf_gyro_reicieverv0.asm
                     RRD0   0x000efa    program     static C:\Users\gerpe\OneDrive\GER-PER 2016\Documents\KennyNeutron\2020\NRF24l01_gyro_scoreboard\nrf_gyro_reciever\nrf_gyro_reciever_20201014\nrf_gyro_reicieverv0.asm
                     RSD0   0x000ed8    program     static C:\Users\gerpe\OneDrive\GER-PER 2016\Documents\KennyNeutron\2020\NRF24l01_gyro_scoreboard\nrf_gyro_reciever\nrf_gyro_reciever_20201014\nrf_gyro_reicieverv0.asm
                     RSD1   0x000eee    program     static C:\Users\gerpe\OneDrive\GER-PER 2016\Documents\KennyNeutron\2020\NRF24l01_gyro_scoreboard\nrf_gyro_reciever\nrf_gyro_reciever_20201014\nrf_gyro_reicieverv0.asm
                    RXDR0   0x000ef4    program     static C:\Users\gerpe\OneDrive\GER-PER 2016\Documents\KennyNeutron\2020\NRF24l01_gyro_scoreboard\nrf_gyro_reciever\nrf_gyro_reciever_20201014\nrf_gyro_reicieverv0.asm
                    RXDR1   0x000ef5    program     static C:\Users\gerpe\OneDrive\GER-PER 2016\Documents\KennyNeutron\2020\NRF24l01_gyro_scoreboard\nrf_gyro_reciever\nrf_gyro_reciever_20201014\nrf_gyro_reicieverv0.asm
                  RXT_END   0x000097    program     static C:\Users\gerpe\OneDrive\GER-PER 2016\Documents\KennyNeutron\2020\NRF24l01_gyro_scoreboard\nrf_gyro_reciever\nrf_gyro_reciever_20201014\nrf_gyro_reicieverv0.asm
                     SBZ0   0x000152    program     static C:\Users\gerpe\OneDrive\GER-PER 2016\Documents\KennyNeutron\2020\NRF24l01_gyro_scoreboard\nrf_gyro_reciever\nrf_gyro_reciever_20201014\nrf_gyro_reicieverv0.asm
           SET_RX_ADDRESS   0x000f7d    program     static C:\Users\gerpe\OneDrive\GER-PER 2016\Documents\KennyNeutron\2020\NRF24l01_gyro_scoreboard\nrf_gyro_reciever\nrf_gyro_reciever_20201014\nrf_gyro_reicieverv0.asm
           SET_TX_ADDRESS   0x000f68    program     static C:\Users\gerpe\OneDrive\GER-PER 2016\Documents\KennyNeutron\2020\NRF24l01_gyro_scoreboard\nrf_gyro_reciever\nrf_gyro_reciever_20201014\nrf_gyro_reicieverv0.asm
                     SGF0   0x00012e    program     static C:\Users\gerpe\OneDrive\GER-PER 2016\Documents\KennyNeutron\2020\NRF24l01_gyro_scoreboard\nrf_gyro_reciever\nrf_gyro_reciever_20201014\nrf_gyro_reicieverv0.asm
                     SGS0   0x00011c    program     static C:\Users\gerpe\OneDrive\GER-PER 2016\Documents\KennyNeutron\2020\NRF24l01_gyro_scoreboard\nrf_gyro_reciever\nrf_gyro_reciever_20201014\nrf_gyro_reicieverv0.asm
                     SHF0   0x0000eb    program     static C:\Users\gerpe\OneDrive\GER-PER 2016\Documents\KennyNeutron\2020\NRF24l01_gyro_scoreboard\nrf_gyro_reciever\nrf_gyro_reciever_20201014\nrf_gyro_reicieverv0.asm
             SHIFT_BUZZER   0x00014f    program     static C:\Users\gerpe\OneDrive\GER-PER 2016\Documents\KennyNeutron\2020\NRF24l01_gyro_scoreboard\nrf_gyro_reciever\nrf_gyro_reciever_20201014\nrf_gyro_reicieverv0.asm
          SHIFT_GUESTFOUL   0x00012b    program     static C:\Users\gerpe\OneDrive\GER-PER 2016\Documents\KennyNeutron\2020\NRF24l01_gyro_scoreboard\nrf_gyro_reciever\nrf_gyro_reciever_20201014\nrf_gyro_reicieverv0.asm
         SHIFT_GUESTSCORE   0x000119    program     static C:\Users\gerpe\OneDrive\GER-PER 2016\Documents\KennyNeutron\2020\NRF24l01_gyro_scoreboard\nrf_gyro_reciever\nrf_gyro_reciever_20201014\nrf_gyro_reicieverv0.asm
           SHIFT_HOMEFOUL   0x0000e8    program     static C:\Users\gerpe\OneDrive\GER-PER 2016\Documents\KennyNeutron\2020\NRF24l01_gyro_scoreboard\nrf_gyro_reciever\nrf_gyro_reciever_20201014\nrf_gyro_reicieverv0.asm
          SHIFT_HOMESCORE   0x0000f5    program     static C:\Users\gerpe\OneDrive\GER-PER 2016\Documents\KennyNeutron\2020\NRF24l01_gyro_scoreboard\nrf_gyro_reciever\nrf_gyro_reciever_20201014\nrf_gyro_reicieverv0.asm
          SHIFT_SHOTCLOCK   0x000107    program     static C:\Users\gerpe\OneDrive\GER-PER 2016\Documents\KennyNeutron\2020\NRF24l01_gyro_scoreboard\nrf_gyro_reciever\nrf_gyro_reciever_20201014\nrf_gyro_reicieverv0.asm
          SHIFT_STARTSTOP   0x00013d    program     static C:\Users\gerpe\OneDrive\GER-PER 2016\Documents\KennyNeutron\2020\NRF24l01_gyro_scoreboard\nrf_gyro_reciever\nrf_gyro_reciever_20201014\nrf_gyro_reicieverv0.asm
                     SHS0   0x0000f8    program     static C:\Users\gerpe\OneDrive\GER-PER 2016\Documents\KennyNeutron\2020\NRF24l01_gyro_scoreboard\nrf_gyro_reciever\nrf_gyro_reciever_20201014\nrf_gyro_reicieverv0.asm
             SPI_RECVBYTE   0x000fb5    program     static C:\Users\gerpe\OneDrive\GER-PER 2016\Documents\KennyNeutron\2020\NRF24l01_gyro_scoreboard\nrf_gyro_reciever\nrf_gyro_reciever_20201014\nrf_gyro_reicieverv0.asm
             SPI_SENDBYTE   0x000fa4    program     static C:\Users\gerpe\OneDrive\GER-PER 2016\Documents\KennyNeutron\2020\NRF24l01_gyro_scoreboard\nrf_gyro_reciever\nrf_gyro_reciever_20201014\nrf_gyro_reicieverv0.asm
                     SRB0   0x000fb9    program     static C:\Users\gerpe\OneDrive\GER-PER 2016\Documents\KennyNeutron\2020\NRF24l01_gyro_scoreboard\nrf_gyro_reciever\nrf_gyro_reciever_20201014\nrf_gyro_reicieverv0.asm
                     SRB1   0x000fc0    program     static C:\Users\gerpe\OneDrive\GER-PER 2016\Documents\KennyNeutron\2020\NRF24l01_gyro_scoreboard\nrf_gyro_reciever\nrf_gyro_reciever_20201014\nrf_gyro_reicieverv0.asm
                SRB_MISO0   0x000fbe    program     static C:\Users\gerpe\OneDrive\GER-PER 2016\Documents\KennyNeutron\2020\NRF24l01_gyro_scoreboard\nrf_gyro_reciever\nrf_gyro_reciever_20201014\nrf_gyro_reicieverv0.asm
                SRB_MISO1   0x000fbc    program     static C:\Users\gerpe\OneDrive\GER-PER 2016\Documents\KennyNeutron\2020\NRF24l01_gyro_scoreboard\nrf_gyro_reciever\nrf_gyro_reciever_20201014\nrf_gyro_reicieverv0.asm
                     SSB0   0x000fa6    program     static C:\Users\gerpe\OneDrive\GER-PER 2016\Documents\KennyNeutron\2020\NRF24l01_gyro_scoreboard\nrf_gyro_reciever\nrf_gyro_reciever_20201014\nrf_gyro_reicieverv0.asm
                     SSB1   0x000faf    program     static C:\Users\gerpe\OneDrive\GER-PER 2016\Documents\KennyNeutron\2020\NRF24l01_gyro_scoreboard\nrf_gyro_reciever\nrf_gyro_reciever_20201014\nrf_gyro_reicieverv0.asm
                SSB_MOSI0   0x000fac    program     static C:\Users\gerpe\OneDrive\GER-PER 2016\Documents\KennyNeutron\2020\NRF24l01_gyro_scoreboard\nrf_gyro_reciever\nrf_gyro_reciever_20201014\nrf_gyro_reicieverv0.asm
                SSB_MOSI1   0x000faa    program     static C:\Users\gerpe\OneDrive\GER-PER 2016\Documents\KennyNeutron\2020\NRF24l01_gyro_scoreboard\nrf_gyro_reciever\nrf_gyro_reciever_20201014\nrf_gyro_reicieverv0.asm
                     SSC0   0x00010a    program     static C:\Users\gerpe\OneDrive\GER-PER 2016\Documents\KennyNeutron\2020\NRF24l01_gyro_scoreboard\nrf_gyro_reciever\nrf_gyro_reciever_20201014\nrf_gyro_reicieverv0.asm
                     SSS0   0x000140    program     static C:\Users\gerpe\OneDrive\GER-PER 2016\Documents\KennyNeutron\2020\NRF24l01_gyro_scoreboard\nrf_gyro_reciever\nrf_gyro_reciever_20201014\nrf_gyro_reicieverv0.asm
           START_PRESSING   0x000061    program     static C:\Users\gerpe\OneDrive\GER-PER 2016\Documents\KennyNeutron\2020\NRF24l01_gyro_scoreboard\nrf_gyro_reciever\nrf_gyro_reciever_20201014\nrf_gyro_reicieverv0.asm
         START_SHIFTPRESS   0x00006e    program     static C:\Users\gerpe\OneDrive\GER-PER 2016\Documents\KennyNeutron\2020\NRF24l01_gyro_scoreboard\nrf_gyro_reciever\nrf_gyro_reciever_20201014\nrf_gyro_reicieverv0.asm
                 S_BUZZER   0x000095    program     static C:\Users\gerpe\OneDrive\GER-PER 2016\Documents\KennyNeutron\2020\NRF24l01_gyro_scoreboard\nrf_gyro_reciever\nrf_gyro_reciever_20201014\nrf_gyro_reicieverv0.asm
              S_GUESTFOUL   0x000093    program     static C:\Users\gerpe\OneDrive\GER-PER 2016\Documents\KennyNeutron\2020\NRF24l01_gyro_scoreboard\nrf_gyro_reciever\nrf_gyro_reciever_20201014\nrf_gyro_reicieverv0.asm
             S_GUESTSCORE   0x000091    program     static C:\Users\gerpe\OneDrive\GER-PER 2016\Documents\KennyNeutron\2020\NRF24l01_gyro_scoreboard\nrf_gyro_reciever\nrf_gyro_reciever_20201014\nrf_gyro_reicieverv0.asm
               S_HOMEFOUL   0x000089    program     static C:\Users\gerpe\OneDrive\GER-PER 2016\Documents\KennyNeutron\2020\NRF24l01_gyro_scoreboard\nrf_gyro_reciever\nrf_gyro_reciever_20201014\nrf_gyro_reicieverv0.asm
              S_HOMESCORE   0x00008b    program     static C:\Users\gerpe\OneDrive\GER-PER 2016\Documents\KennyNeutron\2020\NRF24l01_gyro_scoreboard\nrf_gyro_reciever\nrf_gyro_reciever_20201014\nrf_gyro_reicieverv0.asm
              S_SHOTCLOCK   0x00008d    program     static C:\Users\gerpe\OneDrive\GER-PER 2016\Documents\KennyNeutron\2020\NRF24l01_gyro_scoreboard\nrf_gyro_reciever\nrf_gyro_reciever_20201014\nrf_gyro_reicieverv0.asm
              S_STARTSTOP   0x00008f    program     static C:\Users\gerpe\OneDrive\GER-PER 2016\Documents\KennyNeutron\2020\NRF24l01_gyro_scoreboard\nrf_gyro_reciever\nrf_gyro_reciever_20201014\nrf_gyro_reicieverv0.asm
                    TXDS0   0x000ee9    program     static C:\Users\gerpe\OneDrive\GER-PER 2016\Documents\KennyNeutron\2020\NRF24l01_gyro_scoreboard\nrf_gyro_reciever\nrf_gyro_reciever_20201014\nrf_gyro_reicieverv0.asm
                    TXDS1   0x000eeb    program     static C:\Users\gerpe\OneDrive\GER-PER 2016\Documents\KennyNeutron\2020\NRF24l01_gyro_scoreboard\nrf_gyro_reciever\nrf_gyro_reciever_20201014\nrf_gyro_reicieverv0.asm



                              Symbols - Sorted by Address
                     Name    Address   Location    Storage File                     
                ---------  ---------  ---------  --------- ---------                
                     INIT   0x000011    program     static C:\Users\gerpe\OneDrive\GER-PER 2016\Documents\KennyNeutron\2020\NRF24l01_gyro_scoreboard\nrf_gyro_reciever\nrf_gyro_reciever_20201014\nrf_gyro_reicieverv0.asm
                     MAIN   0x000042    program     static C:\Users\gerpe\OneDrive\GER-PER 2016\Documents\KennyNeutron\2020\NRF24l01_gyro_scoreboard\nrf_gyro_reciever\nrf_gyro_reciever_20201014\nrf_gyro_reicieverv0.asm
                  P_PRESS   0x00005b    program     static C:\Users\gerpe\OneDrive\GER-PER 2016\Documents\KennyNeutron\2020\NRF24l01_gyro_scoreboard\nrf_gyro_reciever\nrf_gyro_reciever_20201014\nrf_gyro_reicieverv0.asm
                  P_SHIFT   0x00005e    program     static C:\Users\gerpe\OneDrive\GER-PER 2016\Documents\KennyNeutron\2020\NRF24l01_gyro_scoreboard\nrf_gyro_reciever\nrf_gyro_reciever_20201014\nrf_gyro_reicieverv0.asm
           START_PRESSING   0x000061    program     static C:\Users\gerpe\OneDrive\GER-PER 2016\Documents\KennyNeutron\2020\NRF24l01_gyro_scoreboard\nrf_gyro_reciever\nrf_gyro_reciever_20201014\nrf_gyro_reicieverv0.asm
         START_SHIFTPRESS   0x00006e    program     static C:\Users\gerpe\OneDrive\GER-PER 2016\Documents\KennyNeutron\2020\NRF24l01_gyro_scoreboard\nrf_gyro_reciever\nrf_gyro_reciever_20201014\nrf_gyro_reicieverv0.asm
               P_HOMEFOUL   0x00007b    program     static C:\Users\gerpe\OneDrive\GER-PER 2016\Documents\KennyNeutron\2020\NRF24l01_gyro_scoreboard\nrf_gyro_reciever\nrf_gyro_reciever_20201014\nrf_gyro_reicieverv0.asm
              P_HOMESCORE   0x00007d    program     static C:\Users\gerpe\OneDrive\GER-PER 2016\Documents\KennyNeutron\2020\NRF24l01_gyro_scoreboard\nrf_gyro_reciever\nrf_gyro_reciever_20201014\nrf_gyro_reicieverv0.asm
              P_SHOTCLOCK   0x00007f    program     static C:\Users\gerpe\OneDrive\GER-PER 2016\Documents\KennyNeutron\2020\NRF24l01_gyro_scoreboard\nrf_gyro_reciever\nrf_gyro_reciever_20201014\nrf_gyro_reicieverv0.asm
              P_STARTSTOP   0x000081    program     static C:\Users\gerpe\OneDrive\GER-PER 2016\Documents\KennyNeutron\2020\NRF24l01_gyro_scoreboard\nrf_gyro_reciever\nrf_gyro_reciever_20201014\nrf_gyro_reicieverv0.asm
             P_GUESTSCORE   0x000083    program     static C:\Users\gerpe\OneDrive\GER-PER 2016\Documents\KennyNeutron\2020\NRF24l01_gyro_scoreboard\nrf_gyro_reciever\nrf_gyro_reciever_20201014\nrf_gyro_reicieverv0.asm
              P_GUESTFOUL   0x000085    program     static C:\Users\gerpe\OneDrive\GER-PER 2016\Documents\KennyNeutron\2020\NRF24l01_gyro_scoreboard\nrf_gyro_reciever\nrf_gyro_reciever_20201014\nrf_gyro_reicieverv0.asm
                 P_BUZZER   0x000087    program     static C:\Users\gerpe\OneDrive\GER-PER 2016\Documents\KennyNeutron\2020\NRF24l01_gyro_scoreboard\nrf_gyro_reciever\nrf_gyro_reciever_20201014\nrf_gyro_reicieverv0.asm
               S_HOMEFOUL   0x000089    program     static C:\Users\gerpe\OneDrive\GER-PER 2016\Documents\KennyNeutron\2020\NRF24l01_gyro_scoreboard\nrf_gyro_reciever\nrf_gyro_reciever_20201014\nrf_gyro_reicieverv0.asm
              S_HOMESCORE   0x00008b    program     static C:\Users\gerpe\OneDrive\GER-PER 2016\Documents\KennyNeutron\2020\NRF24l01_gyro_scoreboard\nrf_gyro_reciever\nrf_gyro_reciever_20201014\nrf_gyro_reicieverv0.asm
              S_SHOTCLOCK   0x00008d    program     static C:\Users\gerpe\OneDrive\GER-PER 2016\Documents\KennyNeutron\2020\NRF24l01_gyro_scoreboard\nrf_gyro_reciever\nrf_gyro_reciever_20201014\nrf_gyro_reicieverv0.asm
              S_STARTSTOP   0x00008f    program     static C:\Users\gerpe\OneDrive\GER-PER 2016\Documents\KennyNeutron\2020\NRF24l01_gyro_scoreboard\nrf_gyro_reciever\nrf_gyro_reciever_20201014\nrf_gyro_reicieverv0.asm
             S_GUESTSCORE   0x000091    program     static C:\Users\gerpe\OneDrive\GER-PER 2016\Documents\KennyNeutron\2020\NRF24l01_gyro_scoreboard\nrf_gyro_reciever\nrf_gyro_reciever_20201014\nrf_gyro_reicieverv0.asm
              S_GUESTFOUL   0x000093    program     static C:\Users\gerpe\OneDrive\GER-PER 2016\Documents\KennyNeutron\2020\NRF24l01_gyro_scoreboard\nrf_gyro_reciever\nrf_gyro_reciever_20201014\nrf_gyro_reicieverv0.asm
                 S_BUZZER   0x000095    program     static C:\Users\gerpe\OneDrive\GER-PER 2016\Documents\KennyNeutron\2020\NRF24l01_gyro_scoreboard\nrf_gyro_reciever\nrf_gyro_reciever_20201014\nrf_gyro_reicieverv0.asm
                  RXT_END   0x000097    program     static C:\Users\gerpe\OneDrive\GER-PER 2016\Documents\KennyNeutron\2020\NRF24l01_gyro_scoreboard\nrf_gyro_reciever\nrf_gyro_reciever_20201014\nrf_gyro_reicieverv0.asm
             PRESS_BUZZER   0x00009b    program     static C:\Users\gerpe\OneDrive\GER-PER 2016\Documents\KennyNeutron\2020\NRF24l01_gyro_scoreboard\nrf_gyro_reciever\nrf_gyro_reciever_20201014\nrf_gyro_reicieverv0.asm
                     PBZ0   0x00009d    program     static C:\Users\gerpe\OneDrive\GER-PER 2016\Documents\KennyNeutron\2020\NRF24l01_gyro_scoreboard\nrf_gyro_reciever\nrf_gyro_reciever_20201014\nrf_gyro_reicieverv0.asm
          PRESS_STARTSTOP   0x0000a6    program     static C:\Users\gerpe\OneDrive\GER-PER 2016\Documents\KennyNeutron\2020\NRF24l01_gyro_scoreboard\nrf_gyro_reciever\nrf_gyro_reciever_20201014\nrf_gyro_reicieverv0.asm
                     PST0   0x0000a8    program     static C:\Users\gerpe\OneDrive\GER-PER 2016\Documents\KennyNeutron\2020\NRF24l01_gyro_scoreboard\nrf_gyro_reciever\nrf_gyro_reciever_20201014\nrf_gyro_reicieverv0.asm
           PRESS_HOMEFOUL   0x0000b1    program     static C:\Users\gerpe\OneDrive\GER-PER 2016\Documents\KennyNeutron\2020\NRF24l01_gyro_scoreboard\nrf_gyro_reciever\nrf_gyro_reciever_20201014\nrf_gyro_reicieverv0.asm
                     PHF0   0x0000b3    program     static C:\Users\gerpe\OneDrive\GER-PER 2016\Documents\KennyNeutron\2020\NRF24l01_gyro_scoreboard\nrf_gyro_reciever\nrf_gyro_reciever_20201014\nrf_gyro_reicieverv0.asm
          PRESS_GUESTFOUL   0x0000bc    program     static C:\Users\gerpe\OneDrive\GER-PER 2016\Documents\KennyNeutron\2020\NRF24l01_gyro_scoreboard\nrf_gyro_reciever\nrf_gyro_reciever_20201014\nrf_gyro_reicieverv0.asm
                     PGF0   0x0000be    program     static C:\Users\gerpe\OneDrive\GER-PER 2016\Documents\KennyNeutron\2020\NRF24l01_gyro_scoreboard\nrf_gyro_reciever\nrf_gyro_reciever_20201014\nrf_gyro_reicieverv0.asm
          PRESS_HOMESCORE   0x0000c7    program     static C:\Users\gerpe\OneDrive\GER-PER 2016\Documents\KennyNeutron\2020\NRF24l01_gyro_scoreboard\nrf_gyro_reciever\nrf_gyro_reciever_20201014\nrf_gyro_reicieverv0.asm
                     PHS0   0x0000c9    program     static C:\Users\gerpe\OneDrive\GER-PER 2016\Documents\KennyNeutron\2020\NRF24l01_gyro_scoreboard\nrf_gyro_reciever\nrf_gyro_reciever_20201014\nrf_gyro_reicieverv0.asm
         PRESS_GUESTSCORE   0x0000d2    program     static C:\Users\gerpe\OneDrive\GER-PER 2016\Documents\KennyNeutron\2020\NRF24l01_gyro_scoreboard\nrf_gyro_reciever\nrf_gyro_reciever_20201014\nrf_gyro_reicieverv0.asm
                     PGS0   0x0000d4    program     static C:\Users\gerpe\OneDrive\GER-PER 2016\Documents\KennyNeutron\2020\NRF24l01_gyro_scoreboard\nrf_gyro_reciever\nrf_gyro_reciever_20201014\nrf_gyro_reicieverv0.asm
          PRESS_SHOTCLOCK   0x0000dd    program     static C:\Users\gerpe\OneDrive\GER-PER 2016\Documents\KennyNeutron\2020\NRF24l01_gyro_scoreboard\nrf_gyro_reciever\nrf_gyro_reciever_20201014\nrf_gyro_reicieverv0.asm
                     PSC0   0x0000df    program     static C:\Users\gerpe\OneDrive\GER-PER 2016\Documents\KennyNeutron\2020\NRF24l01_gyro_scoreboard\nrf_gyro_reciever\nrf_gyro_reciever_20201014\nrf_gyro_reicieverv0.asm
           SHIFT_HOMEFOUL   0x0000e8    program     static C:\Users\gerpe\OneDrive\GER-PER 2016\Documents\KennyNeutron\2020\NRF24l01_gyro_scoreboard\nrf_gyro_reciever\nrf_gyro_reciever_20201014\nrf_gyro_reicieverv0.asm
                     SHF0   0x0000eb    program     static C:\Users\gerpe\OneDrive\GER-PER 2016\Documents\KennyNeutron\2020\NRF24l01_gyro_scoreboard\nrf_gyro_reciever\nrf_gyro_reciever_20201014\nrf_gyro_reicieverv0.asm
          SHIFT_HOMESCORE   0x0000f5    program     static C:\Users\gerpe\OneDrive\GER-PER 2016\Documents\KennyNeutron\2020\NRF24l01_gyro_scoreboard\nrf_gyro_reciever\nrf_gyro_reciever_20201014\nrf_gyro_reicieverv0.asm
                     SHS0   0x0000f8    program     static C:\Users\gerpe\OneDrive\GER-PER 2016\Documents\KennyNeutron\2020\NRF24l01_gyro_scoreboard\nrf_gyro_reciever\nrf_gyro_reciever_20201014\nrf_gyro_reicieverv0.asm
          SHIFT_SHOTCLOCK   0x000107    program     static C:\Users\gerpe\OneDrive\GER-PER 2016\Documents\KennyNeutron\2020\NRF24l01_gyro_scoreboard\nrf_gyro_reciever\nrf_gyro_reciever_20201014\nrf_gyro_reicieverv0.asm
                     SSC0   0x00010a    program     static C:\Users\gerpe\OneDrive\GER-PER 2016\Documents\KennyNeutron\2020\NRF24l01_gyro_scoreboard\nrf_gyro_reciever\nrf_gyro_reciever_20201014\nrf_gyro_reicieverv0.asm
         SHIFT_GUESTSCORE   0x000119    program     static C:\Users\gerpe\OneDrive\GER-PER 2016\Documents\KennyNeutron\2020\NRF24l01_gyro_scoreboard\nrf_gyro_reciever\nrf_gyro_reciever_20201014\nrf_gyro_reicieverv0.asm
                     SGS0   0x00011c    program     static C:\Users\gerpe\OneDrive\GER-PER 2016\Documents\KennyNeutron\2020\NRF24l01_gyro_scoreboard\nrf_gyro_reciever\nrf_gyro_reciever_20201014\nrf_gyro_reicieverv0.asm
          SHIFT_GUESTFOUL   0x00012b    program     static C:\Users\gerpe\OneDrive\GER-PER 2016\Documents\KennyNeutron\2020\NRF24l01_gyro_scoreboard\nrf_gyro_reciever\nrf_gyro_reciever_20201014\nrf_gyro_reicieverv0.asm
                     SGF0   0x00012e    program     static C:\Users\gerpe\OneDrive\GER-PER 2016\Documents\KennyNeutron\2020\NRF24l01_gyro_scoreboard\nrf_gyro_reciever\nrf_gyro_reciever_20201014\nrf_gyro_reicieverv0.asm
          SHIFT_STARTSTOP   0x00013d    program     static C:\Users\gerpe\OneDrive\GER-PER 2016\Documents\KennyNeutron\2020\NRF24l01_gyro_scoreboard\nrf_gyro_reciever\nrf_gyro_reciever_20201014\nrf_gyro_reicieverv0.asm
                     SSS0   0x000140    program     static C:\Users\gerpe\OneDrive\GER-PER 2016\Documents\KennyNeutron\2020\NRF24l01_gyro_scoreboard\nrf_gyro_reciever\nrf_gyro_reciever_20201014\nrf_gyro_reicieverv0.asm
             SHIFT_BUZZER   0x00014f    program     static C:\Users\gerpe\OneDrive\GER-PER 2016\Documents\KennyNeutron\2020\NRF24l01_gyro_scoreboard\nrf_gyro_reciever\nrf_gyro_reciever_20201014\nrf_gyro_reicieverv0.asm
                     SBZ0   0x000152    program     static C:\Users\gerpe\OneDrive\GER-PER 2016\Documents\KennyNeutron\2020\NRF24l01_gyro_scoreboard\nrf_gyro_reciever\nrf_gyro_reciever_20201014\nrf_gyro_reicieverv0.asm
              PRESS_SHIFT   0x000161    program     static C:\Users\gerpe\OneDrive\GER-PER 2016\Documents\KennyNeutron\2020\NRF24l01_gyro_scoreboard\nrf_gyro_reciever\nrf_gyro_reciever_20201014\nrf_gyro_reicieverv0.asm
               LONG_SHIFT   0x000168    program     static C:\Users\gerpe\OneDrive\GER-PER 2016\Documents\KennyNeutron\2020\NRF24l01_gyro_scoreboard\nrf_gyro_reciever\nrf_gyro_reciever_20201014\nrf_gyro_reicieverv0.asm
             KEYPAD_RESET   0x000179    program     static C:\Users\gerpe\OneDrive\GER-PER 2016\Documents\KennyNeutron\2020\NRF24l01_gyro_scoreboard\nrf_gyro_reciever\nrf_gyro_reciever_20201014\nrf_gyro_reicieverv0.asm
                INTERRUPT   0x00017d    program     static C:\Users\gerpe\OneDrive\GER-PER 2016\Documents\KennyNeutron\2020\NRF24l01_gyro_scoreboard\nrf_gyro_reciever\nrf_gyro_reciever_20201014\nrf_gyro_reicieverv0.asm
         NRF_SEND_PAYLOAD   0x000ea0    program     static C:\Users\gerpe\OneDrive\GER-PER 2016\Documents\KennyNeutron\2020\NRF24l01_gyro_scoreboard\nrf_gyro_reciever\nrf_gyro_reciever_20201014\nrf_gyro_reicieverv0.asm
          NRF_GET_PAYLOAD   0x000ea2    program     static C:\Users\gerpe\OneDrive\GER-PER 2016\Documents\KennyNeutron\2020\NRF24l01_gyro_scoreboard\nrf_gyro_reciever\nrf_gyro_reciever_20201014\nrf_gyro_reicieverv0.asm
          RADIO_SEND_DATA   0x000ed0    program     static C:\Users\gerpe\OneDrive\GER-PER 2016\Documents\KennyNeutron\2020\NRF24l01_gyro_scoreboard\nrf_gyro_reciever\nrf_gyro_reciever_20201014\nrf_gyro_reicieverv0.asm
                     RSD0   0x000ed8    program     static C:\Users\gerpe\OneDrive\GER-PER 2016\Documents\KennyNeutron\2020\NRF24l01_gyro_scoreboard\nrf_gyro_reciever\nrf_gyro_reciever_20201014\nrf_gyro_reicieverv0.asm
                    TXDS0   0x000ee9    program     static C:\Users\gerpe\OneDrive\GER-PER 2016\Documents\KennyNeutron\2020\NRF24l01_gyro_scoreboard\nrf_gyro_reciever\nrf_gyro_reciever_20201014\nrf_gyro_reicieverv0.asm
                    TXDS1   0x000eeb    program     static C:\Users\gerpe\OneDrive\GER-PER 2016\Documents\KennyNeutron\2020\NRF24l01_gyro_scoreboard\nrf_gyro_reciever\nrf_gyro_reciever_20201014\nrf_gyro_reicieverv0.asm
                     RSD1   0x000eee    program     static C:\Users\gerpe\OneDrive\GER-PER 2016\Documents\KennyNeutron\2020\NRF24l01_gyro_scoreboard\nrf_gyro_reciever\nrf_gyro_reciever_20201014\nrf_gyro_reicieverv0.asm
          RADIO_RECV_DATA   0x000ef0    program     static C:\Users\gerpe\OneDrive\GER-PER 2016\Documents\KennyNeutron\2020\NRF24l01_gyro_scoreboard\nrf_gyro_reciever\nrf_gyro_reciever_20201014\nrf_gyro_reicieverv0.asm
                    RXDR0   0x000ef4    program     static C:\Users\gerpe\OneDrive\GER-PER 2016\Documents\KennyNeutron\2020\NRF24l01_gyro_scoreboard\nrf_gyro_reciever\nrf_gyro_reciever_20201014\nrf_gyro_reicieverv0.asm
                    RXDR1   0x000ef5    program     static C:\Users\gerpe\OneDrive\GER-PER 2016\Documents\KennyNeutron\2020\NRF24l01_gyro_scoreboard\nrf_gyro_reciever\nrf_gyro_reciever_20201014\nrf_gyro_reicieverv0.asm
                     RRD0   0x000efa    program     static C:\Users\gerpe\OneDrive\GER-PER 2016\Documents\KennyNeutron\2020\NRF24l01_gyro_scoreboard\nrf_gyro_reciever\nrf_gyro_reciever_20201014\nrf_gyro_reicieverv0.asm
          RADIO_CHECKFIFO   0x000efd    program     static C:\Users\gerpe\OneDrive\GER-PER 2016\Documents\KennyNeutron\2020\NRF24l01_gyro_scoreboard\nrf_gyro_reciever\nrf_gyro_reciever_20201014\nrf_gyro_reicieverv0.asm
        RADIO_READ_RXFIFO   0x000f03    program     static C:\Users\gerpe\OneDrive\GER-PER 2016\Documents\KennyNeutron\2020\NRF24l01_gyro_scoreboard\nrf_gyro_reciever\nrf_gyro_reciever_20201014\nrf_gyro_reicieverv0.asm
                     RFF0   0x000f0b    program     static C:\Users\gerpe\OneDrive\GER-PER 2016\Documents\KennyNeutron\2020\NRF24l01_gyro_scoreboard\nrf_gyro_reciever\nrf_gyro_reciever_20201014\nrf_gyro_reicieverv0.asm
          RADIO_CLRSTATUS   0x000f12    program     static C:\Users\gerpe\OneDrive\GER-PER 2016\Documents\KennyNeutron\2020\NRF24l01_gyro_scoreboard\nrf_gyro_reciever\nrf_gyro_reciever_20201014\nrf_gyro_reicieverv0.asm
        RADIO_CHECKSTATUS   0x000f18    program     static C:\Users\gerpe\OneDrive\GER-PER 2016\Documents\KennyNeutron\2020\NRF24l01_gyro_scoreboard\nrf_gyro_reciever\nrf_gyro_reciever_20201014\nrf_gyro_reicieverv0.asm
          RADIO_FLUSHFIFO   0x000f1e    program     static C:\Users\gerpe\OneDrive\GER-PER 2016\Documents\KennyNeutron\2020\NRF24l01_gyro_scoreboard\nrf_gyro_reciever\nrf_gyro_reciever_20201014\nrf_gyro_reicieverv0.asm
              RADIO_BEGIN   0x000f2d    program     static C:\Users\gerpe\OneDrive\GER-PER 2016\Documents\KennyNeutron\2020\NRF24l01_gyro_scoreboard\nrf_gyro_reciever\nrf_gyro_reciever_20201014\nrf_gyro_reicieverv0.asm
           SET_TX_ADDRESS   0x000f68    program     static C:\Users\gerpe\OneDrive\GER-PER 2016\Documents\KennyNeutron\2020\NRF24l01_gyro_scoreboard\nrf_gyro_reciever\nrf_gyro_reciever_20201014\nrf_gyro_reicieverv0.asm
           SET_RX_ADDRESS   0x000f7d    program     static C:\Users\gerpe\OneDrive\GER-PER 2016\Documents\KennyNeutron\2020\NRF24l01_gyro_scoreboard\nrf_gyro_reciever\nrf_gyro_reciever_20201014\nrf_gyro_reicieverv0.asm
             CMD_REGWRITE   0x000f92    program     static C:\Users\gerpe\OneDrive\GER-PER 2016\Documents\KennyNeutron\2020\NRF24l01_gyro_scoreboard\nrf_gyro_reciever\nrf_gyro_reciever_20201014\nrf_gyro_reicieverv0.asm
              CMD_REGREAD   0x000f9c    program     static C:\Users\gerpe\OneDrive\GER-PER 2016\Documents\KennyNeutron\2020\NRF24l01_gyro_scoreboard\nrf_gyro_reciever\nrf_gyro_reciever_20201014\nrf_gyro_reicieverv0.asm
             SPI_SENDBYTE   0x000fa4    program     static C:\Users\gerpe\OneDrive\GER-PER 2016\Documents\KennyNeutron\2020\NRF24l01_gyro_scoreboard\nrf_gyro_reciever\nrf_gyro_reciever_20201014\nrf_gyro_reicieverv0.asm
                     SSB0   0x000fa6    program     static C:\Users\gerpe\OneDrive\GER-PER 2016\Documents\KennyNeutron\2020\NRF24l01_gyro_scoreboard\nrf_gyro_reciever\nrf_gyro_reciever_20201014\nrf_gyro_reicieverv0.asm
                SSB_MOSI1   0x000faa    program     static C:\Users\gerpe\OneDrive\GER-PER 2016\Documents\KennyNeutron\2020\NRF24l01_gyro_scoreboard\nrf_gyro_reciever\nrf_gyro_reciever_20201014\nrf_gyro_reicieverv0.asm
                SSB_MOSI0   0x000fac    program     static C:\Users\gerpe\OneDrive\GER-PER 2016\Documents\KennyNeutron\2020\NRF24l01_gyro_scoreboard\nrf_gyro_reciever\nrf_gyro_reciever_20201014\nrf_gyro_reicieverv0.asm
                     SSB1   0x000faf    program     static C:\Users\gerpe\OneDrive\GER-PER 2016\Documents\KennyNeutron\2020\NRF24l01_gyro_scoreboard\nrf_gyro_reciever\nrf_gyro_reciever_20201014\nrf_gyro_reicieverv0.asm
             SPI_RECVBYTE   0x000fb5    program     static C:\Users\gerpe\OneDrive\GER-PER 2016\Documents\KennyNeutron\2020\NRF24l01_gyro_scoreboard\nrf_gyro_reciever\nrf_gyro_reciever_20201014\nrf_gyro_reicieverv0.asm
                     SRB0   0x000fb9    program     static C:\Users\gerpe\OneDrive\GER-PER 2016\Documents\KennyNeutron\2020\NRF24l01_gyro_scoreboard\nrf_gyro_reciever\nrf_gyro_reciever_20201014\nrf_gyro_reicieverv0.asm
                SRB_MISO1   0x000fbc    program     static C:\Users\gerpe\OneDrive\GER-PER 2016\Documents\KennyNeutron\2020\NRF24l01_gyro_scoreboard\nrf_gyro_reciever\nrf_gyro_reciever_20201014\nrf_gyro_reicieverv0.asm
                SRB_MISO0   0x000fbe    program     static C:\Users\gerpe\OneDrive\GER-PER 2016\Documents\KennyNeutron\2020\NRF24l01_gyro_scoreboard\nrf_gyro_reciever\nrf_gyro_reciever_20201014\nrf_gyro_reicieverv0.asm
                     SRB1   0x000fc0    program     static C:\Users\gerpe\OneDrive\GER-PER 2016\Documents\KennyNeutron\2020\NRF24l01_gyro_scoreboard\nrf_gyro_reciever\nrf_gyro_reciever_20201014\nrf_gyro_reicieverv0.asm
             NRF_DELAY_US   0x000fc9    program     static C:\Users\gerpe\OneDrive\GER-PER 2016\Documents\KennyNeutron\2020\NRF24l01_gyro_scoreboard\nrf_gyro_reciever\nrf_gyro_reciever_20201014\nrf_gyro_reicieverv0.asm
                 NRF_USEC   0x000fca    program     static C:\Users\gerpe\OneDrive\GER-PER 2016\Documents\KennyNeutron\2020\NRF24l01_gyro_scoreboard\nrf_gyro_reciever\nrf_gyro_reciever_20201014\nrf_gyro_reicieverv0.asm
          NRF_DELAY_ONEMS   0x000fd1    program     static C:\Users\gerpe\OneDrive\GER-PER 2016\Documents\KennyNeutron\2020\NRF24l01_gyro_scoreboard\nrf_gyro_reciever\nrf_gyro_reciever_20201014\nrf_gyro_reicieverv0.asm
                 NRF_MSEC   0x000fd3    program     static C:\Users\gerpe\OneDrive\GER-PER 2016\Documents\KennyNeutron\2020\NRF24l01_gyro_scoreboard\nrf_gyro_reciever\nrf_gyro_reciever_20201014\nrf_gyro_reicieverv0.asm
             NRF_DELAY_MS   0x000fd8    program     static C:\Users\gerpe\OneDrive\GER-PER 2016\Documents\KennyNeutron\2020\NRF24l01_gyro_scoreboard\nrf_gyro_reciever\nrf_gyro_reciever_20201014\nrf_gyro_reicieverv0.asm
                NRF_MSEC0   0x000fd9    program     static C:\Users\gerpe\OneDrive\GER-PER 2016\Documents\KennyNeutron\2020\NRF24l01_gyro_scoreboard\nrf_gyro_reciever\nrf_gyro_reciever_20201014\nrf_gyro_reicieverv0.asm


