MPLINK 4.49, Linker
Linker Map File - Created Thu May 02 15:14:39 2019

                                 Section Info
                  Section       Type    Address   Location Size(Bytes)
                ---------  ---------  ---------  ---------  ---------
                   .org_0       code   0x000000    program   0x000000
                   .org_1       code   0x000000    program   0x000002
                   .org_2       code   0x000004    program   0x00087c
                   .org_3       code   0x000800    program   0x000300
.config_2007_HUB12_LIBRARYCOUNT0TO99.O       code   0x002007    program   0x000002
                   .org_4       code   0x002100    program   0x000008



                              Program Memory Usage 
                               Start         End      
                           ---------   ---------      
                            0x000000    0x000000      
                            0x000004    0x000441      
                            0x000800    0x00097f      
                            0x002007    0x002007      
                            0x002100    0x002103      
            1476 out of 4359 program addresses used, program memory utilization is 33%



                              Symbols - Sorted by Name
                     Name    Address   Location    Storage File                     
                ---------  ---------  ---------  --------- ---------                
                        .   0x000000    program     static D:\KennyNeutron\HUB12_LIBRARY\HUB12_LIBRARYCOUNT0TO99.ASM
                    CLRAM   0x0003d5    program     static D:\KennyNeutron\HUB12_LIBRARY\HUB12_LIBRARYCOUNT0TO99.ASM
                 CNT_ONES   0x000071    program     static D:\KennyNeutron\HUB12_LIBRARY\HUB12_LIBRARYCOUNT0TO99.ASM
                 CNT_TENS   0x00003d    program     static D:\KennyNeutron\HUB12_LIBRARY\HUB12_LIBRARYCOUNT0TO99.ASM
                      COL   0x000940    program     static D:\KennyNeutron\HUB12_LIBRARY\HUB12_LIBRARYCOUNT0TO99.ASM
                  CSR_ET7   0x0000b4    program     static D:\KennyNeutron\HUB12_LIBRARY\HUB12_LIBRARYCOUNT0TO99.ASM
                  CSR_ETF   0x00011e    program     static D:\KennyNeutron\HUB12_LIBRARY\HUB12_LIBRARYCOUNT0TO99.ASM
                 CSR_ETF8   0x000198    program     static D:\KennyNeutron\HUB12_LIBRARY\HUB12_LIBRARYCOUNT0TO99.ASM
                  CSR_GT7   0x000115    program     static D:\KennyNeutron\HUB12_LIBRARY\HUB12_LIBRARYCOUNT0TO99.ASM
                  CSR_GTF   0x00018f    program     static D:\KennyNeutron\HUB12_LIBRARY\HUB12_LIBRARYCOUNT0TO99.ASM
                 CSR_GTF8   0x000218    program     static D:\KennyNeutron\HUB12_LIBRARY\HUB12_LIBRARYCOUNT0TO99.ASM
                  CSR_LT7   0x0000b4    program     static D:\KennyNeutron\HUB12_LIBRARY\HUB12_LIBRARYCOUNT0TO99.ASM
                  CSR_LTF   0x00011e    program     static D:\KennyNeutron\HUB12_LIBRARY\HUB12_LIBRARYCOUNT0TO99.ASM
                 CSR_LTF8   0x000198    program     static D:\KennyNeutron\HUB12_LIBRARY\HUB12_LIBRARYCOUNT0TO99.ASM
                       D0   0x000417    program     static D:\KennyNeutron\HUB12_LIBRARY\HUB12_LIBRARYCOUNT0TO99.ASM
                       D1   0x000419    program     static D:\KennyNeutron\HUB12_LIBRARY\HUB12_LIBRARYCOUNT0TO99.ASM
                DATALATCH   0x00040c    program     static D:\KennyNeutron\HUB12_LIBRARY\HUB12_LIBRARYCOUNT0TO99.ASM
                 DELAY_MS   0x000431    program     static D:\KennyNeutron\HUB12_LIBRARY\HUB12_LIBRARYCOUNT0TO99.ASM
              DELAY_ONEMS   0x00042a    program     static D:\KennyNeutron\HUB12_LIBRARY\HUB12_LIBRARYCOUNT0TO99.ASM
             DELAY_ONESEC   0x000436    program     static D:\KennyNeutron\HUB12_LIBRARY\HUB12_LIBRARYCOUNT0TO99.ASM
                DELAY_SEC   0x00043d    program     static D:\KennyNeutron\HUB12_LIBRARY\HUB12_LIBRARYCOUNT0TO99.ASM
                 DELAY_US   0x000422    program     static D:\KennyNeutron\HUB12_LIBRARY\HUB12_LIBRARYCOUNT0TO99.ASM
                     DISP   0x0000a5    program     static D:\KennyNeutron\HUB12_LIBRARY\HUB12_LIBRARYCOUNT0TO99.ASM
                  DISPLAY   0x0003e1    program     static D:\KennyNeutron\HUB12_LIBRARY\HUB12_LIBRARYCOUNT0TO99.ASM
                      DL0   0x000413    program     static D:\KennyNeutron\HUB12_LIBRARY\HUB12_LIBRARYCOUNT0TO99.ASM
                      DL1   0x00041b    program     static D:\KennyNeutron\HUB12_LIBRARY\HUB12_LIBRARYCOUNT0TO99.ASM
                      DP0   0x0003e1    program     static D:\KennyNeutron\HUB12_LIBRARY\HUB12_LIBRARYCOUNT0TO99.ASM
                     DRM0   0x0003d9    program     static D:\KennyNeutron\HUB12_LIBRARY\HUB12_LIBRARYCOUNT0TO99.ASM
                     DSP0   0x0003e5    program     static D:\KennyNeutron\HUB12_LIBRARY\HUB12_LIBRARYCOUNT0TO99.ASM
                     DSP1   0x0003ef    program     static D:\KennyNeutron\HUB12_LIBRARY\HUB12_LIBRARYCOUNT0TO99.ASM
                     DSP2   0x0003f9    program     static D:\KennyNeutron\HUB12_LIBRARY\HUB12_LIBRARYCOUNT0TO99.ASM
                     DSP3   0x000403    program     static D:\KennyNeutron\HUB12_LIBRARY\HUB12_LIBRARYCOUNT0TO99.ASM
                    EIGHT   0x0008e0    program     static D:\KennyNeutron\HUB12_LIBRARY\HUB12_LIBRARYCOUNT0TO99.ASM
                     FIVE   0x000880    program     static D:\KennyNeutron\HUB12_LIBRARY\HUB12_LIBRARYCOUNT0TO99.ASM
                     FOUR   0x000860    program     static D:\KennyNeutron\HUB12_LIBRARY\HUB12_LIBRARYCOUNT0TO99.ASM
                     INIT   0x000010    program     static D:\KennyNeutron\HUB12_LIBRARY\HUB12_LIBRARYCOUNT0TO99.ASM
                     MAIN   0x000023    program     static D:\KennyNeutron\HUB12_LIBRARY\HUB12_LIBRARYCOUNT0TO99.ASM
                      MN0   0x0000a7    program     static D:\KennyNeutron\HUB12_LIBRARY\HUB12_LIBRARYCOUNT0TO99.ASM
                     MSEC   0x00042c    program     static D:\KennyNeutron\HUB12_LIBRARY\HUB12_LIBRARYCOUNT0TO99.ASM
                    MSEC0   0x000432    program     static D:\KennyNeutron\HUB12_LIBRARY\HUB12_LIBRARYCOUNT0TO99.ASM
                     NINE   0x000900    program     static D:\KennyNeutron\HUB12_LIBRARY\HUB12_LIBRARYCOUNT0TO99.ASM
                    NUM_0   0x000219    program     static D:\KennyNeutron\HUB12_LIBRARY\HUB12_LIBRARYCOUNT0TO99.ASM
                    NUM_1   0x00023e    program     static D:\KennyNeutron\HUB12_LIBRARY\HUB12_LIBRARYCOUNT0TO99.ASM
                    NUM_2   0x000263    program     static D:\KennyNeutron\HUB12_LIBRARY\HUB12_LIBRARYCOUNT0TO99.ASM
                    NUM_3   0x000288    program     static D:\KennyNeutron\HUB12_LIBRARY\HUB12_LIBRARYCOUNT0TO99.ASM
                    NUM_4   0x0002ad    program     static D:\KennyNeutron\HUB12_LIBRARY\HUB12_LIBRARYCOUNT0TO99.ASM
                    NUM_5   0x0002d2    program     static D:\KennyNeutron\HUB12_LIBRARY\HUB12_LIBRARYCOUNT0TO99.ASM
                    NUM_6   0x0002f7    program     static D:\KennyNeutron\HUB12_LIBRARY\HUB12_LIBRARYCOUNT0TO99.ASM
                    NUM_7   0x00031c    program     static D:\KennyNeutron\HUB12_LIBRARY\HUB12_LIBRARYCOUNT0TO99.ASM
                    NUM_8   0x000341    program     static D:\KennyNeutron\HUB12_LIBRARY\HUB12_LIBRARYCOUNT0TO99.ASM
                    NUM_9   0x000366    program     static D:\KennyNeutron\HUB12_LIBRARY\HUB12_LIBRARYCOUNT0TO99.ASM
                  NUM_COL   0x00038b    program     static D:\KennyNeutron\HUB12_LIBRARY\HUB12_LIBRARYCOUNT0TO99.ASM
              NUM_SEMICOL   0x0003b0    program     static D:\KennyNeutron\HUB12_LIBRARY\HUB12_LIBRARYCOUNT0TO99.ASM
                      ONE   0x000800    program     static D:\KennyNeutron\HUB12_LIBRARY\HUB12_LIBRARYCOUNT0TO99.ASM
                     SEC0   0x000438    program     static D:\KennyNeutron\HUB12_LIBRARY\HUB12_LIBRARYCOUNT0TO99.ASM
                     SEC1   0x00043e    program     static D:\KennyNeutron\HUB12_LIBRARY\HUB12_LIBRARYCOUNT0TO99.ASM
                  SEMICOL   0x000960    program     static D:\KennyNeutron\HUB12_LIBRARY\HUB12_LIBRARYCOUNT0TO99.ASM
                    SEVEN   0x0008c0    program     static D:\KennyNeutron\HUB12_LIBRARY\HUB12_LIBRARYCOUNT0TO99.ASM
                    SHIFT   0x0000ab    program     static D:\KennyNeutron\HUB12_LIBRARY\HUB12_LIBRARYCOUNT0TO99.ASM
                    SHT00   0x0000b6    program     static D:\KennyNeutron\HUB12_LIBRARY\HUB12_LIBRARYCOUNT0TO99.ASM
                    SHT01   0x0000bc    program     static D:\KennyNeutron\HUB12_LIBRARY\HUB12_LIBRARYCOUNT0TO99.ASM
                    SHT02   0x0000c2    program     static D:\KennyNeutron\HUB12_LIBRARY\HUB12_LIBRARYCOUNT0TO99.ASM
                    SHT03   0x0000c8    program     static D:\KennyNeutron\HUB12_LIBRARY\HUB12_LIBRARYCOUNT0TO99.ASM
                    SHT04   0x0000ce    program     static D:\KennyNeutron\HUB12_LIBRARY\HUB12_LIBRARYCOUNT0TO99.ASM
                    SHT05   0x0000d4    program     static D:\KennyNeutron\HUB12_LIBRARY\HUB12_LIBRARYCOUNT0TO99.ASM
                    SHT06   0x0000da    program     static D:\KennyNeutron\HUB12_LIBRARY\HUB12_LIBRARYCOUNT0TO99.ASM
                    SHT07   0x0000e0    program     static D:\KennyNeutron\HUB12_LIBRARY\HUB12_LIBRARYCOUNT0TO99.ASM
                    SHT08   0x0000e6    program     static D:\KennyNeutron\HUB12_LIBRARY\HUB12_LIBRARYCOUNT0TO99.ASM
                    SHT09   0x0000ec    program     static D:\KennyNeutron\HUB12_LIBRARY\HUB12_LIBRARYCOUNT0TO99.ASM
                    SHT0A   0x0000f2    program     static D:\KennyNeutron\HUB12_LIBRARY\HUB12_LIBRARYCOUNT0TO99.ASM
                    SHT0B   0x0000f8    program     static D:\KennyNeutron\HUB12_LIBRARY\HUB12_LIBRARYCOUNT0TO99.ASM
                    SHT0C   0x0000fe    program     static D:\KennyNeutron\HUB12_LIBRARY\HUB12_LIBRARYCOUNT0TO99.ASM
                    SHT0D   0x000104    program     static D:\KennyNeutron\HUB12_LIBRARY\HUB12_LIBRARYCOUNT0TO99.ASM
                    SHT0E   0x00010a    program     static D:\KennyNeutron\HUB12_LIBRARY\HUB12_LIBRARYCOUNT0TO99.ASM
                    SHT0F   0x000110    program     static D:\KennyNeutron\HUB12_LIBRARY\HUB12_LIBRARYCOUNT0TO99.ASM
                    SHT10   0x000120    program     static D:\KennyNeutron\HUB12_LIBRARY\HUB12_LIBRARYCOUNT0TO99.ASM
                    SHT11   0x000127    program     static D:\KennyNeutron\HUB12_LIBRARY\HUB12_LIBRARYCOUNT0TO99.ASM
                    SHT12   0x00012e    program     static D:\KennyNeutron\HUB12_LIBRARY\HUB12_LIBRARYCOUNT0TO99.ASM
                    SHT13   0x000135    program     static D:\KennyNeutron\HUB12_LIBRARY\HUB12_LIBRARYCOUNT0TO99.ASM
                    SHT14   0x00013c    program     static D:\KennyNeutron\HUB12_LIBRARY\HUB12_LIBRARYCOUNT0TO99.ASM
                    SHT15   0x000143    program     static D:\KennyNeutron\HUB12_LIBRARY\HUB12_LIBRARYCOUNT0TO99.ASM
                    SHT16   0x00014a    program     static D:\KennyNeutron\HUB12_LIBRARY\HUB12_LIBRARYCOUNT0TO99.ASM
                    SHT17   0x000151    program     static D:\KennyNeutron\HUB12_LIBRARY\HUB12_LIBRARYCOUNT0TO99.ASM
                    SHT18   0x000158    program     static D:\KennyNeutron\HUB12_LIBRARY\HUB12_LIBRARYCOUNT0TO99.ASM
                    SHT19   0x00015f    program     static D:\KennyNeutron\HUB12_LIBRARY\HUB12_LIBRARYCOUNT0TO99.ASM
                    SHT1A   0x000166    program     static D:\KennyNeutron\HUB12_LIBRARY\HUB12_LIBRARYCOUNT0TO99.ASM
                    SHT1B   0x00016d    program     static D:\KennyNeutron\HUB12_LIBRARY\HUB12_LIBRARYCOUNT0TO99.ASM
                    SHT1C   0x000174    program     static D:\KennyNeutron\HUB12_LIBRARY\HUB12_LIBRARYCOUNT0TO99.ASM
                    SHT1D   0x00017b    program     static D:\KennyNeutron\HUB12_LIBRARY\HUB12_LIBRARYCOUNT0TO99.ASM
                    SHT1E   0x000182    program     static D:\KennyNeutron\HUB12_LIBRARY\HUB12_LIBRARYCOUNT0TO99.ASM
                    SHT1F   0x000189    program     static D:\KennyNeutron\HUB12_LIBRARY\HUB12_LIBRARYCOUNT0TO99.ASM
                    SHT20   0x00019a    program     static D:\KennyNeutron\HUB12_LIBRARY\HUB12_LIBRARYCOUNT0TO99.ASM
                    SHT21   0x0001a2    program     static D:\KennyNeutron\HUB12_LIBRARY\HUB12_LIBRARYCOUNT0TO99.ASM
                    SHT22   0x0001aa    program     static D:\KennyNeutron\HUB12_LIBRARY\HUB12_LIBRARYCOUNT0TO99.ASM
                    SHT23   0x0001b2    program     static D:\KennyNeutron\HUB12_LIBRARY\HUB12_LIBRARYCOUNT0TO99.ASM
                    SHT24   0x0001ba    program     static D:\KennyNeutron\HUB12_LIBRARY\HUB12_LIBRARYCOUNT0TO99.ASM
                    SHT25   0x0001c2    program     static D:\KennyNeutron\HUB12_LIBRARY\HUB12_LIBRARYCOUNT0TO99.ASM
                    SHT26   0x0001ca    program     static D:\KennyNeutron\HUB12_LIBRARY\HUB12_LIBRARYCOUNT0TO99.ASM
                    SHT27   0x0001d2    program     static D:\KennyNeutron\HUB12_LIBRARY\HUB12_LIBRARYCOUNT0TO99.ASM
                    SHT28   0x0001da    program     static D:\KennyNeutron\HUB12_LIBRARY\HUB12_LIBRARYCOUNT0TO99.ASM
                    SHT29   0x0001e2    program     static D:\KennyNeutron\HUB12_LIBRARY\HUB12_LIBRARYCOUNT0TO99.ASM
                    SHT2A   0x0001ea    program     static D:\KennyNeutron\HUB12_LIBRARY\HUB12_LIBRARYCOUNT0TO99.ASM
                    SHT2B   0x0001f2    program     static D:\KennyNeutron\HUB12_LIBRARY\HUB12_LIBRARYCOUNT0TO99.ASM
                    SHT2C   0x0001fa    program     static D:\KennyNeutron\HUB12_LIBRARY\HUB12_LIBRARYCOUNT0TO99.ASM
                    SHT2D   0x000202    program     static D:\KennyNeutron\HUB12_LIBRARY\HUB12_LIBRARYCOUNT0TO99.ASM
                    SHT2E   0x00020a    program     static D:\KennyNeutron\HUB12_LIBRARY\HUB12_LIBRARYCOUNT0TO99.ASM
                    SHT2F   0x000212    program     static D:\KennyNeutron\HUB12_LIBRARY\HUB12_LIBRARYCOUNT0TO99.ASM
                      SIX   0x0008a0    program     static D:\KennyNeutron\HUB12_LIBRARY\HUB12_LIBRARYCOUNT0TO99.ASM
                    TABLE   0x000442    program     static D:\KennyNeutron\HUB12_LIBRARY\HUB12_LIBRARYCOUNT0TO99.ASM
                    THREE   0x000840    program     static D:\KennyNeutron\HUB12_LIBRARY\HUB12_LIBRARYCOUNT0TO99.ASM
                      TWO   0x000820    program     static D:\KennyNeutron\HUB12_LIBRARY\HUB12_LIBRARYCOUNT0TO99.ASM
                     USEC   0x000423    program     static D:\KennyNeutron\HUB12_LIBRARY\HUB12_LIBRARYCOUNT0TO99.ASM
                     ZERO   0x000920    program     static D:\KennyNeutron\HUB12_LIBRARY\HUB12_LIBRARYCOUNT0TO99.ASM



                              Symbols - Sorted by Address
                     Name    Address   Location    Storage File                     
                ---------  ---------  ---------  --------- ---------                
                        .   0x000000    program     static D:\KennyNeutron\HUB12_LIBRARY\HUB12_LIBRARYCOUNT0TO99.ASM
                     INIT   0x000010    program     static D:\KennyNeutron\HUB12_LIBRARY\HUB12_LIBRARYCOUNT0TO99.ASM
                     MAIN   0x000023    program     static D:\KennyNeutron\HUB12_LIBRARY\HUB12_LIBRARYCOUNT0TO99.ASM
                 CNT_TENS   0x00003d    program     static D:\KennyNeutron\HUB12_LIBRARY\HUB12_LIBRARYCOUNT0TO99.ASM
                 CNT_ONES   0x000071    program     static D:\KennyNeutron\HUB12_LIBRARY\HUB12_LIBRARYCOUNT0TO99.ASM
                     DISP   0x0000a5    program     static D:\KennyNeutron\HUB12_LIBRARY\HUB12_LIBRARYCOUNT0TO99.ASM
                      MN0   0x0000a7    program     static D:\KennyNeutron\HUB12_LIBRARY\HUB12_LIBRARYCOUNT0TO99.ASM
                    SHIFT   0x0000ab    program     static D:\KennyNeutron\HUB12_LIBRARY\HUB12_LIBRARYCOUNT0TO99.ASM
                  CSR_ET7   0x0000b4    program     static D:\KennyNeutron\HUB12_LIBRARY\HUB12_LIBRARYCOUNT0TO99.ASM
                  CSR_LT7   0x0000b4    program     static D:\KennyNeutron\HUB12_LIBRARY\HUB12_LIBRARYCOUNT0TO99.ASM
                    SHT00   0x0000b6    program     static D:\KennyNeutron\HUB12_LIBRARY\HUB12_LIBRARYCOUNT0TO99.ASM
                    SHT01   0x0000bc    program     static D:\KennyNeutron\HUB12_LIBRARY\HUB12_LIBRARYCOUNT0TO99.ASM
                    SHT02   0x0000c2    program     static D:\KennyNeutron\HUB12_LIBRARY\HUB12_LIBRARYCOUNT0TO99.ASM
                    SHT03   0x0000c8    program     static D:\KennyNeutron\HUB12_LIBRARY\HUB12_LIBRARYCOUNT0TO99.ASM
                    SHT04   0x0000ce    program     static D:\KennyNeutron\HUB12_LIBRARY\HUB12_LIBRARYCOUNT0TO99.ASM
                    SHT05   0x0000d4    program     static D:\KennyNeutron\HUB12_LIBRARY\HUB12_LIBRARYCOUNT0TO99.ASM
                    SHT06   0x0000da    program     static D:\KennyNeutron\HUB12_LIBRARY\HUB12_LIBRARYCOUNT0TO99.ASM
                    SHT07   0x0000e0    program     static D:\KennyNeutron\HUB12_LIBRARY\HUB12_LIBRARYCOUNT0TO99.ASM
                    SHT08   0x0000e6    program     static D:\KennyNeutron\HUB12_LIBRARY\HUB12_LIBRARYCOUNT0TO99.ASM
                    SHT09   0x0000ec    program     static D:\KennyNeutron\HUB12_LIBRARY\HUB12_LIBRARYCOUNT0TO99.ASM
                    SHT0A   0x0000f2    program     static D:\KennyNeutron\HUB12_LIBRARY\HUB12_LIBRARYCOUNT0TO99.ASM
                    SHT0B   0x0000f8    program     static D:\KennyNeutron\HUB12_LIBRARY\HUB12_LIBRARYCOUNT0TO99.ASM
                    SHT0C   0x0000fe    program     static D:\KennyNeutron\HUB12_LIBRARY\HUB12_LIBRARYCOUNT0TO99.ASM
                    SHT0D   0x000104    program     static D:\KennyNeutron\HUB12_LIBRARY\HUB12_LIBRARYCOUNT0TO99.ASM
                    SHT0E   0x00010a    program     static D:\KennyNeutron\HUB12_LIBRARY\HUB12_LIBRARYCOUNT0TO99.ASM
                    SHT0F   0x000110    program     static D:\KennyNeutron\HUB12_LIBRARY\HUB12_LIBRARYCOUNT0TO99.ASM
                  CSR_GT7   0x000115    program     static D:\KennyNeutron\HUB12_LIBRARY\HUB12_LIBRARYCOUNT0TO99.ASM
                  CSR_LTF   0x00011e    program     static D:\KennyNeutron\HUB12_LIBRARY\HUB12_LIBRARYCOUNT0TO99.ASM
                  CSR_ETF   0x00011e    program     static D:\KennyNeutron\HUB12_LIBRARY\HUB12_LIBRARYCOUNT0TO99.ASM
                    SHT10   0x000120    program     static D:\KennyNeutron\HUB12_LIBRARY\HUB12_LIBRARYCOUNT0TO99.ASM
                    SHT11   0x000127    program     static D:\KennyNeutron\HUB12_LIBRARY\HUB12_LIBRARYCOUNT0TO99.ASM
                    SHT12   0x00012e    program     static D:\KennyNeutron\HUB12_LIBRARY\HUB12_LIBRARYCOUNT0TO99.ASM
                    SHT13   0x000135    program     static D:\KennyNeutron\HUB12_LIBRARY\HUB12_LIBRARYCOUNT0TO99.ASM
                    SHT14   0x00013c    program     static D:\KennyNeutron\HUB12_LIBRARY\HUB12_LIBRARYCOUNT0TO99.ASM
                    SHT15   0x000143    program     static D:\KennyNeutron\HUB12_LIBRARY\HUB12_LIBRARYCOUNT0TO99.ASM
                    SHT16   0x00014a    program     static D:\KennyNeutron\HUB12_LIBRARY\HUB12_LIBRARYCOUNT0TO99.ASM
                    SHT17   0x000151    program     static D:\KennyNeutron\HUB12_LIBRARY\HUB12_LIBRARYCOUNT0TO99.ASM
                    SHT18   0x000158    program     static D:\KennyNeutron\HUB12_LIBRARY\HUB12_LIBRARYCOUNT0TO99.ASM
                    SHT19   0x00015f    program     static D:\KennyNeutron\HUB12_LIBRARY\HUB12_LIBRARYCOUNT0TO99.ASM
                    SHT1A   0x000166    program     static D:\KennyNeutron\HUB12_LIBRARY\HUB12_LIBRARYCOUNT0TO99.ASM
                    SHT1B   0x00016d    program     static D:\KennyNeutron\HUB12_LIBRARY\HUB12_LIBRARYCOUNT0TO99.ASM
                    SHT1C   0x000174    program     static D:\KennyNeutron\HUB12_LIBRARY\HUB12_LIBRARYCOUNT0TO99.ASM
                    SHT1D   0x00017b    program     static D:\KennyNeutron\HUB12_LIBRARY\HUB12_LIBRARYCOUNT0TO99.ASM
                    SHT1E   0x000182    program     static D:\KennyNeutron\HUB12_LIBRARY\HUB12_LIBRARYCOUNT0TO99.ASM
                    SHT1F   0x000189    program     static D:\KennyNeutron\HUB12_LIBRARY\HUB12_LIBRARYCOUNT0TO99.ASM
                  CSR_GTF   0x00018f    program     static D:\KennyNeutron\HUB12_LIBRARY\HUB12_LIBRARYCOUNT0TO99.ASM
                 CSR_ETF8   0x000198    program     static D:\KennyNeutron\HUB12_LIBRARY\HUB12_LIBRARYCOUNT0TO99.ASM
                 CSR_LTF8   0x000198    program     static D:\KennyNeutron\HUB12_LIBRARY\HUB12_LIBRARYCOUNT0TO99.ASM
                    SHT20   0x00019a    program     static D:\KennyNeutron\HUB12_LIBRARY\HUB12_LIBRARYCOUNT0TO99.ASM
                    SHT21   0x0001a2    program     static D:\KennyNeutron\HUB12_LIBRARY\HUB12_LIBRARYCOUNT0TO99.ASM
                    SHT22   0x0001aa    program     static D:\KennyNeutron\HUB12_LIBRARY\HUB12_LIBRARYCOUNT0TO99.ASM
                    SHT23   0x0001b2    program     static D:\KennyNeutron\HUB12_LIBRARY\HUB12_LIBRARYCOUNT0TO99.ASM
                    SHT24   0x0001ba    program     static D:\KennyNeutron\HUB12_LIBRARY\HUB12_LIBRARYCOUNT0TO99.ASM
                    SHT25   0x0001c2    program     static D:\KennyNeutron\HUB12_LIBRARY\HUB12_LIBRARYCOUNT0TO99.ASM
                    SHT26   0x0001ca    program     static D:\KennyNeutron\HUB12_LIBRARY\HUB12_LIBRARYCOUNT0TO99.ASM
                    SHT27   0x0001d2    program     static D:\KennyNeutron\HUB12_LIBRARY\HUB12_LIBRARYCOUNT0TO99.ASM
                    SHT28   0x0001da    program     static D:\KennyNeutron\HUB12_LIBRARY\HUB12_LIBRARYCOUNT0TO99.ASM
                    SHT29   0x0001e2    program     static D:\KennyNeutron\HUB12_LIBRARY\HUB12_LIBRARYCOUNT0TO99.ASM
                    SHT2A   0x0001ea    program     static D:\KennyNeutron\HUB12_LIBRARY\HUB12_LIBRARYCOUNT0TO99.ASM
                    SHT2B   0x0001f2    program     static D:\KennyNeutron\HUB12_LIBRARY\HUB12_LIBRARYCOUNT0TO99.ASM
                    SHT2C   0x0001fa    program     static D:\KennyNeutron\HUB12_LIBRARY\HUB12_LIBRARYCOUNT0TO99.ASM
                    SHT2D   0x000202    program     static D:\KennyNeutron\HUB12_LIBRARY\HUB12_LIBRARYCOUNT0TO99.ASM
                    SHT2E   0x00020a    program     static D:\KennyNeutron\HUB12_LIBRARY\HUB12_LIBRARYCOUNT0TO99.ASM
                    SHT2F   0x000212    program     static D:\KennyNeutron\HUB12_LIBRARY\HUB12_LIBRARYCOUNT0TO99.ASM
                 CSR_GTF8   0x000218    program     static D:\KennyNeutron\HUB12_LIBRARY\HUB12_LIBRARYCOUNT0TO99.ASM
                    NUM_0   0x000219    program     static D:\KennyNeutron\HUB12_LIBRARY\HUB12_LIBRARYCOUNT0TO99.ASM
                    NUM_1   0x00023e    program     static D:\KennyNeutron\HUB12_LIBRARY\HUB12_LIBRARYCOUNT0TO99.ASM
                    NUM_2   0x000263    program     static D:\KennyNeutron\HUB12_LIBRARY\HUB12_LIBRARYCOUNT0TO99.ASM
                    NUM_3   0x000288    program     static D:\KennyNeutron\HUB12_LIBRARY\HUB12_LIBRARYCOUNT0TO99.ASM
                    NUM_4   0x0002ad    program     static D:\KennyNeutron\HUB12_LIBRARY\HUB12_LIBRARYCOUNT0TO99.ASM
                    NUM_5   0x0002d2    program     static D:\KennyNeutron\HUB12_LIBRARY\HUB12_LIBRARYCOUNT0TO99.ASM
                    NUM_6   0x0002f7    program     static D:\KennyNeutron\HUB12_LIBRARY\HUB12_LIBRARYCOUNT0TO99.ASM
                    NUM_7   0x00031c    program     static D:\KennyNeutron\HUB12_LIBRARY\HUB12_LIBRARYCOUNT0TO99.ASM
                    NUM_8   0x000341    program     static D:\KennyNeutron\HUB12_LIBRARY\HUB12_LIBRARYCOUNT0TO99.ASM
                    NUM_9   0x000366    program     static D:\KennyNeutron\HUB12_LIBRARY\HUB12_LIBRARYCOUNT0TO99.ASM
                  NUM_COL   0x00038b    program     static D:\KennyNeutron\HUB12_LIBRARY\HUB12_LIBRARYCOUNT0TO99.ASM
              NUM_SEMICOL   0x0003b0    program     static D:\KennyNeutron\HUB12_LIBRARY\HUB12_LIBRARYCOUNT0TO99.ASM
                    CLRAM   0x0003d5    program     static D:\KennyNeutron\HUB12_LIBRARY\HUB12_LIBRARYCOUNT0TO99.ASM
                     DRM0   0x0003d9    program     static D:\KennyNeutron\HUB12_LIBRARY\HUB12_LIBRARYCOUNT0TO99.ASM
                      DP0   0x0003e1    program     static D:\KennyNeutron\HUB12_LIBRARY\HUB12_LIBRARYCOUNT0TO99.ASM
                  DISPLAY   0x0003e1    program     static D:\KennyNeutron\HUB12_LIBRARY\HUB12_LIBRARYCOUNT0TO99.ASM
                     DSP0   0x0003e5    program     static D:\KennyNeutron\HUB12_LIBRARY\HUB12_LIBRARYCOUNT0TO99.ASM
                     DSP1   0x0003ef    program     static D:\KennyNeutron\HUB12_LIBRARY\HUB12_LIBRARYCOUNT0TO99.ASM
                     DSP2   0x0003f9    program     static D:\KennyNeutron\HUB12_LIBRARY\HUB12_LIBRARYCOUNT0TO99.ASM
                     DSP3   0x000403    program     static D:\KennyNeutron\HUB12_LIBRARY\HUB12_LIBRARYCOUNT0TO99.ASM
                DATALATCH   0x00040c    program     static D:\KennyNeutron\HUB12_LIBRARY\HUB12_LIBRARYCOUNT0TO99.ASM
                      DL0   0x000413    program     static D:\KennyNeutron\HUB12_LIBRARY\HUB12_LIBRARYCOUNT0TO99.ASM
                       D0   0x000417    program     static D:\KennyNeutron\HUB12_LIBRARY\HUB12_LIBRARYCOUNT0TO99.ASM
                       D1   0x000419    program     static D:\KennyNeutron\HUB12_LIBRARY\HUB12_LIBRARYCOUNT0TO99.ASM
                      DL1   0x00041b    program     static D:\KennyNeutron\HUB12_LIBRARY\HUB12_LIBRARYCOUNT0TO99.ASM
                 DELAY_US   0x000422    program     static D:\KennyNeutron\HUB12_LIBRARY\HUB12_LIBRARYCOUNT0TO99.ASM
                     USEC   0x000423    program     static D:\KennyNeutron\HUB12_LIBRARY\HUB12_LIBRARYCOUNT0TO99.ASM
              DELAY_ONEMS   0x00042a    program     static D:\KennyNeutron\HUB12_LIBRARY\HUB12_LIBRARYCOUNT0TO99.ASM
                     MSEC   0x00042c    program     static D:\KennyNeutron\HUB12_LIBRARY\HUB12_LIBRARYCOUNT0TO99.ASM
                 DELAY_MS   0x000431    program     static D:\KennyNeutron\HUB12_LIBRARY\HUB12_LIBRARYCOUNT0TO99.ASM
                    MSEC0   0x000432    program     static D:\KennyNeutron\HUB12_LIBRARY\HUB12_LIBRARYCOUNT0TO99.ASM
             DELAY_ONESEC   0x000436    program     static D:\KennyNeutron\HUB12_LIBRARY\HUB12_LIBRARYCOUNT0TO99.ASM
                     SEC0   0x000438    program     static D:\KennyNeutron\HUB12_LIBRARY\HUB12_LIBRARYCOUNT0TO99.ASM
                DELAY_SEC   0x00043d    program     static D:\KennyNeutron\HUB12_LIBRARY\HUB12_LIBRARYCOUNT0TO99.ASM
                     SEC1   0x00043e    program     static D:\KennyNeutron\HUB12_LIBRARY\HUB12_LIBRARYCOUNT0TO99.ASM
                    TABLE   0x000442    program     static D:\KennyNeutron\HUB12_LIBRARY\HUB12_LIBRARYCOUNT0TO99.ASM
                      ONE   0x000800    program     static D:\KennyNeutron\HUB12_LIBRARY\HUB12_LIBRARYCOUNT0TO99.ASM
                      TWO   0x000820    program     static D:\KennyNeutron\HUB12_LIBRARY\HUB12_LIBRARYCOUNT0TO99.ASM
                    THREE   0x000840    program     static D:\KennyNeutron\HUB12_LIBRARY\HUB12_LIBRARYCOUNT0TO99.ASM
                     FOUR   0x000860    program     static D:\KennyNeutron\HUB12_LIBRARY\HUB12_LIBRARYCOUNT0TO99.ASM
                     FIVE   0x000880    program     static D:\KennyNeutron\HUB12_LIBRARY\HUB12_LIBRARYCOUNT0TO99.ASM
                      SIX   0x0008a0    program     static D:\KennyNeutron\HUB12_LIBRARY\HUB12_LIBRARYCOUNT0TO99.ASM
                    SEVEN   0x0008c0    program     static D:\KennyNeutron\HUB12_LIBRARY\HUB12_LIBRARYCOUNT0TO99.ASM
                    EIGHT   0x0008e0    program     static D:\KennyNeutron\HUB12_LIBRARY\HUB12_LIBRARYCOUNT0TO99.ASM
                     NINE   0x000900    program     static D:\KennyNeutron\HUB12_LIBRARY\HUB12_LIBRARYCOUNT0TO99.ASM
                     ZERO   0x000920    program     static D:\KennyNeutron\HUB12_LIBRARY\HUB12_LIBRARYCOUNT0TO99.ASM
                      COL   0x000940    program     static D:\KennyNeutron\HUB12_LIBRARY\HUB12_LIBRARYCOUNT0TO99.ASM
                  SEMICOL   0x000960    program     static D:\KennyNeutron\HUB12_LIBRARY\HUB12_LIBRARYCOUNT0TO99.ASM


