;/////////////////////////////////////////////////////////////////////////////////
;// Code Generator: BoostC Compiler - http://www.sourceboost.com
;// Version       : 7.03
;// License Type  : Pro License
;// Limitations   : PIC12,PIC16 max code size:Unlimited, max RAM banks:Unlimited
;/////////////////////////////////////////////////////////////////////////////////

	ORG 0x00000000
0000  28BF  	GOTO	_startup
	ORG 0x00000004
0004  00FF  	MOVWF Int1Context
0005  0E03  	SWAPF STATUS, W
0006  1283  	BCF STATUS, RP0
0007  1303  	BCF STATUS, RP1
0008  00B4  	MOVWF Int1BContext
0009  0E0A  	SWAPF PCLATH, W
000A  00B5  	MOVWF Int1BContext+D'1'
000B  0E04  	SWAPF FSR, W
000C  00B6  	MOVWF Int1BContext+D'2'
000D  118A  	BCF PCLATH,3
000E  120A  	BCF PCLATH,4
000F  28FD  	GOTO	interrupt
	ORG 0x00000010
0010        FC_CAL_UAR_00054
0010        ; { FC_CAL_UART_Send_1 ; function begin
0010        label1
0010  1E0C  	BTFSS gbl_pir1,4
0011  2810  	GOTO	label1
0012  085B  	MOVF FC_CAL_UAR_00054_arg_nChar, W
0013  0099  	MOVWF gbl_txreg
0014  0008  	RETURN
0015        ; } FC_CAL_UART_Send_1 function end

	ORG 0x00000015
0015        FCD_RS2320_00052
0015        ; { FCD_RS2320_SendRS232Char ; function begin
0015  0859  	MOVF FCD_RS2320_00052_arg_nChar, W
0016  00DB  	MOVWF FC_CAL_UAR_00054_arg_nChar
0017  085A  	MOVF FCD_RS2320_00052_arg_nChar+D'1', W
0018  00DC  	MOVWF FC_CAL_UAR_00054_arg_nChar+D'1'
0019  2010  	CALL FC_CAL_UAR_00054
001A  0008  	RETURN
001B        ; } FCD_RS2320_SendRS232Char function end

	ORG 0x0000001B
001B        FC_CAL_UAR_00053
001B        ; { FC_CAL_UART_Init_1 ; function begin
001B  1683  	BSF STATUS, RP0
001C  1303  	BCF STATUS, RP1
001D  1518  	BSF gbl_txsta,2
001E  3014  	MOVLW 0x14
001F  0099  	MOVWF gbl_spbrg
0020  1283  	BCF STATUS, RP0
0021  0198  	CLRF gbl_rcsta
0022  1798  	BSF gbl_rcsta,7
0023  1683  	BSF STATUS, RP0
0024  1698  	BSF gbl_txsta,5
0025  1283  	BCF STATUS, RP0
0026  1618  	BSF gbl_rcsta,4
0027  1683  	BSF STATUS, RP0
0028  128C  	BCF gbl_pie1,5
0029  0008  	RETURN
002A        ; } FC_CAL_UART_Init_1 function end

	ORG 0x0000002A
002A        FCM_SENDDA_00051
002A        ; { FCM_SENDDATA ; function begin
002A  1283  	BCF STATUS, RP0
002B  1303  	BCF STATUS, RP1
002C  0853  	MOVF gbl_FCV_HEADER0, W
002D  00D9  	MOVWF FCD_RS2320_00052_arg_nChar
002E  01DA  	CLRF FCD_RS2320_00052_arg_nChar+D'1'
002F  2015  	CALL FCD_RS2320_00052
0030  0856  	MOVF gbl_FCV_HEADER1, W
0031  00D9  	MOVWF FCD_RS2320_00052_arg_nChar
0032  01DA  	CLRF FCD_RS2320_00052_arg_nChar+D'1'
0033  2015  	CALL FCD_RS2320_00052
0034  084C  	MOVF gbl_FCV_SC_TENS, W
0035  00D9  	MOVWF FCD_RS2320_00052_arg_nChar
0036  01DA  	CLRF FCD_RS2320_00052_arg_nChar+D'1'
0037  2015  	CALL FCD_RS2320_00052
0038  0855  	MOVF gbl_FCV_SC_ONES, W
0039  00D9  	MOVWF FCD_RS2320_00052_arg_nChar
003A  01DA  	CLRF FCD_RS2320_00052_arg_nChar+D'1'
003B  2015  	CALL FCD_RS2320_00052
003C  0847  	MOVF gbl_FCV_SC_MSEC, W
003D  00D9  	MOVWF FCD_RS2320_00052_arg_nChar
003E  01DA  	CLRF FCD_RS2320_00052_arg_nChar+D'1'
003F  2015  	CALL FCD_RS2320_00052
0040  0849  	MOVF gbl_FCV_GTM_TENS, W
0041  00D9  	MOVWF FCD_RS2320_00052_arg_nChar
0042  01DA  	CLRF FCD_RS2320_00052_arg_nChar+D'1'
0043  2015  	CALL FCD_RS2320_00052
0044  0850  	MOVF gbl_FCV_GTM_ONES, W
0045  00D9  	MOVWF FCD_RS2320_00052_arg_nChar
0046  01DA  	CLRF FCD_RS2320_00052_arg_nChar+D'1'
0047  2015  	CALL FCD_RS2320_00052
0048  0858  	MOVF gbl_FCV_GTS_TENS, W
0049  00D9  	MOVWF FCD_RS2320_00052_arg_nChar
004A  01DA  	CLRF FCD_RS2320_00052_arg_nChar+D'1'
004B  2015  	CALL FCD_RS2320_00052
004C  0848  	MOVF gbl_FCV_GTS_ONES, W
004D  00D9  	MOVWF FCD_RS2320_00052_arg_nChar
004E  01DA  	CLRF FCD_RS2320_00052_arg_nChar+D'1'
004F  2015  	CALL FCD_RS2320_00052
0050  0854  	MOVF gbl_FCV_GT_MSEC, W
0051  00D9  	MOVWF FCD_RS2320_00052_arg_nChar
0052  01DA  	CLRF FCD_RS2320_00052_arg_nChar+D'1'
0053  2015  	CALL FCD_RS2320_00052
0054  0857  	MOVF gbl_FCV_POS, W
0055  00D9  	MOVWF FCD_RS2320_00052_arg_nChar
0056  01DA  	CLRF FCD_RS2320_00052_arg_nChar+D'1'
0057  2015  	CALL FCD_RS2320_00052
0058  0844  	MOVF gbl_FCV_PERIOD, W
0059  00D9  	MOVWF FCD_RS2320_00052_arg_nChar
005A  01DA  	CLRF FCD_RS2320_00052_arg_nChar+D'1'
005B  2015  	CALL FCD_RS2320_00052
005C  0846  	MOVF gbl_FCV_HS_H, W
005D  00D9  	MOVWF FCD_RS2320_00052_arg_nChar
005E  01DA  	CLRF FCD_RS2320_00052_arg_nChar+D'1'
005F  2015  	CALL FCD_RS2320_00052
0060  0842  	MOVF gbl_FCV_HS_T, W
0061  00D9  	MOVWF FCD_RS2320_00052_arg_nChar
0062  01DA  	CLRF FCD_RS2320_00052_arg_nChar+D'1'
0063  2015  	CALL FCD_RS2320_00052
0064  0851  	MOVF gbl_FCV_HS_O, W
0065  00D9  	MOVWF FCD_RS2320_00052_arg_nChar
0066  01DA  	CLRF FCD_RS2320_00052_arg_nChar+D'1'
0067  2015  	CALL FCD_RS2320_00052
0068  084B  	MOVF gbl_FCV_GS_H, W
0069  00D9  	MOVWF FCD_RS2320_00052_arg_nChar
006A  01DA  	CLRF FCD_RS2320_00052_arg_nChar+D'1'
006B  2015  	CALL FCD_RS2320_00052
006C  0843  	MOVF gbl_FCV_GS_T, W
006D  00D9  	MOVWF FCD_RS2320_00052_arg_nChar
006E  01DA  	CLRF FCD_RS2320_00052_arg_nChar+D'1'
006F  2015  	CALL FCD_RS2320_00052
0070  0852  	MOVF gbl_FCV_GS_O, W
0071  00D9  	MOVWF FCD_RS2320_00052_arg_nChar
0072  01DA  	CLRF FCD_RS2320_00052_arg_nChar+D'1'
0073  2015  	CALL FCD_RS2320_00052
0074  084F  	MOVF gbl_FCV_FOUL_H, W
0075  00D9  	MOVWF FCD_RS2320_00052_arg_nChar
0076  01DA  	CLRF FCD_RS2320_00052_arg_nChar+D'1'
0077  2015  	CALL FCD_RS2320_00052
0078  084E  	MOVF gbl_FCV_FOUL_G, W
0079  00D9  	MOVWF FCD_RS2320_00052_arg_nChar
007A  01DA  	CLRF FCD_RS2320_00052_arg_nChar+D'1'
007B  2015  	CALL FCD_RS2320_00052
007C  084A  	MOVF gbl_FCV_TO_H, W
007D  00D9  	MOVWF FCD_RS2320_00052_arg_nChar
007E  01DA  	CLRF FCD_RS2320_00052_arg_nChar+D'1'
007F  2015  	CALL FCD_RS2320_00052
0080  0845  	MOVF gbl_FCV_TO_G, W
0081  00D9  	MOVWF FCD_RS2320_00052_arg_nChar
0082  01DA  	CLRF FCD_RS2320_00052_arg_nChar+D'1'
0083  2015  	CALL FCD_RS2320_00052
0084  084D  	MOVF gbl_FCV_FOOTER, W
0085  00D9  	MOVWF FCD_RS2320_00052_arg_nChar
0086  01DA  	CLRF FCD_RS2320_00052_arg_nChar+D'1'
0087  2015  	CALL FCD_RS2320_00052
0088  0008  	RETURN
0089        ; } FCM_SENDDATA function end

	ORG 0x00000089
0089        main
0089        ; { main ; function begin
0089  1283  	BCF STATUS, RP0
008A  1703  	BSF STATUS, RP1
008B  019E  	CLRF gbl_ansel
008C  019F  	CLRF gbl_anselh
008D  201B  	CALL FC_CAL_UAR_00053
008E  30C0  	MOVLW 0xC0
008F  0081  	MOVWF gbl_option_reg
0090  30AA  	MOVLW 0xAA
0091  1283  	BCF STATUS, RP0
0092  00D3  	MOVWF gbl_FCV_HEADER0
0093  3055  	MOVLW 0x55
0094  00D6  	MOVWF gbl_FCV_HEADER1
0095  3002  	MOVLW 0x02
0096  00CC  	MOVWF gbl_FCV_SC_TENS
0097  3004  	MOVLW 0x04
0098  00D5  	MOVWF gbl_FCV_SC_ONES
0099  3008  	MOVLW 0x08
009A  00C7  	MOVWF gbl_FCV_SC_MSEC
009B  3001  	MOVLW 0x01
009C  00C9  	MOVWF gbl_FCV_GTM_TENS
009D  01D0  	CLRF gbl_FCV_GTM_ONES
009E  3005  	MOVLW 0x05
009F  00D8  	MOVWF gbl_FCV_GTS_TENS
00A0  3009  	MOVLW 0x09
00A1  00C8  	MOVWF gbl_FCV_GTS_ONES
00A2  3003  	MOVLW 0x03
00A3  00D4  	MOVWF gbl_FCV_GT_MSEC
00A4  3005  	MOVLW 0x05
00A5  00D7  	MOVWF gbl_FCV_POS
00A6  3004  	MOVLW 0x04
00A7  00C4  	MOVWF gbl_FCV_PERIOD
00A8  3001  	MOVLW 0x01
00A9  00C6  	MOVWF gbl_FCV_HS_H
00AA  3002  	MOVLW 0x02
00AB  00C2  	MOVWF gbl_FCV_HS_T
00AC  01D1  	CLRF gbl_FCV_HS_O
00AD  3001  	MOVLW 0x01
00AE  00CB  	MOVWF gbl_FCV_GS_H
00AF  3003  	MOVLW 0x03
00B0  00C3  	MOVWF gbl_FCV_GS_T
00B1  3004  	MOVLW 0x04
00B2  00D2  	MOVWF gbl_FCV_GS_O
00B3  3001  	MOVLW 0x01
00B4  00CF  	MOVWF gbl_FCV_FOUL_H
00B5  3002  	MOVLW 0x02
00B6  00CE  	MOVWF gbl_FCV_FOUL_G
00B7  3003  	MOVLW 0x03
00B8  00CA  	MOVWF gbl_FCV_TO_H
00B9  3001  	MOVLW 0x01
00BA  00C5  	MOVWF gbl_FCV_TO_G
00BB  30AB  	MOVLW 0xAB
00BC  00CD  	MOVWF gbl_FCV_FOOTER
00BD        label2
00BD  202A  	CALL FCM_SENDDA_00051
00BE  28BD  	GOTO	label2
00BF        ; } main function end

	ORG 0x000000BF
00BF        _startup
00BF  30D5  	MOVLW 0xD5
00C0  1283  	BCF STATUS, RP0
00C1  1303  	BCF STATUS, RP1
00C2  00A0  	MOVWF gbl_14_LSR
00C3  30C4  	MOVLW 0xC4
00C4  00A1  	MOVWF gbl_14_LSR+D'1'
00C5  30BB  	MOVLW 0xBB
00C6  00A2  	MOVWF gbl_14_LSR+D'2'
00C7  30DC  	MOVLW 0xDC
00C8  00A3  	MOVWF gbl_14_LSR+D'3'
00C9  01A4  	CLRF gbl_15_gbl_aSig
00CA  01A5  	CLRF gbl_15_gbl_aSig+D'1'
00CB  01A6  	CLRF gbl_15_gbl_aSig+D'2'
00CC  01A7  	CLRF gbl_15_gbl_aSig+D'3'
00CD  01A8  	CLRF gbl_15_gbl_bSig
00CE  01A9  	CLRF gbl_15_gbl_bSig+D'1'
00CF  01AA  	CLRF gbl_15_gbl_bSig+D'2'
00D0  01AB  	CLRF gbl_15_gbl_bSig+D'3'
00D1  01AC  	CLRF gbl_15_gbl_zSig
00D2  01AD  	CLRF gbl_15_gbl_zSig+D'1'
00D3  01AE  	CLRF gbl_15_gbl_zSig+D'2'
00D4  01AF  	CLRF gbl_15_gbl_zSig+D'3'
00D5  01BC  	CLRF gbl_15_gbl_aExp
00D6  01BD  	CLRF gbl_15_gbl_bExp
00D7  01B7  	CLRF gbl_15_gbl_zExp
00D8  01B8  	CLRF gbl_15_gbl_zExp+D'1'
00D9  01BE  	CLRF gbl_15_gbl_aSign
00DA  01BF  	CLRF gbl_15_gbl_bSign
00DB  01C0  	CLRF gbl_15_gbl_zSign
00DC  01C1  	CLRF gbl_15_gbl_zSigZero
00DD  01B0  	CLRF gbl_15_gbl_ret
00DE  01B1  	CLRF gbl_15_gbl_ret+D'1'
00DF  01B2  	CLRF gbl_15_gbl_ret+D'2'
00E0  01B3  	CLRF gbl_15_gbl_ret+D'3'
00E1  01BA  	CLRF gbl_float_rounding_mode
00E2  01BB  	CLRF gbl_float_exception_flags
00E3  01B9  	CLRF gbl_float_detect_tininess
00E4  01C2  	CLRF gbl_FCV_HS_T
00E5  01C3  	CLRF gbl_FCV_GS_T
00E6  01C4  	CLRF gbl_FCV_PERIOD
00E7  01C5  	CLRF gbl_FCV_TO_G
00E8  01C6  	CLRF gbl_FCV_HS_H
00E9  01C7  	CLRF gbl_FCV_SC_MSEC
00EA  01C8  	CLRF gbl_FCV_GTS_ONES
00EB  01C9  	CLRF gbl_FCV_GTM_TENS
00EC  01CA  	CLRF gbl_FCV_TO_H
00ED  01CB  	CLRF gbl_FCV_GS_H
00EE  01CC  	CLRF gbl_FCV_SC_TENS
00EF  01CD  	CLRF gbl_FCV_FOOTER
00F0  01CE  	CLRF gbl_FCV_FOUL_G
00F1  01CF  	CLRF gbl_FCV_FOUL_H
00F2  01D0  	CLRF gbl_FCV_GTM_ONES
00F3  01D2  	CLRF gbl_FCV_GS_O
00F4  01D3  	CLRF gbl_FCV_HEADER0
00F5  01D4  	CLRF gbl_FCV_GT_MSEC
00F6  01D5  	CLRF gbl_FCV_SC_ONES
00F7  01D6  	CLRF gbl_FCV_HEADER1
00F8  01D7  	CLRF gbl_FCV_POS
00F9  01D8  	CLRF gbl_FCV_GTS_TENS
00FA  118A  	BCF PCLATH,3
00FB  120A  	BCF PCLATH,4
00FC  2889  	GOTO	main
	ORG 0x000000FD
00FD        interrupt
00FD        ; { interrupt ; function begin
00FD  1283  	BCF STATUS, RP0
00FE  1303  	BCF STATUS, RP1
00FF  0E36  	SWAPF Int1BContext+D'2', W
0100  0084  	MOVWF FSR
0101  0E35  	SWAPF Int1BContext+D'1', W
0102  008A  	MOVWF PCLATH
0103  0E34  	SWAPF Int1BContext, W
0104  0083  	MOVWF STATUS
0105  0EFF  	SWAPF Int1Context, F
0106  0E7F  	SWAPF Int1Context, W
0107  0009  	RETFIE
0108        ; } interrupt function end

	ORG 0x00002007
2007  30D2  	DW 0x30D2
