;/////////////////////////////////////////////////////////////////////////////////
;// Code Generator: BoostC Compiler - http://www.sourceboost.com
;// Version       : 7.03
;// License Type  : Pro License
;// Limitations   : PIC12,PIC16 max code size:Unlimited, max RAM banks:Unlimited
;/////////////////////////////////////////////////////////////////////////////////

	ORG 0x00000000
0000  2FED  	GOTO	_startup
	ORG 0x00000004
0004  00FF  	MOVWF Int1Context
0005  0E03  	SWAPF STATUS, W
0006  1283  	BCF STATUS, RP0
0007  1303  	BCF STATUS, RP1
0008  00E8  	MOVWF Int1BContext
0009  0E0A  	SWAPF PCLATH, W
000A  00E9  	MOVWF Int1BContext+D'1'
000B  0E04  	SWAPF FSR, W
000C  00EA  	MOVWF Int1BContext+D'2'
000D  158A  	BSF PCLATH,3
000E  120A  	BCF PCLATH,4
000F  284B  	GOTO	interrupt
	ORG 0x00000010
0010        delay_us_00000
0010        ; { delay_us ; function begin
0010        label1
0010  0000  	NOP
0011  0000  	NOP
0012  0BC9  	DECFSZ delay_us_00000_arg_del, F
0013  2810  	GOTO	label1
0014  0008  	RETURN
0015        ; } delay_us function end

	ORG 0x00000015
0015        __mul_32u__0000F
0015        ; { __mul_32u_32u ; function begin
0015  01CE  	CLRF __mul_32u__0000F_1_i
0016  01CF  	CLRF CompTempVarRet464
0017  01D0  	CLRF CompTempVarRet464+D'1'
0018  01D1  	CLRF CompTempVarRet464+D'2'
0019  01D2  	CLRF CompTempVarRet464+D'3'
001A        label2
001A  1ACE  	BTFSC __mul_32u__0000F_1_i,5
001B  0008  	RETURN
001C  1C46  	BTFSS __mul_32u__0000F_arg_b,0
001D  282C  	GOTO	label3
001E  0842  	MOVF __mul_32u__0000F_arg_a, W
001F  07CF  	ADDWF CompTempVarRet464, F
0020  0843  	MOVF __mul_32u__0000F_arg_a+D'1', W
0021  1803  	BTFSC gbl_status,0
0022  0F43  	INCFSZ __mul_32u__0000F_arg_a+D'1', W
0023  07D0  	ADDWF CompTempVarRet464+D'1', F
0024  0844  	MOVF __mul_32u__0000F_arg_a+D'2', W
0025  1803  	BTFSC gbl_status,0
0026  0F44  	INCFSZ __mul_32u__0000F_arg_a+D'2', W
0027  07D1  	ADDWF CompTempVarRet464+D'2', F
0028  0845  	MOVF __mul_32u__0000F_arg_a+D'3', W
0029  1803  	BTFSC gbl_status,0
002A  0F45  	INCFSZ __mul_32u__0000F_arg_a+D'3', W
002B  07D2  	ADDWF CompTempVarRet464+D'3', F
002C        label3
002C  1003  	BCF gbl_status,0
002D  0CC9  	RRF __mul_32u__0000F_arg_b+D'3', F
002E  0CC8  	RRF __mul_32u__0000F_arg_b+D'2', F
002F  0CC7  	RRF __mul_32u__0000F_arg_b+D'1', F
0030  0CC6  	RRF __mul_32u__0000F_arg_b, F
0031  1003  	BCF gbl_status,0
0032  0DC2  	RLF __mul_32u__0000F_arg_a, F
0033  0DC3  	RLF __mul_32u__0000F_arg_a+D'1', F
0034  0DC4  	RLF __mul_32u__0000F_arg_a+D'2', F
0035  0DC5  	RLF __mul_32u__0000F_arg_a+D'3', F
0036  0ACE  	INCF __mul_32u__0000F_1_i, F
0037  281A  	GOTO	label2
0038        ; } __mul_32u_32u function end

	ORG 0x00000038
0038        FC_CAL_UAR_00056
0038        ; { FC_CAL_UART_Receive_1 ; function begin
0038  30FF  	MOVLW 0xFF
0039  00C3  	MOVWF FC_CAL_UAR_00056_1_retVal
003A  01C4  	CLRF FC_CAL_UAR_00056_1_delay1
003B  01C5  	CLRF FC_CAL_UAR_00056_1_regcheck
003C  01C6  	CLRF FC_CAL_UAR_00056_1_bWaitForever
003D  01C7  	CLRF FC_CAL_UAR_00056_1_rxStatus
003E  01C8  	CLRF FC_CAL_UAR_00056_1_dummy
003F  0A42  	INCF FC_CAL_UAR_00056_arg_nTimeout, W
0040  1D03  	BTFSS STATUS,Z
0041  2844  	GOTO	label4
0042  3001  	MOVLW 0x01
0043  00C6  	MOVWF FC_CAL_UAR_00056_1_bWaitForever
0044        label4
0044  08C7  	MOVF FC_CAL_UAR_00056_1_rxStatus, F
0045  1D03  	BTFSS STATUS,Z
0046  2868  	GOTO	label7
0047  08C6  	MOVF FC_CAL_UAR_00056_1_bWaitForever, F
0048  1D03  	BTFSS STATUS,Z
0049  285D  	GOTO	label6
004A  08C2  	MOVF FC_CAL_UAR_00056_arg_nTimeout, F
004B  1D03  	BTFSS STATUS,Z
004C  2850  	GOTO	label5
004D  3001  	MOVLW 0x01
004E  00C7  	MOVWF FC_CAL_UAR_00056_1_rxStatus
004F  285D  	GOTO	label6
0050        label5
0050  300A  	MOVLW 0x0A
0051  00C9  	MOVWF delay_us_00000_arg_del
0052  2010  	CALL delay_us_00000
0053  0A44  	INCF FC_CAL_UAR_00056_1_delay1, W
0054  00C4  	MOVWF FC_CAL_UAR_00056_1_delay1
0055  0844  	MOVF FC_CAL_UAR_00056_1_delay1, W
0056  3A64  	XORLW 0x64
0057  1D03  	BTFSS STATUS,Z
0058  285D  	GOTO	label6
0059  0342  	DECF FC_CAL_UAR_00056_arg_nTimeout, W
005A  00C2  	MOVWF FC_CAL_UAR_00056_arg_nTimeout
005B  0064  	CLRWDT
005C  01C4  	CLRF FC_CAL_UAR_00056_1_delay1
005D        label6
005D  3020  	MOVLW 0x20
005E  1283  	BCF STATUS, RP0
005F  050C  	ANDWF gbl_pir1, W
0060  1683  	BSF STATUS, RP0
0061  00C5  	MOVWF FC_CAL_UAR_00056_1_regcheck
0062  08C5  	MOVF FC_CAL_UAR_00056_1_regcheck, F
0063  1903  	BTFSC STATUS,Z
0064  2844  	GOTO	label4
0065  3002  	MOVLW 0x02
0066  00C7  	MOVWF FC_CAL_UAR_00056_1_rxStatus
0067  2844  	GOTO	label4
0068        label7
0068  0847  	MOVF FC_CAL_UAR_00056_1_rxStatus, W
0069  3A02  	XORLW 0x02
006A  1D03  	BTFSS STATUS,Z
006B  288B  	GOTO	label10
006C  3004  	MOVLW 0x04
006D  1283  	BCF STATUS, RP0
006E  0518  	ANDWF gbl_rcsta, W
006F  1683  	BSF STATUS, RP0
0070  00C5  	MOVWF FC_CAL_UAR_00056_1_regcheck
0071  08C5  	MOVF FC_CAL_UAR_00056_1_regcheck, F
0072  1903  	BTFSC STATUS,Z
0073  2879  	GOTO	label8
0074  1283  	BCF STATUS, RP0
0075  081A  	MOVF gbl_rcreg, W
0076  1683  	BSF STATUS, RP0
0077  00C8  	MOVWF FC_CAL_UAR_00056_1_dummy
0078  288B  	GOTO	label10
0079        label8
0079  3002  	MOVLW 0x02
007A  1283  	BCF STATUS, RP0
007B  0518  	ANDWF gbl_rcsta, W
007C  1683  	BSF STATUS, RP0
007D  00C5  	MOVWF FC_CAL_UAR_00056_1_regcheck
007E  08C5  	MOVF FC_CAL_UAR_00056_1_regcheck, F
007F  1903  	BTFSC STATUS,Z
0080  2885  	GOTO	label9
0081  1283  	BCF STATUS, RP0
0082  1218  	BCF gbl_rcsta,4
0083  1618  	BSF gbl_rcsta,4
0084  288B  	GOTO	label10
0085        label9
0085  01C3  	CLRF FC_CAL_UAR_00056_1_retVal
0086  1283  	BCF STATUS, RP0
0087  081A  	MOVF gbl_rcreg, W
0088  1683  	BSF STATUS, RP0
0089  0443  	IORWF FC_CAL_UAR_00056_1_retVal, W
008A  00C3  	MOVWF FC_CAL_UAR_00056_1_retVal
008B        label10
008B  1683  	BSF STATUS, RP0
008C  0843  	MOVF FC_CAL_UAR_00056_1_retVal, W
008D  00C9  	MOVWF CompTempVarRet2293
008E  01CA  	CLRF CompTempVarRet2293+D'1'
008F  0008  	RETURN
0090        ; } FC_CAL_UART_Receive_1 function end

	ORG 0x00000090
0090        FCM_data_b_00051
0090        ; { FCM_data_bank ; function begin
0090  0879  	MOVF gbl_FCV_DIGIT_TIME, W
0091  3A01  	XORLW 0x01
0092  1903  	BTFSC STATUS,Z
0093  28B0  	GOTO	label11
0094  3A03  	XORLW 0x03
0095  1903  	BTFSC STATUS,Z
0096  28B5  	GOTO	label12
0097  3A01  	XORLW 0x01
0098  1903  	BTFSC STATUS,Z
0099  28BA  	GOTO	label13
009A  3A07  	XORLW 0x07
009B  1903  	BTFSC STATUS,Z
009C  28BF  	GOTO	label14
009D  3A01  	XORLW 0x01
009E  1903  	BTFSC STATUS,Z
009F  28C4  	GOTO	label15
00A0  3A03  	XORLW 0x03
00A1  1903  	BTFSC STATUS,Z
00A2  28C9  	GOTO	label16
00A3  3A01  	XORLW 0x01
00A4  1903  	BTFSC STATUS,Z
00A5  28CE  	GOTO	label17
00A6  3A0F  	XORLW 0x0F
00A7  1903  	BTFSC STATUS,Z
00A8  28D3  	GOTO	label18
00A9  3A01  	XORLW 0x01
00AA  1903  	BTFSC STATUS,Z
00AB  28D8  	GOTO	label19
00AC  3A09  	XORLW 0x09
00AD  1903  	BTFSC STATUS,Z
00AE  28DD  	GOTO	label20
00AF  28E1  	GOTO	label21
00B0        label11
00B0  3006  	MOVLW 0x06
00B1  1683  	BSF STATUS, RP0
00B2  1303  	BCF STATUS, RP1
00B3  00AD  	MOVWF gbl_FCV_BITS_TIME
00B4  28E1  	GOTO	label21
00B5        label12
00B5  305B  	MOVLW 0x5B
00B6  1683  	BSF STATUS, RP0
00B7  1303  	BCF STATUS, RP1
00B8  00AD  	MOVWF gbl_FCV_BITS_TIME
00B9  28E1  	GOTO	label21
00BA        label13
00BA  304F  	MOVLW 0x4F
00BB  1683  	BSF STATUS, RP0
00BC  1303  	BCF STATUS, RP1
00BD  00AD  	MOVWF gbl_FCV_BITS_TIME
00BE  28E1  	GOTO	label21
00BF        label14
00BF  3066  	MOVLW 0x66
00C0  1683  	BSF STATUS, RP0
00C1  1303  	BCF STATUS, RP1
00C2  00AD  	MOVWF gbl_FCV_BITS_TIME
00C3  28E1  	GOTO	label21
00C4        label15
00C4  306D  	MOVLW 0x6D
00C5  1683  	BSF STATUS, RP0
00C6  1303  	BCF STATUS, RP1
00C7  00AD  	MOVWF gbl_FCV_BITS_TIME
00C8  28E1  	GOTO	label21
00C9        label16
00C9  307D  	MOVLW 0x7D
00CA  1683  	BSF STATUS, RP0
00CB  1303  	BCF STATUS, RP1
00CC  00AD  	MOVWF gbl_FCV_BITS_TIME
00CD  28E1  	GOTO	label21
00CE        label17
00CE  3007  	MOVLW 0x07
00CF  1683  	BSF STATUS, RP0
00D0  1303  	BCF STATUS, RP1
00D1  00AD  	MOVWF gbl_FCV_BITS_TIME
00D2  28E1  	GOTO	label21
00D3        label18
00D3  307F  	MOVLW 0x7F
00D4  1683  	BSF STATUS, RP0
00D5  1303  	BCF STATUS, RP1
00D6  00AD  	MOVWF gbl_FCV_BITS_TIME
00D7  28E1  	GOTO	label21
00D8        label19
00D8  306F  	MOVLW 0x6F
00D9  1683  	BSF STATUS, RP0
00DA  1303  	BCF STATUS, RP1
00DB  00AD  	MOVWF gbl_FCV_BITS_TIME
00DC  28E1  	GOTO	label21
00DD        label20
00DD  303F  	MOVLW 0x3F
00DE  1683  	BSF STATUS, RP0
00DF  1303  	BCF STATUS, RP1
00E0  00AD  	MOVWF gbl_FCV_BITS_TIME
00E1        label21
00E1  0878  	MOVF gbl_FCV_DIGIT_FOPE, W
00E2  3A01  	XORLW 0x01
00E3  1903  	BTFSC STATUS,Z
00E4  2901  	GOTO	label22
00E5  3A03  	XORLW 0x03
00E6  1903  	BTFSC STATUS,Z
00E7  2906  	GOTO	label23
00E8  3A01  	XORLW 0x01
00E9  1903  	BTFSC STATUS,Z
00EA  290B  	GOTO	label24
00EB  3A07  	XORLW 0x07
00EC  1903  	BTFSC STATUS,Z
00ED  2910  	GOTO	label25
00EE  3A01  	XORLW 0x01
00EF  1903  	BTFSC STATUS,Z
00F0  2915  	GOTO	label26
00F1  3A03  	XORLW 0x03
00F2  1903  	BTFSC STATUS,Z
00F3  291A  	GOTO	label27
00F4  3A01  	XORLW 0x01
00F5  1903  	BTFSC STATUS,Z
00F6  291F  	GOTO	label28
00F7  3A0F  	XORLW 0x0F
00F8  1903  	BTFSC STATUS,Z
00F9  2924  	GOTO	label29
00FA  3A01  	XORLW 0x01
00FB  1903  	BTFSC STATUS,Z
00FC  2929  	GOTO	label30
00FD  3A09  	XORLW 0x09
00FE  1903  	BTFSC STATUS,Z
00FF  292E  	GOTO	label31
0100  2932  	GOTO	label32
0101        label22
0101  3006  	MOVLW 0x06
0102  1683  	BSF STATUS, RP0
0103  1303  	BCF STATUS, RP1
0104  00AC  	MOVWF gbl_FCV_BITS_FOPE
0105  2932  	GOTO	label32
0106        label23
0106  305B  	MOVLW 0x5B
0107  1683  	BSF STATUS, RP0
0108  1303  	BCF STATUS, RP1
0109  00AC  	MOVWF gbl_FCV_BITS_FOPE
010A  2932  	GOTO	label32
010B        label24
010B  304F  	MOVLW 0x4F
010C  1683  	BSF STATUS, RP0
010D  1303  	BCF STATUS, RP1
010E  00AC  	MOVWF gbl_FCV_BITS_FOPE
010F  2932  	GOTO	label32
0110        label25
0110  3066  	MOVLW 0x66
0111  1683  	BSF STATUS, RP0
0112  1303  	BCF STATUS, RP1
0113  00AC  	MOVWF gbl_FCV_BITS_FOPE
0114  2932  	GOTO	label32
0115        label26
0115  306D  	MOVLW 0x6D
0116  1683  	BSF STATUS, RP0
0117  1303  	BCF STATUS, RP1
0118  00AC  	MOVWF gbl_FCV_BITS_FOPE
0119  2932  	GOTO	label32
011A        label27
011A  307D  	MOVLW 0x7D
011B  1683  	BSF STATUS, RP0
011C  1303  	BCF STATUS, RP1
011D  00AC  	MOVWF gbl_FCV_BITS_FOPE
011E  2932  	GOTO	label32
011F        label28
011F  3007  	MOVLW 0x07
0120  1683  	BSF STATUS, RP0
0121  1303  	BCF STATUS, RP1
0122  00AC  	MOVWF gbl_FCV_BITS_FOPE
0123  2932  	GOTO	label32
0124        label29
0124  307F  	MOVLW 0x7F
0125  1683  	BSF STATUS, RP0
0126  1303  	BCF STATUS, RP1
0127  00AC  	MOVWF gbl_FCV_BITS_FOPE
0128  2932  	GOTO	label32
0129        label30
0129  306F  	MOVLW 0x6F
012A  1683  	BSF STATUS, RP0
012B  1303  	BCF STATUS, RP1
012C  00AC  	MOVWF gbl_FCV_BITS_FOPE
012D  2932  	GOTO	label32
012E        label31
012E  303F  	MOVLW 0x3F
012F  1683  	BSF STATUS, RP0
0130  1303  	BCF STATUS, RP1
0131  00AC  	MOVWF gbl_FCV_BITS_FOPE
0132        label32
0132  1683  	BSF STATUS, RP0
0133  1303  	BCF STATUS, RP1
0134  082A  	MOVF gbl_FCV_DIGIT_SCORE, W
0135  3A01  	XORLW 0x01
0136  1903  	BTFSC STATUS,Z
0137  2954  	GOTO	label33
0138  3A03  	XORLW 0x03
0139  1903  	BTFSC STATUS,Z
013A  2957  	GOTO	label34
013B  3A01  	XORLW 0x01
013C  1903  	BTFSC STATUS,Z
013D  295A  	GOTO	label35
013E  3A07  	XORLW 0x07
013F  1903  	BTFSC STATUS,Z
0140  295D  	GOTO	label36
0141  3A01  	XORLW 0x01
0142  1903  	BTFSC STATUS,Z
0143  2960  	GOTO	label37
0144  3A03  	XORLW 0x03
0145  1903  	BTFSC STATUS,Z
0146  2963  	GOTO	label38
0147  3A01  	XORLW 0x01
0148  1903  	BTFSC STATUS,Z
0149  2966  	GOTO	label39
014A  3A0F  	XORLW 0x0F
014B  1903  	BTFSC STATUS,Z
014C  2969  	GOTO	label40
014D  3A01  	XORLW 0x01
014E  1903  	BTFSC STATUS,Z
014F  296C  	GOTO	label41
0150  3A09  	XORLW 0x09
0151  1903  	BTFSC STATUS,Z
0152  296F  	GOTO	label42
0153  0008  	RETURN
0154        label33
0154  3006  	MOVLW 0x06
0155  00A0  	MOVWF gbl_FCV_BITS_SCORE
0156  0008  	RETURN
0157        label34
0157  305B  	MOVLW 0x5B
0158  00A0  	MOVWF gbl_FCV_BITS_SCORE
0159  0008  	RETURN
015A        label35
015A  304F  	MOVLW 0x4F
015B  00A0  	MOVWF gbl_FCV_BITS_SCORE
015C  0008  	RETURN
015D        label36
015D  3066  	MOVLW 0x66
015E  00A0  	MOVWF gbl_FCV_BITS_SCORE
015F  0008  	RETURN
0160        label37
0160  306D  	MOVLW 0x6D
0161  00A0  	MOVWF gbl_FCV_BITS_SCORE
0162  0008  	RETURN
0163        label38
0163  307D  	MOVLW 0x7D
0164  00A0  	MOVWF gbl_FCV_BITS_SCORE
0165  0008  	RETURN
0166        label39
0166  3007  	MOVLW 0x07
0167  00A0  	MOVWF gbl_FCV_BITS_SCORE
0168  0008  	RETURN
0169        label40
0169  307F  	MOVLW 0x7F
016A  00A0  	MOVWF gbl_FCV_BITS_SCORE
016B  0008  	RETURN
016C        label41
016C  306F  	MOVLW 0x6F
016D  00A0  	MOVWF gbl_FCV_BITS_SCORE
016E  0008  	RETURN
016F        label42
016F  303F  	MOVLW 0x3F
0170  00A0  	MOVWF gbl_FCV_BITS_SCORE
0171  0008  	RETURN
0172        ; } FCM_data_bank function end

	ORG 0x00000172
0172        __rem_8_8_00000
0172        ; { __rem_8_8 ; function begin
0172  01BC  	CLRF CompTempVarRet220
0173  01BA  	CLRF __rem_8_8_00000_1_c
0174  01BB  	CLRF __rem_8_8_00000_1_i
0175        label43
0175  19BB  	BTFSC __rem_8_8_00000_1_i,3
0176  0008  	RETURN
0177  1003  	BCF STATUS,C
0178  0DBA  	RLF __rem_8_8_00000_1_c, F
0179  0DB8  	RLF __rem_8_8_00000_arg_a, F
017A  0DBC  	RLF CompTempVarRet220, F
017B  0839  	MOVF __rem_8_8_00000_arg_b, W
017C  023C  	SUBWF CompTempVarRet220, W
017D  1C03  	BTFSS STATUS,C
017E  2981  	GOTO	label44
017F  00BC  	MOVWF CompTempVarRet220
0180  143A  	BSF __rem_8_8_00000_1_c,0
0181        label44
0181  0ABB  	INCF __rem_8_8_00000_1_i, F
0182  2975  	GOTO	label43
0183        ; } __rem_8_8 function end

	ORG 0x00000183
0183        __rem_32_3_00002
0183        ; { __rem_32_32 ; function begin
0183  01CD  	CLRF CompTempVarRet212
0184  01CE  	CLRF CompTempVarRet212+D'1'
0185  01CF  	CLRF CompTempVarRet212+D'2'
0186  01D0  	CLRF CompTempVarRet212+D'3'
0187  01C8  	CLRF __rem_32_3_00002_1_c
0188  01C9  	CLRF __rem_32_3_00002_1_c+D'1'
0189  01CA  	CLRF __rem_32_3_00002_1_c+D'2'
018A  01CB  	CLRF __rem_32_3_00002_1_c+D'3'
018B  01CC  	CLRF __rem_32_3_00002_1_i
018C        label45
018C  1ACC  	BTFSC __rem_32_3_00002_1_i,5
018D  0008  	RETURN
018E  1003  	BCF STATUS,C
018F  0DC8  	RLF __rem_32_3_00002_1_c, F
0190  0DC9  	RLF __rem_32_3_00002_1_c+D'1', F
0191  0DCA  	RLF __rem_32_3_00002_1_c+D'2', F
0192  0DCB  	RLF __rem_32_3_00002_1_c+D'3', F
0193  0DB8  	RLF __rem_32_3_00002_arg_a, F
0194  0DB9  	RLF __rem_32_3_00002_arg_a+D'1', F
0195  0DBA  	RLF __rem_32_3_00002_arg_a+D'2', F
0196  0DBB  	RLF __rem_32_3_00002_arg_a+D'3', F
0197  0DCD  	RLF CompTempVarRet212, F
0198  0DCE  	RLF CompTempVarRet212+D'1', F
0199  0DCF  	RLF CompTempVarRet212+D'2', F
019A  0DD0  	RLF CompTempVarRet212+D'3', F
019B  083F  	MOVF __rem_32_3_00002_arg_b+D'3', W
019C  0250  	SUBWF CompTempVarRet212+D'3', W
019D  1D03  	BTFSS STATUS,Z
019E  29A9  	GOTO	label46
019F  083E  	MOVF __rem_32_3_00002_arg_b+D'2', W
01A0  024F  	SUBWF CompTempVarRet212+D'2', W
01A1  1D03  	BTFSS STATUS,Z
01A2  29A9  	GOTO	label46
01A3  083D  	MOVF __rem_32_3_00002_arg_b+D'1', W
01A4  024E  	SUBWF CompTempVarRet212+D'1', W
01A5  1D03  	BTFSS STATUS,Z
01A6  29A9  	GOTO	label46
01A7  083C  	MOVF __rem_32_3_00002_arg_b, W
01A8  024D  	SUBWF CompTempVarRet212, W
01A9        label46
01A9  1C03  	BTFSS STATUS,C
01AA  29BA  	GOTO	label47
01AB  083C  	MOVF __rem_32_3_00002_arg_b, W
01AC  02CD  	SUBWF CompTempVarRet212, F
01AD  083D  	MOVF __rem_32_3_00002_arg_b+D'1', W
01AE  1C03  	BTFSS STATUS,C
01AF  0F3D  	INCFSZ __rem_32_3_00002_arg_b+D'1', W
01B0  02CE  	SUBWF CompTempVarRet212+D'1', F
01B1  083E  	MOVF __rem_32_3_00002_arg_b+D'2', W
01B2  1C03  	BTFSS STATUS,C
01B3  0F3E  	INCFSZ __rem_32_3_00002_arg_b+D'2', W
01B4  02CF  	SUBWF CompTempVarRet212+D'2', F
01B5  083F  	MOVF __rem_32_3_00002_arg_b+D'3', W
01B6  1C03  	BTFSS STATUS,C
01B7  0F3F  	INCFSZ __rem_32_3_00002_arg_b+D'3', W
01B8  02D0  	SUBWF CompTempVarRet212+D'3', F
01B9  1448  	BSF __rem_32_3_00002_1_c,0
01BA        label47
01BA  0ACC  	INCF __rem_32_3_00002_1_i, F
01BB  298C  	GOTO	label45
01BC        ; } __rem_32_32 function end

	ORG 0x000001BC
01BC        __div_8_8_00000
01BC        ; { __div_8_8 ; function begin
01BC  01BA  	CLRF __div_8_8_00000_1_r
01BD  01BC  	CLRF CompTempVarRet218
01BE  01BB  	CLRF __div_8_8_00000_1_i
01BF        label48
01BF  19BB  	BTFSC __div_8_8_00000_1_i,3
01C0  0008  	RETURN
01C1  1003  	BCF STATUS,C
01C2  0DBC  	RLF CompTempVarRet218, F
01C3  0DB8  	RLF __div_8_8_00000_arg_a, F
01C4  0DBA  	RLF __div_8_8_00000_1_r, F
01C5  0839  	MOVF __div_8_8_00000_arg_b, W
01C6  023A  	SUBWF __div_8_8_00000_1_r, W
01C7  1C03  	BTFSS STATUS,C
01C8  29CB  	GOTO	label49
01C9  00BA  	MOVWF __div_8_8_00000_1_r
01CA  143C  	BSF CompTempVarRet218,0
01CB        label49
01CB  0ABB  	INCF __div_8_8_00000_1_i, F
01CC  29BF  	GOTO	label48
01CD        ; } __div_8_8 function end

	ORG 0x000001CD
01CD        __div_32_3_00001
01CD        ; { __div_32_32 ; function begin
01CD  01C8  	CLRF __div_32_3_00001_1_r
01CE  01C9  	CLRF __div_32_3_00001_1_r+D'1'
01CF  01CA  	CLRF __div_32_3_00001_1_r+D'2'
01D0  01CB  	CLRF __div_32_3_00001_1_r+D'3'
01D1  01CD  	CLRF CompTempVarRet210
01D2  01CE  	CLRF CompTempVarRet210+D'1'
01D3  01CF  	CLRF CompTempVarRet210+D'2'
01D4  01D0  	CLRF CompTempVarRet210+D'3'
01D5  01CC  	CLRF __div_32_3_00001_1_i
01D6        label50
01D6  1ACC  	BTFSC __div_32_3_00001_1_i,5
01D7  0008  	RETURN
01D8  1003  	BCF STATUS,C
01D9  0DCD  	RLF CompTempVarRet210, F
01DA  0DCE  	RLF CompTempVarRet210+D'1', F
01DB  0DCF  	RLF CompTempVarRet210+D'2', F
01DC  0DD0  	RLF CompTempVarRet210+D'3', F
01DD  0DC0  	RLF __div_32_3_00001_arg_a, F
01DE  0DC1  	RLF __div_32_3_00001_arg_a+D'1', F
01DF  0DC2  	RLF __div_32_3_00001_arg_a+D'2', F
01E0  0DC3  	RLF __div_32_3_00001_arg_a+D'3', F
01E1  0DC8  	RLF __div_32_3_00001_1_r, F
01E2  0DC9  	RLF __div_32_3_00001_1_r+D'1', F
01E3  0DCA  	RLF __div_32_3_00001_1_r+D'2', F
01E4  0DCB  	RLF __div_32_3_00001_1_r+D'3', F
01E5  0847  	MOVF __div_32_3_00001_arg_b+D'3', W
01E6  024B  	SUBWF __div_32_3_00001_1_r+D'3', W
01E7  1D03  	BTFSS STATUS,Z
01E8  29F3  	GOTO	label51
01E9  0846  	MOVF __div_32_3_00001_arg_b+D'2', W
01EA  024A  	SUBWF __div_32_3_00001_1_r+D'2', W
01EB  1D03  	BTFSS STATUS,Z
01EC  29F3  	GOTO	label51
01ED  0845  	MOVF __div_32_3_00001_arg_b+D'1', W
01EE  0249  	SUBWF __div_32_3_00001_1_r+D'1', W
01EF  1D03  	BTFSS STATUS,Z
01F0  29F3  	GOTO	label51
01F1  0844  	MOVF __div_32_3_00001_arg_b, W
01F2  0248  	SUBWF __div_32_3_00001_1_r, W
01F3        label51
01F3  1C03  	BTFSS STATUS,C
01F4  2A04  	GOTO	label52
01F5  0844  	MOVF __div_32_3_00001_arg_b, W
01F6  02C8  	SUBWF __div_32_3_00001_1_r, F
01F7  0845  	MOVF __div_32_3_00001_arg_b+D'1', W
01F8  1C03  	BTFSS STATUS,C
01F9  0F45  	INCFSZ __div_32_3_00001_arg_b+D'1', W
01FA  02C9  	SUBWF __div_32_3_00001_1_r+D'1', F
01FB  0846  	MOVF __div_32_3_00001_arg_b+D'2', W
01FC  1C03  	BTFSS STATUS,C
01FD  0F46  	INCFSZ __div_32_3_00001_arg_b+D'2', W
01FE  02CA  	SUBWF __div_32_3_00001_1_r+D'2', F
01FF  0847  	MOVF __div_32_3_00001_arg_b+D'3', W
0200  1C03  	BTFSS STATUS,C
0201  0F47  	INCFSZ __div_32_3_00001_arg_b+D'3', W
0202  02CB  	SUBWF __div_32_3_00001_1_r+D'3', F
0203  144D  	BSF CompTempVarRet210,0
0204        label52
0204  0ACC  	INCF __div_32_3_00001_1_i, F
0205  29D6  	GOTO	label50
0206        ; } __div_32_32 function end

	ORG 0x00000206
0206        FC_CAL_UAR_00054
0206        ; { FC_CAL_UART_Init_1 ; function begin
0206  1683  	BSF STATUS, RP0
0207  1303  	BCF STATUS, RP1
0208  1518  	BSF gbl_txsta,2
0209  301F  	MOVLW 0x1F
020A  0099  	MOVWF gbl_spbrg
020B  1283  	BCF STATUS, RP0
020C  0198  	CLRF gbl_rcsta
020D  1798  	BSF gbl_rcsta,7
020E  1683  	BSF STATUS, RP0
020F  1698  	BSF gbl_txsta,5
0210  1283  	BCF STATUS, RP0
0211  1618  	BSF gbl_rcsta,4
0212  1683  	BSF STATUS, RP0
0213  128C  	BCF gbl_pie1,5
0214  0008  	RETURN
0215        ; } FC_CAL_UART_Init_1 function end

	ORG 0x00000215
0215        FCM_regist_00052
0215        ; { FCM_register ; function begin
0215  1683  	BSF STATUS, RP0
0216  1303  	BCF STATUS, RP1
0217  0833  	MOVF gbl_FCV_MIN_TENS, W
0218  00F9  	MOVWF gbl_FCV_DIGIT_TIME
0219  3008  	MOVLW 0x08
021A  00F8  	MOVWF gbl_FCV_DIGIT_FOPE
021B  082B  	MOVF gbl_FCV_HOME_SCORE_TENS, W
021C  00AA  	MOVWF gbl_FCV_DIGIT_SCORE
021D  2090  	CALL FCM_data_b_00051
021E  30FE  	MOVLW 0xFE
021F  0507  	ANDWF gbl_trisc, W
0220  0087  	MOVWF gbl_trisc
0221  30FE  	MOVLW 0xFE
0222  1283  	BCF STATUS, RP0
0223  0507  	ANDWF gbl_portc, W
0224  0087  	MOVWF gbl_portc
0225  1683  	BSF STATUS, RP0
0226  01B4  	CLRF gbl_FCLV_LOOP1
0227        label53
0227  3008  	MOVLW 0x08
0228  0234  	SUBWF gbl_FCLV_LOOP1, W
0229  1803  	BTFSC STATUS,C
022A  2AA8  	GOTO	label60
022B  30FE  	MOVLW 0xFE
022C  0507  	ANDWF gbl_trisc, W
022D  0087  	MOVWF gbl_trisc
022E  30FE  	MOVLW 0xFE
022F  1283  	BCF STATUS, RP0
0230  0507  	ANDWF gbl_portc, W
0231  0087  	MOVWF gbl_portc
0232  3001  	MOVLW 0x01
0233  1683  	BSF STATUS, RP0
0234  052D  	ANDWF gbl_FCV_BITS_TIME, W
0235  00B8  	MOVWF CompTempVar2195
0236  01B9  	CLRF CompTempVar2196
0237  08B8  	MOVF CompTempVar2195, F
0238  1D03  	BTFSS STATUS,Z
0239  1439  	BSF CompTempVar2196,0
023A  117C  	BCF gbl_FCV_DAT_TIME,2
023B  0839  	MOVF CompTempVar2196, W
023C  1D03  	BTFSS STATUS,Z
023D  157C  	BSF gbl_FCV_DAT_TIME,2
023E  3001  	MOVLW 0x01
023F  052C  	ANDWF gbl_FCV_BITS_FOPE, W
0240  00B8  	MOVWF CompTempVar2197
0241  01B9  	CLRF CompTempVar2198
0242  08B8  	MOVF CompTempVar2197, F
0243  1D03  	BTFSS STATUS,Z
0244  1439  	BSF CompTempVar2198,0
0245  10FC  	BCF gbl_FCV_DAT_FOPE,1
0246  0839  	MOVF CompTempVar2198, W
0247  1D03  	BTFSS STATUS,Z
0248  14FC  	BSF gbl_FCV_DAT_FOPE,1
0249  3001  	MOVLW 0x01
024A  0520  	ANDWF gbl_FCV_BITS_SCORE, W
024B  00B8  	MOVWF CompTempVar2199
024C  01B9  	CLRF CompTempVar2200
024D  08B8  	MOVF CompTempVar2199, F
024E  1D03  	BTFSS STATUS,Z
024F  1439  	BSF CompTempVar2200,0
0250  107C  	BCF gbl_FCV_DAT_SCORE,0
0251  0839  	MOVF CompTempVar2200, W
0252  1D03  	BTFSS STATUS,Z
0253  147C  	BSF gbl_FCV_DAT_SCORE,0
0254  30FB  	MOVLW 0xFB
0255  0507  	ANDWF gbl_trisc, W
0256  0087  	MOVWF gbl_trisc
0257  1D7C  	BTFSS gbl_FCV_DAT_TIME,2
0258  2A63  	GOTO	label54
0259  30FB  	MOVLW 0xFB
025A  1283  	BCF STATUS, RP0
025B  0507  	ANDWF gbl_portc, W
025C  1683  	BSF STATUS, RP0
025D  00B8  	MOVWF CompTempVar2201
025E  3004  	MOVLW 0x04
025F  0438  	IORWF CompTempVar2201, W
0260  1283  	BCF STATUS, RP0
0261  0087  	MOVWF gbl_portc
0262  2A67  	GOTO	label55
0263        label54
0263  30FB  	MOVLW 0xFB
0264  1283  	BCF STATUS, RP0
0265  0507  	ANDWF gbl_portc, W
0266  0087  	MOVWF gbl_portc
0267        label55
0267  30EF  	MOVLW 0xEF
0268  1683  	BSF STATUS, RP0
0269  0507  	ANDWF gbl_trisc, W
026A  0087  	MOVWF gbl_trisc
026B  1CFC  	BTFSS gbl_FCV_DAT_FOPE,1
026C  2A77  	GOTO	label56
026D  30EF  	MOVLW 0xEF
026E  1283  	BCF STATUS, RP0
026F  0507  	ANDWF gbl_portc, W
0270  1683  	BSF STATUS, RP0
0271  00B8  	MOVWF CompTempVar2202
0272  3010  	MOVLW 0x10
0273  0438  	IORWF CompTempVar2202, W
0274  1283  	BCF STATUS, RP0
0275  0087  	MOVWF gbl_portc
0276  2A7B  	GOTO	label57
0277        label56
0277  30EF  	MOVLW 0xEF
0278  1283  	BCF STATUS, RP0
0279  0507  	ANDWF gbl_portc, W
027A  0087  	MOVWF gbl_portc
027B        label57
027B  30F7  	MOVLW 0xF7
027C  1683  	BSF STATUS, RP0
027D  0507  	ANDWF gbl_trisc, W
027E  0087  	MOVWF gbl_trisc
027F  1C7C  	BTFSS gbl_FCV_DAT_SCORE,0
0280  2A8B  	GOTO	label58
0281  30F7  	MOVLW 0xF7
0282  1283  	BCF STATUS, RP0
0283  0507  	ANDWF gbl_portc, W
0284  1683  	BSF STATUS, RP0
0285  00B8  	MOVWF CompTempVar2203
0286  3008  	MOVLW 0x08
0287  0438  	IORWF CompTempVar2203, W
0288  1283  	BCF STATUS, RP0
0289  0087  	MOVWF gbl_portc
028A  2A8F  	GOTO	label59
028B        label58
028B  30F7  	MOVLW 0xF7
028C  1283  	BCF STATUS, RP0
028D  0507  	ANDWF gbl_portc, W
028E  0087  	MOVWF gbl_portc
028F        label59
028F  30FE  	MOVLW 0xFE
0290  1683  	BSF STATUS, RP0
0291  0507  	ANDWF gbl_trisc, W
0292  0087  	MOVWF gbl_trisc
0293  30FE  	MOVLW 0xFE
0294  1283  	BCF STATUS, RP0
0295  0507  	ANDWF gbl_portc, W
0296  1683  	BSF STATUS, RP0
0297  00B8  	MOVWF CompTempVar2204
0298  3001  	MOVLW 0x01
0299  0438  	IORWF CompTempVar2204, W
029A  1283  	BCF STATUS, RP0
029B  0087  	MOVWF gbl_portc
029C  1683  	BSF STATUS, RP0
029D  08AD  	MOVF gbl_FCV_BITS_TIME, F
029E  1003  	BCF STATUS,C
029F  0CAD  	RRF gbl_FCV_BITS_TIME, F
02A0  08AC  	MOVF gbl_FCV_BITS_FOPE, F
02A1  1003  	BCF STATUS,C
02A2  0CAC  	RRF gbl_FCV_BITS_FOPE, F
02A3  08A0  	MOVF gbl_FCV_BITS_SCORE, F
02A4  1003  	BCF STATUS,C
02A5  0CA0  	RRF gbl_FCV_BITS_SCORE, F
02A6  0AB4  	INCF gbl_FCLV_LOOP1, F
02A7  2A27  	GOTO	label53
02A8        label60
02A8  0824  	MOVF gbl_FCV_MIN_ONES, W
02A9  00F9  	MOVWF gbl_FCV_DIGIT_TIME
02AA  087E  	MOVF gbl_FCV_PERIOD, W
02AB  00F8  	MOVWF gbl_FCV_DIGIT_FOPE
02AC  087B  	MOVF gbl_FCV_HOME_SCORE_ONES, W
02AD  00AA  	MOVWF gbl_FCV_DIGIT_SCORE
02AE  2090  	CALL FCM_data_b_00051
02AF  30FE  	MOVLW 0xFE
02B0  0507  	ANDWF gbl_trisc, W
02B1  0087  	MOVWF gbl_trisc
02B2  30FE  	MOVLW 0xFE
02B3  1283  	BCF STATUS, RP0
02B4  0507  	ANDWF gbl_portc, W
02B5  0087  	MOVWF gbl_portc
02B6  1683  	BSF STATUS, RP0
02B7  01B5  	CLRF gbl_FCLV_LOOP2
02B8        label61
02B8  3008  	MOVLW 0x08
02B9  0235  	SUBWF gbl_FCLV_LOOP2, W
02BA  1803  	BTFSC STATUS,C
02BB  2B39  	GOTO	label68
02BC  30FE  	MOVLW 0xFE
02BD  0507  	ANDWF gbl_trisc, W
02BE  0087  	MOVWF gbl_trisc
02BF  30FE  	MOVLW 0xFE
02C0  1283  	BCF STATUS, RP0
02C1  0507  	ANDWF gbl_portc, W
02C2  0087  	MOVWF gbl_portc
02C3  3001  	MOVLW 0x01
02C4  1683  	BSF STATUS, RP0
02C5  052D  	ANDWF gbl_FCV_BITS_TIME, W
02C6  00B8  	MOVWF CompTempVar2208
02C7  01B9  	CLRF CompTempVar2209
02C8  08B8  	MOVF CompTempVar2208, F
02C9  1D03  	BTFSS STATUS,Z
02CA  1439  	BSF CompTempVar2209,0
02CB  117C  	BCF gbl_FCV_DAT_TIME,2
02CC  0839  	MOVF CompTempVar2209, W
02CD  1D03  	BTFSS STATUS,Z
02CE  157C  	BSF gbl_FCV_DAT_TIME,2
02CF  3001  	MOVLW 0x01
02D0  052C  	ANDWF gbl_FCV_BITS_FOPE, W
02D1  00B8  	MOVWF CompTempVar2210
02D2  01B9  	CLRF CompTempVar2211
02D3  08B8  	MOVF CompTempVar2210, F
02D4  1D03  	BTFSS STATUS,Z
02D5  1439  	BSF CompTempVar2211,0
02D6  10FC  	BCF gbl_FCV_DAT_FOPE,1
02D7  0839  	MOVF CompTempVar2211, W
02D8  1D03  	BTFSS STATUS,Z
02D9  14FC  	BSF gbl_FCV_DAT_FOPE,1
02DA  3001  	MOVLW 0x01
02DB  0520  	ANDWF gbl_FCV_BITS_SCORE, W
02DC  00B8  	MOVWF CompTempVar2212
02DD  01B9  	CLRF CompTempVar2213
02DE  08B8  	MOVF CompTempVar2212, F
02DF  1D03  	BTFSS STATUS,Z
02E0  1439  	BSF CompTempVar2213,0
02E1  107C  	BCF gbl_FCV_DAT_SCORE,0
02E2  0839  	MOVF CompTempVar2213, W
02E3  1D03  	BTFSS STATUS,Z
02E4  147C  	BSF gbl_FCV_DAT_SCORE,0
02E5  30FB  	MOVLW 0xFB
02E6  0507  	ANDWF gbl_trisc, W
02E7  0087  	MOVWF gbl_trisc
02E8  1D7C  	BTFSS gbl_FCV_DAT_TIME,2
02E9  2AF4  	GOTO	label62
02EA  30FB  	MOVLW 0xFB
02EB  1283  	BCF STATUS, RP0
02EC  0507  	ANDWF gbl_portc, W
02ED  1683  	BSF STATUS, RP0
02EE  00B8  	MOVWF CompTempVar2214
02EF  3004  	MOVLW 0x04
02F0  0438  	IORWF CompTempVar2214, W
02F1  1283  	BCF STATUS, RP0
02F2  0087  	MOVWF gbl_portc
02F3  2AF8  	GOTO	label63
02F4        label62
02F4  30FB  	MOVLW 0xFB
02F5  1283  	BCF STATUS, RP0
02F6  0507  	ANDWF gbl_portc, W
02F7  0087  	MOVWF gbl_portc
02F8        label63
02F8  30EF  	MOVLW 0xEF
02F9  1683  	BSF STATUS, RP0
02FA  0507  	ANDWF gbl_trisc, W
02FB  0087  	MOVWF gbl_trisc
02FC  1CFC  	BTFSS gbl_FCV_DAT_FOPE,1
02FD  2B08  	GOTO	label64
02FE  30EF  	MOVLW 0xEF
02FF  1283  	BCF STATUS, RP0
0300  0507  	ANDWF gbl_portc, W
0301  1683  	BSF STATUS, RP0
0302  00B8  	MOVWF CompTempVar2215
0303  3010  	MOVLW 0x10
0304  0438  	IORWF CompTempVar2215, W
0305  1283  	BCF STATUS, RP0
0306  0087  	MOVWF gbl_portc
0307  2B0C  	GOTO	label65
0308        label64
0308  30EF  	MOVLW 0xEF
0309  1283  	BCF STATUS, RP0
030A  0507  	ANDWF gbl_portc, W
030B  0087  	MOVWF gbl_portc
030C        label65
030C  30F7  	MOVLW 0xF7
030D  1683  	BSF STATUS, RP0
030E  0507  	ANDWF gbl_trisc, W
030F  0087  	MOVWF gbl_trisc
0310  1C7C  	BTFSS gbl_FCV_DAT_SCORE,0
0311  2B1C  	GOTO	label66
0312  30F7  	MOVLW 0xF7
0313  1283  	BCF STATUS, RP0
0314  0507  	ANDWF gbl_portc, W
0315  1683  	BSF STATUS, RP0
0316  00B8  	MOVWF CompTempVar2216
0317  3008  	MOVLW 0x08
0318  0438  	IORWF CompTempVar2216, W
0319  1283  	BCF STATUS, RP0
031A  0087  	MOVWF gbl_portc
031B  2B20  	GOTO	label67
031C        label66
031C  30F7  	MOVLW 0xF7
031D  1283  	BCF STATUS, RP0
031E  0507  	ANDWF gbl_portc, W
031F  0087  	MOVWF gbl_portc
0320        label67
0320  30FE  	MOVLW 0xFE
0321  1683  	BSF STATUS, RP0
0322  0507  	ANDWF gbl_trisc, W
0323  0087  	MOVWF gbl_trisc
0324  30FE  	MOVLW 0xFE
0325  1283  	BCF STATUS, RP0
0326  0507  	ANDWF gbl_portc, W
0327  1683  	BSF STATUS, RP0
0328  00B8  	MOVWF CompTempVar2217
0329  3001  	MOVLW 0x01
032A  0438  	IORWF CompTempVar2217, W
032B  1283  	BCF STATUS, RP0
032C  0087  	MOVWF gbl_portc
032D  1683  	BSF STATUS, RP0
032E  08AD  	MOVF gbl_FCV_BITS_TIME, F
032F  1003  	BCF STATUS,C
0330  0CAD  	RRF gbl_FCV_BITS_TIME, F
0331  08AC  	MOVF gbl_FCV_BITS_FOPE, F
0332  1003  	BCF STATUS,C
0333  0CAC  	RRF gbl_FCV_BITS_FOPE, F
0334  08A0  	MOVF gbl_FCV_BITS_SCORE, F
0335  1003  	BCF STATUS,C
0336  0CA0  	RRF gbl_FCV_BITS_SCORE, F
0337  0AB5  	INCF gbl_FCLV_LOOP2, F
0338  2AB8  	GOTO	label61
0339        label68
0339  0828  	MOVF gbl_FCV_SEC_TENS, W
033A  00F9  	MOVWF gbl_FCV_DIGIT_TIME
033B  0823  	MOVF gbl_FCV_HOME_FOUL, W
033C  00F8  	MOVWF gbl_FCV_DIGIT_FOPE
033D  0821  	MOVF gbl_FCV_AWAY_SCORE_TENS, W
033E  00AA  	MOVWF gbl_FCV_DIGIT_SCORE
033F  2090  	CALL FCM_data_b_00051
0340  30FE  	MOVLW 0xFE
0341  0507  	ANDWF gbl_trisc, W
0342  0087  	MOVWF gbl_trisc
0343  30FE  	MOVLW 0xFE
0344  1283  	BCF STATUS, RP0
0345  0507  	ANDWF gbl_portc, W
0346  0087  	MOVWF gbl_portc
0347  1683  	BSF STATUS, RP0
0348  01B6  	CLRF gbl_FCLV_LOOP3
0349        label69
0349  3008  	MOVLW 0x08
034A  0236  	SUBWF gbl_FCLV_LOOP3, W
034B  1803  	BTFSC STATUS,C
034C  2BCA  	GOTO	label76
034D  30FE  	MOVLW 0xFE
034E  0507  	ANDWF gbl_trisc, W
034F  0087  	MOVWF gbl_trisc
0350  30FE  	MOVLW 0xFE
0351  1283  	BCF STATUS, RP0
0352  0507  	ANDWF gbl_portc, W
0353  0087  	MOVWF gbl_portc
0354  3001  	MOVLW 0x01
0355  1683  	BSF STATUS, RP0
0356  052D  	ANDWF gbl_FCV_BITS_TIME, W
0357  00B8  	MOVWF CompTempVar2221
0358  01B9  	CLRF CompTempVar2222
0359  08B8  	MOVF CompTempVar2221, F
035A  1D03  	BTFSS STATUS,Z
035B  1439  	BSF CompTempVar2222,0
035C  117C  	BCF gbl_FCV_DAT_TIME,2
035D  0839  	MOVF CompTempVar2222, W
035E  1D03  	BTFSS STATUS,Z
035F  157C  	BSF gbl_FCV_DAT_TIME,2
0360  3001  	MOVLW 0x01
0361  052C  	ANDWF gbl_FCV_BITS_FOPE, W
0362  00B8  	MOVWF CompTempVar2223
0363  01B9  	CLRF CompTempVar2224
0364  08B8  	MOVF CompTempVar2223, F
0365  1D03  	BTFSS STATUS,Z
0366  1439  	BSF CompTempVar2224,0
0367  10FC  	BCF gbl_FCV_DAT_FOPE,1
0368  0839  	MOVF CompTempVar2224, W
0369  1D03  	BTFSS STATUS,Z
036A  14FC  	BSF gbl_FCV_DAT_FOPE,1
036B  3001  	MOVLW 0x01
036C  0520  	ANDWF gbl_FCV_BITS_SCORE, W
036D  00B8  	MOVWF CompTempVar2225
036E  01B9  	CLRF CompTempVar2226
036F  08B8  	MOVF CompTempVar2225, F
0370  1D03  	BTFSS STATUS,Z
0371  1439  	BSF CompTempVar2226,0
0372  107C  	BCF gbl_FCV_DAT_SCORE,0
0373  0839  	MOVF CompTempVar2226, W
0374  1D03  	BTFSS STATUS,Z
0375  147C  	BSF gbl_FCV_DAT_SCORE,0
0376  30FB  	MOVLW 0xFB
0377  0507  	ANDWF gbl_trisc, W
0378  0087  	MOVWF gbl_trisc
0379  1D7C  	BTFSS gbl_FCV_DAT_TIME,2
037A  2B85  	GOTO	label70
037B  30FB  	MOVLW 0xFB
037C  1283  	BCF STATUS, RP0
037D  0507  	ANDWF gbl_portc, W
037E  1683  	BSF STATUS, RP0
037F  00B8  	MOVWF CompTempVar2227
0380  3004  	MOVLW 0x04
0381  0438  	IORWF CompTempVar2227, W
0382  1283  	BCF STATUS, RP0
0383  0087  	MOVWF gbl_portc
0384  2B89  	GOTO	label71
0385        label70
0385  30FB  	MOVLW 0xFB
0386  1283  	BCF STATUS, RP0
0387  0507  	ANDWF gbl_portc, W
0388  0087  	MOVWF gbl_portc
0389        label71
0389  30EF  	MOVLW 0xEF
038A  1683  	BSF STATUS, RP0
038B  0507  	ANDWF gbl_trisc, W
038C  0087  	MOVWF gbl_trisc
038D  1CFC  	BTFSS gbl_FCV_DAT_FOPE,1
038E  2B99  	GOTO	label72
038F  30EF  	MOVLW 0xEF
0390  1283  	BCF STATUS, RP0
0391  0507  	ANDWF gbl_portc, W
0392  1683  	BSF STATUS, RP0
0393  00B8  	MOVWF CompTempVar2228
0394  3010  	MOVLW 0x10
0395  0438  	IORWF CompTempVar2228, W
0396  1283  	BCF STATUS, RP0
0397  0087  	MOVWF gbl_portc
0398  2B9D  	GOTO	label73
0399        label72
0399  30EF  	MOVLW 0xEF
039A  1283  	BCF STATUS, RP0
039B  0507  	ANDWF gbl_portc, W
039C  0087  	MOVWF gbl_portc
039D        label73
039D  30F7  	MOVLW 0xF7
039E  1683  	BSF STATUS, RP0
039F  0507  	ANDWF gbl_trisc, W
03A0  0087  	MOVWF gbl_trisc
03A1  1C7C  	BTFSS gbl_FCV_DAT_SCORE,0
03A2  2BAD  	GOTO	label74
03A3  30F7  	MOVLW 0xF7
03A4  1283  	BCF STATUS, RP0
03A5  0507  	ANDWF gbl_portc, W
03A6  1683  	BSF STATUS, RP0
03A7  00B8  	MOVWF CompTempVar2229
03A8  3008  	MOVLW 0x08
03A9  0438  	IORWF CompTempVar2229, W
03AA  1283  	BCF STATUS, RP0
03AB  0087  	MOVWF gbl_portc
03AC  2BB1  	GOTO	label75
03AD        label74
03AD  30F7  	MOVLW 0xF7
03AE  1283  	BCF STATUS, RP0
03AF  0507  	ANDWF gbl_portc, W
03B0  0087  	MOVWF gbl_portc
03B1        label75
03B1  30FE  	MOVLW 0xFE
03B2  1683  	BSF STATUS, RP0
03B3  0507  	ANDWF gbl_trisc, W
03B4  0087  	MOVWF gbl_trisc
03B5  30FE  	MOVLW 0xFE
03B6  1283  	BCF STATUS, RP0
03B7  0507  	ANDWF gbl_portc, W
03B8  1683  	BSF STATUS, RP0
03B9  00B8  	MOVWF CompTempVar2230
03BA  3001  	MOVLW 0x01
03BB  0438  	IORWF CompTempVar2230, W
03BC  1283  	BCF STATUS, RP0
03BD  0087  	MOVWF gbl_portc
03BE  1683  	BSF STATUS, RP0
03BF  08AD  	MOVF gbl_FCV_BITS_TIME, F
03C0  1003  	BCF STATUS,C
03C1  0CAD  	RRF gbl_FCV_BITS_TIME, F
03C2  08AC  	MOVF gbl_FCV_BITS_FOPE, F
03C3  1003  	BCF STATUS,C
03C4  0CAC  	RRF gbl_FCV_BITS_FOPE, F
03C5  08A0  	MOVF gbl_FCV_BITS_SCORE, F
03C6  1003  	BCF STATUS,C
03C7  0CA0  	RRF gbl_FCV_BITS_SCORE, F
03C8  0AB6  	INCF gbl_FCLV_LOOP3, F
03C9  2B49  	GOTO	label69
03CA        label76
03CA  0832  	MOVF gbl_FCV_SEC_ONES, W
03CB  00F9  	MOVWF gbl_FCV_DIGIT_TIME
03CC  0831  	MOVF gbl_FCV_AWAY_FOUL, W
03CD  00F8  	MOVWF gbl_FCV_DIGIT_FOPE
03CE  0829  	MOVF gbl_FCV_AWAY_SCORE_ONES, W
03CF  00AA  	MOVWF gbl_FCV_DIGIT_SCORE
03D0  2090  	CALL FCM_data_b_00051
03D1  3080  	MOVLW 0x80
03D2  072D  	ADDWF gbl_FCV_BITS_TIME, W
03D3  00AD  	MOVWF gbl_FCV_BITS_TIME
03D4  30FE  	MOVLW 0xFE
03D5  0507  	ANDWF gbl_trisc, W
03D6  0087  	MOVWF gbl_trisc
03D7  30FE  	MOVLW 0xFE
03D8  1283  	BCF STATUS, RP0
03D9  0507  	ANDWF gbl_portc, W
03DA  0087  	MOVWF gbl_portc
03DB  1683  	BSF STATUS, RP0
03DC  01B7  	CLRF gbl_FCLV_LOOP4
03DD        label77
03DD  3008  	MOVLW 0x08
03DE  0237  	SUBWF gbl_FCLV_LOOP4, W
03DF  1803  	BTFSC STATUS,C
03E0  2C5E  	GOTO	label84
03E1  30FE  	MOVLW 0xFE
03E2  0507  	ANDWF gbl_trisc, W
03E3  0087  	MOVWF gbl_trisc
03E4  30FE  	MOVLW 0xFE
03E5  1283  	BCF STATUS, RP0
03E6  0507  	ANDWF gbl_portc, W
03E7  0087  	MOVWF gbl_portc
03E8  3001  	MOVLW 0x01
03E9  1683  	BSF STATUS, RP0
03EA  052D  	ANDWF gbl_FCV_BITS_TIME, W
03EB  00B8  	MOVWF CompTempVar2234
03EC  01B9  	CLRF CompTempVar2235
03ED  08B8  	MOVF CompTempVar2234, F
03EE  1D03  	BTFSS STATUS,Z
03EF  1439  	BSF CompTempVar2235,0
03F0  117C  	BCF gbl_FCV_DAT_TIME,2
03F1  0839  	MOVF CompTempVar2235, W
03F2  1D03  	BTFSS STATUS,Z
03F3  157C  	BSF gbl_FCV_DAT_TIME,2
03F4  3001  	MOVLW 0x01
03F5  052C  	ANDWF gbl_FCV_BITS_FOPE, W
03F6  00B8  	MOVWF CompTempVar2236
03F7  01B9  	CLRF CompTempVar2237
03F8  08B8  	MOVF CompTempVar2236, F
03F9  1D03  	BTFSS STATUS,Z
03FA  1439  	BSF CompTempVar2237,0
03FB  10FC  	BCF gbl_FCV_DAT_FOPE,1
03FC  0839  	MOVF CompTempVar2237, W
03FD  1D03  	BTFSS STATUS,Z
03FE  14FC  	BSF gbl_FCV_DAT_FOPE,1
03FF  3001  	MOVLW 0x01
0400  0520  	ANDWF gbl_FCV_BITS_SCORE, W
0401  00B8  	MOVWF CompTempVar2238
0402  01B9  	CLRF CompTempVar2239
0403  08B8  	MOVF CompTempVar2238, F
0404  1D03  	BTFSS STATUS,Z
0405  1439  	BSF CompTempVar2239,0
0406  107C  	BCF gbl_FCV_DAT_SCORE,0
0407  0839  	MOVF CompTempVar2239, W
0408  1D03  	BTFSS STATUS,Z
0409  147C  	BSF gbl_FCV_DAT_SCORE,0
040A  30FB  	MOVLW 0xFB
040B  0507  	ANDWF gbl_trisc, W
040C  0087  	MOVWF gbl_trisc
040D  1D7C  	BTFSS gbl_FCV_DAT_TIME,2
040E  2C19  	GOTO	label78
040F  30FB  	MOVLW 0xFB
0410  1283  	BCF STATUS, RP0
0411  0507  	ANDWF gbl_portc, W
0412  1683  	BSF STATUS, RP0
0413  00B8  	MOVWF CompTempVar2240
0414  3004  	MOVLW 0x04
0415  0438  	IORWF CompTempVar2240, W
0416  1283  	BCF STATUS, RP0
0417  0087  	MOVWF gbl_portc
0418  2C1D  	GOTO	label79
0419        label78
0419  30FB  	MOVLW 0xFB
041A  1283  	BCF STATUS, RP0
041B  0507  	ANDWF gbl_portc, W
041C  0087  	MOVWF gbl_portc
041D        label79
041D  30EF  	MOVLW 0xEF
041E  1683  	BSF STATUS, RP0
041F  0507  	ANDWF gbl_trisc, W
0420  0087  	MOVWF gbl_trisc
0421  1CFC  	BTFSS gbl_FCV_DAT_FOPE,1
0422  2C2D  	GOTO	label80
0423  30EF  	MOVLW 0xEF
0424  1283  	BCF STATUS, RP0
0425  0507  	ANDWF gbl_portc, W
0426  1683  	BSF STATUS, RP0
0427  00B8  	MOVWF CompTempVar2241
0428  3010  	MOVLW 0x10
0429  0438  	IORWF CompTempVar2241, W
042A  1283  	BCF STATUS, RP0
042B  0087  	MOVWF gbl_portc
042C  2C31  	GOTO	label81
042D        label80
042D  30EF  	MOVLW 0xEF
042E  1283  	BCF STATUS, RP0
042F  0507  	ANDWF gbl_portc, W
0430  0087  	MOVWF gbl_portc
0431        label81
0431  30F7  	MOVLW 0xF7
0432  1683  	BSF STATUS, RP0
0433  0507  	ANDWF gbl_trisc, W
0434  0087  	MOVWF gbl_trisc
0435  1C7C  	BTFSS gbl_FCV_DAT_SCORE,0
0436  2C41  	GOTO	label82
0437  30F7  	MOVLW 0xF7
0438  1283  	BCF STATUS, RP0
0439  0507  	ANDWF gbl_portc, W
043A  1683  	BSF STATUS, RP0
043B  00B8  	MOVWF CompTempVar2242
043C  3008  	MOVLW 0x08
043D  0438  	IORWF CompTempVar2242, W
043E  1283  	BCF STATUS, RP0
043F  0087  	MOVWF gbl_portc
0440  2C45  	GOTO	label83
0441        label82
0441  30F7  	MOVLW 0xF7
0442  1283  	BCF STATUS, RP0
0443  0507  	ANDWF gbl_portc, W
0444  0087  	MOVWF gbl_portc
0445        label83
0445  30FE  	MOVLW 0xFE
0446  1683  	BSF STATUS, RP0
0447  0507  	ANDWF gbl_trisc, W
0448  0087  	MOVWF gbl_trisc
0449  30FE  	MOVLW 0xFE
044A  1283  	BCF STATUS, RP0
044B  0507  	ANDWF gbl_portc, W
044C  1683  	BSF STATUS, RP0
044D  00B8  	MOVWF CompTempVar2243
044E  3001  	MOVLW 0x01
044F  0438  	IORWF CompTempVar2243, W
0450  1283  	BCF STATUS, RP0
0451  0087  	MOVWF gbl_portc
0452  1683  	BSF STATUS, RP0
0453  08AD  	MOVF gbl_FCV_BITS_TIME, F
0454  1003  	BCF STATUS,C
0455  0CAD  	RRF gbl_FCV_BITS_TIME, F
0456  08AC  	MOVF gbl_FCV_BITS_FOPE, F
0457  1003  	BCF STATUS,C
0458  0CAC  	RRF gbl_FCV_BITS_FOPE, F
0459  08A0  	MOVF gbl_FCV_BITS_SCORE, F
045A  1003  	BCF STATUS,C
045B  0CA0  	RRF gbl_FCV_BITS_SCORE, F
045C  0AB7  	INCF gbl_FCLV_LOOP4, F
045D  2BDD  	GOTO	label77
045E        label84
045E  30FD  	MOVLW 0xFD
045F  0507  	ANDWF gbl_trisc, W
0460  0087  	MOVWF gbl_trisc
0461  30FD  	MOVLW 0xFD
0462  1283  	BCF STATUS, RP0
0463  0507  	ANDWF gbl_portc, W
0464  1683  	BSF STATUS, RP0
0465  00B8  	MOVWF CompTempVar2247
0466  3002  	MOVLW 0x02
0467  0438  	IORWF CompTempVar2247, W
0468  1283  	BCF STATUS, RP0
0469  0087  	MOVWF gbl_portc
046A  30FD  	MOVLW 0xFD
046B  1683  	BSF STATUS, RP0
046C  0507  	ANDWF gbl_trisc, W
046D  0087  	MOVWF gbl_trisc
046E  30FD  	MOVLW 0xFD
046F  1283  	BCF STATUS, RP0
0470  0507  	ANDWF gbl_portc, W
0471  0087  	MOVWF gbl_portc
0472  0008  	RETURN
0473        ; } FCM_register function end

	ORG 0x00000473
0473        FCI_STRING_0004F
0473        ; { FCI_STRING_TO_INT ; function begin
0473  01BB  	CLRF FCI_STRING_0004F_1_bNegative
0474  01BC  	CLRF FCI_STRING_0004F_1_idx
0475  01BD  	CLRF FCI_STRING_0004F_1_RetVal
0476  01BE  	CLRF FCI_STRING_0004F_1_RetVal+D'1'
0477  01BF  	CLRF FCI_STRING_0004F_1_RetVal+D'2'
0478  01C0  	CLRF FCI_STRING_0004F_1_RetVal+D'3'
0479  1383  	BCF STATUS,IRP
047A  1839  	BTFSC FCI_STRING_0004F_arg_String+D'1',0
047B  1783  	BSF STATUS,IRP
047C  0838  	MOVF FCI_STRING_0004F_arg_String, W
047D  0084  	MOVWF FSR
047E  01C1  	CLRF CompTempVar2065
047F  0841  	MOVF CompTempVar2065, W
0480  0784  	ADDWF FSR, F
0481  0800  	MOVF INDF, W
0482  3A2D  	XORLW 0x2D
0483  1D03  	BTFSS STATUS,Z
0484  2C88  	GOTO	label85
0485  3001  	MOVLW 0x01
0486  00BB  	MOVWF FCI_STRING_0004F_1_bNegative
0487  00BC  	MOVWF FCI_STRING_0004F_1_idx
0488        label85
0488  083A  	MOVF FCI_STRING_0004F_arg_MSZ_String, W
0489  023C  	SUBWF FCI_STRING_0004F_1_idx, W
048A  1803  	BTFSC STATUS,C
048B  2CE3  	GOTO	label86
048C  1383  	BCF STATUS,IRP
048D  1839  	BTFSC FCI_STRING_0004F_arg_String+D'1',0
048E  1783  	BSF STATUS,IRP
048F  0838  	MOVF FCI_STRING_0004F_arg_String, W
0490  073C  	ADDWF FCI_STRING_0004F_1_idx, W
0491  0084  	MOVWF FSR
0492  3030  	MOVLW 0x30
0493  0200  	SUBWF INDF, W
0494  1C03  	BTFSS STATUS,C
0495  2CE3  	GOTO	label86
0496  1383  	BCF STATUS,IRP
0497  1839  	BTFSC FCI_STRING_0004F_arg_String+D'1',0
0498  1783  	BSF STATUS,IRP
0499  0838  	MOVF FCI_STRING_0004F_arg_String, W
049A  073C  	ADDWF FCI_STRING_0004F_1_idx, W
049B  0084  	MOVWF FSR
049C  0800  	MOVF INDF, W
049D  3C39  	SUBLW 0x39
049E  1C03  	BTFSS STATUS,C
049F  2CE3  	GOTO	label86
04A0  083D  	MOVF FCI_STRING_0004F_1_RetVal, W
04A1  00C2  	MOVWF __mul_32u__0000F_arg_a
04A2  083E  	MOVF FCI_STRING_0004F_1_RetVal+D'1', W
04A3  00C3  	MOVWF __mul_32u__0000F_arg_a+D'1'
04A4  083F  	MOVF FCI_STRING_0004F_1_RetVal+D'2', W
04A5  00C4  	MOVWF __mul_32u__0000F_arg_a+D'2'
04A6  0840  	MOVF FCI_STRING_0004F_1_RetVal+D'3', W
04A7  00C5  	MOVWF __mul_32u__0000F_arg_a+D'3'
04A8  300A  	MOVLW 0x0A
04A9  00C6  	MOVWF __mul_32u__0000F_arg_b
04AA  01C7  	CLRF __mul_32u__0000F_arg_b+D'1'
04AB  01C8  	CLRF __mul_32u__0000F_arg_b+D'2'
04AC  01C9  	CLRF __mul_32u__0000F_arg_b+D'3'
04AD  2015  	CALL __mul_32u__0000F
04AE  084F  	MOVF CompTempVarRet464, W
04AF  00CA  	MOVWF CompTempVar2073
04B0  0850  	MOVF CompTempVarRet464+D'1', W
04B1  00CB  	MOVWF CompTempVar2074
04B2  0851  	MOVF CompTempVarRet464+D'2', W
04B3  00CC  	MOVWF CompTempVar2075
04B4  0852  	MOVF CompTempVarRet464+D'3', W
04B5  00CD  	MOVWF CompTempVar2076
04B6  084A  	MOVF CompTempVar2073, W
04B7  00BD  	MOVWF FCI_STRING_0004F_1_RetVal
04B8  084B  	MOVF CompTempVar2074, W
04B9  00BE  	MOVWF FCI_STRING_0004F_1_RetVal+D'1'
04BA  084C  	MOVF CompTempVar2075, W
04BB  00BF  	MOVWF FCI_STRING_0004F_1_RetVal+D'2'
04BC  084D  	MOVF CompTempVar2076, W
04BD  00C0  	MOVWF FCI_STRING_0004F_1_RetVal+D'3'
04BE  1383  	BCF STATUS,IRP
04BF  1839  	BTFSC FCI_STRING_0004F_arg_String+D'1',0
04C0  1783  	BSF STATUS,IRP
04C1  0838  	MOVF FCI_STRING_0004F_arg_String, W
04C2  073C  	ADDWF FCI_STRING_0004F_1_idx, W
04C3  0084  	MOVWF FSR
04C4  3030  	MOVLW 0x30
04C5  0200  	SUBWF INDF, W
04C6  00C2  	MOVWF CompTempVar2079
04C7  01C3  	CLRF CompTempVar2080
04C8  01C4  	CLRF CompTempVar2081
04C9  01C5  	CLRF CompTempVar2082
04CA  083D  	MOVF FCI_STRING_0004F_1_RetVal, W
04CB  07C2  	ADDWF CompTempVar2079, F
04CC  083E  	MOVF FCI_STRING_0004F_1_RetVal+D'1', W
04CD  1803  	BTFSC STATUS,C
04CE  0F3E  	INCFSZ FCI_STRING_0004F_1_RetVal+D'1', W
04CF  07C3  	ADDWF CompTempVar2080, F
04D0  083F  	MOVF FCI_STRING_0004F_1_RetVal+D'2', W
04D1  1803  	BTFSC STATUS,C
04D2  0F3F  	INCFSZ FCI_STRING_0004F_1_RetVal+D'2', W
04D3  07C4  	ADDWF CompTempVar2081, F
04D4  0840  	MOVF FCI_STRING_0004F_1_RetVal+D'3', W
04D5  1803  	BTFSC STATUS,C
04D6  0F40  	INCFSZ FCI_STRING_0004F_1_RetVal+D'3', W
04D7  07C5  	ADDWF CompTempVar2082, F
04D8  0842  	MOVF CompTempVar2079, W
04D9  00BD  	MOVWF FCI_STRING_0004F_1_RetVal
04DA  0843  	MOVF CompTempVar2080, W
04DB  00BE  	MOVWF FCI_STRING_0004F_1_RetVal+D'1'
04DC  0844  	MOVF CompTempVar2081, W
04DD  00BF  	MOVWF FCI_STRING_0004F_1_RetVal+D'2'
04DE  0845  	MOVF CompTempVar2082, W
04DF  00C0  	MOVWF FCI_STRING_0004F_1_RetVal+D'3'
04E0  0A3C  	INCF FCI_STRING_0004F_1_idx, W
04E1  00BC  	MOVWF FCI_STRING_0004F_1_idx
04E2  2C88  	GOTO	label85
04E3        label86
04E3  08BB  	MOVF FCI_STRING_0004F_1_bNegative, F
04E4  1903  	BTFSC STATUS,Z
04E5  2D01  	GOTO	label87
04E6  083D  	MOVF FCI_STRING_0004F_1_RetVal, W
04E7  3C00  	SUBLW 0x00
04E8  00C2  	MOVWF CompTempVar2083
04E9  3000  	MOVLW 0x00
04EA  00C3  	MOVWF CompTempVar2084
04EB  00C4  	MOVWF CompTempVar2085
04EC  00C5  	MOVWF CompTempVar2086
04ED  083E  	MOVF FCI_STRING_0004F_1_RetVal+D'1', W
04EE  1C03  	BTFSS STATUS,C
04EF  0F3E  	INCFSZ FCI_STRING_0004F_1_RetVal+D'1', W
04F0  02C3  	SUBWF CompTempVar2084, F
04F1  083F  	MOVF FCI_STRING_0004F_1_RetVal+D'2', W
04F2  1C03  	BTFSS STATUS,C
04F3  0F3F  	INCFSZ FCI_STRING_0004F_1_RetVal+D'2', W
04F4  02C4  	SUBWF CompTempVar2085, F
04F5  0840  	MOVF FCI_STRING_0004F_1_RetVal+D'3', W
04F6  1C03  	BTFSS STATUS,C
04F7  0F40  	INCFSZ FCI_STRING_0004F_1_RetVal+D'3', W
04F8  02C5  	SUBWF CompTempVar2086, F
04F9  0842  	MOVF CompTempVar2083, W
04FA  00BD  	MOVWF FCI_STRING_0004F_1_RetVal
04FB  0843  	MOVF CompTempVar2084, W
04FC  00BE  	MOVWF FCI_STRING_0004F_1_RetVal+D'1'
04FD  0844  	MOVF CompTempVar2085, W
04FE  00BF  	MOVWF FCI_STRING_0004F_1_RetVal+D'2'
04FF  0845  	MOVF CompTempVar2086, W
0500  00C0  	MOVWF FCI_STRING_0004F_1_RetVal+D'3'
0501        label87
0501  083D  	MOVF FCI_STRING_0004F_1_RetVal, W
0502  00C2  	MOVWF CompTempVarRet2063
0503  083E  	MOVF FCI_STRING_0004F_1_RetVal+D'1', W
0504  00C3  	MOVWF CompTempVarRet2063+D'1'
0505  083F  	MOVF FCI_STRING_0004F_1_RetVal+D'2', W
0506  00C4  	MOVWF CompTempVarRet2063+D'2'
0507  0840  	MOVF FCI_STRING_0004F_1_RetVal+D'3', W
0508  00C5  	MOVWF CompTempVarRet2063+D'3'
0509  0008  	RETURN
050A        ; } FCI_STRING_TO_INT function end

	ORG 0x0000050A
050A        FCI_RIGHTS_00048
050A        ; { FCI_RIGHTSTRING ; function begin
050A  08BE  	MOVF FCI_RIGHTS_00048_arg_iDst_len, F
050B  1D03  	BTFSS STATUS,Z
050C  2D0F  	GOTO	label88
050D  01C1  	CLRF CompTempVarRet2006
050E  0008  	RETURN
050F        label88
050F  01BF  	CLRF FCI_RIGHTS_00048_1_idx
0510        label89
0510  083A  	MOVF FCI_RIGHTS_00048_arg_iSrc_len, W
0511  023F  	SUBWF FCI_RIGHTS_00048_1_idx, W
0512  1803  	BTFSC STATUS,C
0513  2D1F  	GOTO	label90
0514  1383  	BCF STATUS,IRP
0515  1839  	BTFSC FCI_RIGHTS_00048_arg_sSrc+D'1',0
0516  1783  	BSF STATUS,IRP
0517  0838  	MOVF FCI_RIGHTS_00048_arg_sSrc, W
0518  073F  	ADDWF FCI_RIGHTS_00048_1_idx, W
0519  0084  	MOVWF FSR
051A  0880  	MOVF INDF, F
051B  1903  	BTFSC STATUS,Z
051C  2D1F  	GOTO	label90
051D  0ABF  	INCF FCI_RIGHTS_00048_1_idx, F
051E  2D10  	GOTO	label89
051F        label90
051F  083B  	MOVF FCI_RIGHTS_00048_arg_iCount, W
0520  023F  	SUBWF FCI_RIGHTS_00048_1_idx, W
0521  1803  	BTFSC STATUS,C
0522  2D25  	GOTO	label91
0523  083F  	MOVF FCI_RIGHTS_00048_1_idx, W
0524  00BB  	MOVWF FCI_RIGHTS_00048_arg_iCount
0525        label91
0525  083B  	MOVF FCI_RIGHTS_00048_arg_iCount, W
0526  023F  	SUBWF FCI_RIGHTS_00048_1_idx, W
0527  00C0  	MOVWF FCI_RIGHTS_00048_1_delta
0528  083B  	MOVF FCI_RIGHTS_00048_arg_iCount, W
0529  023E  	SUBWF FCI_RIGHTS_00048_arg_iDst_len, W
052A  1803  	BTFSC STATUS,C
052B  2D2E  	GOTO	label92
052C  083E  	MOVF FCI_RIGHTS_00048_arg_iDst_len, W
052D  00BB  	MOVWF FCI_RIGHTS_00048_arg_iCount
052E        label92
052E  0840  	MOVF FCI_RIGHTS_00048_1_delta, W
052F  07B8  	ADDWF FCI_RIGHTS_00048_arg_sSrc, F
0530  1803  	BTFSC STATUS,C
0531  0AB9  	INCF FCI_RIGHTS_00048_arg_sSrc+D'1', F
0532  01BF  	CLRF FCI_RIGHTS_00048_1_idx
0533        label93
0533  083B  	MOVF FCI_RIGHTS_00048_arg_iCount, W
0534  023F  	SUBWF FCI_RIGHTS_00048_1_idx, W
0535  1803  	BTFSC STATUS,C
0536  2D4D  	GOTO	label94
0537  1383  	BCF STATUS,IRP
0538  1839  	BTFSC FCI_RIGHTS_00048_arg_sSrc+D'1',0
0539  1783  	BSF STATUS,IRP
053A  0838  	MOVF FCI_RIGHTS_00048_arg_sSrc, W
053B  0084  	MOVWF FSR
053C  0800  	MOVF INDF, W
053D  00C2  	MOVWF CompTempVar2008
053E  1383  	BCF STATUS,IRP
053F  183D  	BTFSC FCI_RIGHTS_00048_arg_sDst+D'1',0
0540  1783  	BSF STATUS,IRP
0541  083C  	MOVF FCI_RIGHTS_00048_arg_sDst, W
0542  0084  	MOVWF FSR
0543  0842  	MOVF CompTempVar2008, W
0544  0080  	MOVWF INDF
0545  0ABC  	INCF FCI_RIGHTS_00048_arg_sDst, F
0546  1903  	BTFSC STATUS,Z
0547  0ABD  	INCF FCI_RIGHTS_00048_arg_sDst+D'1', F
0548  0AB8  	INCF FCI_RIGHTS_00048_arg_sSrc, F
0549  1903  	BTFSC STATUS,Z
054A  0AB9  	INCF FCI_RIGHTS_00048_arg_sSrc+D'1', F
054B  0ABF  	INCF FCI_RIGHTS_00048_1_idx, F
054C  2D33  	GOTO	label93
054D        label94
054D  083E  	MOVF FCI_RIGHTS_00048_arg_iDst_len, W
054E  023F  	SUBWF FCI_RIGHTS_00048_1_idx, W
054F  1803  	BTFSC STATUS,C
0550  2D58  	GOTO	label95
0551  1383  	BCF STATUS,IRP
0552  183D  	BTFSC FCI_RIGHTS_00048_arg_sDst+D'1',0
0553  1783  	BSF STATUS,IRP
0554  083C  	MOVF FCI_RIGHTS_00048_arg_sDst, W
0555  0084  	MOVWF FSR
0556  3000  	MOVLW 0x00
0557  0080  	MOVWF INDF
0558        label95
0558  083F  	MOVF FCI_RIGHTS_00048_1_idx, W
0559  00C1  	MOVWF CompTempVarRet2006
055A  0008  	RETURN
055B        ; } FCI_RIGHTSTRING function end

	ORG 0x0000055B
055B        FCD_RS2320_0005C
055B        ; { FCD_RS2320_ReceiveRS232String ; function begin
055B  30FF  	MOVLW 0xFF
055C  00BE  	MOVWF FCD_RS2320_0005C_1_RS232_TO
055D  01BF  	CLRF FCD_RS2320_0005C_1_RS232_TO+D'1'
055E  083C  	MOVF FCD_RS2320_0005C_arg_NumBytes, W
055F  023A  	SUBWF FCD_RS2320_0005C_arg_FCR_R_0005D, W
0560  1803  	BTFSC STATUS,C
0561  2D64  	GOTO	label96
0562  083A  	MOVF FCD_RS2320_0005C_arg_FCR_R_0005D, W
0563  00BC  	MOVWF FCD_RS2320_0005C_arg_NumBytes
0564        label96
0564  01BD  	CLRF FCD_RS2320_0005C_1_idx
0565        label97
0565  083C  	MOVF FCD_RS2320_0005C_arg_NumBytes, W
0566  023D  	SUBWF FCD_RS2320_0005C_1_idx, W
0567  1803  	BTFSC STATUS,C
0568  2D88  	GOTO	label99
0569  083B  	MOVF FCD_RS2320_0005C_arg_nTimeout, W
056A  00C2  	MOVWF FC_CAL_UAR_00056_arg_nTimeout
056B  2038  	CALL FC_CAL_UAR_00056
056C  0849  	MOVF CompTempVarRet2293, W
056D  00C0  	MOVWF FCD_RS2320_0005C_1_in
056E  084A  	MOVF CompTempVarRet2293+D'1', W
056F  00C1  	MOVWF FCD_RS2320_0005C_1_in+D'1'
0570  0841  	MOVF FCD_RS2320_0005C_1_in+D'1', W
0571  3A80  	XORLW 0x80
0572  00C2  	MOVWF CompTempVar2299
0573  083F  	MOVF FCD_RS2320_0005C_1_RS232_TO+D'1', W
0574  3A80  	XORLW 0x80
0575  0242  	SUBWF CompTempVar2299, W
0576  1D03  	BTFSS STATUS,Z
0577  2D7A  	GOTO	label98
0578  083E  	MOVF FCD_RS2320_0005C_1_RS232_TO, W
0579  0240  	SUBWF FCD_RS2320_0005C_1_in, W
057A        label98
057A  1803  	BTFSC STATUS,C
057B  2D88  	GOTO	label99
057C  0840  	MOVF FCD_RS2320_0005C_1_in, W
057D  00C2  	MOVWF CompTempVar2301
057E  1383  	BCF STATUS,IRP
057F  1839  	BTFSC FCD_RS2320_0005C_arg_FCR_RETVAL+D'1',0
0580  1783  	BSF STATUS,IRP
0581  0838  	MOVF FCD_RS2320_0005C_arg_FCR_RETVAL, W
0582  073D  	ADDWF FCD_RS2320_0005C_1_idx, W
0583  0084  	MOVWF FSR
0584  0842  	MOVF CompTempVar2301, W
0585  0080  	MOVWF INDF
0586  0ABD  	INCF FCD_RS2320_0005C_1_idx, F
0587  2D65  	GOTO	label97
0588        label99
0588  083A  	MOVF FCD_RS2320_0005C_arg_FCR_R_0005D, W
0589  023D  	SUBWF FCD_RS2320_0005C_1_idx, W
058A  1803  	BTFSC STATUS,C
058B  0008  	RETURN
058C  1383  	BCF STATUS,IRP
058D  1839  	BTFSC FCD_RS2320_0005C_arg_FCR_RETVAL+D'1',0
058E  1783  	BSF STATUS,IRP
058F  0838  	MOVF FCD_RS2320_0005C_arg_FCR_RETVAL, W
0590  073D  	ADDWF FCD_RS2320_0005C_1_idx, W
0591  0084  	MOVWF FSR
0592  3000  	MOVLW 0x00
0593  0080  	MOVWF INDF
0594  0008  	RETURN
0595        ; } FCD_RS2320_ReceiveRS232String function end

	ORG 0x00000595
0595        FCD_RS2320_0005B
0595        ; { FCD_RS2320_ReceiveRS232Char ; function begin
0595  0838  	MOVF FCD_RS2320_0005B_arg_nTimeout, W
0596  00C2  	MOVWF FC_CAL_UAR_00056_arg_nTimeout
0597  2038  	CALL FC_CAL_UAR_00056
0598  0849  	MOVF CompTempVarRet2293, W
0599  00BA  	MOVWF CompTempVarRet2298
059A  084A  	MOVF CompTempVarRet2293+D'1', W
059B  00BB  	MOVWF CompTempVarRet2298+D'1'
059C  0008  	RETURN
059D        ; } FCD_RS2320_ReceiveRS232Char function end

	ORG 0x0000059D
059D        main
059D        ; { main ; function begin
059D  1683  	BSF STATUS, RP0
059E  1703  	BSF STATUS, RP1
059F  0188  	CLRF gbl_ansel
05A0  0189  	CLRF gbl_anselh
05A1  2206  	CALL FC_CAL_UAR_00054
05A2  30C0  	MOVLW 0xC0
05A3  0081  	MOVWF gbl_option_reg
05A4  30FD  	MOVLW 0xFD
05A5  0505  	ANDWF gbl_trisa, W
05A6  0085  	MOVWF gbl_trisa
05A7  30FD  	MOVLW 0xFD
05A8  1283  	BCF STATUS, RP0
05A9  0505  	ANDWF gbl_porta, W
05AA  0085  	MOVWF gbl_porta
05AB  30FE  	MOVLW 0xFE
05AC  1683  	BSF STATUS, RP0
05AD  0507  	ANDWF gbl_trisc, W
05AE  0087  	MOVWF gbl_trisc
05AF  30FE  	MOVLW 0xFE
05B0  1283  	BCF STATUS, RP0
05B1  0507  	ANDWF gbl_portc, W
05B2  0087  	MOVWF gbl_portc
05B3  30FD  	MOVLW 0xFD
05B4  1683  	BSF STATUS, RP0
05B5  0507  	ANDWF gbl_trisc, W
05B6  0087  	MOVWF gbl_trisc
05B7  30FD  	MOVLW 0xFD
05B8  1283  	BCF STATUS, RP0
05B9  0507  	ANDWF gbl_portc, W
05BA  0087  	MOVWF gbl_portc
05BB        label100
05BB  3001  	MOVLW 0x01
05BC  1683  	BSF STATUS, RP0
05BD  00B8  	MOVWF FCD_RS2320_0005B_arg_nTimeout
05BE  2595  	CALL FCD_RS2320_0005B
05BF  083A  	MOVF CompTempVarRet2298, W
05C0  00A6  	MOVWF gbl_FCV_RX
05C1  0826  	MOVF gbl_FCV_RX, W
05C2  3A45  	XORLW 0x45
05C3  1D03  	BTFSS STATUS,Z
05C4  2DD1  	GOTO	label101
05C5  30FD  	MOVLW 0xFD
05C6  0505  	ANDWF gbl_trisa, W
05C7  0085  	MOVWF gbl_trisa
05C8  30FD  	MOVLW 0xFD
05C9  1283  	BCF STATUS, RP0
05CA  0505  	ANDWF gbl_porta, W
05CB  1683  	BSF STATUS, RP0
05CC  00B8  	MOVWF CompTempVar2303
05CD  3002  	MOVLW 0x02
05CE  0438  	IORWF CompTempVar2303, W
05CF  1283  	BCF STATUS, RP0
05D0  0085  	MOVWF gbl_porta
05D1        label101
05D1  1683  	BSF STATUS, RP0
05D2  0826  	MOVF gbl_FCV_RX, W
05D3  3A46  	XORLW 0x46
05D4  1D03  	BTFSS STATUS,Z
05D5  2DDD  	GOTO	label102
05D6  30FD  	MOVLW 0xFD
05D7  0505  	ANDWF gbl_trisa, W
05D8  0085  	MOVWF gbl_trisa
05D9  30FD  	MOVLW 0xFD
05DA  1283  	BCF STATUS, RP0
05DB  0505  	ANDWF gbl_porta, W
05DC  0085  	MOVWF gbl_porta
05DD        label102
05DD  1683  	BSF STATUS, RP0
05DE  0826  	MOVF gbl_FCV_RX, W
05DF  3A41  	XORLW 0x41
05E0  1D03  	BTFSS STATUS,Z
05E1  2F6F  	GOTO	label105
05E2  3001  	MOVLW 0x01
05E3  00B8  	MOVWF FCD_RS2320_0005B_arg_nTimeout
05E4  2595  	CALL FCD_RS2320_0005B
05E5  083A  	MOVF CompTempVarRet2298, W
05E6  00A6  	MOVWF gbl_FCV_RX
05E7  0826  	MOVF gbl_FCV_RX, W
05E8  3A42  	XORLW 0x42
05E9  1D03  	BTFSS STATUS,Z
05EA  2F6F  	GOTO	label105
05EB  3000  	MOVLW HIGH(gbl_FCV_RCV+D'0')
05EC  00B9  	MOVWF FCD_RS2320_0005C_arg_FCR_RETVAL+D'1'
05ED  3020  	MOVLW LOW(gbl_FCV_RCV+D'0')
05EE  00B8  	MOVWF FCD_RS2320_0005C_arg_FCR_RETVAL
05EF  300F  	MOVLW 0x0F
05F0  00BA  	MOVWF FCD_RS2320_0005C_arg_FCR_R_0005D
05F1  3001  	MOVLW 0x01
05F2  00BB  	MOVWF FCD_RS2320_0005C_arg_nTimeout
05F3  300F  	MOVLW 0x0F
05F4  00BC  	MOVWF FCD_RS2320_0005C_arg_NumBytes
05F5  255B  	CALL FCD_RS2320_0005C
05F6  1283  	BCF STATUS, RP0
05F7  084F  	MOVF gbl_FCV_HOME_SCORE, W
05F8  3C0A  	SUBLW 0x0A
05F9  1D03  	BTFSS STATUS,Z
05FA  2E05  	GOTO	label103
05FB  0850  	MOVF gbl_FCV_HOME_SCORE+D'1', W
05FC  3C00  	SUBLW 0x00
05FD  1D03  	BTFSS STATUS,Z
05FE  2E05  	GOTO	label103
05FF  0851  	MOVF gbl_FCV_HOME_SCORE+D'2', W
0600  3C00  	SUBLW 0x00
0601  1D03  	BTFSS STATUS,Z
0602  2E05  	GOTO	label103
0603  0852  	MOVF gbl_FCV_HOME_SCORE+D'3', W
0604  3C00  	SUBLW 0x00
0605        label103
0605  3000  	MOVLW HIGH(gbl_FCV_RCV+D'0')
0606  1683  	BSF STATUS, RP0
0607  00B9  	MOVWF FCI_RIGHTS_00048_arg_sSrc+D'1'
0608  3020  	MOVLW LOW(gbl_FCV_RCV+D'0')
0609  00B8  	MOVWF FCI_RIGHTS_00048_arg_sSrc
060A  300F  	MOVLW 0x0F
060B  00BA  	MOVWF FCI_RIGHTS_00048_arg_iSrc_len
060C  00BB  	MOVWF FCI_RIGHTS_00048_arg_iCount
060D  3000  	MOVLW HIGH(gbl_FCV_STRING_TIME+D'0')
060E  00BD  	MOVWF FCI_RIGHTS_00048_arg_sDst+D'1'
060F  304B  	MOVLW LOW(gbl_FCV_STRING_TIME+D'0')
0610  00BC  	MOVWF FCI_RIGHTS_00048_arg_sDst
0611  3004  	MOVLW 0x04
0612  00BE  	MOVWF FCI_RIGHTS_00048_arg_iDst_len
0613  250A  	CALL FCI_RIGHTS_00048
0614  3000  	MOVLW HIGH(gbl_FCV_STRING_TIME+D'0')
0615  00B9  	MOVWF FCI_STRING_0004F_arg_String+D'1'
0616  304B  	MOVLW LOW(gbl_FCV_STRING_TIME+D'0')
0617  00B8  	MOVWF FCI_STRING_0004F_arg_String
0618  3004  	MOVLW 0x04
0619  00BA  	MOVWF FCI_STRING_0004F_arg_MSZ_String
061A  2473  	CALL FCI_STRING_0004F
061B  0842  	MOVF CompTempVarRet2063, W
061C  1283  	BCF STATUS, RP0
061D  00DB  	MOVWF gbl_FCV_TIME
061E  1683  	BSF STATUS, RP0
061F  0843  	MOVF CompTempVarRet2063+D'1', W
0620  1283  	BCF STATUS, RP0
0621  00DC  	MOVWF gbl_FCV_TIME+D'1'
0622  1683  	BSF STATUS, RP0
0623  0844  	MOVF CompTempVarRet2063+D'2', W
0624  1283  	BCF STATUS, RP0
0625  00DD  	MOVWF gbl_FCV_TIME+D'2'
0626  1683  	BSF STATUS, RP0
0627  0845  	MOVF CompTempVarRet2063+D'3', W
0628  1283  	BCF STATUS, RP0
0629  00DE  	MOVWF gbl_FCV_TIME+D'3'
062A  085B  	MOVF gbl_FCV_TIME, W
062B  1683  	BSF STATUS, RP0
062C  00C0  	MOVWF __div_32_3_00001_arg_a
062D  1283  	BCF STATUS, RP0
062E  085C  	MOVF gbl_FCV_TIME+D'1', W
062F  1683  	BSF STATUS, RP0
0630  00C1  	MOVWF __div_32_3_00001_arg_a+D'1'
0631  1283  	BCF STATUS, RP0
0632  085D  	MOVF gbl_FCV_TIME+D'2', W
0633  1683  	BSF STATUS, RP0
0634  00C2  	MOVWF __div_32_3_00001_arg_a+D'2'
0635  1283  	BCF STATUS, RP0
0636  085E  	MOVF gbl_FCV_TIME+D'3', W
0637  1683  	BSF STATUS, RP0
0638  00C3  	MOVWF __div_32_3_00001_arg_a+D'3'
0639  3064  	MOVLW 0x64
063A  00C4  	MOVWF __div_32_3_00001_arg_b
063B  01C5  	CLRF __div_32_3_00001_arg_b+D'1'
063C  01C6  	CLRF __div_32_3_00001_arg_b+D'2'
063D  01C7  	CLRF __div_32_3_00001_arg_b+D'3'
063E  21CD  	CALL __div_32_3_00001
063F  084D  	MOVF CompTempVarRet210, W
0640  00AF  	MOVWF gbl_FCV_MIN
0641  1283  	BCF STATUS, RP0
0642  085B  	MOVF gbl_FCV_TIME, W
0643  1683  	BSF STATUS, RP0
0644  00B8  	MOVWF __rem_32_3_00002_arg_a
0645  1283  	BCF STATUS, RP0
0646  085C  	MOVF gbl_FCV_TIME+D'1', W
0647  1683  	BSF STATUS, RP0
0648  00B9  	MOVWF __rem_32_3_00002_arg_a+D'1'
0649  1283  	BCF STATUS, RP0
064A  085D  	MOVF gbl_FCV_TIME+D'2', W
064B  1683  	BSF STATUS, RP0
064C  00BA  	MOVWF __rem_32_3_00002_arg_a+D'2'
064D  1283  	BCF STATUS, RP0
064E  085E  	MOVF gbl_FCV_TIME+D'3', W
064F  1683  	BSF STATUS, RP0
0650  00BB  	MOVWF __rem_32_3_00002_arg_a+D'3'
0651  3064  	MOVLW 0x64
0652  00BC  	MOVWF __rem_32_3_00002_arg_b
0653  01BD  	CLRF __rem_32_3_00002_arg_b+D'1'
0654  01BE  	CLRF __rem_32_3_00002_arg_b+D'2'
0655  01BF  	CLRF __rem_32_3_00002_arg_b+D'3'
0656  2183  	CALL __rem_32_3_00002
0657  084D  	MOVF CompTempVarRet212, W
0658  00AE  	MOVWF gbl_FCV_SEC
0659  3000  	MOVLW HIGH(gbl_FCV_RCV+D'0')
065A  00B9  	MOVWF FCI_RIGHTS_00048_arg_sSrc+D'1'
065B  3020  	MOVLW LOW(gbl_FCV_RCV+D'0')
065C  00B8  	MOVWF FCI_RIGHTS_00048_arg_sSrc
065D  300F  	MOVLW 0x0F
065E  00BA  	MOVWF FCI_RIGHTS_00048_arg_iSrc_len
065F  300B  	MOVLW 0x0B
0660  00BB  	MOVWF FCI_RIGHTS_00048_arg_iCount
0661  3000  	MOVLW HIGH(gbl_FCV_STRING_FOPE+D'0')
0662  00BD  	MOVWF FCI_RIGHTS_00048_arg_sDst+D'1'
0663  3062  	MOVLW LOW(gbl_FCV_STRING_FOPE+D'0')
0664  00BC  	MOVWF FCI_RIGHTS_00048_arg_sDst
0665  3003  	MOVLW 0x03
0666  00BE  	MOVWF FCI_RIGHTS_00048_arg_iDst_len
0667  250A  	CALL FCI_RIGHTS_00048
0668  3000  	MOVLW HIGH(gbl_FCV_STRING_FOPE+D'0')
0669  00B9  	MOVWF FCI_STRING_0004F_arg_String+D'1'
066A  3062  	MOVLW LOW(gbl_FCV_STRING_FOPE+D'0')
066B  00B8  	MOVWF FCI_STRING_0004F_arg_String
066C  3003  	MOVLW 0x03
066D  00BA  	MOVWF FCI_STRING_0004F_arg_MSZ_String
066E  2473  	CALL FCI_STRING_0004F
066F  0842  	MOVF CompTempVarRet2063, W
0670  1283  	BCF STATUS, RP0
0671  00D7  	MOVWF gbl_FCV_FOPE
0672  1683  	BSF STATUS, RP0
0673  0843  	MOVF CompTempVarRet2063+D'1', W
0674  1283  	BCF STATUS, RP0
0675  00D8  	MOVWF gbl_FCV_FOPE+D'1'
0676  1683  	BSF STATUS, RP0
0677  0844  	MOVF CompTempVarRet2063+D'2', W
0678  1283  	BCF STATUS, RP0
0679  00D9  	MOVWF gbl_FCV_FOPE+D'2'
067A  1683  	BSF STATUS, RP0
067B  0845  	MOVF CompTempVarRet2063+D'3', W
067C  1283  	BCF STATUS, RP0
067D  00DA  	MOVWF gbl_FCV_FOPE+D'3'
067E  0857  	MOVF gbl_FCV_FOPE, W
067F  1683  	BSF STATUS, RP0
0680  00C0  	MOVWF __div_32_3_00001_arg_a
0681  1283  	BCF STATUS, RP0
0682  0858  	MOVF gbl_FCV_FOPE+D'1', W
0683  1683  	BSF STATUS, RP0
0684  00C1  	MOVWF __div_32_3_00001_arg_a+D'1'
0685  1283  	BCF STATUS, RP0
0686  0859  	MOVF gbl_FCV_FOPE+D'2', W
0687  1683  	BSF STATUS, RP0
0688  00C2  	MOVWF __div_32_3_00001_arg_a+D'2'
0689  1283  	BCF STATUS, RP0
068A  085A  	MOVF gbl_FCV_FOPE+D'3', W
068B  1683  	BSF STATUS, RP0
068C  00C3  	MOVWF __div_32_3_00001_arg_a+D'3'
068D  3064  	MOVLW 0x64
068E  00C4  	MOVWF __div_32_3_00001_arg_b
068F  01C5  	CLRF __div_32_3_00001_arg_b+D'1'
0690  01C6  	CLRF __div_32_3_00001_arg_b+D'2'
0691  01C7  	CLRF __div_32_3_00001_arg_b+D'3'
0692  21CD  	CALL __div_32_3_00001
0693  084D  	MOVF CompTempVarRet210, W
0694  00A3  	MOVWF gbl_FCV_HOME_FOUL
0695  1283  	BCF STATUS, RP0
0696  0857  	MOVF gbl_FCV_FOPE, W
0697  1683  	BSF STATUS, RP0
0698  00B8  	MOVWF __rem_32_3_00002_arg_a
0699  1283  	BCF STATUS, RP0
069A  0858  	MOVF gbl_FCV_FOPE+D'1', W
069B  1683  	BSF STATUS, RP0
069C  00B9  	MOVWF __rem_32_3_00002_arg_a+D'1'
069D  1283  	BCF STATUS, RP0
069E  0859  	MOVF gbl_FCV_FOPE+D'2', W
069F  1683  	BSF STATUS, RP0
06A0  00BA  	MOVWF __rem_32_3_00002_arg_a+D'2'
06A1  1283  	BCF STATUS, RP0
06A2  085A  	MOVF gbl_FCV_FOPE+D'3', W
06A3  1683  	BSF STATUS, RP0
06A4  00BB  	MOVWF __rem_32_3_00002_arg_a+D'3'
06A5  300A  	MOVLW 0x0A
06A6  00BC  	MOVWF __rem_32_3_00002_arg_b
06A7  01BD  	CLRF __rem_32_3_00002_arg_b+D'1'
06A8  01BE  	CLRF __rem_32_3_00002_arg_b+D'2'
06A9  01BF  	CLRF __rem_32_3_00002_arg_b+D'3'
06AA  2183  	CALL __rem_32_3_00002
06AB  084D  	MOVF CompTempVarRet212, W
06AC  00B1  	MOVWF gbl_FCV_AWAY_FOUL
06AD  1283  	BCF STATUS, RP0
06AE  0857  	MOVF gbl_FCV_FOPE, W
06AF  1683  	BSF STATUS, RP0
06B0  00B8  	MOVWF __rem_32_3_00002_arg_a
06B1  1283  	BCF STATUS, RP0
06B2  0858  	MOVF gbl_FCV_FOPE+D'1', W
06B3  1683  	BSF STATUS, RP0
06B4  00B9  	MOVWF __rem_32_3_00002_arg_a+D'1'
06B5  1283  	BCF STATUS, RP0
06B6  0859  	MOVF gbl_FCV_FOPE+D'2', W
06B7  1683  	BSF STATUS, RP0
06B8  00BA  	MOVWF __rem_32_3_00002_arg_a+D'2'
06B9  1283  	BCF STATUS, RP0
06BA  085A  	MOVF gbl_FCV_FOPE+D'3', W
06BB  1683  	BSF STATUS, RP0
06BC  00BB  	MOVWF __rem_32_3_00002_arg_a+D'3'
06BD  3064  	MOVLW 0x64
06BE  00BC  	MOVWF __rem_32_3_00002_arg_b
06BF  01BD  	CLRF __rem_32_3_00002_arg_b+D'1'
06C0  01BE  	CLRF __rem_32_3_00002_arg_b+D'2'
06C1  01BF  	CLRF __rem_32_3_00002_arg_b+D'3'
06C2  2183  	CALL __rem_32_3_00002
06C3  084D  	MOVF CompTempVarRet212, W
06C4  00C0  	MOVWF __div_32_3_00001_arg_a
06C5  084E  	MOVF CompTempVarRet212+D'1', W
06C6  00C1  	MOVWF __div_32_3_00001_arg_a+D'1'
06C7  084F  	MOVF CompTempVarRet212+D'2', W
06C8  00C2  	MOVWF __div_32_3_00001_arg_a+D'2'
06C9  0850  	MOVF CompTempVarRet212+D'3', W
06CA  00C3  	MOVWF __div_32_3_00001_arg_a+D'3'
06CB  300A  	MOVLW 0x0A
06CC  00C4  	MOVWF __div_32_3_00001_arg_b
06CD  01C5  	CLRF __div_32_3_00001_arg_b+D'1'
06CE  01C6  	CLRF __div_32_3_00001_arg_b+D'2'
06CF  01C7  	CLRF __div_32_3_00001_arg_b+D'3'
06D0  21CD  	CALL __div_32_3_00001
06D1  084D  	MOVF CompTempVarRet210, W
06D2  00FE  	MOVWF gbl_FCV_PERIOD
06D3  3000  	MOVLW HIGH(gbl_FCV_RCV+D'0')
06D4  00B9  	MOVWF FCI_RIGHTS_00048_arg_sSrc+D'1'
06D5  3020  	MOVLW LOW(gbl_FCV_RCV+D'0')
06D6  00B8  	MOVWF FCI_RIGHTS_00048_arg_sSrc
06D7  300F  	MOVLW 0x0F
06D8  00BA  	MOVWF FCI_RIGHTS_00048_arg_iSrc_len
06D9  3008  	MOVLW 0x08
06DA  00BB  	MOVWF FCI_RIGHTS_00048_arg_iCount
06DB  3000  	MOVLW HIGH(gbl_FCV_STRING_HOME+D'0')
06DC  00BD  	MOVWF FCI_RIGHTS_00048_arg_sDst+D'1'
06DD  3065  	MOVLW LOW(gbl_FCV_STRING_HOME+D'0')
06DE  00BC  	MOVWF FCI_RIGHTS_00048_arg_sDst
06DF  3003  	MOVLW 0x03
06E0  00BE  	MOVWF FCI_RIGHTS_00048_arg_iDst_len
06E1  250A  	CALL FCI_RIGHTS_00048
06E2  3000  	MOVLW HIGH(gbl_FCV_STRING_HOME+D'0')
06E3  00B9  	MOVWF FCI_STRING_0004F_arg_String+D'1'
06E4  3065  	MOVLW LOW(gbl_FCV_STRING_HOME+D'0')
06E5  00B8  	MOVWF FCI_STRING_0004F_arg_String
06E6  3003  	MOVLW 0x03
06E7  00BA  	MOVWF FCI_STRING_0004F_arg_MSZ_String
06E8  2473  	CALL FCI_STRING_0004F
06E9  0842  	MOVF CompTempVarRet2063, W
06EA  1283  	BCF STATUS, RP0
06EB  00CF  	MOVWF gbl_FCV_HOME_SCORE
06EC  1683  	BSF STATUS, RP0
06ED  0843  	MOVF CompTempVarRet2063+D'1', W
06EE  1283  	BCF STATUS, RP0
06EF  00D0  	MOVWF gbl_FCV_HOME_SCORE+D'1'
06F0  1683  	BSF STATUS, RP0
06F1  0844  	MOVF CompTempVarRet2063+D'2', W
06F2  1283  	BCF STATUS, RP0
06F3  00D1  	MOVWF gbl_FCV_HOME_SCORE+D'2'
06F4  1683  	BSF STATUS, RP0
06F5  0845  	MOVF CompTempVarRet2063+D'3', W
06F6  1283  	BCF STATUS, RP0
06F7  00D2  	MOVWF gbl_FCV_HOME_SCORE+D'3'
06F8  3000  	MOVLW HIGH(gbl_FCV_RCV+D'0')
06F9  1683  	BSF STATUS, RP0
06FA  00B9  	MOVWF FCI_RIGHTS_00048_arg_sSrc+D'1'
06FB  3020  	MOVLW LOW(gbl_FCV_RCV+D'0')
06FC  00B8  	MOVWF FCI_RIGHTS_00048_arg_sSrc
06FD  300F  	MOVLW 0x0F
06FE  00BA  	MOVWF FCI_RIGHTS_00048_arg_iSrc_len
06FF  3005  	MOVLW 0x05
0700  00BB  	MOVWF FCI_RIGHTS_00048_arg_iCount
0701  3000  	MOVLW HIGH(gbl_FCV_STRING_AWAY+D'0')
0702  00BD  	MOVWF FCI_RIGHTS_00048_arg_sDst+D'1'
0703  305F  	MOVLW LOW(gbl_FCV_STRING_AWAY+D'0')
0704  00BC  	MOVWF FCI_RIGHTS_00048_arg_sDst
0705  3003  	MOVLW 0x03
0706  00BE  	MOVWF FCI_RIGHTS_00048_arg_iDst_len
0707  250A  	CALL FCI_RIGHTS_00048
0708  3000  	MOVLW HIGH(gbl_FCV_STRING_AWAY+D'0')
0709  00B9  	MOVWF FCI_STRING_0004F_arg_String+D'1'
070A  305F  	MOVLW LOW(gbl_FCV_STRING_AWAY+D'0')
070B  00B8  	MOVWF FCI_STRING_0004F_arg_String
070C  3003  	MOVLW 0x03
070D  00BA  	MOVWF FCI_STRING_0004F_arg_MSZ_String
070E  2473  	CALL FCI_STRING_0004F
070F  0842  	MOVF CompTempVarRet2063, W
0710  1283  	BCF STATUS, RP0
0711  00C7  	MOVWF gbl_FCV_AWAY_SCORE
0712  1683  	BSF STATUS, RP0
0713  0843  	MOVF CompTempVarRet2063+D'1', W
0714  1283  	BCF STATUS, RP0
0715  00C8  	MOVWF gbl_FCV_AWAY_SCORE+D'1'
0716  1683  	BSF STATUS, RP0
0717  0844  	MOVF CompTempVarRet2063+D'2', W
0718  1283  	BCF STATUS, RP0
0719  00C9  	MOVWF gbl_FCV_AWAY_SCORE+D'2'
071A  1683  	BSF STATUS, RP0
071B  0845  	MOVF CompTempVarRet2063+D'3', W
071C  1283  	BCF STATUS, RP0
071D  00CA  	MOVWF gbl_FCV_AWAY_SCORE+D'3'
071E  3000  	MOVLW HIGH(gbl_FCV_RCV+D'0')
071F  1683  	BSF STATUS, RP0
0720  00B9  	MOVWF FCI_RIGHTS_00048_arg_sSrc+D'1'
0721  3020  	MOVLW LOW(gbl_FCV_RCV+D'0')
0722  00B8  	MOVWF FCI_RIGHTS_00048_arg_sSrc
0723  300F  	MOVLW 0x0F
0724  00BA  	MOVWF FCI_RIGHTS_00048_arg_iSrc_len
0725  3002  	MOVLW 0x02
0726  00BB  	MOVWF FCI_RIGHTS_00048_arg_iCount
0727  3000  	MOVLW HIGH(gbl_FCV_END+D'0')
0728  00BD  	MOVWF FCI_RIGHTS_00048_arg_sDst+D'1'
0729  306D  	MOVLW LOW(gbl_FCV_END+D'0')
072A  00BC  	MOVWF FCI_RIGHTS_00048_arg_sDst
072B  3002  	MOVLW 0x02
072C  00BE  	MOVWF FCI_RIGHTS_00048_arg_iDst_len
072D  250A  	CALL FCI_RIGHTS_00048
072E  1283  	BCF STATUS, RP0
072F  086D  	MOVF gbl_FCV_END, W
0730  3A43  	XORLW 0x43
0731  1D03  	BTFSS STATUS,Z
0732  2F53  	GOTO	label104
0733  086E  	MOVF gbl_FCV_END+D'1', W
0734  3A44  	XORLW 0x44
0735  1D03  	BTFSS STATUS,Z
0736  2F53  	GOTO	label104
0737  0847  	MOVF gbl_FCV_AWAY_SCORE, W
0738  00D3  	MOVWF gbl_FCV_STORED_AWAY_SCORE
0739  0848  	MOVF gbl_FCV_AWAY_SCORE+D'1', W
073A  00D4  	MOVWF gbl_FCV_STORED_AWAY_SCORE+D'1'
073B  0849  	MOVF gbl_FCV_AWAY_SCORE+D'2', W
073C  00D5  	MOVWF gbl_FCV_STORED_AWAY_SCORE+D'2'
073D  084A  	MOVF gbl_FCV_AWAY_SCORE+D'3', W
073E  00D6  	MOVWF gbl_FCV_STORED_AWAY_SCORE+D'3'
073F  084F  	MOVF gbl_FCV_HOME_SCORE, W
0740  00C3  	MOVWF gbl_FCV_STORED_HOME_SCORE
0741  0850  	MOVF gbl_FCV_HOME_SCORE+D'1', W
0742  00C4  	MOVWF gbl_FCV_STORED_HOME_SCORE+D'1'
0743  0851  	MOVF gbl_FCV_HOME_SCORE+D'2', W
0744  00C5  	MOVWF gbl_FCV_STORED_HOME_SCORE+D'2'
0745  0852  	MOVF gbl_FCV_HOME_SCORE+D'3', W
0746  00C6  	MOVWF gbl_FCV_STORED_HOME_SCORE+D'3'
0747  1683  	BSF STATUS, RP0
0748  0823  	MOVF gbl_FCV_HOME_FOUL, W
0749  00A2  	MOVWF gbl_FCV_STORED_HOME_FOUL
074A  0831  	MOVF gbl_FCV_AWAY_FOUL, W
074B  00B0  	MOVWF gbl_FCV_STORED_AWAY_FOUL
074C  087E  	MOVF gbl_FCV_PERIOD, W
074D  00A5  	MOVWF gbl_FCV_STORED_PERIOD
074E  082F  	MOVF gbl_FCV_MIN, W
074F  00FD  	MOVWF gbl_FCV_STORED_MIN
0750  082E  	MOVF gbl_FCV_SEC, W
0751  00FA  	MOVWF gbl_FCV_STORED_SEC
0752  2F6F  	GOTO	label105
0753        label104
0753  0853  	MOVF gbl_FCV_STORED_AWAY_SCORE, W
0754  00C7  	MOVWF gbl_FCV_AWAY_SCORE
0755  0854  	MOVF gbl_FCV_STORED_AWAY_SCORE+D'1', W
0756  00C8  	MOVWF gbl_FCV_AWAY_SCORE+D'1'
0757  0855  	MOVF gbl_FCV_STORED_AWAY_SCORE+D'2', W
0758  00C9  	MOVWF gbl_FCV_AWAY_SCORE+D'2'
0759  0856  	MOVF gbl_FCV_STORED_AWAY_SCORE+D'3', W
075A  00CA  	MOVWF gbl_FCV_AWAY_SCORE+D'3'
075B  0843  	MOVF gbl_FCV_STORED_HOME_SCORE, W
075C  00CF  	MOVWF gbl_FCV_HOME_SCORE
075D  0844  	MOVF gbl_FCV_STORED_HOME_SCORE+D'1', W
075E  00D0  	MOVWF gbl_FCV_HOME_SCORE+D'1'
075F  0845  	MOVF gbl_FCV_STORED_HOME_SCORE+D'2', W
0760  00D1  	MOVWF gbl_FCV_HOME_SCORE+D'2'
0761  0846  	MOVF gbl_FCV_STORED_HOME_SCORE+D'3', W
0762  00D2  	MOVWF gbl_FCV_HOME_SCORE+D'3'
0763  1683  	BSF STATUS, RP0
0764  0822  	MOVF gbl_FCV_STORED_HOME_FOUL, W
0765  00A3  	MOVWF gbl_FCV_HOME_FOUL
0766  0830  	MOVF gbl_FCV_STORED_AWAY_FOUL, W
0767  00B1  	MOVWF gbl_FCV_AWAY_FOUL
0768  0825  	MOVF gbl_FCV_STORED_PERIOD, W
0769  00FE  	MOVWF gbl_FCV_PERIOD
076A  087D  	MOVF gbl_FCV_STORED_MIN, W
076B  00AF  	MOVWF gbl_FCV_MIN
076C  087A  	MOVF gbl_FCV_STORED_SEC, W
076D  00AE  	MOVWF gbl_FCV_SEC
076E  2DBB  	GOTO	label100
076F        label105
076F  1283  	BCF STATUS, RP0
0770  084F  	MOVF gbl_FCV_HOME_SCORE, W
0771  1683  	BSF STATUS, RP0
0772  00C0  	MOVWF __div_32_3_00001_arg_a
0773  1283  	BCF STATUS, RP0
0774  0850  	MOVF gbl_FCV_HOME_SCORE+D'1', W
0775  1683  	BSF STATUS, RP0
0776  00C1  	MOVWF __div_32_3_00001_arg_a+D'1'
0777  1283  	BCF STATUS, RP0
0778  0851  	MOVF gbl_FCV_HOME_SCORE+D'2', W
0779  1683  	BSF STATUS, RP0
077A  00C2  	MOVWF __div_32_3_00001_arg_a+D'2'
077B  1283  	BCF STATUS, RP0
077C  0852  	MOVF gbl_FCV_HOME_SCORE+D'3', W
077D  1683  	BSF STATUS, RP0
077E  00C3  	MOVWF __div_32_3_00001_arg_a+D'3'
077F  300A  	MOVLW 0x0A
0780  00C4  	MOVWF __div_32_3_00001_arg_b
0781  01C5  	CLRF __div_32_3_00001_arg_b+D'1'
0782  01C6  	CLRF __div_32_3_00001_arg_b+D'2'
0783  01C7  	CLRF __div_32_3_00001_arg_b+D'3'
0784  21CD  	CALL __div_32_3_00001
0785  084D  	MOVF CompTempVarRet210, W
0786  00AB  	MOVWF gbl_FCV_HOME_SCORE_TENS
0787  1283  	BCF STATUS, RP0
0788  084F  	MOVF gbl_FCV_HOME_SCORE, W
0789  1683  	BSF STATUS, RP0
078A  00B8  	MOVWF __rem_32_3_00002_arg_a
078B  1283  	BCF STATUS, RP0
078C  0850  	MOVF gbl_FCV_HOME_SCORE+D'1', W
078D  1683  	BSF STATUS, RP0
078E  00B9  	MOVWF __rem_32_3_00002_arg_a+D'1'
078F  1283  	BCF STATUS, RP0
0790  0851  	MOVF gbl_FCV_HOME_SCORE+D'2', W
0791  1683  	BSF STATUS, RP0
0792  00BA  	MOVWF __rem_32_3_00002_arg_a+D'2'
0793  1283  	BCF STATUS, RP0
0794  0852  	MOVF gbl_FCV_HOME_SCORE+D'3', W
0795  1683  	BSF STATUS, RP0
0796  00BB  	MOVWF __rem_32_3_00002_arg_a+D'3'
0797  300A  	MOVLW 0x0A
0798  00BC  	MOVWF __rem_32_3_00002_arg_b
0799  01BD  	CLRF __rem_32_3_00002_arg_b+D'1'
079A  01BE  	CLRF __rem_32_3_00002_arg_b+D'2'
079B  01BF  	CLRF __rem_32_3_00002_arg_b+D'3'
079C  2183  	CALL __rem_32_3_00002
079D  084D  	MOVF CompTempVarRet212, W
079E  00FB  	MOVWF gbl_FCV_HOME_SCORE_ONES
079F  1283  	BCF STATUS, RP0
07A0  0847  	MOVF gbl_FCV_AWAY_SCORE, W
07A1  1683  	BSF STATUS, RP0
07A2  00C0  	MOVWF __div_32_3_00001_arg_a
07A3  1283  	BCF STATUS, RP0
07A4  0848  	MOVF gbl_FCV_AWAY_SCORE+D'1', W
07A5  1683  	BSF STATUS, RP0
07A6  00C1  	MOVWF __div_32_3_00001_arg_a+D'1'
07A7  1283  	BCF STATUS, RP0
07A8  0849  	MOVF gbl_FCV_AWAY_SCORE+D'2', W
07A9  1683  	BSF STATUS, RP0
07AA  00C2  	MOVWF __div_32_3_00001_arg_a+D'2'
07AB  1283  	BCF STATUS, RP0
07AC  084A  	MOVF gbl_FCV_AWAY_SCORE+D'3', W
07AD  1683  	BSF STATUS, RP0
07AE  00C3  	MOVWF __div_32_3_00001_arg_a+D'3'
07AF  300A  	MOVLW 0x0A
07B0  00C4  	MOVWF __div_32_3_00001_arg_b
07B1  01C5  	CLRF __div_32_3_00001_arg_b+D'1'
07B2  01C6  	CLRF __div_32_3_00001_arg_b+D'2'
07B3  01C7  	CLRF __div_32_3_00001_arg_b+D'3'
07B4  21CD  	CALL __div_32_3_00001
07B5  084D  	MOVF CompTempVarRet210, W
07B6  00A1  	MOVWF gbl_FCV_AWAY_SCORE_TENS
07B7  1283  	BCF STATUS, RP0
07B8  0847  	MOVF gbl_FCV_AWAY_SCORE, W
07B9  1683  	BSF STATUS, RP0
07BA  00B8  	MOVWF __rem_32_3_00002_arg_a
07BB  1283  	BCF STATUS, RP0
07BC  0848  	MOVF gbl_FCV_AWAY_SCORE+D'1', W
07BD  1683  	BSF STATUS, RP0
07BE  00B9  	MOVWF __rem_32_3_00002_arg_a+D'1'
07BF  1283  	BCF STATUS, RP0
07C0  0849  	MOVF gbl_FCV_AWAY_SCORE+D'2', W
07C1  1683  	BSF STATUS, RP0
07C2  00BA  	MOVWF __rem_32_3_00002_arg_a+D'2'
07C3  1283  	BCF STATUS, RP0
07C4  084A  	MOVF gbl_FCV_AWAY_SCORE+D'3', W
07C5  1683  	BSF STATUS, RP0
07C6  00BB  	MOVWF __rem_32_3_00002_arg_a+D'3'
07C7  300A  	MOVLW 0x0A
07C8  00BC  	MOVWF __rem_32_3_00002_arg_b
07C9  01BD  	CLRF __rem_32_3_00002_arg_b+D'1'
07CA  01BE  	CLRF __rem_32_3_00002_arg_b+D'2'
07CB  01BF  	CLRF __rem_32_3_00002_arg_b+D'3'
07CC  2183  	CALL __rem_32_3_00002
07CD  084D  	MOVF CompTempVarRet212, W
07CE  00A9  	MOVWF gbl_FCV_AWAY_SCORE_ONES
07CF  082F  	MOVF gbl_FCV_MIN, W
07D0  00B8  	MOVWF __div_8_8_00000_arg_a
07D1  300A  	MOVLW 0x0A
07D2  00B9  	MOVWF __div_8_8_00000_arg_b
07D3  21BC  	CALL __div_8_8_00000
07D4  083C  	MOVF CompTempVarRet218, W
07D5  00B3  	MOVWF gbl_FCV_MIN_TENS
07D6  082F  	MOVF gbl_FCV_MIN, W
07D7  00B8  	MOVWF __rem_8_8_00000_arg_a
07D8  300A  	MOVLW 0x0A
07D9  00B9  	MOVWF __rem_8_8_00000_arg_b
07DA  2172  	CALL __rem_8_8_00000
07DB  083C  	MOVF CompTempVarRet220, W
07DC  00A4  	MOVWF gbl_FCV_MIN_ONES
07DD  082E  	MOVF gbl_FCV_SEC, W
07DE  00B8  	MOVWF __div_8_8_00000_arg_a
07DF  300A  	MOVLW 0x0A
07E0  00B9  	MOVWF __div_8_8_00000_arg_b
07E1  21BC  	CALL __div_8_8_00000
07E2  083C  	MOVF CompTempVarRet218, W
07E3  00A8  	MOVWF gbl_FCV_SEC_TENS
07E4  082E  	MOVF gbl_FCV_SEC, W
07E5  00B8  	MOVWF __rem_8_8_00000_arg_a
07E6  300A  	MOVLW 0x0A
07E7  00B9  	MOVWF __rem_8_8_00000_arg_b
07E8  2172  	CALL __rem_8_8_00000
07E9  083C  	MOVF CompTempVarRet220, W
07EA  00B2  	MOVWF gbl_FCV_SEC_ONES
07EB  2215  	CALL FCM_regist_00052
07EC  2DBB  	GOTO	label100
07ED        ; } main function end

	ORG 0x000007ED
07ED        _startup
07ED  30D5  	MOVLW 0xD5
07EE  1283  	BCF STATUS, RP0
07EF  1303  	BCF STATUS, RP1
07F0  00AF  	MOVWF gbl_14_LSR
07F1  30C4  	MOVLW 0xC4
07F2  00B0  	MOVWF gbl_14_LSR+D'1'
07F3  30BB  	MOVLW 0xBB
07F4  00B1  	MOVWF gbl_14_LSR+D'2'
07F5  30DC  	MOVLW 0xDC
07F6  00B2  	MOVWF gbl_14_LSR+D'3'
07F7  01B3  	CLRF gbl_15_gbl_aSig
07F8  01B4  	CLRF gbl_15_gbl_aSig+D'1'
07F9  01B5  	CLRF gbl_15_gbl_aSig+D'2'
07FA  01B6  	CLRF gbl_15_gbl_aSig+D'3'
07FB  01B7  	CLRF gbl_15_gbl_bSig
07FC  01B8  	CLRF gbl_15_gbl_bSig+D'1'
07FD  01B9  	CLRF gbl_15_gbl_bSig+D'2'
07FE  01BA  	CLRF gbl_15_gbl_bSig+D'3'
07FF  01BB  	CLRF gbl_15_gbl_zSig
0800  01BC  	CLRF gbl_15_gbl_zSig+D'1'
0801  01BD  	CLRF gbl_15_gbl_zSig+D'2'
0802  01BE  	CLRF gbl_15_gbl_zSig+D'3'
0803  01F2  	CLRF gbl_15_gbl_aExp
0804  01F3  	CLRF gbl_15_gbl_bExp
0805  01EB  	CLRF gbl_15_gbl_zExp
0806  01EC  	CLRF gbl_15_gbl_zExp+D'1'
0807  01F4  	CLRF gbl_15_gbl_aSign
0808  01F5  	CLRF gbl_15_gbl_bSign
0809  01F6  	CLRF gbl_15_gbl_zSign
080A  01F7  	CLRF gbl_15_gbl_zSigZero
080B  01BF  	CLRF gbl_15_gbl_ret
080C  01C0  	CLRF gbl_15_gbl_ret+D'1'
080D  01C1  	CLRF gbl_15_gbl_ret+D'2'
080E  01C2  	CLRF gbl_15_gbl_ret+D'3'
080F  01F0  	CLRF gbl_float_rounding_mode
0810  01F1  	CLRF gbl_float_exception_flags
0811  01EF  	CLRF gbl_float_detect_tininess
0812  01F8  	CLRF gbl_FCV_DIGIT_FOPE
0813  01C3  	CLRF gbl_FCV_STORED_HOME_SCORE
0814  01C4  	CLRF gbl_FCV_STORED_HOME_SCORE+D'1'
0815  01C5  	CLRF gbl_FCV_STORED_HOME_SCORE+D'2'
0816  01C6  	CLRF gbl_FCV_STORED_HOME_SCORE+D'3'
0817  01FA  	CLRF gbl_FCV_STORED_SEC
0818  01FD  	CLRF gbl_FCV_STORED_MIN
0819  1683  	BSF STATUS, RP0
081A  01A0  	CLRF gbl_FCV_BITS_SCORE
081B  01A1  	CLRF gbl_FCV_AWAY_SCORE_TENS
081C  01A2  	CLRF gbl_FCV_STORED_HOME_FOUL
081D  01A3  	CLRF gbl_FCV_HOME_FOUL
081E  01A4  	CLRF gbl_FCV_MIN_ONES
081F  01A5  	CLRF gbl_FCV_STORED_PERIOD
0820  1283  	BCF STATUS, RP0
0821  01DF  	CLRF gbl_FCV_STRING_AWAY
0822  01ED  	CLRF gbl_FCV_END
0823  01C7  	CLRF gbl_FCV_AWAY_SCORE
0824  01C8  	CLRF gbl_FCV_AWAY_SCORE+D'1'
0825  01C9  	CLRF gbl_FCV_AWAY_SCORE+D'2'
0826  01CA  	CLRF gbl_FCV_AWAY_SCORE+D'3'
0827  10FC  	BCF gbl_FCV_DAT_FOPE,1
0828  117C  	BCF gbl_FCV_DAT_TIME,2
0829  1683  	BSF STATUS, RP0
082A  01A7  	CLRF gbl_FCV_DIGIT
082B  1283  	BCF STATUS, RP0
082C  01CB  	CLRF gbl_FCV_STRING_TIME
082D  1683  	BSF STATUS, RP0
082E  01A9  	CLRF gbl_FCV_AWAY_SCORE_ONES
082F  1283  	BCF STATUS, RP0
0830  01E2  	CLRF gbl_FCV_STRING_FOPE
0831  01E5  	CLRF gbl_FCV_STRING_HOME
0832  1683  	BSF STATUS, RP0
0833  01AA  	CLRF gbl_FCV_DIGIT_SCORE
0834  01AC  	CLRF gbl_FCV_BITS_FOPE
0835  01AD  	CLRF gbl_FCV_BITS_TIME
0836  01AF  	CLRF gbl_FCV_MIN
0837  1283  	BCF STATUS, RP0
0838  01D3  	CLRF gbl_FCV_STORED_AWAY_SCORE
0839  01D4  	CLRF gbl_FCV_STORED_AWAY_SCORE+D'1'
083A  01D5  	CLRF gbl_FCV_STORED_AWAY_SCORE+D'2'
083B  01D6  	CLRF gbl_FCV_STORED_AWAY_SCORE+D'3'
083C  1683  	BSF STATUS, RP0
083D  01B0  	CLRF gbl_FCV_STORED_AWAY_FOUL
083E  1283  	BCF STATUS, RP0
083F  01DB  	CLRF gbl_FCV_TIME
0840  01DC  	CLRF gbl_FCV_TIME+D'1'
0841  01DD  	CLRF gbl_FCV_TIME+D'2'
0842  01DE  	CLRF gbl_FCV_TIME+D'3'
0843  1683  	BSF STATUS, RP0
0844  01B1  	CLRF gbl_FCV_AWAY_FOUL
0845  01B3  	CLRF gbl_FCV_MIN_TENS
0846  1283  	BCF STATUS, RP0
0847  01A0  	CLRF gbl_FCV_RCV
0848  118A  	BCF PCLATH,3
0849  120A  	BCF PCLATH,4
084A  2D9D  	GOTO	main
	ORG 0x0000084B
084B        interrupt
084B        ; { interrupt ; function begin
084B  1283  	BCF STATUS, RP0
084C  1303  	BCF STATUS, RP1
084D  0E6A  	SWAPF Int1BContext+D'2', W
084E  0084  	MOVWF FSR
084F  0E69  	SWAPF Int1BContext+D'1', W
0850  008A  	MOVWF PCLATH
0851  0E68  	SWAPF Int1BContext, W
0852  0083  	MOVWF STATUS
0853  0EFF  	SWAPF Int1Context, F
0854  0E7F  	SWAPF Int1Context, W
0855  0009  	RETFIE
0856        ; } interrupt function end

	ORG 0x00002007
2007  20D2  	DW 0x20D2
2008  3FFF  	DW 0x3FFF
